; Listing generated by Microsoft (R) Optimizing Compiler Version 19.00.24247.2 

	TITLE	D:\!DIFFUSION 2020\source code 2022\client-server\server\physics\physic.cpp
	.686P
	.XMM
	include listing.inc
	.model	flat

INCLUDELIB LIBCMT
INCLUDELIB OLDNAMES

PUBLIC	?g_pPushedEntities@@3PAVCPhysicsPushedEntities@@A ; g_pPushedEntities
PUBLIC	?EngineSetFeatures@@YAIXZ			; EngineSetFeatures
PUBLIC	?DrawDebugTriangles@@YAXXZ			; DrawDebugTriangles
PUBLIC	?DrawOrthoTriangles@@YAXXZ			; DrawOrthoTriangles
PUBLIC	?SV_ClipMoveToEntity@@YAXPAUedict_s@@PBMPAM21PAUtrace_s@@@Z ; SV_ClipMoveToEntity
PUBLIC	?SV_ClipPMoveToEntity@@YAXPAUphysent_s@@PBMPAM21PAUpmtrace_s@@@Z ; SV_ClipPMoveToEntity
PUBLIC	?SV_RestoreDecal@@YAHPAUdecallist_s@@PAUedict_s@@H@Z ; SV_RestoreDecal
PUBLIC	?PM_PlayerTouch@@YAXPAUplayermove_s@@PAUedict_s@@@Z ; PM_PlayerTouch
PUBLIC	?SV_AllocString@@YAHPBD@Z			; SV_AllocString
PUBLIC	?SV_MakeString@@YAHPBD@Z			; SV_MakeString
PUBLIC	?SV_GetString@@YAPBDH@Z				; SV_GetString
PUBLIC	?PrepWorldFrame@@YAXXZ				; PrepWorldFrame
PUBLIC	?DispatchCreateEntity@@YAHPAUedict_s@@PBD@Z	; DispatchCreateEntity
PUBLIC	?DispatchPhysicsEntity@@YAHPAUedict_s@@@Z	; DispatchPhysicsEntity
PUBLIC	?DispatchUpdatePlayerBaseVelocity@@YAXPAUedict_s@@@Z ; DispatchUpdatePlayerBaseVelocity
EXTRN	?EndFrame@@YAXXZ:PROC				; EndFrame
EXTRN	?DispatchCreateEntitiesInRestoreList@@YAXPAUsaverestore_s@@HH@Z:PROC ; DispatchCreateEntitiesInRestoreList
EXTRN	?DispatchSpawnEntities@@YAHPBDPAD@Z:PROC	; DispatchSpawnEntities
_DATA	SEGMENT
?g_pPushedEntities@@3PAVCPhysicsPushedEntities@@A DD FLAT:?s_PushedEntities@@3VCPhysicsPushedEntities@@A ; g_pPushedEntities
	ORG $+4
?gPhysicsInterface@@3Uphysics_interface_s@@A DD 06H	; gPhysicsInterface
	DD	FLAT:?DispatchCreateEntity@@YAHPAUedict_s@@PBD@Z
	DD	FLAT:?DispatchPhysicsEntity@@YAHPAUedict_s@@@Z
	DD	FLAT:?DispatchSpawnEntities@@YAHPBDPAD@Z
	DD	FLAT:?DispatchUpdatePlayerBaseVelocity@@YAXPAUedict_s@@@Z
	DD	00H
	DD	00H
	DD	FLAT:?EngineSetFeatures@@YAIXZ
	DD	FLAT:?DrawDebugTriangles@@YAXXZ
	DD	FLAT:?PrepWorldFrame@@YAXXZ
	DD	FLAT:?DrawOrthoTriangles@@YAXXZ
	DD	FLAT:?SV_ClipMoveToEntity@@YAXPAUedict_s@@PBMPAM21PAUtrace_s@@@Z
	DD	FLAT:?SV_ClipPMoveToEntity@@YAXPAUphysent_s@@PBMPAM21PAUpmtrace_s@@@Z
	DD	FLAT:?EndFrame@@YAXXZ
	DD	00H
	DD	FLAT:?DispatchCreateEntitiesInRestoreList@@YAXPAUsaverestore_s@@HH@Z
	DD	FLAT:?SV_AllocString@@YAHPBD@Z
	DD	FLAT:?SV_MakeString@@YAHPBD@Z
	DD	FLAT:?SV_GetString@@YAPBDH@Z
	DD	FLAT:?SV_RestoreDecal@@YAHPAUdecallist_s@@PAUedict_s@@H@Z
	DD	FLAT:?PM_PlayerTouch@@YAXPAUplayermove_s@@PAUedict_s@@@Z
	ORG $+12
_DATA	ENDS
PUBLIC	??_H@YGXPAXIIP6EPAX0@Z@Z			; `vector constructor iterator'
PUBLIC	??__G@YGXPAX0IIP6EPAX00@Z@Z			; `vector copy constructor iterator'
PUBLIC	?__empty_global_delete@@YAXPAX@Z		; __empty_global_delete
PUBLIC	?__empty_global_delete@@YAXPAXI@Z		; __empty_global_delete
PUBLIC	_fabsf
PUBLIC	_sqrtf
PUBLIC	?SinCos@@YAXMPAM0@Z				; SinCos
PUBLIC	??0Vector@@QAE@XZ				; Vector::Vector
PUBLIC	??0Vector@@QAE@MMM@Z				; Vector::Vector
PUBLIC	??0Vector@@QAE@ABV0@@Z				; Vector::Vector
PUBLIC	??0Vector@@QAE@PBM@Z				; Vector::Vector
PUBLIC	??0Vector@@QAE@QAM@Z				; Vector::Vector
PUBLIC	??GVector@@QBE?AV0@XZ				; Vector::operator-
PUBLIC	??8Vector@@QBEHABV0@@Z				; Vector::operator==
PUBLIC	??9Vector@@QBEHABV0@@Z				; Vector::operator!=
PUBLIC	??HVector@@QBE?AV0@ABV0@@Z			; Vector::operator+
PUBLIC	??GVector@@QBE?AV0@ABV0@@Z			; Vector::operator-
PUBLIC	??HVector@@QBE?AV0@M@Z				; Vector::operator+
PUBLIC	??GVector@@QBE?AV0@M@Z				; Vector::operator-
PUBLIC	??DVector@@QBE?AV0@M@Z				; Vector::operator*
PUBLIC	??YVector@@QAEAAV0@ABV0@@Z			; Vector::operator+=
PUBLIC	??ZVector@@QAEAAV0@ABV0@@Z			; Vector::operator-=
PUBLIC	??BVector@@QAEPAMXZ				; Vector::operator float *
PUBLIC	??BVector@@QBEPBMXZ				; Vector::operator float const *
PUBLIC	?DotProduct@@YAMABVVector@@0@Z			; DotProduct
PUBLIC	?CrossProduct@@YA?AVVector@@ABV1@0@Z		; CrossProduct
PUBLIC	??0Vector4D@@QAE@XZ				; Vector4D::Vector4D
PUBLIC	??BVector4D@@QAEPAMXZ				; Vector4D::operator float *
PUBLIC	??0matrix4x4@@QAE@ABVVector@@0M@Z		; matrix4x4::matrix4x4
PUBLIC	??Amatrix4x4@@QAEPAMH@Z				; matrix4x4::operator[]
PUBLIC	??0plane_s@@QAE@XZ				; plane_s::plane_s
PUBLIC	??0trace_s@@QAE@XZ				; trace_s::trace_s
PUBLIC	??0gametrace_s@@QAE@XZ				; gametrace_s::gametrace_s
PUBLIC	??0gametrace_s@@QAE@$$QAU0@@Z			; gametrace_s::gametrace_s
PUBLIC	?GET_PRIVATE@@YAPAXPAUedict_s@@@Z		; GET_PRIVATE
PUBLIC	?fabs@@YAMM@Z					; fabs
PUBLIC	?sqrt@@YAMM@Z					; sqrt
PUBLIC	??2@YAPAXIPAX@Z					; operator new
PUBLIC	??3@YAXPAX0@Z					; operator delete
PUBLIC	?UtlMemory_CalcNewAllocationCount@@YAHHHHH@Z	; UtlMemory_CalcNewAllocationCount
PUBLIC	?ENT@@YAPAUedict_s@@PBUentvars_s@@@Z		; ENT
PUBLIC	?ENT@@YAPAUedict_s@@H@Z				; ENT
PUBLIC	?OFFSET@@YAHPBUedict_s@@@Z			; OFFSET
PUBLIC	?OFFSET@@YAHPAUentvars_s@@@Z			; OFFSET
PUBLIC	?ENTINDEX@@YAHPAUedict_s@@@Z			; ENTINDEX
PUBLIC	?INDEXENT@@YAPAUedict_s@@H@Z			; INDEXENT
PUBLIC	?FNullEnt@@YAHH@Z				; FNullEnt
PUBLIC	?FNullEnt@@YAHPAUentvars_s@@@Z			; FNullEnt
PUBLIC	?FStrEq@@YAHPBD0@Z				; FStrEq
PUBLIC	?FClassnameIs@@YAHPAUentvars_s@@PBD@Z		; FClassnameIs
PUBLIC	?EMIT_SOUND@@YAXPAUedict_s@@HPBDMM@Z		; EMIT_SOUND
PUBLIC	?SV_Impact@@YAXPAVCBaseEntity@@0PAUgametrace_s@@@Z ; SV_Impact
PUBLIC	?SV_TestEntityPosition@@YAHPAVCBaseEntity@@0@Z	; SV_TestEntityPosition
PUBLIC	?SV_UpdateBaseVelocity@@YAXPAVCBaseEntity@@@Z	; SV_UpdateBaseVelocity
PUBLIC	_Server_GetPhysicsInterface
PUBLIC	?Get@EHANDLE@@QAEPAUedict_s@@XZ			; EHANDLE::Get
PUBLIC	??BEHANDLE@@QAEHXZ				; EHANDLE::operator int
PUBLIC	??BEHANDLE@@QAEPAVCBaseEntity@@XZ		; EHANDLE::operator CBaseEntity *
PUBLIC	?GetBaseVelocity@CBaseEntity@@QBEABVVector@@XZ	; CBaseEntity::GetBaseVelocity
PUBLIC	?EntityToWorldTransform@CBaseEntity@@QAEAAVmatrix4x4@@XZ ; CBaseEntity::EntityToWorldTransform
PUBLIC	?GetClassname@CBaseEntity@@QAEPBDXZ		; CBaseEntity::GetClassname
PUBLIC	?GetLocalTime@CBaseEntity@@QBEMXZ		; CBaseEntity::GetLocalTime
PUBLIC	?IncrementLocalTime@CBaseEntity@@QAEXM@Z	; CBaseEntity::IncrementLocalTime
PUBLIC	?GetMoveDoneTime@CBaseEntity@@QBEMXZ		; CBaseEntity::GetMoveDoneTime
PUBLIC	?SetMoveDoneTime@CBaseEntity@@QAEXM@Z		; CBaseEntity::SetMoveDoneTime
PUBLIC	?SetBaseVelocity@CBaseEntity@@QAEXABVVector@@@Z	; CBaseEntity::SetBaseVelocity
PUBLIC	?Instance@CBaseEntity@@SAPAV1@PAUedict_s@@@Z	; CBaseEntity::Instance
PUBLIC	?GetGroundEntity@CBaseEntity@@QAEPAV1@XZ	; CBaseEntity::GetGroundEntity
PUBLIC	?SetGroundEntity@CBaseEntity@@QAEXPAUedict_s@@@Z ; CBaseEntity::SetGroundEntity
PUBLIC	?ClearGroundEntity@CBaseEntity@@QAEXXZ		; CBaseEntity::ClearGroundEntity
PUBLIC	?MakeNonSolid@CBaseEntity@@QAEXXZ		; CBaseEntity::MakeNonSolid
PUBLIC	?RestoreSolid@CBaseEntity@@QAEXXZ		; CBaseEntity::RestoreSolid
PUBLIC	?edict@CBaseEntity@@QAEPAUedict_s@@XZ		; CBaseEntity::edict
PUBLIC	?RunPhysicsFrame@@YAHPAVCBaseEntity@@@Z		; RunPhysicsFrame
PUBLIC	??0CPhysicsPushedEntities@@QAE@XZ		; CPhysicsPushedEntities::CPhysicsPushedEntities
PUBLIC	?PerformRotatePush@CPhysicsPushedEntities@@QAEPAVCBaseEntity@@PAV2@M@Z ; CPhysicsPushedEntities::PerformRotatePush
PUBLIC	?PerformLinearPush@CPhysicsPushedEntities@@QAEPAVCBaseEntity@@PAV2@M@Z ; CPhysicsPushedEntities::PerformLinearPush
PUBLIC	?BeginPush@CPhysicsPushedEntities@@QAEXPAVCBaseEntity@@@Z ; CPhysicsPushedEntities::BeginPush
PUBLIC	?AddPushedEntityToBlockingList@CPhysicsPushedEntities@@QAEXPAVCBaseEntity@@@Z ; CPhysicsPushedEntities::AddPushedEntityToBlockingList
PUBLIC	??0RotatingPushMove_t@CPhysicsPushedEntities@@QAE@XZ ; CPhysicsPushedEntities::RotatingPushMove_t::RotatingPushMove_t
PUBLIC	??0PhysicsPusherInfo_t@CPhysicsPushedEntities@@QAE@XZ ; CPhysicsPushedEntities::PhysicsPusherInfo_t::PhysicsPusherInfo_t
PUBLIC	??0PhysicsPushedInfo_t@CPhysicsPushedEntities@@QAE@XZ ; CPhysicsPushedEntities::PhysicsPushedInfo_t::PhysicsPushedInfo_t
PUBLIC	?AddEntity@CPhysicsPushedEntities@@IAEXPAVCBaseEntity@@@Z ; CPhysicsPushedEntities::AddEntity
PUBLIC	?IsStandingOnPusher@CPhysicsPushedEntities@@IAE_NPAVCBaseEntity@@@Z ; CPhysicsPushedEntities::IsStandingOnPusher
PUBLIC	?RestoreEntities@CPhysicsPushedEntities@@IAEXXZ	; CPhysicsPushedEntities::RestoreEntities
PUBLIC	?CalcRotationalPushDirection@CPhysicsPushedEntities@@IAEXPAVCBaseEntity@@ABURotatingPushMove_t@1@AAVVector@@0@Z ; CPhysicsPushedEntities::CalcRotationalPushDirection
PUBLIC	?SpeculativelyCheckPush@CPhysicsPushedEntities@@IAE_NAAUPhysicsPushedInfo_t@1@ABVVector@@_N@Z ; CPhysicsPushedEntities::SpeculativelyCheckPush
PUBLIC	?SpeculativelyCheckRotPush@CPhysicsPushedEntities@@MAE_NABURotatingPushMove_t@1@PAVCBaseEntity@@@Z ; CPhysicsPushedEntities::SpeculativelyCheckRotPush
PUBLIC	?SpeculativelyCheckLinearPush@CPhysicsPushedEntities@@MAE_NABVVector@@@Z ; CPhysicsPushedEntities::SpeculativelyCheckLinearPush
PUBLIC	?RegisterBlockage@CPhysicsPushedEntities@@IAEPAVCBaseEntity@@XZ ; CPhysicsPushedEntities::RegisterBlockage
PUBLIC	?FinishRotPushedEntity@CPhysicsPushedEntities@@MAEXPAVCBaseEntity@@ABURotatingPushMove_t@1@@Z ; CPhysicsPushedEntities::FinishRotPushedEntity
PUBLIC	?FinishPush@CPhysicsPushedEntities@@IAEX_NPBURotatingPushMove_t@1@@Z ; CPhysicsPushedEntities::FinishPush
PUBLIC	?GenerateBlockingEntityList@CPhysicsPushedEntities@@IAEXXZ ; CPhysicsPushedEntities::GenerateBlockingEntityList
PUBLIC	?GenerateBlockingEntityListAddBox@CPhysicsPushedEntities@@IAEXABVVector@@@Z ; CPhysicsPushedEntities::GenerateBlockingEntityListAddBox
PUBLIC	?SetupAllInHierarchy@CPhysicsPushedEntities@@IAEXPAVCBaseEntity@@@Z ; CPhysicsPushedEntities::SetupAllInHierarchy
PUBLIC	?UnlinkPusherList@CPhysicsPushedEntities@@IAEXXZ ; CPhysicsPushedEntities::UnlinkPusherList
PUBLIC	?RelinkPusherList@CPhysicsPushedEntities@@IAEXXZ ; CPhysicsPushedEntities::RelinkPusherList
PUBLIC	?FinishPushers@CPhysicsPushedEntities@@IAEXXZ	; CPhysicsPushedEntities::FinishPushers
PUBLIC	?RotateRootEntity@CPhysicsPushedEntities@@IAEXPAVCBaseEntity@@MAAURotatingPushMove_t@1@@Z ; CPhysicsPushedEntities::RotateRootEntity
PUBLIC	?LinearlyMoveRootEntity@CPhysicsPushedEntities@@IAEXPAVCBaseEntity@@MAAVVector@@@Z ; CPhysicsPushedEntities::LinearlyMoveRootEntity
PUBLIC	?IsPushedPositionValid@CPhysicsPushedEntities@@IAE_NPAVCBaseEntity@@@Z ; CPhysicsPushedEntities::IsPushedPositionValid
PUBLIC	??0?$CUtlArray@UPhysicsPusherInfo_t@CPhysicsPushedEntities@@V?$CUtlMemory@UPhysicsPusherInfo_t@CPhysicsPushedEntities@@H@@@@QAE@HH@Z ; CUtlArray<CPhysicsPushedEntities::PhysicsPusherInfo_t,CUtlMemory<CPhysicsPushedEntities::PhysicsPusherInfo_t,int> >::CUtlArray<CPhysicsPushedEntities::PhysicsPusherInfo_t,CUtlMemory<CPhysicsPushedEntities::PhysicsPusherInfo_t,int> >
PUBLIC	??1?$CUtlArray@UPhysicsPusherInfo_t@CPhysicsPushedEntities@@V?$CUtlMemory@UPhysicsPusherInfo_t@CPhysicsPushedEntities@@H@@@@QAE@XZ ; CUtlArray<CPhysicsPushedEntities::PhysicsPusherInfo_t,CUtlMemory<CPhysicsPushedEntities::PhysicsPusherInfo_t,int> >::~CUtlArray<CPhysicsPushedEntities::PhysicsPusherInfo_t,CUtlMemory<CPhysicsPushedEntities::PhysicsPusherInfo_t,int> >
PUBLIC	??A?$CUtlArray@UPhysicsPusherInfo_t@CPhysicsPushedEntities@@V?$CUtlMemory@UPhysicsPusherInfo_t@CPhysicsPushedEntities@@H@@@@QAEAAUPhysicsPusherInfo_t@CPhysicsPushedEntities@@H@Z ; CUtlArray<CPhysicsPushedEntities::PhysicsPusherInfo_t,CUtlMemory<CPhysicsPushedEntities::PhysicsPusherInfo_t,int> >::operator[]
PUBLIC	?Element@?$CUtlArray@UPhysicsPusherInfo_t@CPhysicsPushedEntities@@V?$CUtlMemory@UPhysicsPusherInfo_t@CPhysicsPushedEntities@@H@@@@QAEAAUPhysicsPusherInfo_t@CPhysicsPushedEntities@@H@Z ; CUtlArray<CPhysicsPushedEntities::PhysicsPusherInfo_t,CUtlMemory<CPhysicsPushedEntities::PhysicsPusherInfo_t,int> >::Element
PUBLIC	?Base@?$CUtlArray@UPhysicsPusherInfo_t@CPhysicsPushedEntities@@V?$CUtlMemory@UPhysicsPusherInfo_t@CPhysicsPushedEntities@@H@@@@QAEPAUPhysicsPusherInfo_t@CPhysicsPushedEntities@@XZ ; CUtlArray<CPhysicsPushedEntities::PhysicsPusherInfo_t,CUtlMemory<CPhysicsPushedEntities::PhysicsPusherInfo_t,int> >::Base
PUBLIC	?Count@?$CUtlArray@UPhysicsPusherInfo_t@CPhysicsPushedEntities@@V?$CUtlMemory@UPhysicsPusherInfo_t@CPhysicsPushedEntities@@H@@@@QBEHXZ ; CUtlArray<CPhysicsPushedEntities::PhysicsPusherInfo_t,CUtlMemory<CPhysicsPushedEntities::PhysicsPusherInfo_t,int> >::Count
PUBLIC	?IsValidIndex@?$CUtlArray@UPhysicsPusherInfo_t@CPhysicsPushedEntities@@V?$CUtlMemory@UPhysicsPusherInfo_t@CPhysicsPushedEntities@@H@@@@QBE_NH@Z ; CUtlArray<CPhysicsPushedEntities::PhysicsPusherInfo_t,CUtlMemory<CPhysicsPushedEntities::PhysicsPusherInfo_t,int> >::IsValidIndex
PUBLIC	?AddToTail@?$CUtlArray@UPhysicsPusherInfo_t@CPhysicsPushedEntities@@V?$CUtlMemory@UPhysicsPusherInfo_t@CPhysicsPushedEntities@@H@@@@QAEHXZ ; CUtlArray<CPhysicsPushedEntities::PhysicsPusherInfo_t,CUtlMemory<CPhysicsPushedEntities::PhysicsPusherInfo_t,int> >::AddToTail
PUBLIC	?InsertBefore@?$CUtlArray@UPhysicsPusherInfo_t@CPhysicsPushedEntities@@V?$CUtlMemory@UPhysicsPusherInfo_t@CPhysicsPushedEntities@@H@@@@QAEHH@Z ; CUtlArray<CPhysicsPushedEntities::PhysicsPusherInfo_t,CUtlMemory<CPhysicsPushedEntities::PhysicsPusherInfo_t,int> >::InsertBefore
PUBLIC	?RemoveAll@?$CUtlArray@UPhysicsPusherInfo_t@CPhysicsPushedEntities@@V?$CUtlMemory@UPhysicsPusherInfo_t@CPhysicsPushedEntities@@H@@@@QAEXXZ ; CUtlArray<CPhysicsPushedEntities::PhysicsPusherInfo_t,CUtlMemory<CPhysicsPushedEntities::PhysicsPusherInfo_t,int> >::RemoveAll
PUBLIC	?Purge@?$CUtlArray@UPhysicsPusherInfo_t@CPhysicsPushedEntities@@V?$CUtlMemory@UPhysicsPusherInfo_t@CPhysicsPushedEntities@@H@@@@QAEXXZ ; CUtlArray<CPhysicsPushedEntities::PhysicsPusherInfo_t,CUtlMemory<CPhysicsPushedEntities::PhysicsPusherInfo_t,int> >::Purge
PUBLIC	?GrowVector@?$CUtlArray@UPhysicsPusherInfo_t@CPhysicsPushedEntities@@V?$CUtlMemory@UPhysicsPusherInfo_t@CPhysicsPushedEntities@@H@@@@IAEXH@Z ; CUtlArray<CPhysicsPushedEntities::PhysicsPusherInfo_t,CUtlMemory<CPhysicsPushedEntities::PhysicsPusherInfo_t,int> >::GrowVector
PUBLIC	?ShiftElementsRight@?$CUtlArray@UPhysicsPusherInfo_t@CPhysicsPushedEntities@@V?$CUtlMemory@UPhysicsPusherInfo_t@CPhysicsPushedEntities@@H@@@@IAEXHH@Z ; CUtlArray<CPhysicsPushedEntities::PhysicsPusherInfo_t,CUtlMemory<CPhysicsPushedEntities::PhysicsPusherInfo_t,int> >::ShiftElementsRight
PUBLIC	??0?$CUtlMemory@UPhysicsPusherInfo_t@CPhysicsPushedEntities@@H@@QAE@HH@Z ; CUtlMemory<CPhysicsPushedEntities::PhysicsPusherInfo_t,int>::CUtlMemory<CPhysicsPushedEntities::PhysicsPusherInfo_t,int>
PUBLIC	??1?$CUtlMemory@UPhysicsPusherInfo_t@CPhysicsPushedEntities@@H@@QAE@XZ ; CUtlMemory<CPhysicsPushedEntities::PhysicsPusherInfo_t,int>::~CUtlMemory<CPhysicsPushedEntities::PhysicsPusherInfo_t,int>
PUBLIC	??A?$CUtlMemory@UPhysicsPusherInfo_t@CPhysicsPushedEntities@@H@@QAEAAUPhysicsPusherInfo_t@CPhysicsPushedEntities@@H@Z ; CUtlMemory<CPhysicsPushedEntities::PhysicsPusherInfo_t,int>::operator[]
PUBLIC	?IsIdxValid@?$CUtlMemory@UPhysicsPusherInfo_t@CPhysicsPushedEntities@@H@@QBE_NH@Z ; CUtlMemory<CPhysicsPushedEntities::PhysicsPusherInfo_t,int>::IsIdxValid
PUBLIC	?Base@?$CUtlMemory@UPhysicsPusherInfo_t@CPhysicsPushedEntities@@H@@QAEPAUPhysicsPusherInfo_t@CPhysicsPushedEntities@@XZ ; CUtlMemory<CPhysicsPushedEntities::PhysicsPusherInfo_t,int>::Base
PUBLIC	?NumAllocated@?$CUtlMemory@UPhysicsPusherInfo_t@CPhysicsPushedEntities@@H@@QBEHXZ ; CUtlMemory<CPhysicsPushedEntities::PhysicsPusherInfo_t,int>::NumAllocated
PUBLIC	?Grow@?$CUtlMemory@UPhysicsPusherInfo_t@CPhysicsPushedEntities@@H@@QAEXH@Z ; CUtlMemory<CPhysicsPushedEntities::PhysicsPusherInfo_t,int>::Grow
PUBLIC	?Purge@?$CUtlMemory@UPhysicsPusherInfo_t@CPhysicsPushedEntities@@H@@QAEXXZ ; CUtlMemory<CPhysicsPushedEntities::PhysicsPusherInfo_t,int>::Purge
PUBLIC	?IsExternallyAllocated@?$CUtlMemory@UPhysicsPusherInfo_t@CPhysicsPushedEntities@@H@@QBE_NXZ ; CUtlMemory<CPhysicsPushedEntities::PhysicsPusherInfo_t,int>::IsExternallyAllocated
PUBLIC	?IsReadOnly@?$CUtlMemory@UPhysicsPusherInfo_t@CPhysicsPushedEntities@@H@@QBE_NXZ ; CUtlMemory<CPhysicsPushedEntities::PhysicsPusherInfo_t,int>::IsReadOnly
PUBLIC	?ValidateGrowSize@?$CUtlMemory@UPhysicsPusherInfo_t@CPhysicsPushedEntities@@H@@IAEXXZ ; CUtlMemory<CPhysicsPushedEntities::PhysicsPusherInfo_t,int>::ValidateGrowSize
PUBLIC	?ResetDbgInfo@?$CUtlArray@UPhysicsPusherInfo_t@CPhysicsPushedEntities@@V?$CUtlMemory@UPhysicsPusherInfo_t@CPhysicsPushedEntities@@H@@@@IAEXXZ ; CUtlArray<CPhysicsPushedEntities::PhysicsPusherInfo_t,CUtlMemory<CPhysicsPushedEntities::PhysicsPusherInfo_t,int> >::ResetDbgInfo
PUBLIC	??0?$CUtlArray@UPhysicsPushedInfo_t@CPhysicsPushedEntities@@V?$CUtlMemory@UPhysicsPushedInfo_t@CPhysicsPushedEntities@@H@@@@QAE@HH@Z ; CUtlArray<CPhysicsPushedEntities::PhysicsPushedInfo_t,CUtlMemory<CPhysicsPushedEntities::PhysicsPushedInfo_t,int> >::CUtlArray<CPhysicsPushedEntities::PhysicsPushedInfo_t,CUtlMemory<CPhysicsPushedEntities::PhysicsPushedInfo_t,int> >
PUBLIC	??1?$CUtlArray@UPhysicsPushedInfo_t@CPhysicsPushedEntities@@V?$CUtlMemory@UPhysicsPushedInfo_t@CPhysicsPushedEntities@@H@@@@QAE@XZ ; CUtlArray<CPhysicsPushedEntities::PhysicsPushedInfo_t,CUtlMemory<CPhysicsPushedEntities::PhysicsPushedInfo_t,int> >::~CUtlArray<CPhysicsPushedEntities::PhysicsPushedInfo_t,CUtlMemory<CPhysicsPushedEntities::PhysicsPushedInfo_t,int> >
PUBLIC	??A?$CUtlArray@UPhysicsPushedInfo_t@CPhysicsPushedEntities@@V?$CUtlMemory@UPhysicsPushedInfo_t@CPhysicsPushedEntities@@H@@@@QAEAAUPhysicsPushedInfo_t@CPhysicsPushedEntities@@H@Z ; CUtlArray<CPhysicsPushedEntities::PhysicsPushedInfo_t,CUtlMemory<CPhysicsPushedEntities::PhysicsPushedInfo_t,int> >::operator[]
PUBLIC	?Element@?$CUtlArray@UPhysicsPushedInfo_t@CPhysicsPushedEntities@@V?$CUtlMemory@UPhysicsPushedInfo_t@CPhysicsPushedEntities@@H@@@@QAEAAUPhysicsPushedInfo_t@CPhysicsPushedEntities@@H@Z ; CUtlArray<CPhysicsPushedEntities::PhysicsPushedInfo_t,CUtlMemory<CPhysicsPushedEntities::PhysicsPushedInfo_t,int> >::Element
PUBLIC	?Base@?$CUtlArray@UPhysicsPushedInfo_t@CPhysicsPushedEntities@@V?$CUtlMemory@UPhysicsPushedInfo_t@CPhysicsPushedEntities@@H@@@@QAEPAUPhysicsPushedInfo_t@CPhysicsPushedEntities@@XZ ; CUtlArray<CPhysicsPushedEntities::PhysicsPushedInfo_t,CUtlMemory<CPhysicsPushedEntities::PhysicsPushedInfo_t,int> >::Base
PUBLIC	?Count@?$CUtlArray@UPhysicsPushedInfo_t@CPhysicsPushedEntities@@V?$CUtlMemory@UPhysicsPushedInfo_t@CPhysicsPushedEntities@@H@@@@QBEHXZ ; CUtlArray<CPhysicsPushedEntities::PhysicsPushedInfo_t,CUtlMemory<CPhysicsPushedEntities::PhysicsPushedInfo_t,int> >::Count
PUBLIC	?IsValidIndex@?$CUtlArray@UPhysicsPushedInfo_t@CPhysicsPushedEntities@@V?$CUtlMemory@UPhysicsPushedInfo_t@CPhysicsPushedEntities@@H@@@@QBE_NH@Z ; CUtlArray<CPhysicsPushedEntities::PhysicsPushedInfo_t,CUtlMemory<CPhysicsPushedEntities::PhysicsPushedInfo_t,int> >::IsValidIndex
PUBLIC	?AddToTail@?$CUtlArray@UPhysicsPushedInfo_t@CPhysicsPushedEntities@@V?$CUtlMemory@UPhysicsPushedInfo_t@CPhysicsPushedEntities@@H@@@@QAEHXZ ; CUtlArray<CPhysicsPushedEntities::PhysicsPushedInfo_t,CUtlMemory<CPhysicsPushedEntities::PhysicsPushedInfo_t,int> >::AddToTail
PUBLIC	?InsertBefore@?$CUtlArray@UPhysicsPushedInfo_t@CPhysicsPushedEntities@@V?$CUtlMemory@UPhysicsPushedInfo_t@CPhysicsPushedEntities@@H@@@@QAEHH@Z ; CUtlArray<CPhysicsPushedEntities::PhysicsPushedInfo_t,CUtlMemory<CPhysicsPushedEntities::PhysicsPushedInfo_t,int> >::InsertBefore
PUBLIC	?RemoveAll@?$CUtlArray@UPhysicsPushedInfo_t@CPhysicsPushedEntities@@V?$CUtlMemory@UPhysicsPushedInfo_t@CPhysicsPushedEntities@@H@@@@QAEXXZ ; CUtlArray<CPhysicsPushedEntities::PhysicsPushedInfo_t,CUtlMemory<CPhysicsPushedEntities::PhysicsPushedInfo_t,int> >::RemoveAll
PUBLIC	?Purge@?$CUtlArray@UPhysicsPushedInfo_t@CPhysicsPushedEntities@@V?$CUtlMemory@UPhysicsPushedInfo_t@CPhysicsPushedEntities@@H@@@@QAEXXZ ; CUtlArray<CPhysicsPushedEntities::PhysicsPushedInfo_t,CUtlMemory<CPhysicsPushedEntities::PhysicsPushedInfo_t,int> >::Purge
PUBLIC	?GrowVector@?$CUtlArray@UPhysicsPushedInfo_t@CPhysicsPushedEntities@@V?$CUtlMemory@UPhysicsPushedInfo_t@CPhysicsPushedEntities@@H@@@@IAEXH@Z ; CUtlArray<CPhysicsPushedEntities::PhysicsPushedInfo_t,CUtlMemory<CPhysicsPushedEntities::PhysicsPushedInfo_t,int> >::GrowVector
PUBLIC	?ShiftElementsRight@?$CUtlArray@UPhysicsPushedInfo_t@CPhysicsPushedEntities@@V?$CUtlMemory@UPhysicsPushedInfo_t@CPhysicsPushedEntities@@H@@@@IAEXHH@Z ; CUtlArray<CPhysicsPushedEntities::PhysicsPushedInfo_t,CUtlMemory<CPhysicsPushedEntities::PhysicsPushedInfo_t,int> >::ShiftElementsRight
PUBLIC	??0?$CUtlMemory@UPhysicsPushedInfo_t@CPhysicsPushedEntities@@H@@QAE@HH@Z ; CUtlMemory<CPhysicsPushedEntities::PhysicsPushedInfo_t,int>::CUtlMemory<CPhysicsPushedEntities::PhysicsPushedInfo_t,int>
PUBLIC	??1?$CUtlMemory@UPhysicsPushedInfo_t@CPhysicsPushedEntities@@H@@QAE@XZ ; CUtlMemory<CPhysicsPushedEntities::PhysicsPushedInfo_t,int>::~CUtlMemory<CPhysicsPushedEntities::PhysicsPushedInfo_t,int>
PUBLIC	??A?$CUtlMemory@UPhysicsPushedInfo_t@CPhysicsPushedEntities@@H@@QAEAAUPhysicsPushedInfo_t@CPhysicsPushedEntities@@H@Z ; CUtlMemory<CPhysicsPushedEntities::PhysicsPushedInfo_t,int>::operator[]
PUBLIC	?IsIdxValid@?$CUtlMemory@UPhysicsPushedInfo_t@CPhysicsPushedEntities@@H@@QBE_NH@Z ; CUtlMemory<CPhysicsPushedEntities::PhysicsPushedInfo_t,int>::IsIdxValid
PUBLIC	?Base@?$CUtlMemory@UPhysicsPushedInfo_t@CPhysicsPushedEntities@@H@@QAEPAUPhysicsPushedInfo_t@CPhysicsPushedEntities@@XZ ; CUtlMemory<CPhysicsPushedEntities::PhysicsPushedInfo_t,int>::Base
PUBLIC	?NumAllocated@?$CUtlMemory@UPhysicsPushedInfo_t@CPhysicsPushedEntities@@H@@QBEHXZ ; CUtlMemory<CPhysicsPushedEntities::PhysicsPushedInfo_t,int>::NumAllocated
PUBLIC	?Grow@?$CUtlMemory@UPhysicsPushedInfo_t@CPhysicsPushedEntities@@H@@QAEXH@Z ; CUtlMemory<CPhysicsPushedEntities::PhysicsPushedInfo_t,int>::Grow
PUBLIC	?Purge@?$CUtlMemory@UPhysicsPushedInfo_t@CPhysicsPushedEntities@@H@@QAEXXZ ; CUtlMemory<CPhysicsPushedEntities::PhysicsPushedInfo_t,int>::Purge
PUBLIC	?IsExternallyAllocated@?$CUtlMemory@UPhysicsPushedInfo_t@CPhysicsPushedEntities@@H@@QBE_NXZ ; CUtlMemory<CPhysicsPushedEntities::PhysicsPushedInfo_t,int>::IsExternallyAllocated
PUBLIC	?IsReadOnly@?$CUtlMemory@UPhysicsPushedInfo_t@CPhysicsPushedEntities@@H@@QBE_NXZ ; CUtlMemory<CPhysicsPushedEntities::PhysicsPushedInfo_t,int>::IsReadOnly
PUBLIC	?ValidateGrowSize@?$CUtlMemory@UPhysicsPushedInfo_t@CPhysicsPushedEntities@@H@@IAEXXZ ; CUtlMemory<CPhysicsPushedEntities::PhysicsPushedInfo_t,int>::ValidateGrowSize
PUBLIC	?ResetDbgInfo@?$CUtlArray@UPhysicsPushedInfo_t@CPhysicsPushedEntities@@V?$CUtlMemory@UPhysicsPushedInfo_t@CPhysicsPushedEntities@@H@@@@IAEXXZ ; CUtlArray<CPhysicsPushedEntities::PhysicsPushedInfo_t,CUtlMemory<CPhysicsPushedEntities::PhysicsPushedInfo_t,int> >::ResetDbgInfo
PUBLIC	??1CPhysicsPushedEntities@@QAE@XZ		; CPhysicsPushedEntities::~CPhysicsPushedEntities
PUBLIC	?SV_AllowPushRotate@@YAHPAVCBaseEntity@@@Z	; SV_AllowPushRotate
PUBLIC	?SV_AngularMove@@YAXPAVCBaseEntity@@MM@Z	; SV_AngularMove
PUBLIC	?SV_LinearMove@@YAXPAVCBaseEntity@@MM@Z		; SV_LinearMove
PUBLIC	?SV_RunThink@@YAHPAVCBaseEntity@@@Z		; SV_RunThink
PUBLIC	?SV_RecursiveWaterLevel@@YAMABVVector@@MMH@Z	; SV_RecursiveWaterLevel
PUBLIC	?SV_Submerged@@YAMPAVCBaseEntity@@@Z		; SV_Submerged
PUBLIC	?SV_CheckMover@@YAHPAVCBaseEntity@@@Z		; SV_CheckMover
PUBLIC	?SV_CheckWater@@YAHPAVCBaseEntity@@@Z		; SV_CheckWater
PUBLIC	?SV_CheckWaterTransition@@YAXPAVCBaseEntity@@@Z	; SV_CheckWaterTransition
PUBLIC	?SV_CheckVelocity@@YAXPAVCBaseEntity@@@Z	; SV_CheckVelocity
PUBLIC	?SV_ClipVelocity@@YAHABVVector@@0AAV1@M@Z	; SV_ClipVelocity
PUBLIC	?SV_CalcOverBounce@@YAMPAVCBaseEntity@@PAUgametrace_s@@@Z ; SV_CalcOverBounce
PUBLIC	?SV_FlyMove@@YAHPAVCBaseEntity@@MPAUgametrace_s@@@Z ; SV_FlyMove
PUBLIC	?SV_AddGravity@@YAXPAVCBaseEntity@@@Z		; SV_AddGravity
PUBLIC	?SV_AddHalfGravity@@YAXPAVCBaseEntity@@M@Z	; SV_AddHalfGravity
PUBLIC	?SV_PushEntity@@YA?AUgametrace_s@@PAVCBaseEntity@@ABVVector@@1PAH@Z ; SV_PushEntity
PUBLIC	?SV_Physics_None@@YAXPAVCBaseEntity@@@Z		; SV_Physics_None
PUBLIC	?SV_Physics_Rigid@@YAXPAVCBaseEntity@@@Z	; SV_Physics_Rigid
PUBLIC	?SV_Physics_Noclip@@YAXPAVCBaseEntity@@@Z	; SV_Physics_Noclip
PUBLIC	?SV_Physics_Follow@@YAXPAVCBaseEntity@@@Z	; SV_Physics_Follow
PUBLIC	?SV_Physics_Compound@@YAXPAVCBaseEntity@@@Z	; SV_Physics_Compound
PUBLIC	?SV_Physics_Toss@@YAXPAVCBaseEntity@@@Z		; SV_Physics_Toss
PUBLIC	??0?$CUtlArray@PAVCBaseEntity@@V?$CUtlMemory@PAVCBaseEntity@@H@@@@QAE@HH@Z ; CUtlArray<CBaseEntity *,CUtlMemory<CBaseEntity *,int> >::CUtlArray<CBaseEntity *,CUtlMemory<CBaseEntity *,int> >
PUBLIC	??1?$CUtlArray@PAVCBaseEntity@@V?$CUtlMemory@PAVCBaseEntity@@H@@@@QAE@XZ ; CUtlArray<CBaseEntity *,CUtlMemory<CBaseEntity *,int> >::~CUtlArray<CBaseEntity *,CUtlMemory<CBaseEntity *,int> >
PUBLIC	??A?$CUtlArray@PAVCBaseEntity@@V?$CUtlMemory@PAVCBaseEntity@@H@@@@QAEAAPAVCBaseEntity@@H@Z ; CUtlArray<CBaseEntity *,CUtlMemory<CBaseEntity *,int> >::operator[]
PUBLIC	?Element@?$CUtlArray@PAVCBaseEntity@@V?$CUtlMemory@PAVCBaseEntity@@H@@@@QAEAAPAVCBaseEntity@@H@Z ; CUtlArray<CBaseEntity *,CUtlMemory<CBaseEntity *,int> >::Element
PUBLIC	?Base@?$CUtlArray@PAVCBaseEntity@@V?$CUtlMemory@PAVCBaseEntity@@H@@@@QAEPAPAVCBaseEntity@@XZ ; CUtlArray<CBaseEntity *,CUtlMemory<CBaseEntity *,int> >::Base
PUBLIC	?Count@?$CUtlArray@PAVCBaseEntity@@V?$CUtlMemory@PAVCBaseEntity@@H@@@@QBEHXZ ; CUtlArray<CBaseEntity *,CUtlMemory<CBaseEntity *,int> >::Count
PUBLIC	?IsValidIndex@?$CUtlArray@PAVCBaseEntity@@V?$CUtlMemory@PAVCBaseEntity@@H@@@@QBE_NH@Z ; CUtlArray<CBaseEntity *,CUtlMemory<CBaseEntity *,int> >::IsValidIndex
PUBLIC	?AddToTail@?$CUtlArray@PAVCBaseEntity@@V?$CUtlMemory@PAVCBaseEntity@@H@@@@QAEHXZ ; CUtlArray<CBaseEntity *,CUtlMemory<CBaseEntity *,int> >::AddToTail
PUBLIC	?InsertBefore@?$CUtlArray@PAVCBaseEntity@@V?$CUtlMemory@PAVCBaseEntity@@H@@@@QAEHH@Z ; CUtlArray<CBaseEntity *,CUtlMemory<CBaseEntity *,int> >::InsertBefore
PUBLIC	?RemoveAll@?$CUtlArray@PAVCBaseEntity@@V?$CUtlMemory@PAVCBaseEntity@@H@@@@QAEXXZ ; CUtlArray<CBaseEntity *,CUtlMemory<CBaseEntity *,int> >::RemoveAll
PUBLIC	?Purge@?$CUtlArray@PAVCBaseEntity@@V?$CUtlMemory@PAVCBaseEntity@@H@@@@QAEXXZ ; CUtlArray<CBaseEntity *,CUtlMemory<CBaseEntity *,int> >::Purge
PUBLIC	?GrowVector@?$CUtlArray@PAVCBaseEntity@@V?$CUtlMemory@PAVCBaseEntity@@H@@@@IAEXH@Z ; CUtlArray<CBaseEntity *,CUtlMemory<CBaseEntity *,int> >::GrowVector
PUBLIC	?ShiftElementsRight@?$CUtlArray@PAVCBaseEntity@@V?$CUtlMemory@PAVCBaseEntity@@H@@@@IAEXHH@Z ; CUtlArray<CBaseEntity *,CUtlMemory<CBaseEntity *,int> >::ShiftElementsRight
PUBLIC	??0?$CUtlMemory@PAVCBaseEntity@@H@@QAE@HH@Z	; CUtlMemory<CBaseEntity *,int>::CUtlMemory<CBaseEntity *,int>
PUBLIC	??1?$CUtlMemory@PAVCBaseEntity@@H@@QAE@XZ	; CUtlMemory<CBaseEntity *,int>::~CUtlMemory<CBaseEntity *,int>
PUBLIC	??A?$CUtlMemory@PAVCBaseEntity@@H@@QAEAAPAVCBaseEntity@@H@Z ; CUtlMemory<CBaseEntity *,int>::operator[]
PUBLIC	?IsIdxValid@?$CUtlMemory@PAVCBaseEntity@@H@@QBE_NH@Z ; CUtlMemory<CBaseEntity *,int>::IsIdxValid
PUBLIC	?Base@?$CUtlMemory@PAVCBaseEntity@@H@@QAEPAPAVCBaseEntity@@XZ ; CUtlMemory<CBaseEntity *,int>::Base
PUBLIC	?NumAllocated@?$CUtlMemory@PAVCBaseEntity@@H@@QBEHXZ ; CUtlMemory<CBaseEntity *,int>::NumAllocated
PUBLIC	?Grow@?$CUtlMemory@PAVCBaseEntity@@H@@QAEXH@Z	; CUtlMemory<CBaseEntity *,int>::Grow
PUBLIC	?Purge@?$CUtlMemory@PAVCBaseEntity@@H@@QAEXXZ	; CUtlMemory<CBaseEntity *,int>::Purge
PUBLIC	?IsExternallyAllocated@?$CUtlMemory@PAVCBaseEntity@@H@@QBE_NXZ ; CUtlMemory<CBaseEntity *,int>::IsExternallyAllocated
PUBLIC	?IsReadOnly@?$CUtlMemory@PAVCBaseEntity@@H@@QBE_NXZ ; CUtlMemory<CBaseEntity *,int>::IsReadOnly
PUBLIC	?ValidateGrowSize@?$CUtlMemory@PAVCBaseEntity@@H@@IAEXXZ ; CUtlMemory<CBaseEntity *,int>::ValidateGrowSize
PUBLIC	?ResetDbgInfo@?$CUtlArray@PAVCBaseEntity@@V?$CUtlMemory@PAVCBaseEntity@@H@@@@IAEXXZ ; CUtlArray<CBaseEntity *,CUtlMemory<CBaseEntity *,int> >::ResetDbgInfo
PUBLIC	?SV_Physics_Step@@YAXPAVCBaseEntity@@@Z		; SV_Physics_Step
PUBLIC	?SV_Physics_Pusher@@YAXPAVCBaseEntity@@@Z	; SV_Physics_Pusher
PUBLIC	??$Destruct@UPhysicsPusherInfo_t@CPhysicsPushedEntities@@@@YAXPAUPhysicsPusherInfo_t@CPhysicsPushedEntities@@@Z ; Destruct<CPhysicsPushedEntities::PhysicsPusherInfo_t>
PUBLIC	??$Destruct@UPhysicsPushedInfo_t@CPhysicsPushedEntities@@@@YAXPAUPhysicsPushedInfo_t@CPhysicsPushedEntities@@@Z ; Destruct<CPhysicsPushedEntities::PhysicsPushedInfo_t>
PUBLIC	??$Destruct@PAVCBaseEntity@@@@YAXPAPAVCBaseEntity@@@Z ; Destruct<CBaseEntity *>
PUBLIC	??$Construct@UPhysicsPusherInfo_t@CPhysicsPushedEntities@@@@YAXPAUPhysicsPusherInfo_t@CPhysicsPushedEntities@@@Z ; Construct<CPhysicsPushedEntities::PhysicsPusherInfo_t>
PUBLIC	??$Construct@UPhysicsPushedInfo_t@CPhysicsPushedEntities@@@@YAXPAUPhysicsPushedInfo_t@CPhysicsPushedEntities@@@Z ; Construct<CPhysicsPushedEntities::PhysicsPushedInfo_t>
PUBLIC	??$Construct@PAVCBaseEntity@@@@YAXPAPAVCBaseEntity@@@Z ; Construct<CBaseEntity *>
PUBLIC	??_C@_0BF@CPEPILID@Bad?5ent?5in?5OFFSET?$CI?$CJ?6?$AA@ ; `string'
PUBLIC	??_C@_0BF@DOONGEFO@Bad?5pev?5in?5OFFSET?$CI?$CJ?6?$AA@ ; `string'
PUBLIC	??_7CPhysicsPushedEntities@@6B@			; CPhysicsPushedEntities::`vftable'
PUBLIC	?s_PushedEntities@@3VCPhysicsPushedEntities@@A	; s_PushedEntities
PUBLIC	??_C@_0BD@CAJBLNMK@func_door_rotating?$AA@	; `string'
PUBLIC	??_C@_0M@CKLNABFC@sv_friction?$AA@		; `string'
PUBLIC	??_C@_0N@LFAHFFEG@sv_stopspeed?$AA@		; `string'
PUBLIC	??_C@_0CI@MPLCCPKG@Interpenetrating?5entities?$CB?5?$CI?$CFs?5a@ ; `string'
PUBLIC	??_C@_0CB@DOHDBANJ@Ignoring?5player?5blocking?5train?$CB?6@ ; `string'
PUBLIC	?__LINE__Var@?0??RegisterBlockage@CPhysicsPushedEntities@@IAEPAVCBaseEntity@@XZ@4JA ; `CPhysicsPushedEntities::RegisterBlockage'::`1'::__LINE__Var
PUBLIC	??_C@_0EM@GBEFGAKM@d?3?2?$CBdiffusion?52020?2source?5code?52@ ; `string'
PUBLIC	??_C@_0BA@HGFAHNIM@m_nBlocker?5?$DO?$DN?50?$AA@	; `string'
PUBLIC	??_C@_0BE@NINLJLLJ@footsteps?1wade2?4wav?$AA@	; `string'
PUBLIC	??_C@_0BE@FOEPOJBH@footsteps?1wade1?4wav?$AA@	; `string'
PUBLIC	??_C@_0P@FKNMIPLB@sv_maxvelocity?$AA@		; `string'
PUBLIC	??_C@_0BK@FPJNFHPF@Got?5a?5NaN?5velocity?5on?5?$CFs?6?$AA@ ; `string'
PUBLIC	??_C@_0BI@JOACCKMB@Got?5a?5NaN?5origin?5on?5?$CFs?6?$AA@ ; `string'
PUBLIC	??_C@_0CA@ICKKHLGL@SV_FlyMove?3?5trace?4pHit?5?$DN?$DN?5NULL?6?$AA@ ; `string'
PUBLIC	??_C@_0L@FKMMBKBD@sv_gravity?$AA@		; `string'
PUBLIC	?m_rgGroundEnts@@3V?$CUtlArray@PAVCBaseEntity@@V?$CUtlMemory@PAVCBaseEntity@@H@@@@A ; m_rgGroundEnts
PUBLIC	??_C@_1JC@EMNIBBBG@?$AAd?$AA?3?$AA?2?$AA?$CB?$AAd?$AAi?$AAf?$AAf?$AAu?$AAs?$AAi?$AAo?$AAn?$AA?5?$AA2?$AA0?$AA2?$AA0?$AA?2?$AAs?$AAo?$AAu?$AAr?$AAc?$AAe?$AA?5?$AAc?$AAo?$AAd?$AAe?$AA?5?$AA2@ ; `string'
PUBLIC	??_C@_1JE@CIIIAKCN@?$AAd?$AA?3?$AA?2?$AA?$CB?$AAd?$AAi?$AAf?$AAf?$AAu?$AAs?$AAi?$AAo?$AAn?$AA?5?$AA2?$AA0?$AA2?$AA0?$AA?2?$AAs?$AAo?$AAu?$AAr?$AAc?$AAe?$AA?5?$AAc?$AAo?$AAd?$AAe?$AA?5?$AA2@ ; `string'
PUBLIC	??_C@_1BO@FOOHAONO@?$AAn?$AAG?$AAr?$AAo?$AAw?$AAS?$AAi?$AAz?$AAe?$AA?5?$AA?$DO?$AA?$DN?$AA?5?$AA0?$AA?$AA@ ; `string'
PUBLIC	??_C@_1BM@PFNFCCHH@?$AA?$CB?$AAI?$AAs?$AAR?$AAe?$AAa?$AAd?$AAO?$AAn?$AAl?$AAy?$AA?$CI?$AA?$CJ?$AA?$AA@ ; `string'
PUBLIC	??_C@_1BM@CKILBAKK@?$AAI?$AAs?$AAI?$AAd?$AAx?$AAV?$AAa?$AAl?$AAi?$AAd?$AA?$CI?$AAi?$AA?$CJ?$AA?$AA@ ; `string'
PUBLIC	??_C@_1FA@BPFBJKPF@?$AA?$CI?$AAe?$AAl?$AAe?$AAm?$AA?5?$AA?$DN?$AA?$DN?$AA?5?$AAC?$AAo?$AAu?$AAn?$AAt?$AA?$CI?$AA?$CJ?$AA?$CJ?$AA?5?$AA?$HM?$AA?$HM?$AA?5?$AAI?$AAs?$AAV?$AAa?$AAl?$AAi?$AAd?$AAI?$AAn?$AAd?$AAe@ ; `string'
PUBLIC	??_C@_1GM@CDMJDFPA@?$AAI?$AAs?$AAV?$AAa?$AAl?$AAi?$AAd?$AAI?$AAn?$AAd?$AAe?$AAx?$AA?$CI?$AAe?$AAl?$AAe?$AAm?$AA?$CJ?$AA?5?$AA?$HM?$AA?$HM?$AA?5?$AA?$CI?$AA?5?$AAm?$AA_?$AAS?$AAi?$AAz?$AAe?$AA?5?$AA?$DN@ ; `string'
PUBLIC	??_C@_1BA@PKCLMAEA@?$AAn?$AAu?$AAm?$AA?5?$AA?$DO?$AA?5?$AA0?$AA?$AA@ ; `string'
PUBLIC	??_C@_13COJANIEC@?$AA0?$AA?$AA@			; `string'
PUBLIC	??_C@_1BE@OPPFELHC@?$AAm?$AA_?$AAp?$AAM?$AAe?$AAm?$AAo?$AAr?$AAy?$AA?$AA@ ; `string'
PUBLIC	??_R4CPhysicsPushedEntities@@6B@		; CPhysicsPushedEntities::`RTTI Complete Object Locator'
PUBLIC	??_R0?AVCPhysicsPushedEntities@@@8		; CPhysicsPushedEntities `RTTI Type Descriptor'
PUBLIC	??_R3CPhysicsPushedEntities@@8			; CPhysicsPushedEntities::`RTTI Class Hierarchy Descriptor'
PUBLIC	??_R2CPhysicsPushedEntities@@8			; CPhysicsPushedEntities::`RTTI Base Class Array'
PUBLIC	??_R1A@?0A@EA@CPhysicsPushedEntities@@8		; CPhysicsPushedEntities::`RTTI Base Class Descriptor at (0,-1,0,64)'
PUBLIC	__real@00000000
PUBLIC	__real@3f000000
PUBLIC	__real@3f333333
PUBLIC	__real@3f4ccccd
PUBLIC	__real@3f666666
PUBLIC	__real@3f800000
PUBLIC	__real@3f91df46a2529d39
PUBLIC	__real@40000000
PUBLIC	__real@41200000
PUBLIC	__real@41800000
PUBLIC	__real@41900000
PUBLIC	__real@42100000
PUBLIC	__real@44610000
PUBLIC	__real@bf000000
PUBLIC	__real@bf800000
PUBLIC	__real@c1800000
PUBLIC	__real@c1900000
PUBLIC	__real@c2100000
PUBLIC	__xmm@80000000800000008000000080000000
EXTRN	_atexit:PROC
EXTRN	_memcpy:PROC
EXTRN	_memmove:PROC
EXTRN	_memset:PROC
EXTRN	_free:PROC
EXTRN	_malloc:PROC
EXTRN	_realloc:PROC
EXTRN	_cos:PROC
EXTRN	_fabs:PROC
EXTRN	_sin:PROC
EXTRN	_sqrt:PROC
EXTRN	??0matrix4x4@@QAE@XZ:PROC			; matrix4x4::matrix4x4
EXTRN	??4matrix4x4@@QAEAAV0@ABV0@@Z:PROC		; matrix4x4::operator=
EXTRN	?VectorTransform@matrix4x4@@QBE?AVVector@@ABV2@@Z:PROC ; matrix4x4::VectorTransform
EXTRN	?VectorITransform@matrix4x4@@QBE?AVVector@@ABV2@@Z:PROC ; matrix4x4::VectorITransform
EXTRN	?VectorRotate@matrix4x4@@QBE?AVVector@@ABV2@@Z:PROC ; matrix4x4::VectorRotate
EXTRN	?Q_strncmp@@YAHPBD0H@Z:PROC			; Q_strncmp
EXTRN	__wassert:PROC
EXTRN	?AllocString@CStringPool@@QAEHPBD@Z:PROC	; CStringPool::AllocString
EXTRN	?FindString@CStringPool@@QAEPBDH@Z:PROC		; CStringPool::FindString
EXTRN	?DBG_EntOfVars@@YAPAUedict_s@@PBUentvars_s@@@Z:PROC ; DBG_EntOfVars
EXTRN	?FNullEnt@@YAHPAVCBaseEntity@@@Z:PROC		; FNullEnt
EXTRN	?UTIL_SetSize@@YAXPAUentvars_s@@ABVVector@@1@Z:PROC ; UTIL_SetSize
EXTRN	?UTIL_TraceLine@@YAXABVVector@@0W4IGNORE_MONSTERS@@PAUedict_s@@PAUgametrace_s@@@Z:PROC ; UTIL_TraceLine
EXTRN	?UTIL_CopyTraceToGlobal@@YAXPAUgametrace_s@@@Z:PROC ; UTIL_CopyTraceToGlobal
EXTRN	?UTIL_TraceEntity@@YAXPAVCBaseEntity@@ABVVector@@1PAUgametrace_s@@@Z:PROC ; UTIL_TraceEntity
EXTRN	?UTIL_PointContents@@YAHABVVector@@@Z:PROC	; UTIL_PointContents
EXTRN	?UTIL_RestoreStudioDecal@@YAXABVVector@@0HHPBDHPAUmodelstate_s@@H@Z:PROC ; UTIL_RestoreStudioDecal
EXTRN	?DBG_AssertFunction@@YAXHPBD0H0@Z:PROC		; DBG_AssertFunction
EXTRN	?EMIT_SOUND_DYN@@YAXPAUedict_s@@HPBDMMHH@Z:PROC	; EMIT_SOUND_DYN
EXTRN	?UTIL_AreaNode@@YAXVVector@@0HP6AXPAVCBaseEntity@@@Z@Z:PROC ; UTIL_AreaNode
EXTRN	?UTIL_WaterMove@@YAXPAVCBaseEntity@@@Z:PROC	; UTIL_WaterMove
EXTRN	?DispatchTouch@@YAXPAUedict_s@@0@Z:PROC		; DispatchTouch
EXTRN	?DispatchThink@@YAXPAUedict_s@@@Z:PROC		; DispatchThink
EXTRN	?DispatchBlocked@@YAXPAUedict_s@@0@Z:PROC	; DispatchBlocked
EXTRN	?SetAbsOrigin@CBaseEntity@@QAEXABVVector@@@Z:PROC ; CBaseEntity::SetAbsOrigin
EXTRN	?GetAbsOrigin@CBaseEntity@@QBEABVVector@@XZ:PROC ; CBaseEntity::GetAbsOrigin
EXTRN	?SetAbsAngles@CBaseEntity@@QAEXABVVector@@@Z:PROC ; CBaseEntity::SetAbsAngles
EXTRN	?GetAbsAngles@CBaseEntity@@QBEABVVector@@XZ:PROC ; CBaseEntity::GetAbsAngles
EXTRN	?SetLocalOrigin@CBaseEntity@@QAEXABVVector@@@Z:PROC ; CBaseEntity::SetLocalOrigin
EXTRN	?GetLocalOrigin@CBaseEntity@@QBEABVVector@@XZ:PROC ; CBaseEntity::GetLocalOrigin
EXTRN	?SetLocalAngles@CBaseEntity@@QAEXABVVector@@@Z:PROC ; CBaseEntity::SetLocalAngles
EXTRN	?GetLocalAngles@CBaseEntity@@QBEABVVector@@XZ:PROC ; CBaseEntity::GetLocalAngles
EXTRN	?SetLocalVelocity@CBaseEntity@@QAEXABVVector@@@Z:PROC ; CBaseEntity::SetLocalVelocity
EXTRN	?GetLocalVelocity@CBaseEntity@@QBEABVVector@@XZ:PROC ; CBaseEntity::GetLocalVelocity
EXTRN	?SetLocalAvelocity@CBaseEntity@@QAEXABVVector@@@Z:PROC ; CBaseEntity::SetLocalAvelocity
EXTRN	?GetLocalAvelocity@CBaseEntity@@QBEABVVector@@XZ:PROC ; CBaseEntity::GetLocalAvelocity
EXTRN	?SetAbsVelocity@CBaseEntity@@QAEXABVVector@@@Z:PROC ; CBaseEntity::SetAbsVelocity
EXTRN	?GetAbsVelocity@CBaseEntity@@QBEABVVector@@XZ:PROC ; CBaseEntity::GetAbsVelocity
EXTRN	?ApplyAbsVelocityImpulse@CBaseEntity@@QAEXABVVector@@@Z:PROC ; CBaseEntity::ApplyAbsVelocityImpulse
EXTRN	?CalcAbsolutePosition@CBaseEntity@@QAEXXZ:PROC	; CBaseEntity::CalcAbsolutePosition
EXTRN	?GetRootParent@CBaseEntity@@QAEPAV1@XZ:PROC	; CBaseEntity::GetRootParent
EXTRN	?SetParent@CBaseEntity@@QAEXPAV1@H@Z:PROC	; CBaseEntity::SetParent
EXTRN	?WorldSpaceAABB@CBaseEntity@@QBEXAAVVector@@0@Z:PROC ; CBaseEntity::WorldSpaceAABB
EXTRN	?DontThink@CBaseEntity@@QAEXXZ:PROC		; CBaseEntity::DontThink
EXTRN	?RelinkEntity@CBaseEntity@@QAEXHPBVVector@@H@Z:PROC ; CBaseEntity::RelinkEntity
EXTRN	@__security_check_cookie@4:PROC
EXTRN	___CxxFrameHandler3:PROC
EXTRN	?g_vecZero@@3VVector@@B:BYTE			; g_vecZero
EXTRN	?g_engfuncs@@3Uenginefuncs_s@@A:BYTE		; g_engfuncs
EXTRN	?g_physfuncs@@3Userver_physics_api_s@@A:BYTE	; g_physfuncs
EXTRN	??_7type_info@@6B@:QWORD			; type_info::`vftable'
EXTRN	?g_GameStringPool@@3VCStringPool@@A:BYTE	; g_GameStringPool
EXTRN	?gpGlobals@@3PAUglobalvars_t@@A:DWORD		; gpGlobals
EXTRN	?g_ulFrameCount@@3KA:DWORD			; g_ulFrameCount
EXTRN	?g_fPhysicInitialized@@3HA:DWORD		; g_fPhysicInitialized
EXTRN	?g_iXashEngineBuildNumber@@3HA:DWORD		; g_iXashEngineBuildNumber
EXTRN	?g_groupop@@3HA:DWORD				; g_groupop
EXTRN	?WorldPhysic@@3PAVIPhysicLayer@@A:DWORD		; WorldPhysic
EXTRN	?g_psv_stepsize@@3PAUcvar_s@@A:DWORD		; g_psv_stepsize
EXTRN	?g_debugdraw@@3PAUcvar_s@@A:DWORD		; g_debugdraw
EXTRN	?p_speeds@@3PAUcvar_s@@A:DWORD			; p_speeds
EXTRN	?g_physdebug@@3PAUcvar_s@@A:DWORD		; g_physdebug
EXTRN	___security_cookie:DWORD
EXTRN	__fltused:DWORD
_BSS	SEGMENT
?s_PushedEntities@@3VCPhysicsPushedEntities@@A DB 038H DUP (?) ; s_PushedEntities
?m_rgGroundEnts@@3V?$CUtlArray@PAVCBaseEntity@@V?$CUtlMemory@PAVCBaseEntity@@H@@@@A DB 014H DUP (?) ; m_rgGroundEnts
?pMovingGround@@3PAVCBaseEntity@@A DD 01H DUP (?)	; pMovingGround
?s_nEnumCount@@3HA DD 01H DUP (?)			; s_nEnumCount
_BSS	ENDS
CRT$XCU	SEGMENT
?s_PushedEntities$initializer$@@3P6AXXZA DD FLAT:??__Es_PushedEntities@@YAXXZ ; s_PushedEntities$initializer$
CRT$XCU	ENDS
;	COMDAT __xmm@80000000800000008000000080000000
CONST	SEGMENT
__xmm@80000000800000008000000080000000 DB 00H, 00H, 00H, 080H, 00H, 00H, 00H
	DB	080H, 00H, 00H, 00H, 080H, 00H, 00H, 00H, 080H
CONST	ENDS
;	COMDAT __real@c2100000
CONST	SEGMENT
__real@c2100000 DD 0c2100000r			; -36
CONST	ENDS
;	COMDAT __real@c1900000
CONST	SEGMENT
__real@c1900000 DD 0c1900000r			; -18
CONST	ENDS
;	COMDAT __real@c1800000
CONST	SEGMENT
__real@c1800000 DD 0c1800000r			; -16
CONST	ENDS
;	COMDAT __real@bf800000
CONST	SEGMENT
__real@bf800000 DD 0bf800000r			; -1
CONST	ENDS
;	COMDAT __real@bf000000
CONST	SEGMENT
__real@bf000000 DD 0bf000000r			; -0.5
CONST	ENDS
;	COMDAT __real@44610000
CONST	SEGMENT
__real@44610000 DD 044610000r			; 900
CONST	ENDS
;	COMDAT __real@42100000
CONST	SEGMENT
__real@42100000 DD 042100000r			; 36
CONST	ENDS
;	COMDAT __real@41900000
CONST	SEGMENT
__real@41900000 DD 041900000r			; 18
CONST	ENDS
;	COMDAT __real@41800000
CONST	SEGMENT
__real@41800000 DD 041800000r			; 16
CONST	ENDS
;	COMDAT __real@41200000
CONST	SEGMENT
__real@41200000 DD 041200000r			; 10
CONST	ENDS
;	COMDAT __real@40000000
CONST	SEGMENT
__real@40000000 DD 040000000r			; 2
CONST	ENDS
;	COMDAT __real@3f91df46a2529d39
CONST	SEGMENT
__real@3f91df46a2529d39 DQ 03f91df46a2529d39r	; 0.0174533
CONST	ENDS
;	COMDAT __real@3f800000
CONST	SEGMENT
__real@3f800000 DD 03f800000r			; 1
CONST	ENDS
;	COMDAT __real@3f666666
CONST	SEGMENT
__real@3f666666 DD 03f666666r			; 0.9
CONST	ENDS
;	COMDAT __real@3f4ccccd
CONST	SEGMENT
__real@3f4ccccd DD 03f4ccccdr			; 0.8
CONST	ENDS
;	COMDAT __real@3f333333
CONST	SEGMENT
__real@3f333333 DD 03f333333r			; 0.7
CONST	ENDS
;	COMDAT __real@3f000000
CONST	SEGMENT
__real@3f000000 DD 03f000000r			; 0.5
CONST	ENDS
;	COMDAT __real@00000000
CONST	SEGMENT
__real@00000000 DD 000000000r			; 0
CONST	ENDS
;	COMDAT ??_R1A@?0A@EA@CPhysicsPushedEntities@@8
rdata$r	SEGMENT
??_R1A@?0A@EA@CPhysicsPushedEntities@@8 DD FLAT:??_R0?AVCPhysicsPushedEntities@@@8 ; CPhysicsPushedEntities::`RTTI Base Class Descriptor at (0,-1,0,64)'
	DD	00H
	DD	00H
	DD	0ffffffffH
	DD	00H
	DD	040H
	DD	FLAT:??_R3CPhysicsPushedEntities@@8
rdata$r	ENDS
;	COMDAT ??_R2CPhysicsPushedEntities@@8
rdata$r	SEGMENT
??_R2CPhysicsPushedEntities@@8 DD FLAT:??_R1A@?0A@EA@CPhysicsPushedEntities@@8 ; CPhysicsPushedEntities::`RTTI Base Class Array'
rdata$r	ENDS
;	COMDAT ??_R3CPhysicsPushedEntities@@8
rdata$r	SEGMENT
??_R3CPhysicsPushedEntities@@8 DD 00H			; CPhysicsPushedEntities::`RTTI Class Hierarchy Descriptor'
	DD	00H
	DD	01H
	DD	FLAT:??_R2CPhysicsPushedEntities@@8
rdata$r	ENDS
;	COMDAT ??_R0?AVCPhysicsPushedEntities@@@8
data$r	SEGMENT
??_R0?AVCPhysicsPushedEntities@@@8 DD FLAT:??_7type_info@@6B@ ; CPhysicsPushedEntities `RTTI Type Descriptor'
	DD	00H
	DB	'.?AVCPhysicsPushedEntities@@', 00H
data$r	ENDS
;	COMDAT ??_R4CPhysicsPushedEntities@@6B@
rdata$r	SEGMENT
??_R4CPhysicsPushedEntities@@6B@ DD 00H			; CPhysicsPushedEntities::`RTTI Complete Object Locator'
	DD	00H
	DD	00H
	DD	FLAT:??_R0?AVCPhysicsPushedEntities@@@8
	DD	FLAT:??_R3CPhysicsPushedEntities@@8
rdata$r	ENDS
;	COMDAT ??_C@_1BE@OPPFELHC@?$AAm?$AA_?$AAp?$AAM?$AAe?$AAm?$AAo?$AAr?$AAy?$AA?$AA@
CONST	SEGMENT
??_C@_1BE@OPPFELHC@?$AAm?$AA_?$AAp?$AAM?$AAe?$AAm?$AAo?$AAr?$AAy?$AA?$AA@ DB 'm'
	DB	00H, '_', 00H, 'p', 00H, 'M', 00H, 'e', 00H, 'm', 00H, 'o', 00H
	DB	'r', 00H, 'y', 00H, 00H, 00H			; `string'
CONST	ENDS
;	COMDAT ??_C@_13COJANIEC@?$AA0?$AA?$AA@
CONST	SEGMENT
??_C@_13COJANIEC@?$AA0?$AA?$AA@ DB '0', 00H, 00H, 00H	; `string'
CONST	ENDS
;	COMDAT ??_C@_1BA@PKCLMAEA@?$AAn?$AAu?$AAm?$AA?5?$AA?$DO?$AA?5?$AA0?$AA?$AA@
CONST	SEGMENT
??_C@_1BA@PKCLMAEA@?$AAn?$AAu?$AAm?$AA?5?$AA?$DO?$AA?5?$AA0?$AA?$AA@ DB 'n'
	DB	00H, 'u', 00H, 'm', 00H, ' ', 00H, '>', 00H, ' ', 00H, '0', 00H
	DB	00H, 00H					; `string'
CONST	ENDS
;	COMDAT ??_C@_1GM@CDMJDFPA@?$AAI?$AAs?$AAV?$AAa?$AAl?$AAi?$AAd?$AAI?$AAn?$AAd?$AAe?$AAx?$AA?$CI?$AAe?$AAl?$AAe?$AAm?$AA?$CJ?$AA?5?$AA?$HM?$AA?$HM?$AA?5?$AA?$CI?$AA?5?$AAm?$AA_?$AAS?$AAi?$AAz?$AAe?$AA?5?$AA?$DN@
CONST	SEGMENT
??_C@_1GM@CDMJDFPA@?$AAI?$AAs?$AAV?$AAa?$AAl?$AAi?$AAd?$AAI?$AAn?$AAd?$AAe?$AAx?$AA?$CI?$AAe?$AAl?$AAe?$AAm?$AA?$CJ?$AA?5?$AA?$HM?$AA?$HM?$AA?5?$AA?$CI?$AA?5?$AAm?$AA_?$AAS?$AAi?$AAz?$AAe?$AA?5?$AA?$DN@ DB 'I'
	DB	00H, 's', 00H, 'V', 00H, 'a', 00H, 'l', 00H, 'i', 00H, 'd', 00H
	DB	'I', 00H, 'n', 00H, 'd', 00H, 'e', 00H, 'x', 00H, '(', 00H, 'e'
	DB	00H, 'l', 00H, 'e', 00H, 'm', 00H, ')', 00H, ' ', 00H, '|', 00H
	DB	'|', 00H, ' ', 00H, '(', 00H, ' ', 00H, 'm', 00H, '_', 00H, 'S'
	DB	00H, 'i', 00H, 'z', 00H, 'e', 00H, ' ', 00H, '=', 00H, '=', 00H
	DB	' ', 00H, '0', 00H, ' ', 00H, ')', 00H, ' ', 00H, '|', 00H, '|'
	DB	00H, ' ', 00H, '(', 00H, ' ', 00H, 'n', 00H, 'u', 00H, 'm', 00H
	DB	' ', 00H, '=', 00H, '=', 00H, ' ', 00H, '0', 00H, ' ', 00H, ')'
	DB	00H, 00H, 00H				; `string'
CONST	ENDS
;	COMDAT ??_C@_1FA@BPFBJKPF@?$AA?$CI?$AAe?$AAl?$AAe?$AAm?$AA?5?$AA?$DN?$AA?$DN?$AA?5?$AAC?$AAo?$AAu?$AAn?$AAt?$AA?$CI?$AA?$CJ?$AA?$CJ?$AA?5?$AA?$HM?$AA?$HM?$AA?5?$AAI?$AAs?$AAV?$AAa?$AAl?$AAi?$AAd?$AAI?$AAn?$AAd?$AAe@
CONST	SEGMENT
??_C@_1FA@BPFBJKPF@?$AA?$CI?$AAe?$AAl?$AAe?$AAm?$AA?5?$AA?$DN?$AA?$DN?$AA?5?$AAC?$AAo?$AAu?$AAn?$AAt?$AA?$CI?$AA?$CJ?$AA?$CJ?$AA?5?$AA?$HM?$AA?$HM?$AA?5?$AAI?$AAs?$AAV?$AAa?$AAl?$AAi?$AAd?$AAI?$AAn?$AAd?$AAe@ DB '('
	DB	00H, 'e', 00H, 'l', 00H, 'e', 00H, 'm', 00H, ' ', 00H, '=', 00H
	DB	'=', 00H, ' ', 00H, 'C', 00H, 'o', 00H, 'u', 00H, 'n', 00H, 't'
	DB	00H, '(', 00H, ')', 00H, ')', 00H, ' ', 00H, '|', 00H, '|', 00H
	DB	' ', 00H, 'I', 00H, 's', 00H, 'V', 00H, 'a', 00H, 'l', 00H, 'i'
	DB	00H, 'd', 00H, 'I', 00H, 'n', 00H, 'd', 00H, 'e', 00H, 'x', 00H
	DB	'(', 00H, 'e', 00H, 'l', 00H, 'e', 00H, 'm', 00H, ')', 00H, 00H
	DB	00H						; `string'
CONST	ENDS
;	COMDAT ??_C@_1BM@CKILBAKK@?$AAI?$AAs?$AAI?$AAd?$AAx?$AAV?$AAa?$AAl?$AAi?$AAd?$AA?$CI?$AAi?$AA?$CJ?$AA?$AA@
CONST	SEGMENT
??_C@_1BM@CKILBAKK@?$AAI?$AAs?$AAI?$AAd?$AAx?$AAV?$AAa?$AAl?$AAi?$AAd?$AA?$CI?$AAi?$AA?$CJ?$AA?$AA@ DB 'I'
	DB	00H, 's', 00H, 'I', 00H, 'd', 00H, 'x', 00H, 'V', 00H, 'a', 00H
	DB	'l', 00H, 'i', 00H, 'd', 00H, '(', 00H, 'i', 00H, ')', 00H, 00H
	DB	00H						; `string'
CONST	ENDS
;	COMDAT ??_C@_1BM@PFNFCCHH@?$AA?$CB?$AAI?$AAs?$AAR?$AAe?$AAa?$AAd?$AAO?$AAn?$AAl?$AAy?$AA?$CI?$AA?$CJ?$AA?$AA@
CONST	SEGMENT
??_C@_1BM@PFNFCCHH@?$AA?$CB?$AAI?$AAs?$AAR?$AAe?$AAa?$AAd?$AAO?$AAn?$AAl?$AAy?$AA?$CI?$AA?$CJ?$AA?$AA@ DB '!'
	DB	00H, 'I', 00H, 's', 00H, 'R', 00H, 'e', 00H, 'a', 00H, 'd', 00H
	DB	'O', 00H, 'n', 00H, 'l', 00H, 'y', 00H, '(', 00H, ')', 00H, 00H
	DB	00H						; `string'
CONST	ENDS
;	COMDAT ??_C@_1BO@FOOHAONO@?$AAn?$AAG?$AAr?$AAo?$AAw?$AAS?$AAi?$AAz?$AAe?$AA?5?$AA?$DO?$AA?$DN?$AA?5?$AA0?$AA?$AA@
CONST	SEGMENT
??_C@_1BO@FOOHAONO@?$AAn?$AAG?$AAr?$AAo?$AAw?$AAS?$AAi?$AAz?$AAe?$AA?5?$AA?$DO?$AA?$DN?$AA?5?$AA0?$AA?$AA@ DB 'n'
	DB	00H, 'G', 00H, 'r', 00H, 'o', 00H, 'w', 00H, 'S', 00H, 'i', 00H
	DB	'z', 00H, 'e', 00H, ' ', 00H, '>', 00H, '=', 00H, ' ', 00H, '0'
	DB	00H, 00H, 00H				; `string'
CONST	ENDS
;	COMDAT ??_C@_1JE@CIIIAKCN@?$AAd?$AA?3?$AA?2?$AA?$CB?$AAd?$AAi?$AAf?$AAf?$AAu?$AAs?$AAi?$AAo?$AAn?$AA?5?$AA2?$AA0?$AA2?$AA0?$AA?2?$AAs?$AAo?$AAu?$AAr?$AAc?$AAe?$AA?5?$AAc?$AAo?$AAd?$AAe?$AA?5?$AA2@
CONST	SEGMENT
??_C@_1JE@CIIIAKCN@?$AAd?$AA?3?$AA?2?$AA?$CB?$AAd?$AAi?$AAf?$AAf?$AAu?$AAs?$AAi?$AAo?$AAn?$AA?5?$AA2?$AA0?$AA2?$AA0?$AA?2?$AAs?$AAo?$AAu?$AAr?$AAc?$AAe?$AA?5?$AAc?$AAo?$AAd?$AAe?$AA?5?$AA2@ DB 'd'
	DB	00H, ':', 00H, '\', 00H, '!', 00H, 'd', 00H, 'i', 00H, 'f', 00H
	DB	'f', 00H, 'u', 00H, 's', 00H, 'i', 00H, 'o', 00H, 'n', 00H, ' '
	DB	00H, '2', 00H, '0', 00H, '2', 00H, '0', 00H, '\', 00H, 's', 00H
	DB	'o', 00H, 'u', 00H, 'r', 00H, 'c', 00H, 'e', 00H, ' ', 00H, 'c'
	DB	00H, 'o', 00H, 'd', 00H, 'e', 00H, ' ', 00H, '2', 00H, '0', 00H
	DB	'2', 00H, '2', 00H, '\', 00H, 'c', 00H, 'l', 00H, 'i', 00H, 'e'
	DB	00H, 'n', 00H, 't', 00H, '-', 00H, 's', 00H, 'e', 00H, 'r', 00H
	DB	'v', 00H, 'e', 00H, 'r', 00H, '\', 00H, 'g', 00H, 'a', 00H, 'm'
	DB	00H, 'e', 00H, '_', 00H, 's', 00H, 'h', 00H, 'a', 00H, 'r', 00H
	DB	'e', 00H, 'd', 00H, '\', 00H, 'u', 00H, 't', 00H, 'l', 00H, 'm'
	DB	00H, 'e', 00H, 'm', 00H, 'o', 00H, 'r', 00H, 'y', 00H, '.', 00H
	DB	'h', 00H, 00H, 00H				; `string'
CONST	ENDS
;	COMDAT ??_C@_1JC@EMNIBBBG@?$AAd?$AA?3?$AA?2?$AA?$CB?$AAd?$AAi?$AAf?$AAf?$AAu?$AAs?$AAi?$AAo?$AAn?$AA?5?$AA2?$AA0?$AA2?$AA0?$AA?2?$AAs?$AAo?$AAu?$AAr?$AAc?$AAe?$AA?5?$AAc?$AAo?$AAd?$AAe?$AA?5?$AA2@
CONST	SEGMENT
??_C@_1JC@EMNIBBBG@?$AAd?$AA?3?$AA?2?$AA?$CB?$AAd?$AAi?$AAf?$AAf?$AAu?$AAs?$AAi?$AAo?$AAn?$AA?5?$AA2?$AA0?$AA2?$AA0?$AA?2?$AAs?$AAo?$AAu?$AAr?$AAc?$AAe?$AA?5?$AAc?$AAo?$AAd?$AAe?$AA?5?$AA2@ DB 'd'
	DB	00H, ':', 00H, '\', 00H, '!', 00H, 'd', 00H, 'i', 00H, 'f', 00H
	DB	'f', 00H, 'u', 00H, 's', 00H, 'i', 00H, 'o', 00H, 'n', 00H, ' '
	DB	00H, '2', 00H, '0', 00H, '2', 00H, '0', 00H, '\', 00H, 's', 00H
	DB	'o', 00H, 'u', 00H, 'r', 00H, 'c', 00H, 'e', 00H, ' ', 00H, 'c'
	DB	00H, 'o', 00H, 'd', 00H, 'e', 00H, ' ', 00H, '2', 00H, '0', 00H
	DB	'2', 00H, '2', 00H, '\', 00H, 'c', 00H, 'l', 00H, 'i', 00H, 'e'
	DB	00H, 'n', 00H, 't', 00H, '-', 00H, 's', 00H, 'e', 00H, 'r', 00H
	DB	'v', 00H, 'e', 00H, 'r', 00H, '\', 00H, 'g', 00H, 'a', 00H, 'm'
	DB	00H, 'e', 00H, '_', 00H, 's', 00H, 'h', 00H, 'a', 00H, 'r', 00H
	DB	'e', 00H, 'd', 00H, '\', 00H, 'u', 00H, 't', 00H, 'l', 00H, 'a'
	DB	00H, 'r', 00H, 'r', 00H, 'a', 00H, 'y', 00H, '.', 00H, 'h', 00H
	DB	00H, 00H					; `string'
CONST	ENDS
;	COMDAT ??_C@_0L@FKMMBKBD@sv_gravity?$AA@
CONST	SEGMENT
??_C@_0L@FKMMBKBD@sv_gravity?$AA@ DB 'sv_gravity', 00H	; `string'
CONST	ENDS
;	COMDAT ??_C@_0CA@ICKKHLGL@SV_FlyMove?3?5trace?4pHit?5?$DN?$DN?5NULL?6?$AA@
CONST	SEGMENT
??_C@_0CA@ICKKHLGL@SV_FlyMove?3?5trace?4pHit?5?$DN?$DN?5NULL?6?$AA@ DB 'S'
	DB	'V_FlyMove: trace.pHit == NULL', 0aH, 00H	; `string'
CONST	ENDS
;	COMDAT ??_C@_0BI@JOACCKMB@Got?5a?5NaN?5origin?5on?5?$CFs?6?$AA@
CONST	SEGMENT
??_C@_0BI@JOACCKMB@Got?5a?5NaN?5origin?5on?5?$CFs?6?$AA@ DB 'Got a NaN or'
	DB	'igin on %s', 0aH, 00H			; `string'
CONST	ENDS
;	COMDAT ??_C@_0BK@FPJNFHPF@Got?5a?5NaN?5velocity?5on?5?$CFs?6?$AA@
CONST	SEGMENT
??_C@_0BK@FPJNFHPF@Got?5a?5NaN?5velocity?5on?5?$CFs?6?$AA@ DB 'Got a NaN '
	DB	'velocity on %s', 0aH, 00H			; `string'
CONST	ENDS
;	COMDAT ??_C@_0P@FKNMIPLB@sv_maxvelocity?$AA@
CONST	SEGMENT
??_C@_0P@FKNMIPLB@sv_maxvelocity?$AA@ DB 'sv_maxvelocity', 00H ; `string'
CONST	ENDS
;	COMDAT ??_C@_0BE@FOEPOJBH@footsteps?1wade1?4wav?$AA@
CONST	SEGMENT
??_C@_0BE@FOEPOJBH@footsteps?1wade1?4wav?$AA@ DB 'footsteps/wade1.wav', 00H ; `string'
CONST	ENDS
;	COMDAT ??_C@_0BE@NINLJLLJ@footsteps?1wade2?4wav?$AA@
CONST	SEGMENT
??_C@_0BE@NINLJLLJ@footsteps?1wade2?4wav?$AA@ DB 'footsteps/wade2.wav', 00H ; `string'
CONST	ENDS
;	COMDAT ??_C@_0BA@HGFAHNIM@m_nBlocker?5?$DO?$DN?50?$AA@
CONST	SEGMENT
??_C@_0BA@HGFAHNIM@m_nBlocker?5?$DO?$DN?50?$AA@ DB 'm_nBlocker >= 0', 00H ; `string'
CONST	ENDS
;	COMDAT ??_C@_0EM@GBEFGAKM@d?3?2?$CBdiffusion?52020?2source?5code?52@
CONST	SEGMENT
??_C@_0EM@GBEFGAKM@d?3?2?$CBdiffusion?52020?2source?5code?52@ DB 'd:\!dif'
	DB	'fusion 2020\source code 2022\client-server\server\physics\phy'
	DB	'sic.cpp', 00H				; `string'
CONST	ENDS
;	COMDAT ?__LINE__Var@?0??RegisterBlockage@CPhysicsPushedEntities@@IAEPAVCBaseEntity@@XZ@4JA
_DATA	SEGMENT
?__LINE__Var@?0??RegisterBlockage@CPhysicsPushedEntities@@IAEPAVCBaseEntity@@XZ@4JA DD 02edH ; `CPhysicsPushedEntities::RegisterBlockage'::`1'::__LINE__Var
_DATA	ENDS
;	COMDAT ??_C@_0CB@DOHDBANJ@Ignoring?5player?5blocking?5train?$CB?6@
CONST	SEGMENT
??_C@_0CB@DOHDBANJ@Ignoring?5player?5blocking?5train?$CB?6@ DB 'Ignoring '
	DB	'player blocking train!', 0aH, 00H		; `string'
CONST	ENDS
;	COMDAT ??_C@_0CI@MPLCCPKG@Interpenetrating?5entities?$CB?5?$CI?$CFs?5a@
CONST	SEGMENT
??_C@_0CI@MPLCCPKG@Interpenetrating?5entities?$CB?5?$CI?$CFs?5a@ DB 'Inte'
	DB	'rpenetrating entities! (%s and %s)', 0aH, 00H ; `string'
CONST	ENDS
;	COMDAT ??_C@_0N@LFAHFFEG@sv_stopspeed?$AA@
CONST	SEGMENT
??_C@_0N@LFAHFFEG@sv_stopspeed?$AA@ DB 'sv_stopspeed', 00H ; `string'
CONST	ENDS
;	COMDAT ??_C@_0M@CKLNABFC@sv_friction?$AA@
CONST	SEGMENT
??_C@_0M@CKLNABFC@sv_friction?$AA@ DB 'sv_friction', 00H ; `string'
CONST	ENDS
;	COMDAT ??_C@_0BD@CAJBLNMK@func_door_rotating?$AA@
CONST	SEGMENT
??_C@_0BD@CAJBLNMK@func_door_rotating?$AA@ DB 'func_door_rotating', 00H ; `string'
CONST	ENDS
;	COMDAT ??_7CPhysicsPushedEntities@@6B@
CONST	SEGMENT
??_7CPhysicsPushedEntities@@6B@ DD FLAT:??_R4CPhysicsPushedEntities@@6B@ ; CPhysicsPushedEntities::`vftable'
	DD	FLAT:?SpeculativelyCheckRotPush@CPhysicsPushedEntities@@MAE_NABURotatingPushMove_t@1@PAVCBaseEntity@@@Z
	DD	FLAT:?SpeculativelyCheckLinearPush@CPhysicsPushedEntities@@MAE_NABVVector@@@Z
	DD	FLAT:?FinishRotPushedEntity@CPhysicsPushedEntities@@MAEXPAVCBaseEntity@@ABURotatingPushMove_t@1@@Z
CONST	ENDS
;	COMDAT ??_C@_0BF@DOONGEFO@Bad?5pev?5in?5OFFSET?$CI?$CJ?6?$AA@
CONST	SEGMENT
??_C@_0BF@DOONGEFO@Bad?5pev?5in?5OFFSET?$CI?$CJ?6?$AA@ DB 'Bad pev in OFF'
	DB	'SET()', 0aH, 00H				; `string'
CONST	ENDS
;	COMDAT ??_C@_0BF@CPEPILID@Bad?5ent?5in?5OFFSET?$CI?$CJ?6?$AA@
CONST	SEGMENT
??_C@_0BF@CPEPILID@Bad?5ent?5in?5OFFSET?$CI?$CJ?6?$AA@ DB 'Bad ent in OFF'
	DB	'SET()', 0aH, 00H				; `string'
CONST	ENDS
;	COMDAT xdata$x
xdata$x	SEGMENT
__unwindtable$??$Construct@UPhysicsPushedInfo_t@CPhysicsPushedEntities@@@@YAXPAUPhysicsPushedInfo_t@CPhysicsPushedEntities@@@Z DD 0ffffffffH
	DD	FLAT:__unwindfunclet$??$Construct@UPhysicsPushedInfo_t@CPhysicsPushedEntities@@@@YAXPAUPhysicsPushedInfo_t@CPhysicsPushedEntities@@@Z$0
__ehfuncinfo$??$Construct@UPhysicsPushedInfo_t@CPhysicsPushedEntities@@@@YAXPAUPhysicsPushedInfo_t@CPhysicsPushedEntities@@@Z DD 019930522H
	DD	01H
	DD	FLAT:__unwindtable$??$Construct@UPhysicsPushedInfo_t@CPhysicsPushedEntities@@@@YAXPAUPhysicsPushedInfo_t@CPhysicsPushedEntities@@@Z
	DD	2 DUP(00H)
	DD	2 DUP(00H)
	DD	00H
	DD	01H
xdata$x	ENDS
;	COMDAT xdata$x
xdata$x	SEGMENT
__unwindtable$??$Construct@UPhysicsPusherInfo_t@CPhysicsPushedEntities@@@@YAXPAUPhysicsPusherInfo_t@CPhysicsPushedEntities@@@Z DD 0ffffffffH
	DD	FLAT:__unwindfunclet$??$Construct@UPhysicsPusherInfo_t@CPhysicsPushedEntities@@@@YAXPAUPhysicsPusherInfo_t@CPhysicsPushedEntities@@@Z$0
__ehfuncinfo$??$Construct@UPhysicsPusherInfo_t@CPhysicsPushedEntities@@@@YAXPAUPhysicsPusherInfo_t@CPhysicsPushedEntities@@@Z DD 019930522H
	DD	01H
	DD	FLAT:__unwindtable$??$Construct@UPhysicsPusherInfo_t@CPhysicsPushedEntities@@@@YAXPAUPhysicsPusherInfo_t@CPhysicsPushedEntities@@@Z
	DD	2 DUP(00H)
	DD	2 DUP(00H)
	DD	00H
	DD	01H
xdata$x	ENDS
;	COMDAT xdata$x
xdata$x	SEGMENT
__ehfuncinfo$??1?$CUtlMemory@PAVCBaseEntity@@H@@QAE@XZ DD 019930522H
	DD	00H
	DD	00H
	DD	2 DUP(00H)
	DD	2 DUP(00H)
	DD	00H
	DD	05H
xdata$x	ENDS
;	COMDAT xdata$x
xdata$x	SEGMENT
__ehfuncinfo$??1?$CUtlArray@PAVCBaseEntity@@V?$CUtlMemory@PAVCBaseEntity@@H@@@@QAE@XZ DD 019930522H
	DD	00H
	DD	00H
	DD	2 DUP(00H)
	DD	2 DUP(00H)
	DD	00H
	DD	05H
xdata$x	ENDS
;	COMDAT xdata$x
xdata$x	SEGMENT
__unwindtable$??0?$CUtlArray@PAVCBaseEntity@@V?$CUtlMemory@PAVCBaseEntity@@H@@@@QAE@HH@Z DD 0ffffffffH
	DD	FLAT:__unwindfunclet$??0?$CUtlArray@PAVCBaseEntity@@V?$CUtlMemory@PAVCBaseEntity@@H@@@@QAE@HH@Z$0
__ehfuncinfo$??0?$CUtlArray@PAVCBaseEntity@@V?$CUtlMemory@PAVCBaseEntity@@H@@@@QAE@HH@Z DD 019930522H
	DD	01H
	DD	FLAT:__unwindtable$??0?$CUtlArray@PAVCBaseEntity@@V?$CUtlMemory@PAVCBaseEntity@@H@@@@QAE@HH@Z
	DD	2 DUP(00H)
	DD	2 DUP(00H)
	DD	00H
	DD	01H
xdata$x	ENDS
;	COMDAT xdata$x
xdata$x	SEGMENT
__ehfuncinfo$??1?$CUtlMemory@UPhysicsPushedInfo_t@CPhysicsPushedEntities@@H@@QAE@XZ DD 019930522H
	DD	00H
	DD	00H
	DD	2 DUP(00H)
	DD	2 DUP(00H)
	DD	00H
	DD	05H
xdata$x	ENDS
;	COMDAT xdata$x
xdata$x	SEGMENT
__ehfuncinfo$??1?$CUtlArray@UPhysicsPushedInfo_t@CPhysicsPushedEntities@@V?$CUtlMemory@UPhysicsPushedInfo_t@CPhysicsPushedEntities@@H@@@@QAE@XZ DD 019930522H
	DD	00H
	DD	00H
	DD	2 DUP(00H)
	DD	2 DUP(00H)
	DD	00H
	DD	05H
xdata$x	ENDS
;	COMDAT xdata$x
xdata$x	SEGMENT
__unwindtable$??0?$CUtlArray@UPhysicsPushedInfo_t@CPhysicsPushedEntities@@V?$CUtlMemory@UPhysicsPushedInfo_t@CPhysicsPushedEntities@@H@@@@QAE@HH@Z DD 0ffffffffH
	DD	FLAT:__unwindfunclet$??0?$CUtlArray@UPhysicsPushedInfo_t@CPhysicsPushedEntities@@V?$CUtlMemory@UPhysicsPushedInfo_t@CPhysicsPushedEntities@@H@@@@QAE@HH@Z$0
__ehfuncinfo$??0?$CUtlArray@UPhysicsPushedInfo_t@CPhysicsPushedEntities@@V?$CUtlMemory@UPhysicsPushedInfo_t@CPhysicsPushedEntities@@H@@@@QAE@HH@Z DD 019930522H
	DD	01H
	DD	FLAT:__unwindtable$??0?$CUtlArray@UPhysicsPushedInfo_t@CPhysicsPushedEntities@@V?$CUtlMemory@UPhysicsPushedInfo_t@CPhysicsPushedEntities@@H@@@@QAE@HH@Z
	DD	2 DUP(00H)
	DD	2 DUP(00H)
	DD	00H
	DD	01H
xdata$x	ENDS
;	COMDAT xdata$x
xdata$x	SEGMENT
__ehfuncinfo$??1?$CUtlMemory@UPhysicsPusherInfo_t@CPhysicsPushedEntities@@H@@QAE@XZ DD 019930522H
	DD	00H
	DD	00H
	DD	2 DUP(00H)
	DD	2 DUP(00H)
	DD	00H
	DD	05H
xdata$x	ENDS
;	COMDAT xdata$x
xdata$x	SEGMENT
__ehfuncinfo$??1?$CUtlArray@UPhysicsPusherInfo_t@CPhysicsPushedEntities@@V?$CUtlMemory@UPhysicsPusherInfo_t@CPhysicsPushedEntities@@H@@@@QAE@XZ DD 019930522H
	DD	00H
	DD	00H
	DD	2 DUP(00H)
	DD	2 DUP(00H)
	DD	00H
	DD	05H
xdata$x	ENDS
;	COMDAT xdata$x
xdata$x	SEGMENT
__unwindtable$??0?$CUtlArray@UPhysicsPusherInfo_t@CPhysicsPushedEntities@@V?$CUtlMemory@UPhysicsPusherInfo_t@CPhysicsPushedEntities@@H@@@@QAE@HH@Z DD 0ffffffffH
	DD	FLAT:__unwindfunclet$??0?$CUtlArray@UPhysicsPusherInfo_t@CPhysicsPushedEntities@@V?$CUtlMemory@UPhysicsPusherInfo_t@CPhysicsPushedEntities@@H@@@@QAE@HH@Z$0
__ehfuncinfo$??0?$CUtlArray@UPhysicsPusherInfo_t@CPhysicsPushedEntities@@V?$CUtlMemory@UPhysicsPusherInfo_t@CPhysicsPushedEntities@@H@@@@QAE@HH@Z DD 019930522H
	DD	01H
	DD	FLAT:__unwindtable$??0?$CUtlArray@UPhysicsPusherInfo_t@CPhysicsPushedEntities@@V?$CUtlMemory@UPhysicsPusherInfo_t@CPhysicsPushedEntities@@H@@@@QAE@HH@Z
	DD	2 DUP(00H)
	DD	2 DUP(00H)
	DD	00H
	DD	01H
xdata$x	ENDS
;	COMDAT xdata$x
xdata$x	SEGMENT
__unwindtable$??0CPhysicsPushedEntities@@QAE@XZ DD 0ffffffffH
	DD	FLAT:__unwindfunclet$??0CPhysicsPushedEntities@@QAE@XZ$0
__ehfuncinfo$??0CPhysicsPushedEntities@@QAE@XZ DD 019930522H
	DD	01H
	DD	FLAT:__unwindtable$??0CPhysicsPushedEntities@@QAE@XZ
	DD	2 DUP(00H)
	DD	2 DUP(00H)
	DD	00H
	DD	01H
xdata$x	ENDS
CRT$XCU	SEGMENT
?m_rgGroundEnts$initializer$@@3P6AXXZA DD FLAT:??__Em_rgGroundEnts@@YAXXZ ; m_rgGroundEnts$initializer$
CRT$XCU	ENDS
; Function compile flags: /Odtp /ZI
; File d:\!diffusion 2020\source code 2022\client-server\game_shared\utlmemory.h
;	COMDAT ??$Construct@PAVCBaseEntity@@@@YAXPAPAVCBaseEntity@@@Z
_TEXT	SEGMENT
$T1 = -68						; size = 4
_pMemory$ = 8						; size = 4
??$Construct@PAVCBaseEntity@@@@YAXPAPAVCBaseEntity@@@Z PROC ; Construct<CBaseEntity *>, COMDAT

; 37   : {

	push	ebp
	mov	ebp, esp
	sub	esp, 68					; 00000044H
	push	ebx
	push	esi
	push	edi

; 38   : 	new( pMemory ) T;

	mov	eax, DWORD PTR _pMemory$[ebp]
	push	eax
	push	4
	call	??2@YAPAXIPAX@Z				; operator new
	add	esp, 8
	mov	DWORD PTR $T1[ebp], eax

; 39   : }

	pop	edi
	pop	esi
	pop	ebx
	mov	esp, ebp
	pop	ebp
	ret	0
??$Construct@PAVCBaseEntity@@@@YAXPAPAVCBaseEntity@@@Z ENDP ; Construct<CBaseEntity *>
_TEXT	ENDS
; Function compile flags: /Odtp /ZI
; File d:\!diffusion 2020\source code 2022\client-server\game_shared\utlmemory.h
;	COMDAT ??$Construct@UPhysicsPushedInfo_t@CPhysicsPushedEntities@@@@YAXPAUPhysicsPushedInfo_t@CPhysicsPushedEntities@@@Z
_TEXT	SEGMENT
tv76 = -88						; size = 4
$T2 = -84						; size = 4
$T3 = -80						; size = 4
__$EHRec$ = -12						; size = 12
_pMemory$ = 8						; size = 4
??$Construct@UPhysicsPushedInfo_t@CPhysicsPushedEntities@@@@YAXPAUPhysicsPushedInfo_t@CPhysicsPushedEntities@@@Z PROC ; Construct<CPhysicsPushedEntities::PhysicsPushedInfo_t>, COMDAT

; 37   : {

	push	ebp
	mov	ebp, esp
	push	-1
	push	__ehhandler$??$Construct@UPhysicsPushedInfo_t@CPhysicsPushedEntities@@@@YAXPAUPhysicsPushedInfo_t@CPhysicsPushedEntities@@@Z
	mov	eax, DWORD PTR fs:0
	push	eax
	sub	esp, 76					; 0000004cH
	push	ebx
	push	esi
	push	edi
	mov	eax, DWORD PTR ___security_cookie
	xor	eax, ebp
	push	eax
	lea	eax, DWORD PTR __$EHRec$[ebp]
	mov	DWORD PTR fs:0, eax

; 38   : 	new( pMemory ) T;

	mov	eax, DWORD PTR _pMemory$[ebp]
	push	eax
	push	76					; 0000004cH
	call	??2@YAPAXIPAX@Z				; operator new
	add	esp, 8
	mov	DWORD PTR $T2[ebp], eax
	mov	DWORD PTR __$EHRec$[ebp+8], 0
	cmp	DWORD PTR $T2[ebp], 0
	je	SHORT $LN3@Construct
	mov	ecx, DWORD PTR $T2[ebp]
	call	??0PhysicsPushedInfo_t@CPhysicsPushedEntities@@QAE@XZ
	mov	DWORD PTR tv76[ebp], eax
	jmp	SHORT $LN4@Construct
$LN3@Construct:
	mov	DWORD PTR tv76[ebp], 0
$LN4@Construct:
	mov	ecx, DWORD PTR tv76[ebp]
	mov	DWORD PTR $T3[ebp], ecx
	mov	DWORD PTR __$EHRec$[ebp+8], -1

; 39   : }

	mov	ecx, DWORD PTR __$EHRec$[ebp]
	mov	DWORD PTR fs:0, ecx
	pop	ecx
	pop	edi
	pop	esi
	pop	ebx
	mov	esp, ebp
	pop	ebp
	ret	0
_TEXT	ENDS
;	COMDAT text$x
text$x	SEGMENT
__unwindfunclet$??$Construct@UPhysicsPushedInfo_t@CPhysicsPushedEntities@@@@YAXPAUPhysicsPushedInfo_t@CPhysicsPushedEntities@@@Z$0:
	mov	eax, DWORD PTR _pMemory$[ebp]
	push	eax
	mov	eax, DWORD PTR $T2[ebp]
	push	eax
	call	??3@YAXPAX0@Z				; operator delete
	add	esp, 8
	ret	0
__ehhandler$??$Construct@UPhysicsPushedInfo_t@CPhysicsPushedEntities@@@@YAXPAUPhysicsPushedInfo_t@CPhysicsPushedEntities@@@Z:
	mov	edx, DWORD PTR [esp+8]
	lea	eax, DWORD PTR [edx+12]
	mov	ecx, DWORD PTR [edx-92]
	xor	ecx, eax
	call	@__security_check_cookie@4
	mov	eax, OFFSET __ehfuncinfo$??$Construct@UPhysicsPushedInfo_t@CPhysicsPushedEntities@@@@YAXPAUPhysicsPushedInfo_t@CPhysicsPushedEntities@@@Z
	jmp	___CxxFrameHandler3
text$x	ENDS
??$Construct@UPhysicsPushedInfo_t@CPhysicsPushedEntities@@@@YAXPAUPhysicsPushedInfo_t@CPhysicsPushedEntities@@@Z ENDP ; Construct<CPhysicsPushedEntities::PhysicsPushedInfo_t>
; Function compile flags: /Odtp /ZI
; File d:\!diffusion 2020\source code 2022\client-server\game_shared\utlmemory.h
;	COMDAT ??$Construct@UPhysicsPusherInfo_t@CPhysicsPushedEntities@@@@YAXPAUPhysicsPusherInfo_t@CPhysicsPushedEntities@@@Z
_TEXT	SEGMENT
tv76 = -88						; size = 4
$T2 = -84						; size = 4
$T3 = -80						; size = 4
__$EHRec$ = -12						; size = 12
_pMemory$ = 8						; size = 4
??$Construct@UPhysicsPusherInfo_t@CPhysicsPushedEntities@@@@YAXPAUPhysicsPusherInfo_t@CPhysicsPushedEntities@@@Z PROC ; Construct<CPhysicsPushedEntities::PhysicsPusherInfo_t>, COMDAT

; 37   : {

	push	ebp
	mov	ebp, esp
	push	-1
	push	__ehhandler$??$Construct@UPhysicsPusherInfo_t@CPhysicsPushedEntities@@@@YAXPAUPhysicsPusherInfo_t@CPhysicsPushedEntities@@@Z
	mov	eax, DWORD PTR fs:0
	push	eax
	sub	esp, 76					; 0000004cH
	push	ebx
	push	esi
	push	edi
	mov	eax, DWORD PTR ___security_cookie
	xor	eax, ebp
	push	eax
	lea	eax, DWORD PTR __$EHRec$[ebp]
	mov	DWORD PTR fs:0, eax

; 38   : 	new( pMemory ) T;

	mov	eax, DWORD PTR _pMemory$[ebp]
	push	eax
	push	16					; 00000010H
	call	??2@YAPAXIPAX@Z				; operator new
	add	esp, 8
	mov	DWORD PTR $T2[ebp], eax
	mov	DWORD PTR __$EHRec$[ebp+8], 0
	cmp	DWORD PTR $T2[ebp], 0
	je	SHORT $LN3@Construct
	mov	ecx, DWORD PTR $T2[ebp]
	call	??0PhysicsPusherInfo_t@CPhysicsPushedEntities@@QAE@XZ
	mov	DWORD PTR tv76[ebp], eax
	jmp	SHORT $LN4@Construct
$LN3@Construct:
	mov	DWORD PTR tv76[ebp], 0
$LN4@Construct:
	mov	ecx, DWORD PTR tv76[ebp]
	mov	DWORD PTR $T3[ebp], ecx
	mov	DWORD PTR __$EHRec$[ebp+8], -1

; 39   : }

	mov	ecx, DWORD PTR __$EHRec$[ebp]
	mov	DWORD PTR fs:0, ecx
	pop	ecx
	pop	edi
	pop	esi
	pop	ebx
	mov	esp, ebp
	pop	ebp
	ret	0
_TEXT	ENDS
;	COMDAT text$x
text$x	SEGMENT
__unwindfunclet$??$Construct@UPhysicsPusherInfo_t@CPhysicsPushedEntities@@@@YAXPAUPhysicsPusherInfo_t@CPhysicsPushedEntities@@@Z$0:
	mov	eax, DWORD PTR _pMemory$[ebp]
	push	eax
	mov	eax, DWORD PTR $T2[ebp]
	push	eax
	call	??3@YAXPAX0@Z				; operator delete
	add	esp, 8
	ret	0
__ehhandler$??$Construct@UPhysicsPusherInfo_t@CPhysicsPushedEntities@@@@YAXPAUPhysicsPusherInfo_t@CPhysicsPushedEntities@@@Z:
	mov	edx, DWORD PTR [esp+8]
	lea	eax, DWORD PTR [edx+12]
	mov	ecx, DWORD PTR [edx-92]
	xor	ecx, eax
	call	@__security_check_cookie@4
	mov	eax, OFFSET __ehfuncinfo$??$Construct@UPhysicsPusherInfo_t@CPhysicsPushedEntities@@@@YAXPAUPhysicsPusherInfo_t@CPhysicsPushedEntities@@@Z
	jmp	___CxxFrameHandler3
text$x	ENDS
??$Construct@UPhysicsPusherInfo_t@CPhysicsPushedEntities@@@@YAXPAUPhysicsPusherInfo_t@CPhysicsPushedEntities@@@Z ENDP ; Construct<CPhysicsPushedEntities::PhysicsPusherInfo_t>
; Function compile flags: /Odtp /ZI
; File d:\!diffusion 2020\source code 2022\client-server\game_shared\utlmemory.h
;	COMDAT ??$Destruct@PAVCBaseEntity@@@@YAXPAPAVCBaseEntity@@@Z
_TEXT	SEGMENT
_pMemory$ = 8						; size = 4
??$Destruct@PAVCBaseEntity@@@@YAXPAPAVCBaseEntity@@@Z PROC ; Destruct<CBaseEntity *>, COMDAT

; 49   : {

	push	ebp
	mov	ebp, esp
	sub	esp, 64					; 00000040H
	push	ebx
	push	esi
	push	edi

; 50   : 	pMemory->~T();
; 51   : 
; 52   : #ifdef _DEBUG
; 53   : 	memset( pMemory, 0xDD, sizeof(T) );

	push	4
	push	221					; 000000ddH
	mov	eax, DWORD PTR _pMemory$[ebp]
	push	eax
	call	_memset
	add	esp, 12					; 0000000cH

; 54   : #endif
; 55   : }

	pop	edi
	pop	esi
	pop	ebx
	mov	esp, ebp
	pop	ebp
	ret	0
??$Destruct@PAVCBaseEntity@@@@YAXPAPAVCBaseEntity@@@Z ENDP ; Destruct<CBaseEntity *>
_TEXT	ENDS
; Function compile flags: /Odtp /ZI
; File d:\!diffusion 2020\source code 2022\client-server\game_shared\utlmemory.h
;	COMDAT ??$Destruct@UPhysicsPushedInfo_t@CPhysicsPushedEntities@@@@YAXPAUPhysicsPushedInfo_t@CPhysicsPushedEntities@@@Z
_TEXT	SEGMENT
_pMemory$ = 8						; size = 4
??$Destruct@UPhysicsPushedInfo_t@CPhysicsPushedEntities@@@@YAXPAUPhysicsPushedInfo_t@CPhysicsPushedEntities@@@Z PROC ; Destruct<CPhysicsPushedEntities::PhysicsPushedInfo_t>, COMDAT

; 49   : {

	push	ebp
	mov	ebp, esp
	sub	esp, 64					; 00000040H
	push	ebx
	push	esi
	push	edi

; 50   : 	pMemory->~T();
; 51   : 
; 52   : #ifdef _DEBUG
; 53   : 	memset( pMemory, 0xDD, sizeof(T) );

	push	76					; 0000004cH
	push	221					; 000000ddH
	mov	eax, DWORD PTR _pMemory$[ebp]
	push	eax
	call	_memset
	add	esp, 12					; 0000000cH

; 54   : #endif
; 55   : }

	pop	edi
	pop	esi
	pop	ebx
	mov	esp, ebp
	pop	ebp
	ret	0
??$Destruct@UPhysicsPushedInfo_t@CPhysicsPushedEntities@@@@YAXPAUPhysicsPushedInfo_t@CPhysicsPushedEntities@@@Z ENDP ; Destruct<CPhysicsPushedEntities::PhysicsPushedInfo_t>
_TEXT	ENDS
; Function compile flags: /Odtp /ZI
; File d:\!diffusion 2020\source code 2022\client-server\game_shared\utlmemory.h
;	COMDAT ??$Destruct@UPhysicsPusherInfo_t@CPhysicsPushedEntities@@@@YAXPAUPhysicsPusherInfo_t@CPhysicsPushedEntities@@@Z
_TEXT	SEGMENT
_pMemory$ = 8						; size = 4
??$Destruct@UPhysicsPusherInfo_t@CPhysicsPushedEntities@@@@YAXPAUPhysicsPusherInfo_t@CPhysicsPushedEntities@@@Z PROC ; Destruct<CPhysicsPushedEntities::PhysicsPusherInfo_t>, COMDAT

; 49   : {

	push	ebp
	mov	ebp, esp
	sub	esp, 64					; 00000040H
	push	ebx
	push	esi
	push	edi

; 50   : 	pMemory->~T();
; 51   : 
; 52   : #ifdef _DEBUG
; 53   : 	memset( pMemory, 0xDD, sizeof(T) );

	push	16					; 00000010H
	push	221					; 000000ddH
	mov	eax, DWORD PTR _pMemory$[ebp]
	push	eax
	call	_memset
	add	esp, 12					; 0000000cH

; 54   : #endif
; 55   : }

	pop	edi
	pop	esi
	pop	ebx
	mov	esp, ebp
	pop	ebp
	ret	0
??$Destruct@UPhysicsPusherInfo_t@CPhysicsPushedEntities@@@@YAXPAUPhysicsPusherInfo_t@CPhysicsPushedEntities@@@Z ENDP ; Destruct<CPhysicsPushedEntities::PhysicsPusherInfo_t>
_TEXT	ENDS
; Function compile flags: /Odtp /ZI
; File d:\!diffusion 2020\source code 2022\client-server\server\physics\physic.cpp
;	COMDAT ?SV_Physics_Pusher@@YAXPAVCBaseEntity@@@Z
_TEXT	SEGMENT
tv221 = -84						; size = 4
_flOldMoveTime$1 = -16					; size = 4
_flOldRotateTime$2 = -12				; size = 4
_pBlocker$ = -8						; size = 4
_movetime$ = -4						; size = 4
_pEntity$ = 8						; size = 4
?SV_Physics_Pusher@@YAXPAVCBaseEntity@@@Z PROC		; SV_Physics_Pusher, COMDAT

; 2388 : {

	push	ebp
	mov	ebp, esp
	sub	esp, 84					; 00000054H
	push	ebx
	push	esi
	push	edi

; 2389 : 	if( GET_SERVER_STATE() == SERVER_ACTIVE )

	call	DWORD PTR ?g_physfuncs@@3Userver_physics_api_s@@A+20
	cmp	eax, 2
	jne	SHORT $LN3@SV_Physics

; 2390 : 	{
; 2391 : 		// regular thinking
; 2392 : 		if( !SV_RunThink( pEntity ))

	mov	eax, DWORD PTR _pEntity$[ebp]
	push	eax
	call	?SV_RunThink@@YAHPAVCBaseEntity@@@Z	; SV_RunThink
	add	esp, 4
	test	eax, eax
	jne	SHORT $LN3@SV_Physics

; 2393 : 			return;

	jmp	$LN1@SV_Physics
$LN3@SV_Physics:

; 2394 : 	}
; 2395 : 
; 2396 : 	// enable interpolation on a bmodels (Xash3D extension)
; 2397 : //	pEntity->pev->animtime = gpGlobals->time;
; 2398 : 
; 2399 : 	float movetime = pEntity->GetMoveDoneTime();

	mov	ecx, DWORD PTR _pEntity$[ebp]
	call	?GetMoveDoneTime@CBaseEntity@@QBEMXZ	; CBaseEntity::GetMoveDoneTime
	fstp	DWORD PTR _movetime$[ebp]

; 2400 : 	if( movetime > gpGlobals->frametime )

	mov	eax, DWORD PTR ?gpGlobals@@3PAUglobalvars_t@@A ; gpGlobals
	movss	xmm0, DWORD PTR _movetime$[ebp]
	comiss	xmm0, DWORD PTR [eax+4]
	jbe	SHORT $LN4@SV_Physics

; 2401 : 		movetime = gpGlobals->frametime;

	mov	eax, DWORD PTR ?gpGlobals@@3PAUglobalvars_t@@A ; gpGlobals
	movss	xmm0, DWORD PTR [eax+4]
	movss	DWORD PTR _movetime$[ebp], xmm0
$LN4@SV_Physics:

; 2402 : 
; 2403 : 	CBaseEntity *pBlocker = NULL;

	mov	DWORD PTR _pBlocker$[ebp], 0

; 2404 : 	g_pPushedEntities->BeginPush( pEntity );

	mov	eax, DWORD PTR _pEntity$[ebp]
	push	eax
	mov	ecx, DWORD PTR ?g_pPushedEntities@@3PAVCPhysicsPushedEntities@@A ; g_pPushedEntities
	call	?BeginPush@CPhysicsPushedEntities@@QAEXPAVCBaseEntity@@@Z ; CPhysicsPushedEntities::BeginPush

; 2405 : 
; 2406 : 	if( movetime > 0 )

	movss	xmm0, DWORD PTR _movetime$[ebp]
	comiss	xmm0, DWORD PTR __real@00000000
	jbe	$LN5@SV_Physics

; 2407 : 	{
; 2408 : 		if( pEntity->GetLocalAvelocity() != g_vecZero )

	push	OFFSET ?g_vecZero@@3VVector@@B		; g_vecZero
	mov	ecx, DWORD PTR _pEntity$[ebp]
	call	?GetLocalAvelocity@CBaseEntity@@QBEABVVector@@XZ ; CBaseEntity::GetLocalAvelocity
	mov	ecx, eax
	call	??9Vector@@QBEHABV0@@Z			; Vector::operator!=
	test	eax, eax
	je	$LN6@SV_Physics

; 2409 : 		{
; 2410 : 			if( pEntity->GetLocalVelocity() != g_vecZero )

	push	OFFSET ?g_vecZero@@3VVector@@B		; g_vecZero
	mov	ecx, DWORD PTR _pEntity$[ebp]
	call	?GetLocalVelocity@CBaseEntity@@QBEABVVector@@XZ ; CBaseEntity::GetLocalVelocity
	mov	ecx, eax
	call	??9Vector@@QBEHABV0@@Z			; Vector::operator!=
	test	eax, eax
	je	$LN8@SV_Physics

; 2411 : 			{
; 2412 : 				float flOldRotateTime = pEntity->GetLocalTime();

	mov	ecx, DWORD PTR _pEntity$[ebp]
	call	?GetLocalTime@CBaseEntity@@QBEMXZ	; CBaseEntity::GetLocalTime
	fstp	DWORD PTR _flOldRotateTime$2[ebp]

; 2413 : 
; 2414 : 				pBlocker = SV_PushRotate( pEntity, movetime );

	push	ecx
	movss	xmm0, DWORD PTR _movetime$[ebp]
	movss	DWORD PTR [esp], xmm0
	mov	eax, DWORD PTR _pEntity$[ebp]
	push	eax
	call	?SV_PushRotate@@YAPAVCBaseEntity@@PAV1@M@Z ; SV_PushRotate
	add	esp, 8
	mov	DWORD PTR _pBlocker$[ebp], eax

; 2415 : 
; 2416 : 				if( !pBlocker )

	cmp	DWORD PTR _pBlocker$[ebp], 0
	jne	SHORT $LN11@SV_Physics

; 2417 : 				{
; 2418 : 					float flOldMoveTime = pEntity->GetLocalTime();

	mov	ecx, DWORD PTR _pEntity$[ebp]
	call	?GetLocalTime@CBaseEntity@@QBEMXZ	; CBaseEntity::GetLocalTime
	fstp	DWORD PTR _flOldMoveTime$1[ebp]

; 2419 : 
; 2420 : 					// reset the local time to what it was before we rotated
; 2421 : 					pEntity->pev->ltime = flOldRotateTime;

	mov	eax, DWORD PTR _pEntity$[ebp]
	mov	ecx, DWORD PTR [eax+4]
	movss	xmm0, DWORD PTR _flOldRotateTime$2[ebp]
	movss	DWORD PTR [ecx+256], xmm0

; 2422 : 					pBlocker = SV_PushMove( pEntity, movetime );

	push	ecx
	movss	xmm0, DWORD PTR _movetime$[ebp]
	movss	DWORD PTR [esp], xmm0
	mov	eax, DWORD PTR _pEntity$[ebp]
	push	eax
	call	?SV_PushMove@@YAPAVCBaseEntity@@PAV1@M@Z ; SV_PushMove
	add	esp, 8
	mov	DWORD PTR _pBlocker$[ebp], eax

; 2423 : 					if( pEntity->pev->ltime < flOldMoveTime )

	mov	eax, DWORD PTR _pEntity$[ebp]
	mov	ecx, DWORD PTR [eax+4]
	movss	xmm0, DWORD PTR _flOldMoveTime$1[ebp]
	comiss	xmm0, DWORD PTR [ecx+256]
	jbe	SHORT $LN11@SV_Physics

; 2424 : 						pEntity->pev->ltime = flOldMoveTime;

	mov	eax, DWORD PTR _pEntity$[ebp]
	mov	ecx, DWORD PTR [eax+4]
	movss	xmm0, DWORD PTR _flOldMoveTime$1[ebp]
	movss	DWORD PTR [ecx+256], xmm0
$LN11@SV_Physics:

; 2425 : 				}
; 2426 : 			}
; 2427 : 			else

	jmp	SHORT $LN9@SV_Physics
$LN8@SV_Physics:

; 2428 : 			{
; 2429 : 				pBlocker = SV_PushRotate( pEntity, movetime );

	push	ecx
	movss	xmm0, DWORD PTR _movetime$[ebp]
	movss	DWORD PTR [esp], xmm0
	mov	eax, DWORD PTR _pEntity$[ebp]
	push	eax
	call	?SV_PushRotate@@YAPAVCBaseEntity@@PAV1@M@Z ; SV_PushRotate
	add	esp, 8
	mov	DWORD PTR _pBlocker$[ebp], eax
$LN9@SV_Physics:

; 2430 : 			}
; 2431 : 		}
; 2432 : 		else 

	jmp	SHORT $LN7@SV_Physics
$LN6@SV_Physics:

; 2433 : 		{
; 2434 : 			pBlocker = SV_PushMove( pEntity, movetime );

	push	ecx
	movss	xmm0, DWORD PTR _movetime$[ebp]
	movss	DWORD PTR [esp], xmm0
	mov	eax, DWORD PTR _pEntity$[ebp]
	push	eax
	call	?SV_PushMove@@YAPAVCBaseEntity@@PAV1@M@Z ; SV_PushMove
	add	esp, 8
	mov	DWORD PTR _pBlocker$[ebp], eax
$LN7@SV_Physics:

; 2435 : 		}
; 2436 : 
; 2437 : 		// update physics shadow for root pushers
; 2438 : 		WorldPhysic->MoveKinematic( pEntity );

	mov	eax, DWORD PTR _pEntity$[ebp]
	push	eax
	mov	ecx, DWORD PTR ?WorldPhysic@@3PAVIPhysicLayer@@A ; WorldPhysic
	mov	edx, DWORD PTR [ecx]
	mov	ecx, DWORD PTR ?WorldPhysic@@3PAVIPhysicLayer@@A ; WorldPhysic
	mov	eax, DWORD PTR [edx+148]
	call	eax
$LN5@SV_Physics:

; 2439 : 	}
; 2440 : 
; 2441 : 	// if the pusher has a "blocked" function, call it
; 2442 : 	// otherwise, just stay in place until the obstacle is gone
; 2443 : 	if( pBlocker ) DispatchBlocked( pEntity->edict(), pBlocker->edict() );

	cmp	DWORD PTR _pBlocker$[ebp], 0
	je	SHORT $LN12@SV_Physics
	mov	ecx, DWORD PTR _pBlocker$[ebp]
	call	?edict@CBaseEntity@@QAEPAUedict_s@@XZ	; CBaseEntity::edict
	push	eax
	mov	ecx, DWORD PTR _pEntity$[ebp]
	call	?edict@CBaseEntity@@QAEPAUedict_s@@XZ	; CBaseEntity::edict
	push	eax
	call	?DispatchBlocked@@YAXPAUedict_s@@0@Z	; DispatchBlocked
	add	esp, 8
$LN12@SV_Physics:

; 2444 : 
; 2445 : 	// NOTE: all the entities with MOVETYPE_PUSH now has two seperated thinks:
; 2446 : 	// normal regular thinking and local think (movedone)
; 2447 : 	if( pEntity->m_flMoveDoneTime <= pEntity->GetLocalTime() && pEntity->m_flMoveDoneTime > 0 )

	mov	ecx, DWORD PTR _pEntity$[ebp]
	call	?GetLocalTime@CBaseEntity@@QBEMXZ	; CBaseEntity::GetLocalTime
	fstp	DWORD PTR tv221[ebp]
	movss	xmm0, DWORD PTR tv221[ebp]
	mov	eax, DWORD PTR _pEntity$[ebp]
	comiss	xmm0, DWORD PTR [eax+52]
	jb	SHORT $LN13@SV_Physics
	mov	eax, DWORD PTR _pEntity$[ebp]
	movss	xmm0, DWORD PTR [eax+52]
	comiss	xmm0, DWORD PTR __real@00000000
	jbe	SHORT $LN13@SV_Physics

; 2448 : 	{
; 2449 : 		pEntity->SetMoveDoneTime( -1 );

	push	ecx
	movss	xmm0, DWORD PTR __real@bf800000
	movss	DWORD PTR [esp], xmm0
	mov	ecx, DWORD PTR _pEntity$[ebp]
	call	?SetMoveDoneTime@CBaseEntity@@QAEXM@Z	; CBaseEntity::SetMoveDoneTime

; 2450 : 		pEntity->MoveDone();

	mov	eax, DWORD PTR _pEntity$[ebp]
	mov	edx, DWORD PTR [eax]
	mov	ecx, DWORD PTR _pEntity$[ebp]
	mov	eax, DWORD PTR [edx+320]
	call	eax
$LN13@SV_Physics:
$LN1@SV_Physics:

; 2451 : 	}
; 2452 : }

	pop	edi
	pop	esi
	pop	ebx
	mov	esp, ebp
	pop	ebp
	ret	0
?SV_Physics_Pusher@@YAXPAVCBaseEntity@@@Z ENDP		; SV_Physics_Pusher
_TEXT	ENDS
; Function compile flags: /Odtp /ZI
; File d:\!diffusion 2020\source code 2022\client-server\server\physics\physic.cpp
;	COMDAT ?SV_PushRotate@@YAPAVCBaseEntity@@PAV1@M@Z
_TEXT	SEGMENT
_pBlocker$ = -4						; size = 4
_pPusher$ = 8						; size = 4
_movetime$ = 12						; size = 4
?SV_PushRotate@@YAPAVCBaseEntity@@PAV1@M@Z PROC		; SV_PushRotate, COMDAT

; 2366 : {

	push	ebp
	mov	ebp, esp
	sub	esp, 68					; 00000044H
	push	ebx
	push	esi
	push	edi

; 2367 : 	// if this entity isn't moving, just update the time.
; 2368 : 	pPusher->IncrementLocalTime( movetime );

	push	ecx
	movss	xmm0, DWORD PTR _movetime$[ebp]
	movss	DWORD PTR [esp], xmm0
	mov	ecx, DWORD PTR _pPusher$[ebp]
	call	?IncrementLocalTime@CBaseEntity@@QAEXM@Z ; CBaseEntity::IncrementLocalTime

; 2369 : 
; 2370 : 	// not rotating (while changelevel tracktrain may potentially moving on a frame forward)
; 2371 : 	if( pPusher->GetLocalAvelocity() == g_vecZero || gpGlobals->changelevel )

	push	OFFSET ?g_vecZero@@3VVector@@B		; g_vecZero
	mov	ecx, DWORD PTR _pPusher$[ebp]
	call	?GetLocalAvelocity@CBaseEntity@@QBEABVVector@@XZ ; CBaseEntity::GetLocalAvelocity
	mov	ecx, eax
	call	??8Vector@@QBEHABV0@@Z			; Vector::operator==
	test	eax, eax
	jne	SHORT $LN3@SV_PushRot
	mov	eax, DWORD PTR ?gpGlobals@@3PAUglobalvars_t@@A ; gpGlobals
	cmp	DWORD PTR [eax+136], 0
	je	SHORT $LN2@SV_PushRot
$LN3@SV_PushRot:

; 2372 : 		return NULL;

	xor	eax, eax
	jmp	SHORT $LN1@SV_PushRot
$LN2@SV_PushRot:

; 2373 : 
; 2374 : 	// now check that the entire hierarchy can rotate into the new location
; 2375 : 	CBaseEntity *pBlocker = g_pPushedEntities->PerformRotatePush( pPusher, movetime );

	push	ecx
	movss	xmm0, DWORD PTR _movetime$[ebp]
	movss	DWORD PTR [esp], xmm0
	mov	eax, DWORD PTR _pPusher$[ebp]
	push	eax
	mov	ecx, DWORD PTR ?g_pPushedEntities@@3PAVCPhysicsPushedEntities@@A ; g_pPushedEntities
	call	?PerformRotatePush@CPhysicsPushedEntities@@QAEPAVCBaseEntity@@PAV2@M@Z ; CPhysicsPushedEntities::PerformRotatePush
	mov	DWORD PTR _pBlocker$[ebp], eax

; 2376 : 	if( pBlocker ) pPusher->IncrementLocalTime( -movetime );

	cmp	DWORD PTR _pBlocker$[ebp], 0
	je	SHORT $LN4@SV_PushRot
	movss	xmm0, DWORD PTR _movetime$[ebp]
	xorps	xmm0, DWORD PTR __xmm@80000000800000008000000080000000
	push	ecx
	movss	DWORD PTR [esp], xmm0
	mov	ecx, DWORD PTR _pPusher$[ebp]
	call	?IncrementLocalTime@CBaseEntity@@QAEXM@Z ; CBaseEntity::IncrementLocalTime
$LN4@SV_PushRot:

; 2377 : 
; 2378 : 	return pBlocker;

	mov	eax, DWORD PTR _pBlocker$[ebp]
$LN1@SV_PushRot:

; 2379 : }

	pop	edi
	pop	esi
	pop	ebx
	mov	esp, ebp
	pop	ebp
	ret	0
?SV_PushRotate@@YAPAVCBaseEntity@@PAV1@M@Z ENDP		; SV_PushRotate
_TEXT	ENDS
; Function compile flags: /Odtp /ZI
; File d:\!diffusion 2020\source code 2022\client-server\server\physics\physic.cpp
;	COMDAT ?SV_PushMove@@YAPAVCBaseEntity@@PAV1@M@Z
_TEXT	SEGMENT
_pBlocker$ = -4						; size = 4
_pPusher$ = 8						; size = 4
_movetime$ = 12						; size = 4
?SV_PushMove@@YAPAVCBaseEntity@@PAV1@M@Z PROC		; SV_PushMove, COMDAT

; 2344 : {

	push	ebp
	mov	ebp, esp
	sub	esp, 68					; 00000044H
	push	ebx
	push	esi
	push	edi

; 2345 : 	// if this entity isn't moving, just update the time.
; 2346 : 	pPusher->IncrementLocalTime( movetime );

	push	ecx
	movss	xmm0, DWORD PTR _movetime$[ebp]
	movss	DWORD PTR [esp], xmm0
	mov	ecx, DWORD PTR _pPusher$[ebp]
	call	?IncrementLocalTime@CBaseEntity@@QAEXM@Z ; CBaseEntity::IncrementLocalTime

; 2347 : 
; 2348 : 	// not moving (while changelevel tracktrain may potentially moving on a frame forward)
; 2349 : 	if( pPusher->GetLocalVelocity() == g_vecZero || gpGlobals->changelevel )

	push	OFFSET ?g_vecZero@@3VVector@@B		; g_vecZero
	mov	ecx, DWORD PTR _pPusher$[ebp]
	call	?GetLocalVelocity@CBaseEntity@@QBEABVVector@@XZ ; CBaseEntity::GetLocalVelocity
	mov	ecx, eax
	call	??8Vector@@QBEHABV0@@Z			; Vector::operator==
	test	eax, eax
	jne	SHORT $LN3@SV_PushMov
	mov	eax, DWORD PTR ?gpGlobals@@3PAUglobalvars_t@@A ; gpGlobals
	cmp	DWORD PTR [eax+136], 0
	je	SHORT $LN2@SV_PushMov
$LN3@SV_PushMov:

; 2350 : 		return NULL;

	xor	eax, eax
	jmp	SHORT $LN1@SV_PushMov
$LN2@SV_PushMov:

; 2351 : 
; 2352 : 	// now check that the entire hierarchy can move into the new location
; 2353 : 	CBaseEntity *pBlocker = g_pPushedEntities->PerformLinearPush( pPusher, movetime );

	push	ecx
	movss	xmm0, DWORD PTR _movetime$[ebp]
	movss	DWORD PTR [esp], xmm0
	mov	eax, DWORD PTR _pPusher$[ebp]
	push	eax
	mov	ecx, DWORD PTR ?g_pPushedEntities@@3PAVCPhysicsPushedEntities@@A ; g_pPushedEntities
	call	?PerformLinearPush@CPhysicsPushedEntities@@QAEPAVCBaseEntity@@PAV2@M@Z ; CPhysicsPushedEntities::PerformLinearPush
	mov	DWORD PTR _pBlocker$[ebp], eax

; 2354 : 	if( pBlocker ) pPusher->IncrementLocalTime( -movetime );

	cmp	DWORD PTR _pBlocker$[ebp], 0
	je	SHORT $LN4@SV_PushMov
	movss	xmm0, DWORD PTR _movetime$[ebp]
	xorps	xmm0, DWORD PTR __xmm@80000000800000008000000080000000
	push	ecx
	movss	DWORD PTR [esp], xmm0
	mov	ecx, DWORD PTR _pPusher$[ebp]
	call	?IncrementLocalTime@CBaseEntity@@QAEXM@Z ; CBaseEntity::IncrementLocalTime
$LN4@SV_PushMov:

; 2355 : 
; 2356 : 	return pBlocker;

	mov	eax, DWORD PTR _pBlocker$[ebp]
$LN1@SV_PushMov:

; 2357 : }

	pop	edi
	pop	esi
	pop	ebx
	mov	esp, ebp
	pop	ebp
	ret	0
?SV_PushMove@@YAPAVCBaseEntity@@PAV1@M@Z ENDP		; SV_PushMove
_TEXT	ENDS
; Function compile flags: /Odtp /ZI
; File d:\!diffusion 2020\source code 2022\client-server\server\physics\physic.cpp
;	COMDAT ?SV_Physics_Step@@YAXPAVCBaseEntity@@@Z
_TEXT	SEGMENT
tv1147 = -540						; size = 4
tv1141 = -540						; size = 4
tv1145 = -536						; size = 4
tv1139 = -536						; size = 4
tv1143 = -532						; size = 4
tv1137 = -532						; size = 4
tv1135 = -532						; size = 4
tv1133 = -532						; size = 4
tv1131 = -532						; size = 4
tv822 = -532						; size = 4
tv685 = -532						; size = 4
tv529 = -532						; size = 4
tv527 = -532						; size = 4
tv240 = -532						; size = 4
$T1 = -528						; size = 56
$T2 = -472						; size = 56
$T3 = -400						; size = 12
_i$4 = -324						; size = 4
_blocked$5 = -320					; size = 4
_lmove$6 = -316						; size = 12
_vecAbsMaxs$7 = -304					; size = 12
_vecAbsMins$8 = -292					; size = 12
_y$9 = -280						; size = 4
_x$10 = -276						; size = 4
_point$11 = -272					; size = 12
_maxs$12 = -260						; size = 12
_mins$13 = -248						; size = 12
_move$14 = -236						; size = 4
_vel$15 = -232						; size = 12
_uporg$16 = -220					; size = 12
_downdist$17 = -208					; size = 4
_updist$18 = -204					; size = 4
_downvel$19 = -200					; size = 12
_downorg$20 = -188					; size = 12
_dest$21 = -176						; size = 12
_lastvel$22 = -164					; size = 12
_lastorg$23 = -152					; size = 12
_friction$24 = -140					; size = 4
_newspeed$25 = -136					; size = 4
_speed$26 = -132					; size = 4
_control$27 = -128					; size = 4
_vel$28 = -124						; size = 12
_pGround$ = -112					; size = 4
_vecAbsVelocity$29 = -108				; size = 12
_buoyancy$30 = -96					; size = 4
_game_stopspeed$ = -92					; size = 4
_game_friction$ = -88					; size = 4
_oldAbsOrigin$ = -84					; size = 12
_trace$ = -72						; size = 56
_ent$ = -16						; size = 4
_wasonground$ = -12					; size = 4
_wasonmover$ = -8					; size = 4
_inwater$ = -4						; size = 4
_pEntity$ = 8						; size = 4
?SV_Physics_Step@@YAXPAVCBaseEntity@@@Z PROC		; SV_Physics_Step, COMDAT

; 2076 : {

	push	ebp
	mov	ebp, esp
	sub	esp, 540				; 0000021cH
	push	ebx
	push	esi
	push	edi

; 2077 : 	BOOL	inwater;
; 2078 : 	BOOL	wasonmover;
; 2079 : 	BOOL	wasonground;
; 2080 : 	edict_t	*ent = pEntity->edict();

	mov	ecx, DWORD PTR _pEntity$[ebp]
	call	?edict@CBaseEntity@@QAEPAUedict_s@@XZ	; CBaseEntity::edict
	mov	DWORD PTR _ent$[ebp], eax

; 2081 : 	TraceResult trace;

	lea	ecx, DWORD PTR _trace$[ebp]
	call	??0gametrace_s@@QAE@XZ

; 2082 : 
; 2083 : 	Vector oldAbsOrigin = pEntity->GetAbsOrigin();

	mov	ecx, DWORD PTR _pEntity$[ebp]
	call	?GetAbsOrigin@CBaseEntity@@QBEABVVector@@XZ ; CBaseEntity::GetAbsOrigin
	push	eax
	lea	ecx, DWORD PTR _oldAbsOrigin$[ebp]
	call	??0Vector@@QAE@ABV0@@Z			; Vector::Vector

; 2084 : 
; 2085 : 	UTIL_WaterMove( pEntity );

	mov	eax, DWORD PTR _pEntity$[ebp]
	push	eax
	call	?UTIL_WaterMove@@YAXPAVCBaseEntity@@@Z	; UTIL_WaterMove
	add	esp, 4

; 2086 : 	SV_CheckVelocity( pEntity );

	mov	eax, DWORD PTR _pEntity$[ebp]
	push	eax
	call	?SV_CheckVelocity@@YAXPAVCBaseEntity@@@Z ; SV_CheckVelocity
	add	esp, 4

; 2087 : 
; 2088 : 	wasonground = (pEntity->pev->flags & FL_ONGROUND);

	mov	eax, DWORD PTR _pEntity$[ebp]
	mov	ecx, DWORD PTR [eax+4]
	mov	edx, DWORD PTR [ecx+420]
	and	edx, 512				; 00000200H
	mov	DWORD PTR _wasonground$[ebp], edx

; 2089 : 	wasonmover = SV_CheckMover( pEntity );

	mov	eax, DWORD PTR _pEntity$[ebp]
	push	eax
	call	?SV_CheckMover@@YAHPAVCBaseEntity@@@Z	; SV_CheckMover
	add	esp, 4
	mov	DWORD PTR _wasonmover$[ebp], eax

; 2090 : 	inwater = SV_CheckWater( pEntity );

	mov	eax, DWORD PTR _pEntity$[ebp]
	push	eax
	call	?SV_CheckWater@@YAHPAVCBaseEntity@@@Z	; SV_CheckWater
	add	esp, 4
	mov	DWORD PTR _inwater$[ebp], eax

; 2091 : 
; 2092 : 	float game_friction = CVAR_GET_FLOAT( "sv_friction" );

	push	OFFSET ??_C@_0M@CKLNABFC@sv_friction?$AA@
	call	DWORD PTR ?g_engfuncs@@3Uenginefuncs_s@@A+228
	add	esp, 4
	fstp	DWORD PTR _game_friction$[ebp]

; 2093 : 	float game_stopspeed = CVAR_GET_FLOAT( "sv_stopspeed" );

	push	OFFSET ??_C@_0N@LFAHFFEG@sv_stopspeed?$AA@
	call	DWORD PTR ?g_engfuncs@@3Uenginefuncs_s@@A+228
	add	esp, 4
	fstp	DWORD PTR _game_stopspeed$[ebp]

; 2094 : 
; 2095 : 	if( pEntity->pev->flags & FL_FLOAT && pEntity->pev->waterlevel > 0 && pEntity->m_hParent == NULL )

	mov	eax, DWORD PTR _pEntity$[ebp]
	mov	ecx, DWORD PTR [eax+4]
	mov	edx, DWORD PTR [ecx+420]
	and	edx, 32768				; 00008000H
	je	$LN11@SV_Physics
	mov	eax, DWORD PTR _pEntity$[ebp]
	mov	ecx, DWORD PTR [eax+4]
	cmp	DWORD PTR [ecx+448], 0
	jle	$LN11@SV_Physics
	mov	ecx, DWORD PTR _pEntity$[ebp]
	add	ecx, 160				; 000000a0H
	call	??BEHANDLE@@QAEHXZ			; EHANDLE::operator int
	test	eax, eax
	jne	SHORT $LN11@SV_Physics

; 2096 : 	{
; 2097 : 		float buoyancy = SV_Submerged( pEntity ) * pEntity->pev->skin * gpGlobals->frametime;

	mov	eax, DWORD PTR _pEntity$[ebp]
	push	eax
	call	?SV_Submerged@@YAMPAVCBaseEntity@@@Z	; SV_Submerged
	add	esp, 4
	fstp	DWORD PTR tv822[ebp]
	movss	xmm0, DWORD PTR tv822[ebp]
	mov	ecx, DWORD PTR _pEntity$[ebp]
	mov	edx, DWORD PTR [ecx+4]
	cvtsi2ss xmm1, DWORD PTR [edx+272]
	mulss	xmm0, xmm1
	mov	eax, DWORD PTR ?gpGlobals@@3PAUglobalvars_t@@A ; gpGlobals
	mulss	xmm0, DWORD PTR [eax+4]
	movss	DWORD PTR _buoyancy$30[ebp], xmm0

; 2098 : 
; 2099 : 		SV_AddGravity( pEntity );

	mov	eax, DWORD PTR _pEntity$[ebp]
	push	eax
	call	?SV_AddGravity@@YAXPAVCBaseEntity@@@Z	; SV_AddGravity
	add	esp, 4

; 2100 : 
; 2101 : 		// add buoyancy
; 2102 : 		Vector vecAbsVelocity = pEntity->GetAbsVelocity();

	mov	ecx, DWORD PTR _pEntity$[ebp]
	call	?GetAbsVelocity@CBaseEntity@@QBEABVVector@@XZ ; CBaseEntity::GetAbsVelocity
	push	eax
	lea	ecx, DWORD PTR _vecAbsVelocity$29[ebp]
	call	??0Vector@@QAE@ABV0@@Z			; Vector::Vector

; 2103 : 		vecAbsVelocity.z += buoyancy;

	movss	xmm0, DWORD PTR _vecAbsVelocity$29[ebp+8]
	addss	xmm0, DWORD PTR _buoyancy$30[ebp]
	movss	DWORD PTR _vecAbsVelocity$29[ebp+8], xmm0

; 2104 : 		pEntity->SetAbsVelocity( vecAbsVelocity );

	lea	eax, DWORD PTR _vecAbsVelocity$29[ebp]
	push	eax
	mov	ecx, DWORD PTR _pEntity$[ebp]
	call	?SetAbsVelocity@CBaseEntity@@QAEXABVVector@@@Z ; CBaseEntity::SetAbsVelocity
$LN11@SV_Physics:

; 2105 : 	}
; 2106 : 
; 2107 : 	if( !wasonground && !( pEntity->pev->flags & FL_FLY ) && (!( pEntity->pev->flags & FL_SWIM ) || pEntity->pev->waterlevel <= 0 ))

	cmp	DWORD PTR _wasonground$[ebp], 0
	jne	SHORT $LN14@SV_Physics
	mov	eax, DWORD PTR _pEntity$[ebp]
	mov	ecx, DWORD PTR [eax+4]
	mov	edx, DWORD PTR [ecx+420]
	and	edx, 1
	jne	SHORT $LN14@SV_Physics
	mov	eax, DWORD PTR _pEntity$[ebp]
	mov	ecx, DWORD PTR [eax+4]
	mov	edx, DWORD PTR [ecx+420]
	and	edx, 2
	je	SHORT $LN13@SV_Physics
	mov	eax, DWORD PTR _pEntity$[ebp]
	mov	ecx, DWORD PTR [eax+4]
	cmp	DWORD PTR [ecx+448], 0
	jg	SHORT $LN14@SV_Physics
$LN13@SV_Physics:

; 2108 : 	{
; 2109 : 		// compound link, so we ignore gravity here
; 2110 : 		if( !inwater && pEntity->m_hParent == NULL )

	cmp	DWORD PTR _inwater$[ebp], 0
	jne	SHORT $LN14@SV_Physics
	mov	ecx, DWORD PTR _pEntity$[ebp]
	add	ecx, 160				; 000000a0H
	call	??BEHANDLE@@QAEHXZ			; EHANDLE::operator int
	test	eax, eax
	jne	SHORT $LN14@SV_Physics

; 2111 : 			SV_AddGravity( pEntity );

	mov	eax, DWORD PTR _pEntity$[ebp]
	push	eax
	call	?SV_AddGravity@@YAXPAVCBaseEntity@@@Z	; SV_AddGravity
	add	esp, 4
$LN14@SV_Physics:

; 2112 : 	}
; 2113 : 
; 2114 : 	if( pEntity->m_hParent != NULL )

	mov	ecx, DWORD PTR _pEntity$[ebp]
	add	ecx, 160				; 000000a0H
	call	??BEHANDLE@@QAEHXZ			; EHANDLE::operator int
	test	eax, eax
	je	SHORT $LN15@SV_Physics

; 2115 : 		pEntity->SetAbsVelocity( g_vecZero );

	push	OFFSET ?g_vecZero@@3VVector@@B		; g_vecZero
	mov	ecx, DWORD PTR _pEntity$[ebp]
	call	?SetAbsVelocity@CBaseEntity@@QAEXABVVector@@@Z ; CBaseEntity::SetAbsVelocity
$LN15@SV_Physics:

; 2116 : 
; 2117 : 	CBaseEntity *pGround = pEntity->GetGroundEntity();

	mov	ecx, DWORD PTR _pEntity$[ebp]
	call	?GetGroundEntity@CBaseEntity@@QAEPAV1@XZ ; CBaseEntity::GetGroundEntity
	mov	DWORD PTR _pGround$[ebp], eax

; 2118 : 
; 2119 : 	if( !pGround || (pGround->pev->flags & ( FL_MONSTER|FL_CLIENT )))

	cmp	DWORD PTR _pGround$[ebp], 0
	je	SHORT $LN17@SV_Physics
	mov	eax, DWORD PTR _pGround$[ebp]
	mov	ecx, DWORD PTR [eax+4]
	mov	edx, DWORD PTR [ecx+420]
	and	edx, 40					; 00000028H
	je	SHORT $LN16@SV_Physics
$LN17@SV_Physics:

; 2120 : 		pEntity->pev->flags &= ~FL_ONGROUND;

	mov	eax, DWORD PTR _pEntity$[ebp]
	mov	ecx, DWORD PTR [eax+4]
	mov	edx, DWORD PTR [ecx+420]
	and	edx, -513				; fffffdffH
	mov	eax, DWORD PTR _pEntity$[ebp]
	mov	ecx, DWORD PTR [eax+4]
	mov	DWORD PTR [ecx+420], edx
$LN16@SV_Physics:

; 2121 : 
; 2122 : 	if( pEntity->GetAbsVelocity() != g_vecZero || pEntity->GetBaseVelocity() != g_vecZero )

	push	OFFSET ?g_vecZero@@3VVector@@B		; g_vecZero
	mov	ecx, DWORD PTR _pEntity$[ebp]
	call	?GetAbsVelocity@CBaseEntity@@QBEABVVector@@XZ ; CBaseEntity::GetAbsVelocity
	mov	ecx, eax
	call	??9Vector@@QBEHABV0@@Z			; Vector::operator!=
	test	eax, eax
	jne	SHORT $LN20@SV_Physics
	push	OFFSET ?g_vecZero@@3VVector@@B		; g_vecZero
	mov	ecx, DWORD PTR _pEntity$[ebp]
	call	?GetBaseVelocity@CBaseEntity@@QBEABVVector@@XZ ; CBaseEntity::GetBaseVelocity
	mov	ecx, eax
	call	??9Vector@@QBEHABV0@@Z			; Vector::operator!=
	test	eax, eax
	je	$LN18@SV_Physics
$LN20@SV_Physics:

; 2123 : 	{
; 2124 : 		pEntity->pev->flags &= ~FL_ONGROUND;

	mov	eax, DWORD PTR _pEntity$[ebp]
	mov	ecx, DWORD PTR [eax+4]
	mov	edx, DWORD PTR [ecx+420]
	and	edx, -513				; fffffdffH
	mov	eax, DWORD PTR _pEntity$[ebp]
	mov	ecx, DWORD PTR [eax+4]
	mov	DWORD PTR [ecx+420], edx

; 2125 : 
; 2126 : 		if(( wasonground || wasonmover ) && ( pEntity->pev->health > 0 || ENT_IS_ON_FLOOR( pEntity->edict() )))

	cmp	DWORD PTR _wasonground$[ebp], 0
	jne	SHORT $LN22@SV_Physics
	cmp	DWORD PTR _wasonmover$[ebp], 0
	je	$LN24@SV_Physics
$LN22@SV_Physics:
	mov	eax, DWORD PTR _pEntity$[ebp]
	mov	ecx, DWORD PTR [eax+4]
	movss	xmm0, DWORD PTR [ecx+352]
	comiss	xmm0, DWORD PTR __real@00000000
	ja	SHORT $LN23@SV_Physics
	mov	ecx, DWORD PTR _pEntity$[ebp]
	call	?edict@CBaseEntity@@QAEPAUedict_s@@XZ	; CBaseEntity::edict
	push	eax
	call	DWORD PTR ?g_engfuncs@@3Uenginefuncs_s@@A+100
	add	esp, 4
	test	eax, eax
	je	$LN24@SV_Physics
$LN23@SV_Physics:

; 2127 : 		{
; 2128 : 			Vector	vel = pEntity->GetAbsVelocity();

	mov	ecx, DWORD PTR _pEntity$[ebp]
	call	?GetAbsVelocity@CBaseEntity@@QBEABVVector@@XZ ; CBaseEntity::GetAbsVelocity
	push	eax
	lea	ecx, DWORD PTR _vel$28[ebp]
	call	??0Vector@@QAE@ABV0@@Z			; Vector::Vector

; 2129 : 			float	control, speed, newspeed;
; 2130 : 			float	friction;
; 2131 : 
; 2132 : 			speed = sqrt(( vel[0] * vel[0] ) + ( vel[1] * vel[1] ));	// DotProduct2D

	lea	ecx, DWORD PTR _vel$28[ebp]
	call	??BVector@@QAEPAMXZ			; Vector::operator float *
	mov	esi, eax
	mov	eax, 4
	imul	edi, eax, 0
	lea	ecx, DWORD PTR _vel$28[ebp]
	call	??BVector@@QAEPAMXZ			; Vector::operator float *
	mov	ecx, 4
	imul	edx, ecx, 0
	movss	xmm0, DWORD PTR [esi+edi]
	mulss	xmm0, DWORD PTR [eax+edx]
	lea	ecx, DWORD PTR _vel$28[ebp]
	movss	DWORD PTR tv1131[ebp], xmm0
	call	??BVector@@QAEPAMXZ			; Vector::operator float *
	mov	esi, eax
	mov	edi, 4
	shl	edi, 0
	lea	ecx, DWORD PTR _vel$28[ebp]
	call	??BVector@@QAEPAMXZ			; Vector::operator float *
	mov	ecx, 4
	shl	ecx, 0
	movss	xmm0, DWORD PTR [esi+edi]
	mulss	xmm0, DWORD PTR [eax+ecx]
	movss	xmm1, DWORD PTR tv1131[ebp]
	addss	xmm1, xmm0
	push	ecx
	movss	DWORD PTR [esp], xmm1
	call	?sqrt@@YAMM@Z				; sqrt
	add	esp, 4
	fstp	DWORD PTR _speed$26[ebp]

; 2133 : 
; 2134 : 			if( speed )

	movss	xmm0, DWORD PTR _speed$26[ebp]
	ucomiss	xmm0, DWORD PTR __real@00000000
	lahf
	test	ah, 68					; 00000044H
	jnp	$LN24@SV_Physics

; 2135 : 			{
; 2136 : 				friction = game_friction * pEntity->pev->friction;	// factor

	mov	eax, DWORD PTR _pEntity$[ebp]
	mov	ecx, DWORD PTR [eax+4]
	movss	xmm0, DWORD PTR _game_friction$[ebp]
	mulss	xmm0, DWORD PTR [ecx+288]
	movss	DWORD PTR _friction$24[ebp], xmm0

; 2137 : 				pEntity->pev->friction = 1.0f; // g-cont. ???

	mov	eax, DWORD PTR _pEntity$[ebp]
	mov	ecx, DWORD PTR [eax+4]
	movss	xmm0, DWORD PTR __real@3f800000
	movss	DWORD PTR [ecx+288], xmm0

; 2138 : 				if( wasonmover ) friction *= 0.5f;

	cmp	DWORD PTR _wasonmover$[ebp], 0
	je	SHORT $LN25@SV_Physics
	movss	xmm0, DWORD PTR _friction$24[ebp]
	mulss	xmm0, DWORD PTR __real@3f000000
	movss	DWORD PTR _friction$24[ebp], xmm0
$LN25@SV_Physics:

; 2139 : 
; 2140 : 				control = (speed < game_stopspeed) ? game_stopspeed : speed;

	movss	xmm0, DWORD PTR _game_stopspeed$[ebp]
	comiss	xmm0, DWORD PTR _speed$26[ebp]
	jbe	SHORT $LN54@SV_Physics
	movss	xmm0, DWORD PTR _game_stopspeed$[ebp]
	movss	DWORD PTR tv240[ebp], xmm0
	jmp	SHORT $LN55@SV_Physics
$LN54@SV_Physics:
	movss	xmm0, DWORD PTR _speed$26[ebp]
	movss	DWORD PTR tv240[ebp], xmm0
$LN55@SV_Physics:
	movss	xmm0, DWORD PTR tv240[ebp]
	movss	DWORD PTR _control$27[ebp], xmm0

; 2141 : 				newspeed = speed - (gpGlobals->frametime * control * friction);

	mov	eax, DWORD PTR ?gpGlobals@@3PAUglobalvars_t@@A ; gpGlobals
	movss	xmm0, DWORD PTR [eax+4]
	mulss	xmm0, DWORD PTR _control$27[ebp]
	mulss	xmm0, DWORD PTR _friction$24[ebp]
	movss	xmm1, DWORD PTR _speed$26[ebp]
	subss	xmm1, xmm0
	movss	DWORD PTR _newspeed$25[ebp], xmm1

; 2142 : 
; 2143 : 				if( newspeed < 0 )

	xorps	xmm0, xmm0
	comiss	xmm0, DWORD PTR _newspeed$25[ebp]
	jbe	SHORT $LN26@SV_Physics

; 2144 : 					newspeed = 0;

	xorps	xmm0, xmm0
	movss	DWORD PTR _newspeed$25[ebp], xmm0
$LN26@SV_Physics:

; 2145 : 				newspeed /= speed;

	movss	xmm0, DWORD PTR _newspeed$25[ebp]
	divss	xmm0, DWORD PTR _speed$26[ebp]
	movss	DWORD PTR _newspeed$25[ebp], xmm0

; 2146 : 
; 2147 : 				vel[0] = vel[0] * newspeed;

	lea	ecx, DWORD PTR _vel$28[ebp]
	call	??BVector@@QAEPAMXZ			; Vector::operator float *
	mov	ecx, 4
	imul	edx, ecx, 0
	movss	xmm0, DWORD PTR [eax+edx]
	mulss	xmm0, DWORD PTR _newspeed$25[ebp]
	lea	ecx, DWORD PTR _vel$28[ebp]
	movss	DWORD PTR tv1133[ebp], xmm0
	call	??BVector@@QAEPAMXZ			; Vector::operator float *
	mov	ecx, 4
	imul	edx, ecx, 0
	movss	xmm0, DWORD PTR tv1133[ebp]
	movss	DWORD PTR [eax+edx], xmm0

; 2148 : 				vel[1] = vel[1] * newspeed;

	lea	ecx, DWORD PTR _vel$28[ebp]
	call	??BVector@@QAEPAMXZ			; Vector::operator float *
	mov	ecx, 4
	shl	ecx, 0
	movss	xmm0, DWORD PTR [eax+ecx]
	mulss	xmm0, DWORD PTR _newspeed$25[ebp]
	lea	ecx, DWORD PTR _vel$28[ebp]
	movss	DWORD PTR tv1135[ebp], xmm0
	call	??BVector@@QAEPAMXZ			; Vector::operator float *
	mov	edx, 4
	shl	edx, 0
	movss	xmm0, DWORD PTR tv1135[ebp]
	movss	DWORD PTR [eax+edx], xmm0

; 2149 : 
; 2150 : 				pEntity->SetAbsVelocity( vel );

	lea	eax, DWORD PTR _vel$28[ebp]
	push	eax
	mov	ecx, DWORD PTR _pEntity$[ebp]
	call	?SetAbsVelocity@CBaseEntity@@QAEXABVVector@@@Z ; CBaseEntity::SetAbsVelocity
$LN24@SV_Physics:

; 2151 : 			}
; 2152 : 		}
; 2153 : 
; 2154 : 		pEntity->ApplyAbsVelocityImpulse( pEntity->GetBaseVelocity( ));

	mov	ecx, DWORD PTR _pEntity$[ebp]
	call	?GetBaseVelocity@CBaseEntity@@QBEABVVector@@XZ ; CBaseEntity::GetBaseVelocity
	push	eax
	mov	ecx, DWORD PTR _pEntity$[ebp]
	call	?ApplyAbsVelocityImpulse@CBaseEntity@@QAEXABVVector@@@Z ; CBaseEntity::ApplyAbsVelocityImpulse

; 2155 : 		SV_CheckVelocity( pEntity );

	mov	eax, DWORD PTR _pEntity$[ebp]
	push	eax
	call	?SV_CheckVelocity@@YAXPAVCBaseEntity@@@Z ; SV_CheckVelocity
	add	esp, 4

; 2156 : 
; 2157 : 		if( 1 )

	mov	eax, 1
	test	eax, eax
	je	$LN27@SV_Physics

; 2158 : 		{
; 2159 : 			// Try sliding forward both on ground and up 16 pixels
; 2160 : 			// take the move that goes farthest
; 2161 : 			Vector lastorg = pEntity->GetAbsOrigin();

	mov	ecx, DWORD PTR _pEntity$[ebp]
	call	?GetAbsOrigin@CBaseEntity@@QBEABVVector@@XZ ; CBaseEntity::GetAbsOrigin
	push	eax
	lea	ecx, DWORD PTR _lastorg$23[ebp]
	call	??0Vector@@QAE@ABV0@@Z			; Vector::Vector

; 2162 : 			Vector lastvel = pEntity->GetAbsVelocity();

	mov	ecx, DWORD PTR _pEntity$[ebp]
	call	?GetAbsVelocity@CBaseEntity@@QBEABVVector@@XZ ; CBaseEntity::GetAbsVelocity
	push	eax
	lea	ecx, DWORD PTR _lastvel$22[ebp]
	call	??0Vector@@QAE@ABV0@@Z			; Vector::Vector

; 2163 : 			Vector dest;

	lea	ecx, DWORD PTR _dest$21[ebp]
	call	??0Vector@@QAE@XZ			; Vector::Vector

; 2164 : 
; 2165 : 			SV_FlyMove( pEntity, gpGlobals->frametime, &trace );

	lea	eax, DWORD PTR _trace$[ebp]
	push	eax
	mov	ecx, DWORD PTR ?gpGlobals@@3PAUglobalvars_t@@A ; gpGlobals
	push	ecx
	movss	xmm0, DWORD PTR [ecx+4]
	movss	DWORD PTR [esp], xmm0
	mov	edx, DWORD PTR _pEntity$[ebp]
	push	edx
	call	?SV_FlyMove@@YAHPAVCBaseEntity@@MPAUgametrace_s@@@Z ; SV_FlyMove
	add	esp, 12					; 0000000cH

; 2166 : 
; 2167 : 			// Copy the results out
; 2168 : 			Vector downorg = pEntity->GetAbsOrigin();

	mov	ecx, DWORD PTR _pEntity$[ebp]
	call	?GetAbsOrigin@CBaseEntity@@QBEABVVector@@XZ ; CBaseEntity::GetAbsOrigin
	push	eax
	lea	ecx, DWORD PTR _downorg$20[ebp]
	call	??0Vector@@QAE@ABV0@@Z			; Vector::Vector

; 2169 : 			Vector downvel = pEntity->GetAbsVelocity();

	mov	ecx, DWORD PTR _pEntity$[ebp]
	call	?GetAbsVelocity@CBaseEntity@@QBEABVVector@@XZ ; CBaseEntity::GetAbsVelocity
	push	eax
	lea	ecx, DWORD PTR _downvel$19[ebp]
	call	??0Vector@@QAE@ABV0@@Z			; Vector::Vector

; 2170 : 
; 2171 : 			// Reset original values.
; 2172 : 			pEntity->SetAbsOrigin( lastorg );

	lea	eax, DWORD PTR _lastorg$23[ebp]
	push	eax
	mov	ecx, DWORD PTR _pEntity$[ebp]
	call	?SetAbsOrigin@CBaseEntity@@QAEXABVVector@@@Z ; CBaseEntity::SetAbsOrigin

; 2173 : 			pEntity->SetAbsVelocity( lastvel );

	lea	eax, DWORD PTR _lastvel$22[ebp]
	push	eax
	mov	ecx, DWORD PTR _pEntity$[ebp]
	call	?SetAbsVelocity@CBaseEntity@@QAEXABVVector@@@Z ; CBaseEntity::SetAbsVelocity

; 2174 : 
; 2175 : 			// Start out up one stair height
; 2176 : 			dest = pEntity->GetAbsOrigin();

	mov	ecx, DWORD PTR _pEntity$[ebp]
	call	?GetAbsOrigin@CBaseEntity@@QBEABVVector@@XZ ; CBaseEntity::GetAbsOrigin
	mov	ecx, DWORD PTR [eax]
	mov	DWORD PTR _dest$21[ebp], ecx
	mov	edx, DWORD PTR [eax+4]
	mov	DWORD PTR _dest$21[ebp+4], edx
	mov	eax, DWORD PTR [eax+8]
	mov	DWORD PTR _dest$21[ebp+8], eax

; 2177 : 			dest.z += g_psv_stepsize->value;

	mov	eax, DWORD PTR ?g_psv_stepsize@@3PAUcvar_s@@A ; g_psv_stepsize
	movss	xmm0, DWORD PTR _dest$21[ebp+8]
	addss	xmm0, DWORD PTR [eax+12]
	movss	DWORD PTR _dest$21[ebp+8], xmm0

; 2178 : 
; 2179 : 			pEntity->m_iPushableFilter = TRUE;

	mov	eax, DWORD PTR _pEntity$[ebp]
	mov	DWORD PTR [eax+44], 1

; 2180 : 			TRACE_MONSTER_HULL( pEntity->edict(), pEntity->GetAbsOrigin(), dest, dont_ignore_monsters, pEntity->edict(), &trace );

	lea	eax, DWORD PTR _trace$[ebp]
	push	eax
	mov	ecx, DWORD PTR _pEntity$[ebp]
	call	?edict@CBaseEntity@@QAEPAUedict_s@@XZ	; CBaseEntity::edict
	push	eax
	push	0
	lea	ecx, DWORD PTR _dest$21[ebp]
	call	??BVector@@QAEPAMXZ			; Vector::operator float *
	push	eax
	mov	ecx, DWORD PTR _pEntity$[ebp]
	call	?GetAbsOrigin@CBaseEntity@@QBEABVVector@@XZ ; CBaseEntity::GetAbsOrigin
	mov	ecx, eax
	call	??BVector@@QBEPBMXZ			; Vector::operator float const *
	push	eax
	mov	ecx, DWORD PTR _pEntity$[ebp]
	call	?edict@CBaseEntity@@QAEPAUedict_s@@XZ	; CBaseEntity::edict
	push	eax
	call	DWORD PTR ?g_engfuncs@@3Uenginefuncs_s@@A+132
	add	esp, 24					; 00000018H

; 2181 : 			pEntity->m_iPushableFilter = FALSE;

	mov	eax, DWORD PTR _pEntity$[ebp]
	mov	DWORD PTR [eax+44], 0

; 2182 : 	
; 2183 : 			// If we started okay and made it part of the way at least,
; 2184 : 			//  copy the results to the movement start position and then
; 2185 : 			//  run another move try.
; 2186 : 			if( !trace.fStartSolid && !trace.fAllSolid )

	cmp	DWORD PTR _trace$[ebp+4], 0
	jne	SHORT $LN29@SV_Physics
	cmp	DWORD PTR _trace$[ebp], 0
	jne	SHORT $LN29@SV_Physics

; 2187 : 			{
; 2188 : 				pEntity->SetAbsOrigin( trace.vecEndPos );

	lea	eax, DWORD PTR _trace$[ebp+20]
	push	eax
	mov	ecx, DWORD PTR _pEntity$[ebp]
	call	?SetAbsOrigin@CBaseEntity@@QAEXABVVector@@@Z ; CBaseEntity::SetAbsOrigin
$LN29@SV_Physics:

; 2189 : 			}
; 2190 : 
; 2191 : 			SV_FlyMove( pEntity, gpGlobals->frametime, &trace );	

	lea	eax, DWORD PTR _trace$[ebp]
	push	eax
	mov	ecx, DWORD PTR ?gpGlobals@@3PAUglobalvars_t@@A ; gpGlobals
	push	ecx
	movss	xmm0, DWORD PTR [ecx+4]
	movss	DWORD PTR [esp], xmm0
	mov	edx, DWORD PTR _pEntity$[ebp]
	push	edx
	call	?SV_FlyMove@@YAHPAVCBaseEntity@@MPAUgametrace_s@@@Z ; SV_FlyMove
	add	esp, 12					; 0000000cH

; 2192 : 
; 2193 : 			// Now try going back down from the end point
; 2194 : 			//  press down the stepheight
; 2195 : 			dest = pEntity->GetAbsOrigin();

	mov	ecx, DWORD PTR _pEntity$[ebp]
	call	?GetAbsOrigin@CBaseEntity@@QBEABVVector@@XZ ; CBaseEntity::GetAbsOrigin
	mov	ecx, DWORD PTR [eax]
	mov	DWORD PTR _dest$21[ebp], ecx
	mov	edx, DWORD PTR [eax+4]
	mov	DWORD PTR _dest$21[ebp+4], edx
	mov	eax, DWORD PTR [eax+8]
	mov	DWORD PTR _dest$21[ebp+8], eax

; 2196 : 			dest.z -= g_psv_stepsize->value;

	mov	eax, DWORD PTR ?g_psv_stepsize@@3PAUcvar_s@@A ; g_psv_stepsize
	movss	xmm0, DWORD PTR _dest$21[ebp+8]
	subss	xmm0, DWORD PTR [eax+12]
	movss	DWORD PTR _dest$21[ebp+8], xmm0

; 2197 : 
; 2198 : 			pEntity->m_iPushableFilter = TRUE;

	mov	eax, DWORD PTR _pEntity$[ebp]
	mov	DWORD PTR [eax+44], 1

; 2199 : 			TRACE_MONSTER_HULL( pEntity->edict(), pEntity->GetAbsOrigin(), dest, dont_ignore_monsters, pEntity->edict(), &trace );

	lea	eax, DWORD PTR _trace$[ebp]
	push	eax
	mov	ecx, DWORD PTR _pEntity$[ebp]
	call	?edict@CBaseEntity@@QAEPAUedict_s@@XZ	; CBaseEntity::edict
	push	eax
	push	0
	lea	ecx, DWORD PTR _dest$21[ebp]
	call	??BVector@@QAEPAMXZ			; Vector::operator float *
	push	eax
	mov	ecx, DWORD PTR _pEntity$[ebp]
	call	?GetAbsOrigin@CBaseEntity@@QBEABVVector@@XZ ; CBaseEntity::GetAbsOrigin
	mov	ecx, eax
	call	??BVector@@QBEPBMXZ			; Vector::operator float const *
	push	eax
	mov	ecx, DWORD PTR _pEntity$[ebp]
	call	?edict@CBaseEntity@@QAEPAUedict_s@@XZ	; CBaseEntity::edict
	push	eax
	call	DWORD PTR ?g_engfuncs@@3Uenginefuncs_s@@A+132
	add	esp, 24					; 00000018H

; 2200 : 			pEntity->m_iPushableFilter = FALSE;

	mov	eax, DWORD PTR _pEntity$[ebp]
	mov	DWORD PTR [eax+44], 0

; 2201 : 
; 2202 : 			float updist, downdist;
; 2203 : 			Vector uporg;

	lea	ecx, DWORD PTR _uporg$16[ebp]
	call	??0Vector@@QAE@XZ			; Vector::Vector

; 2204 : 	
; 2205 : 			// If we are not on the ground any more then
; 2206 : 			//  use the original movement attempt
; 2207 : 			if( trace.vecPlaneNormal.z < 0.7f )

	movss	xmm0, DWORD PTR __real@3f333333
	comiss	xmm0, DWORD PTR _trace$[ebp+44]
	jbe	SHORT $LN30@SV_Physics

; 2208 : 				goto usedown;

	jmp	$LN31@SV_Physics
	jmp	$usedown$60
$LN30@SV_Physics:

; 2209 : 			// If the trace ended up in empty space, copy the end
; 2210 : 			//  over to the origin.
; 2211 : 			if( !trace.fStartSolid && !trace.fAllSolid )

	cmp	DWORD PTR _trace$[ebp+4], 0
	jne	SHORT $LN32@SV_Physics
	cmp	DWORD PTR _trace$[ebp], 0
	jne	SHORT $LN32@SV_Physics

; 2212 : 			{
; 2213 : 				pEntity->SetAbsOrigin( trace.vecEndPos );

	lea	eax, DWORD PTR _trace$[ebp+20]
	push	eax
	mov	ecx, DWORD PTR _pEntity$[ebp]
	call	?SetAbsOrigin@CBaseEntity@@QAEXABVVector@@@Z ; CBaseEntity::SetAbsOrigin
$LN32@SV_Physics:

; 2214 : 			}
; 2215 : 
; 2216 : 			// Copy this origin to up.
; 2217 : 			uporg = pEntity->GetAbsOrigin();

	mov	ecx, DWORD PTR _pEntity$[ebp]
	call	?GetAbsOrigin@CBaseEntity@@QBEABVVector@@XZ ; CBaseEntity::GetAbsOrigin
	mov	ecx, DWORD PTR [eax]
	mov	DWORD PTR _uporg$16[ebp], ecx
	mov	edx, DWORD PTR [eax+4]
	mov	DWORD PTR _uporg$16[ebp+4], edx
	mov	eax, DWORD PTR [eax+8]
	mov	DWORD PTR _uporg$16[ebp+8], eax

; 2218 : 
; 2219 : 			// decide which one went farther
; 2220 : 			downdist = (downorg[0] - lastorg[0]) * (downorg[0] - lastorg[0]) + (downorg[1] - lastorg[1]) * (downorg[1] - lastorg[1]);

	lea	ecx, DWORD PTR _downorg$20[ebp]
	call	??BVector@@QAEPAMXZ			; Vector::operator float *
	mov	esi, eax
	mov	eax, 4
	imul	edi, eax, 0
	lea	ecx, DWORD PTR _lastorg$23[ebp]
	call	??BVector@@QAEPAMXZ			; Vector::operator float *
	mov	ecx, 4
	imul	edx, ecx, 0
	movss	xmm0, DWORD PTR [esi+edi]
	subss	xmm0, DWORD PTR [eax+edx]
	lea	ecx, DWORD PTR _downorg$20[ebp]
	movss	DWORD PTR tv1137[ebp], xmm0
	call	??BVector@@QAEPAMXZ			; Vector::operator float *
	mov	esi, eax
	mov	eax, 4
	imul	edi, eax, 0
	lea	ecx, DWORD PTR _lastorg$23[ebp]
	call	??BVector@@QAEPAMXZ			; Vector::operator float *
	mov	ecx, 4
	imul	edx, ecx, 0
	movss	xmm0, DWORD PTR [esi+edi]
	subss	xmm0, DWORD PTR [eax+edx]
	movss	xmm1, DWORD PTR tv1137[ebp]
	mulss	xmm1, xmm0
	lea	ecx, DWORD PTR _downorg$20[ebp]
	movss	DWORD PTR tv1139[ebp], xmm1
	call	??BVector@@QAEPAMXZ			; Vector::operator float *
	mov	esi, eax
	mov	edi, 4
	shl	edi, 0
	lea	ecx, DWORD PTR _lastorg$23[ebp]
	call	??BVector@@QAEPAMXZ			; Vector::operator float *
	mov	ecx, 4
	shl	ecx, 0
	movss	xmm0, DWORD PTR [esi+edi]
	subss	xmm0, DWORD PTR [eax+ecx]
	lea	ecx, DWORD PTR _downorg$20[ebp]
	movss	DWORD PTR tv1141[ebp], xmm0
	call	??BVector@@QAEPAMXZ			; Vector::operator float *
	mov	esi, eax
	mov	edi, 4
	shl	edi, 0
	lea	ecx, DWORD PTR _lastorg$23[ebp]
	call	??BVector@@QAEPAMXZ			; Vector::operator float *
	mov	edx, 4
	shl	edx, 0
	movss	xmm0, DWORD PTR [esi+edi]
	subss	xmm0, DWORD PTR [eax+edx]
	movss	xmm1, DWORD PTR tv1141[ebp]
	mulss	xmm1, xmm0
	movss	xmm0, DWORD PTR tv1139[ebp]
	addss	xmm0, xmm1
	movss	DWORD PTR _downdist$17[ebp], xmm0

; 2221 : 			updist = (uporg[0] - lastorg[0]) * (uporg[0] - lastorg[0]) + (uporg[1] - lastorg[1]) * (uporg[1] - lastorg[1]);

	lea	ecx, DWORD PTR _uporg$16[ebp]
	call	??BVector@@QAEPAMXZ			; Vector::operator float *
	mov	esi, eax
	mov	eax, 4
	imul	edi, eax, 0
	lea	ecx, DWORD PTR _lastorg$23[ebp]
	call	??BVector@@QAEPAMXZ			; Vector::operator float *
	mov	ecx, 4
	imul	edx, ecx, 0
	movss	xmm0, DWORD PTR [esi+edi]
	subss	xmm0, DWORD PTR [eax+edx]
	lea	ecx, DWORD PTR _uporg$16[ebp]
	movss	DWORD PTR tv1143[ebp], xmm0
	call	??BVector@@QAEPAMXZ			; Vector::operator float *
	mov	esi, eax
	mov	eax, 4
	imul	edi, eax, 0
	lea	ecx, DWORD PTR _lastorg$23[ebp]
	call	??BVector@@QAEPAMXZ			; Vector::operator float *
	mov	ecx, 4
	imul	edx, ecx, 0
	movss	xmm0, DWORD PTR [esi+edi]
	subss	xmm0, DWORD PTR [eax+edx]
	movss	xmm1, DWORD PTR tv1143[ebp]
	mulss	xmm1, xmm0
	lea	ecx, DWORD PTR _uporg$16[ebp]
	movss	DWORD PTR tv1145[ebp], xmm1
	call	??BVector@@QAEPAMXZ			; Vector::operator float *
	mov	esi, eax
	mov	edi, 4
	shl	edi, 0
	lea	ecx, DWORD PTR _lastorg$23[ebp]
	call	??BVector@@QAEPAMXZ			; Vector::operator float *
	mov	ecx, 4
	shl	ecx, 0
	movss	xmm0, DWORD PTR [esi+edi]
	subss	xmm0, DWORD PTR [eax+ecx]
	lea	ecx, DWORD PTR _uporg$16[ebp]
	movss	DWORD PTR tv1147[ebp], xmm0
	call	??BVector@@QAEPAMXZ			; Vector::operator float *
	mov	esi, eax
	mov	edi, 4
	shl	edi, 0
	lea	ecx, DWORD PTR _lastorg$23[ebp]
	call	??BVector@@QAEPAMXZ			; Vector::operator float *
	mov	edx, 4
	shl	edx, 0
	movss	xmm0, DWORD PTR [esi+edi]
	subss	xmm0, DWORD PTR [eax+edx]
	movss	xmm1, DWORD PTR tv1147[ebp]
	mulss	xmm1, xmm0
	movss	xmm0, DWORD PTR tv1145[ebp]
	addss	xmm0, xmm1
	movss	DWORD PTR _updist$18[ebp], xmm0

; 2222 : 
; 2223 : 			if( downdist > updist )

	movss	xmm0, DWORD PTR _downdist$17[ebp]
	comiss	xmm0, DWORD PTR _updist$18[ebp]
	jbe	SHORT $LN33@SV_Physics
$LN31@SV_Physics:
$usedown$60:

; 2224 : 			{
; 2225 : usedown:
; 2226 : 				pEntity->SetAbsOrigin( downorg );

	lea	eax, DWORD PTR _downorg$20[ebp]
	push	eax
	mov	ecx, DWORD PTR _pEntity$[ebp]
	call	?SetAbsOrigin@CBaseEntity@@QAEXABVVector@@@Z ; CBaseEntity::SetAbsOrigin

; 2227 : 				pEntity->SetAbsVelocity( downvel );

	lea	eax, DWORD PTR _downvel$19[ebp]
	push	eax
	mov	ecx, DWORD PTR _pEntity$[ebp]
	call	?SetAbsVelocity@CBaseEntity@@QAEXABVVector@@@Z ; CBaseEntity::SetAbsVelocity

; 2228 : 			}
; 2229 : 			else

	jmp	SHORT $LN34@SV_Physics
$LN33@SV_Physics:

; 2230 : 			{
; 2231 : 				// copy z value from slide move
; 2232 : 				Vector vel = pEntity->GetAbsVelocity();

	mov	ecx, DWORD PTR _pEntity$[ebp]
	call	?GetAbsVelocity@CBaseEntity@@QBEABVVector@@XZ ; CBaseEntity::GetAbsVelocity
	push	eax
	lea	ecx, DWORD PTR _vel$15[ebp]
	call	??0Vector@@QAE@ABV0@@Z			; Vector::Vector

; 2233 : 				vel.z = downvel.z;

	movss	xmm0, DWORD PTR _downvel$19[ebp+8]
	movss	DWORD PTR _vel$15[ebp+8], xmm0

; 2234 : 				pEntity->SetAbsVelocity( vel );

	lea	eax, DWORD PTR _vel$15[ebp]
	push	eax
	mov	ecx, DWORD PTR _pEntity$[ebp]
	call	?SetAbsVelocity@CBaseEntity@@QAEXABVVector@@@Z ; CBaseEntity::SetAbsVelocity
$LN34@SV_Physics:

; 2235 : 			}
; 2236 : 		}
; 2237 : 		else

	jmp	SHORT $LN28@SV_Physics
$LN27@SV_Physics:

; 2238 : 		{
; 2239 : 			int move = SV_FlyMove( pEntity, gpGlobals->frametime, &trace );

	lea	eax, DWORD PTR _trace$[ebp]
	push	eax
	mov	ecx, DWORD PTR ?gpGlobals@@3PAUglobalvars_t@@A ; gpGlobals
	push	ecx
	movss	xmm0, DWORD PTR [ecx+4]
	movss	DWORD PTR [esp], xmm0
	mov	edx, DWORD PTR _pEntity$[ebp]
	push	edx
	call	?SV_FlyMove@@YAHPAVCBaseEntity@@MPAUgametrace_s@@@Z ; SV_FlyMove
	add	esp, 12					; 0000000cH
	mov	DWORD PTR _move$14[ebp], eax
$LN28@SV_Physics:

; 2240 : 		}
; 2241 : 
; 2242 : 		if( ent->free || pEntity->pev->flags & FL_KILLME )

	mov	eax, DWORD PTR _ent$[ebp]
	cmp	DWORD PTR [eax], 0
	jne	SHORT $LN36@SV_Physics
	mov	eax, DWORD PTR _pEntity$[ebp]
	mov	ecx, DWORD PTR [eax+4]
	mov	edx, DWORD PTR [ecx+420]
	and	edx, 1073741824				; 40000000H
	je	SHORT $LN35@SV_Physics
$LN36@SV_Physics:

; 2243 : 			return;

	jmp	$LN1@SV_Physics
$LN35@SV_Physics:

; 2244 : 
; 2245 : 		SV_CheckVelocity( pEntity );

	mov	eax, DWORD PTR _pEntity$[ebp]
	push	eax
	call	?SV_CheckVelocity@@YAXPAVCBaseEntity@@@Z ; SV_CheckVelocity
	add	esp, 4

; 2246 : 		pEntity->ApplyAbsVelocityImpulse( -pEntity->GetBaseVelocity( ));

	lea	eax, DWORD PTR $T3[ebp]
	push	eax
	mov	ecx, DWORD PTR _pEntity$[ebp]
	call	?GetBaseVelocity@CBaseEntity@@QBEABVVector@@XZ ; CBaseEntity::GetBaseVelocity
	mov	ecx, eax
	call	??GVector@@QBE?AV0@XZ			; Vector::operator-
	push	eax
	mov	ecx, DWORD PTR _pEntity$[ebp]
	call	?ApplyAbsVelocityImpulse@CBaseEntity@@QAEXABVVector@@@Z ; CBaseEntity::ApplyAbsVelocityImpulse

; 2247 : 
; 2248 : 		SV_CheckVelocity( pEntity );

	mov	eax, DWORD PTR _pEntity$[ebp]
	push	eax
	call	?SV_CheckVelocity@@YAXPAVCBaseEntity@@@Z ; SV_CheckVelocity
	add	esp, 4

; 2249 : 
; 2250 : 		Vector mins = pEntity->GetAbsOrigin() + pEntity->pev->mins;

	mov	eax, DWORD PTR _pEntity$[ebp]
	mov	ecx, DWORD PTR [eax+4]
	add	ecx, 220				; 000000dcH
	push	ecx
	lea	edx, DWORD PTR _mins$13[ebp]
	push	edx
	mov	ecx, DWORD PTR _pEntity$[ebp]
	call	?GetAbsOrigin@CBaseEntity@@QBEABVVector@@XZ ; CBaseEntity::GetAbsOrigin
	mov	ecx, eax
	call	??HVector@@QBE?AV0@ABV0@@Z		; Vector::operator+

; 2251 : 		Vector maxs = pEntity->GetAbsOrigin() + pEntity->pev->maxs;

	mov	eax, DWORD PTR _pEntity$[ebp]
	mov	ecx, DWORD PTR [eax+4]
	add	ecx, 232				; 000000e8H
	push	ecx
	lea	edx, DWORD PTR _maxs$12[ebp]
	push	edx
	mov	ecx, DWORD PTR _pEntity$[ebp]
	call	?GetAbsOrigin@CBaseEntity@@QBEABVVector@@XZ ; CBaseEntity::GetAbsOrigin
	mov	ecx, eax
	call	??HVector@@QBE?AV0@ABV0@@Z		; Vector::operator+

; 2252 : 		Vector point;

	lea	ecx, DWORD PTR _point$11[ebp]
	call	??0Vector@@QAE@XZ			; Vector::Vector

; 2253 : 
; 2254 : 		point.z = mins.z - 1.0f;

	movss	xmm0, DWORD PTR _mins$13[ebp+8]
	subss	xmm0, DWORD PTR __real@3f800000
	movss	DWORD PTR _point$11[ebp+8], xmm0

; 2255 : 
; 2256 : 		for( int x = 0; x <= 1; x++ )

	mov	DWORD PTR _x$10[ebp], 0
	jmp	SHORT $LN4@SV_Physics
$LN2@SV_Physics:
	mov	eax, DWORD PTR _x$10[ebp]
	add	eax, 1
	mov	DWORD PTR _x$10[ebp], eax
$LN4@SV_Physics:
	cmp	DWORD PTR _x$10[ebp], 1
	jg	$LN3@SV_Physics

; 2257 : 		{
; 2258 : 			if( pEntity->pev->flags & FL_ONGROUND )

	mov	eax, DWORD PTR _pEntity$[ebp]
	mov	ecx, DWORD PTR [eax+4]
	mov	edx, DWORD PTR [ecx+420]
	and	edx, 512				; 00000200H
	je	SHORT $LN37@SV_Physics

; 2259 : 			{
; 2260 : 				break;

	jmp	$LN3@SV_Physics
$LN37@SV_Physics:

; 2261 : 			}
; 2262 : 
; 2263 : 			for( int y = 0; y <= 1; y++ )

	mov	DWORD PTR _y$9[ebp], 0
	jmp	SHORT $LN7@SV_Physics
$LN5@SV_Physics:
	mov	eax, DWORD PTR _y$9[ebp]
	add	eax, 1
	mov	DWORD PTR _y$9[ebp], eax
$LN7@SV_Physics:
	cmp	DWORD PTR _y$9[ebp], 1
	jg	$LN6@SV_Physics

; 2264 : 			{
; 2265 : 				point.x = x ? maxs.x : mins.x;

	cmp	DWORD PTR _x$10[ebp], 0
	je	SHORT $LN56@SV_Physics
	movss	xmm0, DWORD PTR _maxs$12[ebp]
	movss	DWORD PTR tv527[ebp], xmm0
	jmp	SHORT $LN57@SV_Physics
$LN56@SV_Physics:
	movss	xmm0, DWORD PTR _mins$13[ebp]
	movss	DWORD PTR tv527[ebp], xmm0
$LN57@SV_Physics:
	movss	xmm0, DWORD PTR tv527[ebp]
	movss	DWORD PTR _point$11[ebp], xmm0

; 2266 : 				point.y = y ? maxs.y : mins.y;

	cmp	DWORD PTR _y$9[ebp], 0
	je	SHORT $LN58@SV_Physics
	movss	xmm0, DWORD PTR _maxs$12[ebp+4]
	movss	DWORD PTR tv529[ebp], xmm0
	jmp	SHORT $LN59@SV_Physics
$LN58@SV_Physics:
	movss	xmm0, DWORD PTR _mins$13[ebp+4]
	movss	DWORD PTR tv529[ebp], xmm0
$LN59@SV_Physics:
	movss	xmm0, DWORD PTR tv529[ebp]
	movss	DWORD PTR _point$11[ebp+4], xmm0

; 2267 : 
; 2268 : 				UTIL_TraceLine( point, point, dont_ignore_monsters, ent, &trace );

	lea	eax, DWORD PTR _trace$[ebp]
	push	eax
	mov	ecx, DWORD PTR _ent$[ebp]
	push	ecx
	push	0
	lea	edx, DWORD PTR _point$11[ebp]
	push	edx
	lea	eax, DWORD PTR _point$11[ebp]
	push	eax
	call	?UTIL_TraceLine@@YAXABVVector@@0W4IGNORE_MONSTERS@@PAUedict_s@@PAUgametrace_s@@@Z ; UTIL_TraceLine
	add	esp, 20					; 00000014H

; 2269 : 
; 2270 : 				if( trace.fStartSolid )

	cmp	DWORD PTR _trace$[ebp+4], 0
	je	SHORT $LN38@SV_Physics

; 2271 : 				{
; 2272 : 					pEntity->SetGroundEntity( trace.pHit );

	mov	eax, DWORD PTR _trace$[ebp+48]
	push	eax
	mov	ecx, DWORD PTR _pEntity$[ebp]
	call	?SetGroundEntity@CBaseEntity@@QAEXPAUedict_s@@@Z ; CBaseEntity::SetGroundEntity

; 2273 : 					pEntity->pev->friction = 1.0f;

	mov	eax, DWORD PTR _pEntity$[ebp]
	mov	ecx, DWORD PTR [eax+4]
	movss	xmm0, DWORD PTR __real@3f800000
	movss	DWORD PTR [ecx+288], xmm0

; 2274 : 					break;

	jmp	SHORT $LN6@SV_Physics
$LN38@SV_Physics:

; 2275 : 				}
; 2276 : 			}

	jmp	$LN5@SV_Physics
$LN6@SV_Physics:

; 2277 : 		}

	jmp	$LN2@SV_Physics
$LN3@SV_Physics:

; 2278 : 
; 2279 : 		pEntity->RelinkEntity( TRUE, &oldAbsOrigin );

	push	0
	lea	eax, DWORD PTR _oldAbsOrigin$[ebp]
	push	eax
	push	1
	mov	ecx, DWORD PTR _pEntity$[ebp]
	call	?RelinkEntity@CBaseEntity@@QAEXHPBVVector@@H@Z ; CBaseEntity::RelinkEntity

; 2280 : 
; 2281 : 		// move func_pushable riders
; 2282 : 		if( pEntity->pev->movetype == MOVETYPE_PUSHSTEP && pEntity->pev->solid == SOLID_BSP )

	mov	eax, DWORD PTR _pEntity$[ebp]
	mov	ecx, DWORD PTR [eax+4]
	cmp	DWORD PTR [ecx+264], 13			; 0000000dH
	jne	$LN9@SV_Physics
	mov	eax, DWORD PTR _pEntity$[ebp]
	mov	ecx, DWORD PTR [eax+4]
	cmp	DWORD PTR [ecx+268], 4
	jne	$LN9@SV_Physics

; 2283 : 		{
; 2284 : 			Vector vecAbsMins, vecAbsMaxs;

	lea	ecx, DWORD PTR _vecAbsMins$8[ebp]
	call	??0Vector@@QAE@XZ			; Vector::Vector
	lea	ecx, DWORD PTR _vecAbsMaxs$7[ebp]
	call	??0Vector@@QAE@XZ			; Vector::Vector

; 2285 : 			pEntity->WorldSpaceAABB( vecAbsMins, vecAbsMaxs );

	lea	eax, DWORD PTR _vecAbsMaxs$7[ebp]
	push	eax
	lea	ecx, DWORD PTR _vecAbsMins$8[ebp]
	push	ecx
	mov	ecx, DWORD PTR _pEntity$[ebp]
	call	?WorldSpaceAABB@CBaseEntity@@QBEXAAVVector@@0@Z ; CBaseEntity::WorldSpaceAABB

; 2286 : 
; 2287 : 			m_rgGroundEnts.RemoveAll();

	mov	ecx, OFFSET ?m_rgGroundEnts@@3V?$CUtlArray@PAVCBaseEntity@@V?$CUtlMemory@PAVCBaseEntity@@H@@@@A ; m_rgGroundEnts
	call	?RemoveAll@?$CUtlArray@PAVCBaseEntity@@V?$CUtlMemory@PAVCBaseEntity@@H@@@@QAEXXZ ; CUtlArray<CBaseEntity *,CUtlMemory<CBaseEntity *,int> >::RemoveAll

; 2288 : 			pMovingGround = pEntity;

	mov	eax, DWORD PTR _pEntity$[ebp]
	mov	DWORD PTR ?pMovingGround@@3PAVCBaseEntity@@A, eax

; 2289 : 			s_nEnumCount++;

	mov	eax, DWORD PTR ?s_nEnumCount@@3HA
	add	eax, 1
	mov	DWORD PTR ?s_nEnumCount@@3HA, eax

; 2290 : 
; 2291 : 			vecAbsMaxs.z *= 2;

	movss	xmm0, DWORD PTR _vecAbsMaxs$7[ebp+8]
	mulss	xmm0, DWORD PTR __real@40000000
	movss	DWORD PTR _vecAbsMaxs$7[ebp+8], xmm0

; 2292 : 
; 2293 : 			UTIL_AreaNode( vecAbsMins, vecAbsMaxs, AREA_SOLID, AddEntityToGroundList );

	push	OFFSET ?AddEntityToGroundList@@YAXPAVCBaseEntity@@@Z ; AddEntityToGroundList
	push	0
	sub	esp, 12					; 0000000cH
	mov	ecx, esp
	lea	eax, DWORD PTR _vecAbsMaxs$7[ebp]
	push	eax
	call	??0Vector@@QAE@ABV0@@Z			; Vector::Vector
	sub	esp, 12					; 0000000cH
	mov	ecx, esp
	lea	edx, DWORD PTR _vecAbsMins$8[ebp]
	push	edx
	call	??0Vector@@QAE@ABV0@@Z			; Vector::Vector
	call	?UTIL_AreaNode@@YAXVVector@@0HP6AXPAVCBaseEntity@@@Z@Z ; UTIL_AreaNode
	add	esp, 32					; 00000020H

; 2294 : 			UTIL_AreaNode( vecAbsMins, vecAbsMaxs, AREA_TRIGGERS, AddEntityToGroundList );

	push	OFFSET ?AddEntityToGroundList@@YAXPAVCBaseEntity@@@Z ; AddEntityToGroundList
	push	1
	sub	esp, 12					; 0000000cH
	mov	ecx, esp
	lea	eax, DWORD PTR _vecAbsMaxs$7[ebp]
	push	eax
	call	??0Vector@@QAE@ABV0@@Z			; Vector::Vector
	sub	esp, 12					; 0000000cH
	mov	ecx, esp
	lea	edx, DWORD PTR _vecAbsMins$8[ebp]
	push	edx
	call	??0Vector@@QAE@ABV0@@Z			; Vector::Vector
	call	?UTIL_AreaNode@@YAXVVector@@0HP6AXPAVCBaseEntity@@@Z@Z ; UTIL_AreaNode
	add	esp, 32					; 00000020H

; 2295 : 
; 2296 : 			Vector lmove = pEntity->GetAbsOrigin() - oldAbsOrigin;

	lea	eax, DWORD PTR _oldAbsOrigin$[ebp]
	push	eax
	lea	ecx, DWORD PTR _lmove$6[ebp]
	push	ecx
	mov	ecx, DWORD PTR _pEntity$[ebp]
	call	?GetAbsOrigin@CBaseEntity@@QBEABVVector@@XZ ; CBaseEntity::GetAbsOrigin
	mov	ecx, eax
	call	??GVector@@QBE?AV0@ABV0@@Z		; Vector::operator-

; 2297 : 			int blocked;
; 2298 : 
; 2299 : 			// FIXME: need a recursive here for move all standing items
; 2300 : 			// e.g. player standing on the pushable which standing on the pushable
; 2301 : 			// whcih standing on the pushable.. oh, well
; 2302 : 			for( int i = 0; i < m_rgGroundEnts.Count(); i++ )

	mov	DWORD PTR _i$4[ebp], 0
	jmp	SHORT $LN10@SV_Physics
$LN8@SV_Physics:
	mov	eax, DWORD PTR _i$4[ebp]
	add	eax, 1
	mov	DWORD PTR _i$4[ebp], eax
$LN10@SV_Physics:
	mov	ecx, OFFSET ?m_rgGroundEnts@@3V?$CUtlArray@PAVCBaseEntity@@V?$CUtlMemory@PAVCBaseEntity@@H@@@@A ; m_rgGroundEnts
	call	?Count@?$CUtlArray@PAVCBaseEntity@@V?$CUtlMemory@PAVCBaseEntity@@H@@@@QBEHXZ ; CUtlArray<CBaseEntity *,CUtlMemory<CBaseEntity *,int> >::Count
	cmp	DWORD PTR _i$4[ebp], eax
	jge	$LN9@SV_Physics

; 2303 : 			{
; 2304 : 				SV_PushEntity( m_rgGroundEnts[i], lmove, g_vecZero, &blocked );

	lea	eax, DWORD PTR _blocked$5[ebp]
	push	eax
	push	OFFSET ?g_vecZero@@3VVector@@B		; g_vecZero
	lea	ecx, DWORD PTR _lmove$6[ebp]
	push	ecx
	mov	edx, DWORD PTR _i$4[ebp]
	push	edx
	mov	ecx, OFFSET ?m_rgGroundEnts@@3V?$CUtlArray@PAVCBaseEntity@@V?$CUtlMemory@PAVCBaseEntity@@H@@@@A ; m_rgGroundEnts
	call	??A?$CUtlArray@PAVCBaseEntity@@V?$CUtlMemory@PAVCBaseEntity@@H@@@@QAEAAPAVCBaseEntity@@H@Z ; CUtlArray<CBaseEntity *,CUtlMemory<CBaseEntity *,int> >::operator[]
	mov	eax, DWORD PTR [eax]
	push	eax
	lea	ecx, DWORD PTR $T1[ebp]
	push	ecx
	call	?SV_PushEntity@@YA?AUgametrace_s@@PAVCBaseEntity@@ABVVector@@1PAH@Z ; SV_PushEntity
	add	esp, 20					; 00000014H
	mov	ecx, 14					; 0000000eH
	mov	esi, eax
	lea	edi, DWORD PTR $T2[ebp]
	rep movsd

; 2305 : 				if( m_rgGroundEnts[i]->m_iActorType == ACTOR_CHARACTER )

	mov	eax, DWORD PTR _i$4[ebp]
	push	eax
	mov	ecx, OFFSET ?m_rgGroundEnts@@3V?$CUtlArray@PAVCBaseEntity@@V?$CUtlMemory@PAVCBaseEntity@@H@@@@A ; m_rgGroundEnts
	call	??A?$CUtlArray@PAVCBaseEntity@@V?$CUtlMemory@PAVCBaseEntity@@H@@@@QAEAAPAVCBaseEntity@@H@Z ; CUtlArray<CBaseEntity *,CUtlMemory<CBaseEntity *,int> >::operator[]
	mov	ecx, DWORD PTR [eax]
	movzx	edx, BYTE PTR [ecx+1616]
	cmp	edx, 3
	jne	SHORT $LN40@SV_Physics

; 2306 : 					WorldPhysic->MoveCharacter( m_rgGroundEnts[i] );

	mov	eax, DWORD PTR _i$4[ebp]
	push	eax
	mov	ecx, OFFSET ?m_rgGroundEnts@@3V?$CUtlArray@PAVCBaseEntity@@V?$CUtlMemory@PAVCBaseEntity@@H@@@@A ; m_rgGroundEnts
	call	??A?$CUtlArray@PAVCBaseEntity@@V?$CUtlMemory@PAVCBaseEntity@@H@@@@QAEAAPAVCBaseEntity@@H@Z ; CUtlArray<CBaseEntity *,CUtlMemory<CBaseEntity *,int> >::operator[]
	mov	ecx, DWORD PTR [eax]
	push	ecx
	mov	edx, DWORD PTR ?WorldPhysic@@3PAVIPhysicLayer@@A ; WorldPhysic
	mov	eax, DWORD PTR [edx]
	mov	ecx, DWORD PTR ?WorldPhysic@@3PAVIPhysicLayer@@A ; WorldPhysic
	mov	edx, DWORD PTR [eax+144]
	call	edx
	jmp	SHORT $LN42@SV_Physics
$LN40@SV_Physics:

; 2307 : 				else if( m_rgGroundEnts[i]->m_iActorType == ACTOR_KINEMATIC )

	mov	eax, DWORD PTR _i$4[ebp]
	push	eax
	mov	ecx, OFFSET ?m_rgGroundEnts@@3V?$CUtlArray@PAVCBaseEntity@@V?$CUtlMemory@PAVCBaseEntity@@H@@@@A ; m_rgGroundEnts
	call	??A?$CUtlArray@PAVCBaseEntity@@V?$CUtlMemory@PAVCBaseEntity@@H@@@@QAEAAPAVCBaseEntity@@H@Z ; CUtlArray<CBaseEntity *,CUtlMemory<CBaseEntity *,int> >::operator[]
	mov	ecx, DWORD PTR [eax]
	movzx	edx, BYTE PTR [ecx+1616]
	cmp	edx, 2
	jne	SHORT $LN42@SV_Physics

; 2308 : 					WorldPhysic->MoveKinematic( m_rgGroundEnts[i] );

	mov	eax, DWORD PTR _i$4[ebp]
	push	eax
	mov	ecx, OFFSET ?m_rgGroundEnts@@3V?$CUtlArray@PAVCBaseEntity@@V?$CUtlMemory@PAVCBaseEntity@@H@@@@A ; m_rgGroundEnts
	call	??A?$CUtlArray@PAVCBaseEntity@@V?$CUtlMemory@PAVCBaseEntity@@H@@@@QAEAAPAVCBaseEntity@@H@Z ; CUtlArray<CBaseEntity *,CUtlMemory<CBaseEntity *,int> >::operator[]
	mov	ecx, DWORD PTR [eax]
	push	ecx
	mov	edx, DWORD PTR ?WorldPhysic@@3PAVIPhysicLayer@@A ; WorldPhysic
	mov	eax, DWORD PTR [edx]
	mov	ecx, DWORD PTR ?WorldPhysic@@3PAVIPhysicLayer@@A ; WorldPhysic
	mov	edx, DWORD PTR [eax+148]
	call	edx
$LN42@SV_Physics:

; 2309 : 				if( blocked ) m_rgGroundEnts[i]->pev->flags &= ~FL_ONGROUND;

	cmp	DWORD PTR _blocked$5[ebp], 0
	je	SHORT $LN43@SV_Physics
	mov	eax, DWORD PTR _i$4[ebp]
	push	eax
	mov	ecx, OFFSET ?m_rgGroundEnts@@3V?$CUtlArray@PAVCBaseEntity@@V?$CUtlMemory@PAVCBaseEntity@@H@@@@A ; m_rgGroundEnts
	call	??A?$CUtlArray@PAVCBaseEntity@@V?$CUtlMemory@PAVCBaseEntity@@H@@@@QAEAAPAVCBaseEntity@@H@Z ; CUtlArray<CBaseEntity *,CUtlMemory<CBaseEntity *,int> >::operator[]
	mov	ecx, DWORD PTR [eax]
	mov	edx, DWORD PTR [ecx+4]
	add	edx, 420				; 000001a4H
	mov	DWORD PTR tv685[ebp], edx
	mov	eax, DWORD PTR tv685[ebp]
	mov	ecx, DWORD PTR [eax]
	and	ecx, -513				; fffffdffH
	mov	edx, DWORD PTR tv685[ebp]
	mov	DWORD PTR [edx], ecx
$LN43@SV_Physics:

; 2310 : 			}

	jmp	$LN8@SV_Physics
$LN9@SV_Physics:

; 2311 : 		}
; 2312 : 	}
; 2313 : 	else

	jmp	SHORT $LN45@SV_Physics
$LN18@SV_Physics:

; 2314 : 	{
; 2315 : 		if( gpGlobals->force_retouch != 0.0f )

	mov	eax, DWORD PTR ?gpGlobals@@3PAUglobalvars_t@@A ; gpGlobals
	movss	xmm0, DWORD PTR [eax+8]
	ucomiss	xmm0, DWORD PTR __real@00000000
	lahf
	test	ah, 68					; 00000044H
	jnp	SHORT $LN45@SV_Physics

; 2316 : 		{
; 2317 : 			TRACE_MONSTER_HULL( ent, pEntity->GetAbsOrigin(), pEntity->GetAbsOrigin(), dont_ignore_monsters, ent, &trace );

	lea	eax, DWORD PTR _trace$[ebp]
	push	eax
	mov	ecx, DWORD PTR _ent$[ebp]
	push	ecx
	push	0
	mov	ecx, DWORD PTR _pEntity$[ebp]
	call	?GetAbsOrigin@CBaseEntity@@QBEABVVector@@XZ ; CBaseEntity::GetAbsOrigin
	mov	ecx, eax
	call	??BVector@@QBEPBMXZ			; Vector::operator float const *
	push	eax
	mov	ecx, DWORD PTR _pEntity$[ebp]
	call	?GetAbsOrigin@CBaseEntity@@QBEABVVector@@XZ ; CBaseEntity::GetAbsOrigin
	mov	ecx, eax
	call	??BVector@@QBEPBMXZ			; Vector::operator float const *
	push	eax
	mov	edx, DWORD PTR _ent$[ebp]
	push	edx
	call	DWORD PTR ?g_engfuncs@@3Uenginefuncs_s@@A+132
	add	esp, 24					; 00000018H

; 2318 : 
; 2319 : 			// hentacle impact code
; 2320 : 			if(( trace.flFraction < 1.0f || trace.fStartSolid )  && trace.pHit )

	movss	xmm0, DWORD PTR __real@3f800000
	comiss	xmm0, DWORD PTR _trace$[ebp+16]
	ja	SHORT $LN46@SV_Physics
	cmp	DWORD PTR _trace$[ebp+4], 0
	je	SHORT $LN45@SV_Physics
$LN46@SV_Physics:
	cmp	DWORD PTR _trace$[ebp+48], 0
	je	SHORT $LN45@SV_Physics

; 2321 : 				SV_Impact( pEntity, NULL, &trace );

	lea	eax, DWORD PTR _trace$[ebp]
	push	eax
	push	0
	mov	ecx, DWORD PTR _pEntity$[ebp]
	push	ecx
	call	?SV_Impact@@YAXPAVCBaseEntity@@0PAUgametrace_s@@@Z ; SV_Impact
	add	esp, 12					; 0000000cH
$LN45@SV_Physics:

; 2322 : 		}
; 2323 : 	}
; 2324 : 
; 2325 : 	if( ent->free || pEntity->pev->flags & FL_KILLME )

	mov	eax, DWORD PTR _ent$[ebp]
	cmp	DWORD PTR [eax], 0
	jne	SHORT $LN48@SV_Physics
	mov	eax, DWORD PTR _pEntity$[ebp]
	mov	ecx, DWORD PTR [eax+4]
	mov	edx, DWORD PTR [ecx+420]
	and	edx, 1073741824				; 40000000H
	je	SHORT $LN47@SV_Physics
$LN48@SV_Physics:

; 2326 : 		return;

	jmp	SHORT $LN1@SV_Physics
$LN47@SV_Physics:

; 2327 : 	
; 2328 : 	if( !SV_RunThink( pEntity )) return;

	mov	eax, DWORD PTR _pEntity$[ebp]
	push	eax
	call	?SV_RunThink@@YAHPAVCBaseEntity@@@Z	; SV_RunThink
	add	esp, 4
	test	eax, eax
	jne	SHORT $LN49@SV_Physics
	jmp	SHORT $LN1@SV_Physics
$LN49@SV_Physics:

; 2329 : 	SV_CheckWaterTransition( pEntity );

	mov	eax, DWORD PTR _pEntity$[ebp]
	push	eax
	call	?SV_CheckWaterTransition@@YAXPAVCBaseEntity@@@Z ; SV_CheckWaterTransition
	add	esp, 4

; 2330 : 
; 2331 : 	if( pEntity->m_iActorType == ACTOR_KINEMATIC )

	mov	eax, DWORD PTR _pEntity$[ebp]
	movzx	ecx, BYTE PTR [eax+1616]
	cmp	ecx, 2
	jne	SHORT $LN50@SV_Physics

; 2332 : 		WorldPhysic->MoveKinematic( pEntity );

	mov	eax, DWORD PTR _pEntity$[ebp]
	push	eax
	mov	ecx, DWORD PTR ?WorldPhysic@@3PAVIPhysicLayer@@A ; WorldPhysic
	mov	edx, DWORD PTR [ecx]
	mov	ecx, DWORD PTR ?WorldPhysic@@3PAVIPhysicLayer@@A ; WorldPhysic
	mov	eax, DWORD PTR [edx+148]
	call	eax
	jmp	SHORT $LN52@SV_Physics
$LN50@SV_Physics:

; 2333 : 	else if( pEntity->m_iActorType == ACTOR_CHARACTER )

	mov	eax, DWORD PTR _pEntity$[ebp]
	movzx	ecx, BYTE PTR [eax+1616]
	cmp	ecx, 3
	jne	SHORT $LN52@SV_Physics

; 2334 : 		WorldPhysic->MoveCharacter( pEntity );

	mov	eax, DWORD PTR _pEntity$[ebp]
	push	eax
	mov	ecx, DWORD PTR ?WorldPhysic@@3PAVIPhysicLayer@@A ; WorldPhysic
	mov	edx, DWORD PTR [ecx]
	mov	ecx, DWORD PTR ?WorldPhysic@@3PAVIPhysicLayer@@A ; WorldPhysic
	mov	eax, DWORD PTR [edx+144]
	call	eax
$LN52@SV_Physics:
$LN1@SV_Physics:

; 2335 : }

	pop	edi
	pop	esi
	pop	ebx
	mov	esp, ebp
	pop	ebp
	ret	0
?SV_Physics_Step@@YAXPAVCBaseEntity@@@Z ENDP		; SV_Physics_Step
_TEXT	ENDS
; Function compile flags: /Odtp /ZI
; File d:\!diffusion 2020\source code 2022\client-server\server\physics\physic.cpp
;	COMDAT ?AddEntityToGroundList@@YAXPAVCBaseEntity@@@Z
_TEXT	SEGMENT
tv72 = -72						; size = 4
_i$ = -4						; size = 4
_pEntity$ = 8						; size = 4
?AddEntityToGroundList@@YAXPAVCBaseEntity@@@Z PROC	; AddEntityToGroundList, COMDAT

; 2027 : {

	push	ebp
	mov	ebp, esp
	sub	esp, 72					; 00000048H
	push	ebx
	push	esi
	push	edi

; 2028 : 	if( !pEntity ) return;

	cmp	DWORD PTR _pEntity$[ebp], 0
	jne	SHORT $LN4@AddEntityT
	jmp	$LN1@AddEntityT
$LN4@AddEntityT:

; 2029 : 
; 2030 : 	if( pEntity->m_iGroundEnumCount == s_nEnumCount )

	mov	eax, DWORD PTR _pEntity$[ebp]
	mov	ecx, DWORD PTR [eax+68]
	cmp	ecx, DWORD PTR ?s_nEnumCount@@3HA
	jne	SHORT $LN5@AddEntityT

; 2031 : 		return;	// already added

	jmp	SHORT $LN1@AddEntityT
$LN5@AddEntityT:

; 2032 : 
; 2033 : 	if( pEntity->pev->solid == SOLID_NOT )

	mov	eax, DWORD PTR _pEntity$[ebp]
	mov	ecx, DWORD PTR [eax+4]
	cmp	DWORD PTR [ecx+268], 0
	jne	SHORT $LN6@AddEntityT

; 2034 : 		return;

	jmp	SHORT $LN1@AddEntityT
$LN6@AddEntityT:

; 2035 : 
; 2036 : 	// filter movetypes to collide with
; 2037 : 	switch( pEntity->pev->movetype )

	mov	eax, DWORD PTR _pEntity$[ebp]
	mov	ecx, DWORD PTR [eax+4]
	mov	edx, DWORD PTR [ecx+264]
	mov	DWORD PTR tv72[ebp], edx
	cmp	DWORD PTR tv72[ebp], 14			; 0000000eH
	ja	SHORT $LN2@AddEntityT
	mov	eax, DWORD PTR tv72[ebp]
	movzx	ecx, BYTE PTR $LN10@AddEntityT[eax]
	jmp	DWORD PTR $LN11@AddEntityT[ecx*4]
$LN7@AddEntityT:

; 2038 : 	{
; 2039 : 	case MOVETYPE_NONE:
; 2040 : 	case MOVETYPE_PUSH:
; 2041 : 	case MOVETYPE_FOLLOW:
; 2042 : 	case MOVETYPE_NOCLIP:
; 2043 : 	case MOVETYPE_COMPOUND:
; 2044 : 		return;

	jmp	SHORT $LN1@AddEntityT
$LN2@AddEntityT:

; 2045 : 	}
; 2046 : 
; 2047 : 	if( pEntity->GetGroundEntity() != pMovingGround )

	mov	ecx, DWORD PTR _pEntity$[ebp]
	call	?GetGroundEntity@CBaseEntity@@QAEPAV1@XZ ; CBaseEntity::GetGroundEntity
	cmp	eax, DWORD PTR ?pMovingGround@@3PAVCBaseEntity@@A
	je	SHORT $LN8@AddEntityT

; 2048 : 		return;

	jmp	SHORT $LN1@AddEntityT
$LN8@AddEntityT:

; 2049 : 
; 2050 : 	pEntity->m_iGroundEnumCount = s_nEnumCount;

	mov	eax, DWORD PTR _pEntity$[ebp]
	mov	ecx, DWORD PTR ?s_nEnumCount@@3HA
	mov	DWORD PTR [eax+68], ecx

; 2051 : 
; 2052 : 	// store entity in list
; 2053 : 	int i = m_rgGroundEnts.AddToTail();

	mov	ecx, OFFSET ?m_rgGroundEnts@@3V?$CUtlArray@PAVCBaseEntity@@V?$CUtlMemory@PAVCBaseEntity@@H@@@@A ; m_rgGroundEnts
	call	?AddToTail@?$CUtlArray@PAVCBaseEntity@@V?$CUtlMemory@PAVCBaseEntity@@H@@@@QAEHXZ ; CUtlArray<CBaseEntity *,CUtlMemory<CBaseEntity *,int> >::AddToTail
	mov	DWORD PTR _i$[ebp], eax

; 2054 : 	m_rgGroundEnts[i] = pEntity;

	mov	eax, DWORD PTR _i$[ebp]
	push	eax
	mov	ecx, OFFSET ?m_rgGroundEnts@@3V?$CUtlArray@PAVCBaseEntity@@V?$CUtlMemory@PAVCBaseEntity@@H@@@@A ; m_rgGroundEnts
	call	??A?$CUtlArray@PAVCBaseEntity@@V?$CUtlMemory@PAVCBaseEntity@@H@@@@QAEAAPAVCBaseEntity@@H@Z ; CUtlArray<CBaseEntity *,CUtlMemory<CBaseEntity *,int> >::operator[]
	mov	ecx, DWORD PTR _pEntity$[ebp]
	mov	DWORD PTR [eax], ecx
$LN1@AddEntityT:

; 2055 : }

	pop	edi
	pop	esi
	pop	ebx
	mov	esp, ebp
	pop	ebp
	ret	0
	npad	2
$LN11@AddEntityT:
	DD	$LN7@AddEntityT
	DD	$LN2@AddEntityT
$LN10@AddEntityT:
	DB	0
	DB	1
	DB	1
	DB	1
	DB	1
	DB	1
	DB	1
	DB	0
	DB	0
	DB	1
	DB	1
	DB	1
	DB	0
	DB	1
	DB	0
?AddEntityToGroundList@@YAXPAVCBaseEntity@@@Z ENDP	; AddEntityToGroundList
_TEXT	ENDS
; Function compile flags: /Odtp /ZI
;	COMDAT ??__Fm_rgGroundEnts@@YAXXZ
text$yd	SEGMENT
??__Fm_rgGroundEnts@@YAXXZ PROC				; `dynamic atexit destructor for 'm_rgGroundEnts'', COMDAT
	push	ebp
	mov	ebp, esp
	sub	esp, 64					; 00000040H
	push	ebx
	push	esi
	push	edi
	mov	ecx, OFFSET ?m_rgGroundEnts@@3V?$CUtlArray@PAVCBaseEntity@@V?$CUtlMemory@PAVCBaseEntity@@H@@@@A ; m_rgGroundEnts
	call	??1?$CUtlArray@PAVCBaseEntity@@V?$CUtlMemory@PAVCBaseEntity@@H@@@@QAE@XZ ; CUtlArray<CBaseEntity *,CUtlMemory<CBaseEntity *,int> >::~CUtlArray<CBaseEntity *,CUtlMemory<CBaseEntity *,int> >
	pop	edi
	pop	esi
	pop	ebx
	mov	esp, ebp
	pop	ebp
	ret	0
??__Fm_rgGroundEnts@@YAXXZ ENDP				; `dynamic atexit destructor for 'm_rgGroundEnts''
text$yd	ENDS
; Function compile flags: /Odtp /ZI
; File d:\!diffusion 2020\source code 2022\client-server\server\physics\physic.cpp
;	COMDAT ??__Em_rgGroundEnts@@YAXXZ
text$di	SEGMENT
??__Em_rgGroundEnts@@YAXXZ PROC				; `dynamic initializer for 'm_rgGroundEnts'', COMDAT

; 2022 : CUtlArray<CBaseEntity*>	m_rgGroundEnts;

	push	ebp
	mov	ebp, esp
	sub	esp, 64					; 00000040H
	push	ebx
	push	esi
	push	edi
	push	0
	push	0
	mov	ecx, OFFSET ?m_rgGroundEnts@@3V?$CUtlArray@PAVCBaseEntity@@V?$CUtlMemory@PAVCBaseEntity@@H@@@@A ; m_rgGroundEnts
	call	??0?$CUtlArray@PAVCBaseEntity@@V?$CUtlMemory@PAVCBaseEntity@@H@@@@QAE@HH@Z ; CUtlArray<CBaseEntity *,CUtlMemory<CBaseEntity *,int> >::CUtlArray<CBaseEntity *,CUtlMemory<CBaseEntity *,int> >
	push	OFFSET ??__Fm_rgGroundEnts@@YAXXZ	; `dynamic atexit destructor for 'm_rgGroundEnts''
	call	_atexit
	add	esp, 4
	pop	edi
	pop	esi
	pop	ebx
	mov	esp, ebp
	pop	ebp
	ret	0
??__Em_rgGroundEnts@@YAXXZ ENDP				; `dynamic initializer for 'm_rgGroundEnts''
text$di	ENDS
; Function compile flags: /Odtp /ZI
; File d:\!diffusion 2020\source code 2022\client-server\game_shared\utlarray.h
;	COMDAT ?ResetDbgInfo@?$CUtlArray@PAVCBaseEntity@@V?$CUtlMemory@PAVCBaseEntity@@H@@@@IAEXXZ
_TEXT	SEGMENT
_this$ = -4						; size = 4
?ResetDbgInfo@?$CUtlArray@PAVCBaseEntity@@V?$CUtlMemory@PAVCBaseEntity@@H@@@@IAEXXZ PROC ; CUtlArray<CBaseEntity *,CUtlMemory<CBaseEntity *,int> >::ResetDbgInfo, COMDAT
; _this$ = ecx

; 160  : 	{

	push	ebp
	mov	ebp, esp
	sub	esp, 68					; 00000044H
	push	ebx
	push	esi
	push	edi
	mov	DWORD PTR _this$[ebp], ecx

; 161  : 		m_pElements = Base();

	mov	ecx, DWORD PTR _this$[ebp]
	call	?Base@?$CUtlArray@PAVCBaseEntity@@V?$CUtlMemory@PAVCBaseEntity@@H@@@@QAEPAPAVCBaseEntity@@XZ ; CUtlArray<CBaseEntity *,CUtlMemory<CBaseEntity *,int> >::Base
	mov	ecx, DWORD PTR _this$[ebp]
	mov	DWORD PTR [ecx+16], eax

; 162  : 	}

	pop	edi
	pop	esi
	pop	ebx
	mov	esp, ebp
	pop	ebp
	ret	0
?ResetDbgInfo@?$CUtlArray@PAVCBaseEntity@@V?$CUtlMemory@PAVCBaseEntity@@H@@@@IAEXXZ ENDP ; CUtlArray<CBaseEntity *,CUtlMemory<CBaseEntity *,int> >::ResetDbgInfo
_TEXT	ENDS
; Function compile flags: /Odtp /ZI
; File d:\!diffusion 2020\source code 2022\client-server\game_shared\utlmemory.h
;	COMDAT ?ValidateGrowSize@?$CUtlMemory@PAVCBaseEntity@@H@@IAEXXZ
_TEXT	SEGMENT
_this$ = -4						; size = 4
?ValidateGrowSize@?$CUtlMemory@PAVCBaseEntity@@H@@IAEXXZ PROC ; CUtlMemory<CBaseEntity *,int>::ValidateGrowSize, COMDAT
; _this$ = ecx

; 148  : 	{

	push	ebp
	mov	ebp, esp
	sub	esp, 68					; 00000044H
	push	ebx
	push	esi
	push	edi
	mov	DWORD PTR _this$[ebp], ecx

; 149  : #ifdef _X360
; 150  : 		if ( m_nGrowSize && m_nGrowSize != EXTERNAL_BUFFER_MARKER )
; 151  : 		{
; 152  : 			// Max grow size at 128 bytes on XBOX
; 153  : 			const int MAX_GROW = 128;
; 154  : 			if ( m_nGrowSize * sizeof(T) > MAX_GROW )
; 155  : 			{
; 156  : 				m_nGrowSize = max( 1, MAX_GROW / sizeof(T) );
; 157  : 			}
; 158  : 		}
; 159  : #endif
; 160  : 	}

	pop	edi
	pop	esi
	pop	ebx
	mov	esp, ebp
	pop	ebp
	ret	0
?ValidateGrowSize@?$CUtlMemory@PAVCBaseEntity@@H@@IAEXXZ ENDP ; CUtlMemory<CBaseEntity *,int>::ValidateGrowSize
_TEXT	ENDS
; Function compile flags: /Odtp /ZI
; File d:\!diffusion 2020\source code 2022\client-server\game_shared\utlmemory.h
;	COMDAT ?IsReadOnly@?$CUtlMemory@PAVCBaseEntity@@H@@QBE_NXZ
_TEXT	SEGMENT
tv66 = -72						; size = 4
_this$ = -4						; size = 4
?IsReadOnly@?$CUtlMemory@PAVCBaseEntity@@H@@QBE_NXZ PROC ; CUtlMemory<CBaseEntity *,int>::IsReadOnly, COMDAT
; _this$ = ecx

; 467  : {

	push	ebp
	mov	ebp, esp
	sub	esp, 72					; 00000048H
	push	ebx
	push	esi
	push	edi
	mov	DWORD PTR _this$[ebp], ecx

; 468  : 	return (m_nGrowSize == EXTERNAL_CONST_BUFFER_MARKER);

	mov	eax, DWORD PTR _this$[ebp]
	cmp	DWORD PTR [eax+8], -2			; fffffffeH
	jne	SHORT $LN3@IsReadOnly
	mov	DWORD PTR tv66[ebp], 1
	jmp	SHORT $LN4@IsReadOnly
$LN3@IsReadOnly:
	mov	DWORD PTR tv66[ebp], 0
$LN4@IsReadOnly:
	mov	al, BYTE PTR tv66[ebp]

; 469  : }

	pop	edi
	pop	esi
	pop	ebx
	mov	esp, ebp
	pop	ebp
	ret	0
?IsReadOnly@?$CUtlMemory@PAVCBaseEntity@@H@@QBE_NXZ ENDP ; CUtlMemory<CBaseEntity *,int>::IsReadOnly
_TEXT	ENDS
; Function compile flags: /Odtp /ZI
; File d:\!diffusion 2020\source code 2022\client-server\game_shared\utlmemory.h
;	COMDAT ?IsExternallyAllocated@?$CUtlMemory@PAVCBaseEntity@@H@@QBE_NXZ
_TEXT	SEGMENT
tv66 = -72						; size = 4
_this$ = -4						; size = 4
?IsExternallyAllocated@?$CUtlMemory@PAVCBaseEntity@@H@@QBE_NXZ PROC ; CUtlMemory<CBaseEntity *,int>::IsExternallyAllocated, COMDAT
; _this$ = ecx

; 457  : {

	push	ebp
	mov	ebp, esp
	sub	esp, 72					; 00000048H
	push	ebx
	push	esi
	push	edi
	mov	DWORD PTR _this$[ebp], ecx

; 458  : 	return (m_nGrowSize < 0);

	mov	eax, DWORD PTR _this$[ebp]
	cmp	DWORD PTR [eax+8], 0
	jge	SHORT $LN3@IsExternal
	mov	DWORD PTR tv66[ebp], 1
	jmp	SHORT $LN4@IsExternal
$LN3@IsExternal:
	mov	DWORD PTR tv66[ebp], 0
$LN4@IsExternal:
	mov	al, BYTE PTR tv66[ebp]

; 459  : }

	pop	edi
	pop	esi
	pop	ebx
	mov	esp, ebp
	pop	ebp
	ret	0
?IsExternallyAllocated@?$CUtlMemory@PAVCBaseEntity@@H@@QBE_NXZ ENDP ; CUtlMemory<CBaseEntity *,int>::IsExternallyAllocated
_TEXT	ENDS
; Function compile flags: /Odtp /ZI
; File d:\!diffusion 2020\source code 2022\client-server\game_shared\utlmemory.h
;	COMDAT ?Purge@?$CUtlMemory@PAVCBaseEntity@@H@@QAEXXZ
_TEXT	SEGMENT
_this$ = -4						; size = 4
?Purge@?$CUtlMemory@PAVCBaseEntity@@H@@QAEXXZ PROC	; CUtlMemory<CBaseEntity *,int>::Purge, COMDAT
; _this$ = ecx

; 645  : {

	push	ebp
	mov	ebp, esp
	sub	esp, 68					; 00000044H
	push	ebx
	push	esi
	push	edi
	mov	DWORD PTR _this$[ebp], ecx

; 646  : 	if ( !IsExternallyAllocated() )

	mov	ecx, DWORD PTR _this$[ebp]
	call	?IsExternallyAllocated@?$CUtlMemory@PAVCBaseEntity@@H@@QBE_NXZ ; CUtlMemory<CBaseEntity *,int>::IsExternallyAllocated
	movzx	eax, al
	test	eax, eax
	jne	SHORT $LN1@Purge

; 647  : 	{
; 648  : 		if (m_pMemory)

	mov	eax, DWORD PTR _this$[ebp]
	cmp	DWORD PTR [eax], 0
	je	SHORT $LN3@Purge

; 649  : 		{
; 650  : 			free( (void*)m_pMemory );

	mov	eax, DWORD PTR _this$[ebp]
	mov	ecx, DWORD PTR [eax]
	push	ecx
	call	_free
	add	esp, 4

; 651  : 			m_pMemory = 0;

	mov	eax, DWORD PTR _this$[ebp]
	mov	DWORD PTR [eax], 0
$LN3@Purge:

; 652  : 		}
; 653  : 		m_nAllocationCount = 0;

	mov	eax, DWORD PTR _this$[ebp]
	mov	DWORD PTR [eax+4], 0
$LN1@Purge:

; 654  : 	}
; 655  : }

	pop	edi
	pop	esi
	pop	ebx
	mov	esp, ebp
	pop	ebp
	ret	0
?Purge@?$CUtlMemory@PAVCBaseEntity@@H@@QAEXXZ ENDP	; CUtlMemory<CBaseEntity *,int>::Purge
_TEXT	ENDS
; Function compile flags: /Odtp /ZI
; File d:\!diffusion 2020\source code 2022\client-server\game_shared\utlmemory.h
;	COMDAT ?Grow@?$CUtlMemory@PAVCBaseEntity@@H@@QAEXH@Z
_TEXT	SEGMENT
_nAllocationRequested$ = -8				; size = 4
_this$ = -4						; size = 4
_num$ = 8						; size = 4
?Grow@?$CUtlMemory@PAVCBaseEntity@@H@@QAEXH@Z PROC	; CUtlMemory<CBaseEntity *,int>::Grow, COMDAT
; _this$ = ecx

; 560  : {

	push	ebp
	mov	ebp, esp
	sub	esp, 72					; 00000048H
	push	ebx
	push	esi
	push	edi
	mov	DWORD PTR _this$[ebp], ecx

; 561  : 	assert( num > 0 );

	cmp	DWORD PTR _num$[ebp], 0
	jg	SHORT $LN12@Grow
	push	561					; 00000231H
	push	OFFSET ??_C@_1JE@CIIIAKCN@?$AAd?$AA?3?$AA?2?$AA?$CB?$AAd?$AAi?$AAf?$AAf?$AAu?$AAs?$AAi?$AAo?$AAn?$AA?5?$AA2?$AA0?$AA2?$AA0?$AA?2?$AAs?$AAo?$AAu?$AAr?$AAc?$AAe?$AA?5?$AAc?$AAo?$AAd?$AAe?$AA?5?$AA2@
	push	OFFSET ??_C@_1BA@PKCLMAEA@?$AAn?$AAu?$AAm?$AA?5?$AA?$DO?$AA?5?$AA0?$AA?$AA@
	call	__wassert
	add	esp, 12					; 0000000cH
$LN12@Grow:

; 562  : 
; 563  : 	if ( IsExternallyAllocated() )

	mov	ecx, DWORD PTR _this$[ebp]
	call	?IsExternallyAllocated@?$CUtlMemory@PAVCBaseEntity@@H@@QBE_NXZ ; CUtlMemory<CBaseEntity *,int>::IsExternallyAllocated
	movzx	eax, al
	test	eax, eax
	je	SHORT $LN4@Grow

; 564  : 	{
; 565  : 		// Can't grow a buffer whose memory was externally allocated 
; 566  : 		assert(0);

	xor	eax, eax
	jne	SHORT $LN13@Grow
	push	566					; 00000236H
	push	OFFSET ??_C@_1JE@CIIIAKCN@?$AAd?$AA?3?$AA?2?$AA?$CB?$AAd?$AAi?$AAf?$AAf?$AAu?$AAs?$AAi?$AAo?$AAn?$AA?5?$AA2?$AA0?$AA2?$AA0?$AA?2?$AAs?$AAo?$AAu?$AAr?$AAc?$AAe?$AA?5?$AAc?$AAo?$AAd?$AAe?$AA?5?$AA2@
	push	OFFSET ??_C@_13COJANIEC@?$AA0?$AA?$AA@
	call	__wassert
	add	esp, 12					; 0000000cH
$LN13@Grow:

; 567  : 		return;

	jmp	$LN1@Grow
$LN4@Grow:

; 568  : 	}
; 569  : 
; 570  : 	// Make sure we have at least numallocated + num allocations.
; 571  : 	// Use the grow rules specified for this memory (in m_nGrowSize)
; 572  : 	int nAllocationRequested = m_nAllocationCount + num;

	mov	eax, DWORD PTR _this$[ebp]
	mov	ecx, DWORD PTR [eax+4]
	add	ecx, DWORD PTR _num$[ebp]
	mov	DWORD PTR _nAllocationRequested$[ebp], ecx

; 573  : 
; 574  : 	m_nAllocationCount = UtlMemory_CalcNewAllocationCount( m_nAllocationCount, m_nGrowSize, nAllocationRequested, sizeof(T) );

	push	4
	mov	eax, DWORD PTR _nAllocationRequested$[ebp]
	push	eax
	mov	ecx, DWORD PTR _this$[ebp]
	mov	edx, DWORD PTR [ecx+8]
	push	edx
	mov	eax, DWORD PTR _this$[ebp]
	mov	ecx, DWORD PTR [eax+4]
	push	ecx
	call	?UtlMemory_CalcNewAllocationCount@@YAHHHHH@Z ; UtlMemory_CalcNewAllocationCount
	add	esp, 16					; 00000010H
	mov	edx, DWORD PTR _this$[ebp]
	mov	DWORD PTR [edx+4], eax

; 575  : 
; 576  : 	// if m_nAllocationRequested wraps index type I, recalculate
; 577  : 	if ( ( int )( I )m_nAllocationCount < nAllocationRequested )

	mov	eax, DWORD PTR _this$[ebp]
	mov	ecx, DWORD PTR [eax+4]
	cmp	ecx, DWORD PTR _nAllocationRequested$[ebp]
	jge	SHORT $LN5@Grow

; 578  : 	{
; 579  : 		if ( ( int )( I )m_nAllocationCount == 0 && ( int )( I )( m_nAllocationCount - 1 ) >= nAllocationRequested )

	mov	eax, DWORD PTR _this$[ebp]
	cmp	DWORD PTR [eax+4], 0
	jne	SHORT $LN6@Grow
	mov	eax, DWORD PTR _this$[ebp]
	mov	ecx, DWORD PTR [eax+4]
	sub	ecx, 1
	cmp	ecx, DWORD PTR _nAllocationRequested$[ebp]
	jl	SHORT $LN6@Grow

; 580  : 		{
; 581  : 			--m_nAllocationCount; // deal w/ the common case of m_nAllocationCount == MAX_USHORT + 1

	mov	eax, DWORD PTR _this$[ebp]
	mov	ecx, DWORD PTR [eax+4]
	sub	ecx, 1
	mov	edx, DWORD PTR _this$[ebp]
	mov	DWORD PTR [edx+4], ecx

; 582  : 		}
; 583  : 		else

	jmp	SHORT $LN5@Grow
$LN6@Grow:

; 584  : 		{
; 585  : 			if ( ( int )( I )nAllocationRequested != nAllocationRequested )

	mov	eax, DWORD PTR _nAllocationRequested$[ebp]
	cmp	eax, DWORD PTR _nAllocationRequested$[ebp]
	je	SHORT $LN2@Grow

; 586  : 			{
; 587  : 				// we've been asked to grow memory to a size s.t. the index type can't address the requested amount of memory
; 588  : 				assert( 0 );

	xor	eax, eax
	jne	SHORT $LN14@Grow
	push	588					; 0000024cH
	push	OFFSET ??_C@_1JE@CIIIAKCN@?$AAd?$AA?3?$AA?2?$AA?$CB?$AAd?$AAi?$AAf?$AAf?$AAu?$AAs?$AAi?$AAo?$AAn?$AA?5?$AA2?$AA0?$AA2?$AA0?$AA?2?$AAs?$AAo?$AAu?$AAr?$AAc?$AAe?$AA?5?$AAc?$AAo?$AAd?$AAe?$AA?5?$AA2@
	push	OFFSET ??_C@_13COJANIEC@?$AA0?$AA?$AA@
	call	__wassert
	add	esp, 12					; 0000000cH
$LN14@Grow:

; 589  : 				return;

	jmp	$LN1@Grow
$LN2@Grow:

; 590  : 			}
; 591  : 			while ( ( int )( I )m_nAllocationCount < nAllocationRequested )

	mov	eax, DWORD PTR _this$[ebp]
	mov	ecx, DWORD PTR [eax+4]
	cmp	ecx, DWORD PTR _nAllocationRequested$[ebp]
	jge	SHORT $LN5@Grow

; 592  : 			{
; 593  : 				m_nAllocationCount = ( m_nAllocationCount + nAllocationRequested ) / 2;

	mov	eax, DWORD PTR _this$[ebp]
	mov	eax, DWORD PTR [eax+4]
	add	eax, DWORD PTR _nAllocationRequested$[ebp]
	cdq
	sub	eax, edx
	sar	eax, 1
	mov	ecx, DWORD PTR _this$[ebp]
	mov	DWORD PTR [ecx+4], eax

; 594  : 			}

	jmp	SHORT $LN2@Grow
$LN5@Grow:

; 595  : 		}
; 596  : 	}
; 597  : 
; 598  : 	if (m_pMemory)

	mov	eax, DWORD PTR _this$[ebp]
	cmp	DWORD PTR [eax], 0
	je	SHORT $LN9@Grow

; 599  : 	{
; 600  : 		m_pMemory = (T*)realloc( m_pMemory, m_nAllocationCount * sizeof(T) );

	mov	eax, DWORD PTR _this$[ebp]
	mov	ecx, DWORD PTR [eax+4]
	shl	ecx, 2
	push	ecx
	mov	edx, DWORD PTR _this$[ebp]
	mov	eax, DWORD PTR [edx]
	push	eax
	call	_realloc
	add	esp, 8
	mov	ecx, DWORD PTR _this$[ebp]
	mov	DWORD PTR [ecx], eax

; 601  : 		assert( m_pMemory );

	mov	eax, DWORD PTR _this$[ebp]
	cmp	DWORD PTR [eax], 0
	jne	SHORT $LN15@Grow
	push	601					; 00000259H
	push	OFFSET ??_C@_1JE@CIIIAKCN@?$AAd?$AA?3?$AA?2?$AA?$CB?$AAd?$AAi?$AAf?$AAf?$AAu?$AAs?$AAi?$AAo?$AAn?$AA?5?$AA2?$AA0?$AA2?$AA0?$AA?2?$AAs?$AAo?$AAu?$AAr?$AAc?$AAe?$AA?5?$AAc?$AAo?$AAd?$AAe?$AA?5?$AA2@
	push	OFFSET ??_C@_1BE@OPPFELHC@?$AAm?$AA_?$AAp?$AAM?$AAe?$AAm?$AAo?$AAr?$AAy?$AA?$AA@
	call	__wassert
	add	esp, 12					; 0000000cH
$LN15@Grow:

; 602  : 	}
; 603  : 	else

	jmp	SHORT $LN1@Grow
$LN9@Grow:

; 604  : 	{
; 605  : 		m_pMemory = (T*)malloc( m_nAllocationCount * sizeof(T) );

	mov	eax, DWORD PTR _this$[ebp]
	mov	ecx, DWORD PTR [eax+4]
	shl	ecx, 2
	push	ecx
	call	_malloc
	add	esp, 4
	mov	edx, DWORD PTR _this$[ebp]
	mov	DWORD PTR [edx], eax

; 606  : 		assert( m_pMemory );

	mov	eax, DWORD PTR _this$[ebp]
	cmp	DWORD PTR [eax], 0
	jne	SHORT $LN1@Grow
	push	606					; 0000025eH
	push	OFFSET ??_C@_1JE@CIIIAKCN@?$AAd?$AA?3?$AA?2?$AA?$CB?$AAd?$AAi?$AAf?$AAf?$AAu?$AAs?$AAi?$AAo?$AAn?$AA?5?$AA2?$AA0?$AA2?$AA0?$AA?2?$AAs?$AAo?$AAu?$AAr?$AAc?$AAe?$AA?5?$AAc?$AAo?$AAd?$AAe?$AA?5?$AA2@
	push	OFFSET ??_C@_1BE@OPPFELHC@?$AAm?$AA_?$AAp?$AAM?$AAe?$AAm?$AAo?$AAr?$AAy?$AA?$AA@
	call	__wassert
	add	esp, 12					; 0000000cH
$LN1@Grow:

; 607  : 	}
; 608  : }

	pop	edi
	pop	esi
	pop	ebx
	mov	esp, ebp
	pop	ebp
	ret	4
?Grow@?$CUtlMemory@PAVCBaseEntity@@H@@QAEXH@Z ENDP	; CUtlMemory<CBaseEntity *,int>::Grow
_TEXT	ENDS
; Function compile flags: /Odtp /ZI
; File d:\!diffusion 2020\source code 2022\client-server\game_shared\utlmemory.h
;	COMDAT ?NumAllocated@?$CUtlMemory@PAVCBaseEntity@@H@@QBEHXZ
_TEXT	SEGMENT
_this$ = -4						; size = 4
?NumAllocated@?$CUtlMemory@PAVCBaseEntity@@H@@QBEHXZ PROC ; CUtlMemory<CBaseEntity *,int>::NumAllocated, COMDAT
; _this$ = ecx

; 504  : {

	push	ebp
	mov	ebp, esp
	sub	esp, 68					; 00000044H
	push	ebx
	push	esi
	push	edi
	mov	DWORD PTR _this$[ebp], ecx

; 505  : 	return m_nAllocationCount;

	mov	eax, DWORD PTR _this$[ebp]
	mov	eax, DWORD PTR [eax+4]

; 506  : }

	pop	edi
	pop	esi
	pop	ebx
	mov	esp, ebp
	pop	ebp
	ret	0
?NumAllocated@?$CUtlMemory@PAVCBaseEntity@@H@@QBEHXZ ENDP ; CUtlMemory<CBaseEntity *,int>::NumAllocated
_TEXT	ENDS
; Function compile flags: /Odtp /ZI
; File d:\!diffusion 2020\source code 2022\client-server\game_shared\utlmemory.h
;	COMDAT ?Base@?$CUtlMemory@PAVCBaseEntity@@H@@QAEPAPAVCBaseEntity@@XZ
_TEXT	SEGMENT
_this$ = -4						; size = 4
?Base@?$CUtlMemory@PAVCBaseEntity@@H@@QAEPAPAVCBaseEntity@@XZ PROC ; CUtlMemory<CBaseEntity *,int>::Base, COMDAT
; _this$ = ecx

; 487  : {

	push	ebp
	mov	ebp, esp
	sub	esp, 68					; 00000044H
	push	ebx
	push	esi
	push	edi
	mov	DWORD PTR _this$[ebp], ecx

; 488  : 	assert( !IsReadOnly() );

	mov	ecx, DWORD PTR _this$[ebp]
	call	?IsReadOnly@?$CUtlMemory@PAVCBaseEntity@@H@@QBE_NXZ ; CUtlMemory<CBaseEntity *,int>::IsReadOnly
	movzx	eax, al
	test	eax, eax
	je	SHORT $LN3@Base
	push	488					; 000001e8H
	push	OFFSET ??_C@_1JE@CIIIAKCN@?$AAd?$AA?3?$AA?2?$AA?$CB?$AAd?$AAi?$AAf?$AAf?$AAu?$AAs?$AAi?$AAo?$AAn?$AA?5?$AA2?$AA0?$AA2?$AA0?$AA?2?$AAs?$AAo?$AAu?$AAr?$AAc?$AAe?$AA?5?$AAc?$AAo?$AAd?$AAe?$AA?5?$AA2@
	push	OFFSET ??_C@_1BM@PFNFCCHH@?$AA?$CB?$AAI?$AAs?$AAR?$AAe?$AAa?$AAd?$AAO?$AAn?$AAl?$AAy?$AA?$CI?$AA?$CJ?$AA?$AA@
	call	__wassert
	add	esp, 12					; 0000000cH
$LN3@Base:

; 489  : 	return m_pMemory;

	mov	eax, DWORD PTR _this$[ebp]
	mov	eax, DWORD PTR [eax]

; 490  : }

	pop	edi
	pop	esi
	pop	ebx
	mov	esp, ebp
	pop	ebp
	ret	0
?Base@?$CUtlMemory@PAVCBaseEntity@@H@@QAEPAPAVCBaseEntity@@XZ ENDP ; CUtlMemory<CBaseEntity *,int>::Base
_TEXT	ENDS
; Function compile flags: /Odtp /ZI
; File d:\!diffusion 2020\source code 2022\client-server\game_shared\utlmemory.h
;	COMDAT ?IsIdxValid@?$CUtlMemory@PAVCBaseEntity@@H@@QBE_NH@Z
_TEXT	SEGMENT
tv67 = -72						; size = 4
_this$ = -4						; size = 4
_i$ = 8							; size = 4
?IsIdxValid@?$CUtlMemory@PAVCBaseEntity@@H@@QBE_NH@Z PROC ; CUtlMemory<CBaseEntity *,int>::IsIdxValid, COMDAT
; _this$ = ecx

; 520  : {

	push	ebp
	mov	ebp, esp
	sub	esp, 72					; 00000048H
	push	ebx
	push	esi
	push	edi
	mov	DWORD PTR _this$[ebp], ecx

; 521  : 	return ( ((int) i) >= 0 ) && ( ((int) i) < m_nAllocationCount );

	cmp	DWORD PTR _i$[ebp], 0
	jl	SHORT $LN3@IsIdxValid
	mov	eax, DWORD PTR _this$[ebp]
	mov	ecx, DWORD PTR _i$[ebp]
	cmp	ecx, DWORD PTR [eax+4]
	jge	SHORT $LN3@IsIdxValid
	mov	DWORD PTR tv67[ebp], 1
	jmp	SHORT $LN4@IsIdxValid
$LN3@IsIdxValid:
	mov	DWORD PTR tv67[ebp], 0
$LN4@IsIdxValid:
	mov	al, BYTE PTR tv67[ebp]

; 522  : }

	pop	edi
	pop	esi
	pop	ebx
	mov	esp, ebp
	pop	ebp
	ret	4
?IsIdxValid@?$CUtlMemory@PAVCBaseEntity@@H@@QBE_NH@Z ENDP ; CUtlMemory<CBaseEntity *,int>::IsIdxValid
_TEXT	ENDS
; Function compile flags: /Odtp /ZI
; File d:\!diffusion 2020\source code 2022\client-server\game_shared\utlmemory.h
;	COMDAT ??A?$CUtlMemory@PAVCBaseEntity@@H@@QAEAAPAVCBaseEntity@@H@Z
_TEXT	SEGMENT
_this$ = -4						; size = 4
_i$ = 8							; size = 4
??A?$CUtlMemory@PAVCBaseEntity@@H@@QAEAAPAVCBaseEntity@@H@Z PROC ; CUtlMemory<CBaseEntity *,int>::operator[], COMDAT
; _this$ = ecx

; 423  : {

	push	ebp
	mov	ebp, esp
	sub	esp, 68					; 00000044H
	push	ebx
	push	esi
	push	edi
	mov	DWORD PTR _this$[ebp], ecx

; 424  : 	assert( !IsReadOnly() );

	mov	ecx, DWORD PTR _this$[ebp]
	call	?IsReadOnly@?$CUtlMemory@PAVCBaseEntity@@H@@QBE_NXZ ; CUtlMemory<CBaseEntity *,int>::IsReadOnly
	movzx	eax, al
	test	eax, eax
	je	SHORT $LN3@operator
	push	424					; 000001a8H
	push	OFFSET ??_C@_1JE@CIIIAKCN@?$AAd?$AA?3?$AA?2?$AA?$CB?$AAd?$AAi?$AAf?$AAf?$AAu?$AAs?$AAi?$AAo?$AAn?$AA?5?$AA2?$AA0?$AA2?$AA0?$AA?2?$AAs?$AAo?$AAu?$AAr?$AAc?$AAe?$AA?5?$AAc?$AAo?$AAd?$AAe?$AA?5?$AA2@
	push	OFFSET ??_C@_1BM@PFNFCCHH@?$AA?$CB?$AAI?$AAs?$AAR?$AAe?$AAa?$AAd?$AAO?$AAn?$AAl?$AAy?$AA?$CI?$AA?$CJ?$AA?$AA@
	call	__wassert
	add	esp, 12					; 0000000cH
$LN3@operator:

; 425  : 	assert( IsIdxValid(i) );

	mov	eax, DWORD PTR _i$[ebp]
	push	eax
	mov	ecx, DWORD PTR _this$[ebp]
	call	?IsIdxValid@?$CUtlMemory@PAVCBaseEntity@@H@@QBE_NH@Z ; CUtlMemory<CBaseEntity *,int>::IsIdxValid
	movzx	ecx, al
	test	ecx, ecx
	jne	SHORT $LN4@operator
	push	425					; 000001a9H
	push	OFFSET ??_C@_1JE@CIIIAKCN@?$AAd?$AA?3?$AA?2?$AA?$CB?$AAd?$AAi?$AAf?$AAf?$AAu?$AAs?$AAi?$AAo?$AAn?$AA?5?$AA2?$AA0?$AA2?$AA0?$AA?2?$AAs?$AAo?$AAu?$AAr?$AAc?$AAe?$AA?5?$AAc?$AAo?$AAd?$AAe?$AA?5?$AA2@
	push	OFFSET ??_C@_1BM@CKILBAKK@?$AAI?$AAs?$AAI?$AAd?$AAx?$AAV?$AAa?$AAl?$AAi?$AAd?$AA?$CI?$AAi?$AA?$CJ?$AA?$AA@
	call	__wassert
	add	esp, 12					; 0000000cH
$LN4@operator:

; 426  : 	return m_pMemory[i];

	mov	eax, DWORD PTR _this$[ebp]
	mov	ecx, DWORD PTR [eax]
	mov	edx, DWORD PTR _i$[ebp]
	lea	eax, DWORD PTR [ecx+edx*4]

; 427  : }

	pop	edi
	pop	esi
	pop	ebx
	mov	esp, ebp
	pop	ebp
	ret	4
??A?$CUtlMemory@PAVCBaseEntity@@H@@QAEAAPAVCBaseEntity@@H@Z ENDP ; CUtlMemory<CBaseEntity *,int>::operator[]
_TEXT	ENDS
; Function compile flags: /Odtp /ZI
; File d:\!diffusion 2020\source code 2022\client-server\game_shared\utlmemory.h
;	COMDAT ??1?$CUtlMemory@PAVCBaseEntity@@H@@QAE@XZ
_TEXT	SEGMENT
_this$ = -16						; size = 4
__$EHRec$ = -12						; size = 12
??1?$CUtlMemory@PAVCBaseEntity@@H@@QAE@XZ PROC		; CUtlMemory<CBaseEntity *,int>::~CUtlMemory<CBaseEntity *,int>, COMDAT
; _this$ = ecx

; 322  : {

	push	ebp
	mov	ebp, esp
	push	-1
	push	__ehhandler$??1?$CUtlMemory@PAVCBaseEntity@@H@@QAE@XZ
	mov	eax, DWORD PTR fs:0
	push	eax
	sub	esp, 68					; 00000044H
	push	ebx
	push	esi
	push	edi
	mov	eax, DWORD PTR ___security_cookie
	xor	eax, ebp
	push	eax
	lea	eax, DWORD PTR __$EHRec$[ebp]
	mov	DWORD PTR fs:0, eax
	mov	DWORD PTR _this$[ebp], ecx

; 323  : 	Purge();

	mov	ecx, DWORD PTR _this$[ebp]
	call	?Purge@?$CUtlMemory@PAVCBaseEntity@@H@@QAEXXZ ; CUtlMemory<CBaseEntity *,int>::Purge

; 324  : }

	mov	ecx, DWORD PTR __$EHRec$[ebp]
	mov	DWORD PTR fs:0, ecx
	pop	ecx
	pop	edi
	pop	esi
	pop	ebx
	mov	esp, ebp
	pop	ebp
	ret	0
_TEXT	ENDS
;	COMDAT text$x
text$x	SEGMENT
__ehhandler$??1?$CUtlMemory@PAVCBaseEntity@@H@@QAE@XZ:
	mov	edx, DWORD PTR [esp+8]
	lea	eax, DWORD PTR [edx+12]
	mov	ecx, DWORD PTR [edx-84]
	xor	ecx, eax
	call	@__security_check_cookie@4
	mov	eax, OFFSET __ehfuncinfo$??1?$CUtlMemory@PAVCBaseEntity@@H@@QAE@XZ
	jmp	___CxxFrameHandler3
text$x	ENDS
??1?$CUtlMemory@PAVCBaseEntity@@H@@QAE@XZ ENDP		; CUtlMemory<CBaseEntity *,int>::~CUtlMemory<CBaseEntity *,int>
; Function compile flags: /Odtp /ZI
; File d:\!diffusion 2020\source code 2022\client-server\game_shared\utlmemory.h
;	COMDAT ??0?$CUtlMemory@PAVCBaseEntity@@H@@QAE@HH@Z
_TEXT	SEGMENT
_this$ = -4						; size = 4
_nGrowSize$ = 8						; size = 4
_nInitAllocationCount$ = 12				; size = 4
??0?$CUtlMemory@PAVCBaseEntity@@H@@QAE@HH@Z PROC	; CUtlMemory<CBaseEntity *,int>::CUtlMemory<CBaseEntity *,int>, COMDAT
; _this$ = ecx

; 295  : {

	push	ebp
	mov	ebp, esp
	sub	esp, 68					; 00000044H
	push	ebx
	push	esi
	push	edi
	mov	DWORD PTR _this$[ebp], ecx

; 293  : CUtlMemory<T,I>::CUtlMemory( int nGrowSize, int nInitAllocationCount ) : m_pMemory(0), 

	mov	eax, DWORD PTR _this$[ebp]
	mov	DWORD PTR [eax], 0

; 294  : 	m_nAllocationCount( nInitAllocationCount ), m_nGrowSize( nGrowSize )

	mov	eax, DWORD PTR _this$[ebp]
	mov	ecx, DWORD PTR _nInitAllocationCount$[ebp]
	mov	DWORD PTR [eax+4], ecx
	mov	eax, DWORD PTR _this$[ebp]
	mov	ecx, DWORD PTR _nGrowSize$[ebp]
	mov	DWORD PTR [eax+8], ecx

; 296  : 	ValidateGrowSize();

	mov	ecx, DWORD PTR _this$[ebp]
	call	?ValidateGrowSize@?$CUtlMemory@PAVCBaseEntity@@H@@IAEXXZ ; CUtlMemory<CBaseEntity *,int>::ValidateGrowSize

; 297  : 	assert( nGrowSize >= 0 );

	cmp	DWORD PTR _nGrowSize$[ebp], 0
	jge	SHORT $LN4@CUtlMemory
	push	297					; 00000129H
	push	OFFSET ??_C@_1JE@CIIIAKCN@?$AAd?$AA?3?$AA?2?$AA?$CB?$AAd?$AAi?$AAf?$AAf?$AAu?$AAs?$AAi?$AAo?$AAn?$AA?5?$AA2?$AA0?$AA2?$AA0?$AA?2?$AAs?$AAo?$AAu?$AAr?$AAc?$AAe?$AA?5?$AAc?$AAo?$AAd?$AAe?$AA?5?$AA2@
	push	OFFSET ??_C@_1BO@FOOHAONO@?$AAn?$AAG?$AAr?$AAo?$AAw?$AAS?$AAi?$AAz?$AAe?$AA?5?$AA?$DO?$AA?$DN?$AA?5?$AA0?$AA?$AA@
	call	__wassert
	add	esp, 12					; 0000000cH
$LN4@CUtlMemory:

; 298  : 	if (m_nAllocationCount)

	mov	eax, DWORD PTR _this$[ebp]
	cmp	DWORD PTR [eax+4], 0
	je	SHORT $LN1@CUtlMemory

; 299  : 	{
; 300  : 		m_pMemory = (T*)malloc( m_nAllocationCount * sizeof(T) );

	mov	eax, DWORD PTR _this$[ebp]
	mov	ecx, DWORD PTR [eax+4]
	shl	ecx, 2
	push	ecx
	call	_malloc
	add	esp, 4
	mov	edx, DWORD PTR _this$[ebp]
	mov	DWORD PTR [edx], eax
$LN1@CUtlMemory:

; 301  : 	}
; 302  : }

	mov	eax, DWORD PTR _this$[ebp]
	pop	edi
	pop	esi
	pop	ebx
	mov	esp, ebp
	pop	ebp
	ret	8
??0?$CUtlMemory@PAVCBaseEntity@@H@@QAE@HH@Z ENDP	; CUtlMemory<CBaseEntity *,int>::CUtlMemory<CBaseEntity *,int>
_TEXT	ENDS
; Function compile flags: /Odtp /ZI
; File d:\!diffusion 2020\source code 2022\client-server\game_shared\utlarray.h
;	COMDAT ?ShiftElementsRight@?$CUtlArray@PAVCBaseEntity@@V?$CUtlMemory@PAVCBaseEntity@@H@@@@IAEXHH@Z
_TEXT	SEGMENT
_numToMove$ = -8					; size = 4
_this$ = -4						; size = 4
_elem$ = 8						; size = 4
_num$ = 12						; size = 4
?ShiftElementsRight@?$CUtlArray@PAVCBaseEntity@@V?$CUtlMemory@PAVCBaseEntity@@H@@@@IAEXHH@Z PROC ; CUtlArray<CBaseEntity *,CUtlMemory<CBaseEntity *,int> >::ShiftElementsRight, COMDAT
; _this$ = ecx

; 447  : {

	push	ebp
	mov	ebp, esp
	sub	esp, 72					; 00000048H
	push	ebx
	push	esi
	push	edi
	mov	DWORD PTR _this$[ebp], ecx

; 448  : 	assert( IsValidIndex(elem) || ( m_Size == 0 ) || ( num == 0 ));

	mov	eax, DWORD PTR _elem$[ebp]
	push	eax
	mov	ecx, DWORD PTR _this$[ebp]
	call	?IsValidIndex@?$CUtlArray@PAVCBaseEntity@@V?$CUtlMemory@PAVCBaseEntity@@H@@@@QBE_NH@Z ; CUtlArray<CBaseEntity *,CUtlMemory<CBaseEntity *,int> >::IsValidIndex
	movzx	ecx, al
	test	ecx, ecx
	jne	SHORT $LN4@ShiftEleme
	mov	edx, DWORD PTR _this$[ebp]
	cmp	DWORD PTR [edx+12], 0
	je	SHORT $LN4@ShiftEleme
	cmp	DWORD PTR _num$[ebp], 0
	je	SHORT $LN4@ShiftEleme
	push	448					; 000001c0H
	push	OFFSET ??_C@_1JC@EMNIBBBG@?$AAd?$AA?3?$AA?2?$AA?$CB?$AAd?$AAi?$AAf?$AAf?$AAu?$AAs?$AAi?$AAo?$AAn?$AA?5?$AA2?$AA0?$AA2?$AA0?$AA?2?$AAs?$AAo?$AAu?$AAr?$AAc?$AAe?$AA?5?$AAc?$AAo?$AAd?$AAe?$AA?5?$AA2@
	push	OFFSET ??_C@_1GM@CDMJDFPA@?$AAI?$AAs?$AAV?$AAa?$AAl?$AAi?$AAd?$AAI?$AAn?$AAd?$AAe?$AAx?$AA?$CI?$AAe?$AAl?$AAe?$AAm?$AA?$CJ?$AA?5?$AA?$HM?$AA?$HM?$AA?5?$AA?$CI?$AA?5?$AAm?$AA_?$AAS?$AAi?$AAz?$AAe?$AA?5?$AA?$DN@
	call	__wassert
	add	esp, 12					; 0000000cH
$LN4@ShiftEleme:

; 449  : 	int numToMove = m_Size - elem - num;

	mov	eax, DWORD PTR _this$[ebp]
	mov	ecx, DWORD PTR [eax+12]
	sub	ecx, DWORD PTR _elem$[ebp]
	sub	ecx, DWORD PTR _num$[ebp]
	mov	DWORD PTR _numToMove$[ebp], ecx

; 450  : 	if ((numToMove > 0) && (num > 0))

	cmp	DWORD PTR _numToMove$[ebp], 0
	jle	SHORT $LN1@ShiftEleme
	cmp	DWORD PTR _num$[ebp], 0
	jle	SHORT $LN1@ShiftEleme

; 451  : 		memmove( &Element(elem+num), &Element(elem), numToMove * sizeof(T) );

	mov	eax, DWORD PTR _numToMove$[ebp]
	shl	eax, 2
	push	eax
	mov	ecx, DWORD PTR _elem$[ebp]
	push	ecx
	mov	ecx, DWORD PTR _this$[ebp]
	call	?Element@?$CUtlArray@PAVCBaseEntity@@V?$CUtlMemory@PAVCBaseEntity@@H@@@@QAEAAPAVCBaseEntity@@H@Z ; CUtlArray<CBaseEntity *,CUtlMemory<CBaseEntity *,int> >::Element
	push	eax
	mov	edx, DWORD PTR _elem$[ebp]
	add	edx, DWORD PTR _num$[ebp]
	push	edx
	mov	ecx, DWORD PTR _this$[ebp]
	call	?Element@?$CUtlArray@PAVCBaseEntity@@V?$CUtlMemory@PAVCBaseEntity@@H@@@@QAEAAPAVCBaseEntity@@H@Z ; CUtlArray<CBaseEntity *,CUtlMemory<CBaseEntity *,int> >::Element
	push	eax
	call	_memmove
	add	esp, 12					; 0000000cH
$LN1@ShiftEleme:

; 452  : }

	pop	edi
	pop	esi
	pop	ebx
	mov	esp, ebp
	pop	ebp
	ret	8
?ShiftElementsRight@?$CUtlArray@PAVCBaseEntity@@V?$CUtlMemory@PAVCBaseEntity@@H@@@@IAEXHH@Z ENDP ; CUtlArray<CBaseEntity *,CUtlMemory<CBaseEntity *,int> >::ShiftElementsRight
_TEXT	ENDS
; Function compile flags: /Odtp /ZI
; File d:\!diffusion 2020\source code 2022\client-server\game_shared\utlarray.h
;	COMDAT ?GrowVector@?$CUtlArray@PAVCBaseEntity@@V?$CUtlMemory@PAVCBaseEntity@@H@@@@IAEXH@Z
_TEXT	SEGMENT
_this$ = -4						; size = 4
_num$ = 8						; size = 4
?GrowVector@?$CUtlArray@PAVCBaseEntity@@V?$CUtlMemory@PAVCBaseEntity@@H@@@@IAEXH@Z PROC ; CUtlArray<CBaseEntity *,CUtlMemory<CBaseEntity *,int> >::GrowVector, COMDAT
; _this$ = ecx

; 374  : {

	push	ebp
	mov	ebp, esp
	sub	esp, 68					; 00000044H
	push	ebx
	push	esi
	push	edi
	mov	DWORD PTR _this$[ebp], ecx

; 375  : 	if (m_Size + num > m_Memory.NumAllocated())

	mov	eax, DWORD PTR _this$[ebp]
	mov	esi, DWORD PTR [eax+12]
	add	esi, DWORD PTR _num$[ebp]
	mov	ecx, DWORD PTR _this$[ebp]
	call	?NumAllocated@?$CUtlMemory@PAVCBaseEntity@@H@@QBEHXZ ; CUtlMemory<CBaseEntity *,int>::NumAllocated
	cmp	esi, eax
	jle	SHORT $LN2@GrowVector

; 376  : 	{
; 377  : 		m_Memory.Grow( m_Size + num - m_Memory.NumAllocated() );

	mov	eax, DWORD PTR _this$[ebp]
	mov	esi, DWORD PTR [eax+12]
	add	esi, DWORD PTR _num$[ebp]
	mov	ecx, DWORD PTR _this$[ebp]
	call	?NumAllocated@?$CUtlMemory@PAVCBaseEntity@@H@@QBEHXZ ; CUtlMemory<CBaseEntity *,int>::NumAllocated
	sub	esi, eax
	push	esi
	mov	ecx, DWORD PTR _this$[ebp]
	call	?Grow@?$CUtlMemory@PAVCBaseEntity@@H@@QAEXH@Z ; CUtlMemory<CBaseEntity *,int>::Grow
$LN2@GrowVector:

; 378  : 	}
; 379  : 
; 380  : 	m_Size += num;

	mov	eax, DWORD PTR _this$[ebp]
	mov	ecx, DWORD PTR [eax+12]
	add	ecx, DWORD PTR _num$[ebp]
	mov	edx, DWORD PTR _this$[ebp]
	mov	DWORD PTR [edx+12], ecx

; 381  : 	ResetDbgInfo();

	mov	ecx, DWORD PTR _this$[ebp]
	call	?ResetDbgInfo@?$CUtlArray@PAVCBaseEntity@@V?$CUtlMemory@PAVCBaseEntity@@H@@@@IAEXXZ ; CUtlArray<CBaseEntity *,CUtlMemory<CBaseEntity *,int> >::ResetDbgInfo

; 382  : }

	pop	edi
	pop	esi
	pop	ebx
	mov	esp, ebp
	pop	ebp
	ret	4
?GrowVector@?$CUtlArray@PAVCBaseEntity@@V?$CUtlMemory@PAVCBaseEntity@@H@@@@IAEXH@Z ENDP ; CUtlArray<CBaseEntity *,CUtlMemory<CBaseEntity *,int> >::GrowVector
_TEXT	ENDS
; Function compile flags: /Odtp /ZI
; File d:\!diffusion 2020\source code 2022\client-server\game_shared\utlarray.h
;	COMDAT ?Purge@?$CUtlArray@PAVCBaseEntity@@V?$CUtlMemory@PAVCBaseEntity@@H@@@@QAEXXZ
_TEXT	SEGMENT
_this$ = -4						; size = 4
?Purge@?$CUtlArray@PAVCBaseEntity@@V?$CUtlMemory@PAVCBaseEntity@@H@@@@QAEXXZ PROC ; CUtlArray<CBaseEntity *,CUtlMemory<CBaseEntity *,int> >::Purge, COMDAT
; _this$ = ecx

; 742  : {

	push	ebp
	mov	ebp, esp
	sub	esp, 68					; 00000044H
	push	ebx
	push	esi
	push	edi
	mov	DWORD PTR _this$[ebp], ecx

; 743  : 	RemoveAll();

	mov	ecx, DWORD PTR _this$[ebp]
	call	?RemoveAll@?$CUtlArray@PAVCBaseEntity@@V?$CUtlMemory@PAVCBaseEntity@@H@@@@QAEXXZ ; CUtlArray<CBaseEntity *,CUtlMemory<CBaseEntity *,int> >::RemoveAll

; 744  : 	m_Memory.Purge();

	mov	ecx, DWORD PTR _this$[ebp]
	call	?Purge@?$CUtlMemory@PAVCBaseEntity@@H@@QAEXXZ ; CUtlMemory<CBaseEntity *,int>::Purge

; 745  : 	ResetDbgInfo();

	mov	ecx, DWORD PTR _this$[ebp]
	call	?ResetDbgInfo@?$CUtlArray@PAVCBaseEntity@@V?$CUtlMemory@PAVCBaseEntity@@H@@@@IAEXXZ ; CUtlArray<CBaseEntity *,CUtlMemory<CBaseEntity *,int> >::ResetDbgInfo

; 746  : }

	pop	edi
	pop	esi
	pop	ebx
	mov	esp, ebp
	pop	ebp
	ret	0
?Purge@?$CUtlArray@PAVCBaseEntity@@V?$CUtlMemory@PAVCBaseEntity@@H@@@@QAEXXZ ENDP ; CUtlArray<CBaseEntity *,CUtlMemory<CBaseEntity *,int> >::Purge
_TEXT	ENDS
; Function compile flags: /Odtp /ZI
; File d:\!diffusion 2020\source code 2022\client-server\game_shared\utlarray.h
;	COMDAT ?RemoveAll@?$CUtlArray@PAVCBaseEntity@@V?$CUtlMemory@PAVCBaseEntity@@H@@@@QAEXXZ
_TEXT	SEGMENT
_i$1 = -8						; size = 4
_this$ = -4						; size = 4
?RemoveAll@?$CUtlArray@PAVCBaseEntity@@V?$CUtlMemory@PAVCBaseEntity@@H@@@@QAEXXZ PROC ; CUtlArray<CBaseEntity *,CUtlMemory<CBaseEntity *,int> >::RemoveAll, COMDAT
; _this$ = ecx

; 726  : {

	push	ebp
	mov	ebp, esp
	sub	esp, 72					; 00000048H
	push	ebx
	push	esi
	push	edi
	mov	DWORD PTR _this$[ebp], ecx

; 727  : 	for (int i = m_Size; --i >= 0; )

	mov	eax, DWORD PTR _this$[ebp]
	mov	ecx, DWORD PTR [eax+12]
	mov	DWORD PTR _i$1[ebp], ecx
$LN4@RemoveAll:
	mov	eax, DWORD PTR _i$1[ebp]
	sub	eax, 1
	mov	DWORD PTR _i$1[ebp], eax
	js	SHORT $LN3@RemoveAll

; 728  : 	{
; 729  : 		Destruct(&Element(i));

	mov	eax, DWORD PTR _i$1[ebp]
	push	eax
	mov	ecx, DWORD PTR _this$[ebp]
	call	?Element@?$CUtlArray@PAVCBaseEntity@@V?$CUtlMemory@PAVCBaseEntity@@H@@@@QAEAAPAVCBaseEntity@@H@Z ; CUtlArray<CBaseEntity *,CUtlMemory<CBaseEntity *,int> >::Element
	push	eax
	call	??$Destruct@PAVCBaseEntity@@@@YAXPAPAVCBaseEntity@@@Z ; Destruct<CBaseEntity *>
	add	esp, 4

; 730  : 	}

	jmp	SHORT $LN4@RemoveAll
$LN3@RemoveAll:

; 731  : 
; 732  : 	m_Size = 0;

	mov	eax, DWORD PTR _this$[ebp]
	mov	DWORD PTR [eax+12], 0

; 733  : }

	pop	edi
	pop	esi
	pop	ebx
	mov	esp, ebp
	pop	ebp
	ret	0
?RemoveAll@?$CUtlArray@PAVCBaseEntity@@V?$CUtlMemory@PAVCBaseEntity@@H@@@@QAEXXZ ENDP ; CUtlArray<CBaseEntity *,CUtlMemory<CBaseEntity *,int> >::RemoveAll
_TEXT	ENDS
; Function compile flags: /Odtp /ZI
; File d:\!diffusion 2020\source code 2022\client-server\game_shared\utlarray.h
;	COMDAT ?InsertBefore@?$CUtlArray@PAVCBaseEntity@@V?$CUtlMemory@PAVCBaseEntity@@H@@@@QAEHH@Z
_TEXT	SEGMENT
_this$ = -4						; size = 4
_elem$ = 8						; size = 4
?InsertBefore@?$CUtlArray@PAVCBaseEntity@@V?$CUtlMemory@PAVCBaseEntity@@H@@@@QAEHH@Z PROC ; CUtlArray<CBaseEntity *,CUtlMemory<CBaseEntity *,int> >::InsertBefore, COMDAT
; _this$ = ecx

; 493  : {

	push	ebp
	mov	ebp, esp
	sub	esp, 68					; 00000044H
	push	ebx
	push	esi
	push	edi
	mov	DWORD PTR _this$[ebp], ecx

; 494  : 	// Can insert at the end
; 495  : 	assert( (elem == Count()) || IsValidIndex(elem) );

	mov	ecx, DWORD PTR _this$[ebp]
	call	?Count@?$CUtlArray@PAVCBaseEntity@@V?$CUtlMemory@PAVCBaseEntity@@H@@@@QBEHXZ ; CUtlArray<CBaseEntity *,CUtlMemory<CBaseEntity *,int> >::Count
	cmp	DWORD PTR _elem$[ebp], eax
	je	SHORT $LN3@InsertBefo
	mov	eax, DWORD PTR _elem$[ebp]
	push	eax
	mov	ecx, DWORD PTR _this$[ebp]
	call	?IsValidIndex@?$CUtlArray@PAVCBaseEntity@@V?$CUtlMemory@PAVCBaseEntity@@H@@@@QBE_NH@Z ; CUtlArray<CBaseEntity *,CUtlMemory<CBaseEntity *,int> >::IsValidIndex
	movzx	ecx, al
	test	ecx, ecx
	jne	SHORT $LN3@InsertBefo
	push	495					; 000001efH
	push	OFFSET ??_C@_1JC@EMNIBBBG@?$AAd?$AA?3?$AA?2?$AA?$CB?$AAd?$AAi?$AAf?$AAf?$AAu?$AAs?$AAi?$AAo?$AAn?$AA?5?$AA2?$AA0?$AA2?$AA0?$AA?2?$AAs?$AAo?$AAu?$AAr?$AAc?$AAe?$AA?5?$AAc?$AAo?$AAd?$AAe?$AA?5?$AA2@
	push	OFFSET ??_C@_1FA@BPFBJKPF@?$AA?$CI?$AAe?$AAl?$AAe?$AAm?$AA?5?$AA?$DN?$AA?$DN?$AA?5?$AAC?$AAo?$AAu?$AAn?$AAt?$AA?$CI?$AA?$CJ?$AA?$CJ?$AA?5?$AA?$HM?$AA?$HM?$AA?5?$AAI?$AAs?$AAV?$AAa?$AAl?$AAi?$AAd?$AAI?$AAn?$AAd?$AAe@
	call	__wassert
	add	esp, 12					; 0000000cH
$LN3@InsertBefo:

; 496  : 
; 497  : 	GrowVector();

	push	1
	mov	ecx, DWORD PTR _this$[ebp]
	call	?GrowVector@?$CUtlArray@PAVCBaseEntity@@V?$CUtlMemory@PAVCBaseEntity@@H@@@@IAEXH@Z ; CUtlArray<CBaseEntity *,CUtlMemory<CBaseEntity *,int> >::GrowVector

; 498  : 	ShiftElementsRight(elem);

	push	1
	mov	eax, DWORD PTR _elem$[ebp]
	push	eax
	mov	ecx, DWORD PTR _this$[ebp]
	call	?ShiftElementsRight@?$CUtlArray@PAVCBaseEntity@@V?$CUtlMemory@PAVCBaseEntity@@H@@@@IAEXHH@Z ; CUtlArray<CBaseEntity *,CUtlMemory<CBaseEntity *,int> >::ShiftElementsRight

; 499  : 	Construct( &Element(elem) );

	mov	eax, DWORD PTR _elem$[ebp]
	push	eax
	mov	ecx, DWORD PTR _this$[ebp]
	call	?Element@?$CUtlArray@PAVCBaseEntity@@V?$CUtlMemory@PAVCBaseEntity@@H@@@@QAEAAPAVCBaseEntity@@H@Z ; CUtlArray<CBaseEntity *,CUtlMemory<CBaseEntity *,int> >::Element
	push	eax
	call	??$Construct@PAVCBaseEntity@@@@YAXPAPAVCBaseEntity@@@Z ; Construct<CBaseEntity *>
	add	esp, 4

; 500  : 	return elem;

	mov	eax, DWORD PTR _elem$[ebp]

; 501  : }

	pop	edi
	pop	esi
	pop	ebx
	mov	esp, ebp
	pop	ebp
	ret	4
?InsertBefore@?$CUtlArray@PAVCBaseEntity@@V?$CUtlMemory@PAVCBaseEntity@@H@@@@QAEHH@Z ENDP ; CUtlArray<CBaseEntity *,CUtlMemory<CBaseEntity *,int> >::InsertBefore
_TEXT	ENDS
; Function compile flags: /Odtp /ZI
; File d:\!diffusion 2020\source code 2022\client-server\game_shared\utlarray.h
;	COMDAT ?AddToTail@?$CUtlArray@PAVCBaseEntity@@V?$CUtlMemory@PAVCBaseEntity@@H@@@@QAEHXZ
_TEXT	SEGMENT
_this$ = -4						; size = 4
?AddToTail@?$CUtlArray@PAVCBaseEntity@@V?$CUtlMemory@PAVCBaseEntity@@H@@@@QAEHXZ PROC ; CUtlArray<CBaseEntity *,CUtlMemory<CBaseEntity *,int> >::AddToTail, COMDAT
; _this$ = ecx

; 481  : {

	push	ebp
	mov	ebp, esp
	sub	esp, 68					; 00000044H
	push	ebx
	push	esi
	push	edi
	mov	DWORD PTR _this$[ebp], ecx

; 482  : 	return InsertBefore( m_Size );

	mov	eax, DWORD PTR _this$[ebp]
	mov	ecx, DWORD PTR [eax+12]
	push	ecx
	mov	ecx, DWORD PTR _this$[ebp]
	call	?InsertBefore@?$CUtlArray@PAVCBaseEntity@@V?$CUtlMemory@PAVCBaseEntity@@H@@@@QAEHH@Z ; CUtlArray<CBaseEntity *,CUtlMemory<CBaseEntity *,int> >::InsertBefore

; 483  : }

	pop	edi
	pop	esi
	pop	ebx
	mov	esp, ebp
	pop	ebp
	ret	0
?AddToTail@?$CUtlArray@PAVCBaseEntity@@V?$CUtlMemory@PAVCBaseEntity@@H@@@@QAEHXZ ENDP ; CUtlArray<CBaseEntity *,CUtlMemory<CBaseEntity *,int> >::AddToTail
_TEXT	ENDS
; Function compile flags: /Odtp /ZI
; File d:\!diffusion 2020\source code 2022\client-server\game_shared\utlarray.h
;	COMDAT ?IsValidIndex@?$CUtlArray@PAVCBaseEntity@@V?$CUtlMemory@PAVCBaseEntity@@H@@@@QBE_NH@Z
_TEXT	SEGMENT
tv67 = -72						; size = 4
_this$ = -4						; size = 4
_i$ = 8							; size = 4
?IsValidIndex@?$CUtlArray@PAVCBaseEntity@@V?$CUtlMemory@PAVCBaseEntity@@H@@@@QBE_NH@Z PROC ; CUtlArray<CBaseEntity *,CUtlMemory<CBaseEntity *,int> >::IsValidIndex, COMDAT
; _this$ = ecx

; 354  : {

	push	ebp
	mov	ebp, esp
	sub	esp, 72					; 00000048H
	push	ebx
	push	esi
	push	edi
	mov	DWORD PTR _this$[ebp], ecx

; 355  : 	return (i >= 0) && (i < m_Size);

	cmp	DWORD PTR _i$[ebp], 0
	jl	SHORT $LN3@IsValidInd
	mov	eax, DWORD PTR _this$[ebp]
	mov	ecx, DWORD PTR _i$[ebp]
	cmp	ecx, DWORD PTR [eax+12]
	jge	SHORT $LN3@IsValidInd
	mov	DWORD PTR tv67[ebp], 1
	jmp	SHORT $LN4@IsValidInd
$LN3@IsValidInd:
	mov	DWORD PTR tv67[ebp], 0
$LN4@IsValidInd:
	mov	al, BYTE PTR tv67[ebp]

; 356  : }

	pop	edi
	pop	esi
	pop	ebx
	mov	esp, ebp
	pop	ebp
	ret	4
?IsValidIndex@?$CUtlArray@PAVCBaseEntity@@V?$CUtlMemory@PAVCBaseEntity@@H@@@@QBE_NH@Z ENDP ; CUtlArray<CBaseEntity *,CUtlMemory<CBaseEntity *,int> >::IsValidIndex
_TEXT	ENDS
; Function compile flags: /Odtp /ZI
; File d:\!diffusion 2020\source code 2022\client-server\game_shared\utlarray.h
;	COMDAT ?Count@?$CUtlArray@PAVCBaseEntity@@V?$CUtlMemory@PAVCBaseEntity@@H@@@@QBEHXZ
_TEXT	SEGMENT
_this$ = -4						; size = 4
?Count@?$CUtlArray@PAVCBaseEntity@@V?$CUtlMemory@PAVCBaseEntity@@H@@@@QBEHXZ PROC ; CUtlArray<CBaseEntity *,CUtlMemory<CBaseEntity *,int> >::Count, COMDAT
; _this$ = ecx

; 344  : {

	push	ebp
	mov	ebp, esp
	sub	esp, 68					; 00000044H
	push	ebx
	push	esi
	push	edi
	mov	DWORD PTR _this$[ebp], ecx

; 345  : 	return m_Size;

	mov	eax, DWORD PTR _this$[ebp]
	mov	eax, DWORD PTR [eax+12]

; 346  : }

	pop	edi
	pop	esi
	pop	ebx
	mov	esp, ebp
	pop	ebp
	ret	0
?Count@?$CUtlArray@PAVCBaseEntity@@V?$CUtlMemory@PAVCBaseEntity@@H@@@@QBEHXZ ENDP ; CUtlArray<CBaseEntity *,CUtlMemory<CBaseEntity *,int> >::Count
_TEXT	ENDS
; Function compile flags: /Odtp /ZI
; File d:\!diffusion 2020\source code 2022\client-server\game_shared\utlarray.h
;	COMDAT ?Base@?$CUtlArray@PAVCBaseEntity@@V?$CUtlMemory@PAVCBaseEntity@@H@@@@QAEPAPAVCBaseEntity@@XZ
_TEXT	SEGMENT
_this$ = -4						; size = 4
?Base@?$CUtlArray@PAVCBaseEntity@@V?$CUtlMemory@PAVCBaseEntity@@H@@@@QAEPAPAVCBaseEntity@@XZ PROC ; CUtlArray<CBaseEntity *,CUtlMemory<CBaseEntity *,int> >::Base, COMDAT
; _this$ = ecx

; 60   : 	T* Base()								{ return m_Memory.Base(); }

	push	ebp
	mov	ebp, esp
	sub	esp, 68					; 00000044H
	push	ebx
	push	esi
	push	edi
	mov	DWORD PTR _this$[ebp], ecx
	mov	ecx, DWORD PTR _this$[ebp]
	call	?Base@?$CUtlMemory@PAVCBaseEntity@@H@@QAEPAPAVCBaseEntity@@XZ ; CUtlMemory<CBaseEntity *,int>::Base
	pop	edi
	pop	esi
	pop	ebx
	mov	esp, ebp
	pop	ebp
	ret	0
?Base@?$CUtlArray@PAVCBaseEntity@@V?$CUtlMemory@PAVCBaseEntity@@H@@@@QAEPAPAVCBaseEntity@@XZ ENDP ; CUtlArray<CBaseEntity *,CUtlMemory<CBaseEntity *,int> >::Base
_TEXT	ENDS
; Function compile flags: /Odtp /ZI
; File d:\!diffusion 2020\source code 2022\client-server\game_shared\utlarray.h
;	COMDAT ?Element@?$CUtlArray@PAVCBaseEntity@@V?$CUtlMemory@PAVCBaseEntity@@H@@@@QAEAAPAVCBaseEntity@@H@Z
_TEXT	SEGMENT
_this$ = -4						; size = 4
_i$ = 8							; size = 4
?Element@?$CUtlArray@PAVCBaseEntity@@V?$CUtlMemory@PAVCBaseEntity@@H@@@@QAEAAPAVCBaseEntity@@H@Z PROC ; CUtlArray<CBaseEntity *,CUtlMemory<CBaseEntity *,int> >::Element, COMDAT
; _this$ = ecx

; 294  : {

	push	ebp
	mov	ebp, esp
	sub	esp, 68					; 00000044H
	push	ebx
	push	esi
	push	edi
	mov	DWORD PTR _this$[ebp], ecx

; 295  : 	return m_Memory[ i ];

	mov	eax, DWORD PTR _i$[ebp]
	push	eax
	mov	ecx, DWORD PTR _this$[ebp]
	call	??A?$CUtlMemory@PAVCBaseEntity@@H@@QAEAAPAVCBaseEntity@@H@Z ; CUtlMemory<CBaseEntity *,int>::operator[]

; 296  : }

	pop	edi
	pop	esi
	pop	ebx
	mov	esp, ebp
	pop	ebp
	ret	4
?Element@?$CUtlArray@PAVCBaseEntity@@V?$CUtlMemory@PAVCBaseEntity@@H@@@@QAEAAPAVCBaseEntity@@H@Z ENDP ; CUtlArray<CBaseEntity *,CUtlMemory<CBaseEntity *,int> >::Element
_TEXT	ENDS
; Function compile flags: /Odtp /ZI
; File d:\!diffusion 2020\source code 2022\client-server\game_shared\utlarray.h
;	COMDAT ??A?$CUtlArray@PAVCBaseEntity@@V?$CUtlMemory@PAVCBaseEntity@@H@@@@QAEAAPAVCBaseEntity@@H@Z
_TEXT	SEGMENT
_this$ = -4						; size = 4
_i$ = 8							; size = 4
??A?$CUtlArray@PAVCBaseEntity@@V?$CUtlMemory@PAVCBaseEntity@@H@@@@QAEAAPAVCBaseEntity@@H@Z PROC ; CUtlArray<CBaseEntity *,CUtlMemory<CBaseEntity *,int> >::operator[], COMDAT
; _this$ = ecx

; 282  : {

	push	ebp
	mov	ebp, esp
	sub	esp, 68					; 00000044H
	push	ebx
	push	esi
	push	edi
	mov	DWORD PTR _this$[ebp], ecx

; 283  : 	return m_Memory[ i ];

	mov	eax, DWORD PTR _i$[ebp]
	push	eax
	mov	ecx, DWORD PTR _this$[ebp]
	call	??A?$CUtlMemory@PAVCBaseEntity@@H@@QAEAAPAVCBaseEntity@@H@Z ; CUtlMemory<CBaseEntity *,int>::operator[]

; 284  : }

	pop	edi
	pop	esi
	pop	ebx
	mov	esp, ebp
	pop	ebp
	ret	4
??A?$CUtlArray@PAVCBaseEntity@@V?$CUtlMemory@PAVCBaseEntity@@H@@@@QAEAAPAVCBaseEntity@@H@Z ENDP ; CUtlArray<CBaseEntity *,CUtlMemory<CBaseEntity *,int> >::operator[]
_TEXT	ENDS
; Function compile flags: /Odtp /ZI
; File d:\!diffusion 2020\source code 2022\client-server\game_shared\utlarray.h
;	COMDAT ??1?$CUtlArray@PAVCBaseEntity@@V?$CUtlMemory@PAVCBaseEntity@@H@@@@QAE@XZ
_TEXT	SEGMENT
_this$ = -16						; size = 4
__$EHRec$ = -12						; size = 12
??1?$CUtlArray@PAVCBaseEntity@@V?$CUtlMemory@PAVCBaseEntity@@H@@@@QAE@XZ PROC ; CUtlArray<CBaseEntity *,CUtlMemory<CBaseEntity *,int> >::~CUtlArray<CBaseEntity *,CUtlMemory<CBaseEntity *,int> >, COMDAT
; _this$ = ecx

; 260  : {

	push	ebp
	mov	ebp, esp
	push	-1
	push	__ehhandler$??1?$CUtlArray@PAVCBaseEntity@@V?$CUtlMemory@PAVCBaseEntity@@H@@@@QAE@XZ
	mov	eax, DWORD PTR fs:0
	push	eax
	sub	esp, 68					; 00000044H
	push	ebx
	push	esi
	push	edi
	mov	eax, DWORD PTR ___security_cookie
	xor	eax, ebp
	push	eax
	lea	eax, DWORD PTR __$EHRec$[ebp]
	mov	DWORD PTR fs:0, eax
	mov	DWORD PTR _this$[ebp], ecx

; 261  : 	Purge();

	mov	ecx, DWORD PTR _this$[ebp]
	call	?Purge@?$CUtlArray@PAVCBaseEntity@@V?$CUtlMemory@PAVCBaseEntity@@H@@@@QAEXXZ ; CUtlArray<CBaseEntity *,CUtlMemory<CBaseEntity *,int> >::Purge

; 262  : }

	mov	ecx, DWORD PTR _this$[ebp]
	call	??1?$CUtlMemory@PAVCBaseEntity@@H@@QAE@XZ ; CUtlMemory<CBaseEntity *,int>::~CUtlMemory<CBaseEntity *,int>
	mov	ecx, DWORD PTR __$EHRec$[ebp]
	mov	DWORD PTR fs:0, ecx
	pop	ecx
	pop	edi
	pop	esi
	pop	ebx
	mov	esp, ebp
	pop	ebp
	ret	0
_TEXT	ENDS
;	COMDAT text$x
text$x	SEGMENT
__ehhandler$??1?$CUtlArray@PAVCBaseEntity@@V?$CUtlMemory@PAVCBaseEntity@@H@@@@QAE@XZ:
	mov	edx, DWORD PTR [esp+8]
	lea	eax, DWORD PTR [edx+12]
	mov	ecx, DWORD PTR [edx-84]
	xor	ecx, eax
	call	@__security_check_cookie@4
	mov	eax, OFFSET __ehfuncinfo$??1?$CUtlArray@PAVCBaseEntity@@V?$CUtlMemory@PAVCBaseEntity@@H@@@@QAE@XZ
	jmp	___CxxFrameHandler3
text$x	ENDS
??1?$CUtlArray@PAVCBaseEntity@@V?$CUtlMemory@PAVCBaseEntity@@H@@@@QAE@XZ ENDP ; CUtlArray<CBaseEntity *,CUtlMemory<CBaseEntity *,int> >::~CUtlArray<CBaseEntity *,CUtlMemory<CBaseEntity *,int> >
; Function compile flags: /Odtp /ZI
; File d:\!diffusion 2020\source code 2022\client-server\game_shared\utlarray.h
;	COMDAT ??0?$CUtlArray@PAVCBaseEntity@@V?$CUtlMemory@PAVCBaseEntity@@H@@@@QAE@HH@Z
_TEXT	SEGMENT
_this$ = -16						; size = 4
__$EHRec$ = -12						; size = 12
_growSize$ = 8						; size = 4
_initSize$ = 12						; size = 4
??0?$CUtlArray@PAVCBaseEntity@@V?$CUtlMemory@PAVCBaseEntity@@H@@@@QAE@HH@Z PROC ; CUtlArray<CBaseEntity *,CUtlMemory<CBaseEntity *,int> >::CUtlArray<CBaseEntity *,CUtlMemory<CBaseEntity *,int> >, COMDAT
; _this$ = ecx

; 247  : {

	push	ebp
	mov	ebp, esp
	push	-1
	push	__ehhandler$??0?$CUtlArray@PAVCBaseEntity@@V?$CUtlMemory@PAVCBaseEntity@@H@@@@QAE@HH@Z
	mov	eax, DWORD PTR fs:0
	push	eax
	sub	esp, 68					; 00000044H
	push	ebx
	push	esi
	push	edi
	mov	eax, DWORD PTR ___security_cookie
	xor	eax, ebp
	push	eax
	lea	eax, DWORD PTR __$EHRec$[ebp]
	mov	DWORD PTR fs:0, eax
	mov	DWORD PTR _this$[ebp], ecx

; 246  : 	m_Memory(growSize, initSize), m_Size(0)

	mov	eax, DWORD PTR _initSize$[ebp]
	push	eax
	mov	ecx, DWORD PTR _growSize$[ebp]
	push	ecx
	mov	ecx, DWORD PTR _this$[ebp]
	call	??0?$CUtlMemory@PAVCBaseEntity@@H@@QAE@HH@Z ; CUtlMemory<CBaseEntity *,int>::CUtlMemory<CBaseEntity *,int>
	mov	DWORD PTR __$EHRec$[ebp+8], 0
	mov	eax, DWORD PTR _this$[ebp]
	mov	DWORD PTR [eax+12], 0

; 248  : 	ResetDbgInfo();

	mov	ecx, DWORD PTR _this$[ebp]
	call	?ResetDbgInfo@?$CUtlArray@PAVCBaseEntity@@V?$CUtlMemory@PAVCBaseEntity@@H@@@@IAEXXZ ; CUtlArray<CBaseEntity *,CUtlMemory<CBaseEntity *,int> >::ResetDbgInfo

; 249  : }

	mov	DWORD PTR __$EHRec$[ebp+8], -1
	mov	eax, DWORD PTR _this$[ebp]
	mov	ecx, DWORD PTR __$EHRec$[ebp]
	mov	DWORD PTR fs:0, ecx
	pop	ecx
	pop	edi
	pop	esi
	pop	ebx
	mov	esp, ebp
	pop	ebp
	ret	8
_TEXT	ENDS
;	COMDAT text$x
text$x	SEGMENT
__unwindfunclet$??0?$CUtlArray@PAVCBaseEntity@@V?$CUtlMemory@PAVCBaseEntity@@H@@@@QAE@HH@Z$0:
	mov	ecx, DWORD PTR _this$[ebp]
	jmp	??1?$CUtlMemory@PAVCBaseEntity@@H@@QAE@XZ ; CUtlMemory<CBaseEntity *,int>::~CUtlMemory<CBaseEntity *,int>
__ehhandler$??0?$CUtlArray@PAVCBaseEntity@@V?$CUtlMemory@PAVCBaseEntity@@H@@@@QAE@HH@Z:
	mov	edx, DWORD PTR [esp+8]
	lea	eax, DWORD PTR [edx+12]
	mov	ecx, DWORD PTR [edx-84]
	xor	ecx, eax
	call	@__security_check_cookie@4
	mov	eax, OFFSET __ehfuncinfo$??0?$CUtlArray@PAVCBaseEntity@@V?$CUtlMemory@PAVCBaseEntity@@H@@@@QAE@HH@Z
	jmp	___CxxFrameHandler3
text$x	ENDS
??0?$CUtlArray@PAVCBaseEntity@@V?$CUtlMemory@PAVCBaseEntity@@H@@@@QAE@HH@Z ENDP ; CUtlArray<CBaseEntity *,CUtlMemory<CBaseEntity *,int> >::CUtlArray<CBaseEntity *,CUtlMemory<CBaseEntity *,int> >
; Function compile flags: /Odtp /ZI
; File d:\!diffusion 2020\source code 2022\client-server\server\physics\physic.cpp
;	COMDAT ?SV_Physics_Toss@@YAXPAVCBaseEntity@@@Z
_TEXT	SEGMENT
tv155 = -440						; size = 4
tv148 = -440						; size = 4
$T1 = -436						; size = 56
$T2 = -380						; size = 56
$T3 = -324						; size = 12
$T4 = -312						; size = 12
$T5 = -300						; size = 12
$T6 = -288						; size = 56
$T7 = -232						; size = 56
$T8 = -176						; size = 12
_vel$9 = -100						; size = 4
_gravity$10 = -96					; size = 4
_vecAbsVelocity$ = -92					; size = 12
_pGround$ = -80						; size = 4
_ed$ = -76						; size = 4
_backoff$ = -72						; size = 4
_move$ = -68						; size = 12
_trace$ = -56						; size = 56
_pEntity$ = 8						; size = 4
?SV_Physics_Toss@@YAXPAVCBaseEntity@@@Z PROC		; SV_Physics_Toss, COMDAT

; 1874 : {

	push	ebp
	mov	ebp, esp
	sub	esp, 440				; 000001b8H
	push	ebx
	push	esi
	push	edi

; 1875 : 	TraceResult	trace;

	lea	ecx, DWORD PTR _trace$[ebp]
	call	??0gametrace_s@@QAE@XZ

; 1876 : 	Vector		move;

	lea	ecx, DWORD PTR _move$[ebp]
	call	??0Vector@@QAE@XZ			; Vector::Vector

; 1877 : 	float		backoff;
; 1878 : 	edict_t		*ed = pEntity->edict();

	mov	ecx, DWORD PTR _pEntity$[ebp]
	call	?edict@CBaseEntity@@QAEPAUedict_s@@XZ	; CBaseEntity::edict
	mov	DWORD PTR _ed$[ebp], eax

; 1879 : 
; 1880 : 	SV_CheckWater( pEntity );

	mov	eax, DWORD PTR _pEntity$[ebp]
	push	eax
	call	?SV_CheckWater@@YAHPAVCBaseEntity@@@Z	; SV_CheckWater
	add	esp, 4

; 1881 : 	
; 1882 : 	// regular thinking
; 1883 : 	if( !SV_RunThink( pEntity )) return;

	mov	eax, DWORD PTR _pEntity$[ebp]
	push	eax
	call	?SV_RunThink@@YAHPAVCBaseEntity@@@Z	; SV_RunThink
	add	esp, 4
	test	eax, eax
	jne	SHORT $LN6@SV_Physics
	jmp	$LN1@SV_Physics
$LN6@SV_Physics:

; 1884 : 
; 1885 : 	CBaseEntity *pGround = pEntity->GetGroundEntity();

	mov	ecx, DWORD PTR _pEntity$[ebp]
	call	?GetGroundEntity@CBaseEntity@@QAEPAV1@XZ ; CBaseEntity::GetGroundEntity
	mov	DWORD PTR _pGround$[ebp], eax

; 1886 : 
; 1887 : 	if( pEntity->GetAbsVelocity().z > 0.0f || pGround == NULL || (pGround->pev->flags & ( FL_MONSTER|FL_CLIENT )))

	mov	ecx, DWORD PTR _pEntity$[ebp]
	call	?GetAbsVelocity@CBaseEntity@@QBEABVVector@@XZ ; CBaseEntity::GetAbsVelocity
	movss	xmm0, DWORD PTR [eax+8]
	comiss	xmm0, DWORD PTR __real@00000000
	ja	SHORT $LN8@SV_Physics
	cmp	DWORD PTR _pGround$[ebp], 0
	je	SHORT $LN8@SV_Physics
	mov	eax, DWORD PTR _pGround$[ebp]
	mov	ecx, DWORD PTR [eax+4]
	mov	edx, DWORD PTR [ecx+420]
	and	edx, 40					; 00000028H
	je	SHORT $LN7@SV_Physics
$LN8@SV_Physics:

; 1888 : 	{
; 1889 : 		pEntity->pev->flags &= ~FL_ONGROUND;

	mov	eax, DWORD PTR _pEntity$[ebp]
	mov	ecx, DWORD PTR [eax+4]
	mov	edx, DWORD PTR [ecx+420]
	and	edx, -513				; fffffdffH
	mov	eax, DWORD PTR _pEntity$[ebp]
	mov	ecx, DWORD PTR [eax+4]
	mov	DWORD PTR [ecx+420], edx
$LN7@SV_Physics:

; 1890 : 	}
; 1891 : 
; 1892 : 	if( pEntity->m_iFlags & MF_GROUNDMOVE )

	mov	eax, DWORD PTR _pEntity$[ebp]
	mov	ecx, DWORD PTR [eax+24]
	and	ecx, 4
	je	SHORT $LN9@SV_Physics

; 1893 : 	{
; 1894 : 		pEntity->ClearGroundEntity();

	mov	ecx, DWORD PTR _pEntity$[ebp]
	call	?ClearGroundEntity@CBaseEntity@@QAEXXZ	; CBaseEntity::ClearGroundEntity

; 1895 : 		pEntity->m_iFlags &= ~MF_GROUNDMOVE;

	mov	eax, DWORD PTR _pEntity$[ebp]
	mov	ecx, DWORD PTR [eax+24]
	and	ecx, -5					; fffffffbH
	mov	edx, DWORD PTR _pEntity$[ebp]
	mov	DWORD PTR [edx+24], ecx
$LN9@SV_Physics:

; 1896 : 	}
; 1897 : 
; 1898 : 	// if on ground and not moving, return.
; 1899 : 	if( pEntity->pev->flags & FL_ONGROUND && pEntity->GetAbsVelocity() == g_vecZero )

	mov	eax, DWORD PTR _pEntity$[ebp]
	mov	ecx, DWORD PTR [eax+4]
	mov	edx, DWORD PTR [ecx+420]
	and	edx, 512				; 00000200H
	je	SHORT $LN11@SV_Physics
	push	OFFSET ?g_vecZero@@3VVector@@B		; g_vecZero
	mov	ecx, DWORD PTR _pEntity$[ebp]
	call	?GetAbsVelocity@CBaseEntity@@QBEABVVector@@XZ ; CBaseEntity::GetAbsVelocity
	mov	ecx, eax
	call	??8Vector@@QBEHABV0@@Z			; Vector::operator==
	test	eax, eax
	je	SHORT $LN11@SV_Physics

; 1900 : 	{
; 1901 : 		pEntity->SetLocalAvelocity( g_vecZero );

	push	OFFSET ?g_vecZero@@3VVector@@B		; g_vecZero
	mov	ecx, DWORD PTR _pEntity$[ebp]
	call	?SetLocalAvelocity@CBaseEntity@@QAEXABVVector@@@Z ; CBaseEntity::SetLocalAvelocity

; 1902 : 
; 1903 : 		if( pEntity->pev->basevelocity == g_vecZero )

	push	OFFSET ?g_vecZero@@3VVector@@B		; g_vecZero
	mov	eax, DWORD PTR _pEntity$[ebp]
	mov	ecx, DWORD PTR [eax+4]
	add	ecx, 44					; 0000002cH
	call	??8Vector@@QBEHABV0@@Z			; Vector::operator==
	test	eax, eax
	je	SHORT $LN11@SV_Physics

; 1904 : 			return;	// at rest

	jmp	$LN1@SV_Physics
$LN11@SV_Physics:

; 1905 : 	}
; 1906 : 
; 1907 : 	SV_CheckVelocity( pEntity );

	mov	eax, DWORD PTR _pEntity$[ebp]
	push	eax
	call	?SV_CheckVelocity@@YAXPAVCBaseEntity@@@Z ; SV_CheckVelocity
	add	esp, 4

; 1908 : 
; 1909 : 	// add gravity
; 1910 : 	switch( pEntity->pev->movetype )

	mov	eax, DWORD PTR _pEntity$[ebp]
	mov	ecx, DWORD PTR [eax+4]
	mov	edx, DWORD PTR [ecx+264]
	mov	DWORD PTR tv148[ebp], edx
	cmp	DWORD PTR tv148[ebp], 5
	je	SHORT $LN12@SV_Physics
	cmp	DWORD PTR tv148[ebp], 9
	je	SHORT $LN12@SV_Physics
	cmp	DWORD PTR tv148[ebp], 11		; 0000000bH
	je	SHORT $LN12@SV_Physics
	jmp	SHORT $LN13@SV_Physics
$LN12@SV_Physics:

; 1911 : 	{
; 1912 : 	case MOVETYPE_FLY:
; 1913 : 	case MOVETYPE_FLYMISSILE:
; 1914 : 	case MOVETYPE_BOUNCEMISSILE:
; 1915 : 		break;

	jmp	SHORT $LN2@SV_Physics
$LN13@SV_Physics:

; 1916 : 	default:
; 1917 : 		SV_AddGravity( pEntity );

	mov	eax, DWORD PTR _pEntity$[ebp]
	push	eax
	call	?SV_AddGravity@@YAXPAVCBaseEntity@@@Z	; SV_AddGravity
	add	esp, 4
$LN2@SV_Physics:

; 1918 : 		break;
; 1919 : 	}
; 1920 : 
; 1921 : 	// move angles (with friction)
; 1922 : 	switch( pEntity->pev->movetype )

	mov	eax, DWORD PTR _pEntity$[ebp]
	mov	ecx, DWORD PTR [eax+4]
	mov	edx, DWORD PTR [ecx+264]
	mov	DWORD PTR tv155[ebp], edx
	cmp	DWORD PTR tv155[ebp], 6
	je	SHORT $LN14@SV_Physics
	cmp	DWORD PTR tv155[ebp], 10		; 0000000aH
	je	SHORT $LN14@SV_Physics
	jmp	SHORT $LN15@SV_Physics
$LN14@SV_Physics:

; 1923 : 	{
; 1924 : 	case MOVETYPE_TOSS:
; 1925 : 	case MOVETYPE_BOUNCE:
; 1926 : 		SV_AngularMove( pEntity, gpGlobals->frametime, pEntity->pev->friction );

	mov	eax, DWORD PTR _pEntity$[ebp]
	mov	ecx, DWORD PTR [eax+4]
	push	ecx
	movss	xmm0, DWORD PTR [ecx+288]
	movss	DWORD PTR [esp], xmm0
	mov	edx, DWORD PTR ?gpGlobals@@3PAUglobalvars_t@@A ; gpGlobals
	push	ecx
	movss	xmm0, DWORD PTR [edx+4]
	movss	DWORD PTR [esp], xmm0
	mov	eax, DWORD PTR _pEntity$[ebp]
	push	eax
	call	?SV_AngularMove@@YAXPAVCBaseEntity@@MM@Z ; SV_AngularMove
	add	esp, 12					; 0000000cH

; 1927 : 		break;         

	jmp	SHORT $LN4@SV_Physics
$LN15@SV_Physics:

; 1928 : 	default:
; 1929 : 		SV_AngularMove( pEntity, gpGlobals->frametime, 0.0f );

	push	ecx
	xorps	xmm0, xmm0
	movss	DWORD PTR [esp], xmm0
	mov	eax, DWORD PTR ?gpGlobals@@3PAUglobalvars_t@@A ; gpGlobals
	push	ecx
	movss	xmm0, DWORD PTR [eax+4]
	movss	DWORD PTR [esp], xmm0
	mov	ecx, DWORD PTR _pEntity$[ebp]
	push	ecx
	call	?SV_AngularMove@@YAXPAVCBaseEntity@@MM@Z ; SV_AngularMove
	add	esp, 12					; 0000000cH
$LN4@SV_Physics:

; 1930 : 		break;
; 1931 : 	}
; 1932 : 
; 1933 : 	// move origin
; 1934 : 	// Base velocity is not properly accounted for since this entity will move again
; 1935 : 	// after the bounce without taking it into account
; 1936 : 	Vector vecAbsVelocity = pEntity->GetAbsVelocity();

	mov	ecx, DWORD PTR _pEntity$[ebp]
	call	?GetAbsVelocity@CBaseEntity@@QBEABVVector@@XZ ; CBaseEntity::GetAbsVelocity
	push	eax
	lea	ecx, DWORD PTR _vecAbsVelocity$[ebp]
	call	??0Vector@@QAE@ABV0@@Z			; Vector::Vector

; 1937 : 	vecAbsVelocity += pEntity->GetBaseVelocity();

	mov	ecx, DWORD PTR _pEntity$[ebp]
	call	?GetBaseVelocity@CBaseEntity@@QBEABVVector@@XZ ; CBaseEntity::GetBaseVelocity
	push	eax
	lea	ecx, DWORD PTR _vecAbsVelocity$[ebp]
	call	??YVector@@QAEAAV0@ABV0@@Z		; Vector::operator+=

; 1938 : 	pEntity->SetAbsVelocity( vecAbsVelocity );

	lea	eax, DWORD PTR _vecAbsVelocity$[ebp]
	push	eax
	mov	ecx, DWORD PTR _pEntity$[ebp]
	call	?SetAbsVelocity@CBaseEntity@@QAEXABVVector@@@Z ; CBaseEntity::SetAbsVelocity

; 1939 : 
; 1940 : 	SV_CheckVelocity( pEntity );

	mov	eax, DWORD PTR _pEntity$[ebp]
	push	eax
	call	?SV_CheckVelocity@@YAXPAVCBaseEntity@@@Z ; SV_CheckVelocity
	add	esp, 4

; 1941 : 
; 1942 : 	move = pEntity->GetAbsVelocity() * gpGlobals->frametime;

	mov	eax, DWORD PTR ?gpGlobals@@3PAUglobalvars_t@@A ; gpGlobals
	push	ecx
	movss	xmm0, DWORD PTR [eax+4]
	movss	DWORD PTR [esp], xmm0
	lea	ecx, DWORD PTR $T8[ebp]
	push	ecx
	mov	ecx, DWORD PTR _pEntity$[ebp]
	call	?GetAbsVelocity@CBaseEntity@@QBEABVVector@@XZ ; CBaseEntity::GetAbsVelocity
	mov	ecx, eax
	call	??DVector@@QBE?AV0@M@Z			; Vector::operator*
	mov	edx, DWORD PTR [eax]
	mov	DWORD PTR _move$[ebp], edx
	mov	ecx, DWORD PTR [eax+4]
	mov	DWORD PTR _move$[ebp+4], ecx
	mov	edx, DWORD PTR [eax+8]
	mov	DWORD PTR _move$[ebp+8], edx

; 1943 : 
; 1944 : 	vecAbsVelocity = pEntity->GetAbsVelocity();

	mov	ecx, DWORD PTR _pEntity$[ebp]
	call	?GetAbsVelocity@CBaseEntity@@QBEABVVector@@XZ ; CBaseEntity::GetAbsVelocity
	mov	ecx, DWORD PTR [eax]
	mov	DWORD PTR _vecAbsVelocity$[ebp], ecx
	mov	edx, DWORD PTR [eax+4]
	mov	DWORD PTR _vecAbsVelocity$[ebp+4], edx
	mov	eax, DWORD PTR [eax+8]
	mov	DWORD PTR _vecAbsVelocity$[ebp+8], eax

; 1945 : 	vecAbsVelocity -= pEntity->GetBaseVelocity();

	mov	ecx, DWORD PTR _pEntity$[ebp]
	call	?GetBaseVelocity@CBaseEntity@@QBEABVVector@@XZ ; CBaseEntity::GetBaseVelocity
	push	eax
	lea	ecx, DWORD PTR _vecAbsVelocity$[ebp]
	call	??ZVector@@QAEAAV0@ABV0@@Z		; Vector::operator-=

; 1946 : 	pEntity->SetAbsVelocity( vecAbsVelocity );

	lea	eax, DWORD PTR _vecAbsVelocity$[ebp]
	push	eax
	mov	ecx, DWORD PTR _pEntity$[ebp]
	call	?SetAbsVelocity@CBaseEntity@@QAEXABVVector@@@Z ; CBaseEntity::SetAbsVelocity

; 1947 : 
; 1948 : 	trace = SV_PushEntity( pEntity, move, g_vecZero, NULL );

	push	0
	push	OFFSET ?g_vecZero@@3VVector@@B		; g_vecZero
	lea	eax, DWORD PTR _move$[ebp]
	push	eax
	mov	ecx, DWORD PTR _pEntity$[ebp]
	push	ecx
	lea	edx, DWORD PTR $T6[ebp]
	push	edx
	call	?SV_PushEntity@@YA?AUgametrace_s@@PAVCBaseEntity@@ABVVector@@1PAH@Z ; SV_PushEntity
	add	esp, 20					; 00000014H
	mov	ecx, 14					; 0000000eH
	mov	esi, eax
	lea	edi, DWORD PTR $T7[ebp]
	rep movsd
	mov	ecx, 14					; 0000000eH
	lea	esi, DWORD PTR $T7[ebp]
	lea	edi, DWORD PTR _trace$[ebp]
	rep movsd

; 1949 : 	if( ed->free || pEntity->pev->flags & FL_KILLME ) return;

	mov	eax, DWORD PTR _ed$[ebp]
	cmp	DWORD PTR [eax], 0
	jne	SHORT $LN17@SV_Physics
	mov	eax, DWORD PTR _pEntity$[ebp]
	mov	ecx, DWORD PTR [eax+4]
	mov	edx, DWORD PTR [ecx+420]
	and	edx, 1073741824				; 40000000H
	je	SHORT $LN16@SV_Physics
$LN17@SV_Physics:
	jmp	$LN1@SV_Physics
$LN16@SV_Physics:

; 1950 : 
; 1951 : 	SV_CheckVelocity( pEntity );

	mov	eax, DWORD PTR _pEntity$[ebp]
	push	eax
	call	?SV_CheckVelocity@@YAXPAVCBaseEntity@@@Z ; SV_CheckVelocity
	add	esp, 4

; 1952 : 
; 1953 : 	if( trace.fAllSolid )

	cmp	DWORD PTR _trace$[ebp], 0
	je	SHORT $LN18@SV_Physics

; 1954 : 	{
; 1955 : 		if( pEntity->m_iActorType == ACTOR_CHARACTER )

	mov	eax, DWORD PTR _pEntity$[ebp]
	movzx	ecx, BYTE PTR [eax+1616]
	cmp	ecx, 3
	jne	SHORT $LN19@SV_Physics

; 1956 : 			WorldPhysic->MoveCharacter( pEntity );

	mov	eax, DWORD PTR _pEntity$[ebp]
	push	eax
	mov	ecx, DWORD PTR ?WorldPhysic@@3PAVIPhysicLayer@@A ; WorldPhysic
	mov	edx, DWORD PTR [ecx]
	mov	ecx, DWORD PTR ?WorldPhysic@@3PAVIPhysicLayer@@A ; WorldPhysic
	mov	eax, DWORD PTR [edx+144]
	call	eax
$LN19@SV_Physics:

; 1957 : 
; 1958 : 		// entity is trapped in another solid
; 1959 : 		pEntity->SetLocalAvelocity( g_vecZero );

	push	OFFSET ?g_vecZero@@3VVector@@B		; g_vecZero
	mov	ecx, DWORD PTR _pEntity$[ebp]
	call	?SetLocalAvelocity@CBaseEntity@@QAEXABVVector@@@Z ; CBaseEntity::SetLocalAvelocity

; 1960 : 		pEntity->SetLocalVelocity( g_vecZero );

	push	OFFSET ?g_vecZero@@3VVector@@B		; g_vecZero
	mov	ecx, DWORD PTR _pEntity$[ebp]
	call	?SetLocalVelocity@CBaseEntity@@QAEXABVVector@@@Z ; CBaseEntity::SetLocalVelocity

; 1961 : 		return;

	jmp	$LN1@SV_Physics
$LN18@SV_Physics:

; 1962 : 	}
; 1963 : 
; 1964 : 	if( trace.flFraction == 1.0f )

	movss	xmm0, DWORD PTR _trace$[ebp+16]
	ucomiss	xmm0, DWORD PTR __real@3f800000
	lahf
	test	ah, 68					; 00000044H
	jp	SHORT $LN20@SV_Physics

; 1965 : 	{
; 1966 : 		if( pEntity->m_iActorType == ACTOR_CHARACTER )

	mov	eax, DWORD PTR _pEntity$[ebp]
	movzx	ecx, BYTE PTR [eax+1616]
	cmp	ecx, 3
	jne	SHORT $LN21@SV_Physics

; 1967 : 			WorldPhysic->MoveCharacter( pEntity );

	mov	eax, DWORD PTR _pEntity$[ebp]
	push	eax
	mov	ecx, DWORD PTR ?WorldPhysic@@3PAVIPhysicLayer@@A ; WorldPhysic
	mov	edx, DWORD PTR [ecx]
	mov	ecx, DWORD PTR ?WorldPhysic@@3PAVIPhysicLayer@@A ; WorldPhysic
	mov	eax, DWORD PTR [edx+144]
	call	eax
$LN21@SV_Physics:

; 1968 : 
; 1969 : 		SV_CheckWaterTransition( pEntity );

	mov	eax, DWORD PTR _pEntity$[ebp]
	push	eax
	call	?SV_CheckWaterTransition@@YAXPAVCBaseEntity@@@Z ; SV_CheckWaterTransition
	add	esp, 4

; 1970 : 		return;

	jmp	$LN1@SV_Physics
$LN20@SV_Physics:

; 1971 : 	}
; 1972 : 
; 1973 : 	if( pEntity->pev->movetype == MOVETYPE_BOUNCE )

	mov	eax, DWORD PTR _pEntity$[ebp]
	mov	ecx, DWORD PTR [eax+4]
	cmp	DWORD PTR [ecx+264], 10			; 0000000aH
	jne	SHORT $LN22@SV_Physics

; 1974 : 		backoff = 2.0f - pEntity->pev->friction;

	mov	eax, DWORD PTR _pEntity$[ebp]
	mov	ecx, DWORD PTR [eax+4]
	movss	xmm0, DWORD PTR __real@40000000
	subss	xmm0, DWORD PTR [ecx+288]
	movss	DWORD PTR _backoff$[ebp], xmm0
	jmp	SHORT $LN25@SV_Physics
$LN22@SV_Physics:

; 1975 : 	else if( pEntity->pev->movetype == MOVETYPE_BOUNCEMISSILE )

	mov	eax, DWORD PTR _pEntity$[ebp]
	mov	ecx, DWORD PTR [eax+4]
	cmp	DWORD PTR [ecx+264], 11			; 0000000bH
	jne	SHORT $LN24@SV_Physics

; 1976 : 		backoff = 2.0f;

	movss	xmm0, DWORD PTR __real@40000000
	movss	DWORD PTR _backoff$[ebp], xmm0
	jmp	SHORT $LN25@SV_Physics
$LN24@SV_Physics:

; 1977 : 	else backoff = 1.0f;

	movss	xmm0, DWORD PTR __real@3f800000
	movss	DWORD PTR _backoff$[ebp], xmm0
$LN25@SV_Physics:

; 1978 : 
; 1979 : 	vecAbsVelocity = pEntity->GetAbsVelocity();

	mov	ecx, DWORD PTR _pEntity$[ebp]
	call	?GetAbsVelocity@CBaseEntity@@QBEABVVector@@XZ ; CBaseEntity::GetAbsVelocity
	mov	ecx, DWORD PTR [eax]
	mov	DWORD PTR _vecAbsVelocity$[ebp], ecx
	mov	edx, DWORD PTR [eax+4]
	mov	DWORD PTR _vecAbsVelocity$[ebp+4], edx
	mov	eax, DWORD PTR [eax+8]
	mov	DWORD PTR _vecAbsVelocity$[ebp+8], eax

; 1980 : 	SV_ClipVelocity( vecAbsVelocity, trace.vecPlaneNormal, vecAbsVelocity, backoff );

	push	ecx
	movss	xmm0, DWORD PTR _backoff$[ebp]
	movss	DWORD PTR [esp], xmm0
	lea	eax, DWORD PTR _vecAbsVelocity$[ebp]
	push	eax
	lea	ecx, DWORD PTR _trace$[ebp+36]
	push	ecx
	lea	edx, DWORD PTR _vecAbsVelocity$[ebp]
	push	edx
	call	?SV_ClipVelocity@@YAHABVVector@@0AAV1@M@Z ; SV_ClipVelocity
	add	esp, 16					; 00000010H

; 1981 : 	pEntity->SetAbsVelocity( vecAbsVelocity );

	lea	eax, DWORD PTR _vecAbsVelocity$[ebp]
	push	eax
	mov	ecx, DWORD PTR _pEntity$[ebp]
	call	?SetAbsVelocity@CBaseEntity@@QAEXABVVector@@@Z ; CBaseEntity::SetAbsVelocity

; 1982 : 
; 1983 : 	// stop if on ground
; 1984 : 	if( trace.vecPlaneNormal[2] > 0.7f )

	lea	ecx, DWORD PTR _trace$[ebp+36]
	call	??BVector@@QAEPAMXZ			; Vector::operator float *
	mov	ecx, 4
	shl	ecx, 1
	movss	xmm0, DWORD PTR [eax+ecx]
	comiss	xmm0, DWORD PTR __real@3f333333
	jbe	$LN31@SV_Physics

; 1985 : 	{		
; 1986 : 		move = pEntity->GetAbsVelocity() + pEntity->GetBaseVelocity();

	mov	ecx, DWORD PTR _pEntity$[ebp]
	call	?GetBaseVelocity@CBaseEntity@@QBEABVVector@@XZ ; CBaseEntity::GetBaseVelocity
	push	eax
	lea	eax, DWORD PTR $T5[ebp]
	push	eax
	mov	ecx, DWORD PTR _pEntity$[ebp]
	call	?GetAbsVelocity@CBaseEntity@@QBEABVVector@@XZ ; CBaseEntity::GetAbsVelocity
	mov	ecx, eax
	call	??HVector@@QBE?AV0@ABV0@@Z		; Vector::operator+
	mov	ecx, DWORD PTR [eax]
	mov	DWORD PTR _move$[ebp], ecx
	mov	edx, DWORD PTR [eax+4]
	mov	DWORD PTR _move$[ebp+4], edx
	mov	eax, DWORD PTR [eax+8]
	mov	DWORD PTR _move$[ebp+8], eax

; 1987 : 
; 1988 : 		float gravity = CVAR_GET_FLOAT( "sv_gravity" );

	push	OFFSET ??_C@_0L@FKMMBKBD@sv_gravity?$AA@
	call	DWORD PTR ?g_engfuncs@@3Uenginefuncs_s@@A+228
	add	esp, 4
	fstp	DWORD PTR _gravity$10[ebp]

; 1989 : 		float vel = DotProduct( move, move );

	lea	eax, DWORD PTR _move$[ebp]
	push	eax
	lea	ecx, DWORD PTR _move$[ebp]
	push	ecx
	call	?DotProduct@@YAMABVVector@@0@Z		; DotProduct
	add	esp, 8
	fstp	DWORD PTR _vel$9[ebp]

; 1990 : 
; 1991 : 		if( pEntity->GetAbsVelocity().z < gravity * gpGlobals->frametime )

	mov	ecx, DWORD PTR _pEntity$[ebp]
	call	?GetAbsVelocity@CBaseEntity@@QBEABVVector@@XZ ; CBaseEntity::GetAbsVelocity
	mov	ecx, DWORD PTR ?gpGlobals@@3PAUglobalvars_t@@A ; gpGlobals
	movss	xmm0, DWORD PTR _gravity$10[ebp]
	mulss	xmm0, DWORD PTR [ecx+4]
	comiss	xmm0, DWORD PTR [eax+8]
	jbe	SHORT $LN27@SV_Physics

; 1992 : 		{
; 1993 : 			// we're rolling on the ground, add static friction.
; 1994 : 			pEntity->SetGroundEntity( trace.pHit );

	mov	eax, DWORD PTR _trace$[ebp+48]
	push	eax
	mov	ecx, DWORD PTR _pEntity$[ebp]
	call	?SetGroundEntity@CBaseEntity@@QAEXPAUedict_s@@@Z ; CBaseEntity::SetGroundEntity

; 1995 : 			vecAbsVelocity = pEntity->GetAbsVelocity();			

	mov	ecx, DWORD PTR _pEntity$[ebp]
	call	?GetAbsVelocity@CBaseEntity@@QBEABVVector@@XZ ; CBaseEntity::GetAbsVelocity
	mov	ecx, DWORD PTR [eax]
	mov	DWORD PTR _vecAbsVelocity$[ebp], ecx
	mov	edx, DWORD PTR [eax+4]
	mov	DWORD PTR _vecAbsVelocity$[ebp+4], edx
	mov	eax, DWORD PTR [eax+8]
	mov	DWORD PTR _vecAbsVelocity$[ebp+8], eax

; 1996 : 			vecAbsVelocity.z = 0.0f;

	xorps	xmm0, xmm0
	movss	DWORD PTR _vecAbsVelocity$[ebp+8], xmm0

; 1997 : 			pEntity->SetAbsVelocity( vecAbsVelocity );

	lea	eax, DWORD PTR _vecAbsVelocity$[ebp]
	push	eax
	mov	ecx, DWORD PTR _pEntity$[ebp]
	call	?SetAbsVelocity@CBaseEntity@@QAEXABVVector@@@Z ; CBaseEntity::SetAbsVelocity
$LN27@SV_Physics:

; 1998 : 		}
; 1999 : 
; 2000 : 		if( vel < 900.0f || ( pEntity->pev->movetype != MOVETYPE_BOUNCE && pEntity->pev->movetype != MOVETYPE_BOUNCEMISSILE ))

	movss	xmm0, DWORD PTR __real@44610000
	comiss	xmm0, DWORD PTR _vel$9[ebp]
	ja	SHORT $LN30@SV_Physics
	mov	eax, DWORD PTR _pEntity$[ebp]
	mov	ecx, DWORD PTR [eax+4]
	cmp	DWORD PTR [ecx+264], 10			; 0000000aH
	je	SHORT $LN28@SV_Physics
	mov	eax, DWORD PTR _pEntity$[ebp]
	mov	ecx, DWORD PTR [eax+4]
	cmp	DWORD PTR [ecx+264], 11			; 0000000bH
	je	SHORT $LN28@SV_Physics
$LN30@SV_Physics:

; 2001 : 		{
; 2002 : 			pEntity->SetGroundEntity( trace.pHit );

	mov	eax, DWORD PTR _trace$[ebp+48]
	push	eax
	mov	ecx, DWORD PTR _pEntity$[ebp]
	call	?SetGroundEntity@CBaseEntity@@QAEXPAUedict_s@@@Z ; CBaseEntity::SetGroundEntity

; 2003 : 			pEntity->SetLocalAvelocity( g_vecZero );

	push	OFFSET ?g_vecZero@@3VVector@@B		; g_vecZero
	mov	ecx, DWORD PTR _pEntity$[ebp]
	call	?SetLocalAvelocity@CBaseEntity@@QAEXABVVector@@@Z ; CBaseEntity::SetLocalAvelocity

; 2004 : 			pEntity->SetLocalVelocity( g_vecZero );

	push	OFFSET ?g_vecZero@@3VVector@@B		; g_vecZero
	mov	ecx, DWORD PTR _pEntity$[ebp]
	call	?SetLocalVelocity@CBaseEntity@@QAEXABVVector@@@Z ; CBaseEntity::SetLocalVelocity

; 2005 : 		}
; 2006 : 		else

	jmp	$LN31@SV_Physics
$LN28@SV_Physics:

; 2007 : 		{
; 2008 : 			move = pEntity->GetAbsVelocity() * ((1.0f - trace.flFraction) * gpGlobals->frametime * 0.9f);

	movss	xmm0, DWORD PTR __real@3f800000
	subss	xmm0, DWORD PTR _trace$[ebp+16]
	mov	eax, DWORD PTR ?gpGlobals@@3PAUglobalvars_t@@A ; gpGlobals
	mulss	xmm0, DWORD PTR [eax+4]
	mulss	xmm0, DWORD PTR __real@3f666666
	push	ecx
	movss	DWORD PTR [esp], xmm0
	lea	ecx, DWORD PTR $T4[ebp]
	push	ecx
	mov	ecx, DWORD PTR _pEntity$[ebp]
	call	?GetAbsVelocity@CBaseEntity@@QBEABVVector@@XZ ; CBaseEntity::GetAbsVelocity
	mov	ecx, eax
	call	??DVector@@QBE?AV0@M@Z			; Vector::operator*
	mov	edx, DWORD PTR [eax]
	mov	DWORD PTR _move$[ebp], edx
	mov	ecx, DWORD PTR [eax+4]
	mov	DWORD PTR _move$[ebp+4], ecx
	mov	edx, DWORD PTR [eax+8]
	mov	DWORD PTR _move$[ebp+8], edx

; 2009 : 			move += pEntity->GetBaseVelocity() * ((1.0f - trace.flFraction) * gpGlobals->frametime * 0.9f);

	movss	xmm0, DWORD PTR __real@3f800000
	subss	xmm0, DWORD PTR _trace$[ebp+16]
	mov	eax, DWORD PTR ?gpGlobals@@3PAUglobalvars_t@@A ; gpGlobals
	mulss	xmm0, DWORD PTR [eax+4]
	mulss	xmm0, DWORD PTR __real@3f666666
	push	ecx
	movss	DWORD PTR [esp], xmm0
	lea	ecx, DWORD PTR $T3[ebp]
	push	ecx
	mov	ecx, DWORD PTR _pEntity$[ebp]
	call	?GetBaseVelocity@CBaseEntity@@QBEABVVector@@XZ ; CBaseEntity::GetBaseVelocity
	mov	ecx, eax
	call	??DVector@@QBE?AV0@M@Z			; Vector::operator*
	push	eax
	lea	ecx, DWORD PTR _move$[ebp]
	call	??YVector@@QAEAAV0@ABV0@@Z		; Vector::operator+=

; 2010 : 			trace = SV_PushEntity( pEntity, move, g_vecZero, NULL );

	push	0
	push	OFFSET ?g_vecZero@@3VVector@@B		; g_vecZero
	lea	eax, DWORD PTR _move$[ebp]
	push	eax
	mov	ecx, DWORD PTR _pEntity$[ebp]
	push	ecx
	lea	edx, DWORD PTR $T1[ebp]
	push	edx
	call	?SV_PushEntity@@YA?AUgametrace_s@@PAVCBaseEntity@@ABVVector@@1PAH@Z ; SV_PushEntity
	add	esp, 20					; 00000014H
	mov	ecx, 14					; 0000000eH
	mov	esi, eax
	lea	edi, DWORD PTR $T2[ebp]
	rep movsd
	mov	ecx, 14					; 0000000eH
	lea	esi, DWORD PTR $T2[ebp]
	lea	edi, DWORD PTR _trace$[ebp]
	rep movsd

; 2011 : 			if( ed->free ) return;

	mov	eax, DWORD PTR _ed$[ebp]
	cmp	DWORD PTR [eax], 0
	je	SHORT $LN31@SV_Physics
	jmp	SHORT $LN1@SV_Physics
$LN31@SV_Physics:

; 2012 : 		}
; 2013 : 	}
; 2014 : 
; 2015 : 	if( pEntity->m_iActorType == ACTOR_CHARACTER )

	mov	eax, DWORD PTR _pEntity$[ebp]
	movzx	ecx, BYTE PTR [eax+1616]
	cmp	ecx, 3
	jne	SHORT $LN32@SV_Physics

; 2016 : 		WorldPhysic->MoveCharacter( pEntity );

	mov	eax, DWORD PTR _pEntity$[ebp]
	push	eax
	mov	ecx, DWORD PTR ?WorldPhysic@@3PAVIPhysicLayer@@A ; WorldPhysic
	mov	edx, DWORD PTR [ecx]
	mov	ecx, DWORD PTR ?WorldPhysic@@3PAVIPhysicLayer@@A ; WorldPhysic
	mov	eax, DWORD PTR [edx+144]
	call	eax
$LN32@SV_Physics:

; 2017 : 	
; 2018 : 	// check for in water
; 2019 : 	SV_CheckWaterTransition( pEntity );

	mov	eax, DWORD PTR _pEntity$[ebp]
	push	eax
	call	?SV_CheckWaterTransition@@YAXPAVCBaseEntity@@@Z ; SV_CheckWaterTransition
	add	esp, 4
$LN1@SV_Physics:

; 2020 : }

	pop	edi
	pop	esi
	pop	ebx
	mov	esp, ebp
	pop	ebp
	ret	0
?SV_Physics_Toss@@YAXPAVCBaseEntity@@@Z ENDP		; SV_Physics_Toss
_TEXT	ENDS
; Function compile flags: /Odtp /ZI
; File d:\!diffusion 2020\source code 2022\client-server\server\physics\physic.cpp
;	COMDAT ?SV_Physics_Compound@@YAXPAVCBaseEntity@@@Z
_TEXT	SEGMENT
_pParent$ = -4						; size = 4
_pEntity$ = 8						; size = 4
?SV_Physics_Compound@@YAXPAVCBaseEntity@@@Z PROC	; SV_Physics_Compound, COMDAT

; 1850 : {

	push	ebp
	mov	ebp, esp
	sub	esp, 68					; 00000044H
	push	ebx
	push	esi
	push	edi

; 1851 : 	// regular thinking
; 1852 : 	if( !SV_RunThink( pEntity )) return;

	mov	eax, DWORD PTR _pEntity$[ebp]
	push	eax
	call	?SV_RunThink@@YAHPAVCBaseEntity@@@Z	; SV_RunThink
	add	esp, 4
	test	eax, eax
	jne	SHORT $LN2@SV_Physics
	jmp	SHORT $LN1@SV_Physics
$LN2@SV_Physics:

; 1853 : 
; 1854 : 	CBaseEntity *pParent = CBaseEntity :: Instance( pEntity->pev->aiment );

	mov	eax, DWORD PTR _pEntity$[ebp]
	mov	ecx, DWORD PTR [eax+4]
	mov	edx, DWORD PTR [ecx+404]
	push	edx
	call	?Instance@CBaseEntity@@SAPAV1@PAUedict_s@@@Z ; CBaseEntity::Instance
	add	esp, 4
	mov	DWORD PTR _pParent$[ebp], eax

; 1855 : 	if( !pParent ) return;

	cmp	DWORD PTR _pParent$[ebp], 0
	jne	SHORT $LN3@SV_Physics
	jmp	SHORT $LN1@SV_Physics
$LN3@SV_Physics:

; 1856 : 
; 1857 : 	// not initialized ?
; 1858 : 	if( pEntity->m_hParent != pParent )

	mov	ecx, DWORD PTR _pEntity$[ebp]
	add	ecx, 160				; 000000a0H
	call	??BEHANDLE@@QAEPAVCBaseEntity@@XZ	; EHANDLE::operator CBaseEntity *
	cmp	eax, DWORD PTR _pParent$[ebp]
	je	SHORT $LN1@SV_Physics

; 1859 : 	{
; 1860 : 		if( pEntity->pev->solid != SOLID_TRIGGER )

	mov	eax, DWORD PTR _pEntity$[ebp]
	mov	ecx, DWORD PTR [eax+4]
	cmp	DWORD PTR [ecx+268], 1
	je	SHORT $LN5@SV_Physics

; 1861 : 			pEntity->pev->solid = SOLID_NOT;

	mov	eax, DWORD PTR _pEntity$[ebp]
	mov	ecx, DWORD PTR [eax+4]
	mov	DWORD PTR [ecx+268], 0
$LN5@SV_Physics:

; 1862 : 		pEntity->SetParent( pParent );

	push	0
	mov	eax, DWORD PTR _pParent$[ebp]
	push	eax
	mov	ecx, DWORD PTR _pEntity$[ebp]
	call	?SetParent@CBaseEntity@@QAEXPAV1@H@Z	; CBaseEntity::SetParent
$LN1@SV_Physics:

; 1863 : 	}
; 1864 : }

	pop	edi
	pop	esi
	pop	ebx
	mov	esp, ebp
	pop	ebp
	ret	0
?SV_Physics_Compound@@YAXPAVCBaseEntity@@@Z ENDP	; SV_Physics_Compound
_TEXT	ENDS
; Function compile flags: /Odtp /ZI
; File d:\!diffusion 2020\source code 2022\client-server\server\physics\physic.cpp
;	COMDAT ?SV_Physics_Follow@@YAXPAVCBaseEntity@@@Z
_TEXT	SEGMENT
$T1 = -80						; size = 12
_pParent$ = -4						; size = 4
_pEntity$ = 8						; size = 4
?SV_Physics_Follow@@YAXPAVCBaseEntity@@@Z PROC		; SV_Physics_Follow, COMDAT

; 1827 : {

	push	ebp
	mov	ebp, esp
	sub	esp, 80					; 00000050H
	push	ebx
	push	esi
	push	edi

; 1828 : 	CBaseEntity *pParent;
; 1829 : 
; 1830 : 	// regular thinking
; 1831 : 	if( !SV_RunThink( pEntity )) return;

	mov	eax, DWORD PTR _pEntity$[ebp]
	push	eax
	call	?SV_RunThink@@YAHPAVCBaseEntity@@@Z	; SV_RunThink
	add	esp, 4
	test	eax, eax
	jne	SHORT $LN2@SV_Physics
	jmp	SHORT $LN1@SV_Physics
$LN2@SV_Physics:

; 1832 : 
; 1833 : 	pParent = CBaseEntity::Instance( pEntity->pev->aiment );

	mov	eax, DWORD PTR _pEntity$[ebp]
	mov	ecx, DWORD PTR [eax+4]
	mov	edx, DWORD PTR [ecx+404]
	push	edx
	call	?Instance@CBaseEntity@@SAPAV1@PAUedict_s@@@Z ; CBaseEntity::Instance
	add	esp, 4
	mov	DWORD PTR _pParent$[ebp], eax

; 1834 : 	if( !pParent ) return;

	cmp	DWORD PTR _pParent$[ebp], 0
	jne	SHORT $LN3@SV_Physics
	jmp	SHORT $LN1@SV_Physics
$LN3@SV_Physics:

; 1835 : 
; 1836 : 	pEntity->pev->v_angle = pParent->EyePosition();

	lea	eax, DWORD PTR $T1[ebp]
	push	eax
	mov	ecx, DWORD PTR _pParent$[ebp]
	mov	edx, DWORD PTR [ecx]
	mov	ecx, DWORD PTR _pParent$[ebp]
	mov	eax, DWORD PTR [edx+340]
	call	eax
	mov	ecx, DWORD PTR _pEntity$[ebp]
	mov	edx, DWORD PTR [ecx+4]
	add	edx, 116				; 00000074H
	mov	ecx, DWORD PTR [eax]
	mov	DWORD PTR [edx], ecx
	mov	ecx, DWORD PTR [eax+4]
	mov	DWORD PTR [edx+4], ecx
	mov	eax, DWORD PTR [eax+8]
	mov	DWORD PTR [edx+8], eax

; 1837 : 	pEntity->SetAbsAngles( pParent->GetAbsAngles());

	mov	ecx, DWORD PTR _pParent$[ebp]
	call	?GetAbsAngles@CBaseEntity@@QBEABVVector@@XZ ; CBaseEntity::GetAbsAngles
	push	eax
	mov	ecx, DWORD PTR _pEntity$[ebp]
	call	?SetAbsAngles@CBaseEntity@@QAEXABVVector@@@Z ; CBaseEntity::SetAbsAngles

; 1838 : 
; 1839 : 	pEntity->RelinkEntity();

	push	0
	push	0
	push	0
	mov	ecx, DWORD PTR _pEntity$[ebp]
	call	?RelinkEntity@CBaseEntity@@QAEXHPBVVector@@H@Z ; CBaseEntity::RelinkEntity
$LN1@SV_Physics:

; 1840 : }

	pop	edi
	pop	esi
	pop	ebx
	mov	esp, ebp
	pop	ebp
	ret	0
?SV_Physics_Follow@@YAXPAVCBaseEntity@@@Z ENDP		; SV_Physics_Follow
_TEXT	ENDS
; Function compile flags: /Odtp /ZI
; File d:\!diffusion 2020\source code 2022\client-server\server\physics\physic.cpp
;	COMDAT ?SV_Physics_Noclip@@YAXPAVCBaseEntity@@@Z
_TEXT	SEGMENT
_pEntity$ = 8						; size = 4
?SV_Physics_Noclip@@YAXPAVCBaseEntity@@@Z PROC		; SV_Physics_Noclip, COMDAT

; 1806 : {

	push	ebp
	mov	ebp, esp
	sub	esp, 64					; 00000040H
	push	ebx
	push	esi
	push	edi

; 1807 : 	// regular thinking
; 1808 : 	if( !SV_RunThink( pEntity )) return;

	mov	eax, DWORD PTR _pEntity$[ebp]
	push	eax
	call	?SV_RunThink@@YAHPAVCBaseEntity@@@Z	; SV_RunThink
	add	esp, 4
	test	eax, eax
	jne	SHORT $LN2@SV_Physics
	jmp	SHORT $LN1@SV_Physics
$LN2@SV_Physics:

; 1809 : 
; 1810 : 	SV_CheckWater( pEntity );	

	mov	eax, DWORD PTR _pEntity$[ebp]
	push	eax
	call	?SV_CheckWater@@YAHPAVCBaseEntity@@@Z	; SV_CheckWater
	add	esp, 4

; 1811 : 
; 1812 : 	SV_LinearMove( pEntity, gpGlobals->frametime, pEntity->pev->friction );

	mov	eax, DWORD PTR _pEntity$[ebp]
	mov	ecx, DWORD PTR [eax+4]
	push	ecx
	movss	xmm0, DWORD PTR [ecx+288]
	movss	DWORD PTR [esp], xmm0
	mov	edx, DWORD PTR ?gpGlobals@@3PAUglobalvars_t@@A ; gpGlobals
	push	ecx
	movss	xmm0, DWORD PTR [edx+4]
	movss	DWORD PTR [esp], xmm0
	mov	eax, DWORD PTR _pEntity$[ebp]
	push	eax
	call	?SV_LinearMove@@YAXPAVCBaseEntity@@MM@Z	; SV_LinearMove
	add	esp, 12					; 0000000cH

; 1813 : 	SV_AngularMove( pEntity, gpGlobals->frametime, pEntity->pev->friction );

	mov	eax, DWORD PTR _pEntity$[ebp]
	mov	ecx, DWORD PTR [eax+4]
	push	ecx
	movss	xmm0, DWORD PTR [ecx+288]
	movss	DWORD PTR [esp], xmm0
	mov	edx, DWORD PTR ?gpGlobals@@3PAUglobalvars_t@@A ; gpGlobals
	push	ecx
	movss	xmm0, DWORD PTR [edx+4]
	movss	DWORD PTR [esp], xmm0
	mov	eax, DWORD PTR _pEntity$[ebp]
	push	eax
	call	?SV_AngularMove@@YAXPAVCBaseEntity@@MM@Z ; SV_AngularMove
	add	esp, 12					; 0000000cH

; 1814 : 
; 1815 : 	// noclip ents never touch triggers
; 1816 : 	pEntity->RelinkEntity( FALSE );

	push	0
	push	0
	push	0
	mov	ecx, DWORD PTR _pEntity$[ebp]
	call	?RelinkEntity@CBaseEntity@@QAEXHPBVVector@@H@Z ; CBaseEntity::RelinkEntity
$LN1@SV_Physics:

; 1817 : }

	pop	edi
	pop	esi
	pop	ebx
	mov	esp, ebp
	pop	ebp
	ret	0
?SV_Physics_Noclip@@YAXPAVCBaseEntity@@@Z ENDP		; SV_Physics_Noclip
_TEXT	ENDS
; Function compile flags: /Odtp /ZI
; File d:\!diffusion 2020\source code 2022\client-server\server\physics\physic.cpp
;	COMDAT ?SV_Physics_Rigid@@YAXPAVCBaseEntity@@@Z
_TEXT	SEGMENT
tv192 = -164						; size = 4
$T1 = -160						; size = 12
_vecEnd$ = -84						; size = 12
_vecPos$ = -72						; size = 12
_trace$ = -60						; size = 56
_pGround$ = -4						; size = 4
_pEntity$ = 8						; size = 4
?SV_Physics_Rigid@@YAXPAVCBaseEntity@@@Z PROC		; SV_Physics_Rigid, COMDAT

; 1755 : {

	push	ebp
	mov	ebp, esp
	sub	esp, 164				; 000000a4H
	push	ebx
	push	esi
	push	edi

; 1756 : 	if( !SV_RunThink( pEntity ))

	mov	eax, DWORD PTR _pEntity$[ebp]
	push	eax
	call	?SV_RunThink@@YAHPAVCBaseEntity@@@Z	; SV_RunThink
	add	esp, 4
	test	eax, eax
	jne	SHORT $LN2@SV_Physics

; 1757 : 		return;

	jmp	$LN1@SV_Physics
$LN2@SV_Physics:

; 1758 : 
; 1759 : 	UTIL_WaterMove( pEntity );

	mov	eax, DWORD PTR _pEntity$[ebp]
	push	eax
	call	?UTIL_WaterMove@@YAXPAVCBaseEntity@@@Z	; UTIL_WaterMove
	add	esp, 4

; 1760 : 	SV_CheckWater( pEntity );

	mov	eax, DWORD PTR _pEntity$[ebp]
	push	eax
	call	?SV_CheckWater@@YAHPAVCBaseEntity@@@Z	; SV_CheckWater
	add	esp, 4

; 1761 : 	WorldPhysic->UpdateEntityPos( pEntity );

	mov	eax, DWORD PTR _pEntity$[ebp]
	push	eax
	mov	ecx, DWORD PTR ?WorldPhysic@@3PAVIPhysicLayer@@A ; WorldPhysic
	mov	edx, DWORD PTR [ecx]
	mov	ecx, DWORD PTR ?WorldPhysic@@3PAVIPhysicLayer@@A ; WorldPhysic
	mov	eax, DWORD PTR [edx+108]
	call	eax

; 1762 : 
; 1763 : 	// detect the ground
; 1764 : 	CBaseEntity *pGround = pEntity->GetGroundEntity();

	mov	ecx, DWORD PTR _pEntity$[ebp]
	call	?GetGroundEntity@CBaseEntity@@QAEPAV1@XZ ; CBaseEntity::GetGroundEntity
	mov	DWORD PTR _pGround$[ebp], eax

; 1765 : 
; 1766 : 	if( pEntity->GetAbsVelocity().z > 0.0f || pGround == NULL || (pGround->pev->flags & ( FL_MONSTER|FL_CLIENT )))

	mov	ecx, DWORD PTR _pEntity$[ebp]
	call	?GetAbsVelocity@CBaseEntity@@QBEABVVector@@XZ ; CBaseEntity::GetAbsVelocity
	movss	xmm0, DWORD PTR [eax+8]
	comiss	xmm0, DWORD PTR __real@00000000
	ja	SHORT $LN4@SV_Physics
	cmp	DWORD PTR _pGround$[ebp], 0
	je	SHORT $LN4@SV_Physics
	mov	eax, DWORD PTR _pGround$[ebp]
	mov	ecx, DWORD PTR [eax+4]
	mov	edx, DWORD PTR [ecx+420]
	and	edx, 40					; 00000028H
	je	SHORT $LN3@SV_Physics
$LN4@SV_Physics:

; 1767 : 	{
; 1768 : 		pEntity->pev->flags &= ~FL_ONGROUND;

	mov	eax, DWORD PTR _pEntity$[ebp]
	mov	ecx, DWORD PTR [eax+4]
	mov	edx, DWORD PTR [ecx+420]
	and	edx, -513				; fffffdffH
	mov	eax, DWORD PTR _pEntity$[ebp]
	mov	ecx, DWORD PTR [eax+4]
	mov	DWORD PTR [ecx+420], edx
$LN3@SV_Physics:

; 1769 : 	}
; 1770 : 
; 1771 : 	if( pEntity->m_iFlags & MF_GROUNDMOVE )

	mov	eax, DWORD PTR _pEntity$[ebp]
	mov	ecx, DWORD PTR [eax+24]
	and	ecx, 4
	je	SHORT $LN5@SV_Physics

; 1772 : 	{
; 1773 : 		pEntity->ClearGroundEntity();

	mov	ecx, DWORD PTR _pEntity$[ebp]
	call	?ClearGroundEntity@CBaseEntity@@QAEXXZ	; CBaseEntity::ClearGroundEntity

; 1774 : 		pEntity->m_iFlags &= ~MF_GROUNDMOVE;

	mov	eax, DWORD PTR _pEntity$[ebp]
	mov	ecx, DWORD PTR [eax+24]
	and	ecx, -5					; fffffffbH
	mov	edx, DWORD PTR _pEntity$[ebp]
	mov	DWORD PTR [edx+24], ecx
$LN5@SV_Physics:

; 1775 : 	}
; 1776 : 
; 1777 : 	// if on ground or not moving, return.
; 1778 : 	if( pEntity->pev->flags & FL_ONGROUND || WorldPhysic->IsBodySleeping( pEntity ))

	mov	eax, DWORD PTR _pEntity$[ebp]
	mov	ecx, DWORD PTR [eax+4]
	mov	edx, DWORD PTR [ecx+420]
	and	edx, 512				; 00000200H
	jne	SHORT $LN7@SV_Physics
	mov	eax, DWORD PTR _pEntity$[ebp]
	push	eax
	mov	ecx, DWORD PTR ?WorldPhysic@@3PAVIPhysicLayer@@A ; WorldPhysic
	mov	edx, DWORD PTR [ecx]
	mov	ecx, DWORD PTR ?WorldPhysic@@3PAVIPhysicLayer@@A ; WorldPhysic
	mov	eax, DWORD PTR [edx+160]
	call	eax
	movzx	ecx, al
	test	ecx, ecx
	je	SHORT $LN6@SV_Physics
$LN7@SV_Physics:

; 1779 : 	{
; 1780 : 		if( pGround && FBitSet( pGround->pev->flags, FL_CONVEYOR ) && pGround->pev->speed && WorldPhysic->IsBodySleeping( pEntity ))

	cmp	DWORD PTR _pGround$[ebp], 0
	je	SHORT $LN8@SV_Physics
	mov	eax, DWORD PTR _pGround$[ebp]
	mov	ecx, DWORD PTR [eax+4]
	mov	edx, DWORD PTR [ecx+420]
	and	edx, 4
	je	SHORT $LN8@SV_Physics
	mov	eax, DWORD PTR _pGround$[ebp]
	mov	ecx, DWORD PTR [eax+4]
	movss	xmm0, DWORD PTR [ecx+504]
	ucomiss	xmm0, DWORD PTR __real@00000000
	lahf
	test	ah, 68					; 00000044H
	jnp	SHORT $LN8@SV_Physics
	mov	eax, DWORD PTR _pEntity$[ebp]
	push	eax
	mov	ecx, DWORD PTR ?WorldPhysic@@3PAVIPhysicLayer@@A ; WorldPhysic
	mov	edx, DWORD PTR [ecx]
	mov	ecx, DWORD PTR ?WorldPhysic@@3PAVIPhysicLayer@@A ; WorldPhysic
	mov	eax, DWORD PTR [edx+160]
	call	eax
	movzx	ecx, al
	test	ecx, ecx
	je	SHORT $LN8@SV_Physics

; 1781 : 		{
; 1782 : 			// wake up body if conveyor was enabled (add light kick)
; 1783 : 			WorldPhysic->AddForce( pEntity, pGround->pev->movedir );

	mov	eax, DWORD PTR _pGround$[ebp]
	mov	ecx, DWORD PTR [eax+4]
	add	ecx, 68					; 00000044H
	push	ecx
	mov	edx, DWORD PTR _pEntity$[ebp]
	push	edx
	mov	eax, DWORD PTR ?WorldPhysic@@3PAVIPhysicLayer@@A ; WorldPhysic
	mov	edx, DWORD PTR [eax]
	mov	ecx, DWORD PTR ?WorldPhysic@@3PAVIPhysicLayer@@A ; WorldPhysic
	mov	eax, DWORD PTR [edx+84]
	call	eax
$LN8@SV_Physics:

; 1784 : 		}
; 1785 : 		return;	// at rest

	jmp	$LN1@SV_Physics
$LN6@SV_Physics:

; 1786 : 	}
; 1787 : 
; 1788 : 	TraceResult trace;

	lea	ecx, DWORD PTR _trace$[ebp]
	call	??0gametrace_s@@QAE@XZ

; 1789 : 	Vector vecPos = pEntity->GetAbsOrigin();

	mov	ecx, DWORD PTR _pEntity$[ebp]
	call	?GetAbsOrigin@CBaseEntity@@QBEABVVector@@XZ ; CBaseEntity::GetAbsOrigin
	push	eax
	lea	ecx, DWORD PTR _vecPos$[ebp]
	call	??0Vector@@QAE@ABV0@@Z			; Vector::Vector

; 1790 : 	Vector vecEnd = vecPos + pEntity->pev->mins.z - 1.0f;

	push	ecx
	movss	xmm0, DWORD PTR __real@3f800000
	movss	DWORD PTR [esp], xmm0
	lea	eax, DWORD PTR _vecEnd$[ebp]
	push	eax
	mov	ecx, DWORD PTR _pEntity$[ebp]
	mov	edx, DWORD PTR [ecx+4]
	push	ecx
	movss	xmm0, DWORD PTR [edx+228]
	movss	DWORD PTR [esp], xmm0
	lea	eax, DWORD PTR $T1[ebp]
	push	eax
	lea	ecx, DWORD PTR _vecPos$[ebp]
	call	??HVector@@QBE?AV0@M@Z			; Vector::operator+
	mov	ecx, eax
	call	??GVector@@QBE?AV0@M@Z			; Vector::operator-

; 1791 : 
; 1792 : 	UTIL_TraceLine( vecPos, vecEnd, ignore_monsters, pEntity->edict() ,&trace );

	lea	eax, DWORD PTR _trace$[ebp]
	push	eax
	mov	ecx, DWORD PTR _pEntity$[ebp]
	call	?edict@CBaseEntity@@QAEPAUedict_s@@XZ	; CBaseEntity::edict
	push	eax
	push	1
	lea	ecx, DWORD PTR _vecEnd$[ebp]
	push	ecx
	lea	edx, DWORD PTR _vecPos$[ebp]
	push	edx
	call	?UTIL_TraceLine@@YAXABVVector@@0W4IGNORE_MONSTERS@@PAUedict_s@@PAUgametrace_s@@@Z ; UTIL_TraceLine
	add	esp, 20					; 00000014H

; 1793 : 
; 1794 : 	if( trace.vecPlaneNormal[2] > 0.7f )

	lea	ecx, DWORD PTR _trace$[ebp+36]
	call	??BVector@@QAEPAMXZ			; Vector::operator float *
	mov	ecx, 4
	shl	ecx, 1
	movss	xmm0, DWORD PTR [eax+ecx]
	comiss	xmm0, DWORD PTR __real@3f333333
	jbe	SHORT $LN9@SV_Physics

; 1795 : 		pEntity->SetGroundEntity( trace.pHit ? trace.pHit : ENT( 0 ));

	cmp	DWORD PTR _trace$[ebp+48], 0
	je	SHORT $LN11@SV_Physics
	mov	eax, DWORD PTR _trace$[ebp+48]
	mov	DWORD PTR tv192[ebp], eax
	jmp	SHORT $LN12@SV_Physics
$LN11@SV_Physics:
	push	0
	call	?ENT@@YAPAUedict_s@@H@Z			; ENT
	add	esp, 4
	mov	DWORD PTR tv192[ebp], eax
$LN12@SV_Physics:
	mov	ecx, DWORD PTR tv192[ebp]
	push	ecx
	mov	ecx, DWORD PTR _pEntity$[ebp]
	call	?SetGroundEntity@CBaseEntity@@QAEXPAUedict_s@@@Z ; CBaseEntity::SetGroundEntity
$LN9@SV_Physics:
$LN1@SV_Physics:

; 1796 : }

	pop	edi
	pop	esi
	pop	ebx
	mov	esp, ebp
	pop	ebp
	ret	0
?SV_Physics_Rigid@@YAXPAVCBaseEntity@@@Z ENDP		; SV_Physics_Rigid
_TEXT	ENDS
; Function compile flags: /Odtp /ZI
; File d:\!diffusion 2020\source code 2022\client-server\server\physics\physic.cpp
;	COMDAT ?SV_Physics_None@@YAXPAVCBaseEntity@@@Z
_TEXT	SEGMENT
_pEntity$ = 8						; size = 4
?SV_Physics_None@@YAXPAVCBaseEntity@@@Z PROC		; SV_Physics_None, COMDAT

; 1739 : {

	push	ebp
	mov	ebp, esp
	sub	esp, 64					; 00000040H
	push	ebx
	push	esi
	push	edi

; 1740 : 	if( !SV_RunThink( pEntity ))

	mov	eax, DWORD PTR _pEntity$[ebp]
	push	eax
	call	?SV_RunThink@@YAHPAVCBaseEntity@@@Z	; SV_RunThink
	add	esp, 4
	test	eax, eax
	jne	SHORT $LN2@SV_Physics

; 1741 : 		return;

	jmp	SHORT $LN1@SV_Physics
$LN2@SV_Physics:

; 1742 : 
; 1743 : 	if( pEntity->m_hParent )

	mov	ecx, DWORD PTR _pEntity$[ebp]
	add	ecx, 160				; 000000a0H
	call	??BEHANDLE@@QAEHXZ			; EHANDLE::operator int
	test	eax, eax
	je	SHORT $LN1@SV_Physics

; 1744 : 		pEntity->RelinkEntity( TRUE );

	push	0
	push	0
	push	1
	mov	ecx, DWORD PTR _pEntity$[ebp]
	call	?RelinkEntity@CBaseEntity@@QAEXHPBVVector@@H@Z ; CBaseEntity::RelinkEntity
$LN1@SV_Physics:

; 1745 : }

	pop	edi
	pop	esi
	pop	ebx
	mov	esp, ebp
	pop	ebp
	ret	0
?SV_Physics_None@@YAXPAVCBaseEntity@@@Z ENDP		; SV_Physics_None
_TEXT	ENDS
; Function compile flags: /Odtp /ZI
; File d:\!diffusion 2020\source code 2022\client-server\server\physics\physic.cpp
;	COMDAT ?SV_PushEntity@@YA?AUgametrace_s@@PAVCBaseEntity@@ABVVector@@1PAH@Z
_TEXT	SEGMENT
tv189 = -216						; size = 4
tv180 = -216						; size = 4
tv153 = -216						; size = 4
tv133 = -216						; size = 4
$T1 = -212						; size = 56
_vecAngles$2 = -92					; size = 12
_end$ = -80						; size = 12
_start$ = -68						; size = 12
_trace$ = -56						; size = 56
$T3 = 8							; size = 4
_pEntity$ = 12						; size = 4
_lpush$ = 16						; size = 4
_apush$ = 20						; size = 4
_blocked$ = 24						; size = 4
?SV_PushEntity@@YA?AUgametrace_s@@PAVCBaseEntity@@ABVVector@@1PAH@Z PROC ; SV_PushEntity, COMDAT

; 1686 : {

	push	ebp
	mov	ebp, esp
	sub	esp, 216				; 000000d8H
	push	ebx
	push	esi
	push	edi

; 1687 : 	TraceResult trace;

	lea	ecx, DWORD PTR _trace$[ebp]
	call	??0gametrace_s@@QAE@XZ

; 1688 : 	Vector start = pEntity->GetAbsOrigin();

	mov	ecx, DWORD PTR _pEntity$[ebp]
	call	?GetAbsOrigin@CBaseEntity@@QBEABVVector@@XZ ; CBaseEntity::GetAbsOrigin
	push	eax
	lea	ecx, DWORD PTR _start$[ebp]
	call	??0Vector@@QAE@ABV0@@Z			; Vector::Vector

; 1689 : 	Vector end = start + lpush;

	mov	eax, DWORD PTR _lpush$[ebp]
	push	eax
	lea	ecx, DWORD PTR _end$[ebp]
	push	ecx
	lea	ecx, DWORD PTR _start$[ebp]
	call	??HVector@@QBE?AV0@ABV0@@Z		; Vector::operator+

; 1690 : 
; 1691 : 	UTIL_TraceEntity( pEntity, pEntity->GetAbsOrigin(), end, &trace );

	lea	eax, DWORD PTR _trace$[ebp]
	push	eax
	lea	ecx, DWORD PTR _end$[ebp]
	push	ecx
	mov	ecx, DWORD PTR _pEntity$[ebp]
	call	?GetAbsOrigin@CBaseEntity@@QBEABVVector@@XZ ; CBaseEntity::GetAbsOrigin
	push	eax
	mov	edx, DWORD PTR _pEntity$[ebp]
	push	edx
	call	?UTIL_TraceEntity@@YAXPAVCBaseEntity@@ABVVector@@1PAUgametrace_s@@@Z ; UTIL_TraceEntity
	add	esp, 16					; 00000010H

; 1692 : 
; 1693 : 	if( trace.flFraction != 0.0f )

	movss	xmm0, DWORD PTR _trace$[ebp+16]
	ucomiss	xmm0, DWORD PTR __real@00000000
	lahf
	test	ah, 68					; 00000044H
	jnp	$LN5@SV_PushEnt

; 1694 : 	{
; 1695 : 		pEntity->SetAbsOrigin( trace.vecEndPos );

	lea	eax, DWORD PTR _trace$[ebp+20]
	push	eax
	mov	ecx, DWORD PTR _pEntity$[ebp]
	call	?SetAbsOrigin@CBaseEntity@@QAEXABVVector@@@Z ; CBaseEntity::SetAbsOrigin

; 1696 : 
; 1697 : 		if( apush[YAW] && pEntity->IsNetClient( ))

	mov	ecx, DWORD PTR _apush$[ebp]
	call	??BVector@@QBEPBMXZ			; Vector::operator float const *
	mov	ecx, 4
	shl	ecx, 0
	movss	xmm0, DWORD PTR [eax+ecx]
	ucomiss	xmm0, DWORD PTR __real@00000000
	lahf
	test	ah, 68					; 00000044H
	jnp	SHORT $LN3@SV_PushEnt
	mov	eax, DWORD PTR _pEntity$[ebp]
	mov	edx, DWORD PTR [eax]
	mov	ecx, DWORD PTR _pEntity$[ebp]
	mov	eax, DWORD PTR [edx+224]
	call	eax
	test	eax, eax
	je	SHORT $LN3@SV_PushEnt

; 1698 : 		{
; 1699 : 			pEntity->pev->avelocity[YAW] += apush[YAW];

	mov	eax, DWORD PTR _pEntity$[ebp]
	mov	ecx, DWORD PTR [eax+4]
	add	ecx, 92					; 0000005cH
	call	??BVector@@QAEPAMXZ			; Vector::operator float *
	mov	ecx, 4
	shl	ecx, 0
	add	eax, ecx
	mov	DWORD PTR tv133[ebp], eax
	mov	ecx, DWORD PTR _apush$[ebp]
	call	??BVector@@QBEPBMXZ			; Vector::operator float const *
	mov	edx, 4
	shl	edx, 0
	mov	ecx, DWORD PTR tv133[ebp]
	movss	xmm0, DWORD PTR [ecx]
	addss	xmm0, DWORD PTR [eax+edx]
	mov	edx, DWORD PTR tv133[ebp]
	movss	DWORD PTR [edx], xmm0

; 1700 : 			pEntity->pev->fixangle = 2;

	mov	eax, DWORD PTR _pEntity$[ebp]
	mov	ecx, DWORD PTR [eax+4]
	mov	DWORD PTR [ecx+160], 2
$LN3@SV_PushEnt:

; 1701 : 		}
; 1702 : 
; 1703 : 		// don't rotate pushables!
; 1704 : 		if( SV_AllowPushRotate( pEntity ))

	mov	eax, DWORD PTR _pEntity$[ebp]
	push	eax
	call	?SV_AllowPushRotate@@YAHPAVCBaseEntity@@@Z ; SV_AllowPushRotate
	add	esp, 4
	test	eax, eax
	je	$LN5@SV_PushEnt

; 1705 : 		{
; 1706 : 			Vector vecAngles = pEntity->GetAbsAngles();

	mov	ecx, DWORD PTR _pEntity$[ebp]
	call	?GetAbsAngles@CBaseEntity@@QBEABVVector@@XZ ; CBaseEntity::GetAbsAngles
	push	eax
	lea	ecx, DWORD PTR _vecAngles$2[ebp]
	call	??0Vector@@QAE@ABV0@@Z			; Vector::Vector

; 1707 : 			vecAngles[YAW] += trace.flFraction * apush[YAW];

	lea	ecx, DWORD PTR _vecAngles$2[ebp]
	call	??BVector@@QAEPAMXZ			; Vector::operator float *
	mov	ecx, 4
	shl	ecx, 0
	add	eax, ecx
	mov	DWORD PTR tv153[ebp], eax
	mov	ecx, DWORD PTR _apush$[ebp]
	call	??BVector@@QBEPBMXZ			; Vector::operator float const *
	mov	edx, 4
	shl	edx, 0
	movss	xmm0, DWORD PTR _trace$[ebp+16]
	mulss	xmm0, DWORD PTR [eax+edx]
	mov	eax, DWORD PTR tv153[ebp]
	addss	xmm0, DWORD PTR [eax]
	mov	ecx, DWORD PTR tv153[ebp]
	movss	DWORD PTR [ecx], xmm0

; 1708 : 			pEntity->SetAbsAngles( vecAngles );

	lea	eax, DWORD PTR _vecAngles$2[ebp]
	push	eax
	mov	ecx, DWORD PTR _pEntity$[ebp]
	call	?SetAbsAngles@CBaseEntity@@QAEXABVVector@@@Z ; CBaseEntity::SetAbsAngles

; 1709 : 
; 1710 : 			// keep gait yaw is actual
; 1711 : 			if( pEntity->IsPlayer( ) && apush[YAW] != 0.0f )

	mov	eax, DWORD PTR _pEntity$[ebp]
	mov	edx, DWORD PTR [eax]
	mov	ecx, DWORD PTR _pEntity$[ebp]
	mov	eax, DWORD PTR [edx+220]
	call	eax
	test	eax, eax
	je	SHORT $LN5@SV_PushEnt
	mov	ecx, DWORD PTR _apush$[ebp]
	call	??BVector@@QBEPBMXZ			; Vector::operator float const *
	mov	ecx, 4
	shl	ecx, 0
	movss	xmm0, DWORD PTR [eax+ecx]
	ucomiss	xmm0, DWORD PTR __real@00000000
	lahf
	test	ah, 68					; 00000044H
	jnp	SHORT $LN5@SV_PushEnt

; 1712 : 				pEntity->m_flGaitYaw = pEntity->pev->angles[YAW];

	mov	eax, DWORD PTR _pEntity$[ebp]
	mov	ecx, DWORD PTR [eax+4]
	add	ecx, 80					; 00000050H
	call	??BVector@@QAEPAMXZ			; Vector::operator float *
	mov	ecx, 4
	shl	ecx, 0
	mov	edx, DWORD PTR _pEntity$[ebp]
	mov	eax, DWORD PTR [eax+ecx]
	mov	DWORD PTR [edx+56], eax
$LN5@SV_PushEnt:

; 1713 : 		}
; 1714 : 	}
; 1715 : 
; 1716 : 	// notsolid ents never touch triggers
; 1717 : 	pEntity->RelinkEntity( (pEntity->pev->solid == SOLID_NOT) ? FALSE : TRUE, &start );

	mov	eax, DWORD PTR _pEntity$[ebp]
	mov	ecx, DWORD PTR [eax+4]
	cmp	DWORD PTR [ecx+268], 0
	jne	SHORT $LN9@SV_PushEnt
	mov	DWORD PTR tv180[ebp], 0
	jmp	SHORT $LN10@SV_PushEnt
$LN9@SV_PushEnt:
	mov	DWORD PTR tv180[ebp], 1
$LN10@SV_PushEnt:
	push	0
	lea	edx, DWORD PTR _start$[ebp]
	push	edx
	mov	eax, DWORD PTR tv180[ebp]
	push	eax
	mov	ecx, DWORD PTR _pEntity$[ebp]
	call	?RelinkEntity@CBaseEntity@@QAEXHPBVVector@@H@Z ; CBaseEntity::RelinkEntity

; 1718 : 
; 1719 : 	if( blocked )

	cmp	DWORD PTR _blocked$[ebp], 0
	je	SHORT $LN6@SV_PushEnt

; 1720 : 	{
; 1721 : 		// can't move full distance
; 1722 : 		*blocked = ( pEntity->GetAbsOrigin() != end ) ? TRUE : FALSE;

	lea	eax, DWORD PTR _end$[ebp]
	push	eax
	mov	ecx, DWORD PTR _pEntity$[ebp]
	call	?GetAbsOrigin@CBaseEntity@@QBEABVVector@@XZ ; CBaseEntity::GetAbsOrigin
	mov	ecx, eax
	call	??9Vector@@QBEHABV0@@Z			; Vector::operator!=
	test	eax, eax
	je	SHORT $LN11@SV_PushEnt
	mov	DWORD PTR tv189[ebp], 1
	jmp	SHORT $LN12@SV_PushEnt
$LN11@SV_PushEnt:
	mov	DWORD PTR tv189[ebp], 0
$LN12@SV_PushEnt:
	mov	ecx, DWORD PTR _blocked$[ebp]
	mov	edx, DWORD PTR tv189[ebp]
	mov	DWORD PTR [ecx], edx
$LN6@SV_PushEnt:

; 1723 : 	}
; 1724 : 
; 1725 : 	// so we can run impact function afterwards.
; 1726 : 	if( trace.pHit ) SV_Impact( pEntity, NULL, &trace );

	cmp	DWORD PTR _trace$[ebp+48], 0
	je	SHORT $LN7@SV_PushEnt
	lea	eax, DWORD PTR _trace$[ebp]
	push	eax
	push	0
	mov	ecx, DWORD PTR _pEntity$[ebp]
	push	ecx
	call	?SV_Impact@@YAXPAVCBaseEntity@@0PAUgametrace_s@@@Z ; SV_Impact
	add	esp, 12					; 0000000cH
$LN7@SV_PushEnt:

; 1727 : 
; 1728 : 	return trace;

	lea	eax, DWORD PTR _trace$[ebp]
	push	eax
	lea	ecx, DWORD PTR $T1[ebp]
	call	??0gametrace_s@@QAE@$$QAU0@@Z
	mov	ecx, 14					; 0000000eH
	mov	esi, eax
	mov	edi, DWORD PTR $T3[ebp]
	rep movsd
	mov	eax, DWORD PTR $T3[ebp]

; 1729 : }

	pop	edi
	pop	esi
	pop	ebx
	mov	esp, ebp
	pop	ebp
	ret	0
?SV_PushEntity@@YA?AUgametrace_s@@PAVCBaseEntity@@ABVVector@@1PAH@Z ENDP ; SV_PushEntity
_TEXT	ENDS
; Function compile flags: /Odtp /ZI
; File d:\!diffusion 2020\source code 2022\client-server\server\physics\physic.cpp
;	COMDAT ?SV_AddHalfGravity@@YAXPAVCBaseEntity@@M@Z
_TEXT	SEGMENT
_vecAbsVelocity$ = -20					; size = 12
_gravity$ = -8						; size = 4
_ent_gravity$ = -4					; size = 4
_pEntity$ = 8						; size = 4
_timestep$ = 12						; size = 4
?SV_AddHalfGravity@@YAXPAVCBaseEntity@@M@Z PROC		; SV_AddHalfGravity, COMDAT

; 1658 : {

	push	ebp
	mov	ebp, esp
	sub	esp, 84					; 00000054H
	push	ebx
	push	esi
	push	edi

; 1659 : 	float	ent_gravity;
; 1660 : 
; 1661 : 	if( pEntity->pev->gravity )

	mov	eax, DWORD PTR _pEntity$[ebp]
	mov	ecx, DWORD PTR [eax+4]
	movss	xmm0, DWORD PTR [ecx+284]
	ucomiss	xmm0, DWORD PTR __real@00000000
	lahf
	test	ah, 68					; 00000044H
	jnp	SHORT $LN2@SV_AddHalf

; 1662 : 		ent_gravity = pEntity->pev->gravity;

	mov	eax, DWORD PTR _pEntity$[ebp]
	mov	ecx, DWORD PTR [eax+4]
	movss	xmm0, DWORD PTR [ecx+284]
	movss	DWORD PTR _ent_gravity$[ebp], xmm0
	jmp	SHORT $LN3@SV_AddHalf
$LN2@SV_AddHalf:

; 1663 : 	else ent_gravity = 1.0f;

	movss	xmm0, DWORD PTR __real@3f800000
	movss	DWORD PTR _ent_gravity$[ebp], xmm0
$LN3@SV_AddHalf:

; 1664 : 
; 1665 : 	float gravity = CVAR_GET_FLOAT( "sv_gravity" );

	push	OFFSET ??_C@_0L@FKMMBKBD@sv_gravity?$AA@
	call	DWORD PTR ?g_engfuncs@@3Uenginefuncs_s@@A+228
	add	esp, 4
	fstp	DWORD PTR _gravity$[ebp]

; 1666 : 	Vector vecAbsVelocity = pEntity->GetAbsVelocity();

	mov	ecx, DWORD PTR _pEntity$[ebp]
	call	?GetAbsVelocity@CBaseEntity@@QBEABVVector@@XZ ; CBaseEntity::GetAbsVelocity
	push	eax
	lea	ecx, DWORD PTR _vecAbsVelocity$[ebp]
	call	??0Vector@@QAE@ABV0@@Z			; Vector::Vector

; 1667 : 
; 1668 : 	// Add 1/2 of the total gravitational effects over this timestep
; 1669 : 	vecAbsVelocity.z -= ( 0.5f * ent_gravity * gravity * timestep );

	movss	xmm0, DWORD PTR __real@3f000000
	mulss	xmm0, DWORD PTR _ent_gravity$[ebp]
	mulss	xmm0, DWORD PTR _gravity$[ebp]
	mulss	xmm0, DWORD PTR _timestep$[ebp]
	movss	xmm1, DWORD PTR _vecAbsVelocity$[ebp+8]
	subss	xmm1, xmm0
	movss	DWORD PTR _vecAbsVelocity$[ebp+8], xmm1

; 1670 : 	vecAbsVelocity.z += pEntity->pev->basevelocity.z * gpGlobals->frametime;

	mov	eax, DWORD PTR _pEntity$[ebp]
	mov	ecx, DWORD PTR [eax+4]
	mov	edx, DWORD PTR ?gpGlobals@@3PAUglobalvars_t@@A ; gpGlobals
	movss	xmm0, DWORD PTR [ecx+52]
	mulss	xmm0, DWORD PTR [edx+4]
	addss	xmm0, DWORD PTR _vecAbsVelocity$[ebp+8]
	movss	DWORD PTR _vecAbsVelocity$[ebp+8], xmm0

; 1671 : 	pEntity->pev->basevelocity.z = 0.0f;

	mov	eax, DWORD PTR _pEntity$[ebp]
	mov	ecx, DWORD PTR [eax+4]
	xorps	xmm0, xmm0
	movss	DWORD PTR [ecx+52], xmm0

; 1672 : 	pEntity->SetAbsVelocity( vecAbsVelocity );

	lea	eax, DWORD PTR _vecAbsVelocity$[ebp]
	push	eax
	mov	ecx, DWORD PTR _pEntity$[ebp]
	call	?SetAbsVelocity@CBaseEntity@@QAEXABVVector@@@Z ; CBaseEntity::SetAbsVelocity

; 1673 : 	
; 1674 : 	// bound velocity
; 1675 : 	SV_CheckVelocity( pEntity );

	mov	eax, DWORD PTR _pEntity$[ebp]
	push	eax
	call	?SV_CheckVelocity@@YAXPAVCBaseEntity@@@Z ; SV_CheckVelocity
	add	esp, 4

; 1676 : }

	pop	edi
	pop	esi
	pop	ebx
	mov	esp, ebp
	pop	ebp
	ret	0
?SV_AddHalfGravity@@YAXPAVCBaseEntity@@M@Z ENDP		; SV_AddHalfGravity
_TEXT	ENDS
; Function compile flags: /Odtp /ZI
; File d:\!diffusion 2020\source code 2022\client-server\server\physics\physic.cpp
;	COMDAT ?SV_AddGravity@@YAXPAVCBaseEntity@@@Z
_TEXT	SEGMENT
_vecAbsVelocity$ = -20					; size = 12
_gravity$ = -8						; size = 4
_ent_gravity$ = -4					; size = 4
_pEntity$ = 8						; size = 4
?SV_AddGravity@@YAXPAVCBaseEntity@@@Z PROC		; SV_AddGravity, COMDAT

; 1631 : {

	push	ebp
	mov	ebp, esp
	sub	esp, 84					; 00000054H
	push	ebx
	push	esi
	push	edi

; 1632 : 	float	ent_gravity;
; 1633 : 
; 1634 : 	if( pEntity->pev->gravity )

	mov	eax, DWORD PTR _pEntity$[ebp]
	mov	ecx, DWORD PTR [eax+4]
	movss	xmm0, DWORD PTR [ecx+284]
	ucomiss	xmm0, DWORD PTR __real@00000000
	lahf
	test	ah, 68					; 00000044H
	jnp	SHORT $LN2@SV_AddGrav

; 1635 : 		ent_gravity = pEntity->pev->gravity;

	mov	eax, DWORD PTR _pEntity$[ebp]
	mov	ecx, DWORD PTR [eax+4]
	movss	xmm0, DWORD PTR [ecx+284]
	movss	DWORD PTR _ent_gravity$[ebp], xmm0
	jmp	SHORT $LN3@SV_AddGrav
$LN2@SV_AddGrav:

; 1636 : 	else ent_gravity = 1.0f; // factor

	movss	xmm0, DWORD PTR __real@3f800000
	movss	DWORD PTR _ent_gravity$[ebp], xmm0
$LN3@SV_AddGrav:

; 1637 : 
; 1638 : 	float gravity = CVAR_GET_FLOAT( "sv_gravity" );

	push	OFFSET ??_C@_0L@FKMMBKBD@sv_gravity?$AA@
	call	DWORD PTR ?g_engfuncs@@3Uenginefuncs_s@@A+228
	add	esp, 4
	fstp	DWORD PTR _gravity$[ebp]

; 1639 : 	Vector vecAbsVelocity = pEntity->GetAbsVelocity();

	mov	ecx, DWORD PTR _pEntity$[ebp]
	call	?GetAbsVelocity@CBaseEntity@@QBEABVVector@@XZ ; CBaseEntity::GetAbsVelocity
	push	eax
	lea	ecx, DWORD PTR _vecAbsVelocity$[ebp]
	call	??0Vector@@QAE@ABV0@@Z			; Vector::Vector

; 1640 : 
; 1641 : 	// add gravity incorrectly
; 1642 : 	vecAbsVelocity.z -= ( ent_gravity * gravity * gpGlobals->frametime );

	movss	xmm0, DWORD PTR _ent_gravity$[ebp]
	mulss	xmm0, DWORD PTR _gravity$[ebp]
	mov	eax, DWORD PTR ?gpGlobals@@3PAUglobalvars_t@@A ; gpGlobals
	mulss	xmm0, DWORD PTR [eax+4]
	movss	xmm1, DWORD PTR _vecAbsVelocity$[ebp+8]
	subss	xmm1, xmm0
	movss	DWORD PTR _vecAbsVelocity$[ebp+8], xmm1

; 1643 : 	vecAbsVelocity.z += pEntity->pev->basevelocity[2] * gpGlobals->frametime;

	mov	eax, DWORD PTR _pEntity$[ebp]
	mov	ecx, DWORD PTR [eax+4]
	add	ecx, 44					; 0000002cH
	call	??BVector@@QAEPAMXZ			; Vector::operator float *
	mov	ecx, 4
	shl	ecx, 1
	mov	edx, DWORD PTR ?gpGlobals@@3PAUglobalvars_t@@A ; gpGlobals
	movss	xmm0, DWORD PTR [eax+ecx]
	mulss	xmm0, DWORD PTR [edx+4]
	addss	xmm0, DWORD PTR _vecAbsVelocity$[ebp+8]
	movss	DWORD PTR _vecAbsVelocity$[ebp+8], xmm0

; 1644 : 	pEntity->pev->basevelocity[2] = 0.0f;

	mov	eax, DWORD PTR _pEntity$[ebp]
	mov	ecx, DWORD PTR [eax+4]
	add	ecx, 44					; 0000002cH
	call	??BVector@@QAEPAMXZ			; Vector::operator float *
	mov	ecx, 4
	shl	ecx, 1
	xorps	xmm0, xmm0
	movss	DWORD PTR [eax+ecx], xmm0

; 1645 : 	pEntity->SetAbsVelocity( vecAbsVelocity );

	lea	eax, DWORD PTR _vecAbsVelocity$[ebp]
	push	eax
	mov	ecx, DWORD PTR _pEntity$[ebp]
	call	?SetAbsVelocity@CBaseEntity@@QAEXABVVector@@@Z ; CBaseEntity::SetAbsVelocity

; 1646 : 
; 1647 : 	// bound velocity
; 1648 : 	SV_CheckVelocity( pEntity );

	mov	eax, DWORD PTR _pEntity$[ebp]
	push	eax
	call	?SV_CheckVelocity@@YAXPAVCBaseEntity@@@Z ; SV_CheckVelocity
	add	esp, 4

; 1649 : }

	pop	edi
	pop	esi
	pop	ebx
	mov	esp, ebp
	pop	ebp
	ret	0
?SV_AddGravity@@YAXPAVCBaseEntity@@@Z ENDP		; SV_AddGravity
_TEXT	ENDS
; Function compile flags: /Odtp /ZI
; File d:\!diffusion 2020\source code 2022\client-server\server\physics\physic.cpp
;	COMDAT ?SV_FlyMove@@YAHPAVCBaseEntity@@MPAUgametrace_s@@@Z
_TEXT	SEGMENT
tv403 = -316						; size = 4
tv382 = -316						; size = 4
$T1 = -312						; size = 12
$T2 = -300						; size = 12
_d$3 = -224						; size = 4
_dir$4 = -220						; size = 12
_overbounce$5 = -208					; size = 4
_j$6 = -204						; size = 4
_i$7 = -200						; size = 4
_pHit$8 = -196						; size = 4
_end$9 = -192						; size = 12
_bumpcount$10 = -180					; size = 4
_time_left$ = -176					; size = 4
_allFraction$ = -172					; size = 4
_numplanes$ = -168					; size = 4
_blocked$ = -164					; size = 4
_ed$ = -160						; size = 4
_primal_velocity$ = -156				; size = 12
_original_velocity$ = -144				; size = 12
_trace$ = -132						; size = 56
_new_velocity$ = -76					; size = 12
_planes$ = -64						; size = 60
__$ArrayPad$ = -4					; size = 4
_pEntity$ = 8						; size = 4
_time$ = 12						; size = 4
_steptrace$ = 16					; size = 4
?SV_FlyMove@@YAHPAVCBaseEntity@@MPAUgametrace_s@@@Z PROC ; SV_FlyMove, COMDAT

; 1482 : {

	push	ebp
	mov	ebp, esp
	sub	esp, 316				; 0000013cH
	mov	eax, DWORD PTR ___security_cookie
	xor	eax, ebp
	mov	DWORD PTR __$ArrayPad$[ebp], eax
	push	ebx
	push	esi
	push	edi

; 1483 : 	Vector planes[MAX_CLIP_PLANES];

	push	OFFSET ??0Vector@@QAE@XZ		; Vector::Vector
	push	5
	push	12					; 0000000cH
	lea	eax, DWORD PTR _planes$[ebp]
	push	eax
	call	??_H@YGXPAXIIP6EPAX0@Z@Z

; 1484 : 	Vector new_velocity;

	lea	ecx, DWORD PTR _new_velocity$[ebp]
	call	??0Vector@@QAE@XZ			; Vector::Vector

; 1485 : 	TraceResult trace;

	lea	ecx, DWORD PTR _trace$[ebp]
	call	??0gametrace_s@@QAE@XZ

; 1486 : 
; 1487 : 	Vector original_velocity = pEntity->GetAbsVelocity();

	mov	ecx, DWORD PTR _pEntity$[ebp]
	call	?GetAbsVelocity@CBaseEntity@@QBEABVVector@@XZ ; CBaseEntity::GetAbsVelocity
	push	eax
	lea	ecx, DWORD PTR _original_velocity$[ebp]
	call	??0Vector@@QAE@ABV0@@Z			; Vector::Vector

; 1488 : 	Vector primal_velocity = pEntity->GetAbsVelocity();

	mov	ecx, DWORD PTR _pEntity$[ebp]
	call	?GetAbsVelocity@CBaseEntity@@QBEABVVector@@XZ ; CBaseEntity::GetAbsVelocity
	push	eax
	lea	ecx, DWORD PTR _primal_velocity$[ebp]
	call	??0Vector@@QAE@ABV0@@Z			; Vector::Vector

; 1489 : 	edict_t *ed = pEntity->edict();

	mov	ecx, DWORD PTR _pEntity$[ebp]
	call	?edict@CBaseEntity@@QAEPAUedict_s@@XZ	; CBaseEntity::edict
	mov	DWORD PTR _ed$[ebp], eax

; 1490 : 
; 1491 : 	int blocked = 0;

	mov	DWORD PTR _blocked$[ebp], 0

; 1492 : 	int numplanes = 0;

	mov	DWORD PTR _numplanes$[ebp], 0

; 1493 : 	float allFraction = 0;

	xorps	xmm0, xmm0
	movss	DWORD PTR _allFraction$[ebp], xmm0

; 1494 : 	float time_left = time;

	movss	xmm0, DWORD PTR _time$[ebp]
	movss	DWORD PTR _time_left$[ebp], xmm0

; 1495 : 
; 1496 : 	for( int bumpcount = 0; bumpcount < 4; bumpcount++ )

	mov	DWORD PTR _bumpcount$10[ebp], 0
	jmp	SHORT $LN4@SV_FlyMove
$LN2@SV_FlyMove:
	mov	eax, DWORD PTR _bumpcount$10[ebp]
	add	eax, 1
	mov	DWORD PTR _bumpcount$10[ebp], eax
$LN4@SV_FlyMove:
	cmp	DWORD PTR _bumpcount$10[ebp], 4
	jge	$LN3@SV_FlyMove

; 1497 : 	{
; 1498 : 		if( pEntity->GetAbsVelocity() == g_vecZero )

	push	OFFSET ?g_vecZero@@3VVector@@B		; g_vecZero
	mov	ecx, DWORD PTR _pEntity$[ebp]
	call	?GetAbsVelocity@CBaseEntity@@QBEABVVector@@XZ ; CBaseEntity::GetAbsVelocity
	mov	ecx, eax
	call	??8Vector@@QBEHABV0@@Z			; Vector::operator==
	test	eax, eax
	je	SHORT $LN11@SV_FlyMove

; 1499 : 			break;

	jmp	$LN3@SV_FlyMove
$LN11@SV_FlyMove:

; 1500 : 
; 1501 : 		Vector end = pEntity->GetAbsOrigin() + pEntity->GetAbsVelocity() * time_left;

	push	ecx
	movss	xmm0, DWORD PTR _time_left$[ebp]
	movss	DWORD PTR [esp], xmm0
	lea	eax, DWORD PTR $T2[ebp]
	push	eax
	mov	ecx, DWORD PTR _pEntity$[ebp]
	call	?GetAbsVelocity@CBaseEntity@@QBEABVVector@@XZ ; CBaseEntity::GetAbsVelocity
	mov	ecx, eax
	call	??DVector@@QBE?AV0@M@Z			; Vector::operator*
	push	eax
	lea	ecx, DWORD PTR _end$9[ebp]
	push	ecx
	mov	ecx, DWORD PTR _pEntity$[ebp]
	call	?GetAbsOrigin@CBaseEntity@@QBEABVVector@@XZ ; CBaseEntity::GetAbsOrigin
	mov	ecx, eax
	call	??HVector@@QBE?AV0@ABV0@@Z		; Vector::operator+

; 1502 : 
; 1503 : 		pEntity->m_iPushableFilter = TRUE;

	mov	eax, DWORD PTR _pEntity$[ebp]
	mov	DWORD PTR [eax+44], 1

; 1504 : 		TRACE_MONSTER_HULL( pEntity->edict(), pEntity->GetAbsOrigin(), end, dont_ignore_monsters, pEntity->edict(), &trace );

	lea	eax, DWORD PTR _trace$[ebp]
	push	eax
	mov	ecx, DWORD PTR _pEntity$[ebp]
	call	?edict@CBaseEntity@@QAEPAUedict_s@@XZ	; CBaseEntity::edict
	push	eax
	push	0
	lea	ecx, DWORD PTR _end$9[ebp]
	call	??BVector@@QAEPAMXZ			; Vector::operator float *
	push	eax
	mov	ecx, DWORD PTR _pEntity$[ebp]
	call	?GetAbsOrigin@CBaseEntity@@QBEABVVector@@XZ ; CBaseEntity::GetAbsOrigin
	mov	ecx, eax
	call	??BVector@@QBEPBMXZ			; Vector::operator float const *
	push	eax
	mov	ecx, DWORD PTR _pEntity$[ebp]
	call	?edict@CBaseEntity@@QAEPAUedict_s@@XZ	; CBaseEntity::edict
	push	eax
	call	DWORD PTR ?g_engfuncs@@3Uenginefuncs_s@@A+132
	add	esp, 24					; 00000018H

; 1505 : 		pEntity->m_iPushableFilter = FALSE;

	mov	eax, DWORD PTR _pEntity$[ebp]
	mov	DWORD PTR [eax+44], 0

; 1506 : 
; 1507 : 		CBaseEntity *pHit = CBaseEntity::Instance( trace.pHit );

	mov	eax, DWORD PTR _trace$[ebp+48]
	push	eax
	call	?Instance@CBaseEntity@@SAPAV1@PAUedict_s@@@Z ; CBaseEntity::Instance
	add	esp, 4
	mov	DWORD PTR _pHit$8[ebp], eax

; 1508 : 		allFraction += trace.flFraction;

	movss	xmm0, DWORD PTR _allFraction$[ebp]
	addss	xmm0, DWORD PTR _trace$[ebp+16]
	movss	DWORD PTR _allFraction$[ebp], xmm0

; 1509 : 
; 1510 : 		if( trace.fAllSolid )

	cmp	DWORD PTR _trace$[ebp], 0
	je	SHORT $LN12@SV_FlyMove

; 1511 : 		{	
; 1512 : 			// entity is trapped in another solid
; 1513 : 			pEntity->SetAbsVelocity( g_vecZero );

	push	OFFSET ?g_vecZero@@3VVector@@B		; g_vecZero
	mov	ecx, DWORD PTR _pEntity$[ebp]
	call	?SetAbsVelocity@CBaseEntity@@QAEXABVVector@@@Z ; CBaseEntity::SetAbsVelocity

; 1514 : 			return 4;

	mov	eax, 4
	jmp	$LN1@SV_FlyMove
$LN12@SV_FlyMove:

; 1515 : 		}
; 1516 : 
; 1517 : 		if( trace.flFraction > 0.0f )

	movss	xmm0, DWORD PTR _trace$[ebp+16]
	comiss	xmm0, DWORD PTR __real@00000000
	jbe	SHORT $LN13@SV_FlyMove

; 1518 : 		{	
; 1519 : 			// actually covered some distance
; 1520 : 			pEntity->SetAbsOrigin( trace.vecEndPos );

	lea	eax, DWORD PTR _trace$[ebp+20]
	push	eax
	mov	ecx, DWORD PTR _pEntity$[ebp]
	call	?SetAbsOrigin@CBaseEntity@@QAEXABVVector@@@Z ; CBaseEntity::SetAbsOrigin

; 1521 : 			original_velocity = pEntity->GetAbsVelocity();

	mov	ecx, DWORD PTR _pEntity$[ebp]
	call	?GetAbsVelocity@CBaseEntity@@QBEABVVector@@XZ ; CBaseEntity::GetAbsVelocity
	mov	ecx, DWORD PTR [eax]
	mov	DWORD PTR _original_velocity$[ebp], ecx
	mov	edx, DWORD PTR [eax+4]
	mov	DWORD PTR _original_velocity$[ebp+4], edx
	mov	eax, DWORD PTR [eax+8]
	mov	DWORD PTR _original_velocity$[ebp+8], eax

; 1522 : 			numplanes = 0;

	mov	DWORD PTR _numplanes$[ebp], 0
$LN13@SV_FlyMove:

; 1523 : 		}
; 1524 : 
; 1525 : 		if( trace.flFraction == 1.0f )

	movss	xmm0, DWORD PTR _trace$[ebp+16]
	ucomiss	xmm0, DWORD PTR __real@3f800000
	lahf
	test	ah, 68					; 00000044H
	jp	SHORT $LN14@SV_FlyMove

; 1526 : 		{
; 1527 : 			 break; // moved the entire distance

	jmp	$LN3@SV_FlyMove
$LN14@SV_FlyMove:

; 1528 :                     }
; 1529 : 
; 1530 : 		if( !trace.pHit )

	cmp	DWORD PTR _trace$[ebp+48], 0
	jne	SHORT $LN15@SV_FlyMove

; 1531 : 			ALERT( at_error, "SV_FlyMove: trace.pHit == NULL\n" );

	push	OFFSET ??_C@_0CA@ICKKHLGL@SV_FlyMove?3?5trace?4pHit?5?$DN?$DN?5NULL?6?$AA@
	push	4
	call	DWORD PTR ?g_engfuncs@@3Uenginefuncs_s@@A+244
	add	esp, 8
$LN15@SV_FlyMove:

; 1532 : 
; 1533 : 		if( trace.vecPlaneNormal.z > 0.7f )

	movss	xmm0, DWORD PTR _trace$[ebp+44]
	comiss	xmm0, DWORD PTR __real@3f333333
	jbe	SHORT $LN17@SV_FlyMove

; 1534 : 		{
; 1535 : 			blocked |= 1; // floor

	mov	eax, DWORD PTR _blocked$[ebp]
	or	eax, 1
	mov	DWORD PTR _blocked$[ebp], eax

; 1536 : 
; 1537 :          			if( trace.pHit->v.solid == SOLID_BSP || trace.pHit->v.solid == SOLID_SLIDEBOX ||
; 1538 : 			trace.pHit->v.movetype == MOVETYPE_PUSHSTEP || (trace.pHit->v.flags & FL_CLIENT))

	mov	eax, DWORD PTR _trace$[ebp+48]
	cmp	DWORD PTR [eax+396], 4
	je	SHORT $LN18@SV_FlyMove
	mov	eax, DWORD PTR _trace$[ebp+48]
	cmp	DWORD PTR [eax+396], 3
	je	SHORT $LN18@SV_FlyMove
	mov	eax, DWORD PTR _trace$[ebp+48]
	cmp	DWORD PTR [eax+392], 13			; 0000000dH
	je	SHORT $LN18@SV_FlyMove
	mov	eax, DWORD PTR _trace$[ebp+48]
	mov	ecx, DWORD PTR [eax+548]
	and	ecx, 8
	je	SHORT $LN17@SV_FlyMove
$LN18@SV_FlyMove:

; 1539 : 			{
; 1540 : 				pEntity->SetGroundEntity( trace.pHit );

	mov	eax, DWORD PTR _trace$[ebp+48]
	push	eax
	mov	ecx, DWORD PTR _pEntity$[ebp]
	call	?SetGroundEntity@CBaseEntity@@QAEXPAUedict_s@@@Z ; CBaseEntity::SetGroundEntity
$LN17@SV_FlyMove:

; 1541 : 			}
; 1542 : 		}
; 1543 : 
; 1544 : 		if( trace.vecPlaneNormal.z == 0.0f )

	movss	xmm0, DWORD PTR _trace$[ebp+44]
	ucomiss	xmm0, DWORD PTR __real@00000000
	lahf
	test	ah, 68					; 00000044H
	jp	SHORT $LN20@SV_FlyMove

; 1545 : 		{
; 1546 : 			blocked |= 2; // step

	mov	eax, DWORD PTR _blocked$[ebp]
	or	eax, 2
	mov	DWORD PTR _blocked$[ebp], eax

; 1547 : 			if( steptrace ) *steptrace = trace; // save for player extrafriction

	cmp	DWORD PTR _steptrace$[ebp], 0
	je	SHORT $LN20@SV_FlyMove
	mov	ecx, 14					; 0000000eH
	lea	esi, DWORD PTR _trace$[ebp]
	mov	edi, DWORD PTR _steptrace$[ebp]
	rep movsd
$LN20@SV_FlyMove:

; 1548 : 		}
; 1549 : 
; 1550 : 		// run the impact function
; 1551 : 		SV_Impact( pEntity, NULL, &trace );

	lea	eax, DWORD PTR _trace$[ebp]
	push	eax
	push	0
	mov	ecx, DWORD PTR _pEntity$[ebp]
	push	ecx
	call	?SV_Impact@@YAXPAVCBaseEntity@@0PAUgametrace_s@@@Z ; SV_Impact
	add	esp, 12					; 0000000cH

; 1552 : 
; 1553 : 		// break if removed by the impact function
; 1554 : 		if( ed->free || pEntity->pev->flags & FL_KILLME )

	mov	eax, DWORD PTR _ed$[ebp]
	cmp	DWORD PTR [eax], 0
	jne	SHORT $LN22@SV_FlyMove
	mov	eax, DWORD PTR _pEntity$[ebp]
	mov	ecx, DWORD PTR [eax+4]
	mov	edx, DWORD PTR [ecx+420]
	and	edx, 1073741824				; 40000000H
	je	SHORT $LN21@SV_FlyMove
$LN22@SV_FlyMove:

; 1555 : 			break;

	jmp	$LN3@SV_FlyMove
$LN21@SV_FlyMove:

; 1556 : 
; 1557 : 		time_left -= time_left * trace.flFraction;

	movss	xmm0, DWORD PTR _time_left$[ebp]
	mulss	xmm0, DWORD PTR _trace$[ebp+16]
	movss	xmm1, DWORD PTR _time_left$[ebp]
	subss	xmm1, xmm0
	movss	DWORD PTR _time_left$[ebp], xmm1

; 1558 : 
; 1559 : 		// clipped to another plane
; 1560 : 		if( numplanes >= MAX_CLIP_PLANES )

	cmp	DWORD PTR _numplanes$[ebp], 5
	jl	SHORT $LN23@SV_FlyMove

; 1561 : 		{
; 1562 : 			// this shouldn't really happen
; 1563 : 			pEntity->SetAbsVelocity( g_vecZero );

	push	OFFSET ?g_vecZero@@3VVector@@B		; g_vecZero
	mov	ecx, DWORD PTR _pEntity$[ebp]
	call	?SetAbsVelocity@CBaseEntity@@QAEXABVVector@@@Z ; CBaseEntity::SetAbsVelocity

; 1564 : 			break;

	jmp	$LN3@SV_FlyMove
$LN23@SV_FlyMove:

; 1565 : 		}
; 1566 : 
; 1567 : 		planes[numplanes] = trace.vecPlaneNormal;

	imul	eax, DWORD PTR _numplanes$[ebp], 12
	lea	ecx, DWORD PTR _planes$[ebp+eax]
	mov	edx, DWORD PTR _trace$[ebp+36]
	mov	DWORD PTR [ecx], edx
	mov	eax, DWORD PTR _trace$[ebp+40]
	mov	DWORD PTR [ecx+4], eax
	mov	edx, DWORD PTR _trace$[ebp+44]
	mov	DWORD PTR [ecx+8], edx

; 1568 : 		numplanes++;

	mov	eax, DWORD PTR _numplanes$[ebp]
	add	eax, 1
	mov	DWORD PTR _numplanes$[ebp], eax

; 1569 : 
; 1570 : 		// modify original_velocity so it parallels all of the clip planes
; 1571 : 		int i, j;
; 1572 : 		for( i = 0; i < numplanes; i++ )

	mov	DWORD PTR _i$7[ebp], 0
	jmp	SHORT $LN7@SV_FlyMove
$LN5@SV_FlyMove:
	mov	eax, DWORD PTR _i$7[ebp]
	add	eax, 1
	mov	DWORD PTR _i$7[ebp], eax
$LN7@SV_FlyMove:
	mov	eax, DWORD PTR _i$7[ebp]
	cmp	eax, DWORD PTR _numplanes$[ebp]
	jge	$LN6@SV_FlyMove

; 1573 : 		{
; 1574 : 			float overbounce = SV_CalcOverBounce( pEntity, &trace );

	lea	eax, DWORD PTR _trace$[ebp]
	push	eax
	mov	ecx, DWORD PTR _pEntity$[ebp]
	push	ecx
	call	?SV_CalcOverBounce@@YAMPAVCBaseEntity@@PAUgametrace_s@@@Z ; SV_CalcOverBounce
	add	esp, 8
	fstp	DWORD PTR _overbounce$5[ebp]

; 1575 : 
; 1576 : 			SV_ClipVelocity( original_velocity, planes[i], new_velocity, overbounce );

	push	ecx
	movss	xmm0, DWORD PTR _overbounce$5[ebp]
	movss	DWORD PTR [esp], xmm0
	lea	eax, DWORD PTR _new_velocity$[ebp]
	push	eax
	imul	ecx, DWORD PTR _i$7[ebp], 12
	lea	edx, DWORD PTR _planes$[ebp+ecx]
	push	edx
	lea	eax, DWORD PTR _original_velocity$[ebp]
	push	eax
	call	?SV_ClipVelocity@@YAHABVVector@@0AAV1@M@Z ; SV_ClipVelocity
	add	esp, 16					; 00000010H

; 1577 : 
; 1578 : 			for( j = 0; j < numplanes; j++ )

	mov	DWORD PTR _j$6[ebp], 0
	jmp	SHORT $LN10@SV_FlyMove
$LN8@SV_FlyMove:
	mov	eax, DWORD PTR _j$6[ebp]
	add	eax, 1
	mov	DWORD PTR _j$6[ebp], eax
$LN10@SV_FlyMove:
	mov	eax, DWORD PTR _j$6[ebp]
	cmp	eax, DWORD PTR _numplanes$[ebp]
	jge	SHORT $LN9@SV_FlyMove

; 1579 : 			{
; 1580 : 				if( j != i )

	mov	eax, DWORD PTR _j$6[ebp]
	cmp	eax, DWORD PTR _i$7[ebp]
	je	SHORT $LN25@SV_FlyMove

; 1581 : 				{
; 1582 : 					if( DotProduct( new_velocity, planes[j] ) < 0.0f )

	imul	eax, DWORD PTR _j$6[ebp], 12
	lea	ecx, DWORD PTR _planes$[ebp+eax]
	push	ecx
	lea	edx, DWORD PTR _new_velocity$[ebp]
	push	edx
	call	?DotProduct@@YAMABVVector@@0@Z		; DotProduct
	add	esp, 8
	fstp	DWORD PTR tv382[ebp]
	xorps	xmm0, xmm0
	comiss	xmm0, DWORD PTR tv382[ebp]
	jbe	SHORT $LN25@SV_FlyMove

; 1583 : 						break; // not ok

	jmp	SHORT $LN9@SV_FlyMove
$LN25@SV_FlyMove:

; 1584 : 				}
; 1585 : 			}

	jmp	SHORT $LN8@SV_FlyMove
$LN9@SV_FlyMove:

; 1586 : 			if( j == numplanes )

	mov	eax, DWORD PTR _j$6[ebp]
	cmp	eax, DWORD PTR _numplanes$[ebp]
	jne	SHORT $LN26@SV_FlyMove

; 1587 : 				break;

	jmp	SHORT $LN6@SV_FlyMove
$LN26@SV_FlyMove:

; 1588 : 		}

	jmp	$LN5@SV_FlyMove
$LN6@SV_FlyMove:

; 1589 : 
; 1590 : 		if( i != numplanes )

	mov	eax, DWORD PTR _i$7[ebp]
	cmp	eax, DWORD PTR _numplanes$[ebp]
	je	SHORT $LN27@SV_FlyMove

; 1591 : 		{
; 1592 : 			// go along this plane
; 1593 : 			pEntity->SetAbsVelocity( new_velocity );

	lea	eax, DWORD PTR _new_velocity$[ebp]
	push	eax
	mov	ecx, DWORD PTR _pEntity$[ebp]
	call	?SetAbsVelocity@CBaseEntity@@QAEXABVVector@@@Z ; CBaseEntity::SetAbsVelocity

; 1594 : 		}
; 1595 : 		else

	jmp	$LN28@SV_FlyMove
$LN27@SV_FlyMove:

; 1596 : 		{
; 1597 : 			// go along the crease
; 1598 : 			if( numplanes != 2 )

	cmp	DWORD PTR _numplanes$[ebp], 2
	je	SHORT $LN29@SV_FlyMove

; 1599 : 			{
; 1600 : 				pEntity->SetAbsVelocity( g_vecZero );

	push	OFFSET ?g_vecZero@@3VVector@@B		; g_vecZero
	mov	ecx, DWORD PTR _pEntity$[ebp]
	call	?SetAbsVelocity@CBaseEntity@@QAEXABVVector@@@Z ; CBaseEntity::SetAbsVelocity

; 1601 : 				break;

	jmp	$LN3@SV_FlyMove
$LN29@SV_FlyMove:

; 1602 : 			}
; 1603 : 
; 1604 : 			Vector dir = CrossProduct( planes[0], planes[1] );

	mov	eax, 12					; 0000000cH
	shl	eax, 0
	lea	ecx, DWORD PTR _planes$[ebp+eax]
	push	ecx
	mov	edx, 12					; 0000000cH
	imul	eax, edx, 0
	lea	ecx, DWORD PTR _planes$[ebp+eax]
	push	ecx
	lea	edx, DWORD PTR _dir$4[ebp]
	push	edx
	call	?CrossProduct@@YA?AVVector@@ABV1@0@Z	; CrossProduct
	add	esp, 12					; 0000000cH

; 1605 : 			float d = DotProduct( dir, pEntity->GetAbsVelocity() );

	mov	ecx, DWORD PTR _pEntity$[ebp]
	call	?GetAbsVelocity@CBaseEntity@@QBEABVVector@@XZ ; CBaseEntity::GetAbsVelocity
	push	eax
	lea	eax, DWORD PTR _dir$4[ebp]
	push	eax
	call	?DotProduct@@YAMABVVector@@0@Z		; DotProduct
	add	esp, 8
	fstp	DWORD PTR _d$3[ebp]

; 1606 : 			pEntity->SetAbsVelocity( dir * d );

	push	ecx
	movss	xmm0, DWORD PTR _d$3[ebp]
	movss	DWORD PTR [esp], xmm0
	lea	eax, DWORD PTR $T1[ebp]
	push	eax
	lea	ecx, DWORD PTR _dir$4[ebp]
	call	??DVector@@QBE?AV0@M@Z			; Vector::operator*
	push	eax
	mov	ecx, DWORD PTR _pEntity$[ebp]
	call	?SetAbsVelocity@CBaseEntity@@QAEXABVVector@@@Z ; CBaseEntity::SetAbsVelocity
$LN28@SV_FlyMove:

; 1607 : 		}
; 1608 : 
; 1609 : 		// if current velocity is against the original velocity,
; 1610 : 		// stop dead to avoid tiny occilations in sloping corners
; 1611 : 		if( DotProduct( pEntity->GetAbsVelocity(), primal_velocity ) <= 0.0f )

	lea	eax, DWORD PTR _primal_velocity$[ebp]
	push	eax
	mov	ecx, DWORD PTR _pEntity$[ebp]
	call	?GetAbsVelocity@CBaseEntity@@QBEABVVector@@XZ ; CBaseEntity::GetAbsVelocity
	push	eax
	call	?DotProduct@@YAMABVVector@@0@Z		; DotProduct
	add	esp, 8
	fstp	DWORD PTR tv403[ebp]
	xorps	xmm0, xmm0
	comiss	xmm0, DWORD PTR tv403[ebp]
	jb	SHORT $LN30@SV_FlyMove

; 1612 : 		{
; 1613 : 			pEntity->SetAbsVelocity( g_vecZero );

	push	OFFSET ?g_vecZero@@3VVector@@B		; g_vecZero
	mov	ecx, DWORD PTR _pEntity$[ebp]
	call	?SetAbsVelocity@CBaseEntity@@QAEXABVVector@@@Z ; CBaseEntity::SetAbsVelocity

; 1614 : 			break;

	jmp	SHORT $LN3@SV_FlyMove
$LN30@SV_FlyMove:

; 1615 : 		}
; 1616 : 	}

	jmp	$LN2@SV_FlyMove
$LN3@SV_FlyMove:

; 1617 : 
; 1618 : 	if( allFraction == 0.0f )

	movss	xmm0, DWORD PTR _allFraction$[ebp]
	ucomiss	xmm0, DWORD PTR __real@00000000
	lahf
	test	ah, 68					; 00000044H
	jp	SHORT $LN31@SV_FlyMove

; 1619 : 		pEntity->SetAbsVelocity( g_vecZero );

	push	OFFSET ?g_vecZero@@3VVector@@B		; g_vecZero
	mov	ecx, DWORD PTR _pEntity$[ebp]
	call	?SetAbsVelocity@CBaseEntity@@QAEXABVVector@@@Z ; CBaseEntity::SetAbsVelocity
$LN31@SV_FlyMove:

; 1620 : 
; 1621 : 	return blocked;

	mov	eax, DWORD PTR _blocked$[ebp]
$LN1@SV_FlyMove:

; 1622 : }

	pop	edi
	pop	esi
	pop	ebx
	mov	ecx, DWORD PTR __$ArrayPad$[ebp]
	xor	ecx, ebp
	call	@__security_check_cookie@4
	mov	esp, ebp
	pop	ebp
	ret	0
?SV_FlyMove@@YAHPAVCBaseEntity@@MPAUgametrace_s@@@Z ENDP ; SV_FlyMove
_TEXT	ENDS
; Function compile flags: /Odtp /ZI
; File d:\!diffusion 2020\source code 2022\client-server\server\physics\physic.cpp
;	COMDAT ?SV_CalcOverBounce@@YAMPAVCBaseEntity@@PAUgametrace_s@@@Z
_TEXT	SEGMENT
_pHit$ = -8						; size = 4
_overbounce$ = -4					; size = 4
_pEntity$ = 8						; size = 4
_trace$ = 12						; size = 4
?SV_CalcOverBounce@@YAMPAVCBaseEntity@@PAUgametrace_s@@@Z PROC ; SV_CalcOverBounce, COMDAT

; 1444 : {

	push	ebp
	mov	ebp, esp
	sub	esp, 72					; 00000048H
	push	ebx
	push	esi
	push	edi

; 1445 : 	float overbounce = 1.0f;

	movss	xmm0, DWORD PTR __real@3f800000
	movss	DWORD PTR _overbounce$[ebp], xmm0

; 1446 : 
; 1447 : 	CBaseEntity *pHit = CBaseEntity::Instance( trace->pHit );

	mov	eax, DWORD PTR _trace$[ebp]
	mov	ecx, DWORD PTR [eax+48]
	push	ecx
	call	?Instance@CBaseEntity@@SAPAV1@PAUedict_s@@@Z ; CBaseEntity::Instance
	add	esp, 4
	mov	DWORD PTR _pHit$[ebp], eax

; 1448 : 
; 1449 : 	if( FNullEnt( pHit ))

	mov	eax, DWORD PTR _pHit$[ebp]
	push	eax
	call	?FNullEnt@@YAHPAVCBaseEntity@@@Z	; FNullEnt
	add	esp, 4
	test	eax, eax
	je	SHORT $LN2@SV_CalcOve

; 1450 : 		return overbounce;

	fld	DWORD PTR _overbounce$[ebp]
	jmp	SHORT $LN1@SV_CalcOve
$LN2@SV_CalcOve:

; 1451 : 
; 1452 : 	if( pEntity->pev->movetype == MOVETYPE_PUSHSTEP && pHit->IsPlayer() && pHit->pev->button & IN_BACK )

	mov	eax, DWORD PTR _pEntity$[ebp]
	mov	ecx, DWORD PTR [eax+4]
	cmp	DWORD PTR [ecx+264], 13			; 0000000dH
	jne	SHORT $LN3@SV_CalcOve
	mov	eax, DWORD PTR _pHit$[ebp]
	mov	edx, DWORD PTR [eax]
	mov	ecx, DWORD PTR _pHit$[ebp]
	mov	eax, DWORD PTR [edx+220]
	call	eax
	test	eax, eax
	je	SHORT $LN3@SV_CalcOve
	mov	eax, DWORD PTR _pHit$[ebp]
	mov	ecx, DWORD PTR [eax+4]
	mov	edx, DWORD PTR [ecx+384]
	and	edx, 16					; 00000010H
	je	SHORT $LN3@SV_CalcOve

; 1453 : 	{
; 1454 : 		// g-cont. this is a player that pulling the 'func_pushable'
; 1455 : 		// disable overbounce to avoid box slide along the player
; 1456 : 		overbounce = 0.0f;

	xorps	xmm0, xmm0
	movss	DWORD PTR _overbounce$[ebp], xmm0
$LN3@SV_CalcOve:

; 1457 : 	}
; 1458 : 
; 1459 : 	return overbounce;

	fld	DWORD PTR _overbounce$[ebp]
$LN1@SV_CalcOve:

; 1460 : }

	pop	edi
	pop	esi
	pop	ebx
	mov	esp, ebp
	pop	ebp
	ret	0
?SV_CalcOverBounce@@YAMPAVCBaseEntity@@PAUgametrace_s@@@Z ENDP ; SV_CalcOverBounce
_TEXT	ENDS
; Function compile flags: /Odtp /ZI
; File d:\!diffusion 2020\source code 2022\client-server\server\physics\physic.cpp
;	COMDAT ?SV_ClipVelocity@@YAHABVVector@@0AAV1@M@Z
_TEXT	SEGMENT
tv178 = -84						; size = 4
tv157 = -84						; size = 4
_change$1 = -16						; size = 4
_i$2 = -12						; size = 4
_backoff$ = -8						; size = 4
_blocked$ = -4						; size = 4
_in$ = 8						; size = 4
_normal$ = 12						; size = 4
_out$ = 16						; size = 4
_overbounce$ = 20					; size = 4
?SV_ClipVelocity@@YAHABVVector@@0AAV1@M@Z PROC		; SV_ClipVelocity, COMDAT

; 1424 : {

	push	ebp
	mov	ebp, esp
	sub	esp, 84					; 00000054H
	push	ebx
	push	esi
	push	edi

; 1425 : 	int blocked = 0;

	mov	DWORD PTR _blocked$[ebp], 0

; 1426 : 	if( normal[2] > 0.0f ) blocked |= 1;	// floor

	mov	ecx, DWORD PTR _normal$[ebp]
	call	??BVector@@QBEPBMXZ			; Vector::operator float const *
	mov	ecx, 4
	shl	ecx, 1
	movss	xmm0, DWORD PTR [eax+ecx]
	comiss	xmm0, DWORD PTR __real@00000000
	jbe	SHORT $LN5@SV_ClipVel
	mov	eax, DWORD PTR _blocked$[ebp]
	or	eax, 1
	mov	DWORD PTR _blocked$[ebp], eax
$LN5@SV_ClipVel:

; 1427 : 	if( !normal[2] ) blocked |= 2;	// step

	mov	ecx, DWORD PTR _normal$[ebp]
	call	??BVector@@QBEPBMXZ			; Vector::operator float const *
	mov	ecx, 4
	shl	ecx, 1
	movss	xmm0, DWORD PTR [eax+ecx]
	ucomiss	xmm0, DWORD PTR __real@00000000
	lahf
	test	ah, 68					; 00000044H
	jp	SHORT $LN6@SV_ClipVel
	mov	eax, DWORD PTR _blocked$[ebp]
	or	eax, 2
	mov	DWORD PTR _blocked$[ebp], eax
$LN6@SV_ClipVel:

; 1428 : 	
; 1429 : 	float backoff = DotProduct( in, normal ) * overbounce;

	mov	eax, DWORD PTR _normal$[ebp]
	push	eax
	mov	ecx, DWORD PTR _in$[ebp]
	push	ecx
	call	?DotProduct@@YAMABVVector@@0@Z		; DotProduct
	add	esp, 8
	fstp	DWORD PTR tv157[ebp]
	movss	xmm0, DWORD PTR tv157[ebp]
	mulss	xmm0, DWORD PTR _overbounce$[ebp]
	movss	DWORD PTR _backoff$[ebp], xmm0

; 1430 : 
; 1431 : 	for( int i = 0; i < 3; i++ )

	mov	DWORD PTR _i$2[ebp], 0
	jmp	SHORT $LN4@SV_ClipVel
$LN2@SV_ClipVel:
	mov	eax, DWORD PTR _i$2[ebp]
	add	eax, 1
	mov	DWORD PTR _i$2[ebp], eax
$LN4@SV_ClipVel:
	cmp	DWORD PTR _i$2[ebp], 3
	jge	$LN3@SV_ClipVel

; 1432 : 	{
; 1433 : 		float change = normal[i] * backoff;

	mov	ecx, DWORD PTR _normal$[ebp]
	call	??BVector@@QBEPBMXZ			; Vector::operator float const *
	mov	ecx, DWORD PTR _i$2[ebp]
	movss	xmm0, DWORD PTR [eax+ecx*4]
	mulss	xmm0, DWORD PTR _backoff$[ebp]
	movss	DWORD PTR _change$1[ebp], xmm0

; 1434 : 		out[i] = in[i] - change;

	mov	ecx, DWORD PTR _in$[ebp]
	call	??BVector@@QBEPBMXZ			; Vector::operator float const *
	mov	ecx, DWORD PTR _i$2[ebp]
	movss	xmm0, DWORD PTR [eax+ecx*4]
	subss	xmm0, DWORD PTR _change$1[ebp]
	mov	ecx, DWORD PTR _out$[ebp]
	movss	DWORD PTR tv178[ebp], xmm0
	call	??BVector@@QAEPAMXZ			; Vector::operator float *
	mov	edx, DWORD PTR _i$2[ebp]
	movss	xmm0, DWORD PTR tv178[ebp]
	movss	DWORD PTR [eax+edx*4], xmm0

; 1435 : 
; 1436 : 		if( out[i] > -1.0f && out[i] < 1.0f )

	mov	ecx, DWORD PTR _out$[ebp]
	call	??BVector@@QAEPAMXZ			; Vector::operator float *
	mov	ecx, DWORD PTR _i$2[ebp]
	movss	xmm0, DWORD PTR [eax+ecx*4]
	comiss	xmm0, DWORD PTR __real@bf800000
	jbe	SHORT $LN7@SV_ClipVel
	mov	ecx, DWORD PTR _out$[ebp]
	call	??BVector@@QAEPAMXZ			; Vector::operator float *
	mov	ecx, DWORD PTR _i$2[ebp]
	movss	xmm0, DWORD PTR __real@3f800000
	comiss	xmm0, DWORD PTR [eax+ecx*4]
	jbe	SHORT $LN7@SV_ClipVel

; 1437 : 			out[i] = 0.0f;

	mov	ecx, DWORD PTR _out$[ebp]
	call	??BVector@@QAEPAMXZ			; Vector::operator float *
	mov	ecx, DWORD PTR _i$2[ebp]
	xorps	xmm0, xmm0
	movss	DWORD PTR [eax+ecx*4], xmm0
$LN7@SV_ClipVel:

; 1438 : 	}

	jmp	$LN2@SV_ClipVel
$LN3@SV_ClipVel:

; 1439 : 
; 1440 : 	return blocked;

	mov	eax, DWORD PTR _blocked$[ebp]

; 1441 : }

	pop	edi
	pop	esi
	pop	ebx
	mov	esp, ebp
	pop	ebp
	ret	0
?SV_ClipVelocity@@YAHABVVector@@0AAV1@M@Z ENDP		; SV_ClipVelocity
_TEXT	ENDS
; Function compile flags: /Odtp /ZI
; File d:\!diffusion 2020\source code 2022\client-server\server\physics\physic.cpp
;	COMDAT ?SV_CheckVelocity@@YAXPAVCBaseEntity@@@Z
_TEXT	SEGMENT
tv197 = -104						; size = 4
_i$1 = -36						; size = 4
_bReset$ = -29						; size = 1
_maxVelocity$ = -28					; size = 4
_vecAbsVelocity$ = -24					; size = 12
_origin$ = -12						; size = 12
_pEntity$ = 8						; size = 4
?SV_CheckVelocity@@YAXPAVCBaseEntity@@@Z PROC		; SV_CheckVelocity, COMDAT

; 1374 : {

	push	ebp
	mov	ebp, esp
	sub	esp, 104				; 00000068H
	push	ebx
	push	esi
	push	edi

; 1375 : 	Vector origin = pEntity->GetAbsOrigin();

	mov	ecx, DWORD PTR _pEntity$[ebp]
	call	?GetAbsOrigin@CBaseEntity@@QBEABVVector@@XZ ; CBaseEntity::GetAbsOrigin
	push	eax
	lea	ecx, DWORD PTR _origin$[ebp]
	call	??0Vector@@QAE@ABV0@@Z			; Vector::Vector

; 1376 : 	Vector vecAbsVelocity = pEntity->GetAbsVelocity();

	mov	ecx, DWORD PTR _pEntity$[ebp]
	call	?GetAbsVelocity@CBaseEntity@@QBEABVVector@@XZ ; CBaseEntity::GetAbsVelocity
	push	eax
	lea	ecx, DWORD PTR _vecAbsVelocity$[ebp]
	call	??0Vector@@QAE@ABV0@@Z			; Vector::Vector

; 1377 : 	float maxVelocity = CVAR_GET_FLOAT( "sv_maxvelocity" );

	push	OFFSET ??_C@_0P@FKNMIPLB@sv_maxvelocity?$AA@
	call	DWORD PTR ?g_engfuncs@@3Uenginefuncs_s@@A+228
	add	esp, 4
	fstp	DWORD PTR _maxVelocity$[ebp]

; 1378 : 	bool bReset = false;

	mov	BYTE PTR _bReset$[ebp], 0

; 1379 : 
; 1380 : 	// bound velocity
; 1381 : 	for( int i = 0; i < 3; i++ )

	mov	DWORD PTR _i$1[ebp], 0
	jmp	SHORT $LN4@SV_CheckVe
$LN2@SV_CheckVe:
	mov	eax, DWORD PTR _i$1[ebp]
	add	eax, 1
	mov	DWORD PTR _i$1[ebp], eax
$LN4@SV_CheckVe:
	cmp	DWORD PTR _i$1[ebp], 3
	jge	$LN3@SV_CheckVe

; 1382 : 	{
; 1383 : 		if( IS_NAN( vecAbsVelocity[i] ))

	lea	ecx, DWORD PTR _vecAbsVelocity$[ebp]
	call	??BVector@@QAEPAMXZ			; Vector::operator float *
	mov	ecx, DWORD PTR _i$1[ebp]
	mov	edx, DWORD PTR [eax+ecx*4]
	and	edx, 2139095040				; 7f800000H
	cmp	edx, 2139095040				; 7f800000H
	jne	SHORT $LN5@SV_CheckVe

; 1384 : 		{
; 1385 : 			ALERT( at_console, "Got a NaN velocity on %s\n", pEntity->GetClassname( ));

	mov	ecx, DWORD PTR _pEntity$[ebp]
	call	?GetClassname@CBaseEntity@@QAEPBDXZ	; CBaseEntity::GetClassname
	push	eax
	push	OFFSET ??_C@_0BK@FPJNFHPF@Got?5a?5NaN?5velocity?5on?5?$CFs?6?$AA@
	push	1
	call	DWORD PTR ?g_engfuncs@@3Uenginefuncs_s@@A+244
	add	esp, 12					; 0000000cH

; 1386 : 			vecAbsVelocity[i] = 0.0f;

	lea	ecx, DWORD PTR _vecAbsVelocity$[ebp]
	call	??BVector@@QAEPAMXZ			; Vector::operator float *
	mov	ecx, DWORD PTR _i$1[ebp]
	xorps	xmm0, xmm0
	movss	DWORD PTR [eax+ecx*4], xmm0

; 1387 : 			bReset = true;

	mov	BYTE PTR _bReset$[ebp], 1
$LN5@SV_CheckVe:

; 1388 : 		}
; 1389 : 
; 1390 : 		if( IS_NAN( origin[i] ))

	lea	ecx, DWORD PTR _origin$[ebp]
	call	??BVector@@QAEPAMXZ			; Vector::operator float *
	mov	ecx, DWORD PTR _i$1[ebp]
	mov	edx, DWORD PTR [eax+ecx*4]
	and	edx, 2139095040				; 7f800000H
	cmp	edx, 2139095040				; 7f800000H
	jne	SHORT $LN6@SV_CheckVe

; 1391 : 		{
; 1392 : 			ALERT( at_console, "Got a NaN origin on %s\n", pEntity->GetClassname( ));

	mov	ecx, DWORD PTR _pEntity$[ebp]
	call	?GetClassname@CBaseEntity@@QAEPBDXZ	; CBaseEntity::GetClassname
	push	eax
	push	OFFSET ??_C@_0BI@JOACCKMB@Got?5a?5NaN?5origin?5on?5?$CFs?6?$AA@
	push	1
	call	DWORD PTR ?g_engfuncs@@3Uenginefuncs_s@@A+244
	add	esp, 12					; 0000000cH

; 1393 : 			origin[i] = 0.0f;

	lea	ecx, DWORD PTR _origin$[ebp]
	call	??BVector@@QAEPAMXZ			; Vector::operator float *
	mov	ecx, DWORD PTR _i$1[ebp]
	xorps	xmm0, xmm0
	movss	DWORD PTR [eax+ecx*4], xmm0

; 1394 : 			bReset = true;

	mov	BYTE PTR _bReset$[ebp], 1
$LN6@SV_CheckVe:

; 1395 : 		}
; 1396 : 
; 1397 : 		if( vecAbsVelocity[i] > maxVelocity )

	lea	ecx, DWORD PTR _vecAbsVelocity$[ebp]
	call	??BVector@@QAEPAMXZ			; Vector::operator float *
	mov	ecx, DWORD PTR _i$1[ebp]
	movss	xmm0, DWORD PTR [eax+ecx*4]
	comiss	xmm0, DWORD PTR _maxVelocity$[ebp]
	jbe	SHORT $LN7@SV_CheckVe

; 1398 : 		{
; 1399 : 			vecAbsVelocity[i] = maxVelocity;

	lea	ecx, DWORD PTR _vecAbsVelocity$[ebp]
	call	??BVector@@QAEPAMXZ			; Vector::operator float *
	mov	ecx, DWORD PTR _i$1[ebp]
	movss	xmm0, DWORD PTR _maxVelocity$[ebp]
	movss	DWORD PTR [eax+ecx*4], xmm0

; 1400 : 			bReset = true;

	mov	BYTE PTR _bReset$[ebp], 1
	jmp	SHORT $LN9@SV_CheckVe
$LN7@SV_CheckVe:

; 1401 : 		}
; 1402 : 		else if( vecAbsVelocity[i] < -maxVelocity )

	lea	ecx, DWORD PTR _vecAbsVelocity$[ebp]
	call	??BVector@@QAEPAMXZ			; Vector::operator float *
	movss	xmm0, DWORD PTR _maxVelocity$[ebp]
	xorps	xmm0, DWORD PTR __xmm@80000000800000008000000080000000
	mov	ecx, DWORD PTR _i$1[ebp]
	comiss	xmm0, DWORD PTR [eax+ecx*4]
	jbe	SHORT $LN9@SV_CheckVe

; 1403 : 		{
; 1404 : 			vecAbsVelocity[i] = -maxVelocity;

	movss	xmm0, DWORD PTR _maxVelocity$[ebp]
	xorps	xmm0, DWORD PTR __xmm@80000000800000008000000080000000
	lea	ecx, DWORD PTR _vecAbsVelocity$[ebp]
	movss	DWORD PTR tv197[ebp], xmm0
	call	??BVector@@QAEPAMXZ			; Vector::operator float *
	mov	ecx, DWORD PTR _i$1[ebp]
	movss	xmm0, DWORD PTR tv197[ebp]
	movss	DWORD PTR [eax+ecx*4], xmm0

; 1405 : 			bReset = true;

	mov	BYTE PTR _bReset$[ebp], 1
$LN9@SV_CheckVe:

; 1406 : 		}
; 1407 : 	}

	jmp	$LN2@SV_CheckVe
$LN3@SV_CheckVe:

; 1408 : 
; 1409 : 	if( bReset )

	movzx	eax, BYTE PTR _bReset$[ebp]
	test	eax, eax
	je	SHORT $LN10@SV_CheckVe

; 1410 : 	{
; 1411 : 		pEntity->SetAbsOrigin( origin );

	lea	eax, DWORD PTR _origin$[ebp]
	push	eax
	mov	ecx, DWORD PTR _pEntity$[ebp]
	call	?SetAbsOrigin@CBaseEntity@@QAEXABVVector@@@Z ; CBaseEntity::SetAbsOrigin

; 1412 : 		pEntity->SetAbsVelocity( vecAbsVelocity );

	lea	eax, DWORD PTR _vecAbsVelocity$[ebp]
	push	eax
	mov	ecx, DWORD PTR _pEntity$[ebp]
	call	?SetAbsVelocity@CBaseEntity@@QAEXABVVector@@@Z ; CBaseEntity::SetAbsVelocity
$LN10@SV_CheckVe:

; 1413 : 	}
; 1414 : }

	pop	edi
	pop	esi
	pop	ebx
	mov	esp, ebp
	pop	ebp
	ret	0
?SV_CheckVelocity@@YAXPAVCBaseEntity@@@Z ENDP		; SV_CheckVelocity
_TEXT	ENDS
; Function compile flags: /Odtp /ZI
; File d:\!diffusion 2020\source code 2022\client-server\server\physics\physic.cpp
;	COMDAT ?SV_CheckWaterTransition@@YAXPAVCBaseEntity@@@Z
_TEXT	SEGMENT
_vecAbsVelocity$1 = -28					; size = 12
_halfmax$ = -16						; size = 12
_cont$ = -4						; size = 4
_pEntity$ = 8						; size = 4
?SV_CheckWaterTransition@@YAXPAVCBaseEntity@@@Z PROC	; SV_CheckWaterTransition, COMDAT

; 1303 : {

	push	ebp
	mov	ebp, esp
	sub	esp, 92					; 0000005cH
	push	ebx
	push	esi
	push	edi

; 1304 : 	int	cont;
; 1305 : 	Vector	halfmax;

	lea	ecx, DWORD PTR _halfmax$[ebp]
	call	??0Vector@@QAE@XZ			; Vector::Vector

; 1306 : 
; 1307 : 	halfmax.x = (pEntity->pev->absmax.x + pEntity->pev->absmin.x) * 0.5f;

	mov	eax, DWORD PTR _pEntity$[ebp]
	mov	ecx, DWORD PTR [eax+4]
	mov	edx, DWORD PTR _pEntity$[ebp]
	mov	eax, DWORD PTR [edx+4]
	movss	xmm0, DWORD PTR [ecx+208]
	addss	xmm0, DWORD PTR [eax+196]
	mulss	xmm0, DWORD PTR __real@3f000000
	movss	DWORD PTR _halfmax$[ebp], xmm0

; 1308 : 	halfmax.y = (pEntity->pev->absmax.y + pEntity->pev->absmin.y) * 0.5f;

	mov	eax, DWORD PTR _pEntity$[ebp]
	mov	ecx, DWORD PTR [eax+4]
	mov	edx, DWORD PTR _pEntity$[ebp]
	mov	eax, DWORD PTR [edx+4]
	movss	xmm0, DWORD PTR [ecx+212]
	addss	xmm0, DWORD PTR [eax+200]
	mulss	xmm0, DWORD PTR __real@3f000000
	movss	DWORD PTR _halfmax$[ebp+4], xmm0

; 1309 : 	halfmax.z =  pEntity->pev->absmin.z + 1.0f;

	mov	eax, DWORD PTR _pEntity$[ebp]
	mov	ecx, DWORD PTR [eax+4]
	movss	xmm0, DWORD PTR [ecx+204]
	addss	xmm0, DWORD PTR __real@3f800000
	movss	DWORD PTR _halfmax$[ebp+8], xmm0

; 1310 : 
; 1311 : 	cont = UTIL_PointContents( halfmax );

	lea	eax, DWORD PTR _halfmax$[ebp]
	push	eax
	call	?UTIL_PointContents@@YAHABVVector@@@Z	; UTIL_PointContents
	add	esp, 4
	mov	DWORD PTR _cont$[ebp], eax

; 1312 : 
; 1313 : 	if( !pEntity->pev->watertype )

	mov	eax, DWORD PTR _pEntity$[ebp]
	mov	ecx, DWORD PTR [eax+4]
	cmp	DWORD PTR [ecx+452], 0
	jne	SHORT $LN2@SV_CheckWa

; 1314 : 	{
; 1315 : 		// just spawned here
; 1316 : 		pEntity->pev->watertype = cont;

	mov	eax, DWORD PTR _pEntity$[ebp]
	mov	ecx, DWORD PTR [eax+4]
	mov	edx, DWORD PTR _cont$[ebp]
	mov	DWORD PTR [ecx+452], edx

; 1317 : 		pEntity->pev->waterlevel = 1;

	mov	eax, DWORD PTR _pEntity$[ebp]
	mov	ecx, DWORD PTR [eax+4]
	mov	DWORD PTR [ecx+448], 1

; 1318 : 		return;

	jmp	$LN1@SV_CheckWa
$LN2@SV_CheckWa:

; 1319 : 	}
; 1320 : 
; 1321 : 	if( cont > CONTENTS_WATER || cont <= CONTENTS_TRANSLUCENT )

	cmp	DWORD PTR _cont$[ebp], -3		; fffffffdH
	jg	SHORT $LN4@SV_CheckWa
	cmp	DWORD PTR _cont$[ebp], -15		; fffffff1H
	jg	SHORT $LN3@SV_CheckWa
$LN4@SV_CheckWa:

; 1322 : 	{
; 1323 : 		if( pEntity->pev->watertype != CONTENTS_EMPTY )

	mov	eax, DWORD PTR _pEntity$[ebp]
	mov	ecx, DWORD PTR [eax+4]
	cmp	DWORD PTR [ecx+452], -1
	je	SHORT $LN5@SV_CheckWa

; 1324 : 		{
; 1325 : 			EMIT_SOUND( pEntity->edict(), CHAN_BODY, "footsteps/wade2.wav", 1.0f, ATTN_NORM );

	push	ecx
	movss	xmm0, DWORD PTR __real@3f4ccccd
	movss	DWORD PTR [esp], xmm0
	push	ecx
	movss	xmm0, DWORD PTR __real@3f800000
	movss	DWORD PTR [esp], xmm0
	push	OFFSET ??_C@_0BE@NINLJLLJ@footsteps?1wade2?4wav?$AA@
	push	4
	mov	ecx, DWORD PTR _pEntity$[ebp]
	call	?edict@CBaseEntity@@QAEPAUedict_s@@XZ	; CBaseEntity::edict
	push	eax
	call	?EMIT_SOUND@@YAXPAUedict_s@@HPBDMM@Z	; EMIT_SOUND
	add	esp, 20					; 00000014H
$LN5@SV_CheckWa:

; 1326 : 		}
; 1327 : 
; 1328 : 		pEntity->pev->watertype = CONTENTS_EMPTY;

	mov	eax, DWORD PTR _pEntity$[ebp]
	mov	ecx, DWORD PTR [eax+4]
	mov	DWORD PTR [ecx+452], -1

; 1329 : 		pEntity->pev->waterlevel = 0;

	mov	eax, DWORD PTR _pEntity$[ebp]
	mov	ecx, DWORD PTR [eax+4]
	mov	DWORD PTR [ecx+448], 0

; 1330 : 		return;

	jmp	$LN1@SV_CheckWa
$LN3@SV_CheckWa:

; 1331 : 	}
; 1332 : 
; 1333 : 	if( pEntity->pev->watertype == CONTENTS_EMPTY )

	mov	eax, DWORD PTR _pEntity$[ebp]
	mov	ecx, DWORD PTR [eax+4]
	cmp	DWORD PTR [ecx+452], -1
	jne	SHORT $LN6@SV_CheckWa

; 1334 : 	{
; 1335 : 		EMIT_SOUND( pEntity->edict(), CHAN_BODY, "footsteps/wade1.wav", 1.0f, ATTN_NORM );

	push	ecx
	movss	xmm0, DWORD PTR __real@3f4ccccd
	movss	DWORD PTR [esp], xmm0
	push	ecx
	movss	xmm0, DWORD PTR __real@3f800000
	movss	DWORD PTR [esp], xmm0
	push	OFFSET ??_C@_0BE@FOEPOJBH@footsteps?1wade1?4wav?$AA@
	push	4
	mov	ecx, DWORD PTR _pEntity$[ebp]
	call	?edict@CBaseEntity@@QAEPAUedict_s@@XZ	; CBaseEntity::edict
	push	eax
	call	?EMIT_SOUND@@YAXPAUedict_s@@HPBDMM@Z	; EMIT_SOUND
	add	esp, 20					; 00000014H

; 1336 : 		Vector vecAbsVelocity = pEntity->GetAbsVelocity();

	mov	ecx, DWORD PTR _pEntity$[ebp]
	call	?GetAbsVelocity@CBaseEntity@@QBEABVVector@@XZ ; CBaseEntity::GetAbsVelocity
	push	eax
	lea	ecx, DWORD PTR _vecAbsVelocity$1[ebp]
	call	??0Vector@@QAE@ABV0@@Z			; Vector::Vector

; 1337 : 		vecAbsVelocity.z *= 0.5f; // cut speed for floatables

	movss	xmm0, DWORD PTR _vecAbsVelocity$1[ebp+8]
	mulss	xmm0, DWORD PTR __real@3f000000
	movss	DWORD PTR _vecAbsVelocity$1[ebp+8], xmm0

; 1338 : 		pEntity->SetAbsVelocity( vecAbsVelocity );

	lea	eax, DWORD PTR _vecAbsVelocity$1[ebp]
	push	eax
	mov	ecx, DWORD PTR _pEntity$[ebp]
	call	?SetAbsVelocity@CBaseEntity@@QAEXABVVector@@@Z ; CBaseEntity::SetAbsVelocity
$LN6@SV_CheckWa:

; 1339 : 	}
; 1340 : 
; 1341 : 	pEntity->pev->watertype = cont;

	mov	eax, DWORD PTR _pEntity$[ebp]
	mov	ecx, DWORD PTR [eax+4]
	mov	edx, DWORD PTR _cont$[ebp]
	mov	DWORD PTR [ecx+452], edx

; 1342 : 	pEntity->pev->waterlevel = 1;

	mov	eax, DWORD PTR _pEntity$[ebp]
	mov	ecx, DWORD PTR [eax+4]
	mov	DWORD PTR [ecx+448], 1

; 1343 : 
; 1344 : 	if( pEntity->pev->absmin.z == pEntity->pev->absmax.z )

	mov	eax, DWORD PTR _pEntity$[ebp]
	mov	ecx, DWORD PTR [eax+4]
	mov	edx, DWORD PTR _pEntity$[ebp]
	mov	eax, DWORD PTR [edx+4]
	movss	xmm0, DWORD PTR [ecx+204]
	ucomiss	xmm0, DWORD PTR [eax+216]
	lahf
	test	ah, 68					; 00000044H
	jp	SHORT $LN7@SV_CheckWa

; 1345 : 	{
; 1346 : 		// a point entity
; 1347 : 		pEntity->pev->waterlevel = 3;

	mov	eax, DWORD PTR _pEntity$[ebp]
	mov	ecx, DWORD PTR [eax+4]
	mov	DWORD PTR [ecx+448], 3
$LN7@SV_CheckWa:

; 1348 : 	}
; 1349 : 
; 1350 : 	halfmax.z = (pEntity->pev->absmin.z + pEntity->pev->absmax.z) * 0.5f;

	mov	eax, DWORD PTR _pEntity$[ebp]
	mov	ecx, DWORD PTR [eax+4]
	mov	edx, DWORD PTR _pEntity$[ebp]
	mov	eax, DWORD PTR [edx+4]
	movss	xmm0, DWORD PTR [ecx+204]
	addss	xmm0, DWORD PTR [eax+216]
	mulss	xmm0, DWORD PTR __real@3f000000
	movss	DWORD PTR _halfmax$[ebp+8], xmm0

; 1351 : 
; 1352 : 	cont = UTIL_PointContents( halfmax );

	lea	eax, DWORD PTR _halfmax$[ebp]
	push	eax
	call	?UTIL_PointContents@@YAHABVVector@@@Z	; UTIL_PointContents
	add	esp, 4
	mov	DWORD PTR _cont$[ebp], eax

; 1353 : 
; 1354 : 	if( cont > CONTENTS_WATER || cont <= CONTENTS_TRANSLUCENT )

	cmp	DWORD PTR _cont$[ebp], -3		; fffffffdH
	jg	SHORT $LN9@SV_CheckWa
	cmp	DWORD PTR _cont$[ebp], -15		; fffffff1H
	jg	SHORT $LN8@SV_CheckWa
$LN9@SV_CheckWa:

; 1355 : 		return;

	jmp	SHORT $LN1@SV_CheckWa
$LN8@SV_CheckWa:

; 1356 : 
; 1357 : 	pEntity->pev->waterlevel = 2;

	mov	eax, DWORD PTR _pEntity$[ebp]
	mov	ecx, DWORD PTR [eax+4]
	mov	DWORD PTR [ecx+448], 2

; 1358 : 	halfmax += pEntity->pev->view_ofs;

	mov	eax, DWORD PTR _pEntity$[ebp]
	mov	ecx, DWORD PTR [eax+4]
	add	ecx, 372				; 00000174H
	push	ecx
	lea	ecx, DWORD PTR _halfmax$[ebp]
	call	??YVector@@QAEAAV0@ABV0@@Z		; Vector::operator+=

; 1359 : 
; 1360 : 	cont = UTIL_PointContents( halfmax );

	lea	eax, DWORD PTR _halfmax$[ebp]
	push	eax
	call	?UTIL_PointContents@@YAHABVVector@@@Z	; UTIL_PointContents
	add	esp, 4
	mov	DWORD PTR _cont$[ebp], eax

; 1361 : 
; 1362 : 	if( cont > CONTENTS_WATER || cont <= CONTENTS_TRANSLUCENT )

	cmp	DWORD PTR _cont$[ebp], -3		; fffffffdH
	jg	SHORT $LN11@SV_CheckWa
	cmp	DWORD PTR _cont$[ebp], -15		; fffffff1H
	jg	SHORT $LN10@SV_CheckWa
$LN11@SV_CheckWa:

; 1363 : 		return;

	jmp	SHORT $LN1@SV_CheckWa
$LN10@SV_CheckWa:

; 1364 : 
; 1365 : 	pEntity->pev->waterlevel = 3;

	mov	eax, DWORD PTR _pEntity$[ebp]
	mov	ecx, DWORD PTR [eax+4]
	mov	DWORD PTR [ecx+448], 3
$LN1@SV_CheckWa:

; 1366 : }

	pop	edi
	pop	esi
	pop	ebx
	mov	esp, ebp
	pop	ebp
	ret	0
?SV_CheckWaterTransition@@YAXPAVCBaseEntity@@@Z ENDP	; SV_CheckWaterTransition
_TEXT	ENDS
; Function compile flags: /Odtp /ZI
; File d:\!diffusion 2020\source code 2022\client-server\server\physics\physic.cpp
;	COMDAT ?SV_CheckWater@@YAHPAVCBaseEntity@@@Z
_TEXT	SEGMENT
tv165 = -84						; size = 4
_cont$ = -16						; size = 4
_point$ = -12						; size = 12
_pEntity$ = 8						; size = 4
?SV_CheckWater@@YAHPAVCBaseEntity@@@Z PROC		; SV_CheckWater, COMDAT

; 1252 : {

	push	ebp
	mov	ebp, esp
	sub	esp, 84					; 00000054H
	push	ebx
	push	esi
	push	edi

; 1253 : 	Vector	point;

	lea	ecx, DWORD PTR _point$[ebp]
	call	??0Vector@@QAE@XZ			; Vector::Vector

; 1254 : 
; 1255 : 	point.x = (pEntity->pev->absmin.x + pEntity->pev->absmax.x) * 0.5f;

	mov	eax, DWORD PTR _pEntity$[ebp]
	mov	ecx, DWORD PTR [eax+4]
	mov	edx, DWORD PTR _pEntity$[ebp]
	mov	eax, DWORD PTR [edx+4]
	movss	xmm0, DWORD PTR [ecx+196]
	addss	xmm0, DWORD PTR [eax+208]
	mulss	xmm0, DWORD PTR __real@3f000000
	movss	DWORD PTR _point$[ebp], xmm0

; 1256 : 	point.y = (pEntity->pev->absmin.y + pEntity->pev->absmax.y) * 0.5f;

	mov	eax, DWORD PTR _pEntity$[ebp]
	mov	ecx, DWORD PTR [eax+4]
	mov	edx, DWORD PTR _pEntity$[ebp]
	mov	eax, DWORD PTR [edx+4]
	movss	xmm0, DWORD PTR [ecx+200]
	addss	xmm0, DWORD PTR [eax+212]
	mulss	xmm0, DWORD PTR __real@3f000000
	movss	DWORD PTR _point$[ebp+4], xmm0

; 1257 : 	point.z =  pEntity->pev->absmin.z + 1;	

	mov	eax, DWORD PTR _pEntity$[ebp]
	mov	ecx, DWORD PTR [eax+4]
	movss	xmm0, DWORD PTR [ecx+204]
	addss	xmm0, DWORD PTR __real@3f800000
	movss	DWORD PTR _point$[ebp+8], xmm0

; 1258 : 
; 1259 : 	pEntity->pev->waterlevel = 0;

	mov	eax, DWORD PTR _pEntity$[ebp]
	mov	ecx, DWORD PTR [eax+4]
	mov	DWORD PTR [ecx+448], 0

; 1260 : 	pEntity->pev->watertype = CONTENTS_EMPTY;

	mov	eax, DWORD PTR _pEntity$[ebp]
	mov	ecx, DWORD PTR [eax+4]
	mov	DWORD PTR [ecx+452], -1

; 1261 : 
; 1262 : 	int cont = UTIL_PointContents( point );

	lea	eax, DWORD PTR _point$[ebp]
	push	eax
	call	?UTIL_PointContents@@YAHABVVector@@@Z	; UTIL_PointContents
	add	esp, 4
	mov	DWORD PTR _cont$[ebp], eax

; 1263 : 
; 1264 : 	if( cont <= CONTENTS_WATER && cont > CONTENTS_TRANSLUCENT )

	cmp	DWORD PTR _cont$[ebp], -3		; fffffffdH
	jg	$LN6@SV_CheckWa
	cmp	DWORD PTR _cont$[ebp], -15		; fffffff1H
	jle	$LN6@SV_CheckWa

; 1265 : 	{
; 1266 : 		pEntity->pev->watertype = cont;

	mov	eax, DWORD PTR _pEntity$[ebp]
	mov	ecx, DWORD PTR [eax+4]
	mov	edx, DWORD PTR _cont$[ebp]
	mov	DWORD PTR [ecx+452], edx

; 1267 : 		pEntity->pev->waterlevel = 1;

	mov	eax, DWORD PTR _pEntity$[ebp]
	mov	ecx, DWORD PTR [eax+4]
	mov	DWORD PTR [ecx+448], 1

; 1268 : 
; 1269 : 		if( pEntity->pev->absmin.z == pEntity->pev->absmax.z )

	mov	eax, DWORD PTR _pEntity$[ebp]
	mov	ecx, DWORD PTR [eax+4]
	mov	edx, DWORD PTR _pEntity$[ebp]
	mov	eax, DWORD PTR [edx+4]
	movss	xmm0, DWORD PTR [ecx+204]
	ucomiss	xmm0, DWORD PTR [eax+216]
	lahf
	test	ah, 68					; 00000044H
	jp	SHORT $LN3@SV_CheckWa

; 1270 : 		{
; 1271 : 			// a point entity
; 1272 : 			pEntity->pev->waterlevel = 3;

	mov	eax, DWORD PTR _pEntity$[ebp]
	mov	ecx, DWORD PTR [eax+4]
	mov	DWORD PTR [ecx+448], 3

; 1273 : 		}
; 1274 : 		else

	jmp	$LN6@SV_CheckWa
$LN3@SV_CheckWa:

; 1275 : 		{
; 1276 : 			point.z = (pEntity->pev->absmin.z + pEntity->pev->absmax.z) * 0.5f;

	mov	eax, DWORD PTR _pEntity$[ebp]
	mov	ecx, DWORD PTR [eax+4]
	mov	edx, DWORD PTR _pEntity$[ebp]
	mov	eax, DWORD PTR [edx+4]
	movss	xmm0, DWORD PTR [ecx+204]
	addss	xmm0, DWORD PTR [eax+216]
	mulss	xmm0, DWORD PTR __real@3f000000
	movss	DWORD PTR _point$[ebp+8], xmm0

; 1277 : 
; 1278 : 			cont = UTIL_PointContents( point );

	lea	eax, DWORD PTR _point$[ebp]
	push	eax
	call	?UTIL_PointContents@@YAHABVVector@@@Z	; UTIL_PointContents
	add	esp, 4
	mov	DWORD PTR _cont$[ebp], eax

; 1279 : 
; 1280 : 			if( cont <= CONTENTS_WATER && cont > CONTENTS_TRANSLUCENT )

	cmp	DWORD PTR _cont$[ebp], -3		; fffffffdH
	jg	SHORT $LN6@SV_CheckWa
	cmp	DWORD PTR _cont$[ebp], -15		; fffffff1H
	jle	SHORT $LN6@SV_CheckWa

; 1281 : 			{
; 1282 : 				pEntity->pev->waterlevel = 2;

	mov	eax, DWORD PTR _pEntity$[ebp]
	mov	ecx, DWORD PTR [eax+4]
	mov	DWORD PTR [ecx+448], 2

; 1283 : 
; 1284 : 				point += pEntity->pev->view_ofs;

	mov	eax, DWORD PTR _pEntity$[ebp]
	mov	ecx, DWORD PTR [eax+4]
	add	ecx, 372				; 00000174H
	push	ecx
	lea	ecx, DWORD PTR _point$[ebp]
	call	??YVector@@QAEAAV0@ABV0@@Z		; Vector::operator+=

; 1285 : 				cont = UTIL_PointContents( point );

	lea	eax, DWORD PTR _point$[ebp]
	push	eax
	call	?UTIL_PointContents@@YAHABVVector@@@Z	; UTIL_PointContents
	add	esp, 4
	mov	DWORD PTR _cont$[ebp], eax

; 1286 : 
; 1287 : 				if( cont <= CONTENTS_WATER && cont > CONTENTS_TRANSLUCENT )

	cmp	DWORD PTR _cont$[ebp], -3		; fffffffdH
	jg	SHORT $LN6@SV_CheckWa
	cmp	DWORD PTR _cont$[ebp], -15		; fffffff1H
	jle	SHORT $LN6@SV_CheckWa

; 1288 : 					pEntity->pev->waterlevel = 3;

	mov	eax, DWORD PTR _pEntity$[ebp]
	mov	ecx, DWORD PTR [eax+4]
	mov	DWORD PTR [ecx+448], 3
$LN6@SV_CheckWa:

; 1289 : 			}
; 1290 : 		}
; 1291 : 	}
; 1292 : 
; 1293 : 	return (pEntity->pev->waterlevel > 1);

	mov	eax, DWORD PTR _pEntity$[ebp]
	mov	ecx, DWORD PTR [eax+4]
	cmp	DWORD PTR [ecx+448], 1
	jle	SHORT $LN8@SV_CheckWa
	mov	DWORD PTR tv165[ebp], 1
	jmp	SHORT $LN9@SV_CheckWa
$LN8@SV_CheckWa:
	mov	DWORD PTR tv165[ebp], 0
$LN9@SV_CheckWa:
	mov	eax, DWORD PTR tv165[ebp]

; 1294 : }

	pop	edi
	pop	esi
	pop	ebx
	mov	esp, ebp
	pop	ebp
	ret	0
?SV_CheckWater@@YAHPAVCBaseEntity@@@Z ENDP		; SV_CheckWater
_TEXT	ENDS
; Function compile flags: /Odtp /ZI
; File d:\!diffusion 2020\source code 2022\client-server\server\physics\physic.cpp
;	COMDAT ?SV_CheckMover@@YAHPAVCBaseEntity@@@Z
_TEXT	SEGMENT
_pGround$ = -4						; size = 4
_pEntity$ = 8						; size = 4
?SV_CheckMover@@YAHPAVCBaseEntity@@@Z PROC		; SV_CheckMover, COMDAT

; 1231 : {

	push	ebp
	mov	ebp, esp
	sub	esp, 68					; 00000044H
	push	ebx
	push	esi
	push	edi

; 1232 : 	CBaseEntity *pGround = pEntity->GetGroundEntity();

	mov	ecx, DWORD PTR _pEntity$[ebp]
	call	?GetGroundEntity@CBaseEntity@@QAEPAV1@XZ ; CBaseEntity::GetGroundEntity
	mov	DWORD PTR _pGround$[ebp], eax

; 1233 : 
; 1234 : 	if( !pGround )

	cmp	DWORD PTR _pGround$[ebp], 0
	jne	SHORT $LN2@SV_CheckMo

; 1235 : 		return false;

	xor	eax, eax
	jmp	SHORT $LN1@SV_CheckMo
$LN2@SV_CheckMo:

; 1236 : 
; 1237 : 	if( pGround->pev->movetype != MOVETYPE_PUSH )

	mov	eax, DWORD PTR _pGround$[ebp]
	mov	ecx, DWORD PTR [eax+4]
	cmp	DWORD PTR [ecx+264], 7
	je	SHORT $LN3@SV_CheckMo

; 1238 : 		return false;

	xor	eax, eax
	jmp	SHORT $LN1@SV_CheckMo
$LN3@SV_CheckMo:

; 1239 : 
; 1240 : 	if( pGround->GetLocalVelocity() == g_vecZero && pGround->GetLocalAvelocity() == g_vecZero )

	push	OFFSET ?g_vecZero@@3VVector@@B		; g_vecZero
	mov	ecx, DWORD PTR _pGround$[ebp]
	call	?GetLocalVelocity@CBaseEntity@@QBEABVVector@@XZ ; CBaseEntity::GetLocalVelocity
	mov	ecx, eax
	call	??8Vector@@QBEHABV0@@Z			; Vector::operator==
	test	eax, eax
	je	SHORT $LN4@SV_CheckMo
	push	OFFSET ?g_vecZero@@3VVector@@B		; g_vecZero
	mov	ecx, DWORD PTR _pGround$[ebp]
	call	?GetLocalAvelocity@CBaseEntity@@QBEABVVector@@XZ ; CBaseEntity::GetLocalAvelocity
	mov	ecx, eax
	call	??8Vector@@QBEHABV0@@Z			; Vector::operator==
	test	eax, eax
	je	SHORT $LN4@SV_CheckMo

; 1241 : 		return false;

	xor	eax, eax
	jmp	SHORT $LN1@SV_CheckMo
$LN4@SV_CheckMo:

; 1242 : 
; 1243 : 	return true;

	mov	eax, 1
$LN1@SV_CheckMo:

; 1244 : }

	pop	edi
	pop	esi
	pop	ebx
	mov	esp, ebp
	pop	ebp
	ret	0
?SV_CheckMover@@YAHPAVCBaseEntity@@@Z ENDP		; SV_CheckMover
_TEXT	ENDS
; Function compile flags: /Odtp /ZI
; File d:\!diffusion 2020\source code 2022\client-server\server\physics\physic.cpp
;	COMDAT ?SV_Submerged@@YAMPAVCBaseEntity@@@Z
_TEXT	SEGMENT
tv224 = -124						; size = 4
tv187 = -124						; size = 4
tv222 = -120						; size = 4
tv211 = -120						; size = 4
tv185 = -120						; size = 4
tv82 = -120						; size = 4
$T1 = -116						; size = 12
$T2 = -104						; size = 12
_waterlevel$ = -28					; size = 4
_halfmax$ = -24						; size = 12
_point$ = -12						; size = 12
_pEntity$ = 8						; size = 4
?SV_Submerged@@YAMPAVCBaseEntity@@@Z PROC		; SV_Submerged, COMDAT

; 1198 : {

	push	ebp
	mov	ebp, esp
	sub	esp, 124				; 0000007cH
	push	ebx
	push	esi
	push	edi

; 1199 : 	Vector	point;

	lea	ecx, DWORD PTR _point$[ebp]
	call	??0Vector@@QAE@XZ			; Vector::Vector

; 1200 : 
; 1201 : 	Vector halfmax = (pEntity->pev->absmin + pEntity->pev->absmax) * 0.5f;

	push	ecx
	movss	xmm0, DWORD PTR __real@3f000000
	movss	DWORD PTR [esp], xmm0
	lea	eax, DWORD PTR _halfmax$[ebp]
	push	eax
	mov	ecx, DWORD PTR _pEntity$[ebp]
	mov	edx, DWORD PTR [ecx+4]
	add	edx, 208				; 000000d0H
	push	edx
	lea	eax, DWORD PTR $T2[ebp]
	push	eax
	mov	ecx, DWORD PTR _pEntity$[ebp]
	mov	ecx, DWORD PTR [ecx+4]
	add	ecx, 196				; 000000c4H
	call	??HVector@@QBE?AV0@ABV0@@Z		; Vector::operator+
	mov	ecx, eax
	call	??DVector@@QBE?AV0@M@Z			; Vector::operator*

; 1202 : 	float waterlevel = pEntity->pev->absmin.z - halfmax.z;

	mov	eax, DWORD PTR _pEntity$[ebp]
	mov	ecx, DWORD PTR [eax+4]
	movss	xmm0, DWORD PTR [ecx+204]
	subss	xmm0, DWORD PTR _halfmax$[ebp+8]
	movss	DWORD PTR _waterlevel$[ebp], xmm0

; 1203 : 
; 1204 : 	switch( pEntity->pev->waterlevel )

	mov	eax, DWORD PTR _pEntity$[ebp]
	mov	ecx, DWORD PTR [eax+4]
	mov	edx, DWORD PTR [ecx+448]
	mov	DWORD PTR tv82[ebp], edx
	cmp	DWORD PTR tv82[ebp], 1
	je	SHORT $LN4@SV_Submerg
	cmp	DWORD PTR tv82[ebp], 2
	je	$LN6@SV_Submerg
	cmp	DWORD PTR tv82[ebp], 3
	je	SHORT $LN5@SV_Submerg
	jmp	$LN8@SV_Submerg
$LN4@SV_Submerg:

; 1205 : 	{
; 1206 : 	case 1:
; 1207 : 		return SV_RecursiveWaterLevel( halfmax, 0.0f, waterlevel, 0 ) - waterlevel;

	push	0
	push	ecx
	movss	xmm0, DWORD PTR _waterlevel$[ebp]
	movss	DWORD PTR [esp], xmm0
	push	ecx
	xorps	xmm0, xmm0
	movss	DWORD PTR [esp], xmm0
	lea	eax, DWORD PTR _halfmax$[ebp]
	push	eax
	call	?SV_RecursiveWaterLevel@@YAMABVVector@@MMH@Z ; SV_RecursiveWaterLevel
	add	esp, 16					; 00000010H
	fstp	DWORD PTR tv185[ebp]
	movss	xmm0, DWORD PTR tv185[ebp]
	subss	xmm0, DWORD PTR _waterlevel$[ebp]
	movss	DWORD PTR tv187[ebp], xmm0
	fld	DWORD PTR tv187[ebp]
	jmp	$LN2@SV_Submerg
$LN5@SV_Submerg:

; 1208 : 	case 3:
; 1209 : 		point = Vector( halfmax.x, halfmax.y, pEntity->pev->absmax.z );

	mov	eax, DWORD PTR _pEntity$[ebp]
	mov	ecx, DWORD PTR [eax+4]
	push	ecx
	movss	xmm0, DWORD PTR [ecx+216]
	movss	DWORD PTR [esp], xmm0
	push	ecx
	movss	xmm0, DWORD PTR _halfmax$[ebp+4]
	movss	DWORD PTR [esp], xmm0
	push	ecx
	movss	xmm0, DWORD PTR _halfmax$[ebp]
	movss	DWORD PTR [esp], xmm0
	lea	ecx, DWORD PTR $T1[ebp]
	call	??0Vector@@QAE@MMM@Z			; Vector::Vector
	mov	edx, DWORD PTR [eax]
	mov	DWORD PTR _point$[ebp], edx
	mov	ecx, DWORD PTR [eax+4]
	mov	DWORD PTR _point$[ebp+4], ecx
	mov	edx, DWORD PTR [eax+8]
	mov	DWORD PTR _point$[ebp+8], edx

; 1210 : 
; 1211 : 		if( UTIL_PointContents( point ) == CONTENTS_WATER )

	lea	eax, DWORD PTR _point$[ebp]
	push	eax
	call	?UTIL_PointContents@@YAHABVVector@@@Z	; UTIL_PointContents
	add	esp, 4
	cmp	eax, -3					; fffffffdH
	jne	SHORT $LN6@SV_Submerg

; 1212 : 		{
; 1213 : 			return (pEntity->pev->maxs.z - pEntity->pev->mins.z);

	mov	eax, DWORD PTR _pEntity$[ebp]
	mov	ecx, DWORD PTR [eax+4]
	mov	edx, DWORD PTR _pEntity$[ebp]
	mov	eax, DWORD PTR [edx+4]
	movss	xmm0, DWORD PTR [ecx+240]
	subss	xmm0, DWORD PTR [eax+228]
	movss	DWORD PTR tv211[ebp], xmm0
	fld	DWORD PTR tv211[ebp]
	jmp	SHORT $LN2@SV_Submerg
$LN6@SV_Submerg:

; 1214 : 		}
; 1215 : 		// intentionally fallthrough
; 1216 : 	case 2:
; 1217 : 		return SV_RecursiveWaterLevel( halfmax, pEntity->pev->absmax.z - halfmax.z, 0.0f, 0 ) - waterlevel;

	push	0
	push	ecx
	xorps	xmm0, xmm0
	movss	DWORD PTR [esp], xmm0
	mov	eax, DWORD PTR _pEntity$[ebp]
	mov	ecx, DWORD PTR [eax+4]
	movss	xmm0, DWORD PTR [ecx+216]
	subss	xmm0, DWORD PTR _halfmax$[ebp+8]
	push	ecx
	movss	DWORD PTR [esp], xmm0
	lea	edx, DWORD PTR _halfmax$[ebp]
	push	edx
	call	?SV_RecursiveWaterLevel@@YAMABVVector@@MMH@Z ; SV_RecursiveWaterLevel
	add	esp, 16					; 00000010H
	fstp	DWORD PTR tv222[ebp]
	movss	xmm0, DWORD PTR tv222[ebp]
	subss	xmm0, DWORD PTR _waterlevel$[ebp]
	movss	DWORD PTR tv224[ebp], xmm0
	fld	DWORD PTR tv224[ebp]
	jmp	SHORT $LN2@SV_Submerg
$LN8@SV_Submerg:

; 1218 : 	default:
; 1219 : 		return 0.0f;

	fldz
$LN2@SV_Submerg:

; 1220 : 	}
; 1221 : }

	pop	edi
	pop	esi
	pop	ebx
	mov	esp, ebp
	pop	ebp
	ret	0
?SV_Submerged@@YAMPAVCBaseEntity@@@Z ENDP		; SV_Submerged
_TEXT	ENDS
; Function compile flags: /Odtp /ZI
; File d:\!diffusion 2020\source code 2022\client-server\server\physics\physic.cpp
;	COMDAT ?SV_RecursiveWaterLevel@@YAMABVVector@@MMH@Z
_TEXT	SEGMENT
_point$ = -16						; size = 12
_waterlevel$ = -4					; size = 4
_origin$ = 8						; size = 4
_mins$ = 12						; size = 4
_maxs$ = 16						; size = 4
_depth$ = 20						; size = 4
?SV_RecursiveWaterLevel@@YAMABVVector@@MMH@Z PROC	; SV_RecursiveWaterLevel, COMDAT

; 1179 : {

	push	ebp
	mov	ebp, esp
	sub	esp, 80					; 00000050H
	push	ebx
	push	esi
	push	edi

; 1180 : 	float waterlevel = ((mins - maxs) * 0.5f) + maxs;

	movss	xmm0, DWORD PTR _mins$[ebp]
	subss	xmm0, DWORD PTR _maxs$[ebp]
	mulss	xmm0, DWORD PTR __real@3f000000
	addss	xmm0, DWORD PTR _maxs$[ebp]
	movss	DWORD PTR _waterlevel$[ebp], xmm0

; 1181 : 	if( ++depth > 5 ) return waterlevel;

	mov	eax, DWORD PTR _depth$[ebp]
	add	eax, 1
	mov	DWORD PTR _depth$[ebp], eax
	cmp	DWORD PTR _depth$[ebp], 5
	jle	SHORT $LN2@SV_Recursi
	fld	DWORD PTR _waterlevel$[ebp]
	jmp	$LN1@SV_Recursi
$LN2@SV_Recursi:

; 1182 : 
; 1183 : 	Vector point = Vector( origin.x, origin.y, origin.z + waterlevel );

	mov	eax, DWORD PTR _origin$[ebp]
	movss	xmm0, DWORD PTR [eax+8]
	addss	xmm0, DWORD PTR _waterlevel$[ebp]
	push	ecx
	movss	DWORD PTR [esp], xmm0
	mov	ecx, DWORD PTR _origin$[ebp]
	push	ecx
	movss	xmm0, DWORD PTR [ecx+4]
	movss	DWORD PTR [esp], xmm0
	mov	edx, DWORD PTR _origin$[ebp]
	push	ecx
	movss	xmm0, DWORD PTR [edx]
	movss	DWORD PTR [esp], xmm0
	lea	ecx, DWORD PTR _point$[ebp]
	call	??0Vector@@QAE@MMM@Z			; Vector::Vector

; 1184 : 
; 1185 : 	if( UTIL_PointContents( point ) == CONTENTS_WATER )

	lea	eax, DWORD PTR _point$[ebp]
	push	eax
	call	?UTIL_PointContents@@YAHABVVector@@@Z	; UTIL_PointContents
	add	esp, 4
	cmp	eax, -3					; fffffffdH
	jne	SHORT $LN3@SV_Recursi

; 1186 : 		return SV_RecursiveWaterLevel( origin, mins, waterlevel, depth );

	mov	eax, DWORD PTR _depth$[ebp]
	push	eax
	push	ecx
	movss	xmm0, DWORD PTR _waterlevel$[ebp]
	movss	DWORD PTR [esp], xmm0
	push	ecx
	movss	xmm0, DWORD PTR _mins$[ebp]
	movss	DWORD PTR [esp], xmm0
	mov	ecx, DWORD PTR _origin$[ebp]
	push	ecx
	call	?SV_RecursiveWaterLevel@@YAMABVVector@@MMH@Z ; SV_RecursiveWaterLevel
	add	esp, 16					; 00000010H
	jmp	SHORT $LN1@SV_Recursi
$LN3@SV_Recursi:

; 1187 : 	return SV_RecursiveWaterLevel( origin, waterlevel, maxs, depth );

	mov	eax, DWORD PTR _depth$[ebp]
	push	eax
	push	ecx
	movss	xmm0, DWORD PTR _maxs$[ebp]
	movss	DWORD PTR [esp], xmm0
	push	ecx
	movss	xmm0, DWORD PTR _waterlevel$[ebp]
	movss	DWORD PTR [esp], xmm0
	mov	ecx, DWORD PTR _origin$[ebp]
	push	ecx
	call	?SV_RecursiveWaterLevel@@YAMABVVector@@MMH@Z ; SV_RecursiveWaterLevel
	add	esp, 16					; 00000010H
$LN1@SV_Recursi:

; 1188 : }

	pop	edi
	pop	esi
	pop	ebx
	mov	esp, ebp
	pop	ebp
	ret	0
?SV_RecursiveWaterLevel@@YAMABVVector@@MMH@Z ENDP	; SV_RecursiveWaterLevel
_TEXT	ENDS
; Function compile flags: /Odtp /ZI
; File d:\!diffusion 2020\source code 2022\client-server\server\physics\physic.cpp
;	COMDAT ?SV_RunThink@@YAHPAVCBaseEntity@@@Z
_TEXT	SEGMENT
tv135 = -88						; size = 8
tv129 = -88						; size = 8
tv147 = -80						; size = 8
tv145 = -80						; size = 8
tv87 = -76						; size = 4
_ed$ = -8						; size = 4
_thinktime$ = -4					; size = 4
_pEntity$ = 8						; size = 4
?SV_RunThink@@YAHPAVCBaseEntity@@@Z PROC		; SV_RunThink, COMDAT

; 1079 : {

	push	ebp
	mov	ebp, esp
	sub	esp, 88					; 00000058H
	push	ebx
	push	esi
	push	edi

; 1080 : 	float	thinktime;
; 1081 : 	edict_t	*ed = pEntity->edict();

	mov	ecx, DWORD PTR _pEntity$[ebp]
	call	?edict@CBaseEntity@@QAEPAUedict_s@@XZ	; CBaseEntity::edict
	mov	DWORD PTR _ed$[ebp], eax

; 1082 : 
; 1083 : 	thinktime = pEntity->pev->nextthink;

	mov	eax, DWORD PTR _pEntity$[ebp]
	mov	ecx, DWORD PTR [eax+4]
	movss	xmm0, DWORD PTR [ecx+260]
	movss	DWORD PTR _thinktime$[ebp], xmm0

; 1084 : 
; 1085 : 	if( thinktime <= 0 || thinktime > PHYSICS_TIME( ) + gpGlobals->frametime )

	xorps	xmm0, xmm0
	comiss	xmm0, DWORD PTR _thinktime$[ebp]
	jae	SHORT $LN3@SV_RunThin
	cvtss2sd xmm0, DWORD PTR _thinktime$[ebp]
	movsd	QWORD PTR tv145[ebp], xmm0
	call	DWORD PTR ?g_physfuncs@@3Userver_physics_api_s@@A+4
	fstp	QWORD PTR tv129[ebp]
	movsd	xmm0, QWORD PTR tv129[ebp]
	mov	eax, DWORD PTR ?gpGlobals@@3PAUglobalvars_t@@A ; gpGlobals
	cvtss2sd xmm1, DWORD PTR [eax+4]
	addsd	xmm0, xmm1
	movsd	xmm1, QWORD PTR tv145[ebp]
	comisd	xmm1, xmm0
	jbe	SHORT $LN2@SV_RunThin
$LN3@SV_RunThin:

; 1086 : 		return TRUE;

	mov	eax, 1
	jmp	SHORT $LN1@SV_RunThin
$LN2@SV_RunThin:

; 1087 : 		
; 1088 : 	if( thinktime < PHYSICS_TIME( ))

	cvtss2sd xmm0, DWORD PTR _thinktime$[ebp]
	movsd	QWORD PTR tv147[ebp], xmm0
	call	DWORD PTR ?g_physfuncs@@3Userver_physics_api_s@@A+4
	fstp	QWORD PTR tv135[ebp]
	movsd	xmm0, QWORD PTR tv135[ebp]
	movsd	xmm1, QWORD PTR tv147[ebp]
	comisd	xmm0, xmm1
	jbe	SHORT $LN4@SV_RunThin

; 1089 : 		thinktime = PHYSICS_TIME();	// don't let things stay in the past.

	call	DWORD PTR ?g_physfuncs@@3Userver_physics_api_s@@A+4
	fstp	DWORD PTR _thinktime$[ebp]
$LN4@SV_RunThin:

; 1090 : 					// it is possible to start that way
; 1091 : 					// by a trigger with a local time.
; 1092 : 	pEntity->DontThink();

	mov	ecx, DWORD PTR _pEntity$[ebp]
	call	?DontThink@CBaseEntity@@QAEXXZ		; CBaseEntity::DontThink

; 1093 : 
; 1094 : 	gpGlobals->time = thinktime;	// ouch!!!

	mov	eax, DWORD PTR ?gpGlobals@@3PAUglobalvars_t@@A ; gpGlobals
	movss	xmm0, DWORD PTR _thinktime$[ebp]
	movss	DWORD PTR [eax], xmm0

; 1095 : 	DispatchThink( pEntity->edict() );

	mov	ecx, DWORD PTR _pEntity$[ebp]
	call	?edict@CBaseEntity@@QAEPAUedict_s@@XZ	; CBaseEntity::edict
	push	eax
	call	?DispatchThink@@YAXPAUedict_s@@@Z	; DispatchThink
	add	esp, 4

; 1096 : 
; 1097 : 	return (ed->free) ? FALSE : TRUE;

	mov	eax, DWORD PTR _ed$[ebp]
	cmp	DWORD PTR [eax], 0
	je	SHORT $LN6@SV_RunThin
	mov	DWORD PTR tv87[ebp], 0
	jmp	SHORT $LN7@SV_RunThin
$LN6@SV_RunThin:
	mov	DWORD PTR tv87[ebp], 1
$LN7@SV_RunThin:
	mov	eax, DWORD PTR tv87[ebp]
$LN1@SV_RunThin:

; 1098 : }

	pop	edi
	pop	esi
	pop	ebx
	mov	esp, ebp
	pop	ebp
	ret	0
?SV_RunThink@@YAHPAVCBaseEntity@@@Z ENDP		; SV_RunThink
_TEXT	ENDS
; Function compile flags: /Odtp /ZI
; File d:\!diffusion 2020\source code 2022\client-server\server\physics\physic.cpp
;	COMDAT ?SV_LinearMove@@YAXPAVCBaseEntity@@MM@Z
_TEXT	SEGMENT
tv192 = -124						; size = 4
tv222 = -120						; size = 4
tv156 = -120						; size = 4
tv141 = -120						; size = 4
_i$1 = -52						; size = 4
_velocity$ = -48					; size = 12
_adjustment$ = -36					; size = 4
_game_stopspeed$ = -32					; size = 4
_game_friction$ = -28					; size = 4
_move$ = -24						; size = 12
_origin$ = -12						; size = 12
_pEntity$ = 8						; size = 4
_frametime$ = 12					; size = 4
_friction$ = 16						; size = 4
?SV_LinearMove@@YAXPAVCBaseEntity@@MM@Z PROC		; SV_LinearMove, COMDAT

; 389  : {

	push	ebp
	mov	ebp, esp
	sub	esp, 124				; 0000007cH
	push	ebx
	push	esi
	push	edi

; 390  : 	Vector origin = pEntity->GetLocalOrigin();

	mov	ecx, DWORD PTR _pEntity$[ebp]
	call	?GetLocalOrigin@CBaseEntity@@QBEABVVector@@XZ ; CBaseEntity::GetLocalOrigin
	push	eax
	lea	ecx, DWORD PTR _origin$[ebp]
	call	??0Vector@@QAE@ABV0@@Z			; Vector::Vector

; 391  : 	Vector move = pEntity->GetLocalVelocity() * frametime;

	push	ecx
	movss	xmm0, DWORD PTR _frametime$[ebp]
	movss	DWORD PTR [esp], xmm0
	lea	eax, DWORD PTR _move$[ebp]
	push	eax
	mov	ecx, DWORD PTR _pEntity$[ebp]
	call	?GetLocalVelocity@CBaseEntity@@QBEABVVector@@XZ ; CBaseEntity::GetLocalVelocity
	mov	ecx, eax
	call	??DVector@@QBE?AV0@M@Z			; Vector::operator*

; 392  : 
; 393  : 	origin += move;

	lea	eax, DWORD PTR _move$[ebp]
	push	eax
	lea	ecx, DWORD PTR _origin$[ebp]
	call	??YVector@@QAEAAV0@ABV0@@Z		; Vector::operator+=

; 394  : 	pEntity->SetLocalOrigin( origin );

	lea	eax, DWORD PTR _origin$[ebp]
	push	eax
	mov	ecx, DWORD PTR _pEntity$[ebp]
	call	?SetLocalOrigin@CBaseEntity@@QAEXABVVector@@@Z ; CBaseEntity::SetLocalOrigin

; 395  : 
; 396  : 	if( friction == 0.0f || pEntity->GetAbsVelocity() == g_vecZero )

	movss	xmm0, DWORD PTR _friction$[ebp]
	ucomiss	xmm0, DWORD PTR __real@00000000
	lahf
	test	ah, 68					; 00000044H
	jnp	SHORT $LN6@SV_LinearM
	push	OFFSET ?g_vecZero@@3VVector@@B		; g_vecZero
	mov	ecx, DWORD PTR _pEntity$[ebp]
	call	?GetAbsVelocity@CBaseEntity@@QBEABVVector@@XZ ; CBaseEntity::GetAbsVelocity
	mov	ecx, eax
	call	??8Vector@@QBEHABV0@@Z			; Vector::operator==
	test	eax, eax
	je	SHORT $LN5@SV_LinearM
$LN6@SV_LinearM:

; 397  : 		return;

	jmp	$LN1@SV_LinearM
$LN5@SV_LinearM:

; 398  : 
; 399  : 	float game_friction = CVAR_GET_FLOAT( "sv_friction" );

	push	OFFSET ??_C@_0M@CKLNABFC@sv_friction?$AA@
	call	DWORD PTR ?g_engfuncs@@3Uenginefuncs_s@@A+228
	add	esp, 4
	fstp	DWORD PTR _game_friction$[ebp]

; 400  : 	float game_stopspeed = CVAR_GET_FLOAT( "sv_stopspeed" );

	push	OFFSET ??_C@_0N@LFAHFFEG@sv_stopspeed?$AA@
	call	DWORD PTR ?g_engfuncs@@3Uenginefuncs_s@@A+228
	add	esp, 4
	fstp	DWORD PTR _game_stopspeed$[ebp]

; 401  : 	float adjustment = frametime * (game_stopspeed / 10) * game_friction * fabs( friction );

	movss	xmm0, DWORD PTR _game_stopspeed$[ebp]
	divss	xmm0, DWORD PTR __real@41200000
	mulss	xmm0, DWORD PTR _frametime$[ebp]
	mulss	xmm0, DWORD PTR _game_friction$[ebp]
	push	ecx
	movss	xmm1, DWORD PTR _friction$[ebp]
	movss	DWORD PTR [esp], xmm1
	movss	DWORD PTR tv222[ebp], xmm0
	call	?fabs@@YAMM@Z				; fabs
	add	esp, 4
	fstp	DWORD PTR tv192[ebp]
	movss	xmm0, DWORD PTR tv222[ebp]
	mulss	xmm0, DWORD PTR tv192[ebp]
	movss	DWORD PTR _adjustment$[ebp], xmm0

; 402  : 	Vector velocity = pEntity->GetLocalVelocity();

	mov	ecx, DWORD PTR _pEntity$[ebp]
	call	?GetLocalVelocity@CBaseEntity@@QBEABVVector@@XZ ; CBaseEntity::GetLocalVelocity
	push	eax
	lea	ecx, DWORD PTR _velocity$[ebp]
	call	??0Vector@@QAE@ABV0@@Z			; Vector::Vector

; 403  : 
; 404  : 	for( int i = 0; i < 3; i++ )

	mov	DWORD PTR _i$1[ebp], 0
	jmp	SHORT $LN4@SV_LinearM
$LN2@SV_LinearM:
	mov	eax, DWORD PTR _i$1[ebp]
	add	eax, 1
	mov	DWORD PTR _i$1[ebp], eax
$LN4@SV_LinearM:
	cmp	DWORD PTR _i$1[ebp], 3
	jge	$LN3@SV_LinearM

; 405  : 	{
; 406  : 		if( velocity[i] > 0.0f )

	lea	ecx, DWORD PTR _velocity$[ebp]
	call	??BVector@@QAEPAMXZ			; Vector::operator float *
	mov	ecx, DWORD PTR _i$1[ebp]
	movss	xmm0, DWORD PTR [eax+ecx*4]
	comiss	xmm0, DWORD PTR __real@00000000
	jbe	SHORT $LN7@SV_LinearM

; 407  : 		{
; 408  : 			velocity[i] -= adjustment;

	lea	ecx, DWORD PTR _velocity$[ebp]
	call	??BVector@@QAEPAMXZ			; Vector::operator float *
	mov	ecx, DWORD PTR _i$1[ebp]
	lea	edx, DWORD PTR [eax+ecx*4]
	mov	DWORD PTR tv141[ebp], edx
	mov	eax, DWORD PTR tv141[ebp]
	movss	xmm0, DWORD PTR [eax]
	subss	xmm0, DWORD PTR _adjustment$[ebp]
	mov	ecx, DWORD PTR tv141[ebp]
	movss	DWORD PTR [ecx], xmm0

; 409  : 			if( velocity[i] < 0.0f ) velocity[i] = 0.0f;

	lea	ecx, DWORD PTR _velocity$[ebp]
	call	??BVector@@QAEPAMXZ			; Vector::operator float *
	mov	ecx, DWORD PTR _i$1[ebp]
	xorps	xmm0, xmm0
	comiss	xmm0, DWORD PTR [eax+ecx*4]
	jbe	SHORT $LN9@SV_LinearM
	lea	ecx, DWORD PTR _velocity$[ebp]
	call	??BVector@@QAEPAMXZ			; Vector::operator float *
	mov	ecx, DWORD PTR _i$1[ebp]
	xorps	xmm0, xmm0
	movss	DWORD PTR [eax+ecx*4], xmm0
$LN9@SV_LinearM:

; 410  : 		}
; 411  : 		else

	jmp	SHORT $LN10@SV_LinearM
$LN7@SV_LinearM:

; 412  : 		{
; 413  : 			velocity[i] += adjustment;

	lea	ecx, DWORD PTR _velocity$[ebp]
	call	??BVector@@QAEPAMXZ			; Vector::operator float *
	mov	ecx, DWORD PTR _i$1[ebp]
	lea	edx, DWORD PTR [eax+ecx*4]
	mov	DWORD PTR tv156[ebp], edx
	mov	eax, DWORD PTR tv156[ebp]
	movss	xmm0, DWORD PTR [eax]
	addss	xmm0, DWORD PTR _adjustment$[ebp]
	mov	ecx, DWORD PTR tv156[ebp]
	movss	DWORD PTR [ecx], xmm0

; 414  : 			if( velocity[i] > 0.0f ) velocity[i] = 0.0f;

	lea	ecx, DWORD PTR _velocity$[ebp]
	call	??BVector@@QAEPAMXZ			; Vector::operator float *
	mov	ecx, DWORD PTR _i$1[ebp]
	movss	xmm0, DWORD PTR [eax+ecx*4]
	comiss	xmm0, DWORD PTR __real@00000000
	jbe	SHORT $LN10@SV_LinearM
	lea	ecx, DWORD PTR _velocity$[ebp]
	call	??BVector@@QAEPAMXZ			; Vector::operator float *
	mov	ecx, DWORD PTR _i$1[ebp]
	xorps	xmm0, xmm0
	movss	DWORD PTR [eax+ecx*4], xmm0
$LN10@SV_LinearM:

; 415  : 		}
; 416  : 	}

	jmp	$LN2@SV_LinearM
$LN3@SV_LinearM:

; 417  : 
; 418  : 	pEntity->SetLocalVelocity( velocity );

	lea	eax, DWORD PTR _velocity$[ebp]
	push	eax
	mov	ecx, DWORD PTR _pEntity$[ebp]
	call	?SetLocalVelocity@CBaseEntity@@QAEXABVVector@@@Z ; CBaseEntity::SetLocalVelocity
$LN1@SV_LinearM:

; 419  : }

	pop	edi
	pop	esi
	pop	ebx
	mov	esp, ebp
	pop	ebp
	ret	0
?SV_LinearMove@@YAXPAVCBaseEntity@@MM@Z ENDP		; SV_LinearMove
_TEXT	ENDS
; Function compile flags: /Odtp /ZI
; File d:\!diffusion 2020\source code 2022\client-server\server\physics\physic.cpp
;	COMDAT ?SV_AngularMove@@YAXPAVCBaseEntity@@MM@Z
_TEXT	SEGMENT
tv192 = -124						; size = 4
tv222 = -120						; size = 4
tv156 = -120						; size = 4
tv141 = -120						; size = 4
_i$1 = -52						; size = 4
_avelocity$ = -48					; size = 12
_adjustment$ = -36					; size = 4
_game_stopspeed$ = -32					; size = 4
_game_friction$ = -28					; size = 4
_amove$ = -24						; size = 12
_angles$ = -12						; size = 12
_pEntity$ = 8						; size = 4
_frametime$ = 12					; size = 4
_friction$ = 16						; size = 4
?SV_AngularMove@@YAXPAVCBaseEntity@@MM@Z PROC		; SV_AngularMove, COMDAT

; 349  : {

	push	ebp
	mov	ebp, esp
	sub	esp, 124				; 0000007cH
	push	ebx
	push	esi
	push	edi

; 350  : 	Vector angles = pEntity->GetLocalAngles();

	mov	ecx, DWORD PTR _pEntity$[ebp]
	call	?GetLocalAngles@CBaseEntity@@QBEABVVector@@XZ ; CBaseEntity::GetLocalAngles
	push	eax
	lea	ecx, DWORD PTR _angles$[ebp]
	call	??0Vector@@QAE@ABV0@@Z			; Vector::Vector

; 351  : 	Vector amove = pEntity->GetLocalAvelocity() * frametime;

	push	ecx
	movss	xmm0, DWORD PTR _frametime$[ebp]
	movss	DWORD PTR [esp], xmm0
	lea	eax, DWORD PTR _amove$[ebp]
	push	eax
	mov	ecx, DWORD PTR _pEntity$[ebp]
	call	?GetLocalAvelocity@CBaseEntity@@QBEABVVector@@XZ ; CBaseEntity::GetLocalAvelocity
	mov	ecx, eax
	call	??DVector@@QBE?AV0@M@Z			; Vector::operator*

; 352  : 
; 353  : 	angles += amove;

	lea	eax, DWORD PTR _amove$[ebp]
	push	eax
	lea	ecx, DWORD PTR _angles$[ebp]
	call	??YVector@@QAEAAV0@ABV0@@Z		; Vector::operator+=

; 354  : 	pEntity->SetLocalAngles( angles );

	lea	eax, DWORD PTR _angles$[ebp]
	push	eax
	mov	ecx, DWORD PTR _pEntity$[ebp]
	call	?SetLocalAngles@CBaseEntity@@QAEXABVVector@@@Z ; CBaseEntity::SetLocalAngles

; 355  : 
; 356  : 	if( friction == 0.0f || pEntity->GetLocalAvelocity() == g_vecZero )

	movss	xmm0, DWORD PTR _friction$[ebp]
	ucomiss	xmm0, DWORD PTR __real@00000000
	lahf
	test	ah, 68					; 00000044H
	jnp	SHORT $LN6@SV_Angular
	push	OFFSET ?g_vecZero@@3VVector@@B		; g_vecZero
	mov	ecx, DWORD PTR _pEntity$[ebp]
	call	?GetLocalAvelocity@CBaseEntity@@QBEABVVector@@XZ ; CBaseEntity::GetLocalAvelocity
	mov	ecx, eax
	call	??8Vector@@QBEHABV0@@Z			; Vector::operator==
	test	eax, eax
	je	SHORT $LN5@SV_Angular
$LN6@SV_Angular:

; 357  : 		return;

	jmp	$LN1@SV_Angular
$LN5@SV_Angular:

; 358  : 
; 359  : 	float game_friction = CVAR_GET_FLOAT( "sv_friction" );

	push	OFFSET ??_C@_0M@CKLNABFC@sv_friction?$AA@
	call	DWORD PTR ?g_engfuncs@@3Uenginefuncs_s@@A+228
	add	esp, 4
	fstp	DWORD PTR _game_friction$[ebp]

; 360  : 	float game_stopspeed = CVAR_GET_FLOAT( "sv_stopspeed" );

	push	OFFSET ??_C@_0N@LFAHFFEG@sv_stopspeed?$AA@
	call	DWORD PTR ?g_engfuncs@@3Uenginefuncs_s@@A+228
	add	esp, 4
	fstp	DWORD PTR _game_stopspeed$[ebp]

; 361  : 	float adjustment = frametime * (game_stopspeed / 10) * game_friction * fabs( friction );

	movss	xmm0, DWORD PTR _game_stopspeed$[ebp]
	divss	xmm0, DWORD PTR __real@41200000
	mulss	xmm0, DWORD PTR _frametime$[ebp]
	mulss	xmm0, DWORD PTR _game_friction$[ebp]
	push	ecx
	movss	xmm1, DWORD PTR _friction$[ebp]
	movss	DWORD PTR [esp], xmm1
	movss	DWORD PTR tv222[ebp], xmm0
	call	?fabs@@YAMM@Z				; fabs
	add	esp, 4
	fstp	DWORD PTR tv192[ebp]
	movss	xmm0, DWORD PTR tv222[ebp]
	mulss	xmm0, DWORD PTR tv192[ebp]
	movss	DWORD PTR _adjustment$[ebp], xmm0

; 362  : 	Vector avelocity = pEntity->GetLocalAvelocity();

	mov	ecx, DWORD PTR _pEntity$[ebp]
	call	?GetLocalAvelocity@CBaseEntity@@QBEABVVector@@XZ ; CBaseEntity::GetLocalAvelocity
	push	eax
	lea	ecx, DWORD PTR _avelocity$[ebp]
	call	??0Vector@@QAE@ABV0@@Z			; Vector::Vector

; 363  : 
; 364  : 	for( int i = 0; i < 3; i++ )

	mov	DWORD PTR _i$1[ebp], 0
	jmp	SHORT $LN4@SV_Angular
$LN2@SV_Angular:
	mov	eax, DWORD PTR _i$1[ebp]
	add	eax, 1
	mov	DWORD PTR _i$1[ebp], eax
$LN4@SV_Angular:
	cmp	DWORD PTR _i$1[ebp], 3
	jge	$LN3@SV_Angular

; 365  : 	{
; 366  : 		if( avelocity[i] > 0.0f )

	lea	ecx, DWORD PTR _avelocity$[ebp]
	call	??BVector@@QAEPAMXZ			; Vector::operator float *
	mov	ecx, DWORD PTR _i$1[ebp]
	movss	xmm0, DWORD PTR [eax+ecx*4]
	comiss	xmm0, DWORD PTR __real@00000000
	jbe	SHORT $LN7@SV_Angular

; 367  : 		{
; 368  : 			avelocity[i] -= adjustment;

	lea	ecx, DWORD PTR _avelocity$[ebp]
	call	??BVector@@QAEPAMXZ			; Vector::operator float *
	mov	ecx, DWORD PTR _i$1[ebp]
	lea	edx, DWORD PTR [eax+ecx*4]
	mov	DWORD PTR tv141[ebp], edx
	mov	eax, DWORD PTR tv141[ebp]
	movss	xmm0, DWORD PTR [eax]
	subss	xmm0, DWORD PTR _adjustment$[ebp]
	mov	ecx, DWORD PTR tv141[ebp]
	movss	DWORD PTR [ecx], xmm0

; 369  : 			if( avelocity[i] < 0.0f ) avelocity[i] = 0.0f;

	lea	ecx, DWORD PTR _avelocity$[ebp]
	call	??BVector@@QAEPAMXZ			; Vector::operator float *
	mov	ecx, DWORD PTR _i$1[ebp]
	xorps	xmm0, xmm0
	comiss	xmm0, DWORD PTR [eax+ecx*4]
	jbe	SHORT $LN9@SV_Angular
	lea	ecx, DWORD PTR _avelocity$[ebp]
	call	??BVector@@QAEPAMXZ			; Vector::operator float *
	mov	ecx, DWORD PTR _i$1[ebp]
	xorps	xmm0, xmm0
	movss	DWORD PTR [eax+ecx*4], xmm0
$LN9@SV_Angular:

; 370  : 		}
; 371  : 		else

	jmp	SHORT $LN10@SV_Angular
$LN7@SV_Angular:

; 372  : 		{
; 373  : 			avelocity[i] += adjustment;

	lea	ecx, DWORD PTR _avelocity$[ebp]
	call	??BVector@@QAEPAMXZ			; Vector::operator float *
	mov	ecx, DWORD PTR _i$1[ebp]
	lea	edx, DWORD PTR [eax+ecx*4]
	mov	DWORD PTR tv156[ebp], edx
	mov	eax, DWORD PTR tv156[ebp]
	movss	xmm0, DWORD PTR [eax]
	addss	xmm0, DWORD PTR _adjustment$[ebp]
	mov	ecx, DWORD PTR tv156[ebp]
	movss	DWORD PTR [ecx], xmm0

; 374  : 			if( avelocity[i] > 0.0f ) avelocity[i] = 0.0f;

	lea	ecx, DWORD PTR _avelocity$[ebp]
	call	??BVector@@QAEPAMXZ			; Vector::operator float *
	mov	ecx, DWORD PTR _i$1[ebp]
	movss	xmm0, DWORD PTR [eax+ecx*4]
	comiss	xmm0, DWORD PTR __real@00000000
	jbe	SHORT $LN10@SV_Angular
	lea	ecx, DWORD PTR _avelocity$[ebp]
	call	??BVector@@QAEPAMXZ			; Vector::operator float *
	mov	ecx, DWORD PTR _i$1[ebp]
	xorps	xmm0, xmm0
	movss	DWORD PTR [eax+ecx*4], xmm0
$LN10@SV_Angular:

; 375  : 		}
; 376  : 	}

	jmp	$LN2@SV_Angular
$LN3@SV_Angular:

; 377  : 
; 378  : 	pEntity->SetLocalAvelocity( avelocity );

	lea	eax, DWORD PTR _avelocity$[ebp]
	push	eax
	mov	ecx, DWORD PTR _pEntity$[ebp]
	call	?SetLocalAvelocity@CBaseEntity@@QAEXABVVector@@@Z ; CBaseEntity::SetLocalAvelocity
$LN1@SV_Angular:

; 379  : }

	pop	edi
	pop	esi
	pop	ebx
	mov	esp, ebp
	pop	ebp
	ret	0
?SV_AngularMove@@YAXPAVCBaseEntity@@MM@Z ENDP		; SV_AngularMove
_TEXT	ENDS
; Function compile flags: /Odtp /ZI
; File d:\!diffusion 2020\source code 2022\client-server\server\physics\physic.cpp
;	COMDAT ?AddEntityToBlockingList@@YAXPAVCBaseEntity@@@Z
_TEXT	SEGMENT
_pPushed$ = 8						; size = 4
?AddEntityToBlockingList@@YAXPAVCBaseEntity@@@Z PROC	; AddEntityToBlockingList, COMDAT

; 337  : {

	push	ebp
	mov	ebp, esp
	sub	esp, 64					; 00000040H
	push	ebx
	push	esi
	push	edi

; 338  : 	g_pPushedEntities->AddPushedEntityToBlockingList( pPushed );

	mov	eax, DWORD PTR _pPushed$[ebp]
	push	eax
	mov	ecx, DWORD PTR ?g_pPushedEntities@@3PAVCPhysicsPushedEntities@@A ; g_pPushedEntities
	call	?AddPushedEntityToBlockingList@CPhysicsPushedEntities@@QAEXPAVCBaseEntity@@@Z ; CPhysicsPushedEntities::AddPushedEntityToBlockingList

; 339  : }

	pop	edi
	pop	esi
	pop	ebx
	mov	esp, ebp
	pop	ebp
	ret	0
?AddEntityToBlockingList@@YAXPAVCBaseEntity@@@Z ENDP	; AddEntityToBlockingList
_TEXT	ENDS
; Function compile flags: /Odtp /ZI
; File d:\!diffusion 2020\source code 2022\client-server\server\physics\physic.cpp
;	COMDAT ?PrepWorldFrame@@YAXXZ
_TEXT	SEGMENT
?PrepWorldFrame@@YAXXZ PROC				; PrepWorldFrame, COMDAT

; 228  : {

	push	ebp
	mov	ebp, esp
	sub	esp, 64					; 00000040H
	push	ebx
	push	esi
	push	edi

; 229  : 	WorldPhysic->EndFrame();

	mov	eax, DWORD PTR ?WorldPhysic@@3PAVIPhysicLayer@@A ; WorldPhysic
	mov	edx, DWORD PTR [eax]
	mov	ecx, DWORD PTR ?WorldPhysic@@3PAVIPhysicLayer@@A ; WorldPhysic
	mov	eax, DWORD PTR [edx+12]
	call	eax

; 230  : }

	pop	edi
	pop	esi
	pop	ebx
	mov	esp, ebp
	pop	ebp
	ret	0
?PrepWorldFrame@@YAXXZ ENDP				; PrepWorldFrame
_TEXT	ENDS
; Function compile flags: /Odtp /ZI
; File d:\!diffusion 2020\source code 2022\client-server\server\physics\physic.cpp
;	COMDAT ?SV_GetString@@YAPBDH@Z
_TEXT	SEGMENT
_iString$ = 8						; size = 4
?SV_GetString@@YAPBDH@Z PROC				; SV_GetString, COMDAT

; 223  : {

	push	ebp
	mov	ebp, esp
	sub	esp, 64					; 00000040H
	push	ebx
	push	esi
	push	edi

; 224  : 	return g_GameStringPool.FindString( iString );

	mov	eax, DWORD PTR _iString$[ebp]
	push	eax
	mov	ecx, OFFSET ?g_GameStringPool@@3VCStringPool@@A ; g_GameStringPool
	call	?FindString@CStringPool@@QAEPBDH@Z	; CStringPool::FindString

; 225  : }

	pop	edi
	pop	esi
	pop	ebx
	mov	esp, ebp
	pop	ebp
	ret	0
?SV_GetString@@YAPBDH@Z ENDP				; SV_GetString
_TEXT	ENDS
; Function compile flags: /Odtp /ZI
; File d:\!diffusion 2020\source code 2022\client-server\server\physics\physic.cpp
;	COMDAT ?SV_MakeString@@YAHPBD@Z
_TEXT	SEGMENT
_szValue$ = 8						; size = 4
?SV_MakeString@@YAHPBD@Z PROC				; SV_MakeString, COMDAT

; 218  : {

	push	ebp
	mov	ebp, esp
	sub	esp, 64					; 00000040H
	push	ebx
	push	esi
	push	edi

; 219  : 	return g_GameStringPool.AllocString( szValue );

	mov	eax, DWORD PTR _szValue$[ebp]
	push	eax
	mov	ecx, OFFSET ?g_GameStringPool@@3VCStringPool@@A ; g_GameStringPool
	call	?AllocString@CStringPool@@QAEHPBD@Z	; CStringPool::AllocString

; 220  : }

	pop	edi
	pop	esi
	pop	ebx
	mov	esp, ebp
	pop	ebp
	ret	0
?SV_MakeString@@YAHPBD@Z ENDP				; SV_MakeString
_TEXT	ENDS
; Function compile flags: /Odtp /ZI
; File d:\!diffusion 2020\source code 2022\client-server\server\physics\physic.cpp
;	COMDAT ?SV_AllocString@@YAHPBD@Z
_TEXT	SEGMENT
_szValue$ = 8						; size = 4
?SV_AllocString@@YAHPBD@Z PROC				; SV_AllocString, COMDAT

; 213  : {

	push	ebp
	mov	ebp, esp
	sub	esp, 64					; 00000040H
	push	ebx
	push	esi
	push	edi

; 214  : 	return g_GameStringPool.AllocString( szValue );

	mov	eax, DWORD PTR _szValue$[ebp]
	push	eax
	mov	ecx, OFFSET ?g_GameStringPool@@3VCStringPool@@A ; g_GameStringPool
	call	?AllocString@CStringPool@@QAEHPBD@Z	; CStringPool::AllocString

; 215  : }

	pop	edi
	pop	esi
	pop	ebx
	mov	esp, ebp
	pop	ebp
	ret	0
?SV_AllocString@@YAHPBD@Z ENDP				; SV_AllocString
_TEXT	ENDS
; Function compile flags: /Odtp /ZI
; File d:\!diffusion 2020\source code 2022\client-server\server\physics\physic.cpp
;	COMDAT ?PM_PlayerTouch@@YAXPAUplayermove_s@@PAUedict_s@@@Z
_TEXT	SEGMENT
_tr$1 = -84						; size = 56
_pTouch$2 = -28						; size = 4
_pmtrace$3 = -24					; size = 4
_i$4 = -20						; size = 4
_oldAbsVelocity$ = -16					; size = 12
_pPlayer$ = -4						; size = 4
_pmove$ = 8						; size = 4
_client$ = 12						; size = 4
?PM_PlayerTouch@@YAXPAUplayermove_s@@PAUedict_s@@@Z PROC ; PM_PlayerTouch, COMDAT

; 167  : {

	push	ebp
	mov	ebp, esp
	sub	esp, 148				; 00000094H
	push	ebx
	push	esi
	push	edi

; 168  : 	CBasePlayer *pPlayer = (CBasePlayer *)CBaseEntity :: Instance( client );

	mov	eax, DWORD PTR _client$[ebp]
	push	eax
	call	?Instance@CBaseEntity@@SAPAV1@PAUedict_s@@@Z ; CBaseEntity::Instance
	add	esp, 4
	mov	DWORD PTR _pPlayer$[ebp], eax

; 169  : 
; 170  : 	if( !pPlayer || !pmove ) return; // ???

	cmp	DWORD PTR _pPlayer$[ebp], 0
	je	SHORT $LN6@PM_PlayerT
	cmp	DWORD PTR _pmove$[ebp], 0
	jne	SHORT $LN5@PM_PlayerT
$LN6@PM_PlayerT:
	jmp	$LN1@PM_PlayerT
$LN5@PM_PlayerT:

; 171  : 
; 172  : 	// touch triggers
; 173  : 	pPlayer->RelinkEntity( true );

	push	0
	push	0
	push	1
	mov	ecx, DWORD PTR _pPlayer$[ebp]
	call	?RelinkEntity@CBaseEntity@@QAEXHPBVVector@@H@Z ; CBaseEntity::RelinkEntity

; 174  : 
; 175  : 	// save original velocity
; 176  : 	Vector oldAbsVelocity = pPlayer->GetAbsVelocity();

	mov	ecx, DWORD PTR _pPlayer$[ebp]
	call	?GetAbsVelocity@CBaseEntity@@QBEABVVector@@XZ ; CBaseEntity::GetAbsVelocity
	push	eax
	lea	ecx, DWORD PTR _oldAbsVelocity$[ebp]
	call	??0Vector@@QAE@ABV0@@Z			; Vector::Vector

; 177  : 
; 178  : 	// touch other objects
; 179  : 	for( int i = 0; i < pmove->numtouch; i++ )

	mov	DWORD PTR _i$4[ebp], 0
	jmp	SHORT $LN4@PM_PlayerT
$LN2@PM_PlayerT:
	mov	eax, DWORD PTR _i$4[ebp]
	add	eax, 1
	mov	DWORD PTR _i$4[ebp], eax
$LN4@PM_PlayerT:
	mov	eax, DWORD PTR _pmove$[ebp]
	mov	ecx, DWORD PTR _i$4[ebp]
	cmp	ecx, DWORD PTR [eax+283788]
	jge	$LN3@PM_PlayerT

; 180  : 	{
; 181  : 		pmtrace_t *pmtrace = &pmove->touchindex[i];

	imul	eax, DWORD PTR _i$4[ebp], 68
	mov	ecx, DWORD PTR _pmove$[ebp]
	lea	edx, DWORD PTR [ecx+eax+283792]
	mov	DWORD PTR _pmtrace$3[ebp], edx

; 182  : 		CBaseEntity *pTouch = CBaseEntity :: Instance( INDEXENT( pmove->physents[pmtrace->ent].info ) );

	mov	eax, DWORD PTR _pmtrace$3[ebp]
	imul	ecx, DWORD PTR [eax+48], 224
	mov	edx, DWORD PTR _pmove$[ebp]
	mov	eax, DWORD PTR [edx+ecx+672]
	push	eax
	call	?INDEXENT@@YAPAUedict_s@@H@Z		; INDEXENT
	add	esp, 4
	push	eax
	call	?Instance@CBaseEntity@@SAPAV1@PAUedict_s@@@Z ; CBaseEntity::Instance
	add	esp, 4
	mov	DWORD PTR _pTouch$2[ebp], eax

; 183  : 
; 184  : 		// touch himself?
; 185  : 		if( !pTouch || pTouch == pPlayer )

	cmp	DWORD PTR _pTouch$2[ebp], 0
	je	SHORT $LN8@PM_PlayerT
	mov	eax, DWORD PTR _pTouch$2[ebp]
	cmp	eax, DWORD PTR _pPlayer$[ebp]
	jne	SHORT $LN7@PM_PlayerT
$LN8@PM_PlayerT:

; 186  : 			continue;

	jmp	SHORT $LN2@PM_PlayerT
$LN7@PM_PlayerT:

; 187  : 
; 188  : 		// set momentum velocity to allow player pushing boxes
; 189  : 		pPlayer->SetAbsVelocity( pmtrace->deltavelocity );

	mov	eax, DWORD PTR _pmtrace$3[ebp]
	add	eax, 52					; 00000034H
	push	eax
	mov	ecx, DWORD PTR _pPlayer$[ebp]
	call	?SetAbsVelocity@CBaseEntity@@QAEXABVVector@@@Z ; CBaseEntity::SetAbsVelocity

; 190  : 
; 191  : 		TraceResult tr;

	lea	ecx, DWORD PTR _tr$1[ebp]
	call	??0gametrace_s@@QAE@XZ

; 192  : 
; 193  : 		tr.fAllSolid = pmtrace->allsolid;

	mov	eax, DWORD PTR _pmtrace$3[ebp]
	mov	ecx, DWORD PTR [eax]
	mov	DWORD PTR _tr$1[ebp], ecx

; 194  : 		tr.fStartSolid = pmtrace->startsolid;

	mov	eax, DWORD PTR _pmtrace$3[ebp]
	mov	ecx, DWORD PTR [eax+4]
	mov	DWORD PTR _tr$1[ebp+4], ecx

; 195  : 		tr.fInOpen = pmtrace->inopen;

	mov	eax, DWORD PTR _pmtrace$3[ebp]
	mov	ecx, DWORD PTR [eax+8]
	mov	DWORD PTR _tr$1[ebp+8], ecx

; 196  : 		tr.fInWater = pmtrace->inwater;

	mov	eax, DWORD PTR _pmtrace$3[ebp]
	mov	ecx, DWORD PTR [eax+12]
	mov	DWORD PTR _tr$1[ebp+12], ecx

; 197  : 		tr.flFraction = pmtrace->fraction;

	mov	eax, DWORD PTR _pmtrace$3[ebp]
	movss	xmm0, DWORD PTR [eax+16]
	movss	DWORD PTR _tr$1[ebp+16], xmm0

; 198  : 		tr.vecEndPos = pmtrace->endpos;

	mov	eax, DWORD PTR _pmtrace$3[ebp]
	add	eax, 20					; 00000014H
	mov	ecx, DWORD PTR [eax]
	mov	DWORD PTR _tr$1[ebp+20], ecx
	mov	edx, DWORD PTR [eax+4]
	mov	DWORD PTR _tr$1[ebp+24], edx
	mov	eax, DWORD PTR [eax+8]
	mov	DWORD PTR _tr$1[ebp+28], eax

; 199  : 		tr.flPlaneDist = pmtrace->plane.dist;

	mov	eax, DWORD PTR _pmtrace$3[ebp]
	movss	xmm0, DWORD PTR [eax+44]
	movss	DWORD PTR _tr$1[ebp+32], xmm0

; 200  : 		tr.vecPlaneNormal = pmtrace->plane.normal;

	mov	eax, DWORD PTR _pmtrace$3[ebp]
	add	eax, 32					; 00000020H
	mov	ecx, DWORD PTR [eax]
	mov	DWORD PTR _tr$1[ebp+36], ecx
	mov	edx, DWORD PTR [eax+4]
	mov	DWORD PTR _tr$1[ebp+40], edx
	mov	eax, DWORD PTR [eax+8]
	mov	DWORD PTR _tr$1[ebp+44], eax

; 201  : 		tr.iHitgroup = pmtrace->hitgroup;

	mov	eax, DWORD PTR _pmtrace$3[ebp]
	mov	ecx, DWORD PTR [eax+64]
	mov	DWORD PTR _tr$1[ebp+52], ecx

; 202  : 		tr.pHit = pTouch->edict();

	mov	ecx, DWORD PTR _pTouch$2[ebp]
	call	?edict@CBaseEntity@@QAEPAUedict_s@@XZ	; CBaseEntity::edict
	mov	DWORD PTR _tr$1[ebp+48], eax

; 203  : 
; 204  : 		// IMPORTANT: don't change order!
; 205  : 		SV_Impact( pTouch, pPlayer, &tr );

	lea	eax, DWORD PTR _tr$1[ebp]
	push	eax
	mov	ecx, DWORD PTR _pPlayer$[ebp]
	push	ecx
	mov	edx, DWORD PTR _pTouch$2[ebp]
	push	edx
	call	?SV_Impact@@YAXPAVCBaseEntity@@0PAUgametrace_s@@@Z ; SV_Impact
	add	esp, 12					; 0000000cH

; 206  : 	}

	jmp	$LN2@PM_PlayerT
$LN3@PM_PlayerT:

; 207  : 
; 208  : 	// restore velocity
; 209  : 	pPlayer->SetAbsVelocity( oldAbsVelocity );

	lea	eax, DWORD PTR _oldAbsVelocity$[ebp]
	push	eax
	mov	ecx, DWORD PTR _pPlayer$[ebp]
	call	?SetAbsVelocity@CBaseEntity@@QAEXABVVector@@@Z ; CBaseEntity::SetAbsVelocity
$LN1@PM_PlayerT:

; 210  : }

	pop	edi
	pop	esi
	pop	ebx
	mov	esp, ebp
	pop	ebp
	ret	0
?PM_PlayerTouch@@YAXPAUplayermove_s@@PAUedict_s@@@Z ENDP ; PM_PlayerTouch
_TEXT	ENDS
; Function compile flags: /Odtp /ZI
; File d:\!diffusion 2020\source code 2022\client-server\server\physics\physic.cpp
;	COMDAT ?SV_RestoreDecal@@YAHPAUdecallist_s@@PAUedict_s@@H@Z
_TEXT	SEGMENT
_modelIndex$ = -16					; size = 4
_cacheID$ = -12						; size = 4
_entityIndex$ = -8					; size = 4
_flags$ = -4						; size = 4
_entry$ = 8						; size = 4
_pEdict$ = 12						; size = 4
_adjacent$ = 16						; size = 4
?SV_RestoreDecal@@YAHPAUdecallist_s@@PAUedict_s@@H@Z PROC ; SV_RestoreDecal, COMDAT

; 148  : {

	push	ebp
	mov	ebp, esp
	sub	esp, 80					; 00000050H
	push	ebx
	push	esi
	push	edi

; 149  : 	int	flags = entry->flags;

	mov	eax, DWORD PTR _entry$[ebp]
	movzx	ecx, BYTE PTR [eax+79]
	mov	DWORD PTR _flags$[ebp], ecx

; 150  : 	int	entityIndex = ENTINDEX( pEdict );

	mov	eax, DWORD PTR _pEdict$[ebp]
	push	eax
	call	?ENTINDEX@@YAHPAUedict_s@@@Z		; ENTINDEX
	add	esp, 4
	mov	DWORD PTR _entityIndex$[ebp], eax

; 151  : 	int	cacheID = 0, modelIndex = 0;

	mov	DWORD PTR _cacheID$[ebp], 0
	mov	DWORD PTR _modelIndex$[ebp], 0

; 152  : 
; 153  : 	if( flags & FDECAL_STUDIO )

	mov	eax, DWORD PTR _flags$[ebp]
	and	eax, 64					; 00000040H
	je	SHORT $LN2@SV_Restore

; 154  : 	{
; 155  : 		if( FBitSet( pEdict->v.iuser1, CF_STATIC_ENTITY ))

	mov	eax, DWORD PTR _pEdict$[ebp]
	mov	ecx, DWORD PTR [eax+708]
	and	ecx, 64					; 00000040H
	je	SHORT $LN3@SV_Restore

; 156  : 			cacheID = pEdict->v.iuser3;

	mov	eax, DWORD PTR _pEdict$[ebp]
	mov	ecx, DWORD PTR [eax+716]
	mov	DWORD PTR _cacheID$[ebp], ecx
$LN3@SV_Restore:

; 157  : 		UTIL_RestoreStudioDecal( entry->position, entry->impactPlaneNormal, entityIndex,

	mov	eax, DWORD PTR _cacheID$[ebp]
	push	eax
	mov	ecx, DWORD PTR _entry$[ebp]
	add	ecx, 96					; 00000060H
	push	ecx
	mov	edx, DWORD PTR _flags$[ebp]
	push	edx
	mov	eax, DWORD PTR _entry$[ebp]
	add	eax, 12					; 0000000cH
	push	eax
	mov	ecx, DWORD PTR _pEdict$[ebp]
	mov	edx, DWORD PTR [ecx+308]
	push	edx
	mov	eax, DWORD PTR _entityIndex$[ebp]
	push	eax
	mov	ecx, DWORD PTR _entry$[ebp]
	add	ecx, 84					; 00000054H
	push	ecx
	mov	edx, DWORD PTR _entry$[ebp]
	push	edx
	call	?UTIL_RestoreStudioDecal@@YAXABVVector@@0HHPBDHPAUmodelstate_s@@H@Z ; UTIL_RestoreStudioDecal
	add	esp, 32					; 00000020H

; 158  : 		pEdict->v.modelindex, entry->name, flags, &entry->studio_state, cacheID );
; 159  : 		return TRUE;

	mov	eax, 1
	jmp	SHORT $LN1@SV_Restore
$LN2@SV_Restore:

; 160  : 	}
; 161  : 
; 162  : 	return FALSE; // let the engine restore bsp decals

	xor	eax, eax
$LN1@SV_Restore:

; 163  : }

	pop	edi
	pop	esi
	pop	ebx
	mov	esp, ebp
	pop	ebp
	ret	0
?SV_RestoreDecal@@YAHPAUdecallist_s@@PAUedict_s@@H@Z ENDP ; SV_RestoreDecal
_TEXT	ENDS
; Function compile flags: /Odtp /ZI
; File d:\!diffusion 2020\source code 2022\client-server\server\physics\physic.cpp
;	COMDAT ?SV_ClipPMoveToEntity@@YAXPAUphysent_s@@PBMPAM21PAUpmtrace_s@@@Z
_TEXT	SEGMENT
$T1 = -184						; size = 12
$T2 = -172						; size = 12
$T3 = -160						; size = 12
$T4 = -148						; size = 12
$T5 = -136						; size = 12
_trace$ = -60						; size = 56
_pTouch$ = -4						; size = 4
_pe$ = 8						; size = 4
_start$ = 12						; size = 4
_mins$ = 16						; size = 4
_maxs$ = 20						; size = 4
_end$ = 24						; size = 4
_tr$ = 28						; size = 4
?SV_ClipPMoveToEntity@@YAXPAUphysent_s@@PBMPAM21PAUpmtrace_s@@@Z PROC ; SV_ClipPMoveToEntity, COMDAT

; 118  : {

	push	ebp
	mov	ebp, esp
	sub	esp, 184				; 000000b8H
	push	ebx
	push	esi
	push	edi

; 119  : 	// convert physent_t to base entity
; 120  : 	CBaseEntity *pTouch = CBaseEntity::Instance( INDEXENT( pe->info ));

	mov	eax, DWORD PTR _pe$[ebp]
	mov	ecx, DWORD PTR [eax+80]
	push	ecx
	call	?INDEXENT@@YAPAUedict_s@@H@Z		; INDEXENT
	add	esp, 4
	push	eax
	call	?Instance@CBaseEntity@@SAPAV1@PAUedict_s@@@Z ; CBaseEntity::Instance
	add	esp, 4
	mov	DWORD PTR _pTouch$[ebp], eax

; 121  : 	trace_t trace;

	lea	ecx, DWORD PTR _trace$[ebp]
	call	??0trace_s@@QAE@XZ

; 122  : 
; 123  : 	if( !pTouch )

	cmp	DWORD PTR _pTouch$[ebp], 0
	jne	SHORT $LN2@SV_ClipPMo

; 124  : 	{
; 125  : 		// removed entity?
; 126  : 		tr->allsolid = false;

	mov	eax, DWORD PTR _tr$[ebp]
	mov	DWORD PTR [eax], 0

; 127  : 		return;

	jmp	$LN1@SV_ClipPMo
$LN2@SV_ClipPMo:

; 128  : 	}
; 129  : 
; 130  : 	// make trace default
; 131  : 	memset( &trace, 0, sizeof( trace ));

	push	56					; 00000038H
	push	0
	lea	eax, DWORD PTR _trace$[ebp]
	push	eax
	call	_memset
	add	esp, 12					; 0000000cH

; 132  : 	trace.allsolid = true;

	mov	DWORD PTR _trace$[ebp], 1

; 133  : 	trace.fraction = 1.0f;

	movss	xmm0, DWORD PTR __real@3f800000
	movss	DWORD PTR _trace$[ebp+16], xmm0

; 134  : 	trace.endpos = end;

	mov	eax, DWORD PTR _end$[ebp]
	push	eax
	lea	ecx, DWORD PTR $T5[ebp]
	call	??0Vector@@QAE@PBM@Z			; Vector::Vector
	mov	ecx, DWORD PTR $T5[ebp]
	mov	DWORD PTR _trace$[ebp+20], ecx
	mov	edx, DWORD PTR $T5[ebp+4]
	mov	DWORD PTR _trace$[ebp+24], edx
	mov	eax, DWORD PTR $T5[ebp+8]
	mov	DWORD PTR _trace$[ebp+28], eax

; 135  : 
; 136  : 	WorldPhysic->SweepTest( pTouch, start, mins, maxs, end, &trace );

	mov	eax, DWORD PTR _end$[ebp]
	push	eax
	lea	ecx, DWORD PTR $T4[ebp]
	call	??0Vector@@QAE@PBM@Z			; Vector::Vector
	mov	ecx, DWORD PTR _maxs$[ebp]
	push	ecx
	lea	ecx, DWORD PTR $T3[ebp]
	call	??0Vector@@QAE@QAM@Z			; Vector::Vector
	mov	edx, DWORD PTR _mins$[ebp]
	push	edx
	lea	ecx, DWORD PTR $T2[ebp]
	call	??0Vector@@QAE@QAM@Z			; Vector::Vector
	mov	eax, DWORD PTR _start$[ebp]
	push	eax
	lea	ecx, DWORD PTR $T1[ebp]
	call	??0Vector@@QAE@PBM@Z			; Vector::Vector
	lea	ecx, DWORD PTR _trace$[ebp]
	push	ecx
	lea	edx, DWORD PTR $T4[ebp]
	push	edx
	lea	eax, DWORD PTR $T3[ebp]
	push	eax
	lea	ecx, DWORD PTR $T2[ebp]
	push	ecx
	lea	edx, DWORD PTR $T1[ebp]
	push	edx
	mov	eax, DWORD PTR _pTouch$[ebp]
	push	eax
	mov	ecx, DWORD PTR ?WorldPhysic@@3PAVIPhysicLayer@@A ; WorldPhysic
	mov	edx, DWORD PTR [ecx]
	mov	ecx, DWORD PTR ?WorldPhysic@@3PAVIPhysicLayer@@A ; WorldPhysic
	mov	eax, DWORD PTR [edx+152]
	call	eax

; 137  : 
; 138  : 	// convert trace_t into pmtrace_t
; 139  : 	memcpy( tr, &trace, 48 );

	push	48					; 00000030H
	lea	eax, DWORD PTR _trace$[ebp]
	push	eax
	mov	ecx, DWORD PTR _tr$[ebp]
	push	ecx
	call	_memcpy
	add	esp, 12					; 0000000cH

; 140  : 	tr->hitgroup = trace.hitgroup;

	mov	eax, DWORD PTR _tr$[ebp]
	mov	ecx, DWORD PTR _trace$[ebp+52]
	mov	DWORD PTR [eax+64], ecx

; 141  : 
; 142  : 	if( trace.ent != NULL )

	cmp	DWORD PTR _trace$[ebp+48], 0
	je	SHORT $LN3@SV_ClipPMo

; 143  : 		tr->ent = pe->info;

	mov	eax, DWORD PTR _tr$[ebp]
	mov	ecx, DWORD PTR _pe$[ebp]
	mov	edx, DWORD PTR [ecx+80]
	mov	DWORD PTR [eax+48], edx
	jmp	SHORT $LN4@SV_ClipPMo
$LN3@SV_ClipPMo:

; 144  : 	else tr->ent = -1;

	mov	eax, DWORD PTR _tr$[ebp]
	mov	DWORD PTR [eax+48], -1
$LN4@SV_ClipPMo:
$LN1@SV_ClipPMo:

; 145  : }

	pop	edi
	pop	esi
	pop	ebx
	mov	esp, ebp
	pop	ebp
	ret	0
?SV_ClipPMoveToEntity@@YAXPAUphysent_s@@PBMPAM21PAUpmtrace_s@@@Z ENDP ; SV_ClipPMoveToEntity
_TEXT	ENDS
; Function compile flags: /Odtp /ZI
; File d:\!diffusion 2020\source code 2022\client-server\server\physics\physic.cpp
;	COMDAT ?SV_ClipMoveToEntity@@YAXPAUedict_s@@PBMPAM21PAUtrace_s@@@Z
_TEXT	SEGMENT
$T1 = -116						; size = 12
$T2 = -104						; size = 12
$T3 = -92						; size = 12
$T4 = -80						; size = 12
_pTouch$ = -4						; size = 4
_ent$ = 8						; size = 4
_start$ = 12						; size = 4
_mins$ = 16						; size = 4
_maxs$ = 20						; size = 4
_end$ = 24						; size = 4
_trace$ = 28						; size = 4
?SV_ClipMoveToEntity@@YAXPAUedict_s@@PBMPAM21PAUtrace_s@@@Z PROC ; SV_ClipMoveToEntity, COMDAT

; 103  : {

	push	ebp
	mov	ebp, esp
	sub	esp, 116				; 00000074H
	push	ebx
	push	esi
	push	edi

; 104  : 	// convert edict_t to base entity
; 105  : 	CBaseEntity *pTouch = CBaseEntity::Instance( ent );

	mov	eax, DWORD PTR _ent$[ebp]
	push	eax
	call	?Instance@CBaseEntity@@SAPAV1@PAUedict_s@@@Z ; CBaseEntity::Instance
	add	esp, 4
	mov	DWORD PTR _pTouch$[ebp], eax

; 106  : 
; 107  : 	if( !pTouch )

	cmp	DWORD PTR _pTouch$[ebp], 0
	jne	SHORT $LN2@SV_ClipMov

; 108  : 	{
; 109  : 		// removed entity?
; 110  : 		trace->allsolid = false;

	mov	eax, DWORD PTR _trace$[ebp]
	mov	DWORD PTR [eax], 0

; 111  : 		return;

	jmp	SHORT $LN1@SV_ClipMov
$LN2@SV_ClipMov:

; 112  : 	}
; 113  : 
; 114  : 	WorldPhysic->SweepTest( pTouch, start, mins, maxs, end, trace );

	mov	eax, DWORD PTR _end$[ebp]
	push	eax
	lea	ecx, DWORD PTR $T4[ebp]
	call	??0Vector@@QAE@PBM@Z			; Vector::Vector
	mov	ecx, DWORD PTR _maxs$[ebp]
	push	ecx
	lea	ecx, DWORD PTR $T3[ebp]
	call	??0Vector@@QAE@QAM@Z			; Vector::Vector
	mov	edx, DWORD PTR _mins$[ebp]
	push	edx
	lea	ecx, DWORD PTR $T2[ebp]
	call	??0Vector@@QAE@QAM@Z			; Vector::Vector
	mov	eax, DWORD PTR _start$[ebp]
	push	eax
	lea	ecx, DWORD PTR $T1[ebp]
	call	??0Vector@@QAE@PBM@Z			; Vector::Vector
	mov	ecx, DWORD PTR _trace$[ebp]
	push	ecx
	lea	edx, DWORD PTR $T4[ebp]
	push	edx
	lea	eax, DWORD PTR $T3[ebp]
	push	eax
	lea	ecx, DWORD PTR $T2[ebp]
	push	ecx
	lea	edx, DWORD PTR $T1[ebp]
	push	edx
	mov	eax, DWORD PTR _pTouch$[ebp]
	push	eax
	mov	ecx, DWORD PTR ?WorldPhysic@@3PAVIPhysicLayer@@A ; WorldPhysic
	mov	edx, DWORD PTR [ecx]
	mov	ecx, DWORD PTR ?WorldPhysic@@3PAVIPhysicLayer@@A ; WorldPhysic
	mov	eax, DWORD PTR [edx+152]
	call	eax
$LN1@SV_ClipMov:

; 115  : }

	pop	edi
	pop	esi
	pop	ebx
	mov	esp, ebp
	pop	ebp
	ret	0
?SV_ClipMoveToEntity@@YAXPAUedict_s@@PBMPAM21PAUtrace_s@@@Z ENDP ; SV_ClipMoveToEntity
_TEXT	ENDS
; Function compile flags: /Odtp /ZI
; File d:\!diffusion 2020\source code 2022\client-server\server\physics\physic.cpp
;	COMDAT ?SV_AllowPushRotate@@YAHPAVCBaseEntity@@@Z
_TEXT	SEGMENT
tv74 = -72						; size = 4
_mod$ = -4						; size = 4
_pEntity$ = 8						; size = 4
?SV_AllowPushRotate@@YAHPAVCBaseEntity@@@Z PROC		; SV_AllowPushRotate, COMDAT

; 90   : {

	push	ebp
	mov	ebp, esp
	sub	esp, 72					; 00000048H
	push	ebx
	push	esi
	push	edi

; 91   : 	model_t	*mod;
; 92   : 
; 93   : 	mod = (model_t *)MODEL_HANDLE( pEntity->pev->modelindex );

	mov	eax, DWORD PTR _pEntity$[ebp]
	mov	ecx, DWORD PTR [eax+4]
	mov	edx, DWORD PTR [ecx+180]
	push	edx
	call	DWORD PTR ?g_physfuncs@@3Userver_physics_api_s@@A+12
	add	esp, 4
	mov	DWORD PTR _mod$[ebp], eax

; 94   : 	if( !mod || mod->type != mod_brush )

	cmp	DWORD PTR _mod$[ebp], 0
	je	SHORT $LN3@SV_AllowPu
	mov	eax, DWORD PTR _mod$[ebp]
	cmp	DWORD PTR [eax+68], 0
	je	SHORT $LN2@SV_AllowPu
$LN3@SV_AllowPu:

; 95   : 		return TRUE;

	mov	eax, 1
	jmp	SHORT $LN1@SV_AllowPu
$LN2@SV_AllowPu:

; 96   : 
; 97   : 	// NOTE: flag 2 it's a internal engine flag (see model.c for details)
; 98   : 	// we can recalc real model origin here but this check is faster :)
; 99   : 	return (mod->flags & 2) ? TRUE : FALSE;

	mov	eax, DWORD PTR _mod$[ebp]
	mov	ecx, DWORD PTR [eax+80]
	and	ecx, 2
	je	SHORT $LN5@SV_AllowPu
	mov	DWORD PTR tv74[ebp], 1
	jmp	SHORT $LN6@SV_AllowPu
$LN5@SV_AllowPu:
	mov	DWORD PTR tv74[ebp], 0
$LN6@SV_AllowPu:
	mov	eax, DWORD PTR tv74[ebp]
$LN1@SV_AllowPu:

; 100  : }

	pop	edi
	pop	esi
	pop	ebx
	mov	esp, ebp
	pop	ebp
	ret	0
?SV_AllowPushRotate@@YAHPAVCBaseEntity@@@Z ENDP		; SV_AllowPushRotate
_TEXT	ENDS
; Function compile flags: /Odtp /ZI
; File d:\!diffusion 2020\source code 2022\client-server\server\physics\physic.cpp
;	COMDAT ?DrawOrthoTriangles@@YAXXZ
_TEXT	SEGMENT
?DrawOrthoTriangles@@YAXXZ PROC				; DrawOrthoTriangles, COMDAT

; 77   : {

	push	ebp
	mov	ebp, esp
	sub	esp, 64					; 00000040H
	push	ebx
	push	esi
	push	edi

; 78   : 	if( p_speeds != NULL && p_speeds->value > 0.0f )

	cmp	DWORD PTR ?p_speeds@@3PAUcvar_s@@A, 0	; p_speeds
	je	SHORT $LN2@DrawOrthoT
	mov	eax, DWORD PTR ?p_speeds@@3PAUcvar_s@@A	; p_speeds
	movss	xmm0, DWORD PTR [eax+12]
	comiss	xmm0, DWORD PTR __real@00000000
	jbe	SHORT $LN2@DrawOrthoT

; 79   : 		WorldPhysic->DrawPSpeeds();

	mov	eax, DWORD PTR ?WorldPhysic@@3PAVIPhysicLayer@@A ; WorldPhysic
	mov	edx, DWORD PTR [eax]
	mov	ecx, DWORD PTR ?WorldPhysic@@3PAVIPhysicLayer@@A ; WorldPhysic
	mov	eax, DWORD PTR [edx+128]
	call	eax
$LN2@DrawOrthoT:

; 80   : }

	pop	edi
	pop	esi
	pop	ebx
	mov	esp, ebp
	pop	ebp
	ret	0
?DrawOrthoTriangles@@YAXXZ ENDP				; DrawOrthoTriangles
_TEXT	ENDS
; Function compile flags: /Odtp /ZI
; File d:\!diffusion 2020\source code 2022\client-server\server\physics\physic.cpp
;	COMDAT ?DrawDebugTriangles@@YAXXZ
_TEXT	SEGMENT
_i$1 = -8						; size = 4
_pEdict$2 = -4						; size = 4
?DrawDebugTriangles@@YAXXZ PROC				; DrawDebugTriangles, COMDAT

; 53   : {

	push	ebp
	mov	ebp, esp
	sub	esp, 72					; 00000048H
	push	ebx
	push	esi
	push	edi

; 54   : 	if( g_debugdraw != NULL && g_debugdraw->value > 0.0f )

	cmp	DWORD PTR ?g_debugdraw@@3PAUcvar_s@@A, 0 ; g_debugdraw
	je	SHORT $LN5@DrawDebugT
	mov	eax, DWORD PTR ?g_debugdraw@@3PAUcvar_s@@A ; g_debugdraw
	movss	xmm0, DWORD PTR [eax+12]
	comiss	xmm0, DWORD PTR __real@00000000
	jbe	SHORT $LN5@DrawDebugT

; 55   : 		WorldPhysic->DebugDraw();

	mov	eax, DWORD PTR ?WorldPhysic@@3PAVIPhysicLayer@@A ; WorldPhysic
	mov	edx, DWORD PTR [eax]
	mov	ecx, DWORD PTR ?WorldPhysic@@3PAVIPhysicLayer@@A ; WorldPhysic
	mov	eax, DWORD PTR [edx+124]
	call	eax
$LN5@DrawDebugT:

; 56   : 
; 57   : 	if( g_physdebug != NULL && g_physdebug->value > 0.0f )

	cmp	DWORD PTR ?g_physdebug@@3PAUcvar_s@@A, 0 ; g_physdebug
	je	$LN3@DrawDebugT
	mov	eax, DWORD PTR ?g_physdebug@@3PAUcvar_s@@A ; g_physdebug
	movss	xmm0, DWORD PTR [eax+12]
	comiss	xmm0, DWORD PTR __real@00000000
	jbe	$LN3@DrawDebugT

; 58   : 	{
; 59   : 		edict_t *pEdict = INDEXENT( 1 );

	push	1
	call	?INDEXENT@@YAPAUedict_s@@H@Z		; INDEXENT
	add	esp, 4
	mov	DWORD PTR _pEdict$2[ebp], eax

; 60   : 		for ( int i = 1; i < gpGlobals->maxEntities; i++, pEdict++ )

	mov	DWORD PTR _i$1[ebp], 1
	jmp	SHORT $LN4@DrawDebugT
$LN2@DrawDebugT:
	mov	eax, DWORD PTR _i$1[ebp]
	add	eax, 1
	mov	DWORD PTR _i$1[ebp], eax
	mov	ecx, DWORD PTR _pEdict$2[ebp]
	add	ecx, 804				; 00000324H
	mov	DWORD PTR _pEdict$2[ebp], ecx
$LN4@DrawDebugT:
	mov	eax, DWORD PTR ?gpGlobals@@3PAUglobalvars_t@@A ; gpGlobals
	mov	ecx, DWORD PTR _i$1[ebp]
	cmp	ecx, DWORD PTR [eax+148]
	jge	$LN3@DrawDebugT

; 61   : 		{
; 62   : 			if ( pEdict->free )	// Not in use

	mov	eax, DWORD PTR _pEdict$2[ebp]
	cmp	DWORD PTR [eax], 0
	je	SHORT $LN7@DrawDebugT

; 63   : 				continue;

	jmp	SHORT $LN2@DrawDebugT
$LN7@DrawDebugT:

; 64   : 
; 65   : 			if( FClassnameIs( &pEdict->v, "func_door_rotating" ))

	push	OFFSET ??_C@_0BD@CAJBLNMK@func_door_rotating?$AA@
	mov	eax, DWORD PTR _pEdict$2[ebp]
	add	eax, 128				; 00000080H
	push	eax
	call	?FClassnameIs@@YAHPAUentvars_s@@PBD@Z	; FClassnameIs
	add	esp, 8
	test	eax, eax
	je	SHORT $LN8@DrawDebugT

; 66   : 			{
; 67   : 				Tri->Color4f( 1.0f, 0.5f, 0.0f, 1.0f );

	push	ecx
	movss	xmm0, DWORD PTR __real@3f800000
	movss	DWORD PTR [esp], xmm0
	push	ecx
	xorps	xmm0, xmm0
	movss	DWORD PTR [esp], xmm0
	push	ecx
	movss	xmm0, DWORD PTR __real@3f000000
	movss	DWORD PTR [esp], xmm0
	push	ecx
	movss	xmm0, DWORD PTR __real@3f800000
	movss	DWORD PTR [esp], xmm0
	mov	eax, DWORD PTR ?g_physfuncs@@3Userver_physics_api_s@@A+28
	mov	ecx, DWORD PTR [eax+16]
	call	ecx
	add	esp, 16					; 00000010H

; 68   : 				Tri->Begin( TRI_POINTS );

	push	7
	mov	eax, DWORD PTR ?g_physfuncs@@3Userver_physics_api_s@@A+28
	mov	ecx, DWORD PTR [eax+8]
	call	ecx
	add	esp, 4

; 69   : 					Tri->Vertex3fv( pEdict->v.origin );

	mov	ecx, DWORD PTR _pEdict$2[ebp]
	add	ecx, 136				; 00000088H
	call	??BVector@@QAEPAMXZ			; Vector::operator float *
	push	eax
	mov	eax, DWORD PTR ?g_physfuncs@@3Userver_physics_api_s@@A+28
	mov	ecx, DWORD PTR [eax+28]
	call	ecx
	add	esp, 4

; 70   : 				Tri->End();

	mov	eax, DWORD PTR ?g_physfuncs@@3Userver_physics_api_s@@A+28
	mov	ecx, DWORD PTR [eax+12]
	call	ecx
$LN8@DrawDebugT:

; 71   : 			}
; 72   : 		}

	jmp	$LN2@DrawDebugT
$LN3@DrawDebugT:

; 73   : 	}
; 74   : }

	pop	edi
	pop	esi
	pop	ebx
	mov	esp, ebp
	pop	ebp
	ret	0
?DrawDebugTriangles@@YAXXZ ENDP				; DrawDebugTriangles
_TEXT	ENDS
; Function compile flags: /Odtp /ZI
; File d:\!diffusion 2020\source code 2022\client-server\server\physics\physic.cpp
;	COMDAT ?EngineSetFeatures@@YAIXZ
_TEXT	SEGMENT
_flags$ = -4						; size = 4
?EngineSetFeatures@@YAIXZ PROC				; EngineSetFeatures, COMDAT

; 43   : {

	push	ebp
	mov	ebp, esp
	sub	esp, 68					; 00000044H
	push	ebx
	push	esi
	push	edi

; 44   : 	unsigned int flags = (ENGINE_WRITE_LARGE_COORD|ENGINE_TRANSFORM_TRACE_AABB|ENGINE_COMPUTE_STUDIO_LERP);

	mov	DWORD PTR _flags$[ebp], 137		; 00000089H

; 45   : 
; 46   : 	flags |= ENGINE_LARGE_LIGHTMAPS|ENGINE_LOAD_DELUXEDATA;

	mov	eax, DWORD PTR _flags$[ebp]
	or	eax, 20					; 00000014H
	mov	DWORD PTR _flags$[ebp], eax

; 47   : 	flags |= ENGINE_COMPENSATE_QUAKE_BUG;

	mov	eax, DWORD PTR _flags$[ebp]
	or	eax, 32					; 00000020H
	mov	DWORD PTR _flags$[ebp], eax

; 48   : 
; 49   : 	return flags;

	mov	eax, DWORD PTR _flags$[ebp]

; 50   : }

	pop	edi
	pop	esi
	pop	ebx
	mov	esp, ebp
	pop	ebp
	ret	0
?EngineSetFeatures@@YAIXZ ENDP				; EngineSetFeatures
_TEXT	ENDS
; Function compile flags: /Odtp /ZI
;	COMDAT ??__Fs_PushedEntities@@YAXXZ
text$yd	SEGMENT
??__Fs_PushedEntities@@YAXXZ PROC			; `dynamic atexit destructor for 's_PushedEntities'', COMDAT
	push	ebp
	mov	ebp, esp
	sub	esp, 64					; 00000040H
	push	ebx
	push	esi
	push	edi
	mov	ecx, OFFSET ?s_PushedEntities@@3VCPhysicsPushedEntities@@A ; s_PushedEntities
	call	??1CPhysicsPushedEntities@@QAE@XZ
	pop	edi
	pop	esi
	pop	ebx
	mov	esp, ebp
	pop	ebp
	ret	0
??__Fs_PushedEntities@@YAXXZ ENDP			; `dynamic atexit destructor for 's_PushedEntities''
text$yd	ENDS
; Function compile flags: /Odtp /ZI
; File d:\!diffusion 2020\source code 2022\client-server\server\physics\physic.cpp
;	COMDAT ??__Es_PushedEntities@@YAXXZ
text$di	SEGMENT
??__Es_PushedEntities@@YAXXZ PROC			; `dynamic initializer for 's_PushedEntities'', COMDAT

; 39   : CPhysicsPushedEntities	s_PushedEntities;

	push	ebp
	mov	ebp, esp
	sub	esp, 64					; 00000040H
	push	ebx
	push	esi
	push	edi
	mov	ecx, OFFSET ?s_PushedEntities@@3VCPhysicsPushedEntities@@A ; s_PushedEntities
	call	??0CPhysicsPushedEntities@@QAE@XZ	; CPhysicsPushedEntities::CPhysicsPushedEntities
	push	OFFSET ??__Fs_PushedEntities@@YAXXZ	; `dynamic atexit destructor for 's_PushedEntities''
	call	_atexit
	add	esp, 4
	pop	edi
	pop	esi
	pop	ebx
	mov	esp, ebp
	pop	ebp
	ret	0
??__Es_PushedEntities@@YAXXZ ENDP			; `dynamic initializer for 's_PushedEntities''
text$di	ENDS
; Function compile flags: /Odtp /ZI
;	COMDAT ??1CPhysicsPushedEntities@@QAE@XZ
_TEXT	SEGMENT
_this$ = -4						; size = 4
??1CPhysicsPushedEntities@@QAE@XZ PROC			; CPhysicsPushedEntities::~CPhysicsPushedEntities, COMDAT
; _this$ = ecx
	push	ebp
	mov	ebp, esp
	sub	esp, 68					; 00000044H
	push	ebx
	push	esi
	push	edi
	mov	DWORD PTR _this$[ebp], ecx
	mov	ecx, DWORD PTR _this$[ebp]
	add	ecx, 24					; 00000018H
	call	??1?$CUtlArray@UPhysicsPushedInfo_t@CPhysicsPushedEntities@@V?$CUtlMemory@UPhysicsPushedInfo_t@CPhysicsPushedEntities@@H@@@@QAE@XZ ; CUtlArray<CPhysicsPushedEntities::PhysicsPushedInfo_t,CUtlMemory<CPhysicsPushedEntities::PhysicsPushedInfo_t,int> >::~CUtlArray<CPhysicsPushedEntities::PhysicsPushedInfo_t,CUtlMemory<CPhysicsPushedEntities::PhysicsPushedInfo_t,int> >
	mov	ecx, DWORD PTR _this$[ebp]
	add	ecx, 4
	call	??1?$CUtlArray@UPhysicsPusherInfo_t@CPhysicsPushedEntities@@V?$CUtlMemory@UPhysicsPusherInfo_t@CPhysicsPushedEntities@@H@@@@QAE@XZ ; CUtlArray<CPhysicsPushedEntities::PhysicsPusherInfo_t,CUtlMemory<CPhysicsPushedEntities::PhysicsPusherInfo_t,int> >::~CUtlArray<CPhysicsPushedEntities::PhysicsPusherInfo_t,CUtlMemory<CPhysicsPushedEntities::PhysicsPusherInfo_t,int> >
	pop	edi
	pop	esi
	pop	ebx
	mov	esp, ebp
	pop	ebp
	ret	0
??1CPhysicsPushedEntities@@QAE@XZ ENDP			; CPhysicsPushedEntities::~CPhysicsPushedEntities
_TEXT	ENDS
; Function compile flags: /Odtp /ZI
; File d:\!diffusion 2020\source code 2022\client-server\game_shared\utlarray.h
;	COMDAT ?ResetDbgInfo@?$CUtlArray@UPhysicsPushedInfo_t@CPhysicsPushedEntities@@V?$CUtlMemory@UPhysicsPushedInfo_t@CPhysicsPushedEntities@@H@@@@IAEXXZ
_TEXT	SEGMENT
_this$ = -4						; size = 4
?ResetDbgInfo@?$CUtlArray@UPhysicsPushedInfo_t@CPhysicsPushedEntities@@V?$CUtlMemory@UPhysicsPushedInfo_t@CPhysicsPushedEntities@@H@@@@IAEXXZ PROC ; CUtlArray<CPhysicsPushedEntities::PhysicsPushedInfo_t,CUtlMemory<CPhysicsPushedEntities::PhysicsPushedInfo_t,int> >::ResetDbgInfo, COMDAT
; _this$ = ecx

; 160  : 	{

	push	ebp
	mov	ebp, esp
	sub	esp, 68					; 00000044H
	push	ebx
	push	esi
	push	edi
	mov	DWORD PTR _this$[ebp], ecx

; 161  : 		m_pElements = Base();

	mov	ecx, DWORD PTR _this$[ebp]
	call	?Base@?$CUtlArray@UPhysicsPushedInfo_t@CPhysicsPushedEntities@@V?$CUtlMemory@UPhysicsPushedInfo_t@CPhysicsPushedEntities@@H@@@@QAEPAUPhysicsPushedInfo_t@CPhysicsPushedEntities@@XZ ; CUtlArray<CPhysicsPushedEntities::PhysicsPushedInfo_t,CUtlMemory<CPhysicsPushedEntities::PhysicsPushedInfo_t,int> >::Base
	mov	ecx, DWORD PTR _this$[ebp]
	mov	DWORD PTR [ecx+16], eax

; 162  : 	}

	pop	edi
	pop	esi
	pop	ebx
	mov	esp, ebp
	pop	ebp
	ret	0
?ResetDbgInfo@?$CUtlArray@UPhysicsPushedInfo_t@CPhysicsPushedEntities@@V?$CUtlMemory@UPhysicsPushedInfo_t@CPhysicsPushedEntities@@H@@@@IAEXXZ ENDP ; CUtlArray<CPhysicsPushedEntities::PhysicsPushedInfo_t,CUtlMemory<CPhysicsPushedEntities::PhysicsPushedInfo_t,int> >::ResetDbgInfo
_TEXT	ENDS
; Function compile flags: /Odtp /ZI
; File d:\!diffusion 2020\source code 2022\client-server\game_shared\utlmemory.h
;	COMDAT ?ValidateGrowSize@?$CUtlMemory@UPhysicsPushedInfo_t@CPhysicsPushedEntities@@H@@IAEXXZ
_TEXT	SEGMENT
_this$ = -4						; size = 4
?ValidateGrowSize@?$CUtlMemory@UPhysicsPushedInfo_t@CPhysicsPushedEntities@@H@@IAEXXZ PROC ; CUtlMemory<CPhysicsPushedEntities::PhysicsPushedInfo_t,int>::ValidateGrowSize, COMDAT
; _this$ = ecx

; 148  : 	{

	push	ebp
	mov	ebp, esp
	sub	esp, 68					; 00000044H
	push	ebx
	push	esi
	push	edi
	mov	DWORD PTR _this$[ebp], ecx

; 149  : #ifdef _X360
; 150  : 		if ( m_nGrowSize && m_nGrowSize != EXTERNAL_BUFFER_MARKER )
; 151  : 		{
; 152  : 			// Max grow size at 128 bytes on XBOX
; 153  : 			const int MAX_GROW = 128;
; 154  : 			if ( m_nGrowSize * sizeof(T) > MAX_GROW )
; 155  : 			{
; 156  : 				m_nGrowSize = max( 1, MAX_GROW / sizeof(T) );
; 157  : 			}
; 158  : 		}
; 159  : #endif
; 160  : 	}

	pop	edi
	pop	esi
	pop	ebx
	mov	esp, ebp
	pop	ebp
	ret	0
?ValidateGrowSize@?$CUtlMemory@UPhysicsPushedInfo_t@CPhysicsPushedEntities@@H@@IAEXXZ ENDP ; CUtlMemory<CPhysicsPushedEntities::PhysicsPushedInfo_t,int>::ValidateGrowSize
_TEXT	ENDS
; Function compile flags: /Odtp /ZI
; File d:\!diffusion 2020\source code 2022\client-server\game_shared\utlmemory.h
;	COMDAT ?IsReadOnly@?$CUtlMemory@UPhysicsPushedInfo_t@CPhysicsPushedEntities@@H@@QBE_NXZ
_TEXT	SEGMENT
tv66 = -72						; size = 4
_this$ = -4						; size = 4
?IsReadOnly@?$CUtlMemory@UPhysicsPushedInfo_t@CPhysicsPushedEntities@@H@@QBE_NXZ PROC ; CUtlMemory<CPhysicsPushedEntities::PhysicsPushedInfo_t,int>::IsReadOnly, COMDAT
; _this$ = ecx

; 467  : {

	push	ebp
	mov	ebp, esp
	sub	esp, 72					; 00000048H
	push	ebx
	push	esi
	push	edi
	mov	DWORD PTR _this$[ebp], ecx

; 468  : 	return (m_nGrowSize == EXTERNAL_CONST_BUFFER_MARKER);

	mov	eax, DWORD PTR _this$[ebp]
	cmp	DWORD PTR [eax+8], -2			; fffffffeH
	jne	SHORT $LN3@IsReadOnly
	mov	DWORD PTR tv66[ebp], 1
	jmp	SHORT $LN4@IsReadOnly
$LN3@IsReadOnly:
	mov	DWORD PTR tv66[ebp], 0
$LN4@IsReadOnly:
	mov	al, BYTE PTR tv66[ebp]

; 469  : }

	pop	edi
	pop	esi
	pop	ebx
	mov	esp, ebp
	pop	ebp
	ret	0
?IsReadOnly@?$CUtlMemory@UPhysicsPushedInfo_t@CPhysicsPushedEntities@@H@@QBE_NXZ ENDP ; CUtlMemory<CPhysicsPushedEntities::PhysicsPushedInfo_t,int>::IsReadOnly
_TEXT	ENDS
; Function compile flags: /Odtp /ZI
; File d:\!diffusion 2020\source code 2022\client-server\game_shared\utlmemory.h
;	COMDAT ?IsExternallyAllocated@?$CUtlMemory@UPhysicsPushedInfo_t@CPhysicsPushedEntities@@H@@QBE_NXZ
_TEXT	SEGMENT
tv66 = -72						; size = 4
_this$ = -4						; size = 4
?IsExternallyAllocated@?$CUtlMemory@UPhysicsPushedInfo_t@CPhysicsPushedEntities@@H@@QBE_NXZ PROC ; CUtlMemory<CPhysicsPushedEntities::PhysicsPushedInfo_t,int>::IsExternallyAllocated, COMDAT
; _this$ = ecx

; 457  : {

	push	ebp
	mov	ebp, esp
	sub	esp, 72					; 00000048H
	push	ebx
	push	esi
	push	edi
	mov	DWORD PTR _this$[ebp], ecx

; 458  : 	return (m_nGrowSize < 0);

	mov	eax, DWORD PTR _this$[ebp]
	cmp	DWORD PTR [eax+8], 0
	jge	SHORT $LN3@IsExternal
	mov	DWORD PTR tv66[ebp], 1
	jmp	SHORT $LN4@IsExternal
$LN3@IsExternal:
	mov	DWORD PTR tv66[ebp], 0
$LN4@IsExternal:
	mov	al, BYTE PTR tv66[ebp]

; 459  : }

	pop	edi
	pop	esi
	pop	ebx
	mov	esp, ebp
	pop	ebp
	ret	0
?IsExternallyAllocated@?$CUtlMemory@UPhysicsPushedInfo_t@CPhysicsPushedEntities@@H@@QBE_NXZ ENDP ; CUtlMemory<CPhysicsPushedEntities::PhysicsPushedInfo_t,int>::IsExternallyAllocated
_TEXT	ENDS
; Function compile flags: /Odtp /ZI
; File d:\!diffusion 2020\source code 2022\client-server\game_shared\utlmemory.h
;	COMDAT ?Purge@?$CUtlMemory@UPhysicsPushedInfo_t@CPhysicsPushedEntities@@H@@QAEXXZ
_TEXT	SEGMENT
_this$ = -4						; size = 4
?Purge@?$CUtlMemory@UPhysicsPushedInfo_t@CPhysicsPushedEntities@@H@@QAEXXZ PROC ; CUtlMemory<CPhysicsPushedEntities::PhysicsPushedInfo_t,int>::Purge, COMDAT
; _this$ = ecx

; 645  : {

	push	ebp
	mov	ebp, esp
	sub	esp, 68					; 00000044H
	push	ebx
	push	esi
	push	edi
	mov	DWORD PTR _this$[ebp], ecx

; 646  : 	if ( !IsExternallyAllocated() )

	mov	ecx, DWORD PTR _this$[ebp]
	call	?IsExternallyAllocated@?$CUtlMemory@UPhysicsPushedInfo_t@CPhysicsPushedEntities@@H@@QBE_NXZ ; CUtlMemory<CPhysicsPushedEntities::PhysicsPushedInfo_t,int>::IsExternallyAllocated
	movzx	eax, al
	test	eax, eax
	jne	SHORT $LN1@Purge

; 647  : 	{
; 648  : 		if (m_pMemory)

	mov	eax, DWORD PTR _this$[ebp]
	cmp	DWORD PTR [eax], 0
	je	SHORT $LN3@Purge

; 649  : 		{
; 650  : 			free( (void*)m_pMemory );

	mov	eax, DWORD PTR _this$[ebp]
	mov	ecx, DWORD PTR [eax]
	push	ecx
	call	_free
	add	esp, 4

; 651  : 			m_pMemory = 0;

	mov	eax, DWORD PTR _this$[ebp]
	mov	DWORD PTR [eax], 0
$LN3@Purge:

; 652  : 		}
; 653  : 		m_nAllocationCount = 0;

	mov	eax, DWORD PTR _this$[ebp]
	mov	DWORD PTR [eax+4], 0
$LN1@Purge:

; 654  : 	}
; 655  : }

	pop	edi
	pop	esi
	pop	ebx
	mov	esp, ebp
	pop	ebp
	ret	0
?Purge@?$CUtlMemory@UPhysicsPushedInfo_t@CPhysicsPushedEntities@@H@@QAEXXZ ENDP ; CUtlMemory<CPhysicsPushedEntities::PhysicsPushedInfo_t,int>::Purge
_TEXT	ENDS
; Function compile flags: /Odtp /ZI
; File d:\!diffusion 2020\source code 2022\client-server\game_shared\utlmemory.h
;	COMDAT ?Grow@?$CUtlMemory@UPhysicsPushedInfo_t@CPhysicsPushedEntities@@H@@QAEXH@Z
_TEXT	SEGMENT
_nAllocationRequested$ = -8				; size = 4
_this$ = -4						; size = 4
_num$ = 8						; size = 4
?Grow@?$CUtlMemory@UPhysicsPushedInfo_t@CPhysicsPushedEntities@@H@@QAEXH@Z PROC ; CUtlMemory<CPhysicsPushedEntities::PhysicsPushedInfo_t,int>::Grow, COMDAT
; _this$ = ecx

; 560  : {

	push	ebp
	mov	ebp, esp
	sub	esp, 72					; 00000048H
	push	ebx
	push	esi
	push	edi
	mov	DWORD PTR _this$[ebp], ecx

; 561  : 	assert( num > 0 );

	cmp	DWORD PTR _num$[ebp], 0
	jg	SHORT $LN12@Grow
	push	561					; 00000231H
	push	OFFSET ??_C@_1JE@CIIIAKCN@?$AAd?$AA?3?$AA?2?$AA?$CB?$AAd?$AAi?$AAf?$AAf?$AAu?$AAs?$AAi?$AAo?$AAn?$AA?5?$AA2?$AA0?$AA2?$AA0?$AA?2?$AAs?$AAo?$AAu?$AAr?$AAc?$AAe?$AA?5?$AAc?$AAo?$AAd?$AAe?$AA?5?$AA2@
	push	OFFSET ??_C@_1BA@PKCLMAEA@?$AAn?$AAu?$AAm?$AA?5?$AA?$DO?$AA?5?$AA0?$AA?$AA@
	call	__wassert
	add	esp, 12					; 0000000cH
$LN12@Grow:

; 562  : 
; 563  : 	if ( IsExternallyAllocated() )

	mov	ecx, DWORD PTR _this$[ebp]
	call	?IsExternallyAllocated@?$CUtlMemory@UPhysicsPushedInfo_t@CPhysicsPushedEntities@@H@@QBE_NXZ ; CUtlMemory<CPhysicsPushedEntities::PhysicsPushedInfo_t,int>::IsExternallyAllocated
	movzx	eax, al
	test	eax, eax
	je	SHORT $LN4@Grow

; 564  : 	{
; 565  : 		// Can't grow a buffer whose memory was externally allocated 
; 566  : 		assert(0);

	xor	eax, eax
	jne	SHORT $LN13@Grow
	push	566					; 00000236H
	push	OFFSET ??_C@_1JE@CIIIAKCN@?$AAd?$AA?3?$AA?2?$AA?$CB?$AAd?$AAi?$AAf?$AAf?$AAu?$AAs?$AAi?$AAo?$AAn?$AA?5?$AA2?$AA0?$AA2?$AA0?$AA?2?$AAs?$AAo?$AAu?$AAr?$AAc?$AAe?$AA?5?$AAc?$AAo?$AAd?$AAe?$AA?5?$AA2@
	push	OFFSET ??_C@_13COJANIEC@?$AA0?$AA?$AA@
	call	__wassert
	add	esp, 12					; 0000000cH
$LN13@Grow:

; 567  : 		return;

	jmp	$LN1@Grow
$LN4@Grow:

; 568  : 	}
; 569  : 
; 570  : 	// Make sure we have at least numallocated + num allocations.
; 571  : 	// Use the grow rules specified for this memory (in m_nGrowSize)
; 572  : 	int nAllocationRequested = m_nAllocationCount + num;

	mov	eax, DWORD PTR _this$[ebp]
	mov	ecx, DWORD PTR [eax+4]
	add	ecx, DWORD PTR _num$[ebp]
	mov	DWORD PTR _nAllocationRequested$[ebp], ecx

; 573  : 
; 574  : 	m_nAllocationCount = UtlMemory_CalcNewAllocationCount( m_nAllocationCount, m_nGrowSize, nAllocationRequested, sizeof(T) );

	push	76					; 0000004cH
	mov	eax, DWORD PTR _nAllocationRequested$[ebp]
	push	eax
	mov	ecx, DWORD PTR _this$[ebp]
	mov	edx, DWORD PTR [ecx+8]
	push	edx
	mov	eax, DWORD PTR _this$[ebp]
	mov	ecx, DWORD PTR [eax+4]
	push	ecx
	call	?UtlMemory_CalcNewAllocationCount@@YAHHHHH@Z ; UtlMemory_CalcNewAllocationCount
	add	esp, 16					; 00000010H
	mov	edx, DWORD PTR _this$[ebp]
	mov	DWORD PTR [edx+4], eax

; 575  : 
; 576  : 	// if m_nAllocationRequested wraps index type I, recalculate
; 577  : 	if ( ( int )( I )m_nAllocationCount < nAllocationRequested )

	mov	eax, DWORD PTR _this$[ebp]
	mov	ecx, DWORD PTR [eax+4]
	cmp	ecx, DWORD PTR _nAllocationRequested$[ebp]
	jge	SHORT $LN5@Grow

; 578  : 	{
; 579  : 		if ( ( int )( I )m_nAllocationCount == 0 && ( int )( I )( m_nAllocationCount - 1 ) >= nAllocationRequested )

	mov	eax, DWORD PTR _this$[ebp]
	cmp	DWORD PTR [eax+4], 0
	jne	SHORT $LN6@Grow
	mov	eax, DWORD PTR _this$[ebp]
	mov	ecx, DWORD PTR [eax+4]
	sub	ecx, 1
	cmp	ecx, DWORD PTR _nAllocationRequested$[ebp]
	jl	SHORT $LN6@Grow

; 580  : 		{
; 581  : 			--m_nAllocationCount; // deal w/ the common case of m_nAllocationCount == MAX_USHORT + 1

	mov	eax, DWORD PTR _this$[ebp]
	mov	ecx, DWORD PTR [eax+4]
	sub	ecx, 1
	mov	edx, DWORD PTR _this$[ebp]
	mov	DWORD PTR [edx+4], ecx

; 582  : 		}
; 583  : 		else

	jmp	SHORT $LN5@Grow
$LN6@Grow:

; 584  : 		{
; 585  : 			if ( ( int )( I )nAllocationRequested != nAllocationRequested )

	mov	eax, DWORD PTR _nAllocationRequested$[ebp]
	cmp	eax, DWORD PTR _nAllocationRequested$[ebp]
	je	SHORT $LN2@Grow

; 586  : 			{
; 587  : 				// we've been asked to grow memory to a size s.t. the index type can't address the requested amount of memory
; 588  : 				assert( 0 );

	xor	eax, eax
	jne	SHORT $LN14@Grow
	push	588					; 0000024cH
	push	OFFSET ??_C@_1JE@CIIIAKCN@?$AAd?$AA?3?$AA?2?$AA?$CB?$AAd?$AAi?$AAf?$AAf?$AAu?$AAs?$AAi?$AAo?$AAn?$AA?5?$AA2?$AA0?$AA2?$AA0?$AA?2?$AAs?$AAo?$AAu?$AAr?$AAc?$AAe?$AA?5?$AAc?$AAo?$AAd?$AAe?$AA?5?$AA2@
	push	OFFSET ??_C@_13COJANIEC@?$AA0?$AA?$AA@
	call	__wassert
	add	esp, 12					; 0000000cH
$LN14@Grow:

; 589  : 				return;

	jmp	$LN1@Grow
$LN2@Grow:

; 590  : 			}
; 591  : 			while ( ( int )( I )m_nAllocationCount < nAllocationRequested )

	mov	eax, DWORD PTR _this$[ebp]
	mov	ecx, DWORD PTR [eax+4]
	cmp	ecx, DWORD PTR _nAllocationRequested$[ebp]
	jge	SHORT $LN5@Grow

; 592  : 			{
; 593  : 				m_nAllocationCount = ( m_nAllocationCount + nAllocationRequested ) / 2;

	mov	eax, DWORD PTR _this$[ebp]
	mov	eax, DWORD PTR [eax+4]
	add	eax, DWORD PTR _nAllocationRequested$[ebp]
	cdq
	sub	eax, edx
	sar	eax, 1
	mov	ecx, DWORD PTR _this$[ebp]
	mov	DWORD PTR [ecx+4], eax

; 594  : 			}

	jmp	SHORT $LN2@Grow
$LN5@Grow:

; 595  : 		}
; 596  : 	}
; 597  : 
; 598  : 	if (m_pMemory)

	mov	eax, DWORD PTR _this$[ebp]
	cmp	DWORD PTR [eax], 0
	je	SHORT $LN9@Grow

; 599  : 	{
; 600  : 		m_pMemory = (T*)realloc( m_pMemory, m_nAllocationCount * sizeof(T) );

	mov	eax, DWORD PTR _this$[ebp]
	imul	ecx, DWORD PTR [eax+4], 76
	push	ecx
	mov	edx, DWORD PTR _this$[ebp]
	mov	eax, DWORD PTR [edx]
	push	eax
	call	_realloc
	add	esp, 8
	mov	ecx, DWORD PTR _this$[ebp]
	mov	DWORD PTR [ecx], eax

; 601  : 		assert( m_pMemory );

	mov	eax, DWORD PTR _this$[ebp]
	cmp	DWORD PTR [eax], 0
	jne	SHORT $LN15@Grow
	push	601					; 00000259H
	push	OFFSET ??_C@_1JE@CIIIAKCN@?$AAd?$AA?3?$AA?2?$AA?$CB?$AAd?$AAi?$AAf?$AAf?$AAu?$AAs?$AAi?$AAo?$AAn?$AA?5?$AA2?$AA0?$AA2?$AA0?$AA?2?$AAs?$AAo?$AAu?$AAr?$AAc?$AAe?$AA?5?$AAc?$AAo?$AAd?$AAe?$AA?5?$AA2@
	push	OFFSET ??_C@_1BE@OPPFELHC@?$AAm?$AA_?$AAp?$AAM?$AAe?$AAm?$AAo?$AAr?$AAy?$AA?$AA@
	call	__wassert
	add	esp, 12					; 0000000cH
$LN15@Grow:

; 602  : 	}
; 603  : 	else

	jmp	SHORT $LN1@Grow
$LN9@Grow:

; 604  : 	{
; 605  : 		m_pMemory = (T*)malloc( m_nAllocationCount * sizeof(T) );

	mov	eax, DWORD PTR _this$[ebp]
	imul	ecx, DWORD PTR [eax+4], 76
	push	ecx
	call	_malloc
	add	esp, 4
	mov	edx, DWORD PTR _this$[ebp]
	mov	DWORD PTR [edx], eax

; 606  : 		assert( m_pMemory );

	mov	eax, DWORD PTR _this$[ebp]
	cmp	DWORD PTR [eax], 0
	jne	SHORT $LN1@Grow
	push	606					; 0000025eH
	push	OFFSET ??_C@_1JE@CIIIAKCN@?$AAd?$AA?3?$AA?2?$AA?$CB?$AAd?$AAi?$AAf?$AAf?$AAu?$AAs?$AAi?$AAo?$AAn?$AA?5?$AA2?$AA0?$AA2?$AA0?$AA?2?$AAs?$AAo?$AAu?$AAr?$AAc?$AAe?$AA?5?$AAc?$AAo?$AAd?$AAe?$AA?5?$AA2@
	push	OFFSET ??_C@_1BE@OPPFELHC@?$AAm?$AA_?$AAp?$AAM?$AAe?$AAm?$AAo?$AAr?$AAy?$AA?$AA@
	call	__wassert
	add	esp, 12					; 0000000cH
$LN1@Grow:

; 607  : 	}
; 608  : }

	pop	edi
	pop	esi
	pop	ebx
	mov	esp, ebp
	pop	ebp
	ret	4
?Grow@?$CUtlMemory@UPhysicsPushedInfo_t@CPhysicsPushedEntities@@H@@QAEXH@Z ENDP ; CUtlMemory<CPhysicsPushedEntities::PhysicsPushedInfo_t,int>::Grow
_TEXT	ENDS
; Function compile flags: /Odtp /ZI
; File d:\!diffusion 2020\source code 2022\client-server\game_shared\utlmemory.h
;	COMDAT ?NumAllocated@?$CUtlMemory@UPhysicsPushedInfo_t@CPhysicsPushedEntities@@H@@QBEHXZ
_TEXT	SEGMENT
_this$ = -4						; size = 4
?NumAllocated@?$CUtlMemory@UPhysicsPushedInfo_t@CPhysicsPushedEntities@@H@@QBEHXZ PROC ; CUtlMemory<CPhysicsPushedEntities::PhysicsPushedInfo_t,int>::NumAllocated, COMDAT
; _this$ = ecx

; 504  : {

	push	ebp
	mov	ebp, esp
	sub	esp, 68					; 00000044H
	push	ebx
	push	esi
	push	edi
	mov	DWORD PTR _this$[ebp], ecx

; 505  : 	return m_nAllocationCount;

	mov	eax, DWORD PTR _this$[ebp]
	mov	eax, DWORD PTR [eax+4]

; 506  : }

	pop	edi
	pop	esi
	pop	ebx
	mov	esp, ebp
	pop	ebp
	ret	0
?NumAllocated@?$CUtlMemory@UPhysicsPushedInfo_t@CPhysicsPushedEntities@@H@@QBEHXZ ENDP ; CUtlMemory<CPhysicsPushedEntities::PhysicsPushedInfo_t,int>::NumAllocated
_TEXT	ENDS
; Function compile flags: /Odtp /ZI
; File d:\!diffusion 2020\source code 2022\client-server\game_shared\utlmemory.h
;	COMDAT ?Base@?$CUtlMemory@UPhysicsPushedInfo_t@CPhysicsPushedEntities@@H@@QAEPAUPhysicsPushedInfo_t@CPhysicsPushedEntities@@XZ
_TEXT	SEGMENT
_this$ = -4						; size = 4
?Base@?$CUtlMemory@UPhysicsPushedInfo_t@CPhysicsPushedEntities@@H@@QAEPAUPhysicsPushedInfo_t@CPhysicsPushedEntities@@XZ PROC ; CUtlMemory<CPhysicsPushedEntities::PhysicsPushedInfo_t,int>::Base, COMDAT
; _this$ = ecx

; 487  : {

	push	ebp
	mov	ebp, esp
	sub	esp, 68					; 00000044H
	push	ebx
	push	esi
	push	edi
	mov	DWORD PTR _this$[ebp], ecx

; 488  : 	assert( !IsReadOnly() );

	mov	ecx, DWORD PTR _this$[ebp]
	call	?IsReadOnly@?$CUtlMemory@UPhysicsPushedInfo_t@CPhysicsPushedEntities@@H@@QBE_NXZ ; CUtlMemory<CPhysicsPushedEntities::PhysicsPushedInfo_t,int>::IsReadOnly
	movzx	eax, al
	test	eax, eax
	je	SHORT $LN3@Base
	push	488					; 000001e8H
	push	OFFSET ??_C@_1JE@CIIIAKCN@?$AAd?$AA?3?$AA?2?$AA?$CB?$AAd?$AAi?$AAf?$AAf?$AAu?$AAs?$AAi?$AAo?$AAn?$AA?5?$AA2?$AA0?$AA2?$AA0?$AA?2?$AAs?$AAo?$AAu?$AAr?$AAc?$AAe?$AA?5?$AAc?$AAo?$AAd?$AAe?$AA?5?$AA2@
	push	OFFSET ??_C@_1BM@PFNFCCHH@?$AA?$CB?$AAI?$AAs?$AAR?$AAe?$AAa?$AAd?$AAO?$AAn?$AAl?$AAy?$AA?$CI?$AA?$CJ?$AA?$AA@
	call	__wassert
	add	esp, 12					; 0000000cH
$LN3@Base:

; 489  : 	return m_pMemory;

	mov	eax, DWORD PTR _this$[ebp]
	mov	eax, DWORD PTR [eax]

; 490  : }

	pop	edi
	pop	esi
	pop	ebx
	mov	esp, ebp
	pop	ebp
	ret	0
?Base@?$CUtlMemory@UPhysicsPushedInfo_t@CPhysicsPushedEntities@@H@@QAEPAUPhysicsPushedInfo_t@CPhysicsPushedEntities@@XZ ENDP ; CUtlMemory<CPhysicsPushedEntities::PhysicsPushedInfo_t,int>::Base
_TEXT	ENDS
; Function compile flags: /Odtp /ZI
; File d:\!diffusion 2020\source code 2022\client-server\game_shared\utlmemory.h
;	COMDAT ?IsIdxValid@?$CUtlMemory@UPhysicsPushedInfo_t@CPhysicsPushedEntities@@H@@QBE_NH@Z
_TEXT	SEGMENT
tv67 = -72						; size = 4
_this$ = -4						; size = 4
_i$ = 8							; size = 4
?IsIdxValid@?$CUtlMemory@UPhysicsPushedInfo_t@CPhysicsPushedEntities@@H@@QBE_NH@Z PROC ; CUtlMemory<CPhysicsPushedEntities::PhysicsPushedInfo_t,int>::IsIdxValid, COMDAT
; _this$ = ecx

; 520  : {

	push	ebp
	mov	ebp, esp
	sub	esp, 72					; 00000048H
	push	ebx
	push	esi
	push	edi
	mov	DWORD PTR _this$[ebp], ecx

; 521  : 	return ( ((int) i) >= 0 ) && ( ((int) i) < m_nAllocationCount );

	cmp	DWORD PTR _i$[ebp], 0
	jl	SHORT $LN3@IsIdxValid
	mov	eax, DWORD PTR _this$[ebp]
	mov	ecx, DWORD PTR _i$[ebp]
	cmp	ecx, DWORD PTR [eax+4]
	jge	SHORT $LN3@IsIdxValid
	mov	DWORD PTR tv67[ebp], 1
	jmp	SHORT $LN4@IsIdxValid
$LN3@IsIdxValid:
	mov	DWORD PTR tv67[ebp], 0
$LN4@IsIdxValid:
	mov	al, BYTE PTR tv67[ebp]

; 522  : }

	pop	edi
	pop	esi
	pop	ebx
	mov	esp, ebp
	pop	ebp
	ret	4
?IsIdxValid@?$CUtlMemory@UPhysicsPushedInfo_t@CPhysicsPushedEntities@@H@@QBE_NH@Z ENDP ; CUtlMemory<CPhysicsPushedEntities::PhysicsPushedInfo_t,int>::IsIdxValid
_TEXT	ENDS
; Function compile flags: /Odtp /ZI
; File d:\!diffusion 2020\source code 2022\client-server\game_shared\utlmemory.h
;	COMDAT ??A?$CUtlMemory@UPhysicsPushedInfo_t@CPhysicsPushedEntities@@H@@QAEAAUPhysicsPushedInfo_t@CPhysicsPushedEntities@@H@Z
_TEXT	SEGMENT
_this$ = -4						; size = 4
_i$ = 8							; size = 4
??A?$CUtlMemory@UPhysicsPushedInfo_t@CPhysicsPushedEntities@@H@@QAEAAUPhysicsPushedInfo_t@CPhysicsPushedEntities@@H@Z PROC ; CUtlMemory<CPhysicsPushedEntities::PhysicsPushedInfo_t,int>::operator[], COMDAT
; _this$ = ecx

; 423  : {

	push	ebp
	mov	ebp, esp
	sub	esp, 68					; 00000044H
	push	ebx
	push	esi
	push	edi
	mov	DWORD PTR _this$[ebp], ecx

; 424  : 	assert( !IsReadOnly() );

	mov	ecx, DWORD PTR _this$[ebp]
	call	?IsReadOnly@?$CUtlMemory@UPhysicsPushedInfo_t@CPhysicsPushedEntities@@H@@QBE_NXZ ; CUtlMemory<CPhysicsPushedEntities::PhysicsPushedInfo_t,int>::IsReadOnly
	movzx	eax, al
	test	eax, eax
	je	SHORT $LN3@operator
	push	424					; 000001a8H
	push	OFFSET ??_C@_1JE@CIIIAKCN@?$AAd?$AA?3?$AA?2?$AA?$CB?$AAd?$AAi?$AAf?$AAf?$AAu?$AAs?$AAi?$AAo?$AAn?$AA?5?$AA2?$AA0?$AA2?$AA0?$AA?2?$AAs?$AAo?$AAu?$AAr?$AAc?$AAe?$AA?5?$AAc?$AAo?$AAd?$AAe?$AA?5?$AA2@
	push	OFFSET ??_C@_1BM@PFNFCCHH@?$AA?$CB?$AAI?$AAs?$AAR?$AAe?$AAa?$AAd?$AAO?$AAn?$AAl?$AAy?$AA?$CI?$AA?$CJ?$AA?$AA@
	call	__wassert
	add	esp, 12					; 0000000cH
$LN3@operator:

; 425  : 	assert( IsIdxValid(i) );

	mov	eax, DWORD PTR _i$[ebp]
	push	eax
	mov	ecx, DWORD PTR _this$[ebp]
	call	?IsIdxValid@?$CUtlMemory@UPhysicsPushedInfo_t@CPhysicsPushedEntities@@H@@QBE_NH@Z ; CUtlMemory<CPhysicsPushedEntities::PhysicsPushedInfo_t,int>::IsIdxValid
	movzx	ecx, al
	test	ecx, ecx
	jne	SHORT $LN4@operator
	push	425					; 000001a9H
	push	OFFSET ??_C@_1JE@CIIIAKCN@?$AAd?$AA?3?$AA?2?$AA?$CB?$AAd?$AAi?$AAf?$AAf?$AAu?$AAs?$AAi?$AAo?$AAn?$AA?5?$AA2?$AA0?$AA2?$AA0?$AA?2?$AAs?$AAo?$AAu?$AAr?$AAc?$AAe?$AA?5?$AAc?$AAo?$AAd?$AAe?$AA?5?$AA2@
	push	OFFSET ??_C@_1BM@CKILBAKK@?$AAI?$AAs?$AAI?$AAd?$AAx?$AAV?$AAa?$AAl?$AAi?$AAd?$AA?$CI?$AAi?$AA?$CJ?$AA?$AA@
	call	__wassert
	add	esp, 12					; 0000000cH
$LN4@operator:

; 426  : 	return m_pMemory[i];

	imul	eax, DWORD PTR _i$[ebp], 76
	mov	ecx, DWORD PTR _this$[ebp]
	add	eax, DWORD PTR [ecx]

; 427  : }

	pop	edi
	pop	esi
	pop	ebx
	mov	esp, ebp
	pop	ebp
	ret	4
??A?$CUtlMemory@UPhysicsPushedInfo_t@CPhysicsPushedEntities@@H@@QAEAAUPhysicsPushedInfo_t@CPhysicsPushedEntities@@H@Z ENDP ; CUtlMemory<CPhysicsPushedEntities::PhysicsPushedInfo_t,int>::operator[]
_TEXT	ENDS
; Function compile flags: /Odtp /ZI
; File d:\!diffusion 2020\source code 2022\client-server\game_shared\utlmemory.h
;	COMDAT ??1?$CUtlMemory@UPhysicsPushedInfo_t@CPhysicsPushedEntities@@H@@QAE@XZ
_TEXT	SEGMENT
_this$ = -16						; size = 4
__$EHRec$ = -12						; size = 12
??1?$CUtlMemory@UPhysicsPushedInfo_t@CPhysicsPushedEntities@@H@@QAE@XZ PROC ; CUtlMemory<CPhysicsPushedEntities::PhysicsPushedInfo_t,int>::~CUtlMemory<CPhysicsPushedEntities::PhysicsPushedInfo_t,int>, COMDAT
; _this$ = ecx

; 322  : {

	push	ebp
	mov	ebp, esp
	push	-1
	push	__ehhandler$??1?$CUtlMemory@UPhysicsPushedInfo_t@CPhysicsPushedEntities@@H@@QAE@XZ
	mov	eax, DWORD PTR fs:0
	push	eax
	sub	esp, 68					; 00000044H
	push	ebx
	push	esi
	push	edi
	mov	eax, DWORD PTR ___security_cookie
	xor	eax, ebp
	push	eax
	lea	eax, DWORD PTR __$EHRec$[ebp]
	mov	DWORD PTR fs:0, eax
	mov	DWORD PTR _this$[ebp], ecx

; 323  : 	Purge();

	mov	ecx, DWORD PTR _this$[ebp]
	call	?Purge@?$CUtlMemory@UPhysicsPushedInfo_t@CPhysicsPushedEntities@@H@@QAEXXZ ; CUtlMemory<CPhysicsPushedEntities::PhysicsPushedInfo_t,int>::Purge

; 324  : }

	mov	ecx, DWORD PTR __$EHRec$[ebp]
	mov	DWORD PTR fs:0, ecx
	pop	ecx
	pop	edi
	pop	esi
	pop	ebx
	mov	esp, ebp
	pop	ebp
	ret	0
_TEXT	ENDS
;	COMDAT text$x
text$x	SEGMENT
__ehhandler$??1?$CUtlMemory@UPhysicsPushedInfo_t@CPhysicsPushedEntities@@H@@QAE@XZ:
	mov	edx, DWORD PTR [esp+8]
	lea	eax, DWORD PTR [edx+12]
	mov	ecx, DWORD PTR [edx-84]
	xor	ecx, eax
	call	@__security_check_cookie@4
	mov	eax, OFFSET __ehfuncinfo$??1?$CUtlMemory@UPhysicsPushedInfo_t@CPhysicsPushedEntities@@H@@QAE@XZ
	jmp	___CxxFrameHandler3
text$x	ENDS
??1?$CUtlMemory@UPhysicsPushedInfo_t@CPhysicsPushedEntities@@H@@QAE@XZ ENDP ; CUtlMemory<CPhysicsPushedEntities::PhysicsPushedInfo_t,int>::~CUtlMemory<CPhysicsPushedEntities::PhysicsPushedInfo_t,int>
; Function compile flags: /Odtp /ZI
; File d:\!diffusion 2020\source code 2022\client-server\game_shared\utlmemory.h
;	COMDAT ??0?$CUtlMemory@UPhysicsPushedInfo_t@CPhysicsPushedEntities@@H@@QAE@HH@Z
_TEXT	SEGMENT
_this$ = -4						; size = 4
_nGrowSize$ = 8						; size = 4
_nInitAllocationCount$ = 12				; size = 4
??0?$CUtlMemory@UPhysicsPushedInfo_t@CPhysicsPushedEntities@@H@@QAE@HH@Z PROC ; CUtlMemory<CPhysicsPushedEntities::PhysicsPushedInfo_t,int>::CUtlMemory<CPhysicsPushedEntities::PhysicsPushedInfo_t,int>, COMDAT
; _this$ = ecx

; 295  : {

	push	ebp
	mov	ebp, esp
	sub	esp, 68					; 00000044H
	push	ebx
	push	esi
	push	edi
	mov	DWORD PTR _this$[ebp], ecx

; 293  : CUtlMemory<T,I>::CUtlMemory( int nGrowSize, int nInitAllocationCount ) : m_pMemory(0), 

	mov	eax, DWORD PTR _this$[ebp]
	mov	DWORD PTR [eax], 0

; 294  : 	m_nAllocationCount( nInitAllocationCount ), m_nGrowSize( nGrowSize )

	mov	eax, DWORD PTR _this$[ebp]
	mov	ecx, DWORD PTR _nInitAllocationCount$[ebp]
	mov	DWORD PTR [eax+4], ecx
	mov	eax, DWORD PTR _this$[ebp]
	mov	ecx, DWORD PTR _nGrowSize$[ebp]
	mov	DWORD PTR [eax+8], ecx

; 296  : 	ValidateGrowSize();

	mov	ecx, DWORD PTR _this$[ebp]
	call	?ValidateGrowSize@?$CUtlMemory@UPhysicsPushedInfo_t@CPhysicsPushedEntities@@H@@IAEXXZ ; CUtlMemory<CPhysicsPushedEntities::PhysicsPushedInfo_t,int>::ValidateGrowSize

; 297  : 	assert( nGrowSize >= 0 );

	cmp	DWORD PTR _nGrowSize$[ebp], 0
	jge	SHORT $LN4@CUtlMemory
	push	297					; 00000129H
	push	OFFSET ??_C@_1JE@CIIIAKCN@?$AAd?$AA?3?$AA?2?$AA?$CB?$AAd?$AAi?$AAf?$AAf?$AAu?$AAs?$AAi?$AAo?$AAn?$AA?5?$AA2?$AA0?$AA2?$AA0?$AA?2?$AAs?$AAo?$AAu?$AAr?$AAc?$AAe?$AA?5?$AAc?$AAo?$AAd?$AAe?$AA?5?$AA2@
	push	OFFSET ??_C@_1BO@FOOHAONO@?$AAn?$AAG?$AAr?$AAo?$AAw?$AAS?$AAi?$AAz?$AAe?$AA?5?$AA?$DO?$AA?$DN?$AA?5?$AA0?$AA?$AA@
	call	__wassert
	add	esp, 12					; 0000000cH
$LN4@CUtlMemory:

; 298  : 	if (m_nAllocationCount)

	mov	eax, DWORD PTR _this$[ebp]
	cmp	DWORD PTR [eax+4], 0
	je	SHORT $LN1@CUtlMemory

; 299  : 	{
; 300  : 		m_pMemory = (T*)malloc( m_nAllocationCount * sizeof(T) );

	mov	eax, DWORD PTR _this$[ebp]
	imul	ecx, DWORD PTR [eax+4], 76
	push	ecx
	call	_malloc
	add	esp, 4
	mov	edx, DWORD PTR _this$[ebp]
	mov	DWORD PTR [edx], eax
$LN1@CUtlMemory:

; 301  : 	}
; 302  : }

	mov	eax, DWORD PTR _this$[ebp]
	pop	edi
	pop	esi
	pop	ebx
	mov	esp, ebp
	pop	ebp
	ret	8
??0?$CUtlMemory@UPhysicsPushedInfo_t@CPhysicsPushedEntities@@H@@QAE@HH@Z ENDP ; CUtlMemory<CPhysicsPushedEntities::PhysicsPushedInfo_t,int>::CUtlMemory<CPhysicsPushedEntities::PhysicsPushedInfo_t,int>
_TEXT	ENDS
; Function compile flags: /Odtp /ZI
; File d:\!diffusion 2020\source code 2022\client-server\game_shared\utlarray.h
;	COMDAT ?ShiftElementsRight@?$CUtlArray@UPhysicsPushedInfo_t@CPhysicsPushedEntities@@V?$CUtlMemory@UPhysicsPushedInfo_t@CPhysicsPushedEntities@@H@@@@IAEXHH@Z
_TEXT	SEGMENT
_numToMove$ = -8					; size = 4
_this$ = -4						; size = 4
_elem$ = 8						; size = 4
_num$ = 12						; size = 4
?ShiftElementsRight@?$CUtlArray@UPhysicsPushedInfo_t@CPhysicsPushedEntities@@V?$CUtlMemory@UPhysicsPushedInfo_t@CPhysicsPushedEntities@@H@@@@IAEXHH@Z PROC ; CUtlArray<CPhysicsPushedEntities::PhysicsPushedInfo_t,CUtlMemory<CPhysicsPushedEntities::PhysicsPushedInfo_t,int> >::ShiftElementsRight, COMDAT
; _this$ = ecx

; 447  : {

	push	ebp
	mov	ebp, esp
	sub	esp, 72					; 00000048H
	push	ebx
	push	esi
	push	edi
	mov	DWORD PTR _this$[ebp], ecx

; 448  : 	assert( IsValidIndex(elem) || ( m_Size == 0 ) || ( num == 0 ));

	mov	eax, DWORD PTR _elem$[ebp]
	push	eax
	mov	ecx, DWORD PTR _this$[ebp]
	call	?IsValidIndex@?$CUtlArray@UPhysicsPushedInfo_t@CPhysicsPushedEntities@@V?$CUtlMemory@UPhysicsPushedInfo_t@CPhysicsPushedEntities@@H@@@@QBE_NH@Z ; CUtlArray<CPhysicsPushedEntities::PhysicsPushedInfo_t,CUtlMemory<CPhysicsPushedEntities::PhysicsPushedInfo_t,int> >::IsValidIndex
	movzx	ecx, al
	test	ecx, ecx
	jne	SHORT $LN4@ShiftEleme
	mov	edx, DWORD PTR _this$[ebp]
	cmp	DWORD PTR [edx+12], 0
	je	SHORT $LN4@ShiftEleme
	cmp	DWORD PTR _num$[ebp], 0
	je	SHORT $LN4@ShiftEleme
	push	448					; 000001c0H
	push	OFFSET ??_C@_1JC@EMNIBBBG@?$AAd?$AA?3?$AA?2?$AA?$CB?$AAd?$AAi?$AAf?$AAf?$AAu?$AAs?$AAi?$AAo?$AAn?$AA?5?$AA2?$AA0?$AA2?$AA0?$AA?2?$AAs?$AAo?$AAu?$AAr?$AAc?$AAe?$AA?5?$AAc?$AAo?$AAd?$AAe?$AA?5?$AA2@
	push	OFFSET ??_C@_1GM@CDMJDFPA@?$AAI?$AAs?$AAV?$AAa?$AAl?$AAi?$AAd?$AAI?$AAn?$AAd?$AAe?$AAx?$AA?$CI?$AAe?$AAl?$AAe?$AAm?$AA?$CJ?$AA?5?$AA?$HM?$AA?$HM?$AA?5?$AA?$CI?$AA?5?$AAm?$AA_?$AAS?$AAi?$AAz?$AAe?$AA?5?$AA?$DN@
	call	__wassert
	add	esp, 12					; 0000000cH
$LN4@ShiftEleme:

; 449  : 	int numToMove = m_Size - elem - num;

	mov	eax, DWORD PTR _this$[ebp]
	mov	ecx, DWORD PTR [eax+12]
	sub	ecx, DWORD PTR _elem$[ebp]
	sub	ecx, DWORD PTR _num$[ebp]
	mov	DWORD PTR _numToMove$[ebp], ecx

; 450  : 	if ((numToMove > 0) && (num > 0))

	cmp	DWORD PTR _numToMove$[ebp], 0
	jle	SHORT $LN1@ShiftEleme
	cmp	DWORD PTR _num$[ebp], 0
	jle	SHORT $LN1@ShiftEleme

; 451  : 		memmove( &Element(elem+num), &Element(elem), numToMove * sizeof(T) );

	imul	eax, DWORD PTR _numToMove$[ebp], 76
	push	eax
	mov	ecx, DWORD PTR _elem$[ebp]
	push	ecx
	mov	ecx, DWORD PTR _this$[ebp]
	call	?Element@?$CUtlArray@UPhysicsPushedInfo_t@CPhysicsPushedEntities@@V?$CUtlMemory@UPhysicsPushedInfo_t@CPhysicsPushedEntities@@H@@@@QAEAAUPhysicsPushedInfo_t@CPhysicsPushedEntities@@H@Z ; CUtlArray<CPhysicsPushedEntities::PhysicsPushedInfo_t,CUtlMemory<CPhysicsPushedEntities::PhysicsPushedInfo_t,int> >::Element
	push	eax
	mov	edx, DWORD PTR _elem$[ebp]
	add	edx, DWORD PTR _num$[ebp]
	push	edx
	mov	ecx, DWORD PTR _this$[ebp]
	call	?Element@?$CUtlArray@UPhysicsPushedInfo_t@CPhysicsPushedEntities@@V?$CUtlMemory@UPhysicsPushedInfo_t@CPhysicsPushedEntities@@H@@@@QAEAAUPhysicsPushedInfo_t@CPhysicsPushedEntities@@H@Z ; CUtlArray<CPhysicsPushedEntities::PhysicsPushedInfo_t,CUtlMemory<CPhysicsPushedEntities::PhysicsPushedInfo_t,int> >::Element
	push	eax
	call	_memmove
	add	esp, 12					; 0000000cH
$LN1@ShiftEleme:

; 452  : }

	pop	edi
	pop	esi
	pop	ebx
	mov	esp, ebp
	pop	ebp
	ret	8
?ShiftElementsRight@?$CUtlArray@UPhysicsPushedInfo_t@CPhysicsPushedEntities@@V?$CUtlMemory@UPhysicsPushedInfo_t@CPhysicsPushedEntities@@H@@@@IAEXHH@Z ENDP ; CUtlArray<CPhysicsPushedEntities::PhysicsPushedInfo_t,CUtlMemory<CPhysicsPushedEntities::PhysicsPushedInfo_t,int> >::ShiftElementsRight
_TEXT	ENDS
; Function compile flags: /Odtp /ZI
; File d:\!diffusion 2020\source code 2022\client-server\game_shared\utlarray.h
;	COMDAT ?GrowVector@?$CUtlArray@UPhysicsPushedInfo_t@CPhysicsPushedEntities@@V?$CUtlMemory@UPhysicsPushedInfo_t@CPhysicsPushedEntities@@H@@@@IAEXH@Z
_TEXT	SEGMENT
_this$ = -4						; size = 4
_num$ = 8						; size = 4
?GrowVector@?$CUtlArray@UPhysicsPushedInfo_t@CPhysicsPushedEntities@@V?$CUtlMemory@UPhysicsPushedInfo_t@CPhysicsPushedEntities@@H@@@@IAEXH@Z PROC ; CUtlArray<CPhysicsPushedEntities::PhysicsPushedInfo_t,CUtlMemory<CPhysicsPushedEntities::PhysicsPushedInfo_t,int> >::GrowVector, COMDAT
; _this$ = ecx

; 374  : {

	push	ebp
	mov	ebp, esp
	sub	esp, 68					; 00000044H
	push	ebx
	push	esi
	push	edi
	mov	DWORD PTR _this$[ebp], ecx

; 375  : 	if (m_Size + num > m_Memory.NumAllocated())

	mov	eax, DWORD PTR _this$[ebp]
	mov	esi, DWORD PTR [eax+12]
	add	esi, DWORD PTR _num$[ebp]
	mov	ecx, DWORD PTR _this$[ebp]
	call	?NumAllocated@?$CUtlMemory@UPhysicsPushedInfo_t@CPhysicsPushedEntities@@H@@QBEHXZ ; CUtlMemory<CPhysicsPushedEntities::PhysicsPushedInfo_t,int>::NumAllocated
	cmp	esi, eax
	jle	SHORT $LN2@GrowVector

; 376  : 	{
; 377  : 		m_Memory.Grow( m_Size + num - m_Memory.NumAllocated() );

	mov	eax, DWORD PTR _this$[ebp]
	mov	esi, DWORD PTR [eax+12]
	add	esi, DWORD PTR _num$[ebp]
	mov	ecx, DWORD PTR _this$[ebp]
	call	?NumAllocated@?$CUtlMemory@UPhysicsPushedInfo_t@CPhysicsPushedEntities@@H@@QBEHXZ ; CUtlMemory<CPhysicsPushedEntities::PhysicsPushedInfo_t,int>::NumAllocated
	sub	esi, eax
	push	esi
	mov	ecx, DWORD PTR _this$[ebp]
	call	?Grow@?$CUtlMemory@UPhysicsPushedInfo_t@CPhysicsPushedEntities@@H@@QAEXH@Z ; CUtlMemory<CPhysicsPushedEntities::PhysicsPushedInfo_t,int>::Grow
$LN2@GrowVector:

; 378  : 	}
; 379  : 
; 380  : 	m_Size += num;

	mov	eax, DWORD PTR _this$[ebp]
	mov	ecx, DWORD PTR [eax+12]
	add	ecx, DWORD PTR _num$[ebp]
	mov	edx, DWORD PTR _this$[ebp]
	mov	DWORD PTR [edx+12], ecx

; 381  : 	ResetDbgInfo();

	mov	ecx, DWORD PTR _this$[ebp]
	call	?ResetDbgInfo@?$CUtlArray@UPhysicsPushedInfo_t@CPhysicsPushedEntities@@V?$CUtlMemory@UPhysicsPushedInfo_t@CPhysicsPushedEntities@@H@@@@IAEXXZ ; CUtlArray<CPhysicsPushedEntities::PhysicsPushedInfo_t,CUtlMemory<CPhysicsPushedEntities::PhysicsPushedInfo_t,int> >::ResetDbgInfo

; 382  : }

	pop	edi
	pop	esi
	pop	ebx
	mov	esp, ebp
	pop	ebp
	ret	4
?GrowVector@?$CUtlArray@UPhysicsPushedInfo_t@CPhysicsPushedEntities@@V?$CUtlMemory@UPhysicsPushedInfo_t@CPhysicsPushedEntities@@H@@@@IAEXH@Z ENDP ; CUtlArray<CPhysicsPushedEntities::PhysicsPushedInfo_t,CUtlMemory<CPhysicsPushedEntities::PhysicsPushedInfo_t,int> >::GrowVector
_TEXT	ENDS
; Function compile flags: /Odtp /ZI
; File d:\!diffusion 2020\source code 2022\client-server\game_shared\utlarray.h
;	COMDAT ?Purge@?$CUtlArray@UPhysicsPushedInfo_t@CPhysicsPushedEntities@@V?$CUtlMemory@UPhysicsPushedInfo_t@CPhysicsPushedEntities@@H@@@@QAEXXZ
_TEXT	SEGMENT
_this$ = -4						; size = 4
?Purge@?$CUtlArray@UPhysicsPushedInfo_t@CPhysicsPushedEntities@@V?$CUtlMemory@UPhysicsPushedInfo_t@CPhysicsPushedEntities@@H@@@@QAEXXZ PROC ; CUtlArray<CPhysicsPushedEntities::PhysicsPushedInfo_t,CUtlMemory<CPhysicsPushedEntities::PhysicsPushedInfo_t,int> >::Purge, COMDAT
; _this$ = ecx

; 742  : {

	push	ebp
	mov	ebp, esp
	sub	esp, 68					; 00000044H
	push	ebx
	push	esi
	push	edi
	mov	DWORD PTR _this$[ebp], ecx

; 743  : 	RemoveAll();

	mov	ecx, DWORD PTR _this$[ebp]
	call	?RemoveAll@?$CUtlArray@UPhysicsPushedInfo_t@CPhysicsPushedEntities@@V?$CUtlMemory@UPhysicsPushedInfo_t@CPhysicsPushedEntities@@H@@@@QAEXXZ ; CUtlArray<CPhysicsPushedEntities::PhysicsPushedInfo_t,CUtlMemory<CPhysicsPushedEntities::PhysicsPushedInfo_t,int> >::RemoveAll

; 744  : 	m_Memory.Purge();

	mov	ecx, DWORD PTR _this$[ebp]
	call	?Purge@?$CUtlMemory@UPhysicsPushedInfo_t@CPhysicsPushedEntities@@H@@QAEXXZ ; CUtlMemory<CPhysicsPushedEntities::PhysicsPushedInfo_t,int>::Purge

; 745  : 	ResetDbgInfo();

	mov	ecx, DWORD PTR _this$[ebp]
	call	?ResetDbgInfo@?$CUtlArray@UPhysicsPushedInfo_t@CPhysicsPushedEntities@@V?$CUtlMemory@UPhysicsPushedInfo_t@CPhysicsPushedEntities@@H@@@@IAEXXZ ; CUtlArray<CPhysicsPushedEntities::PhysicsPushedInfo_t,CUtlMemory<CPhysicsPushedEntities::PhysicsPushedInfo_t,int> >::ResetDbgInfo

; 746  : }

	pop	edi
	pop	esi
	pop	ebx
	mov	esp, ebp
	pop	ebp
	ret	0
?Purge@?$CUtlArray@UPhysicsPushedInfo_t@CPhysicsPushedEntities@@V?$CUtlMemory@UPhysicsPushedInfo_t@CPhysicsPushedEntities@@H@@@@QAEXXZ ENDP ; CUtlArray<CPhysicsPushedEntities::PhysicsPushedInfo_t,CUtlMemory<CPhysicsPushedEntities::PhysicsPushedInfo_t,int> >::Purge
_TEXT	ENDS
; Function compile flags: /Odtp /ZI
; File d:\!diffusion 2020\source code 2022\client-server\game_shared\utlarray.h
;	COMDAT ?RemoveAll@?$CUtlArray@UPhysicsPushedInfo_t@CPhysicsPushedEntities@@V?$CUtlMemory@UPhysicsPushedInfo_t@CPhysicsPushedEntities@@H@@@@QAEXXZ
_TEXT	SEGMENT
_i$1 = -8						; size = 4
_this$ = -4						; size = 4
?RemoveAll@?$CUtlArray@UPhysicsPushedInfo_t@CPhysicsPushedEntities@@V?$CUtlMemory@UPhysicsPushedInfo_t@CPhysicsPushedEntities@@H@@@@QAEXXZ PROC ; CUtlArray<CPhysicsPushedEntities::PhysicsPushedInfo_t,CUtlMemory<CPhysicsPushedEntities::PhysicsPushedInfo_t,int> >::RemoveAll, COMDAT
; _this$ = ecx

; 726  : {

	push	ebp
	mov	ebp, esp
	sub	esp, 72					; 00000048H
	push	ebx
	push	esi
	push	edi
	mov	DWORD PTR _this$[ebp], ecx

; 727  : 	for (int i = m_Size; --i >= 0; )

	mov	eax, DWORD PTR _this$[ebp]
	mov	ecx, DWORD PTR [eax+12]
	mov	DWORD PTR _i$1[ebp], ecx
$LN4@RemoveAll:
	mov	eax, DWORD PTR _i$1[ebp]
	sub	eax, 1
	mov	DWORD PTR _i$1[ebp], eax
	js	SHORT $LN3@RemoveAll

; 728  : 	{
; 729  : 		Destruct(&Element(i));

	mov	eax, DWORD PTR _i$1[ebp]
	push	eax
	mov	ecx, DWORD PTR _this$[ebp]
	call	?Element@?$CUtlArray@UPhysicsPushedInfo_t@CPhysicsPushedEntities@@V?$CUtlMemory@UPhysicsPushedInfo_t@CPhysicsPushedEntities@@H@@@@QAEAAUPhysicsPushedInfo_t@CPhysicsPushedEntities@@H@Z ; CUtlArray<CPhysicsPushedEntities::PhysicsPushedInfo_t,CUtlMemory<CPhysicsPushedEntities::PhysicsPushedInfo_t,int> >::Element
	push	eax
	call	??$Destruct@UPhysicsPushedInfo_t@CPhysicsPushedEntities@@@@YAXPAUPhysicsPushedInfo_t@CPhysicsPushedEntities@@@Z ; Destruct<CPhysicsPushedEntities::PhysicsPushedInfo_t>
	add	esp, 4

; 730  : 	}

	jmp	SHORT $LN4@RemoveAll
$LN3@RemoveAll:

; 731  : 
; 732  : 	m_Size = 0;

	mov	eax, DWORD PTR _this$[ebp]
	mov	DWORD PTR [eax+12], 0

; 733  : }

	pop	edi
	pop	esi
	pop	ebx
	mov	esp, ebp
	pop	ebp
	ret	0
?RemoveAll@?$CUtlArray@UPhysicsPushedInfo_t@CPhysicsPushedEntities@@V?$CUtlMemory@UPhysicsPushedInfo_t@CPhysicsPushedEntities@@H@@@@QAEXXZ ENDP ; CUtlArray<CPhysicsPushedEntities::PhysicsPushedInfo_t,CUtlMemory<CPhysicsPushedEntities::PhysicsPushedInfo_t,int> >::RemoveAll
_TEXT	ENDS
; Function compile flags: /Odtp /ZI
; File d:\!diffusion 2020\source code 2022\client-server\game_shared\utlarray.h
;	COMDAT ?InsertBefore@?$CUtlArray@UPhysicsPushedInfo_t@CPhysicsPushedEntities@@V?$CUtlMemory@UPhysicsPushedInfo_t@CPhysicsPushedEntities@@H@@@@QAEHH@Z
_TEXT	SEGMENT
_this$ = -4						; size = 4
_elem$ = 8						; size = 4
?InsertBefore@?$CUtlArray@UPhysicsPushedInfo_t@CPhysicsPushedEntities@@V?$CUtlMemory@UPhysicsPushedInfo_t@CPhysicsPushedEntities@@H@@@@QAEHH@Z PROC ; CUtlArray<CPhysicsPushedEntities::PhysicsPushedInfo_t,CUtlMemory<CPhysicsPushedEntities::PhysicsPushedInfo_t,int> >::InsertBefore, COMDAT
; _this$ = ecx

; 493  : {

	push	ebp
	mov	ebp, esp
	sub	esp, 68					; 00000044H
	push	ebx
	push	esi
	push	edi
	mov	DWORD PTR _this$[ebp], ecx

; 494  : 	// Can insert at the end
; 495  : 	assert( (elem == Count()) || IsValidIndex(elem) );

	mov	ecx, DWORD PTR _this$[ebp]
	call	?Count@?$CUtlArray@UPhysicsPushedInfo_t@CPhysicsPushedEntities@@V?$CUtlMemory@UPhysicsPushedInfo_t@CPhysicsPushedEntities@@H@@@@QBEHXZ ; CUtlArray<CPhysicsPushedEntities::PhysicsPushedInfo_t,CUtlMemory<CPhysicsPushedEntities::PhysicsPushedInfo_t,int> >::Count
	cmp	DWORD PTR _elem$[ebp], eax
	je	SHORT $LN3@InsertBefo
	mov	eax, DWORD PTR _elem$[ebp]
	push	eax
	mov	ecx, DWORD PTR _this$[ebp]
	call	?IsValidIndex@?$CUtlArray@UPhysicsPushedInfo_t@CPhysicsPushedEntities@@V?$CUtlMemory@UPhysicsPushedInfo_t@CPhysicsPushedEntities@@H@@@@QBE_NH@Z ; CUtlArray<CPhysicsPushedEntities::PhysicsPushedInfo_t,CUtlMemory<CPhysicsPushedEntities::PhysicsPushedInfo_t,int> >::IsValidIndex
	movzx	ecx, al
	test	ecx, ecx
	jne	SHORT $LN3@InsertBefo
	push	495					; 000001efH
	push	OFFSET ??_C@_1JC@EMNIBBBG@?$AAd?$AA?3?$AA?2?$AA?$CB?$AAd?$AAi?$AAf?$AAf?$AAu?$AAs?$AAi?$AAo?$AAn?$AA?5?$AA2?$AA0?$AA2?$AA0?$AA?2?$AAs?$AAo?$AAu?$AAr?$AAc?$AAe?$AA?5?$AAc?$AAo?$AAd?$AAe?$AA?5?$AA2@
	push	OFFSET ??_C@_1FA@BPFBJKPF@?$AA?$CI?$AAe?$AAl?$AAe?$AAm?$AA?5?$AA?$DN?$AA?$DN?$AA?5?$AAC?$AAo?$AAu?$AAn?$AAt?$AA?$CI?$AA?$CJ?$AA?$CJ?$AA?5?$AA?$HM?$AA?$HM?$AA?5?$AAI?$AAs?$AAV?$AAa?$AAl?$AAi?$AAd?$AAI?$AAn?$AAd?$AAe@
	call	__wassert
	add	esp, 12					; 0000000cH
$LN3@InsertBefo:

; 496  : 
; 497  : 	GrowVector();

	push	1
	mov	ecx, DWORD PTR _this$[ebp]
	call	?GrowVector@?$CUtlArray@UPhysicsPushedInfo_t@CPhysicsPushedEntities@@V?$CUtlMemory@UPhysicsPushedInfo_t@CPhysicsPushedEntities@@H@@@@IAEXH@Z ; CUtlArray<CPhysicsPushedEntities::PhysicsPushedInfo_t,CUtlMemory<CPhysicsPushedEntities::PhysicsPushedInfo_t,int> >::GrowVector

; 498  : 	ShiftElementsRight(elem);

	push	1
	mov	eax, DWORD PTR _elem$[ebp]
	push	eax
	mov	ecx, DWORD PTR _this$[ebp]
	call	?ShiftElementsRight@?$CUtlArray@UPhysicsPushedInfo_t@CPhysicsPushedEntities@@V?$CUtlMemory@UPhysicsPushedInfo_t@CPhysicsPushedEntities@@H@@@@IAEXHH@Z ; CUtlArray<CPhysicsPushedEntities::PhysicsPushedInfo_t,CUtlMemory<CPhysicsPushedEntities::PhysicsPushedInfo_t,int> >::ShiftElementsRight

; 499  : 	Construct( &Element(elem) );

	mov	eax, DWORD PTR _elem$[ebp]
	push	eax
	mov	ecx, DWORD PTR _this$[ebp]
	call	?Element@?$CUtlArray@UPhysicsPushedInfo_t@CPhysicsPushedEntities@@V?$CUtlMemory@UPhysicsPushedInfo_t@CPhysicsPushedEntities@@H@@@@QAEAAUPhysicsPushedInfo_t@CPhysicsPushedEntities@@H@Z ; CUtlArray<CPhysicsPushedEntities::PhysicsPushedInfo_t,CUtlMemory<CPhysicsPushedEntities::PhysicsPushedInfo_t,int> >::Element
	push	eax
	call	??$Construct@UPhysicsPushedInfo_t@CPhysicsPushedEntities@@@@YAXPAUPhysicsPushedInfo_t@CPhysicsPushedEntities@@@Z ; Construct<CPhysicsPushedEntities::PhysicsPushedInfo_t>
	add	esp, 4

; 500  : 	return elem;

	mov	eax, DWORD PTR _elem$[ebp]

; 501  : }

	pop	edi
	pop	esi
	pop	ebx
	mov	esp, ebp
	pop	ebp
	ret	4
?InsertBefore@?$CUtlArray@UPhysicsPushedInfo_t@CPhysicsPushedEntities@@V?$CUtlMemory@UPhysicsPushedInfo_t@CPhysicsPushedEntities@@H@@@@QAEHH@Z ENDP ; CUtlArray<CPhysicsPushedEntities::PhysicsPushedInfo_t,CUtlMemory<CPhysicsPushedEntities::PhysicsPushedInfo_t,int> >::InsertBefore
_TEXT	ENDS
; Function compile flags: /Odtp /ZI
; File d:\!diffusion 2020\source code 2022\client-server\game_shared\utlarray.h
;	COMDAT ?AddToTail@?$CUtlArray@UPhysicsPushedInfo_t@CPhysicsPushedEntities@@V?$CUtlMemory@UPhysicsPushedInfo_t@CPhysicsPushedEntities@@H@@@@QAEHXZ
_TEXT	SEGMENT
_this$ = -4						; size = 4
?AddToTail@?$CUtlArray@UPhysicsPushedInfo_t@CPhysicsPushedEntities@@V?$CUtlMemory@UPhysicsPushedInfo_t@CPhysicsPushedEntities@@H@@@@QAEHXZ PROC ; CUtlArray<CPhysicsPushedEntities::PhysicsPushedInfo_t,CUtlMemory<CPhysicsPushedEntities::PhysicsPushedInfo_t,int> >::AddToTail, COMDAT
; _this$ = ecx

; 481  : {

	push	ebp
	mov	ebp, esp
	sub	esp, 68					; 00000044H
	push	ebx
	push	esi
	push	edi
	mov	DWORD PTR _this$[ebp], ecx

; 482  : 	return InsertBefore( m_Size );

	mov	eax, DWORD PTR _this$[ebp]
	mov	ecx, DWORD PTR [eax+12]
	push	ecx
	mov	ecx, DWORD PTR _this$[ebp]
	call	?InsertBefore@?$CUtlArray@UPhysicsPushedInfo_t@CPhysicsPushedEntities@@V?$CUtlMemory@UPhysicsPushedInfo_t@CPhysicsPushedEntities@@H@@@@QAEHH@Z ; CUtlArray<CPhysicsPushedEntities::PhysicsPushedInfo_t,CUtlMemory<CPhysicsPushedEntities::PhysicsPushedInfo_t,int> >::InsertBefore

; 483  : }

	pop	edi
	pop	esi
	pop	ebx
	mov	esp, ebp
	pop	ebp
	ret	0
?AddToTail@?$CUtlArray@UPhysicsPushedInfo_t@CPhysicsPushedEntities@@V?$CUtlMemory@UPhysicsPushedInfo_t@CPhysicsPushedEntities@@H@@@@QAEHXZ ENDP ; CUtlArray<CPhysicsPushedEntities::PhysicsPushedInfo_t,CUtlMemory<CPhysicsPushedEntities::PhysicsPushedInfo_t,int> >::AddToTail
_TEXT	ENDS
; Function compile flags: /Odtp /ZI
; File d:\!diffusion 2020\source code 2022\client-server\game_shared\utlarray.h
;	COMDAT ?IsValidIndex@?$CUtlArray@UPhysicsPushedInfo_t@CPhysicsPushedEntities@@V?$CUtlMemory@UPhysicsPushedInfo_t@CPhysicsPushedEntities@@H@@@@QBE_NH@Z
_TEXT	SEGMENT
tv67 = -72						; size = 4
_this$ = -4						; size = 4
_i$ = 8							; size = 4
?IsValidIndex@?$CUtlArray@UPhysicsPushedInfo_t@CPhysicsPushedEntities@@V?$CUtlMemory@UPhysicsPushedInfo_t@CPhysicsPushedEntities@@H@@@@QBE_NH@Z PROC ; CUtlArray<CPhysicsPushedEntities::PhysicsPushedInfo_t,CUtlMemory<CPhysicsPushedEntities::PhysicsPushedInfo_t,int> >::IsValidIndex, COMDAT
; _this$ = ecx

; 354  : {

	push	ebp
	mov	ebp, esp
	sub	esp, 72					; 00000048H
	push	ebx
	push	esi
	push	edi
	mov	DWORD PTR _this$[ebp], ecx

; 355  : 	return (i >= 0) && (i < m_Size);

	cmp	DWORD PTR _i$[ebp], 0
	jl	SHORT $LN3@IsValidInd
	mov	eax, DWORD PTR _this$[ebp]
	mov	ecx, DWORD PTR _i$[ebp]
	cmp	ecx, DWORD PTR [eax+12]
	jge	SHORT $LN3@IsValidInd
	mov	DWORD PTR tv67[ebp], 1
	jmp	SHORT $LN4@IsValidInd
$LN3@IsValidInd:
	mov	DWORD PTR tv67[ebp], 0
$LN4@IsValidInd:
	mov	al, BYTE PTR tv67[ebp]

; 356  : }

	pop	edi
	pop	esi
	pop	ebx
	mov	esp, ebp
	pop	ebp
	ret	4
?IsValidIndex@?$CUtlArray@UPhysicsPushedInfo_t@CPhysicsPushedEntities@@V?$CUtlMemory@UPhysicsPushedInfo_t@CPhysicsPushedEntities@@H@@@@QBE_NH@Z ENDP ; CUtlArray<CPhysicsPushedEntities::PhysicsPushedInfo_t,CUtlMemory<CPhysicsPushedEntities::PhysicsPushedInfo_t,int> >::IsValidIndex
_TEXT	ENDS
; Function compile flags: /Odtp /ZI
; File d:\!diffusion 2020\source code 2022\client-server\game_shared\utlarray.h
;	COMDAT ?Count@?$CUtlArray@UPhysicsPushedInfo_t@CPhysicsPushedEntities@@V?$CUtlMemory@UPhysicsPushedInfo_t@CPhysicsPushedEntities@@H@@@@QBEHXZ
_TEXT	SEGMENT
_this$ = -4						; size = 4
?Count@?$CUtlArray@UPhysicsPushedInfo_t@CPhysicsPushedEntities@@V?$CUtlMemory@UPhysicsPushedInfo_t@CPhysicsPushedEntities@@H@@@@QBEHXZ PROC ; CUtlArray<CPhysicsPushedEntities::PhysicsPushedInfo_t,CUtlMemory<CPhysicsPushedEntities::PhysicsPushedInfo_t,int> >::Count, COMDAT
; _this$ = ecx

; 344  : {

	push	ebp
	mov	ebp, esp
	sub	esp, 68					; 00000044H
	push	ebx
	push	esi
	push	edi
	mov	DWORD PTR _this$[ebp], ecx

; 345  : 	return m_Size;

	mov	eax, DWORD PTR _this$[ebp]
	mov	eax, DWORD PTR [eax+12]

; 346  : }

	pop	edi
	pop	esi
	pop	ebx
	mov	esp, ebp
	pop	ebp
	ret	0
?Count@?$CUtlArray@UPhysicsPushedInfo_t@CPhysicsPushedEntities@@V?$CUtlMemory@UPhysicsPushedInfo_t@CPhysicsPushedEntities@@H@@@@QBEHXZ ENDP ; CUtlArray<CPhysicsPushedEntities::PhysicsPushedInfo_t,CUtlMemory<CPhysicsPushedEntities::PhysicsPushedInfo_t,int> >::Count
_TEXT	ENDS
; Function compile flags: /Odtp /ZI
; File d:\!diffusion 2020\source code 2022\client-server\game_shared\utlarray.h
;	COMDAT ?Base@?$CUtlArray@UPhysicsPushedInfo_t@CPhysicsPushedEntities@@V?$CUtlMemory@UPhysicsPushedInfo_t@CPhysicsPushedEntities@@H@@@@QAEPAUPhysicsPushedInfo_t@CPhysicsPushedEntities@@XZ
_TEXT	SEGMENT
_this$ = -4						; size = 4
?Base@?$CUtlArray@UPhysicsPushedInfo_t@CPhysicsPushedEntities@@V?$CUtlMemory@UPhysicsPushedInfo_t@CPhysicsPushedEntities@@H@@@@QAEPAUPhysicsPushedInfo_t@CPhysicsPushedEntities@@XZ PROC ; CUtlArray<CPhysicsPushedEntities::PhysicsPushedInfo_t,CUtlMemory<CPhysicsPushedEntities::PhysicsPushedInfo_t,int> >::Base, COMDAT
; _this$ = ecx

; 60   : 	T* Base()								{ return m_Memory.Base(); }

	push	ebp
	mov	ebp, esp
	sub	esp, 68					; 00000044H
	push	ebx
	push	esi
	push	edi
	mov	DWORD PTR _this$[ebp], ecx
	mov	ecx, DWORD PTR _this$[ebp]
	call	?Base@?$CUtlMemory@UPhysicsPushedInfo_t@CPhysicsPushedEntities@@H@@QAEPAUPhysicsPushedInfo_t@CPhysicsPushedEntities@@XZ ; CUtlMemory<CPhysicsPushedEntities::PhysicsPushedInfo_t,int>::Base
	pop	edi
	pop	esi
	pop	ebx
	mov	esp, ebp
	pop	ebp
	ret	0
?Base@?$CUtlArray@UPhysicsPushedInfo_t@CPhysicsPushedEntities@@V?$CUtlMemory@UPhysicsPushedInfo_t@CPhysicsPushedEntities@@H@@@@QAEPAUPhysicsPushedInfo_t@CPhysicsPushedEntities@@XZ ENDP ; CUtlArray<CPhysicsPushedEntities::PhysicsPushedInfo_t,CUtlMemory<CPhysicsPushedEntities::PhysicsPushedInfo_t,int> >::Base
_TEXT	ENDS
; Function compile flags: /Odtp /ZI
; File d:\!diffusion 2020\source code 2022\client-server\game_shared\utlarray.h
;	COMDAT ?Element@?$CUtlArray@UPhysicsPushedInfo_t@CPhysicsPushedEntities@@V?$CUtlMemory@UPhysicsPushedInfo_t@CPhysicsPushedEntities@@H@@@@QAEAAUPhysicsPushedInfo_t@CPhysicsPushedEntities@@H@Z
_TEXT	SEGMENT
_this$ = -4						; size = 4
_i$ = 8							; size = 4
?Element@?$CUtlArray@UPhysicsPushedInfo_t@CPhysicsPushedEntities@@V?$CUtlMemory@UPhysicsPushedInfo_t@CPhysicsPushedEntities@@H@@@@QAEAAUPhysicsPushedInfo_t@CPhysicsPushedEntities@@H@Z PROC ; CUtlArray<CPhysicsPushedEntities::PhysicsPushedInfo_t,CUtlMemory<CPhysicsPushedEntities::PhysicsPushedInfo_t,int> >::Element, COMDAT
; _this$ = ecx

; 294  : {

	push	ebp
	mov	ebp, esp
	sub	esp, 68					; 00000044H
	push	ebx
	push	esi
	push	edi
	mov	DWORD PTR _this$[ebp], ecx

; 295  : 	return m_Memory[ i ];

	mov	eax, DWORD PTR _i$[ebp]
	push	eax
	mov	ecx, DWORD PTR _this$[ebp]
	call	??A?$CUtlMemory@UPhysicsPushedInfo_t@CPhysicsPushedEntities@@H@@QAEAAUPhysicsPushedInfo_t@CPhysicsPushedEntities@@H@Z ; CUtlMemory<CPhysicsPushedEntities::PhysicsPushedInfo_t,int>::operator[]

; 296  : }

	pop	edi
	pop	esi
	pop	ebx
	mov	esp, ebp
	pop	ebp
	ret	4
?Element@?$CUtlArray@UPhysicsPushedInfo_t@CPhysicsPushedEntities@@V?$CUtlMemory@UPhysicsPushedInfo_t@CPhysicsPushedEntities@@H@@@@QAEAAUPhysicsPushedInfo_t@CPhysicsPushedEntities@@H@Z ENDP ; CUtlArray<CPhysicsPushedEntities::PhysicsPushedInfo_t,CUtlMemory<CPhysicsPushedEntities::PhysicsPushedInfo_t,int> >::Element
_TEXT	ENDS
; Function compile flags: /Odtp /ZI
; File d:\!diffusion 2020\source code 2022\client-server\game_shared\utlarray.h
;	COMDAT ??A?$CUtlArray@UPhysicsPushedInfo_t@CPhysicsPushedEntities@@V?$CUtlMemory@UPhysicsPushedInfo_t@CPhysicsPushedEntities@@H@@@@QAEAAUPhysicsPushedInfo_t@CPhysicsPushedEntities@@H@Z
_TEXT	SEGMENT
_this$ = -4						; size = 4
_i$ = 8							; size = 4
??A?$CUtlArray@UPhysicsPushedInfo_t@CPhysicsPushedEntities@@V?$CUtlMemory@UPhysicsPushedInfo_t@CPhysicsPushedEntities@@H@@@@QAEAAUPhysicsPushedInfo_t@CPhysicsPushedEntities@@H@Z PROC ; CUtlArray<CPhysicsPushedEntities::PhysicsPushedInfo_t,CUtlMemory<CPhysicsPushedEntities::PhysicsPushedInfo_t,int> >::operator[], COMDAT
; _this$ = ecx

; 282  : {

	push	ebp
	mov	ebp, esp
	sub	esp, 68					; 00000044H
	push	ebx
	push	esi
	push	edi
	mov	DWORD PTR _this$[ebp], ecx

; 283  : 	return m_Memory[ i ];

	mov	eax, DWORD PTR _i$[ebp]
	push	eax
	mov	ecx, DWORD PTR _this$[ebp]
	call	??A?$CUtlMemory@UPhysicsPushedInfo_t@CPhysicsPushedEntities@@H@@QAEAAUPhysicsPushedInfo_t@CPhysicsPushedEntities@@H@Z ; CUtlMemory<CPhysicsPushedEntities::PhysicsPushedInfo_t,int>::operator[]

; 284  : }

	pop	edi
	pop	esi
	pop	ebx
	mov	esp, ebp
	pop	ebp
	ret	4
??A?$CUtlArray@UPhysicsPushedInfo_t@CPhysicsPushedEntities@@V?$CUtlMemory@UPhysicsPushedInfo_t@CPhysicsPushedEntities@@H@@@@QAEAAUPhysicsPushedInfo_t@CPhysicsPushedEntities@@H@Z ENDP ; CUtlArray<CPhysicsPushedEntities::PhysicsPushedInfo_t,CUtlMemory<CPhysicsPushedEntities::PhysicsPushedInfo_t,int> >::operator[]
_TEXT	ENDS
; Function compile flags: /Odtp /ZI
; File d:\!diffusion 2020\source code 2022\client-server\game_shared\utlarray.h
;	COMDAT ??1?$CUtlArray@UPhysicsPushedInfo_t@CPhysicsPushedEntities@@V?$CUtlMemory@UPhysicsPushedInfo_t@CPhysicsPushedEntities@@H@@@@QAE@XZ
_TEXT	SEGMENT
_this$ = -16						; size = 4
__$EHRec$ = -12						; size = 12
??1?$CUtlArray@UPhysicsPushedInfo_t@CPhysicsPushedEntities@@V?$CUtlMemory@UPhysicsPushedInfo_t@CPhysicsPushedEntities@@H@@@@QAE@XZ PROC ; CUtlArray<CPhysicsPushedEntities::PhysicsPushedInfo_t,CUtlMemory<CPhysicsPushedEntities::PhysicsPushedInfo_t,int> >::~CUtlArray<CPhysicsPushedEntities::PhysicsPushedInfo_t,CUtlMemory<CPhysicsPushedEntities::PhysicsPushedInfo_t,int> >, COMDAT
; _this$ = ecx

; 260  : {

	push	ebp
	mov	ebp, esp
	push	-1
	push	__ehhandler$??1?$CUtlArray@UPhysicsPushedInfo_t@CPhysicsPushedEntities@@V?$CUtlMemory@UPhysicsPushedInfo_t@CPhysicsPushedEntities@@H@@@@QAE@XZ
	mov	eax, DWORD PTR fs:0
	push	eax
	sub	esp, 68					; 00000044H
	push	ebx
	push	esi
	push	edi
	mov	eax, DWORD PTR ___security_cookie
	xor	eax, ebp
	push	eax
	lea	eax, DWORD PTR __$EHRec$[ebp]
	mov	DWORD PTR fs:0, eax
	mov	DWORD PTR _this$[ebp], ecx

; 261  : 	Purge();

	mov	ecx, DWORD PTR _this$[ebp]
	call	?Purge@?$CUtlArray@UPhysicsPushedInfo_t@CPhysicsPushedEntities@@V?$CUtlMemory@UPhysicsPushedInfo_t@CPhysicsPushedEntities@@H@@@@QAEXXZ ; CUtlArray<CPhysicsPushedEntities::PhysicsPushedInfo_t,CUtlMemory<CPhysicsPushedEntities::PhysicsPushedInfo_t,int> >::Purge

; 262  : }

	mov	ecx, DWORD PTR _this$[ebp]
	call	??1?$CUtlMemory@UPhysicsPushedInfo_t@CPhysicsPushedEntities@@H@@QAE@XZ ; CUtlMemory<CPhysicsPushedEntities::PhysicsPushedInfo_t,int>::~CUtlMemory<CPhysicsPushedEntities::PhysicsPushedInfo_t,int>
	mov	ecx, DWORD PTR __$EHRec$[ebp]
	mov	DWORD PTR fs:0, ecx
	pop	ecx
	pop	edi
	pop	esi
	pop	ebx
	mov	esp, ebp
	pop	ebp
	ret	0
_TEXT	ENDS
;	COMDAT text$x
text$x	SEGMENT
__ehhandler$??1?$CUtlArray@UPhysicsPushedInfo_t@CPhysicsPushedEntities@@V?$CUtlMemory@UPhysicsPushedInfo_t@CPhysicsPushedEntities@@H@@@@QAE@XZ:
	mov	edx, DWORD PTR [esp+8]
	lea	eax, DWORD PTR [edx+12]
	mov	ecx, DWORD PTR [edx-84]
	xor	ecx, eax
	call	@__security_check_cookie@4
	mov	eax, OFFSET __ehfuncinfo$??1?$CUtlArray@UPhysicsPushedInfo_t@CPhysicsPushedEntities@@V?$CUtlMemory@UPhysicsPushedInfo_t@CPhysicsPushedEntities@@H@@@@QAE@XZ
	jmp	___CxxFrameHandler3
text$x	ENDS
??1?$CUtlArray@UPhysicsPushedInfo_t@CPhysicsPushedEntities@@V?$CUtlMemory@UPhysicsPushedInfo_t@CPhysicsPushedEntities@@H@@@@QAE@XZ ENDP ; CUtlArray<CPhysicsPushedEntities::PhysicsPushedInfo_t,CUtlMemory<CPhysicsPushedEntities::PhysicsPushedInfo_t,int> >::~CUtlArray<CPhysicsPushedEntities::PhysicsPushedInfo_t,CUtlMemory<CPhysicsPushedEntities::PhysicsPushedInfo_t,int> >
; Function compile flags: /Odtp /ZI
; File d:\!diffusion 2020\source code 2022\client-server\game_shared\utlarray.h
;	COMDAT ??0?$CUtlArray@UPhysicsPushedInfo_t@CPhysicsPushedEntities@@V?$CUtlMemory@UPhysicsPushedInfo_t@CPhysicsPushedEntities@@H@@@@QAE@HH@Z
_TEXT	SEGMENT
_this$ = -16						; size = 4
__$EHRec$ = -12						; size = 12
_growSize$ = 8						; size = 4
_initSize$ = 12						; size = 4
??0?$CUtlArray@UPhysicsPushedInfo_t@CPhysicsPushedEntities@@V?$CUtlMemory@UPhysicsPushedInfo_t@CPhysicsPushedEntities@@H@@@@QAE@HH@Z PROC ; CUtlArray<CPhysicsPushedEntities::PhysicsPushedInfo_t,CUtlMemory<CPhysicsPushedEntities::PhysicsPushedInfo_t,int> >::CUtlArray<CPhysicsPushedEntities::PhysicsPushedInfo_t,CUtlMemory<CPhysicsPushedEntities::PhysicsPushedInfo_t,int> >, COMDAT
; _this$ = ecx

; 247  : {

	push	ebp
	mov	ebp, esp
	push	-1
	push	__ehhandler$??0?$CUtlArray@UPhysicsPushedInfo_t@CPhysicsPushedEntities@@V?$CUtlMemory@UPhysicsPushedInfo_t@CPhysicsPushedEntities@@H@@@@QAE@HH@Z
	mov	eax, DWORD PTR fs:0
	push	eax
	sub	esp, 68					; 00000044H
	push	ebx
	push	esi
	push	edi
	mov	eax, DWORD PTR ___security_cookie
	xor	eax, ebp
	push	eax
	lea	eax, DWORD PTR __$EHRec$[ebp]
	mov	DWORD PTR fs:0, eax
	mov	DWORD PTR _this$[ebp], ecx

; 246  : 	m_Memory(growSize, initSize), m_Size(0)

	mov	eax, DWORD PTR _initSize$[ebp]
	push	eax
	mov	ecx, DWORD PTR _growSize$[ebp]
	push	ecx
	mov	ecx, DWORD PTR _this$[ebp]
	call	??0?$CUtlMemory@UPhysicsPushedInfo_t@CPhysicsPushedEntities@@H@@QAE@HH@Z ; CUtlMemory<CPhysicsPushedEntities::PhysicsPushedInfo_t,int>::CUtlMemory<CPhysicsPushedEntities::PhysicsPushedInfo_t,int>
	mov	DWORD PTR __$EHRec$[ebp+8], 0
	mov	eax, DWORD PTR _this$[ebp]
	mov	DWORD PTR [eax+12], 0

; 248  : 	ResetDbgInfo();

	mov	ecx, DWORD PTR _this$[ebp]
	call	?ResetDbgInfo@?$CUtlArray@UPhysicsPushedInfo_t@CPhysicsPushedEntities@@V?$CUtlMemory@UPhysicsPushedInfo_t@CPhysicsPushedEntities@@H@@@@IAEXXZ ; CUtlArray<CPhysicsPushedEntities::PhysicsPushedInfo_t,CUtlMemory<CPhysicsPushedEntities::PhysicsPushedInfo_t,int> >::ResetDbgInfo

; 249  : }

	mov	DWORD PTR __$EHRec$[ebp+8], -1
	mov	eax, DWORD PTR _this$[ebp]
	mov	ecx, DWORD PTR __$EHRec$[ebp]
	mov	DWORD PTR fs:0, ecx
	pop	ecx
	pop	edi
	pop	esi
	pop	ebx
	mov	esp, ebp
	pop	ebp
	ret	8
_TEXT	ENDS
;	COMDAT text$x
text$x	SEGMENT
__unwindfunclet$??0?$CUtlArray@UPhysicsPushedInfo_t@CPhysicsPushedEntities@@V?$CUtlMemory@UPhysicsPushedInfo_t@CPhysicsPushedEntities@@H@@@@QAE@HH@Z$0:
	mov	ecx, DWORD PTR _this$[ebp]
	jmp	??1?$CUtlMemory@UPhysicsPushedInfo_t@CPhysicsPushedEntities@@H@@QAE@XZ ; CUtlMemory<CPhysicsPushedEntities::PhysicsPushedInfo_t,int>::~CUtlMemory<CPhysicsPushedEntities::PhysicsPushedInfo_t,int>
__ehhandler$??0?$CUtlArray@UPhysicsPushedInfo_t@CPhysicsPushedEntities@@V?$CUtlMemory@UPhysicsPushedInfo_t@CPhysicsPushedEntities@@H@@@@QAE@HH@Z:
	mov	edx, DWORD PTR [esp+8]
	lea	eax, DWORD PTR [edx+12]
	mov	ecx, DWORD PTR [edx-84]
	xor	ecx, eax
	call	@__security_check_cookie@4
	mov	eax, OFFSET __ehfuncinfo$??0?$CUtlArray@UPhysicsPushedInfo_t@CPhysicsPushedEntities@@V?$CUtlMemory@UPhysicsPushedInfo_t@CPhysicsPushedEntities@@H@@@@QAE@HH@Z
	jmp	___CxxFrameHandler3
text$x	ENDS
??0?$CUtlArray@UPhysicsPushedInfo_t@CPhysicsPushedEntities@@V?$CUtlMemory@UPhysicsPushedInfo_t@CPhysicsPushedEntities@@H@@@@QAE@HH@Z ENDP ; CUtlArray<CPhysicsPushedEntities::PhysicsPushedInfo_t,CUtlMemory<CPhysicsPushedEntities::PhysicsPushedInfo_t,int> >::CUtlArray<CPhysicsPushedEntities::PhysicsPushedInfo_t,CUtlMemory<CPhysicsPushedEntities::PhysicsPushedInfo_t,int> >
; Function compile flags: /Odtp /ZI
; File d:\!diffusion 2020\source code 2022\client-server\game_shared\utlarray.h
;	COMDAT ?ResetDbgInfo@?$CUtlArray@UPhysicsPusherInfo_t@CPhysicsPushedEntities@@V?$CUtlMemory@UPhysicsPusherInfo_t@CPhysicsPushedEntities@@H@@@@IAEXXZ
_TEXT	SEGMENT
_this$ = -4						; size = 4
?ResetDbgInfo@?$CUtlArray@UPhysicsPusherInfo_t@CPhysicsPushedEntities@@V?$CUtlMemory@UPhysicsPusherInfo_t@CPhysicsPushedEntities@@H@@@@IAEXXZ PROC ; CUtlArray<CPhysicsPushedEntities::PhysicsPusherInfo_t,CUtlMemory<CPhysicsPushedEntities::PhysicsPusherInfo_t,int> >::ResetDbgInfo, COMDAT
; _this$ = ecx

; 160  : 	{

	push	ebp
	mov	ebp, esp
	sub	esp, 68					; 00000044H
	push	ebx
	push	esi
	push	edi
	mov	DWORD PTR _this$[ebp], ecx

; 161  : 		m_pElements = Base();

	mov	ecx, DWORD PTR _this$[ebp]
	call	?Base@?$CUtlArray@UPhysicsPusherInfo_t@CPhysicsPushedEntities@@V?$CUtlMemory@UPhysicsPusherInfo_t@CPhysicsPushedEntities@@H@@@@QAEPAUPhysicsPusherInfo_t@CPhysicsPushedEntities@@XZ ; CUtlArray<CPhysicsPushedEntities::PhysicsPusherInfo_t,CUtlMemory<CPhysicsPushedEntities::PhysicsPusherInfo_t,int> >::Base
	mov	ecx, DWORD PTR _this$[ebp]
	mov	DWORD PTR [ecx+16], eax

; 162  : 	}

	pop	edi
	pop	esi
	pop	ebx
	mov	esp, ebp
	pop	ebp
	ret	0
?ResetDbgInfo@?$CUtlArray@UPhysicsPusherInfo_t@CPhysicsPushedEntities@@V?$CUtlMemory@UPhysicsPusherInfo_t@CPhysicsPushedEntities@@H@@@@IAEXXZ ENDP ; CUtlArray<CPhysicsPushedEntities::PhysicsPusherInfo_t,CUtlMemory<CPhysicsPushedEntities::PhysicsPusherInfo_t,int> >::ResetDbgInfo
_TEXT	ENDS
; Function compile flags: /Odtp /ZI
; File d:\!diffusion 2020\source code 2022\client-server\game_shared\utlmemory.h
;	COMDAT ?ValidateGrowSize@?$CUtlMemory@UPhysicsPusherInfo_t@CPhysicsPushedEntities@@H@@IAEXXZ
_TEXT	SEGMENT
_this$ = -4						; size = 4
?ValidateGrowSize@?$CUtlMemory@UPhysicsPusherInfo_t@CPhysicsPushedEntities@@H@@IAEXXZ PROC ; CUtlMemory<CPhysicsPushedEntities::PhysicsPusherInfo_t,int>::ValidateGrowSize, COMDAT
; _this$ = ecx

; 148  : 	{

	push	ebp
	mov	ebp, esp
	sub	esp, 68					; 00000044H
	push	ebx
	push	esi
	push	edi
	mov	DWORD PTR _this$[ebp], ecx

; 149  : #ifdef _X360
; 150  : 		if ( m_nGrowSize && m_nGrowSize != EXTERNAL_BUFFER_MARKER )
; 151  : 		{
; 152  : 			// Max grow size at 128 bytes on XBOX
; 153  : 			const int MAX_GROW = 128;
; 154  : 			if ( m_nGrowSize * sizeof(T) > MAX_GROW )
; 155  : 			{
; 156  : 				m_nGrowSize = max( 1, MAX_GROW / sizeof(T) );
; 157  : 			}
; 158  : 		}
; 159  : #endif
; 160  : 	}

	pop	edi
	pop	esi
	pop	ebx
	mov	esp, ebp
	pop	ebp
	ret	0
?ValidateGrowSize@?$CUtlMemory@UPhysicsPusherInfo_t@CPhysicsPushedEntities@@H@@IAEXXZ ENDP ; CUtlMemory<CPhysicsPushedEntities::PhysicsPusherInfo_t,int>::ValidateGrowSize
_TEXT	ENDS
; Function compile flags: /Odtp /ZI
; File d:\!diffusion 2020\source code 2022\client-server\game_shared\utlmemory.h
;	COMDAT ?IsReadOnly@?$CUtlMemory@UPhysicsPusherInfo_t@CPhysicsPushedEntities@@H@@QBE_NXZ
_TEXT	SEGMENT
tv66 = -72						; size = 4
_this$ = -4						; size = 4
?IsReadOnly@?$CUtlMemory@UPhysicsPusherInfo_t@CPhysicsPushedEntities@@H@@QBE_NXZ PROC ; CUtlMemory<CPhysicsPushedEntities::PhysicsPusherInfo_t,int>::IsReadOnly, COMDAT
; _this$ = ecx

; 467  : {

	push	ebp
	mov	ebp, esp
	sub	esp, 72					; 00000048H
	push	ebx
	push	esi
	push	edi
	mov	DWORD PTR _this$[ebp], ecx

; 468  : 	return (m_nGrowSize == EXTERNAL_CONST_BUFFER_MARKER);

	mov	eax, DWORD PTR _this$[ebp]
	cmp	DWORD PTR [eax+8], -2			; fffffffeH
	jne	SHORT $LN3@IsReadOnly
	mov	DWORD PTR tv66[ebp], 1
	jmp	SHORT $LN4@IsReadOnly
$LN3@IsReadOnly:
	mov	DWORD PTR tv66[ebp], 0
$LN4@IsReadOnly:
	mov	al, BYTE PTR tv66[ebp]

; 469  : }

	pop	edi
	pop	esi
	pop	ebx
	mov	esp, ebp
	pop	ebp
	ret	0
?IsReadOnly@?$CUtlMemory@UPhysicsPusherInfo_t@CPhysicsPushedEntities@@H@@QBE_NXZ ENDP ; CUtlMemory<CPhysicsPushedEntities::PhysicsPusherInfo_t,int>::IsReadOnly
_TEXT	ENDS
; Function compile flags: /Odtp /ZI
; File d:\!diffusion 2020\source code 2022\client-server\game_shared\utlmemory.h
;	COMDAT ?IsExternallyAllocated@?$CUtlMemory@UPhysicsPusherInfo_t@CPhysicsPushedEntities@@H@@QBE_NXZ
_TEXT	SEGMENT
tv66 = -72						; size = 4
_this$ = -4						; size = 4
?IsExternallyAllocated@?$CUtlMemory@UPhysicsPusherInfo_t@CPhysicsPushedEntities@@H@@QBE_NXZ PROC ; CUtlMemory<CPhysicsPushedEntities::PhysicsPusherInfo_t,int>::IsExternallyAllocated, COMDAT
; _this$ = ecx

; 457  : {

	push	ebp
	mov	ebp, esp
	sub	esp, 72					; 00000048H
	push	ebx
	push	esi
	push	edi
	mov	DWORD PTR _this$[ebp], ecx

; 458  : 	return (m_nGrowSize < 0);

	mov	eax, DWORD PTR _this$[ebp]
	cmp	DWORD PTR [eax+8], 0
	jge	SHORT $LN3@IsExternal
	mov	DWORD PTR tv66[ebp], 1
	jmp	SHORT $LN4@IsExternal
$LN3@IsExternal:
	mov	DWORD PTR tv66[ebp], 0
$LN4@IsExternal:
	mov	al, BYTE PTR tv66[ebp]

; 459  : }

	pop	edi
	pop	esi
	pop	ebx
	mov	esp, ebp
	pop	ebp
	ret	0
?IsExternallyAllocated@?$CUtlMemory@UPhysicsPusherInfo_t@CPhysicsPushedEntities@@H@@QBE_NXZ ENDP ; CUtlMemory<CPhysicsPushedEntities::PhysicsPusherInfo_t,int>::IsExternallyAllocated
_TEXT	ENDS
; Function compile flags: /Odtp /ZI
; File d:\!diffusion 2020\source code 2022\client-server\game_shared\utlmemory.h
;	COMDAT ?Purge@?$CUtlMemory@UPhysicsPusherInfo_t@CPhysicsPushedEntities@@H@@QAEXXZ
_TEXT	SEGMENT
_this$ = -4						; size = 4
?Purge@?$CUtlMemory@UPhysicsPusherInfo_t@CPhysicsPushedEntities@@H@@QAEXXZ PROC ; CUtlMemory<CPhysicsPushedEntities::PhysicsPusherInfo_t,int>::Purge, COMDAT
; _this$ = ecx

; 645  : {

	push	ebp
	mov	ebp, esp
	sub	esp, 68					; 00000044H
	push	ebx
	push	esi
	push	edi
	mov	DWORD PTR _this$[ebp], ecx

; 646  : 	if ( !IsExternallyAllocated() )

	mov	ecx, DWORD PTR _this$[ebp]
	call	?IsExternallyAllocated@?$CUtlMemory@UPhysicsPusherInfo_t@CPhysicsPushedEntities@@H@@QBE_NXZ ; CUtlMemory<CPhysicsPushedEntities::PhysicsPusherInfo_t,int>::IsExternallyAllocated
	movzx	eax, al
	test	eax, eax
	jne	SHORT $LN1@Purge

; 647  : 	{
; 648  : 		if (m_pMemory)

	mov	eax, DWORD PTR _this$[ebp]
	cmp	DWORD PTR [eax], 0
	je	SHORT $LN3@Purge

; 649  : 		{
; 650  : 			free( (void*)m_pMemory );

	mov	eax, DWORD PTR _this$[ebp]
	mov	ecx, DWORD PTR [eax]
	push	ecx
	call	_free
	add	esp, 4

; 651  : 			m_pMemory = 0;

	mov	eax, DWORD PTR _this$[ebp]
	mov	DWORD PTR [eax], 0
$LN3@Purge:

; 652  : 		}
; 653  : 		m_nAllocationCount = 0;

	mov	eax, DWORD PTR _this$[ebp]
	mov	DWORD PTR [eax+4], 0
$LN1@Purge:

; 654  : 	}
; 655  : }

	pop	edi
	pop	esi
	pop	ebx
	mov	esp, ebp
	pop	ebp
	ret	0
?Purge@?$CUtlMemory@UPhysicsPusherInfo_t@CPhysicsPushedEntities@@H@@QAEXXZ ENDP ; CUtlMemory<CPhysicsPushedEntities::PhysicsPusherInfo_t,int>::Purge
_TEXT	ENDS
; Function compile flags: /Odtp /ZI
; File d:\!diffusion 2020\source code 2022\client-server\game_shared\utlmemory.h
;	COMDAT ?Grow@?$CUtlMemory@UPhysicsPusherInfo_t@CPhysicsPushedEntities@@H@@QAEXH@Z
_TEXT	SEGMENT
_nAllocationRequested$ = -8				; size = 4
_this$ = -4						; size = 4
_num$ = 8						; size = 4
?Grow@?$CUtlMemory@UPhysicsPusherInfo_t@CPhysicsPushedEntities@@H@@QAEXH@Z PROC ; CUtlMemory<CPhysicsPushedEntities::PhysicsPusherInfo_t,int>::Grow, COMDAT
; _this$ = ecx

; 560  : {

	push	ebp
	mov	ebp, esp
	sub	esp, 72					; 00000048H
	push	ebx
	push	esi
	push	edi
	mov	DWORD PTR _this$[ebp], ecx

; 561  : 	assert( num > 0 );

	cmp	DWORD PTR _num$[ebp], 0
	jg	SHORT $LN12@Grow
	push	561					; 00000231H
	push	OFFSET ??_C@_1JE@CIIIAKCN@?$AAd?$AA?3?$AA?2?$AA?$CB?$AAd?$AAi?$AAf?$AAf?$AAu?$AAs?$AAi?$AAo?$AAn?$AA?5?$AA2?$AA0?$AA2?$AA0?$AA?2?$AAs?$AAo?$AAu?$AAr?$AAc?$AAe?$AA?5?$AAc?$AAo?$AAd?$AAe?$AA?5?$AA2@
	push	OFFSET ??_C@_1BA@PKCLMAEA@?$AAn?$AAu?$AAm?$AA?5?$AA?$DO?$AA?5?$AA0?$AA?$AA@
	call	__wassert
	add	esp, 12					; 0000000cH
$LN12@Grow:

; 562  : 
; 563  : 	if ( IsExternallyAllocated() )

	mov	ecx, DWORD PTR _this$[ebp]
	call	?IsExternallyAllocated@?$CUtlMemory@UPhysicsPusherInfo_t@CPhysicsPushedEntities@@H@@QBE_NXZ ; CUtlMemory<CPhysicsPushedEntities::PhysicsPusherInfo_t,int>::IsExternallyAllocated
	movzx	eax, al
	test	eax, eax
	je	SHORT $LN4@Grow

; 564  : 	{
; 565  : 		// Can't grow a buffer whose memory was externally allocated 
; 566  : 		assert(0);

	xor	eax, eax
	jne	SHORT $LN13@Grow
	push	566					; 00000236H
	push	OFFSET ??_C@_1JE@CIIIAKCN@?$AAd?$AA?3?$AA?2?$AA?$CB?$AAd?$AAi?$AAf?$AAf?$AAu?$AAs?$AAi?$AAo?$AAn?$AA?5?$AA2?$AA0?$AA2?$AA0?$AA?2?$AAs?$AAo?$AAu?$AAr?$AAc?$AAe?$AA?5?$AAc?$AAo?$AAd?$AAe?$AA?5?$AA2@
	push	OFFSET ??_C@_13COJANIEC@?$AA0?$AA?$AA@
	call	__wassert
	add	esp, 12					; 0000000cH
$LN13@Grow:

; 567  : 		return;

	jmp	$LN1@Grow
$LN4@Grow:

; 568  : 	}
; 569  : 
; 570  : 	// Make sure we have at least numallocated + num allocations.
; 571  : 	// Use the grow rules specified for this memory (in m_nGrowSize)
; 572  : 	int nAllocationRequested = m_nAllocationCount + num;

	mov	eax, DWORD PTR _this$[ebp]
	mov	ecx, DWORD PTR [eax+4]
	add	ecx, DWORD PTR _num$[ebp]
	mov	DWORD PTR _nAllocationRequested$[ebp], ecx

; 573  : 
; 574  : 	m_nAllocationCount = UtlMemory_CalcNewAllocationCount( m_nAllocationCount, m_nGrowSize, nAllocationRequested, sizeof(T) );

	push	16					; 00000010H
	mov	eax, DWORD PTR _nAllocationRequested$[ebp]
	push	eax
	mov	ecx, DWORD PTR _this$[ebp]
	mov	edx, DWORD PTR [ecx+8]
	push	edx
	mov	eax, DWORD PTR _this$[ebp]
	mov	ecx, DWORD PTR [eax+4]
	push	ecx
	call	?UtlMemory_CalcNewAllocationCount@@YAHHHHH@Z ; UtlMemory_CalcNewAllocationCount
	add	esp, 16					; 00000010H
	mov	edx, DWORD PTR _this$[ebp]
	mov	DWORD PTR [edx+4], eax

; 575  : 
; 576  : 	// if m_nAllocationRequested wraps index type I, recalculate
; 577  : 	if ( ( int )( I )m_nAllocationCount < nAllocationRequested )

	mov	eax, DWORD PTR _this$[ebp]
	mov	ecx, DWORD PTR [eax+4]
	cmp	ecx, DWORD PTR _nAllocationRequested$[ebp]
	jge	SHORT $LN5@Grow

; 578  : 	{
; 579  : 		if ( ( int )( I )m_nAllocationCount == 0 && ( int )( I )( m_nAllocationCount - 1 ) >= nAllocationRequested )

	mov	eax, DWORD PTR _this$[ebp]
	cmp	DWORD PTR [eax+4], 0
	jne	SHORT $LN6@Grow
	mov	eax, DWORD PTR _this$[ebp]
	mov	ecx, DWORD PTR [eax+4]
	sub	ecx, 1
	cmp	ecx, DWORD PTR _nAllocationRequested$[ebp]
	jl	SHORT $LN6@Grow

; 580  : 		{
; 581  : 			--m_nAllocationCount; // deal w/ the common case of m_nAllocationCount == MAX_USHORT + 1

	mov	eax, DWORD PTR _this$[ebp]
	mov	ecx, DWORD PTR [eax+4]
	sub	ecx, 1
	mov	edx, DWORD PTR _this$[ebp]
	mov	DWORD PTR [edx+4], ecx

; 582  : 		}
; 583  : 		else

	jmp	SHORT $LN5@Grow
$LN6@Grow:

; 584  : 		{
; 585  : 			if ( ( int )( I )nAllocationRequested != nAllocationRequested )

	mov	eax, DWORD PTR _nAllocationRequested$[ebp]
	cmp	eax, DWORD PTR _nAllocationRequested$[ebp]
	je	SHORT $LN2@Grow

; 586  : 			{
; 587  : 				// we've been asked to grow memory to a size s.t. the index type can't address the requested amount of memory
; 588  : 				assert( 0 );

	xor	eax, eax
	jne	SHORT $LN14@Grow
	push	588					; 0000024cH
	push	OFFSET ??_C@_1JE@CIIIAKCN@?$AAd?$AA?3?$AA?2?$AA?$CB?$AAd?$AAi?$AAf?$AAf?$AAu?$AAs?$AAi?$AAo?$AAn?$AA?5?$AA2?$AA0?$AA2?$AA0?$AA?2?$AAs?$AAo?$AAu?$AAr?$AAc?$AAe?$AA?5?$AAc?$AAo?$AAd?$AAe?$AA?5?$AA2@
	push	OFFSET ??_C@_13COJANIEC@?$AA0?$AA?$AA@
	call	__wassert
	add	esp, 12					; 0000000cH
$LN14@Grow:

; 589  : 				return;

	jmp	$LN1@Grow
$LN2@Grow:

; 590  : 			}
; 591  : 			while ( ( int )( I )m_nAllocationCount < nAllocationRequested )

	mov	eax, DWORD PTR _this$[ebp]
	mov	ecx, DWORD PTR [eax+4]
	cmp	ecx, DWORD PTR _nAllocationRequested$[ebp]
	jge	SHORT $LN5@Grow

; 592  : 			{
; 593  : 				m_nAllocationCount = ( m_nAllocationCount + nAllocationRequested ) / 2;

	mov	eax, DWORD PTR _this$[ebp]
	mov	eax, DWORD PTR [eax+4]
	add	eax, DWORD PTR _nAllocationRequested$[ebp]
	cdq
	sub	eax, edx
	sar	eax, 1
	mov	ecx, DWORD PTR _this$[ebp]
	mov	DWORD PTR [ecx+4], eax

; 594  : 			}

	jmp	SHORT $LN2@Grow
$LN5@Grow:

; 595  : 		}
; 596  : 	}
; 597  : 
; 598  : 	if (m_pMemory)

	mov	eax, DWORD PTR _this$[ebp]
	cmp	DWORD PTR [eax], 0
	je	SHORT $LN9@Grow

; 599  : 	{
; 600  : 		m_pMemory = (T*)realloc( m_pMemory, m_nAllocationCount * sizeof(T) );

	mov	eax, DWORD PTR _this$[ebp]
	mov	ecx, DWORD PTR [eax+4]
	shl	ecx, 4
	push	ecx
	mov	edx, DWORD PTR _this$[ebp]
	mov	eax, DWORD PTR [edx]
	push	eax
	call	_realloc
	add	esp, 8
	mov	ecx, DWORD PTR _this$[ebp]
	mov	DWORD PTR [ecx], eax

; 601  : 		assert( m_pMemory );

	mov	eax, DWORD PTR _this$[ebp]
	cmp	DWORD PTR [eax], 0
	jne	SHORT $LN15@Grow
	push	601					; 00000259H
	push	OFFSET ??_C@_1JE@CIIIAKCN@?$AAd?$AA?3?$AA?2?$AA?$CB?$AAd?$AAi?$AAf?$AAf?$AAu?$AAs?$AAi?$AAo?$AAn?$AA?5?$AA2?$AA0?$AA2?$AA0?$AA?2?$AAs?$AAo?$AAu?$AAr?$AAc?$AAe?$AA?5?$AAc?$AAo?$AAd?$AAe?$AA?5?$AA2@
	push	OFFSET ??_C@_1BE@OPPFELHC@?$AAm?$AA_?$AAp?$AAM?$AAe?$AAm?$AAo?$AAr?$AAy?$AA?$AA@
	call	__wassert
	add	esp, 12					; 0000000cH
$LN15@Grow:

; 602  : 	}
; 603  : 	else

	jmp	SHORT $LN1@Grow
$LN9@Grow:

; 604  : 	{
; 605  : 		m_pMemory = (T*)malloc( m_nAllocationCount * sizeof(T) );

	mov	eax, DWORD PTR _this$[ebp]
	mov	ecx, DWORD PTR [eax+4]
	shl	ecx, 4
	push	ecx
	call	_malloc
	add	esp, 4
	mov	edx, DWORD PTR _this$[ebp]
	mov	DWORD PTR [edx], eax

; 606  : 		assert( m_pMemory );

	mov	eax, DWORD PTR _this$[ebp]
	cmp	DWORD PTR [eax], 0
	jne	SHORT $LN1@Grow
	push	606					; 0000025eH
	push	OFFSET ??_C@_1JE@CIIIAKCN@?$AAd?$AA?3?$AA?2?$AA?$CB?$AAd?$AAi?$AAf?$AAf?$AAu?$AAs?$AAi?$AAo?$AAn?$AA?5?$AA2?$AA0?$AA2?$AA0?$AA?2?$AAs?$AAo?$AAu?$AAr?$AAc?$AAe?$AA?5?$AAc?$AAo?$AAd?$AAe?$AA?5?$AA2@
	push	OFFSET ??_C@_1BE@OPPFELHC@?$AAm?$AA_?$AAp?$AAM?$AAe?$AAm?$AAo?$AAr?$AAy?$AA?$AA@
	call	__wassert
	add	esp, 12					; 0000000cH
$LN1@Grow:

; 607  : 	}
; 608  : }

	pop	edi
	pop	esi
	pop	ebx
	mov	esp, ebp
	pop	ebp
	ret	4
?Grow@?$CUtlMemory@UPhysicsPusherInfo_t@CPhysicsPushedEntities@@H@@QAEXH@Z ENDP ; CUtlMemory<CPhysicsPushedEntities::PhysicsPusherInfo_t,int>::Grow
_TEXT	ENDS
; Function compile flags: /Odtp /ZI
; File d:\!diffusion 2020\source code 2022\client-server\game_shared\utlmemory.h
;	COMDAT ?NumAllocated@?$CUtlMemory@UPhysicsPusherInfo_t@CPhysicsPushedEntities@@H@@QBEHXZ
_TEXT	SEGMENT
_this$ = -4						; size = 4
?NumAllocated@?$CUtlMemory@UPhysicsPusherInfo_t@CPhysicsPushedEntities@@H@@QBEHXZ PROC ; CUtlMemory<CPhysicsPushedEntities::PhysicsPusherInfo_t,int>::NumAllocated, COMDAT
; _this$ = ecx

; 504  : {

	push	ebp
	mov	ebp, esp
	sub	esp, 68					; 00000044H
	push	ebx
	push	esi
	push	edi
	mov	DWORD PTR _this$[ebp], ecx

; 505  : 	return m_nAllocationCount;

	mov	eax, DWORD PTR _this$[ebp]
	mov	eax, DWORD PTR [eax+4]

; 506  : }

	pop	edi
	pop	esi
	pop	ebx
	mov	esp, ebp
	pop	ebp
	ret	0
?NumAllocated@?$CUtlMemory@UPhysicsPusherInfo_t@CPhysicsPushedEntities@@H@@QBEHXZ ENDP ; CUtlMemory<CPhysicsPushedEntities::PhysicsPusherInfo_t,int>::NumAllocated
_TEXT	ENDS
; Function compile flags: /Odtp /ZI
; File d:\!diffusion 2020\source code 2022\client-server\game_shared\utlmemory.h
;	COMDAT ?Base@?$CUtlMemory@UPhysicsPusherInfo_t@CPhysicsPushedEntities@@H@@QAEPAUPhysicsPusherInfo_t@CPhysicsPushedEntities@@XZ
_TEXT	SEGMENT
_this$ = -4						; size = 4
?Base@?$CUtlMemory@UPhysicsPusherInfo_t@CPhysicsPushedEntities@@H@@QAEPAUPhysicsPusherInfo_t@CPhysicsPushedEntities@@XZ PROC ; CUtlMemory<CPhysicsPushedEntities::PhysicsPusherInfo_t,int>::Base, COMDAT
; _this$ = ecx

; 487  : {

	push	ebp
	mov	ebp, esp
	sub	esp, 68					; 00000044H
	push	ebx
	push	esi
	push	edi
	mov	DWORD PTR _this$[ebp], ecx

; 488  : 	assert( !IsReadOnly() );

	mov	ecx, DWORD PTR _this$[ebp]
	call	?IsReadOnly@?$CUtlMemory@UPhysicsPusherInfo_t@CPhysicsPushedEntities@@H@@QBE_NXZ ; CUtlMemory<CPhysicsPushedEntities::PhysicsPusherInfo_t,int>::IsReadOnly
	movzx	eax, al
	test	eax, eax
	je	SHORT $LN3@Base
	push	488					; 000001e8H
	push	OFFSET ??_C@_1JE@CIIIAKCN@?$AAd?$AA?3?$AA?2?$AA?$CB?$AAd?$AAi?$AAf?$AAf?$AAu?$AAs?$AAi?$AAo?$AAn?$AA?5?$AA2?$AA0?$AA2?$AA0?$AA?2?$AAs?$AAo?$AAu?$AAr?$AAc?$AAe?$AA?5?$AAc?$AAo?$AAd?$AAe?$AA?5?$AA2@
	push	OFFSET ??_C@_1BM@PFNFCCHH@?$AA?$CB?$AAI?$AAs?$AAR?$AAe?$AAa?$AAd?$AAO?$AAn?$AAl?$AAy?$AA?$CI?$AA?$CJ?$AA?$AA@
	call	__wassert
	add	esp, 12					; 0000000cH
$LN3@Base:

; 489  : 	return m_pMemory;

	mov	eax, DWORD PTR _this$[ebp]
	mov	eax, DWORD PTR [eax]

; 490  : }

	pop	edi
	pop	esi
	pop	ebx
	mov	esp, ebp
	pop	ebp
	ret	0
?Base@?$CUtlMemory@UPhysicsPusherInfo_t@CPhysicsPushedEntities@@H@@QAEPAUPhysicsPusherInfo_t@CPhysicsPushedEntities@@XZ ENDP ; CUtlMemory<CPhysicsPushedEntities::PhysicsPusherInfo_t,int>::Base
_TEXT	ENDS
; Function compile flags: /Odtp /ZI
; File d:\!diffusion 2020\source code 2022\client-server\game_shared\utlmemory.h
;	COMDAT ?IsIdxValid@?$CUtlMemory@UPhysicsPusherInfo_t@CPhysicsPushedEntities@@H@@QBE_NH@Z
_TEXT	SEGMENT
tv67 = -72						; size = 4
_this$ = -4						; size = 4
_i$ = 8							; size = 4
?IsIdxValid@?$CUtlMemory@UPhysicsPusherInfo_t@CPhysicsPushedEntities@@H@@QBE_NH@Z PROC ; CUtlMemory<CPhysicsPushedEntities::PhysicsPusherInfo_t,int>::IsIdxValid, COMDAT
; _this$ = ecx

; 520  : {

	push	ebp
	mov	ebp, esp
	sub	esp, 72					; 00000048H
	push	ebx
	push	esi
	push	edi
	mov	DWORD PTR _this$[ebp], ecx

; 521  : 	return ( ((int) i) >= 0 ) && ( ((int) i) < m_nAllocationCount );

	cmp	DWORD PTR _i$[ebp], 0
	jl	SHORT $LN3@IsIdxValid
	mov	eax, DWORD PTR _this$[ebp]
	mov	ecx, DWORD PTR _i$[ebp]
	cmp	ecx, DWORD PTR [eax+4]
	jge	SHORT $LN3@IsIdxValid
	mov	DWORD PTR tv67[ebp], 1
	jmp	SHORT $LN4@IsIdxValid
$LN3@IsIdxValid:
	mov	DWORD PTR tv67[ebp], 0
$LN4@IsIdxValid:
	mov	al, BYTE PTR tv67[ebp]

; 522  : }

	pop	edi
	pop	esi
	pop	ebx
	mov	esp, ebp
	pop	ebp
	ret	4
?IsIdxValid@?$CUtlMemory@UPhysicsPusherInfo_t@CPhysicsPushedEntities@@H@@QBE_NH@Z ENDP ; CUtlMemory<CPhysicsPushedEntities::PhysicsPusherInfo_t,int>::IsIdxValid
_TEXT	ENDS
; Function compile flags: /Odtp /ZI
; File d:\!diffusion 2020\source code 2022\client-server\game_shared\utlmemory.h
;	COMDAT ??A?$CUtlMemory@UPhysicsPusherInfo_t@CPhysicsPushedEntities@@H@@QAEAAUPhysicsPusherInfo_t@CPhysicsPushedEntities@@H@Z
_TEXT	SEGMENT
_this$ = -4						; size = 4
_i$ = 8							; size = 4
??A?$CUtlMemory@UPhysicsPusherInfo_t@CPhysicsPushedEntities@@H@@QAEAAUPhysicsPusherInfo_t@CPhysicsPushedEntities@@H@Z PROC ; CUtlMemory<CPhysicsPushedEntities::PhysicsPusherInfo_t,int>::operator[], COMDAT
; _this$ = ecx

; 423  : {

	push	ebp
	mov	ebp, esp
	sub	esp, 68					; 00000044H
	push	ebx
	push	esi
	push	edi
	mov	DWORD PTR _this$[ebp], ecx

; 424  : 	assert( !IsReadOnly() );

	mov	ecx, DWORD PTR _this$[ebp]
	call	?IsReadOnly@?$CUtlMemory@UPhysicsPusherInfo_t@CPhysicsPushedEntities@@H@@QBE_NXZ ; CUtlMemory<CPhysicsPushedEntities::PhysicsPusherInfo_t,int>::IsReadOnly
	movzx	eax, al
	test	eax, eax
	je	SHORT $LN3@operator
	push	424					; 000001a8H
	push	OFFSET ??_C@_1JE@CIIIAKCN@?$AAd?$AA?3?$AA?2?$AA?$CB?$AAd?$AAi?$AAf?$AAf?$AAu?$AAs?$AAi?$AAo?$AAn?$AA?5?$AA2?$AA0?$AA2?$AA0?$AA?2?$AAs?$AAo?$AAu?$AAr?$AAc?$AAe?$AA?5?$AAc?$AAo?$AAd?$AAe?$AA?5?$AA2@
	push	OFFSET ??_C@_1BM@PFNFCCHH@?$AA?$CB?$AAI?$AAs?$AAR?$AAe?$AAa?$AAd?$AAO?$AAn?$AAl?$AAy?$AA?$CI?$AA?$CJ?$AA?$AA@
	call	__wassert
	add	esp, 12					; 0000000cH
$LN3@operator:

; 425  : 	assert( IsIdxValid(i) );

	mov	eax, DWORD PTR _i$[ebp]
	push	eax
	mov	ecx, DWORD PTR _this$[ebp]
	call	?IsIdxValid@?$CUtlMemory@UPhysicsPusherInfo_t@CPhysicsPushedEntities@@H@@QBE_NH@Z ; CUtlMemory<CPhysicsPushedEntities::PhysicsPusherInfo_t,int>::IsIdxValid
	movzx	ecx, al
	test	ecx, ecx
	jne	SHORT $LN4@operator
	push	425					; 000001a9H
	push	OFFSET ??_C@_1JE@CIIIAKCN@?$AAd?$AA?3?$AA?2?$AA?$CB?$AAd?$AAi?$AAf?$AAf?$AAu?$AAs?$AAi?$AAo?$AAn?$AA?5?$AA2?$AA0?$AA2?$AA0?$AA?2?$AAs?$AAo?$AAu?$AAr?$AAc?$AAe?$AA?5?$AAc?$AAo?$AAd?$AAe?$AA?5?$AA2@
	push	OFFSET ??_C@_1BM@CKILBAKK@?$AAI?$AAs?$AAI?$AAd?$AAx?$AAV?$AAa?$AAl?$AAi?$AAd?$AA?$CI?$AAi?$AA?$CJ?$AA?$AA@
	call	__wassert
	add	esp, 12					; 0000000cH
$LN4@operator:

; 426  : 	return m_pMemory[i];

	mov	eax, DWORD PTR _i$[ebp]
	shl	eax, 4
	mov	ecx, DWORD PTR _this$[ebp]
	add	eax, DWORD PTR [ecx]

; 427  : }

	pop	edi
	pop	esi
	pop	ebx
	mov	esp, ebp
	pop	ebp
	ret	4
??A?$CUtlMemory@UPhysicsPusherInfo_t@CPhysicsPushedEntities@@H@@QAEAAUPhysicsPusherInfo_t@CPhysicsPushedEntities@@H@Z ENDP ; CUtlMemory<CPhysicsPushedEntities::PhysicsPusherInfo_t,int>::operator[]
_TEXT	ENDS
; Function compile flags: /Odtp /ZI
; File d:\!diffusion 2020\source code 2022\client-server\game_shared\utlmemory.h
;	COMDAT ??1?$CUtlMemory@UPhysicsPusherInfo_t@CPhysicsPushedEntities@@H@@QAE@XZ
_TEXT	SEGMENT
_this$ = -16						; size = 4
__$EHRec$ = -12						; size = 12
??1?$CUtlMemory@UPhysicsPusherInfo_t@CPhysicsPushedEntities@@H@@QAE@XZ PROC ; CUtlMemory<CPhysicsPushedEntities::PhysicsPusherInfo_t,int>::~CUtlMemory<CPhysicsPushedEntities::PhysicsPusherInfo_t,int>, COMDAT
; _this$ = ecx

; 322  : {

	push	ebp
	mov	ebp, esp
	push	-1
	push	__ehhandler$??1?$CUtlMemory@UPhysicsPusherInfo_t@CPhysicsPushedEntities@@H@@QAE@XZ
	mov	eax, DWORD PTR fs:0
	push	eax
	sub	esp, 68					; 00000044H
	push	ebx
	push	esi
	push	edi
	mov	eax, DWORD PTR ___security_cookie
	xor	eax, ebp
	push	eax
	lea	eax, DWORD PTR __$EHRec$[ebp]
	mov	DWORD PTR fs:0, eax
	mov	DWORD PTR _this$[ebp], ecx

; 323  : 	Purge();

	mov	ecx, DWORD PTR _this$[ebp]
	call	?Purge@?$CUtlMemory@UPhysicsPusherInfo_t@CPhysicsPushedEntities@@H@@QAEXXZ ; CUtlMemory<CPhysicsPushedEntities::PhysicsPusherInfo_t,int>::Purge

; 324  : }

	mov	ecx, DWORD PTR __$EHRec$[ebp]
	mov	DWORD PTR fs:0, ecx
	pop	ecx
	pop	edi
	pop	esi
	pop	ebx
	mov	esp, ebp
	pop	ebp
	ret	0
_TEXT	ENDS
;	COMDAT text$x
text$x	SEGMENT
__ehhandler$??1?$CUtlMemory@UPhysicsPusherInfo_t@CPhysicsPushedEntities@@H@@QAE@XZ:
	mov	edx, DWORD PTR [esp+8]
	lea	eax, DWORD PTR [edx+12]
	mov	ecx, DWORD PTR [edx-84]
	xor	ecx, eax
	call	@__security_check_cookie@4
	mov	eax, OFFSET __ehfuncinfo$??1?$CUtlMemory@UPhysicsPusherInfo_t@CPhysicsPushedEntities@@H@@QAE@XZ
	jmp	___CxxFrameHandler3
text$x	ENDS
??1?$CUtlMemory@UPhysicsPusherInfo_t@CPhysicsPushedEntities@@H@@QAE@XZ ENDP ; CUtlMemory<CPhysicsPushedEntities::PhysicsPusherInfo_t,int>::~CUtlMemory<CPhysicsPushedEntities::PhysicsPusherInfo_t,int>
; Function compile flags: /Odtp /ZI
; File d:\!diffusion 2020\source code 2022\client-server\game_shared\utlmemory.h
;	COMDAT ??0?$CUtlMemory@UPhysicsPusherInfo_t@CPhysicsPushedEntities@@H@@QAE@HH@Z
_TEXT	SEGMENT
_this$ = -4						; size = 4
_nGrowSize$ = 8						; size = 4
_nInitAllocationCount$ = 12				; size = 4
??0?$CUtlMemory@UPhysicsPusherInfo_t@CPhysicsPushedEntities@@H@@QAE@HH@Z PROC ; CUtlMemory<CPhysicsPushedEntities::PhysicsPusherInfo_t,int>::CUtlMemory<CPhysicsPushedEntities::PhysicsPusherInfo_t,int>, COMDAT
; _this$ = ecx

; 295  : {

	push	ebp
	mov	ebp, esp
	sub	esp, 68					; 00000044H
	push	ebx
	push	esi
	push	edi
	mov	DWORD PTR _this$[ebp], ecx

; 293  : CUtlMemory<T,I>::CUtlMemory( int nGrowSize, int nInitAllocationCount ) : m_pMemory(0), 

	mov	eax, DWORD PTR _this$[ebp]
	mov	DWORD PTR [eax], 0

; 294  : 	m_nAllocationCount( nInitAllocationCount ), m_nGrowSize( nGrowSize )

	mov	eax, DWORD PTR _this$[ebp]
	mov	ecx, DWORD PTR _nInitAllocationCount$[ebp]
	mov	DWORD PTR [eax+4], ecx
	mov	eax, DWORD PTR _this$[ebp]
	mov	ecx, DWORD PTR _nGrowSize$[ebp]
	mov	DWORD PTR [eax+8], ecx

; 296  : 	ValidateGrowSize();

	mov	ecx, DWORD PTR _this$[ebp]
	call	?ValidateGrowSize@?$CUtlMemory@UPhysicsPusherInfo_t@CPhysicsPushedEntities@@H@@IAEXXZ ; CUtlMemory<CPhysicsPushedEntities::PhysicsPusherInfo_t,int>::ValidateGrowSize

; 297  : 	assert( nGrowSize >= 0 );

	cmp	DWORD PTR _nGrowSize$[ebp], 0
	jge	SHORT $LN4@CUtlMemory
	push	297					; 00000129H
	push	OFFSET ??_C@_1JE@CIIIAKCN@?$AAd?$AA?3?$AA?2?$AA?$CB?$AAd?$AAi?$AAf?$AAf?$AAu?$AAs?$AAi?$AAo?$AAn?$AA?5?$AA2?$AA0?$AA2?$AA0?$AA?2?$AAs?$AAo?$AAu?$AAr?$AAc?$AAe?$AA?5?$AAc?$AAo?$AAd?$AAe?$AA?5?$AA2@
	push	OFFSET ??_C@_1BO@FOOHAONO@?$AAn?$AAG?$AAr?$AAo?$AAw?$AAS?$AAi?$AAz?$AAe?$AA?5?$AA?$DO?$AA?$DN?$AA?5?$AA0?$AA?$AA@
	call	__wassert
	add	esp, 12					; 0000000cH
$LN4@CUtlMemory:

; 298  : 	if (m_nAllocationCount)

	mov	eax, DWORD PTR _this$[ebp]
	cmp	DWORD PTR [eax+4], 0
	je	SHORT $LN1@CUtlMemory

; 299  : 	{
; 300  : 		m_pMemory = (T*)malloc( m_nAllocationCount * sizeof(T) );

	mov	eax, DWORD PTR _this$[ebp]
	mov	ecx, DWORD PTR [eax+4]
	shl	ecx, 4
	push	ecx
	call	_malloc
	add	esp, 4
	mov	edx, DWORD PTR _this$[ebp]
	mov	DWORD PTR [edx], eax
$LN1@CUtlMemory:

; 301  : 	}
; 302  : }

	mov	eax, DWORD PTR _this$[ebp]
	pop	edi
	pop	esi
	pop	ebx
	mov	esp, ebp
	pop	ebp
	ret	8
??0?$CUtlMemory@UPhysicsPusherInfo_t@CPhysicsPushedEntities@@H@@QAE@HH@Z ENDP ; CUtlMemory<CPhysicsPushedEntities::PhysicsPusherInfo_t,int>::CUtlMemory<CPhysicsPushedEntities::PhysicsPusherInfo_t,int>
_TEXT	ENDS
; Function compile flags: /Odtp /ZI
; File d:\!diffusion 2020\source code 2022\client-server\game_shared\utlarray.h
;	COMDAT ?ShiftElementsRight@?$CUtlArray@UPhysicsPusherInfo_t@CPhysicsPushedEntities@@V?$CUtlMemory@UPhysicsPusherInfo_t@CPhysicsPushedEntities@@H@@@@IAEXHH@Z
_TEXT	SEGMENT
_numToMove$ = -8					; size = 4
_this$ = -4						; size = 4
_elem$ = 8						; size = 4
_num$ = 12						; size = 4
?ShiftElementsRight@?$CUtlArray@UPhysicsPusherInfo_t@CPhysicsPushedEntities@@V?$CUtlMemory@UPhysicsPusherInfo_t@CPhysicsPushedEntities@@H@@@@IAEXHH@Z PROC ; CUtlArray<CPhysicsPushedEntities::PhysicsPusherInfo_t,CUtlMemory<CPhysicsPushedEntities::PhysicsPusherInfo_t,int> >::ShiftElementsRight, COMDAT
; _this$ = ecx

; 447  : {

	push	ebp
	mov	ebp, esp
	sub	esp, 72					; 00000048H
	push	ebx
	push	esi
	push	edi
	mov	DWORD PTR _this$[ebp], ecx

; 448  : 	assert( IsValidIndex(elem) || ( m_Size == 0 ) || ( num == 0 ));

	mov	eax, DWORD PTR _elem$[ebp]
	push	eax
	mov	ecx, DWORD PTR _this$[ebp]
	call	?IsValidIndex@?$CUtlArray@UPhysicsPusherInfo_t@CPhysicsPushedEntities@@V?$CUtlMemory@UPhysicsPusherInfo_t@CPhysicsPushedEntities@@H@@@@QBE_NH@Z ; CUtlArray<CPhysicsPushedEntities::PhysicsPusherInfo_t,CUtlMemory<CPhysicsPushedEntities::PhysicsPusherInfo_t,int> >::IsValidIndex
	movzx	ecx, al
	test	ecx, ecx
	jne	SHORT $LN4@ShiftEleme
	mov	edx, DWORD PTR _this$[ebp]
	cmp	DWORD PTR [edx+12], 0
	je	SHORT $LN4@ShiftEleme
	cmp	DWORD PTR _num$[ebp], 0
	je	SHORT $LN4@ShiftEleme
	push	448					; 000001c0H
	push	OFFSET ??_C@_1JC@EMNIBBBG@?$AAd?$AA?3?$AA?2?$AA?$CB?$AAd?$AAi?$AAf?$AAf?$AAu?$AAs?$AAi?$AAo?$AAn?$AA?5?$AA2?$AA0?$AA2?$AA0?$AA?2?$AAs?$AAo?$AAu?$AAr?$AAc?$AAe?$AA?5?$AAc?$AAo?$AAd?$AAe?$AA?5?$AA2@
	push	OFFSET ??_C@_1GM@CDMJDFPA@?$AAI?$AAs?$AAV?$AAa?$AAl?$AAi?$AAd?$AAI?$AAn?$AAd?$AAe?$AAx?$AA?$CI?$AAe?$AAl?$AAe?$AAm?$AA?$CJ?$AA?5?$AA?$HM?$AA?$HM?$AA?5?$AA?$CI?$AA?5?$AAm?$AA_?$AAS?$AAi?$AAz?$AAe?$AA?5?$AA?$DN@
	call	__wassert
	add	esp, 12					; 0000000cH
$LN4@ShiftEleme:

; 449  : 	int numToMove = m_Size - elem - num;

	mov	eax, DWORD PTR _this$[ebp]
	mov	ecx, DWORD PTR [eax+12]
	sub	ecx, DWORD PTR _elem$[ebp]
	sub	ecx, DWORD PTR _num$[ebp]
	mov	DWORD PTR _numToMove$[ebp], ecx

; 450  : 	if ((numToMove > 0) && (num > 0))

	cmp	DWORD PTR _numToMove$[ebp], 0
	jle	SHORT $LN1@ShiftEleme
	cmp	DWORD PTR _num$[ebp], 0
	jle	SHORT $LN1@ShiftEleme

; 451  : 		memmove( &Element(elem+num), &Element(elem), numToMove * sizeof(T) );

	mov	eax, DWORD PTR _numToMove$[ebp]
	shl	eax, 4
	push	eax
	mov	ecx, DWORD PTR _elem$[ebp]
	push	ecx
	mov	ecx, DWORD PTR _this$[ebp]
	call	?Element@?$CUtlArray@UPhysicsPusherInfo_t@CPhysicsPushedEntities@@V?$CUtlMemory@UPhysicsPusherInfo_t@CPhysicsPushedEntities@@H@@@@QAEAAUPhysicsPusherInfo_t@CPhysicsPushedEntities@@H@Z ; CUtlArray<CPhysicsPushedEntities::PhysicsPusherInfo_t,CUtlMemory<CPhysicsPushedEntities::PhysicsPusherInfo_t,int> >::Element
	push	eax
	mov	edx, DWORD PTR _elem$[ebp]
	add	edx, DWORD PTR _num$[ebp]
	push	edx
	mov	ecx, DWORD PTR _this$[ebp]
	call	?Element@?$CUtlArray@UPhysicsPusherInfo_t@CPhysicsPushedEntities@@V?$CUtlMemory@UPhysicsPusherInfo_t@CPhysicsPushedEntities@@H@@@@QAEAAUPhysicsPusherInfo_t@CPhysicsPushedEntities@@H@Z ; CUtlArray<CPhysicsPushedEntities::PhysicsPusherInfo_t,CUtlMemory<CPhysicsPushedEntities::PhysicsPusherInfo_t,int> >::Element
	push	eax
	call	_memmove
	add	esp, 12					; 0000000cH
$LN1@ShiftEleme:

; 452  : }

	pop	edi
	pop	esi
	pop	ebx
	mov	esp, ebp
	pop	ebp
	ret	8
?ShiftElementsRight@?$CUtlArray@UPhysicsPusherInfo_t@CPhysicsPushedEntities@@V?$CUtlMemory@UPhysicsPusherInfo_t@CPhysicsPushedEntities@@H@@@@IAEXHH@Z ENDP ; CUtlArray<CPhysicsPushedEntities::PhysicsPusherInfo_t,CUtlMemory<CPhysicsPushedEntities::PhysicsPusherInfo_t,int> >::ShiftElementsRight
_TEXT	ENDS
; Function compile flags: /Odtp /ZI
; File d:\!diffusion 2020\source code 2022\client-server\game_shared\utlarray.h
;	COMDAT ?GrowVector@?$CUtlArray@UPhysicsPusherInfo_t@CPhysicsPushedEntities@@V?$CUtlMemory@UPhysicsPusherInfo_t@CPhysicsPushedEntities@@H@@@@IAEXH@Z
_TEXT	SEGMENT
_this$ = -4						; size = 4
_num$ = 8						; size = 4
?GrowVector@?$CUtlArray@UPhysicsPusherInfo_t@CPhysicsPushedEntities@@V?$CUtlMemory@UPhysicsPusherInfo_t@CPhysicsPushedEntities@@H@@@@IAEXH@Z PROC ; CUtlArray<CPhysicsPushedEntities::PhysicsPusherInfo_t,CUtlMemory<CPhysicsPushedEntities::PhysicsPusherInfo_t,int> >::GrowVector, COMDAT
; _this$ = ecx

; 374  : {

	push	ebp
	mov	ebp, esp
	sub	esp, 68					; 00000044H
	push	ebx
	push	esi
	push	edi
	mov	DWORD PTR _this$[ebp], ecx

; 375  : 	if (m_Size + num > m_Memory.NumAllocated())

	mov	eax, DWORD PTR _this$[ebp]
	mov	esi, DWORD PTR [eax+12]
	add	esi, DWORD PTR _num$[ebp]
	mov	ecx, DWORD PTR _this$[ebp]
	call	?NumAllocated@?$CUtlMemory@UPhysicsPusherInfo_t@CPhysicsPushedEntities@@H@@QBEHXZ ; CUtlMemory<CPhysicsPushedEntities::PhysicsPusherInfo_t,int>::NumAllocated
	cmp	esi, eax
	jle	SHORT $LN2@GrowVector

; 376  : 	{
; 377  : 		m_Memory.Grow( m_Size + num - m_Memory.NumAllocated() );

	mov	eax, DWORD PTR _this$[ebp]
	mov	esi, DWORD PTR [eax+12]
	add	esi, DWORD PTR _num$[ebp]
	mov	ecx, DWORD PTR _this$[ebp]
	call	?NumAllocated@?$CUtlMemory@UPhysicsPusherInfo_t@CPhysicsPushedEntities@@H@@QBEHXZ ; CUtlMemory<CPhysicsPushedEntities::PhysicsPusherInfo_t,int>::NumAllocated
	sub	esi, eax
	push	esi
	mov	ecx, DWORD PTR _this$[ebp]
	call	?Grow@?$CUtlMemory@UPhysicsPusherInfo_t@CPhysicsPushedEntities@@H@@QAEXH@Z ; CUtlMemory<CPhysicsPushedEntities::PhysicsPusherInfo_t,int>::Grow
$LN2@GrowVector:

; 378  : 	}
; 379  : 
; 380  : 	m_Size += num;

	mov	eax, DWORD PTR _this$[ebp]
	mov	ecx, DWORD PTR [eax+12]
	add	ecx, DWORD PTR _num$[ebp]
	mov	edx, DWORD PTR _this$[ebp]
	mov	DWORD PTR [edx+12], ecx

; 381  : 	ResetDbgInfo();

	mov	ecx, DWORD PTR _this$[ebp]
	call	?ResetDbgInfo@?$CUtlArray@UPhysicsPusherInfo_t@CPhysicsPushedEntities@@V?$CUtlMemory@UPhysicsPusherInfo_t@CPhysicsPushedEntities@@H@@@@IAEXXZ ; CUtlArray<CPhysicsPushedEntities::PhysicsPusherInfo_t,CUtlMemory<CPhysicsPushedEntities::PhysicsPusherInfo_t,int> >::ResetDbgInfo

; 382  : }

	pop	edi
	pop	esi
	pop	ebx
	mov	esp, ebp
	pop	ebp
	ret	4
?GrowVector@?$CUtlArray@UPhysicsPusherInfo_t@CPhysicsPushedEntities@@V?$CUtlMemory@UPhysicsPusherInfo_t@CPhysicsPushedEntities@@H@@@@IAEXH@Z ENDP ; CUtlArray<CPhysicsPushedEntities::PhysicsPusherInfo_t,CUtlMemory<CPhysicsPushedEntities::PhysicsPusherInfo_t,int> >::GrowVector
_TEXT	ENDS
; Function compile flags: /Odtp /ZI
; File d:\!diffusion 2020\source code 2022\client-server\game_shared\utlarray.h
;	COMDAT ?Purge@?$CUtlArray@UPhysicsPusherInfo_t@CPhysicsPushedEntities@@V?$CUtlMemory@UPhysicsPusherInfo_t@CPhysicsPushedEntities@@H@@@@QAEXXZ
_TEXT	SEGMENT
_this$ = -4						; size = 4
?Purge@?$CUtlArray@UPhysicsPusherInfo_t@CPhysicsPushedEntities@@V?$CUtlMemory@UPhysicsPusherInfo_t@CPhysicsPushedEntities@@H@@@@QAEXXZ PROC ; CUtlArray<CPhysicsPushedEntities::PhysicsPusherInfo_t,CUtlMemory<CPhysicsPushedEntities::PhysicsPusherInfo_t,int> >::Purge, COMDAT
; _this$ = ecx

; 742  : {

	push	ebp
	mov	ebp, esp
	sub	esp, 68					; 00000044H
	push	ebx
	push	esi
	push	edi
	mov	DWORD PTR _this$[ebp], ecx

; 743  : 	RemoveAll();

	mov	ecx, DWORD PTR _this$[ebp]
	call	?RemoveAll@?$CUtlArray@UPhysicsPusherInfo_t@CPhysicsPushedEntities@@V?$CUtlMemory@UPhysicsPusherInfo_t@CPhysicsPushedEntities@@H@@@@QAEXXZ ; CUtlArray<CPhysicsPushedEntities::PhysicsPusherInfo_t,CUtlMemory<CPhysicsPushedEntities::PhysicsPusherInfo_t,int> >::RemoveAll

; 744  : 	m_Memory.Purge();

	mov	ecx, DWORD PTR _this$[ebp]
	call	?Purge@?$CUtlMemory@UPhysicsPusherInfo_t@CPhysicsPushedEntities@@H@@QAEXXZ ; CUtlMemory<CPhysicsPushedEntities::PhysicsPusherInfo_t,int>::Purge

; 745  : 	ResetDbgInfo();

	mov	ecx, DWORD PTR _this$[ebp]
	call	?ResetDbgInfo@?$CUtlArray@UPhysicsPusherInfo_t@CPhysicsPushedEntities@@V?$CUtlMemory@UPhysicsPusherInfo_t@CPhysicsPushedEntities@@H@@@@IAEXXZ ; CUtlArray<CPhysicsPushedEntities::PhysicsPusherInfo_t,CUtlMemory<CPhysicsPushedEntities::PhysicsPusherInfo_t,int> >::ResetDbgInfo

; 746  : }

	pop	edi
	pop	esi
	pop	ebx
	mov	esp, ebp
	pop	ebp
	ret	0
?Purge@?$CUtlArray@UPhysicsPusherInfo_t@CPhysicsPushedEntities@@V?$CUtlMemory@UPhysicsPusherInfo_t@CPhysicsPushedEntities@@H@@@@QAEXXZ ENDP ; CUtlArray<CPhysicsPushedEntities::PhysicsPusherInfo_t,CUtlMemory<CPhysicsPushedEntities::PhysicsPusherInfo_t,int> >::Purge
_TEXT	ENDS
; Function compile flags: /Odtp /ZI
; File d:\!diffusion 2020\source code 2022\client-server\game_shared\utlarray.h
;	COMDAT ?RemoveAll@?$CUtlArray@UPhysicsPusherInfo_t@CPhysicsPushedEntities@@V?$CUtlMemory@UPhysicsPusherInfo_t@CPhysicsPushedEntities@@H@@@@QAEXXZ
_TEXT	SEGMENT
_i$1 = -8						; size = 4
_this$ = -4						; size = 4
?RemoveAll@?$CUtlArray@UPhysicsPusherInfo_t@CPhysicsPushedEntities@@V?$CUtlMemory@UPhysicsPusherInfo_t@CPhysicsPushedEntities@@H@@@@QAEXXZ PROC ; CUtlArray<CPhysicsPushedEntities::PhysicsPusherInfo_t,CUtlMemory<CPhysicsPushedEntities::PhysicsPusherInfo_t,int> >::RemoveAll, COMDAT
; _this$ = ecx

; 726  : {

	push	ebp
	mov	ebp, esp
	sub	esp, 72					; 00000048H
	push	ebx
	push	esi
	push	edi
	mov	DWORD PTR _this$[ebp], ecx

; 727  : 	for (int i = m_Size; --i >= 0; )

	mov	eax, DWORD PTR _this$[ebp]
	mov	ecx, DWORD PTR [eax+12]
	mov	DWORD PTR _i$1[ebp], ecx
$LN4@RemoveAll:
	mov	eax, DWORD PTR _i$1[ebp]
	sub	eax, 1
	mov	DWORD PTR _i$1[ebp], eax
	js	SHORT $LN3@RemoveAll

; 728  : 	{
; 729  : 		Destruct(&Element(i));

	mov	eax, DWORD PTR _i$1[ebp]
	push	eax
	mov	ecx, DWORD PTR _this$[ebp]
	call	?Element@?$CUtlArray@UPhysicsPusherInfo_t@CPhysicsPushedEntities@@V?$CUtlMemory@UPhysicsPusherInfo_t@CPhysicsPushedEntities@@H@@@@QAEAAUPhysicsPusherInfo_t@CPhysicsPushedEntities@@H@Z ; CUtlArray<CPhysicsPushedEntities::PhysicsPusherInfo_t,CUtlMemory<CPhysicsPushedEntities::PhysicsPusherInfo_t,int> >::Element
	push	eax
	call	??$Destruct@UPhysicsPusherInfo_t@CPhysicsPushedEntities@@@@YAXPAUPhysicsPusherInfo_t@CPhysicsPushedEntities@@@Z ; Destruct<CPhysicsPushedEntities::PhysicsPusherInfo_t>
	add	esp, 4

; 730  : 	}

	jmp	SHORT $LN4@RemoveAll
$LN3@RemoveAll:

; 731  : 
; 732  : 	m_Size = 0;

	mov	eax, DWORD PTR _this$[ebp]
	mov	DWORD PTR [eax+12], 0

; 733  : }

	pop	edi
	pop	esi
	pop	ebx
	mov	esp, ebp
	pop	ebp
	ret	0
?RemoveAll@?$CUtlArray@UPhysicsPusherInfo_t@CPhysicsPushedEntities@@V?$CUtlMemory@UPhysicsPusherInfo_t@CPhysicsPushedEntities@@H@@@@QAEXXZ ENDP ; CUtlArray<CPhysicsPushedEntities::PhysicsPusherInfo_t,CUtlMemory<CPhysicsPushedEntities::PhysicsPusherInfo_t,int> >::RemoveAll
_TEXT	ENDS
; Function compile flags: /Odtp /ZI
; File d:\!diffusion 2020\source code 2022\client-server\game_shared\utlarray.h
;	COMDAT ?InsertBefore@?$CUtlArray@UPhysicsPusherInfo_t@CPhysicsPushedEntities@@V?$CUtlMemory@UPhysicsPusherInfo_t@CPhysicsPushedEntities@@H@@@@QAEHH@Z
_TEXT	SEGMENT
_this$ = -4						; size = 4
_elem$ = 8						; size = 4
?InsertBefore@?$CUtlArray@UPhysicsPusherInfo_t@CPhysicsPushedEntities@@V?$CUtlMemory@UPhysicsPusherInfo_t@CPhysicsPushedEntities@@H@@@@QAEHH@Z PROC ; CUtlArray<CPhysicsPushedEntities::PhysicsPusherInfo_t,CUtlMemory<CPhysicsPushedEntities::PhysicsPusherInfo_t,int> >::InsertBefore, COMDAT
; _this$ = ecx

; 493  : {

	push	ebp
	mov	ebp, esp
	sub	esp, 68					; 00000044H
	push	ebx
	push	esi
	push	edi
	mov	DWORD PTR _this$[ebp], ecx

; 494  : 	// Can insert at the end
; 495  : 	assert( (elem == Count()) || IsValidIndex(elem) );

	mov	ecx, DWORD PTR _this$[ebp]
	call	?Count@?$CUtlArray@UPhysicsPusherInfo_t@CPhysicsPushedEntities@@V?$CUtlMemory@UPhysicsPusherInfo_t@CPhysicsPushedEntities@@H@@@@QBEHXZ ; CUtlArray<CPhysicsPushedEntities::PhysicsPusherInfo_t,CUtlMemory<CPhysicsPushedEntities::PhysicsPusherInfo_t,int> >::Count
	cmp	DWORD PTR _elem$[ebp], eax
	je	SHORT $LN3@InsertBefo
	mov	eax, DWORD PTR _elem$[ebp]
	push	eax
	mov	ecx, DWORD PTR _this$[ebp]
	call	?IsValidIndex@?$CUtlArray@UPhysicsPusherInfo_t@CPhysicsPushedEntities@@V?$CUtlMemory@UPhysicsPusherInfo_t@CPhysicsPushedEntities@@H@@@@QBE_NH@Z ; CUtlArray<CPhysicsPushedEntities::PhysicsPusherInfo_t,CUtlMemory<CPhysicsPushedEntities::PhysicsPusherInfo_t,int> >::IsValidIndex
	movzx	ecx, al
	test	ecx, ecx
	jne	SHORT $LN3@InsertBefo
	push	495					; 000001efH
	push	OFFSET ??_C@_1JC@EMNIBBBG@?$AAd?$AA?3?$AA?2?$AA?$CB?$AAd?$AAi?$AAf?$AAf?$AAu?$AAs?$AAi?$AAo?$AAn?$AA?5?$AA2?$AA0?$AA2?$AA0?$AA?2?$AAs?$AAo?$AAu?$AAr?$AAc?$AAe?$AA?5?$AAc?$AAo?$AAd?$AAe?$AA?5?$AA2@
	push	OFFSET ??_C@_1FA@BPFBJKPF@?$AA?$CI?$AAe?$AAl?$AAe?$AAm?$AA?5?$AA?$DN?$AA?$DN?$AA?5?$AAC?$AAo?$AAu?$AAn?$AAt?$AA?$CI?$AA?$CJ?$AA?$CJ?$AA?5?$AA?$HM?$AA?$HM?$AA?5?$AAI?$AAs?$AAV?$AAa?$AAl?$AAi?$AAd?$AAI?$AAn?$AAd?$AAe@
	call	__wassert
	add	esp, 12					; 0000000cH
$LN3@InsertBefo:

; 496  : 
; 497  : 	GrowVector();

	push	1
	mov	ecx, DWORD PTR _this$[ebp]
	call	?GrowVector@?$CUtlArray@UPhysicsPusherInfo_t@CPhysicsPushedEntities@@V?$CUtlMemory@UPhysicsPusherInfo_t@CPhysicsPushedEntities@@H@@@@IAEXH@Z ; CUtlArray<CPhysicsPushedEntities::PhysicsPusherInfo_t,CUtlMemory<CPhysicsPushedEntities::PhysicsPusherInfo_t,int> >::GrowVector

; 498  : 	ShiftElementsRight(elem);

	push	1
	mov	eax, DWORD PTR _elem$[ebp]
	push	eax
	mov	ecx, DWORD PTR _this$[ebp]
	call	?ShiftElementsRight@?$CUtlArray@UPhysicsPusherInfo_t@CPhysicsPushedEntities@@V?$CUtlMemory@UPhysicsPusherInfo_t@CPhysicsPushedEntities@@H@@@@IAEXHH@Z ; CUtlArray<CPhysicsPushedEntities::PhysicsPusherInfo_t,CUtlMemory<CPhysicsPushedEntities::PhysicsPusherInfo_t,int> >::ShiftElementsRight

; 499  : 	Construct( &Element(elem) );

	mov	eax, DWORD PTR _elem$[ebp]
	push	eax
	mov	ecx, DWORD PTR _this$[ebp]
	call	?Element@?$CUtlArray@UPhysicsPusherInfo_t@CPhysicsPushedEntities@@V?$CUtlMemory@UPhysicsPusherInfo_t@CPhysicsPushedEntities@@H@@@@QAEAAUPhysicsPusherInfo_t@CPhysicsPushedEntities@@H@Z ; CUtlArray<CPhysicsPushedEntities::PhysicsPusherInfo_t,CUtlMemory<CPhysicsPushedEntities::PhysicsPusherInfo_t,int> >::Element
	push	eax
	call	??$Construct@UPhysicsPusherInfo_t@CPhysicsPushedEntities@@@@YAXPAUPhysicsPusherInfo_t@CPhysicsPushedEntities@@@Z ; Construct<CPhysicsPushedEntities::PhysicsPusherInfo_t>
	add	esp, 4

; 500  : 	return elem;

	mov	eax, DWORD PTR _elem$[ebp]

; 501  : }

	pop	edi
	pop	esi
	pop	ebx
	mov	esp, ebp
	pop	ebp
	ret	4
?InsertBefore@?$CUtlArray@UPhysicsPusherInfo_t@CPhysicsPushedEntities@@V?$CUtlMemory@UPhysicsPusherInfo_t@CPhysicsPushedEntities@@H@@@@QAEHH@Z ENDP ; CUtlArray<CPhysicsPushedEntities::PhysicsPusherInfo_t,CUtlMemory<CPhysicsPushedEntities::PhysicsPusherInfo_t,int> >::InsertBefore
_TEXT	ENDS
; Function compile flags: /Odtp /ZI
; File d:\!diffusion 2020\source code 2022\client-server\game_shared\utlarray.h
;	COMDAT ?AddToTail@?$CUtlArray@UPhysicsPusherInfo_t@CPhysicsPushedEntities@@V?$CUtlMemory@UPhysicsPusherInfo_t@CPhysicsPushedEntities@@H@@@@QAEHXZ
_TEXT	SEGMENT
_this$ = -4						; size = 4
?AddToTail@?$CUtlArray@UPhysicsPusherInfo_t@CPhysicsPushedEntities@@V?$CUtlMemory@UPhysicsPusherInfo_t@CPhysicsPushedEntities@@H@@@@QAEHXZ PROC ; CUtlArray<CPhysicsPushedEntities::PhysicsPusherInfo_t,CUtlMemory<CPhysicsPushedEntities::PhysicsPusherInfo_t,int> >::AddToTail, COMDAT
; _this$ = ecx

; 481  : {

	push	ebp
	mov	ebp, esp
	sub	esp, 68					; 00000044H
	push	ebx
	push	esi
	push	edi
	mov	DWORD PTR _this$[ebp], ecx

; 482  : 	return InsertBefore( m_Size );

	mov	eax, DWORD PTR _this$[ebp]
	mov	ecx, DWORD PTR [eax+12]
	push	ecx
	mov	ecx, DWORD PTR _this$[ebp]
	call	?InsertBefore@?$CUtlArray@UPhysicsPusherInfo_t@CPhysicsPushedEntities@@V?$CUtlMemory@UPhysicsPusherInfo_t@CPhysicsPushedEntities@@H@@@@QAEHH@Z ; CUtlArray<CPhysicsPushedEntities::PhysicsPusherInfo_t,CUtlMemory<CPhysicsPushedEntities::PhysicsPusherInfo_t,int> >::InsertBefore

; 483  : }

	pop	edi
	pop	esi
	pop	ebx
	mov	esp, ebp
	pop	ebp
	ret	0
?AddToTail@?$CUtlArray@UPhysicsPusherInfo_t@CPhysicsPushedEntities@@V?$CUtlMemory@UPhysicsPusherInfo_t@CPhysicsPushedEntities@@H@@@@QAEHXZ ENDP ; CUtlArray<CPhysicsPushedEntities::PhysicsPusherInfo_t,CUtlMemory<CPhysicsPushedEntities::PhysicsPusherInfo_t,int> >::AddToTail
_TEXT	ENDS
; Function compile flags: /Odtp /ZI
; File d:\!diffusion 2020\source code 2022\client-server\game_shared\utlarray.h
;	COMDAT ?IsValidIndex@?$CUtlArray@UPhysicsPusherInfo_t@CPhysicsPushedEntities@@V?$CUtlMemory@UPhysicsPusherInfo_t@CPhysicsPushedEntities@@H@@@@QBE_NH@Z
_TEXT	SEGMENT
tv67 = -72						; size = 4
_this$ = -4						; size = 4
_i$ = 8							; size = 4
?IsValidIndex@?$CUtlArray@UPhysicsPusherInfo_t@CPhysicsPushedEntities@@V?$CUtlMemory@UPhysicsPusherInfo_t@CPhysicsPushedEntities@@H@@@@QBE_NH@Z PROC ; CUtlArray<CPhysicsPushedEntities::PhysicsPusherInfo_t,CUtlMemory<CPhysicsPushedEntities::PhysicsPusherInfo_t,int> >::IsValidIndex, COMDAT
; _this$ = ecx

; 354  : {

	push	ebp
	mov	ebp, esp
	sub	esp, 72					; 00000048H
	push	ebx
	push	esi
	push	edi
	mov	DWORD PTR _this$[ebp], ecx

; 355  : 	return (i >= 0) && (i < m_Size);

	cmp	DWORD PTR _i$[ebp], 0
	jl	SHORT $LN3@IsValidInd
	mov	eax, DWORD PTR _this$[ebp]
	mov	ecx, DWORD PTR _i$[ebp]
	cmp	ecx, DWORD PTR [eax+12]
	jge	SHORT $LN3@IsValidInd
	mov	DWORD PTR tv67[ebp], 1
	jmp	SHORT $LN4@IsValidInd
$LN3@IsValidInd:
	mov	DWORD PTR tv67[ebp], 0
$LN4@IsValidInd:
	mov	al, BYTE PTR tv67[ebp]

; 356  : }

	pop	edi
	pop	esi
	pop	ebx
	mov	esp, ebp
	pop	ebp
	ret	4
?IsValidIndex@?$CUtlArray@UPhysicsPusherInfo_t@CPhysicsPushedEntities@@V?$CUtlMemory@UPhysicsPusherInfo_t@CPhysicsPushedEntities@@H@@@@QBE_NH@Z ENDP ; CUtlArray<CPhysicsPushedEntities::PhysicsPusherInfo_t,CUtlMemory<CPhysicsPushedEntities::PhysicsPusherInfo_t,int> >::IsValidIndex
_TEXT	ENDS
; Function compile flags: /Odtp /ZI
; File d:\!diffusion 2020\source code 2022\client-server\game_shared\utlarray.h
;	COMDAT ?Count@?$CUtlArray@UPhysicsPusherInfo_t@CPhysicsPushedEntities@@V?$CUtlMemory@UPhysicsPusherInfo_t@CPhysicsPushedEntities@@H@@@@QBEHXZ
_TEXT	SEGMENT
_this$ = -4						; size = 4
?Count@?$CUtlArray@UPhysicsPusherInfo_t@CPhysicsPushedEntities@@V?$CUtlMemory@UPhysicsPusherInfo_t@CPhysicsPushedEntities@@H@@@@QBEHXZ PROC ; CUtlArray<CPhysicsPushedEntities::PhysicsPusherInfo_t,CUtlMemory<CPhysicsPushedEntities::PhysicsPusherInfo_t,int> >::Count, COMDAT
; _this$ = ecx

; 344  : {

	push	ebp
	mov	ebp, esp
	sub	esp, 68					; 00000044H
	push	ebx
	push	esi
	push	edi
	mov	DWORD PTR _this$[ebp], ecx

; 345  : 	return m_Size;

	mov	eax, DWORD PTR _this$[ebp]
	mov	eax, DWORD PTR [eax+12]

; 346  : }

	pop	edi
	pop	esi
	pop	ebx
	mov	esp, ebp
	pop	ebp
	ret	0
?Count@?$CUtlArray@UPhysicsPusherInfo_t@CPhysicsPushedEntities@@V?$CUtlMemory@UPhysicsPusherInfo_t@CPhysicsPushedEntities@@H@@@@QBEHXZ ENDP ; CUtlArray<CPhysicsPushedEntities::PhysicsPusherInfo_t,CUtlMemory<CPhysicsPushedEntities::PhysicsPusherInfo_t,int> >::Count
_TEXT	ENDS
; Function compile flags: /Odtp /ZI
; File d:\!diffusion 2020\source code 2022\client-server\game_shared\utlarray.h
;	COMDAT ?Base@?$CUtlArray@UPhysicsPusherInfo_t@CPhysicsPushedEntities@@V?$CUtlMemory@UPhysicsPusherInfo_t@CPhysicsPushedEntities@@H@@@@QAEPAUPhysicsPusherInfo_t@CPhysicsPushedEntities@@XZ
_TEXT	SEGMENT
_this$ = -4						; size = 4
?Base@?$CUtlArray@UPhysicsPusherInfo_t@CPhysicsPushedEntities@@V?$CUtlMemory@UPhysicsPusherInfo_t@CPhysicsPushedEntities@@H@@@@QAEPAUPhysicsPusherInfo_t@CPhysicsPushedEntities@@XZ PROC ; CUtlArray<CPhysicsPushedEntities::PhysicsPusherInfo_t,CUtlMemory<CPhysicsPushedEntities::PhysicsPusherInfo_t,int> >::Base, COMDAT
; _this$ = ecx

; 60   : 	T* Base()								{ return m_Memory.Base(); }

	push	ebp
	mov	ebp, esp
	sub	esp, 68					; 00000044H
	push	ebx
	push	esi
	push	edi
	mov	DWORD PTR _this$[ebp], ecx
	mov	ecx, DWORD PTR _this$[ebp]
	call	?Base@?$CUtlMemory@UPhysicsPusherInfo_t@CPhysicsPushedEntities@@H@@QAEPAUPhysicsPusherInfo_t@CPhysicsPushedEntities@@XZ ; CUtlMemory<CPhysicsPushedEntities::PhysicsPusherInfo_t,int>::Base
	pop	edi
	pop	esi
	pop	ebx
	mov	esp, ebp
	pop	ebp
	ret	0
?Base@?$CUtlArray@UPhysicsPusherInfo_t@CPhysicsPushedEntities@@V?$CUtlMemory@UPhysicsPusherInfo_t@CPhysicsPushedEntities@@H@@@@QAEPAUPhysicsPusherInfo_t@CPhysicsPushedEntities@@XZ ENDP ; CUtlArray<CPhysicsPushedEntities::PhysicsPusherInfo_t,CUtlMemory<CPhysicsPushedEntities::PhysicsPusherInfo_t,int> >::Base
_TEXT	ENDS
; Function compile flags: /Odtp /ZI
; File d:\!diffusion 2020\source code 2022\client-server\game_shared\utlarray.h
;	COMDAT ?Element@?$CUtlArray@UPhysicsPusherInfo_t@CPhysicsPushedEntities@@V?$CUtlMemory@UPhysicsPusherInfo_t@CPhysicsPushedEntities@@H@@@@QAEAAUPhysicsPusherInfo_t@CPhysicsPushedEntities@@H@Z
_TEXT	SEGMENT
_this$ = -4						; size = 4
_i$ = 8							; size = 4
?Element@?$CUtlArray@UPhysicsPusherInfo_t@CPhysicsPushedEntities@@V?$CUtlMemory@UPhysicsPusherInfo_t@CPhysicsPushedEntities@@H@@@@QAEAAUPhysicsPusherInfo_t@CPhysicsPushedEntities@@H@Z PROC ; CUtlArray<CPhysicsPushedEntities::PhysicsPusherInfo_t,CUtlMemory<CPhysicsPushedEntities::PhysicsPusherInfo_t,int> >::Element, COMDAT
; _this$ = ecx

; 294  : {

	push	ebp
	mov	ebp, esp
	sub	esp, 68					; 00000044H
	push	ebx
	push	esi
	push	edi
	mov	DWORD PTR _this$[ebp], ecx

; 295  : 	return m_Memory[ i ];

	mov	eax, DWORD PTR _i$[ebp]
	push	eax
	mov	ecx, DWORD PTR _this$[ebp]
	call	??A?$CUtlMemory@UPhysicsPusherInfo_t@CPhysicsPushedEntities@@H@@QAEAAUPhysicsPusherInfo_t@CPhysicsPushedEntities@@H@Z ; CUtlMemory<CPhysicsPushedEntities::PhysicsPusherInfo_t,int>::operator[]

; 296  : }

	pop	edi
	pop	esi
	pop	ebx
	mov	esp, ebp
	pop	ebp
	ret	4
?Element@?$CUtlArray@UPhysicsPusherInfo_t@CPhysicsPushedEntities@@V?$CUtlMemory@UPhysicsPusherInfo_t@CPhysicsPushedEntities@@H@@@@QAEAAUPhysicsPusherInfo_t@CPhysicsPushedEntities@@H@Z ENDP ; CUtlArray<CPhysicsPushedEntities::PhysicsPusherInfo_t,CUtlMemory<CPhysicsPushedEntities::PhysicsPusherInfo_t,int> >::Element
_TEXT	ENDS
; Function compile flags: /Odtp /ZI
; File d:\!diffusion 2020\source code 2022\client-server\game_shared\utlarray.h
;	COMDAT ??A?$CUtlArray@UPhysicsPusherInfo_t@CPhysicsPushedEntities@@V?$CUtlMemory@UPhysicsPusherInfo_t@CPhysicsPushedEntities@@H@@@@QAEAAUPhysicsPusherInfo_t@CPhysicsPushedEntities@@H@Z
_TEXT	SEGMENT
_this$ = -4						; size = 4
_i$ = 8							; size = 4
??A?$CUtlArray@UPhysicsPusherInfo_t@CPhysicsPushedEntities@@V?$CUtlMemory@UPhysicsPusherInfo_t@CPhysicsPushedEntities@@H@@@@QAEAAUPhysicsPusherInfo_t@CPhysicsPushedEntities@@H@Z PROC ; CUtlArray<CPhysicsPushedEntities::PhysicsPusherInfo_t,CUtlMemory<CPhysicsPushedEntities::PhysicsPusherInfo_t,int> >::operator[], COMDAT
; _this$ = ecx

; 282  : {

	push	ebp
	mov	ebp, esp
	sub	esp, 68					; 00000044H
	push	ebx
	push	esi
	push	edi
	mov	DWORD PTR _this$[ebp], ecx

; 283  : 	return m_Memory[ i ];

	mov	eax, DWORD PTR _i$[ebp]
	push	eax
	mov	ecx, DWORD PTR _this$[ebp]
	call	??A?$CUtlMemory@UPhysicsPusherInfo_t@CPhysicsPushedEntities@@H@@QAEAAUPhysicsPusherInfo_t@CPhysicsPushedEntities@@H@Z ; CUtlMemory<CPhysicsPushedEntities::PhysicsPusherInfo_t,int>::operator[]

; 284  : }

	pop	edi
	pop	esi
	pop	ebx
	mov	esp, ebp
	pop	ebp
	ret	4
??A?$CUtlArray@UPhysicsPusherInfo_t@CPhysicsPushedEntities@@V?$CUtlMemory@UPhysicsPusherInfo_t@CPhysicsPushedEntities@@H@@@@QAEAAUPhysicsPusherInfo_t@CPhysicsPushedEntities@@H@Z ENDP ; CUtlArray<CPhysicsPushedEntities::PhysicsPusherInfo_t,CUtlMemory<CPhysicsPushedEntities::PhysicsPusherInfo_t,int> >::operator[]
_TEXT	ENDS
; Function compile flags: /Odtp /ZI
; File d:\!diffusion 2020\source code 2022\client-server\game_shared\utlarray.h
;	COMDAT ??1?$CUtlArray@UPhysicsPusherInfo_t@CPhysicsPushedEntities@@V?$CUtlMemory@UPhysicsPusherInfo_t@CPhysicsPushedEntities@@H@@@@QAE@XZ
_TEXT	SEGMENT
_this$ = -16						; size = 4
__$EHRec$ = -12						; size = 12
??1?$CUtlArray@UPhysicsPusherInfo_t@CPhysicsPushedEntities@@V?$CUtlMemory@UPhysicsPusherInfo_t@CPhysicsPushedEntities@@H@@@@QAE@XZ PROC ; CUtlArray<CPhysicsPushedEntities::PhysicsPusherInfo_t,CUtlMemory<CPhysicsPushedEntities::PhysicsPusherInfo_t,int> >::~CUtlArray<CPhysicsPushedEntities::PhysicsPusherInfo_t,CUtlMemory<CPhysicsPushedEntities::PhysicsPusherInfo_t,int> >, COMDAT
; _this$ = ecx

; 260  : {

	push	ebp
	mov	ebp, esp
	push	-1
	push	__ehhandler$??1?$CUtlArray@UPhysicsPusherInfo_t@CPhysicsPushedEntities@@V?$CUtlMemory@UPhysicsPusherInfo_t@CPhysicsPushedEntities@@H@@@@QAE@XZ
	mov	eax, DWORD PTR fs:0
	push	eax
	sub	esp, 68					; 00000044H
	push	ebx
	push	esi
	push	edi
	mov	eax, DWORD PTR ___security_cookie
	xor	eax, ebp
	push	eax
	lea	eax, DWORD PTR __$EHRec$[ebp]
	mov	DWORD PTR fs:0, eax
	mov	DWORD PTR _this$[ebp], ecx

; 261  : 	Purge();

	mov	ecx, DWORD PTR _this$[ebp]
	call	?Purge@?$CUtlArray@UPhysicsPusherInfo_t@CPhysicsPushedEntities@@V?$CUtlMemory@UPhysicsPusherInfo_t@CPhysicsPushedEntities@@H@@@@QAEXXZ ; CUtlArray<CPhysicsPushedEntities::PhysicsPusherInfo_t,CUtlMemory<CPhysicsPushedEntities::PhysicsPusherInfo_t,int> >::Purge

; 262  : }

	mov	ecx, DWORD PTR _this$[ebp]
	call	??1?$CUtlMemory@UPhysicsPusherInfo_t@CPhysicsPushedEntities@@H@@QAE@XZ ; CUtlMemory<CPhysicsPushedEntities::PhysicsPusherInfo_t,int>::~CUtlMemory<CPhysicsPushedEntities::PhysicsPusherInfo_t,int>
	mov	ecx, DWORD PTR __$EHRec$[ebp]
	mov	DWORD PTR fs:0, ecx
	pop	ecx
	pop	edi
	pop	esi
	pop	ebx
	mov	esp, ebp
	pop	ebp
	ret	0
_TEXT	ENDS
;	COMDAT text$x
text$x	SEGMENT
__ehhandler$??1?$CUtlArray@UPhysicsPusherInfo_t@CPhysicsPushedEntities@@V?$CUtlMemory@UPhysicsPusherInfo_t@CPhysicsPushedEntities@@H@@@@QAE@XZ:
	mov	edx, DWORD PTR [esp+8]
	lea	eax, DWORD PTR [edx+12]
	mov	ecx, DWORD PTR [edx-84]
	xor	ecx, eax
	call	@__security_check_cookie@4
	mov	eax, OFFSET __ehfuncinfo$??1?$CUtlArray@UPhysicsPusherInfo_t@CPhysicsPushedEntities@@V?$CUtlMemory@UPhysicsPusherInfo_t@CPhysicsPushedEntities@@H@@@@QAE@XZ
	jmp	___CxxFrameHandler3
text$x	ENDS
??1?$CUtlArray@UPhysicsPusherInfo_t@CPhysicsPushedEntities@@V?$CUtlMemory@UPhysicsPusherInfo_t@CPhysicsPushedEntities@@H@@@@QAE@XZ ENDP ; CUtlArray<CPhysicsPushedEntities::PhysicsPusherInfo_t,CUtlMemory<CPhysicsPushedEntities::PhysicsPusherInfo_t,int> >::~CUtlArray<CPhysicsPushedEntities::PhysicsPusherInfo_t,CUtlMemory<CPhysicsPushedEntities::PhysicsPusherInfo_t,int> >
; Function compile flags: /Odtp /ZI
; File d:\!diffusion 2020\source code 2022\client-server\game_shared\utlarray.h
;	COMDAT ??0?$CUtlArray@UPhysicsPusherInfo_t@CPhysicsPushedEntities@@V?$CUtlMemory@UPhysicsPusherInfo_t@CPhysicsPushedEntities@@H@@@@QAE@HH@Z
_TEXT	SEGMENT
_this$ = -16						; size = 4
__$EHRec$ = -12						; size = 12
_growSize$ = 8						; size = 4
_initSize$ = 12						; size = 4
??0?$CUtlArray@UPhysicsPusherInfo_t@CPhysicsPushedEntities@@V?$CUtlMemory@UPhysicsPusherInfo_t@CPhysicsPushedEntities@@H@@@@QAE@HH@Z PROC ; CUtlArray<CPhysicsPushedEntities::PhysicsPusherInfo_t,CUtlMemory<CPhysicsPushedEntities::PhysicsPusherInfo_t,int> >::CUtlArray<CPhysicsPushedEntities::PhysicsPusherInfo_t,CUtlMemory<CPhysicsPushedEntities::PhysicsPusherInfo_t,int> >, COMDAT
; _this$ = ecx

; 247  : {

	push	ebp
	mov	ebp, esp
	push	-1
	push	__ehhandler$??0?$CUtlArray@UPhysicsPusherInfo_t@CPhysicsPushedEntities@@V?$CUtlMemory@UPhysicsPusherInfo_t@CPhysicsPushedEntities@@H@@@@QAE@HH@Z
	mov	eax, DWORD PTR fs:0
	push	eax
	sub	esp, 68					; 00000044H
	push	ebx
	push	esi
	push	edi
	mov	eax, DWORD PTR ___security_cookie
	xor	eax, ebp
	push	eax
	lea	eax, DWORD PTR __$EHRec$[ebp]
	mov	DWORD PTR fs:0, eax
	mov	DWORD PTR _this$[ebp], ecx

; 246  : 	m_Memory(growSize, initSize), m_Size(0)

	mov	eax, DWORD PTR _initSize$[ebp]
	push	eax
	mov	ecx, DWORD PTR _growSize$[ebp]
	push	ecx
	mov	ecx, DWORD PTR _this$[ebp]
	call	??0?$CUtlMemory@UPhysicsPusherInfo_t@CPhysicsPushedEntities@@H@@QAE@HH@Z ; CUtlMemory<CPhysicsPushedEntities::PhysicsPusherInfo_t,int>::CUtlMemory<CPhysicsPushedEntities::PhysicsPusherInfo_t,int>
	mov	DWORD PTR __$EHRec$[ebp+8], 0
	mov	eax, DWORD PTR _this$[ebp]
	mov	DWORD PTR [eax+12], 0

; 248  : 	ResetDbgInfo();

	mov	ecx, DWORD PTR _this$[ebp]
	call	?ResetDbgInfo@?$CUtlArray@UPhysicsPusherInfo_t@CPhysicsPushedEntities@@V?$CUtlMemory@UPhysicsPusherInfo_t@CPhysicsPushedEntities@@H@@@@IAEXXZ ; CUtlArray<CPhysicsPushedEntities::PhysicsPusherInfo_t,CUtlMemory<CPhysicsPushedEntities::PhysicsPusherInfo_t,int> >::ResetDbgInfo

; 249  : }

	mov	DWORD PTR __$EHRec$[ebp+8], -1
	mov	eax, DWORD PTR _this$[ebp]
	mov	ecx, DWORD PTR __$EHRec$[ebp]
	mov	DWORD PTR fs:0, ecx
	pop	ecx
	pop	edi
	pop	esi
	pop	ebx
	mov	esp, ebp
	pop	ebp
	ret	8
_TEXT	ENDS
;	COMDAT text$x
text$x	SEGMENT
__unwindfunclet$??0?$CUtlArray@UPhysicsPusherInfo_t@CPhysicsPushedEntities@@V?$CUtlMemory@UPhysicsPusherInfo_t@CPhysicsPushedEntities@@H@@@@QAE@HH@Z$0:
	mov	ecx, DWORD PTR _this$[ebp]
	jmp	??1?$CUtlMemory@UPhysicsPusherInfo_t@CPhysicsPushedEntities@@H@@QAE@XZ ; CUtlMemory<CPhysicsPushedEntities::PhysicsPusherInfo_t,int>::~CUtlMemory<CPhysicsPushedEntities::PhysicsPusherInfo_t,int>
__ehhandler$??0?$CUtlArray@UPhysicsPusherInfo_t@CPhysicsPushedEntities@@V?$CUtlMemory@UPhysicsPusherInfo_t@CPhysicsPushedEntities@@H@@@@QAE@HH@Z:
	mov	edx, DWORD PTR [esp+8]
	lea	eax, DWORD PTR [edx+12]
	mov	ecx, DWORD PTR [edx-84]
	xor	ecx, eax
	call	@__security_check_cookie@4
	mov	eax, OFFSET __ehfuncinfo$??0?$CUtlArray@UPhysicsPusherInfo_t@CPhysicsPushedEntities@@V?$CUtlMemory@UPhysicsPusherInfo_t@CPhysicsPushedEntities@@H@@@@QAE@HH@Z
	jmp	___CxxFrameHandler3
text$x	ENDS
??0?$CUtlArray@UPhysicsPusherInfo_t@CPhysicsPushedEntities@@V?$CUtlMemory@UPhysicsPusherInfo_t@CPhysicsPushedEntities@@H@@@@QAE@HH@Z ENDP ; CUtlArray<CPhysicsPushedEntities::PhysicsPusherInfo_t,CUtlMemory<CPhysicsPushedEntities::PhysicsPusherInfo_t,int> >::CUtlArray<CPhysicsPushedEntities::PhysicsPusherInfo_t,CUtlMemory<CPhysicsPushedEntities::PhysicsPusherInfo_t,int> >
; Function compile flags: /Odtp /ZI
; File d:\!diffusion 2020\source code 2022\client-server\server\physics\physic.cpp
;	COMDAT ?IsPushedPositionValid@CPhysicsPushedEntities@@IAE_NPAVCBaseEntity@@@Z
_TEXT	SEGMENT
tv74 = -128						; size = 4
_trace$ = -60						; size = 56
_this$ = -4						; size = 4
_pBlocker$ = 8						; size = 4
?IsPushedPositionValid@CPhysicsPushedEntities@@IAE_NPAVCBaseEntity@@@Z PROC ; CPhysicsPushedEntities::IsPushedPositionValid, COMDAT
; _this$ = ecx

; 479  : {

	push	ebp
	mov	ebp, esp
	sub	esp, 128				; 00000080H
	push	ebx
	push	esi
	push	edi
	mov	DWORD PTR _this$[ebp], ecx

; 480  : 	TraceResult trace;

	lea	ecx, DWORD PTR _trace$[ebp]
	call	??0gametrace_s@@QAE@XZ

; 481  : 
; 482  : 	UTIL_TraceEntity( pBlocker, pBlocker->GetAbsOrigin(), pBlocker->GetAbsOrigin(), &trace );

	lea	eax, DWORD PTR _trace$[ebp]
	push	eax
	mov	ecx, DWORD PTR _pBlocker$[ebp]
	call	?GetAbsOrigin@CBaseEntity@@QBEABVVector@@XZ ; CBaseEntity::GetAbsOrigin
	push	eax
	mov	ecx, DWORD PTR _pBlocker$[ebp]
	call	?GetAbsOrigin@CBaseEntity@@QBEABVVector@@XZ ; CBaseEntity::GetAbsOrigin
	push	eax
	mov	ecx, DWORD PTR _pBlocker$[ebp]
	push	ecx
	call	?UTIL_TraceEntity@@YAXPAVCBaseEntity@@ABVVector@@1PAUgametrace_s@@@Z ; UTIL_TraceEntity
	add	esp, 16					; 00000010H

; 483  : 
; 484  : 	return !trace.fStartSolid;

	cmp	DWORD PTR _trace$[ebp+4], 0
	jne	SHORT $LN3@IsPushedPo
	mov	DWORD PTR tv74[ebp], 1
	jmp	SHORT $LN4@IsPushedPo
$LN3@IsPushedPo:
	mov	DWORD PTR tv74[ebp], 0
$LN4@IsPushedPo:
	mov	al, BYTE PTR tv74[ebp]

; 485  : }

	pop	edi
	pop	esi
	pop	ebx
	mov	esp, ebp
	pop	ebp
	ret	4
?IsPushedPositionValid@CPhysicsPushedEntities@@IAE_NPAVCBaseEntity@@@Z ENDP ; CPhysicsPushedEntities::IsPushedPositionValid
_TEXT	ENDS
; Function compile flags: /Odtp /ZI
; File d:\!diffusion 2020\source code 2022\client-server\server\physics\physic.cpp
;	COMDAT ?LinearlyMoveRootEntity@CPhysicsPushedEntities@@IAEXPAVCBaseEntity@@MAAVVector@@@Z
_TEXT	SEGMENT
$T1 = -80						; size = 12
_this$ = -4						; size = 4
_pRoot$ = 8						; size = 4
_movetime$ = 12						; size = 4
_pAbsPushVector$ = 16					; size = 4
?LinearlyMoveRootEntity@CPhysicsPushedEntities@@IAEXPAVCBaseEntity@@MAAVVector@@@Z PROC ; CPhysicsPushedEntities::LinearlyMoveRootEntity, COMDAT
; _this$ = ecx

; 986  : {

	push	ebp
	mov	ebp, esp
	sub	esp, 80					; 00000050H
	push	ebx
	push	esi
	push	edi
	mov	DWORD PTR _this$[ebp], ecx

; 987  : 	// move the pusher to it's final position
; 988  : 	SV_LinearMove( pRoot, movetime, pRoot->pev->friction );

	mov	eax, DWORD PTR _pRoot$[ebp]
	mov	ecx, DWORD PTR [eax+4]
	push	ecx
	movss	xmm0, DWORD PTR [ecx+288]
	movss	DWORD PTR [esp], xmm0
	push	ecx
	movss	xmm0, DWORD PTR _movetime$[ebp]
	movss	DWORD PTR [esp], xmm0
	mov	edx, DWORD PTR _pRoot$[ebp]
	push	edx
	call	?SV_LinearMove@@YAXPAVCBaseEntity@@MM@Z	; SV_LinearMove
	add	esp, 12					; 0000000cH

; 989  : 
; 990  : 	// Store off the abs push vector
; 991  : 	pAbsPushVector = pRoot->GetAbsVelocity() * movetime;

	push	ecx
	movss	xmm0, DWORD PTR _movetime$[ebp]
	movss	DWORD PTR [esp], xmm0
	lea	eax, DWORD PTR $T1[ebp]
	push	eax
	mov	ecx, DWORD PTR _pRoot$[ebp]
	call	?GetAbsVelocity@CBaseEntity@@QBEABVVector@@XZ ; CBaseEntity::GetAbsVelocity
	mov	ecx, eax
	call	??DVector@@QBE?AV0@M@Z			; Vector::operator*
	mov	ecx, DWORD PTR _pAbsPushVector$[ebp]
	mov	edx, DWORD PTR [eax]
	mov	DWORD PTR [ecx], edx
	mov	edx, DWORD PTR [eax+4]
	mov	DWORD PTR [ecx+4], edx
	mov	eax, DWORD PTR [eax+8]
	mov	DWORD PTR [ecx+8], eax

; 992  : }

	pop	edi
	pop	esi
	pop	ebx
	mov	esp, ebp
	pop	ebp
	ret	12					; 0000000cH
?LinearlyMoveRootEntity@CPhysicsPushedEntities@@IAEXPAVCBaseEntity@@MAAVVector@@@Z ENDP ; CPhysicsPushedEntities::LinearlyMoveRootEntity
_TEXT	ENDS
; Function compile flags: /Odtp /ZI
; File d:\!diffusion 2020\source code 2022\client-server\server\physics\physic.cpp
;	COMDAT ?RotateRootEntity@CPhysicsPushedEntities@@IAEXPAVCBaseEntity@@MAAURotatingPushMove_t@1@@Z
_TEXT	SEGMENT
$T1 = -80						; size = 12
_this$ = -4						; size = 4
_pRoot$ = 8						; size = 4
_movetime$ = 12						; size = 4
_rotation$ = 16						; size = 4
?RotateRootEntity@CPhysicsPushedEntities@@IAEXPAVCBaseEntity@@MAAURotatingPushMove_t@1@@Z PROC ; CPhysicsPushedEntities::RotateRootEntity, COMDAT
; _this$ = ecx

; 926  : {

	push	ebp
	mov	ebp, esp
	sub	esp, 80					; 00000050H
	push	ebx
	push	esi
	push	edi
	mov	DWORD PTR _this$[ebp], ecx

; 927  : 	rotation.amove = pRoot->GetLocalAvelocity() * movetime;

	push	ecx
	movss	xmm0, DWORD PTR _movetime$[ebp]
	movss	DWORD PTR [esp], xmm0
	lea	eax, DWORD PTR $T1[ebp]
	push	eax
	mov	ecx, DWORD PTR _pRoot$[ebp]
	call	?GetLocalAvelocity@CBaseEntity@@QBEABVVector@@XZ ; CBaseEntity::GetLocalAvelocity
	mov	ecx, eax
	call	??DVector@@QBE?AV0@M@Z			; Vector::operator*
	mov	ecx, DWORD PTR _rotation$[ebp]
	add	ecx, 12					; 0000000cH
	mov	edx, DWORD PTR [eax]
	mov	DWORD PTR [ecx], edx
	mov	edx, DWORD PTR [eax+4]
	mov	DWORD PTR [ecx+4], edx
	mov	eax, DWORD PTR [eax+8]
	mov	DWORD PTR [ecx+8], eax

; 928  : 	rotation.origin = pRoot->GetAbsOrigin();

	mov	ecx, DWORD PTR _pRoot$[ebp]
	call	?GetAbsOrigin@CBaseEntity@@QBEABVVector@@XZ ; CBaseEntity::GetAbsOrigin
	mov	ecx, DWORD PTR _rotation$[ebp]
	mov	edx, DWORD PTR [eax]
	mov	DWORD PTR [ecx], edx
	mov	edx, DWORD PTR [eax+4]
	mov	DWORD PTR [ecx+4], edx
	mov	eax, DWORD PTR [eax+8]
	mov	DWORD PTR [ecx+8], eax

; 929  : 
; 930  : 	// knowing the initial + ending basis is needed for determining
; 931  : 	// which corner we're pushing 
; 932  : 	rotation.startLocalToWorld = pRoot->EntityToWorldTransform();

	mov	ecx, DWORD PTR _pRoot$[ebp]
	call	?EntityToWorldTransform@CBaseEntity@@QAEAAVmatrix4x4@@XZ ; CBaseEntity::EntityToWorldTransform
	push	eax
	mov	ecx, DWORD PTR _rotation$[ebp]
	add	ecx, 24					; 00000018H
	call	??4matrix4x4@@QAEAAV0@ABV0@@Z		; matrix4x4::operator=

; 933  : 
; 934  : 	
; 935  : 	// rotate the pusher to it's final position
; 936  : 	SV_AngularMove( pRoot, movetime, pRoot->pev->friction );

	mov	eax, DWORD PTR _pRoot$[ebp]
	mov	ecx, DWORD PTR [eax+4]
	push	ecx
	movss	xmm0, DWORD PTR [ecx+288]
	movss	DWORD PTR [esp], xmm0
	push	ecx
	movss	xmm0, DWORD PTR _movetime$[ebp]
	movss	DWORD PTR [esp], xmm0
	mov	edx, DWORD PTR _pRoot$[ebp]
	push	edx
	call	?SV_AngularMove@@YAXPAVCBaseEntity@@MM@Z ; SV_AngularMove
	add	esp, 12					; 0000000cH

; 937  : 
; 938  : 	// compute the change in absangles
; 939  : 	rotation.endLocalToWorld = pRoot->EntityToWorldTransform();

	mov	ecx, DWORD PTR _pRoot$[ebp]
	call	?EntityToWorldTransform@CBaseEntity@@QAEAAVmatrix4x4@@XZ ; CBaseEntity::EntityToWorldTransform
	push	eax
	mov	ecx, DWORD PTR _rotation$[ebp]
	add	ecx, 88					; 00000058H
	call	??4matrix4x4@@QAEAAV0@ABV0@@Z		; matrix4x4::operator=

; 940  : }

	pop	edi
	pop	esi
	pop	ebx
	mov	esp, ebp
	pop	ebp
	ret	12					; 0000000cH
?RotateRootEntity@CPhysicsPushedEntities@@IAEXPAVCBaseEntity@@MAAURotatingPushMove_t@1@@Z ENDP ; CPhysicsPushedEntities::RotateRootEntity
_TEXT	ENDS
; Function compile flags: /Odtp /ZI
; File d:\!diffusion 2020\source code 2022\client-server\server\physics\physic.cpp
;	COMDAT ?FinishPushers@CPhysicsPushedEntities@@IAEXXZ
_TEXT	SEGMENT
_info$1 = -12						; size = 4
_i$2 = -8						; size = 4
_this$ = -4						; size = 4
?FinishPushers@CPhysicsPushedEntities@@IAEXXZ PROC	; CPhysicsPushedEntities::FinishPushers, COMDAT
; _this$ = ecx

; 655  : {

	push	ebp
	mov	ebp, esp
	sub	esp, 76					; 0000004cH
	push	ebx
	push	esi
	push	edi
	mov	DWORD PTR _this$[ebp], ecx

; 656  : 	// We succeeded! Now that we know the final location of all entities,
; 657  : 	// touch triggers + update physics objects + do other fixup
; 658  : 	for( int i = m_rgPusher.Count(); --i >= 0; )

	mov	ecx, DWORD PTR _this$[ebp]
	add	ecx, 4
	call	?Count@?$CUtlArray@UPhysicsPusherInfo_t@CPhysicsPushedEntities@@V?$CUtlMemory@UPhysicsPusherInfo_t@CPhysicsPushedEntities@@H@@@@QBEHXZ ; CUtlArray<CPhysicsPushedEntities::PhysicsPusherInfo_t,CUtlMemory<CPhysicsPushedEntities::PhysicsPusherInfo_t,int> >::Count
	mov	DWORD PTR _i$2[ebp], eax
$LN4@FinishPush:
	mov	eax, DWORD PTR _i$2[ebp]
	sub	eax, 1
	mov	DWORD PTR _i$2[ebp], eax
	js	SHORT $LN1@FinishPush

; 659  : 	{
; 660  : 		PhysicsPusherInfo_t &info = m_rgPusher[i];

	mov	eax, DWORD PTR _i$2[ebp]
	push	eax
	mov	ecx, DWORD PTR _this$[ebp]
	add	ecx, 4
	call	??A?$CUtlArray@UPhysicsPusherInfo_t@CPhysicsPushedEntities@@V?$CUtlMemory@UPhysicsPusherInfo_t@CPhysicsPushedEntities@@H@@@@QAEAAUPhysicsPusherInfo_t@CPhysicsPushedEntities@@H@Z ; CUtlArray<CPhysicsPushedEntities::PhysicsPusherInfo_t,CUtlMemory<CPhysicsPushedEntities::PhysicsPusherInfo_t,int> >::operator[]
	mov	DWORD PTR _info$1[ebp], eax

; 661  : 
; 662  : 		// cause touch functions to be called
; 663  : 		info.m_pEntity->RelinkEntity( TRUE, &info.m_vecStartAbsOrigin );

	push	0
	mov	eax, DWORD PTR _info$1[ebp]
	add	eax, 4
	push	eax
	push	1
	mov	ecx, DWORD PTR _info$1[ebp]
	mov	ecx, DWORD PTR [ecx]
	call	?RelinkEntity@CBaseEntity@@QAEXHPBVVector@@H@Z ; CBaseEntity::RelinkEntity

; 664  : 
; 665  : 		// kinematic pushers that linked with parent system
; 666  : 		if( info.m_pEntity->m_iActorType == ACTOR_KINEMATIC )

	mov	eax, DWORD PTR _info$1[ebp]
	mov	ecx, DWORD PTR [eax]
	movzx	edx, BYTE PTR [ecx+1616]
	cmp	edx, 2
	jne	SHORT $LN5@FinishPush

; 667  : 		{
; 668  : 			WorldPhysic->MoveKinematic( info.m_pEntity );

	mov	eax, DWORD PTR _info$1[ebp]
	mov	ecx, DWORD PTR [eax]
	push	ecx
	mov	edx, DWORD PTR ?WorldPhysic@@3PAVIPhysicLayer@@A ; WorldPhysic
	mov	eax, DWORD PTR [edx]
	mov	ecx, DWORD PTR ?WorldPhysic@@3PAVIPhysicLayer@@A ; WorldPhysic
	mov	edx, DWORD PTR [eax+148]
	call	edx
$LN5@FinishPush:

; 669  : 		}
; 670  : 	}

	jmp	SHORT $LN4@FinishPush
$LN1@FinishPush:

; 671  : }

	pop	edi
	pop	esi
	pop	ebx
	mov	esp, ebp
	pop	ebp
	ret	0
?FinishPushers@CPhysicsPushedEntities@@IAEXXZ ENDP	; CPhysicsPushedEntities::FinishPushers
_TEXT	ENDS
; Function compile flags: /Odtp /ZI
; File d:\!diffusion 2020\source code 2022\client-server\server\physics\physic.cpp
;	COMDAT ?RelinkPusherList@CPhysicsPushedEntities@@IAEXXZ
_TEXT	SEGMENT
_pEnt$1 = -12						; size = 4
_i$2 = -8						; size = 4
_this$ = -4						; size = 4
?RelinkPusherList@CPhysicsPushedEntities@@IAEXXZ PROC	; CPhysicsPushedEntities::RelinkPusherList, COMDAT
; _this$ = ecx

; 444  : {

	push	ebp
	mov	ebp, esp
	sub	esp, 76					; 0000004cH
	push	ebx
	push	esi
	push	edi
	mov	DWORD PTR _this$[ebp], ecx

; 445  : 	for( int i = m_rgPusher.Count(); --i >= 0; )

	mov	ecx, DWORD PTR _this$[ebp]
	add	ecx, 4
	call	?Count@?$CUtlArray@UPhysicsPusherInfo_t@CPhysicsPushedEntities@@V?$CUtlMemory@UPhysicsPusherInfo_t@CPhysicsPushedEntities@@H@@@@QBEHXZ ; CUtlArray<CPhysicsPushedEntities::PhysicsPusherInfo_t,CUtlMemory<CPhysicsPushedEntities::PhysicsPusherInfo_t,int> >::Count
	mov	DWORD PTR _i$2[ebp], eax
$LN4@RelinkPush:
	mov	eax, DWORD PTR _i$2[ebp]
	sub	eax, 1
	mov	DWORD PTR _i$2[ebp], eax
	js	SHORT $LN1@RelinkPush

; 446  : 	{
; 447  : 		CBaseEntity *pEnt = m_rgPusher[i].m_pEntity;

	mov	eax, DWORD PTR _i$2[ebp]
	push	eax
	mov	ecx, DWORD PTR _this$[ebp]
	add	ecx, 4
	call	??A?$CUtlArray@UPhysicsPusherInfo_t@CPhysicsPushedEntities@@V?$CUtlMemory@UPhysicsPusherInfo_t@CPhysicsPushedEntities@@H@@@@QAEAAUPhysicsPusherInfo_t@CPhysicsPushedEntities@@H@Z ; CUtlArray<CPhysicsPushedEntities::PhysicsPusherInfo_t,CUtlMemory<CPhysicsPushedEntities::PhysicsPusherInfo_t,int> >::operator[]
	mov	ecx, DWORD PTR [eax]
	mov	DWORD PTR _pEnt$1[ebp], ecx

; 448  : 		pEnt->RestoreSolid();

	mov	ecx, DWORD PTR _pEnt$1[ebp]
	call	?RestoreSolid@CBaseEntity@@QAEXXZ	; CBaseEntity::RestoreSolid

; 449  : 		pEnt->RelinkEntity( FALSE );

	push	0
	push	0
	push	0
	mov	ecx, DWORD PTR _pEnt$1[ebp]
	call	?RelinkEntity@CBaseEntity@@QAEXHPBVVector@@H@Z ; CBaseEntity::RelinkEntity

; 450  : 	}

	jmp	SHORT $LN4@RelinkPush
$LN1@RelinkPush:

; 451  : }

	pop	edi
	pop	esi
	pop	ebx
	mov	esp, ebp
	pop	ebp
	ret	0
?RelinkPusherList@CPhysicsPushedEntities@@IAEXXZ ENDP	; CPhysicsPushedEntities::RelinkPusherList
_TEXT	ENDS
; Function compile flags: /Odtp /ZI
; File d:\!diffusion 2020\source code 2022\client-server\server\physics\physic.cpp
;	COMDAT ?UnlinkPusherList@CPhysicsPushedEntities@@IAEXXZ
_TEXT	SEGMENT
_pEnt$1 = -12						; size = 4
_i$2 = -8						; size = 4
_this$ = -4						; size = 4
?UnlinkPusherList@CPhysicsPushedEntities@@IAEXXZ PROC	; CPhysicsPushedEntities::UnlinkPusherList, COMDAT
; _this$ = ecx

; 435  : {

	push	ebp
	mov	ebp, esp
	sub	esp, 76					; 0000004cH
	push	ebx
	push	esi
	push	edi
	mov	DWORD PTR _this$[ebp], ecx

; 436  : 	for( int i = m_rgPusher.Count(); --i >= 0; )

	mov	ecx, DWORD PTR _this$[ebp]
	add	ecx, 4
	call	?Count@?$CUtlArray@UPhysicsPusherInfo_t@CPhysicsPushedEntities@@V?$CUtlMemory@UPhysicsPusherInfo_t@CPhysicsPushedEntities@@H@@@@QBEHXZ ; CUtlArray<CPhysicsPushedEntities::PhysicsPusherInfo_t,CUtlMemory<CPhysicsPushedEntities::PhysicsPusherInfo_t,int> >::Count
	mov	DWORD PTR _i$2[ebp], eax
$LN4@UnlinkPush:
	mov	eax, DWORD PTR _i$2[ebp]
	sub	eax, 1
	mov	DWORD PTR _i$2[ebp], eax
	js	SHORT $LN1@UnlinkPush

; 437  : 	{
; 438  : 		CBaseEntity *pEnt = m_rgPusher[i].m_pEntity;

	mov	eax, DWORD PTR _i$2[ebp]
	push	eax
	mov	ecx, DWORD PTR _this$[ebp]
	add	ecx, 4
	call	??A?$CUtlArray@UPhysicsPusherInfo_t@CPhysicsPushedEntities@@V?$CUtlMemory@UPhysicsPusherInfo_t@CPhysicsPushedEntities@@H@@@@QAEAAUPhysicsPusherInfo_t@CPhysicsPushedEntities@@H@Z ; CUtlArray<CPhysicsPushedEntities::PhysicsPusherInfo_t,CUtlMemory<CPhysicsPushedEntities::PhysicsPusherInfo_t,int> >::operator[]
	mov	ecx, DWORD PTR [eax]
	mov	DWORD PTR _pEnt$1[ebp], ecx

; 439  : 		pEnt->MakeNonSolid();

	mov	ecx, DWORD PTR _pEnt$1[ebp]
	call	?MakeNonSolid@CBaseEntity@@QAEXXZ	; CBaseEntity::MakeNonSolid

; 440  : 	}

	jmp	SHORT $LN4@UnlinkPush
$LN1@UnlinkPush:

; 441  : }

	pop	edi
	pop	esi
	pop	ebx
	mov	esp, ebp
	pop	ebp
	ret	0
?UnlinkPusherList@CPhysicsPushedEntities@@IAEXXZ ENDP	; CPhysicsPushedEntities::UnlinkPusherList
_TEXT	ENDS
; Function compile flags: /Odtp /ZI
; File d:\!diffusion 2020\source code 2022\client-server\server\physics\physic.cpp
;	COMDAT ?SetupAllInHierarchy@CPhysicsPushedEntities@@IAEXPAVCBaseEntity@@@Z
_TEXT	SEGMENT
_pChild$1 = -12						; size = 4
_i$ = -8						; size = 4
_this$ = -4						; size = 4
_pParent$ = 8						; size = 4
?SetupAllInHierarchy@CPhysicsPushedEntities@@IAEXPAVCBaseEntity@@@Z PROC ; CPhysicsPushedEntities::SetupAllInHierarchy, COMDAT
; _this$ = ecx

; 904  : {

	push	ebp
	mov	ebp, esp
	sub	esp, 76					; 0000004cH
	push	ebx
	push	esi
	push	edi
	mov	DWORD PTR _this$[ebp], ecx

; 905  : 	if( !pParent ) return;

	cmp	DWORD PTR _pParent$[ebp], 0
	jne	SHORT $LN5@SetupAllIn
	jmp	$LN1@SetupAllIn
$LN5@SetupAllIn:

; 906  : 
; 907  : 	// Make sure to snack the position +before+ relink because applying the
; 908  : 	// rotation (which occurs in relink) will put it at the final location
; 909  : 	// NOTE: The root object at this point is actually at its final position.
; 910  : 	// We'll fix that up later
; 911  : 	int i = m_rgPusher.AddToTail();

	mov	ecx, DWORD PTR _this$[ebp]
	add	ecx, 4
	call	?AddToTail@?$CUtlArray@UPhysicsPusherInfo_t@CPhysicsPushedEntities@@V?$CUtlMemory@UPhysicsPusherInfo_t@CPhysicsPushedEntities@@H@@@@QAEHXZ ; CUtlArray<CPhysicsPushedEntities::PhysicsPusherInfo_t,CUtlMemory<CPhysicsPushedEntities::PhysicsPusherInfo_t,int> >::AddToTail
	mov	DWORD PTR _i$[ebp], eax

; 912  : 	m_rgPusher[i].m_pEntity = pParent;

	mov	eax, DWORD PTR _i$[ebp]
	push	eax
	mov	ecx, DWORD PTR _this$[ebp]
	add	ecx, 4
	call	??A?$CUtlArray@UPhysicsPusherInfo_t@CPhysicsPushedEntities@@V?$CUtlMemory@UPhysicsPusherInfo_t@CPhysicsPushedEntities@@H@@@@QAEAAUPhysicsPusherInfo_t@CPhysicsPushedEntities@@H@Z ; CUtlArray<CPhysicsPushedEntities::PhysicsPusherInfo_t,CUtlMemory<CPhysicsPushedEntities::PhysicsPusherInfo_t,int> >::operator[]
	mov	ecx, DWORD PTR _pParent$[ebp]
	mov	DWORD PTR [eax], ecx

; 913  : 	m_rgPusher[i].m_vecStartAbsOrigin = pParent->GetAbsOrigin();

	mov	ecx, DWORD PTR _pParent$[ebp]
	call	?GetAbsOrigin@CBaseEntity@@QBEABVVector@@XZ ; CBaseEntity::GetAbsOrigin
	mov	esi, eax
	mov	eax, DWORD PTR _i$[ebp]
	push	eax
	mov	ecx, DWORD PTR _this$[ebp]
	add	ecx, 4
	call	??A?$CUtlArray@UPhysicsPusherInfo_t@CPhysicsPushedEntities@@V?$CUtlMemory@UPhysicsPusherInfo_t@CPhysicsPushedEntities@@H@@@@QAEAAUPhysicsPusherInfo_t@CPhysicsPushedEntities@@H@Z ; CUtlArray<CPhysicsPushedEntities::PhysicsPusherInfo_t,CUtlMemory<CPhysicsPushedEntities::PhysicsPusherInfo_t,int> >::operator[]
	add	eax, 4
	mov	ecx, DWORD PTR [esi]
	mov	DWORD PTR [eax], ecx
	mov	edx, DWORD PTR [esi+4]
	mov	DWORD PTR [eax+4], edx
	mov	ecx, DWORD PTR [esi+8]
	mov	DWORD PTR [eax+8], ecx

; 914  : 
; 915  : 	for( CBaseEntity *pChild = pParent->m_hChild; pChild != NULL; pChild = pChild->m_hNextChild )

	mov	ecx, DWORD PTR _pParent$[ebp]
	add	ecx, 168				; 000000a8H
	call	??BEHANDLE@@QAEPAVCBaseEntity@@XZ	; EHANDLE::operator CBaseEntity *
	mov	DWORD PTR _pChild$1[ebp], eax
	jmp	SHORT $LN4@SetupAllIn
$LN2@SetupAllIn:
	mov	ecx, DWORD PTR _pChild$1[ebp]
	add	ecx, 176				; 000000b0H
	call	??BEHANDLE@@QAEPAVCBaseEntity@@XZ	; EHANDLE::operator CBaseEntity *
	mov	DWORD PTR _pChild$1[ebp], eax
$LN4@SetupAllIn:
	cmp	DWORD PTR _pChild$1[ebp], 0
	je	SHORT $LN1@SetupAllIn

; 916  : 	{
; 917  : 		SetupAllInHierarchy( pChild );

	mov	eax, DWORD PTR _pChild$1[ebp]
	push	eax
	mov	ecx, DWORD PTR _this$[ebp]
	call	?SetupAllInHierarchy@CPhysicsPushedEntities@@IAEXPAVCBaseEntity@@@Z ; CPhysicsPushedEntities::SetupAllInHierarchy

; 918  : 	}

	jmp	SHORT $LN2@SetupAllIn
$LN1@SetupAllIn:

; 919  : }

	pop	edi
	pop	esi
	pop	ebx
	mov	esp, ebp
	pop	ebp
	ret	4
?SetupAllInHierarchy@CPhysicsPushedEntities@@IAEXPAVCBaseEntity@@@Z ENDP ; CPhysicsPushedEntities::SetupAllInHierarchy
_TEXT	ENDS
; Function compile flags: /Odtp /ZI
; File d:\!diffusion 2020\source code 2022\client-server\server\physics\physic.cpp
;	COMDAT ?GenerateBlockingEntityListAddBox@CPhysicsPushedEntities@@IAEXABVVector@@@Z
_TEXT	SEGMENT
tv148 = -124						; size = 4
tv138 = -124						; size = 4
_iAxis$1 = -40						; size = 4
_vecAbsMaxs$2 = -36					; size = 12
_vecAbsMins$3 = -24					; size = 12
_pPusher$4 = -12					; size = 4
_i$5 = -8						; size = 4
_this$ = -4						; size = 4
_vecMoved$ = 8						; size = 4
?GenerateBlockingEntityListAddBox@CPhysicsPushedEntities@@IAEXABVVector@@@Z PROC ; CPhysicsPushedEntities::GenerateBlockingEntityListAddBox, COMDAT
; _this$ = ecx

; 873  : {

	push	ebp
	mov	ebp, esp
	sub	esp, 124				; 0000007cH
	push	ebx
	push	esi
	push	edi
	mov	DWORD PTR _this$[ebp], ecx

; 874  : 	m_rgMoved.RemoveAll();

	mov	ecx, DWORD PTR _this$[ebp]
	add	ecx, 24					; 00000018H
	call	?RemoveAll@?$CUtlArray@UPhysicsPushedInfo_t@CPhysicsPushedEntities@@V?$CUtlMemory@UPhysicsPushedInfo_t@CPhysicsPushedEntities@@H@@@@QAEXXZ ; CUtlArray<CPhysicsPushedEntities::PhysicsPushedInfo_t,CUtlMemory<CPhysicsPushedEntities::PhysicsPushedInfo_t,int> >::RemoveAll

; 875  : 	s_nEnumCount++;

	mov	eax, DWORD PTR _this$[ebp]
	mov	ecx, DWORD PTR [eax+52]
	add	ecx, 1
	mov	edx, DWORD PTR _this$[ebp]
	mov	DWORD PTR [edx+52], ecx

; 876  : 
; 877  : 	for( int i = m_rgPusher.Count(); --i >= 0;  )

	mov	ecx, DWORD PTR _this$[ebp]
	add	ecx, 4
	call	?Count@?$CUtlArray@UPhysicsPusherInfo_t@CPhysicsPushedEntities@@V?$CUtlMemory@UPhysicsPusherInfo_t@CPhysicsPushedEntities@@H@@@@QBEHXZ ; CUtlArray<CPhysicsPushedEntities::PhysicsPusherInfo_t,CUtlMemory<CPhysicsPushedEntities::PhysicsPusherInfo_t,int> >::Count
	mov	DWORD PTR _i$5[ebp], eax
$LN2@GenerateBl:
	mov	eax, DWORD PTR _i$5[ebp]
	sub	eax, 1
	mov	DWORD PTR _i$5[ebp], eax
	js	$LN3@GenerateBl

; 878  : 	{
; 879  : 		CBaseEntity *pPusher = m_rgPusher[i].m_pEntity;

	mov	eax, DWORD PTR _i$5[ebp]
	push	eax
	mov	ecx, DWORD PTR _this$[ebp]
	add	ecx, 4
	call	??A?$CUtlArray@UPhysicsPusherInfo_t@CPhysicsPushedEntities@@V?$CUtlMemory@UPhysicsPusherInfo_t@CPhysicsPushedEntities@@H@@@@QAEAAUPhysicsPusherInfo_t@CPhysicsPushedEntities@@H@Z ; CUtlArray<CPhysicsPushedEntities::PhysicsPusherInfo_t,CUtlMemory<CPhysicsPushedEntities::PhysicsPusherInfo_t,int> >::operator[]
	mov	ecx, DWORD PTR [eax]
	mov	DWORD PTR _pPusher$4[ebp], ecx

; 880  : 
; 881  : 		// don't bother if the pusher isn't solid
; 882  : 		if( pPusher->pev->solid == SOLID_NOT && !FBitSet( pPusher->m_iFlags, MF_LADDER ))

	mov	eax, DWORD PTR _pPusher$4[ebp]
	mov	ecx, DWORD PTR [eax+4]
	cmp	DWORD PTR [ecx+268], 0
	jne	SHORT $LN8@GenerateBl
	mov	eax, DWORD PTR _pPusher$4[ebp]
	mov	ecx, DWORD PTR [eax+24]
	and	ecx, 8
	jne	SHORT $LN8@GenerateBl

; 883  : 			continue;

	jmp	SHORT $LN2@GenerateBl
$LN8@GenerateBl:

; 884  : 
; 885  : 		Vector vecAbsMins, vecAbsMaxs;

	lea	ecx, DWORD PTR _vecAbsMins$3[ebp]
	call	??0Vector@@QAE@XZ			; Vector::Vector
	lea	ecx, DWORD PTR _vecAbsMaxs$2[ebp]
	call	??0Vector@@QAE@XZ			; Vector::Vector

; 886  : 		pPusher->WorldSpaceAABB( vecAbsMins, vecAbsMaxs );

	lea	eax, DWORD PTR _vecAbsMaxs$2[ebp]
	push	eax
	lea	ecx, DWORD PTR _vecAbsMins$3[ebp]
	push	ecx
	mov	ecx, DWORD PTR _pPusher$4[ebp]
	call	?WorldSpaceAABB@CBaseEntity@@QBEXAAVVector@@0@Z ; CBaseEntity::WorldSpaceAABB

; 887  : 
; 888  : 		for( int iAxis = 0; iAxis < 3; iAxis++ )

	mov	DWORD PTR _iAxis$1[ebp], 0
	jmp	SHORT $LN7@GenerateBl
$LN5@GenerateBl:
	mov	eax, DWORD PTR _iAxis$1[ebp]
	add	eax, 1
	mov	DWORD PTR _iAxis$1[ebp], eax
$LN7@GenerateBl:
	cmp	DWORD PTR _iAxis$1[ebp], 3
	jge	SHORT $LN6@GenerateBl

; 889  : 		{
; 890  : 			if( vecMoved[iAxis] >= 0.0f )

	mov	ecx, DWORD PTR _vecMoved$[ebp]
	call	??BVector@@QBEPBMXZ			; Vector::operator float const *
	mov	ecx, DWORD PTR _iAxis$1[ebp]
	movss	xmm0, DWORD PTR [eax+ecx*4]
	comiss	xmm0, DWORD PTR __real@00000000
	jb	SHORT $LN9@GenerateBl

; 891  : 				vecAbsMins[iAxis] -= vecMoved[iAxis];

	lea	ecx, DWORD PTR _vecAbsMins$3[ebp]
	call	??BVector@@QAEPAMXZ			; Vector::operator float *
	mov	ecx, DWORD PTR _iAxis$1[ebp]
	lea	edx, DWORD PTR [eax+ecx*4]
	mov	DWORD PTR tv138[ebp], edx
	mov	ecx, DWORD PTR _vecMoved$[ebp]
	call	??BVector@@QBEPBMXZ			; Vector::operator float const *
	mov	ecx, DWORD PTR tv138[ebp]
	mov	edx, DWORD PTR _iAxis$1[ebp]
	movss	xmm0, DWORD PTR [ecx]
	subss	xmm0, DWORD PTR [eax+edx*4]
	mov	eax, DWORD PTR tv138[ebp]
	movss	DWORD PTR [eax], xmm0
	jmp	SHORT $LN10@GenerateBl
$LN9@GenerateBl:

; 892  : 			else vecAbsMaxs[iAxis] -= vecMoved[iAxis];

	lea	ecx, DWORD PTR _vecAbsMaxs$2[ebp]
	call	??BVector@@QAEPAMXZ			; Vector::operator float *
	mov	ecx, DWORD PTR _iAxis$1[ebp]
	lea	edx, DWORD PTR [eax+ecx*4]
	mov	DWORD PTR tv148[ebp], edx
	mov	ecx, DWORD PTR _vecMoved$[ebp]
	call	??BVector@@QBEPBMXZ			; Vector::operator float const *
	mov	ecx, DWORD PTR tv148[ebp]
	mov	edx, DWORD PTR _iAxis$1[ebp]
	movss	xmm0, DWORD PTR [ecx]
	subss	xmm0, DWORD PTR [eax+edx*4]
	mov	eax, DWORD PTR tv148[ebp]
	movss	DWORD PTR [eax], xmm0
$LN10@GenerateBl:

; 893  : 		}

	jmp	$LN5@GenerateBl
$LN6@GenerateBl:

; 894  : 
; 895  : 		UTIL_AreaNode( vecAbsMins, vecAbsMaxs, AREA_SOLID, AddEntityToBlockingList );

	push	OFFSET ?AddEntityToBlockingList@@YAXPAVCBaseEntity@@@Z ; AddEntityToBlockingList
	push	0
	sub	esp, 12					; 0000000cH
	mov	ecx, esp
	lea	eax, DWORD PTR _vecAbsMaxs$2[ebp]
	push	eax
	call	??0Vector@@QAE@ABV0@@Z			; Vector::Vector
	sub	esp, 12					; 0000000cH
	mov	ecx, esp
	lea	edx, DWORD PTR _vecAbsMins$3[ebp]
	push	edx
	call	??0Vector@@QAE@ABV0@@Z			; Vector::Vector
	call	?UTIL_AreaNode@@YAXVVector@@0HP6AXPAVCBaseEntity@@@Z@Z ; UTIL_AreaNode
	add	esp, 32					; 00000020H

; 896  : 		UTIL_AreaNode( vecAbsMins, vecAbsMaxs, AREA_TRIGGERS, AddEntityToBlockingList );

	push	OFFSET ?AddEntityToBlockingList@@YAXPAVCBaseEntity@@@Z ; AddEntityToBlockingList
	push	1
	sub	esp, 12					; 0000000cH
	mov	ecx, esp
	lea	eax, DWORD PTR _vecAbsMaxs$2[ebp]
	push	eax
	call	??0Vector@@QAE@ABV0@@Z			; Vector::Vector
	sub	esp, 12					; 0000000cH
	mov	ecx, esp
	lea	edx, DWORD PTR _vecAbsMins$3[ebp]
	push	edx
	call	??0Vector@@QAE@ABV0@@Z			; Vector::Vector
	call	?UTIL_AreaNode@@YAXVVector@@0HP6AXPAVCBaseEntity@@@Z@Z ; UTIL_AreaNode
	add	esp, 32					; 00000020H

; 897  : 	}

	jmp	$LN2@GenerateBl
$LN3@GenerateBl:

; 898  : }

	pop	edi
	pop	esi
	pop	ebx
	mov	esp, ebp
	pop	ebp
	ret	4
?GenerateBlockingEntityListAddBox@CPhysicsPushedEntities@@IAEXABVVector@@@Z ENDP ; CPhysicsPushedEntities::GenerateBlockingEntityListAddBox
_TEXT	ENDS
; Function compile flags: /Odtp /ZI
; File d:\!diffusion 2020\source code 2022\client-server\server\physics\physic.cpp
;	COMDAT ?GenerateBlockingEntityList@CPhysicsPushedEntities@@IAEXXZ
_TEXT	SEGMENT
_vecAbsMaxs$1 = -36					; size = 12
_vecAbsMins$2 = -24					; size = 12
_pPusher$3 = -12					; size = 4
_i$4 = -8						; size = 4
_this$ = -4						; size = 4
?GenerateBlockingEntityList@CPhysicsPushedEntities@@IAEXXZ PROC ; CPhysicsPushedEntities::GenerateBlockingEntityList, COMDAT
; _this$ = ecx

; 849  : {

	push	ebp
	mov	ebp, esp
	sub	esp, 116				; 00000074H
	push	ebx
	push	esi
	push	edi
	mov	DWORD PTR _this$[ebp], ecx

; 850  : 	m_rgMoved.RemoveAll();

	mov	ecx, DWORD PTR _this$[ebp]
	add	ecx, 24					; 00000018H
	call	?RemoveAll@?$CUtlArray@UPhysicsPushedInfo_t@CPhysicsPushedEntities@@V?$CUtlMemory@UPhysicsPushedInfo_t@CPhysicsPushedEntities@@H@@@@QAEXXZ ; CUtlArray<CPhysicsPushedEntities::PhysicsPushedInfo_t,CUtlMemory<CPhysicsPushedEntities::PhysicsPushedInfo_t,int> >::RemoveAll

; 851  : 	s_nEnumCount++;

	mov	eax, DWORD PTR _this$[ebp]
	mov	ecx, DWORD PTR [eax+52]
	add	ecx, 1
	mov	edx, DWORD PTR _this$[ebp]
	mov	DWORD PTR [edx+52], ecx

; 852  : 
; 853  : 	for( int i = m_rgPusher.Count(); --i >= 0;  )

	mov	ecx, DWORD PTR _this$[ebp]
	add	ecx, 4
	call	?Count@?$CUtlArray@UPhysicsPusherInfo_t@CPhysicsPushedEntities@@V?$CUtlMemory@UPhysicsPusherInfo_t@CPhysicsPushedEntities@@H@@@@QBEHXZ ; CUtlArray<CPhysicsPushedEntities::PhysicsPusherInfo_t,CUtlMemory<CPhysicsPushedEntities::PhysicsPusherInfo_t,int> >::Count
	mov	DWORD PTR _i$4[ebp], eax
$LN4@GenerateBl:
	mov	eax, DWORD PTR _i$4[ebp]
	sub	eax, 1
	mov	DWORD PTR _i$4[ebp], eax
	js	$LN1@GenerateBl

; 854  : 	{
; 855  : 		CBaseEntity *pPusher = m_rgPusher[i].m_pEntity;

	mov	eax, DWORD PTR _i$4[ebp]
	push	eax
	mov	ecx, DWORD PTR _this$[ebp]
	add	ecx, 4
	call	??A?$CUtlArray@UPhysicsPusherInfo_t@CPhysicsPushedEntities@@V?$CUtlMemory@UPhysicsPusherInfo_t@CPhysicsPushedEntities@@H@@@@QAEAAUPhysicsPusherInfo_t@CPhysicsPushedEntities@@H@Z ; CUtlArray<CPhysicsPushedEntities::PhysicsPusherInfo_t,CUtlMemory<CPhysicsPushedEntities::PhysicsPusherInfo_t,int> >::operator[]
	mov	ecx, DWORD PTR [eax]
	mov	DWORD PTR _pPusher$3[ebp], ecx

; 856  : 
; 857  : 		// don't bother if the pusher isn't solid
; 858  : 		if( pPusher->pev->solid == SOLID_NOT && !FBitSet( pPusher->m_iFlags, MF_LADDER ))

	mov	eax, DWORD PTR _pPusher$3[ebp]
	mov	ecx, DWORD PTR [eax+4]
	cmp	DWORD PTR [ecx+268], 0
	jne	SHORT $LN5@GenerateBl
	mov	eax, DWORD PTR _pPusher$3[ebp]
	mov	ecx, DWORD PTR [eax+24]
	and	ecx, 8
	jne	SHORT $LN5@GenerateBl

; 859  : 			continue;

	jmp	SHORT $LN4@GenerateBl
$LN5@GenerateBl:

; 860  : 
; 861  : 		Vector vecAbsMins, vecAbsMaxs;

	lea	ecx, DWORD PTR _vecAbsMins$2[ebp]
	call	??0Vector@@QAE@XZ			; Vector::Vector
	lea	ecx, DWORD PTR _vecAbsMaxs$1[ebp]
	call	??0Vector@@QAE@XZ			; Vector::Vector

; 862  : 		pPusher->WorldSpaceAABB( vecAbsMins, vecAbsMaxs );

	lea	eax, DWORD PTR _vecAbsMaxs$1[ebp]
	push	eax
	lea	ecx, DWORD PTR _vecAbsMins$2[ebp]
	push	ecx
	mov	ecx, DWORD PTR _pPusher$3[ebp]
	call	?WorldSpaceAABB@CBaseEntity@@QBEXAAVVector@@0@Z ; CBaseEntity::WorldSpaceAABB

; 863  : 
; 864  : 		UTIL_AreaNode( vecAbsMins, vecAbsMaxs, AREA_SOLID, AddEntityToBlockingList );

	push	OFFSET ?AddEntityToBlockingList@@YAXPAVCBaseEntity@@@Z ; AddEntityToBlockingList
	push	0
	sub	esp, 12					; 0000000cH
	mov	ecx, esp
	lea	eax, DWORD PTR _vecAbsMaxs$1[ebp]
	push	eax
	call	??0Vector@@QAE@ABV0@@Z			; Vector::Vector
	sub	esp, 12					; 0000000cH
	mov	ecx, esp
	lea	edx, DWORD PTR _vecAbsMins$2[ebp]
	push	edx
	call	??0Vector@@QAE@ABV0@@Z			; Vector::Vector
	call	?UTIL_AreaNode@@YAXVVector@@0HP6AXPAVCBaseEntity@@@Z@Z ; UTIL_AreaNode
	add	esp, 32					; 00000020H

; 865  : 		UTIL_AreaNode( vecAbsMins, vecAbsMaxs, AREA_TRIGGERS, AddEntityToBlockingList );

	push	OFFSET ?AddEntityToBlockingList@@YAXPAVCBaseEntity@@@Z ; AddEntityToBlockingList
	push	1
	sub	esp, 12					; 0000000cH
	mov	ecx, esp
	lea	eax, DWORD PTR _vecAbsMaxs$1[ebp]
	push	eax
	call	??0Vector@@QAE@ABV0@@Z			; Vector::Vector
	sub	esp, 12					; 0000000cH
	mov	ecx, esp
	lea	edx, DWORD PTR _vecAbsMins$2[ebp]
	push	edx
	call	??0Vector@@QAE@ABV0@@Z			; Vector::Vector
	call	?UTIL_AreaNode@@YAXVVector@@0HP6AXPAVCBaseEntity@@@Z@Z ; UTIL_AreaNode
	add	esp, 32					; 00000020H

; 866  : 	}

	jmp	$LN4@GenerateBl
$LN1@GenerateBl:

; 867  : }

	pop	edi
	pop	esi
	pop	ebx
	mov	esp, ebp
	pop	ebp
	ret	0
?GenerateBlockingEntityList@CPhysicsPushedEntities@@IAEXXZ ENDP ; CPhysicsPushedEntities::GenerateBlockingEntityList
_TEXT	ENDS
; Function compile flags: /Odtp /ZI
; File d:\!diffusion 2020\source code 2022\client-server\server\physics\physic.cpp
;	COMDAT ?FinishPush@CPhysicsPushedEntities@@IAEX_NPBURotatingPushMove_t@1@@Z
_TEXT	SEGMENT
_pPushedEntity$1 = -16					; size = 4
_info$2 = -12						; size = 4
_i$3 = -8						; size = 4
_this$ = -4						; size = 4
_bIsRotPush$ = 8					; size = 1
_pRotPushMove$ = 12					; size = 4
?FinishPush@CPhysicsPushedEntities@@IAEX_NPBURotatingPushMove_t@1@@Z PROC ; CPhysicsPushedEntities::FinishPush, COMDAT
; _this$ = ecx

; 707  : {

	push	ebp
	mov	ebp, esp
	sub	esp, 80					; 00000050H
	push	ebx
	push	esi
	push	edi
	mov	DWORD PTR _this$[ebp], ecx

; 708  : 	FinishPushers();

	mov	ecx, DWORD PTR _this$[ebp]
	call	?FinishPushers@CPhysicsPushedEntities@@IAEXXZ ; CPhysicsPushedEntities::FinishPushers

; 709  : 
; 710  : 	for( int i = m_rgMoved.Count(); --i >= 0; )

	mov	ecx, DWORD PTR _this$[ebp]
	add	ecx, 24					; 00000018H
	call	?Count@?$CUtlArray@UPhysicsPushedInfo_t@CPhysicsPushedEntities@@V?$CUtlMemory@UPhysicsPushedInfo_t@CPhysicsPushedEntities@@H@@@@QBEHXZ ; CUtlArray<CPhysicsPushedEntities::PhysicsPushedInfo_t,CUtlMemory<CPhysicsPushedEntities::PhysicsPushedInfo_t,int> >::Count
	mov	DWORD PTR _i$3[ebp], eax
$LN4@FinishPush:
	mov	eax, DWORD PTR _i$3[ebp]
	sub	eax, 1
	mov	DWORD PTR _i$3[ebp], eax
	js	$LN1@FinishPush

; 711  : 	{
; 712  : 		PhysicsPushedInfo_t &info = m_rgMoved[i];

	mov	eax, DWORD PTR _i$3[ebp]
	push	eax
	mov	ecx, DWORD PTR _this$[ebp]
	add	ecx, 24					; 00000018H
	call	??A?$CUtlArray@UPhysicsPushedInfo_t@CPhysicsPushedEntities@@V?$CUtlMemory@UPhysicsPushedInfo_t@CPhysicsPushedEntities@@H@@@@QAEAAUPhysicsPushedInfo_t@CPhysicsPushedEntities@@H@Z ; CUtlArray<CPhysicsPushedEntities::PhysicsPushedInfo_t,CUtlMemory<CPhysicsPushedEntities::PhysicsPushedInfo_t,int> >::operator[]
	mov	DWORD PTR _info$2[ebp], eax

; 713  : 		CBaseEntity *pPushedEntity = info.m_pEntity;

	mov	eax, DWORD PTR _info$2[ebp]
	mov	ecx, DWORD PTR [eax]
	mov	DWORD PTR _pPushedEntity$1[ebp], ecx

; 714  : 
; 715  : 		// cause touch functions to be called
; 716  : 		info.m_pEntity->RelinkEntity( TRUE, &info.m_vecStartAbsOrigin );

	push	0
	mov	eax, DWORD PTR _info$2[ebp]
	add	eax, 4
	push	eax
	push	1
	mov	ecx, DWORD PTR _info$2[ebp]
	mov	ecx, DWORD PTR [ecx]
	call	?RelinkEntity@CBaseEntity@@QAEXHPBVVector@@H@Z ; CBaseEntity::RelinkEntity

; 717  : 		info.m_pEntity->m_iFlags |= MF_GROUNDMOVE;

	mov	eax, DWORD PTR _info$2[ebp]
	mov	ecx, DWORD PTR [eax]
	mov	edx, DWORD PTR [ecx+24]
	or	edx, 4
	mov	eax, DWORD PTR _info$2[ebp]
	mov	ecx, DWORD PTR [eax]
	mov	DWORD PTR [ecx+24], edx

; 718  : 
; 719  : 		// register physics impacts...
; 720  : 		if( info.m_trace.pHit )

	mov	eax, DWORD PTR _info$2[ebp]
	cmp	DWORD PTR [eax+64], 0
	je	SHORT $LN5@FinishPush

; 721  : 		{
; 722  : 			SV_Impact( pPushedEntity, NULL, &info.m_trace );

	mov	eax, DWORD PTR _info$2[ebp]
	add	eax, 16					; 00000010H
	push	eax
	push	0
	mov	ecx, DWORD PTR _pPushedEntity$1[ebp]
	push	ecx
	call	?SV_Impact@@YAXPAVCBaseEntity@@0PAUgametrace_s@@@Z ; SV_Impact
	add	esp, 12					; 0000000cH
$LN5@FinishPush:

; 723  : 		}
; 724  : 
; 725  : 		if( bIsRotPush )

	movzx	eax, BYTE PTR _bIsRotPush$[ebp]
	test	eax, eax
	je	SHORT $LN6@FinishPush

; 726  : 		{
; 727  : 			FinishRotPushedEntity( pPushedEntity, *pRotPushMove );

	mov	eax, DWORD PTR _pRotPushMove$[ebp]
	push	eax
	mov	ecx, DWORD PTR _pPushedEntity$1[ebp]
	push	ecx
	mov	edx, DWORD PTR _this$[ebp]
	mov	eax, DWORD PTR [edx]
	mov	ecx, DWORD PTR _this$[ebp]
	mov	edx, DWORD PTR [eax+8]
	call	edx
$LN6@FinishPush:

; 728  : 		}
; 729  : 
; 730  : 		if( info.m_pEntity->m_iActorType == ACTOR_CHARACTER )

	mov	eax, DWORD PTR _info$2[ebp]
	mov	ecx, DWORD PTR [eax]
	movzx	edx, BYTE PTR [ecx+1616]
	cmp	edx, 3
	jne	SHORT $LN7@FinishPush

; 731  : 		{
; 732  : 			// NPC and player update shadow
; 733  : 			WorldPhysic->MoveCharacter( info.m_pEntity );

	mov	eax, DWORD PTR _info$2[ebp]
	mov	ecx, DWORD PTR [eax]
	push	ecx
	mov	edx, DWORD PTR ?WorldPhysic@@3PAVIPhysicLayer@@A ; WorldPhysic
	mov	eax, DWORD PTR [edx]
	mov	ecx, DWORD PTR ?WorldPhysic@@3PAVIPhysicLayer@@A ; WorldPhysic
	mov	edx, DWORD PTR [eax+144]
	call	edx
$LN7@FinishPush:

; 734  : 		}
; 735  : 	}

	jmp	$LN4@FinishPush
$LN1@FinishPush:

; 736  : }

	pop	edi
	pop	esi
	pop	ebx
	mov	esp, ebp
	pop	ebp
	ret	8
?FinishPush@CPhysicsPushedEntities@@IAEX_NPBURotatingPushMove_t@1@@Z ENDP ; CPhysicsPushedEntities::FinishPush
_TEXT	ENDS
; Function compile flags: /Odtp /ZI
; File d:\!diffusion 2020\source code 2022\client-server\server\physics\physic.cpp
;	COMDAT ?FinishRotPushedEntity@CPhysicsPushedEntities@@MAEXPAVCBaseEntity@@ABURotatingPushMove_t@1@@Z
_TEXT	SEGMENT
tv86 = -84						; size = 4
_angles$ = -16						; size = 12
_this$ = -4						; size = 4
_pPushedEntity$ = 8					; size = 4
_rotPushMove$ = 12					; size = 4
?FinishRotPushedEntity@CPhysicsPushedEntities@@MAEXPAVCBaseEntity@@ABURotatingPushMove_t@1@@Z PROC ; CPhysicsPushedEntities::FinishRotPushedEntity, COMDAT
; _this$ = ecx

; 677  : {

	push	ebp
	mov	ebp, esp
	sub	esp, 84					; 00000054H
	push	ebx
	push	esi
	push	edi
	mov	DWORD PTR _this$[ebp], ecx

; 678  : 	// impart angular velocity of push onto pushed objects
; 679  : 	if( pPushedEntity->IsNetClient( ))

	mov	eax, DWORD PTR _pPushedEntity$[ebp]
	mov	edx, DWORD PTR [eax]
	mov	ecx, DWORD PTR _pPushedEntity$[ebp]
	mov	eax, DWORD PTR [edx+224]
	call	eax
	test	eax, eax
	je	$LN3@FinishRotP

; 680  : 	{
; 681  : 		if( rotPushMove.amove[YAW] != 0.0f )

	mov	ecx, DWORD PTR _rotPushMove$[ebp]
	add	ecx, 12					; 0000000cH
	call	??BVector@@QBEPBMXZ			; Vector::operator float const *
	mov	ecx, 4
	shl	ecx, 0
	movss	xmm0, DWORD PTR [eax+ecx]
	ucomiss	xmm0, DWORD PTR __real@00000000
	lahf
	test	ah, 68					; 00000044H
	jnp	SHORT $LN3@FinishRotP

; 682  : 		{
; 683  : 			pPushedEntity->pev->avelocity[YAW] += rotPushMove.amove[YAW];

	mov	eax, DWORD PTR _pPushedEntity$[ebp]
	mov	ecx, DWORD PTR [eax+4]
	add	ecx, 92					; 0000005cH
	call	??BVector@@QAEPAMXZ			; Vector::operator float *
	mov	ecx, 4
	shl	ecx, 0
	add	eax, ecx
	mov	DWORD PTR tv86[ebp], eax
	mov	ecx, DWORD PTR _rotPushMove$[ebp]
	add	ecx, 12					; 0000000cH
	call	??BVector@@QBEPBMXZ			; Vector::operator float const *
	mov	edx, 4
	shl	edx, 0
	mov	ecx, DWORD PTR tv86[ebp]
	movss	xmm0, DWORD PTR [ecx]
	addss	xmm0, DWORD PTR [eax+edx]
	mov	edx, DWORD PTR tv86[ebp]
	movss	DWORD PTR [edx], xmm0

; 684  : 			SetBits( pPushedEntity->pev->fixangle, 2 );

	mov	eax, DWORD PTR _pPushedEntity$[ebp]
	mov	ecx, DWORD PTR [eax+4]
	mov	edx, DWORD PTR [ecx+160]
	or	edx, 2
	mov	eax, DWORD PTR _pPushedEntity$[ebp]
	mov	ecx, DWORD PTR [eax+4]
	mov	DWORD PTR [ecx+160], edx
$LN3@FinishRotP:

; 685  : 		}
; 686  : 	}
; 687  : 
; 688  : 	Vector angles = pPushedEntity->GetAbsAngles();

	mov	ecx, DWORD PTR _pPushedEntity$[ebp]
	call	?GetAbsAngles@CBaseEntity@@QBEABVVector@@XZ ; CBaseEntity::GetAbsAngles
	push	eax
	lea	ecx, DWORD PTR _angles$[ebp]
	call	??0Vector@@QAE@ABV0@@Z			; Vector::Vector

; 689  : 
; 690  : 	// update goal if monster try turning on the rotational platform
; 691  : 	if( FBitSet( pPushedEntity->pev->flags, FL_MONSTER ))

	mov	eax, DWORD PTR _pPushedEntity$[ebp]
	mov	ecx, DWORD PTR [eax+4]
	mov	edx, DWORD PTR [ecx+420]
	and	edx, 32					; 00000020H
	je	SHORT $LN4@FinishRotP

; 692  : 		pPushedEntity->pev->ideal_yaw += rotPushMove.amove[YAW];

	mov	eax, DWORD PTR _pPushedEntity$[ebp]
	mov	esi, DWORD PTR [eax+4]
	mov	ecx, DWORD PTR _rotPushMove$[ebp]
	add	ecx, 12					; 0000000cH
	call	??BVector@@QBEPBMXZ			; Vector::operator float const *
	mov	ecx, 4
	shl	ecx, 0
	movss	xmm0, DWORD PTR [esi+172]
	addss	xmm0, DWORD PTR [eax+ecx]
	mov	edx, DWORD PTR _pPushedEntity$[ebp]
	mov	eax, DWORD PTR [edx+4]
	movss	DWORD PTR [eax+172], xmm0
$LN4@FinishRotP:

; 693  : 		
; 694  : 	// only rotate YAW with pushing.
; 695  : 	angles.y += rotPushMove.amove.y;

	mov	eax, DWORD PTR _rotPushMove$[ebp]
	movss	xmm0, DWORD PTR _angles$[ebp+4]
	addss	xmm0, DWORD PTR [eax+16]
	movss	DWORD PTR _angles$[ebp+4], xmm0

; 696  : 	pPushedEntity->SetAbsAngles( angles );

	lea	eax, DWORD PTR _angles$[ebp]
	push	eax
	mov	ecx, DWORD PTR _pPushedEntity$[ebp]
	call	?SetAbsAngles@CBaseEntity@@QAEXABVVector@@@Z ; CBaseEntity::SetAbsAngles

; 697  : 
; 698  : 	// keep gait yaw is actual
; 699  : 	if( pPushedEntity->IsPlayer( ) && rotPushMove.amove.y != 0.0f )

	mov	eax, DWORD PTR _pPushedEntity$[ebp]
	mov	edx, DWORD PTR [eax]
	mov	ecx, DWORD PTR _pPushedEntity$[ebp]
	mov	eax, DWORD PTR [edx+220]
	call	eax
	test	eax, eax
	je	SHORT $LN5@FinishRotP
	mov	eax, DWORD PTR _rotPushMove$[ebp]
	movss	xmm0, DWORD PTR [eax+16]
	ucomiss	xmm0, DWORD PTR __real@00000000
	lahf
	test	ah, 68					; 00000044H
	jnp	SHORT $LN5@FinishRotP

; 700  : 		pPushedEntity->m_flGaitYaw = pPushedEntity->pev->angles[YAW];

	mov	eax, DWORD PTR _pPushedEntity$[ebp]
	mov	ecx, DWORD PTR [eax+4]
	add	ecx, 80					; 00000050H
	call	??BVector@@QAEPAMXZ			; Vector::operator float *
	mov	ecx, 4
	shl	ecx, 0
	mov	edx, DWORD PTR _pPushedEntity$[ebp]
	mov	eax, DWORD PTR [eax+ecx]
	mov	DWORD PTR [edx+56], eax
$LN5@FinishRotP:

; 701  : }

	pop	edi
	pop	esi
	pop	ebx
	mov	esp, ebp
	pop	ebp
	ret	8
?FinishRotPushedEntity@CPhysicsPushedEntities@@MAEXPAVCBaseEntity@@ABURotatingPushMove_t@1@@Z ENDP ; CPhysicsPushedEntities::FinishRotPushedEntity
_TEXT	ENDS
; Function compile flags: /Odtp /ZI
; File d:\!diffusion 2020\source code 2022\client-server\server\physics\physic.cpp
;	COMDAT ?RegisterBlockage@CPhysicsPushedEntities@@IAEPAVCBaseEntity@@XZ
_TEXT	SEGMENT
tv71 = -76						; size = 4
_info$ = -8						; size = 4
_this$ = -4						; size = 4
?RegisterBlockage@CPhysicsPushedEntities@@IAEPAVCBaseEntity@@XZ PROC ; CPhysicsPushedEntities::RegisterBlockage, COMDAT
; _this$ = ecx

; 749  : {

	push	ebp
	mov	ebp, esp
	sub	esp, 76					; 0000004cH
	push	ebx
	push	esi
	push	edi
	mov	DWORD PTR _this$[ebp], ecx

; 750  : 	ASSERT( m_nBlocker >= 0 );

	mov	eax, DWORD PTR _this$[ebp]
	cmp	DWORD PTR [eax+44], 0
	jl	SHORT $LN4@RegisterBl
	mov	DWORD PTR tv71[ebp], 1
	jmp	SHORT $LN5@RegisterBl
$LN4@RegisterBl:
	mov	DWORD PTR tv71[ebp], 0
$LN5@RegisterBl:
	push	0
	mov	ecx, DWORD PTR ?__LINE__Var@?0??RegisterBlockage@CPhysicsPushedEntities@@IAEPAVCBaseEntity@@XZ@4JA
	add	ecx, 1
	push	ecx
	push	OFFSET ??_C@_0EM@GBEFGAKM@d?3?2?$CBdiffusion?52020?2source?5code?52@
	push	OFFSET ??_C@_0BA@HGFAHNIM@m_nBlocker?5?$DO?$DN?50?$AA@
	mov	edx, DWORD PTR tv71[ebp]
	push	edx
	call	?DBG_AssertFunction@@YAXHPBD0H0@Z	; DBG_AssertFunction
	add	esp, 20					; 00000014H

; 751  : 
; 752  : 	// generate a PhysicsImpact against the blocker...
; 753  : 	PhysicsPushedInfo_t &info = m_rgMoved[m_nBlocker];

	mov	eax, DWORD PTR _this$[ebp]
	mov	ecx, DWORD PTR [eax+44]
	push	ecx
	mov	ecx, DWORD PTR _this$[ebp]
	add	ecx, 24					; 00000018H
	call	??A?$CUtlArray@UPhysicsPushedInfo_t@CPhysicsPushedEntities@@V?$CUtlMemory@UPhysicsPushedInfo_t@CPhysicsPushedEntities@@H@@@@QAEAAUPhysicsPushedInfo_t@CPhysicsPushedEntities@@H@Z ; CUtlArray<CPhysicsPushedEntities::PhysicsPushedInfo_t,CUtlMemory<CPhysicsPushedEntities::PhysicsPushedInfo_t,int> >::operator[]
	mov	DWORD PTR _info$[ebp], eax

; 754  : 
; 755  : 	if( info.m_trace.pHit )

	mov	eax, DWORD PTR _info$[ebp]
	cmp	DWORD PTR [eax+64], 0
	je	SHORT $LN2@RegisterBl

; 756  : 	{
; 757  : 		SV_Impact( info.m_pEntity, NULL, &info.m_trace );

	mov	eax, DWORD PTR _info$[ebp]
	add	eax, 16					; 00000010H
	push	eax
	push	0
	mov	ecx, DWORD PTR _info$[ebp]
	mov	edx, DWORD PTR [ecx]
	push	edx
	call	?SV_Impact@@YAXPAVCBaseEntity@@0PAUgametrace_s@@@Z ; SV_Impact
	add	esp, 12					; 0000000cH
$LN2@RegisterBl:

; 758  : 	}
; 759  : 
; 760  : 	// this is the dude 
; 761  : 	return info.m_pEntity;

	mov	eax, DWORD PTR _info$[ebp]
	mov	eax, DWORD PTR [eax]

; 762  : }

	pop	edi
	pop	esi
	pop	ebx
	mov	esp, ebp
	pop	ebp
	ret	0
?RegisterBlockage@CPhysicsPushedEntities@@IAEPAVCBaseEntity@@XZ ENDP ; CPhysicsPushedEntities::RegisterBlockage
_TEXT	ENDS
; Function compile flags: /Odtp /ZI
; File d:\!diffusion 2020\source code 2022\client-server\server\physics\physic.cpp
;	COMDAT ?SpeculativelyCheckLinearPush@CPhysicsPushedEntities@@MAE_NABVVector@@@Z
_TEXT	SEGMENT
_i$1 = -8						; size = 4
_this$ = -4						; size = 4
_vecAbsPush$ = 8					; size = 4
?SpeculativelyCheckLinearPush@CPhysicsPushedEntities@@MAE_NABVVector@@@Z PROC ; CPhysicsPushedEntities::SpeculativelyCheckLinearPush, COMDAT
; _this$ = ecx

; 637  : {

	push	ebp
	mov	ebp, esp
	sub	esp, 72					; 00000048H
	push	ebx
	push	esi
	push	edi
	mov	DWORD PTR _this$[ebp], ecx

; 638  : 	m_nBlocker = -1;

	mov	eax, DWORD PTR _this$[ebp]
	mov	DWORD PTR [eax+44], -1

; 639  : 
; 640  : 	for( int i = m_rgMoved.Count(); --i >= 0; )

	mov	ecx, DWORD PTR _this$[ebp]
	add	ecx, 24					; 00000018H
	call	?Count@?$CUtlArray@UPhysicsPushedInfo_t@CPhysicsPushedEntities@@V?$CUtlMemory@UPhysicsPushedInfo_t@CPhysicsPushedEntities@@H@@@@QBEHXZ ; CUtlArray<CPhysicsPushedEntities::PhysicsPushedInfo_t,CUtlMemory<CPhysicsPushedEntities::PhysicsPushedInfo_t,int> >::Count
	mov	DWORD PTR _i$1[ebp], eax
$LN4@Speculativ:
	mov	eax, DWORD PTR _i$1[ebp]
	sub	eax, 1
	mov	DWORD PTR _i$1[ebp], eax
	js	SHORT $LN3@Speculativ

; 641  : 	{
; 642  : 		if( !SpeculativelyCheckPush( m_rgMoved[i], vecAbsPush, false ))

	push	0
	mov	eax, DWORD PTR _vecAbsPush$[ebp]
	push	eax
	mov	ecx, DWORD PTR _i$1[ebp]
	push	ecx
	mov	ecx, DWORD PTR _this$[ebp]
	add	ecx, 24					; 00000018H
	call	??A?$CUtlArray@UPhysicsPushedInfo_t@CPhysicsPushedEntities@@V?$CUtlMemory@UPhysicsPushedInfo_t@CPhysicsPushedEntities@@H@@@@QAEAAUPhysicsPushedInfo_t@CPhysicsPushedEntities@@H@Z ; CUtlArray<CPhysicsPushedEntities::PhysicsPushedInfo_t,CUtlMemory<CPhysicsPushedEntities::PhysicsPushedInfo_t,int> >::operator[]
	push	eax
	mov	ecx, DWORD PTR _this$[ebp]
	call	?SpeculativelyCheckPush@CPhysicsPushedEntities@@IAE_NAAUPhysicsPushedInfo_t@1@ABVVector@@_N@Z ; CPhysicsPushedEntities::SpeculativelyCheckPush
	movzx	edx, al
	test	edx, edx
	jne	SHORT $LN5@Speculativ

; 643  : 		{
; 644  : 			m_nBlocker = i;

	mov	eax, DWORD PTR _this$[ebp]
	mov	ecx, DWORD PTR _i$1[ebp]
	mov	DWORD PTR [eax+44], ecx

; 645  : 			return false;

	xor	al, al
	jmp	SHORT $LN1@Speculativ
$LN5@Speculativ:

; 646  : 		}
; 647  : 	}

	jmp	SHORT $LN4@Speculativ
$LN3@Speculativ:

; 648  : 	return true;

	mov	al, 1
$LN1@Speculativ:

; 649  : }

	pop	edi
	pop	esi
	pop	ebx
	mov	esp, ebp
	pop	ebp
	ret	4
?SpeculativelyCheckLinearPush@CPhysicsPushedEntities@@MAE_NABVVector@@@Z ENDP ; CPhysicsPushedEntities::SpeculativelyCheckLinearPush
_TEXT	ENDS
; Function compile flags: /Odtp /ZI
; File d:\!diffusion 2020\source code 2022\client-server\server\physics\physic.cpp
;	COMDAT ?SpeculativelyCheckRotPush@CPhysicsPushedEntities@@MAE_NABURotatingPushMove_t@1@PAVCBaseEntity@@@Z
_TEXT	SEGMENT
_i$1 = -20						; size = 4
_vecAbsPush$ = -16					; size = 12
_this$ = -4						; size = 4
_rotPushMove$ = 8					; size = 4
_pRoot$ = 12						; size = 4
?SpeculativelyCheckRotPush@CPhysicsPushedEntities@@MAE_NABURotatingPushMove_t@1@PAVCBaseEntity@@@Z PROC ; CPhysicsPushedEntities::SpeculativelyCheckRotPush, COMDAT
; _this$ = ecx

; 616  : {

	push	ebp
	mov	ebp, esp
	sub	esp, 84					; 00000054H
	push	ebx
	push	esi
	push	edi
	mov	DWORD PTR _this$[ebp], ecx

; 617  : 	Vector vecAbsPush;

	lea	ecx, DWORD PTR _vecAbsPush$[ebp]
	call	??0Vector@@QAE@XZ			; Vector::Vector

; 618  : 	m_nBlocker = -1;

	mov	eax, DWORD PTR _this$[ebp]
	mov	DWORD PTR [eax+44], -1

; 619  : 
; 620  : 	for( int i = m_rgMoved.Count(); --i >= 0; )

	mov	ecx, DWORD PTR _this$[ebp]
	add	ecx, 24					; 00000018H
	call	?Count@?$CUtlArray@UPhysicsPushedInfo_t@CPhysicsPushedEntities@@V?$CUtlMemory@UPhysicsPushedInfo_t@CPhysicsPushedEntities@@H@@@@QBEHXZ ; CUtlArray<CPhysicsPushedEntities::PhysicsPushedInfo_t,CUtlMemory<CPhysicsPushedEntities::PhysicsPushedInfo_t,int> >::Count
	mov	DWORD PTR _i$1[ebp], eax
$LN4@Speculativ:
	mov	eax, DWORD PTR _i$1[ebp]
	sub	eax, 1
	mov	DWORD PTR _i$1[ebp], eax
	js	SHORT $LN3@Speculativ

; 621  : 	{
; 622  : 		CalcRotationalPushDirection( m_rgMoved[i].m_pEntity, rotPushMove, vecAbsPush, pRoot );

	mov	eax, DWORD PTR _pRoot$[ebp]
	push	eax
	lea	ecx, DWORD PTR _vecAbsPush$[ebp]
	push	ecx
	mov	edx, DWORD PTR _rotPushMove$[ebp]
	push	edx
	mov	eax, DWORD PTR _i$1[ebp]
	push	eax
	mov	ecx, DWORD PTR _this$[ebp]
	add	ecx, 24					; 00000018H
	call	??A?$CUtlArray@UPhysicsPushedInfo_t@CPhysicsPushedEntities@@V?$CUtlMemory@UPhysicsPushedInfo_t@CPhysicsPushedEntities@@H@@@@QAEAAUPhysicsPushedInfo_t@CPhysicsPushedEntities@@H@Z ; CUtlArray<CPhysicsPushedEntities::PhysicsPushedInfo_t,CUtlMemory<CPhysicsPushedEntities::PhysicsPushedInfo_t,int> >::operator[]
	mov	ecx, DWORD PTR [eax]
	push	ecx
	mov	ecx, DWORD PTR _this$[ebp]
	call	?CalcRotationalPushDirection@CPhysicsPushedEntities@@IAEXPAVCBaseEntity@@ABURotatingPushMove_t@1@AAVVector@@0@Z ; CPhysicsPushedEntities::CalcRotationalPushDirection

; 623  : 
; 624  : 		if( !SpeculativelyCheckPush( m_rgMoved[i], vecAbsPush, true ))

	push	1
	lea	eax, DWORD PTR _vecAbsPush$[ebp]
	push	eax
	mov	ecx, DWORD PTR _i$1[ebp]
	push	ecx
	mov	ecx, DWORD PTR _this$[ebp]
	add	ecx, 24					; 00000018H
	call	??A?$CUtlArray@UPhysicsPushedInfo_t@CPhysicsPushedEntities@@V?$CUtlMemory@UPhysicsPushedInfo_t@CPhysicsPushedEntities@@H@@@@QAEAAUPhysicsPushedInfo_t@CPhysicsPushedEntities@@H@Z ; CUtlArray<CPhysicsPushedEntities::PhysicsPushedInfo_t,CUtlMemory<CPhysicsPushedEntities::PhysicsPushedInfo_t,int> >::operator[]
	push	eax
	mov	ecx, DWORD PTR _this$[ebp]
	call	?SpeculativelyCheckPush@CPhysicsPushedEntities@@IAE_NAAUPhysicsPushedInfo_t@1@ABVVector@@_N@Z ; CPhysicsPushedEntities::SpeculativelyCheckPush
	movzx	edx, al
	test	edx, edx
	jne	SHORT $LN5@Speculativ

; 625  : 		{
; 626  : 			m_nBlocker = i;

	mov	eax, DWORD PTR _this$[ebp]
	mov	ecx, DWORD PTR _i$1[ebp]
	mov	DWORD PTR [eax+44], ecx

; 627  : 			return false;

	xor	al, al
	jmp	SHORT $LN1@Speculativ
$LN5@Speculativ:

; 628  : 		}
; 629  : 	}

	jmp	SHORT $LN4@Speculativ
$LN3@Speculativ:

; 630  : 	return true;

	mov	al, 1
$LN1@Speculativ:

; 631  : }

	pop	edi
	pop	esi
	pop	ebx
	mov	esp, ebp
	pop	ebp
	ret	8
?SpeculativelyCheckRotPush@CPhysicsPushedEntities@@MAE_NABURotatingPushMove_t@1@PAVCBaseEntity@@@Z ENDP ; CPhysicsPushedEntities::SpeculativelyCheckRotPush
_TEXT	ENDS
; Function compile flags: /Odtp /ZI
; File d:\!diffusion 2020\source code 2022\client-server\server\physics\physic.cpp
;	COMDAT ?SpeculativelyCheckPush@CPhysicsPushedEntities@@IAE_NAAUPhysicsPushedInfo_t@1@ABVVector@@_N@Z
_TEXT	SEGMENT
tv326 = -164						; size = 4
tv309 = -164						; size = 4
tv281 = -164						; size = 4
tv189 = -161						; size = 1
tv182 = -161						; size = 1
tv176 = -161						; size = 1
tv165 = -161						; size = 1
$T1 = -160						; size = 12
$T2 = -148						; size = 12
_factor$3 = -72						; size = 4
_move$4 = -68						; size = 12
_checkCount$5 = -56					; size = 4
_org$6 = -52						; size = 12
_bIsBlocked$ = -40					; size = 1
_bIsUnblockable$ = -39					; size = 1
_bIsCharacter$ = -38					; size = 1
_bIsDynamic$ = -37					; size = 1
_pushDestPosition$ = -36				; size = 12
_vecAbsPush$ = -24					; size = 12
_ent$ = -12						; size = 4
_pBlocker$ = -8						; size = 4
_this$ = -4						; size = 4
_info$ = 8						; size = 4
_srcAbsPush$ = 12					; size = 4
_bRotationalPush$ = 16					; size = 1
?SpeculativelyCheckPush@CPhysicsPushedEntities@@IAE_NAAUPhysicsPushedInfo_t@1@ABVVector@@_N@Z PROC ; CPhysicsPushedEntities::SpeculativelyCheckPush, COMDAT
; _this$ = ecx

; 491  : {

	push	ebp
	mov	ebp, esp
	sub	esp, 164				; 000000a4H
	push	ebx
	push	esi
	push	edi
	mov	DWORD PTR _this$[ebp], ecx

; 492  : 	CBaseEntity *pBlocker = info.m_pEntity;

	mov	eax, DWORD PTR _info$[ebp]
	mov	ecx, DWORD PTR [eax]
	mov	DWORD PTR _pBlocker$[ebp], ecx

; 493  : 	edict_t *ent = pBlocker->edict();

	mov	ecx, DWORD PTR _pBlocker$[ebp]
	call	?edict@CBaseEntity@@QAEPAUedict_s@@XZ	; CBaseEntity::edict
	mov	DWORD PTR _ent$[ebp], eax

; 494  : 	Vector vecAbsPush = srcAbsPush;

	mov	eax, DWORD PTR _srcAbsPush$[ebp]
	push	eax
	lea	ecx, DWORD PTR _vecAbsPush$[ebp]
	call	??0Vector@@QAE@ABV0@@Z			; Vector::Vector

; 495  : 
; 496  : 	// See if it's possible to move the entity, but disable all pushers in the hierarchy first
; 497  : 	UnlinkPusherList();

	mov	ecx, DWORD PTR _this$[ebp]
	call	?UnlinkPusherList@CPhysicsPushedEntities@@IAEXXZ ; CPhysicsPushedEntities::UnlinkPusherList

; 498  : 
; 499  : 	// i can't clear FL_ONGROUND in all cases because many bad things may be happen
; 500  : 	if( pBlocker->pev->movetype != MOVETYPE_WALK && bRotationalPush )

	mov	eax, DWORD PTR _pBlocker$[ebp]
	mov	ecx, DWORD PTR [eax+4]
	cmp	DWORD PTR [ecx+264], 3
	je	SHORT $LN6@Speculativ
	movzx	eax, BYTE PTR _bRotationalPush$[ebp]
	test	eax, eax
	je	SHORT $LN6@Speculativ

; 501  : 	{
; 502  : 		if( vecAbsPush[2] < 0.0f && !m_rgPusher[0].m_pEntity->pev->dmg )

	lea	ecx, DWORD PTR _vecAbsPush$[ebp]
	call	??BVector@@QAEPAMXZ			; Vector::operator float *
	mov	ecx, 4
	shl	ecx, 1
	xorps	xmm0, xmm0
	comiss	xmm0, DWORD PTR [eax+ecx]
	jbe	SHORT $LN6@Speculativ
	push	0
	mov	ecx, DWORD PTR _this$[ebp]
	add	ecx, 4
	call	??A?$CUtlArray@UPhysicsPusherInfo_t@CPhysicsPushedEntities@@V?$CUtlMemory@UPhysicsPusherInfo_t@CPhysicsPushedEntities@@H@@@@QAEAAUPhysicsPusherInfo_t@CPhysicsPushedEntities@@H@Z ; CUtlArray<CPhysicsPushedEntities::PhysicsPusherInfo_t,CUtlMemory<CPhysicsPushedEntities::PhysicsPusherInfo_t,int> >::operator[]
	mov	eax, DWORD PTR [eax]
	mov	ecx, DWORD PTR [eax+4]
	movss	xmm0, DWORD PTR [ecx+480]
	ucomiss	xmm0, DWORD PTR __real@00000000
	lahf
	test	ah, 68					; 00000044H
	jp	SHORT $LN6@Speculativ

; 503  : 			vecAbsPush[2] = 0.0f; // let's the free falling

	lea	ecx, DWORD PTR _vecAbsPush$[ebp]
	call	??BVector@@QAEPAMXZ			; Vector::operator float *
	mov	ecx, 4
	shl	ecx, 1
	xorps	xmm0, xmm0
	movss	DWORD PTR [eax+ecx], xmm0
$LN6@Speculativ:

; 504  : 	}
; 505  : 
; 506  : 	Vector pushDestPosition = pBlocker->GetAbsOrigin() + vecAbsPush;

	lea	eax, DWORD PTR _vecAbsPush$[ebp]
	push	eax
	lea	ecx, DWORD PTR _pushDestPosition$[ebp]
	push	ecx
	mov	ecx, DWORD PTR _pBlocker$[ebp]
	call	?GetAbsOrigin@CBaseEntity@@QBEABVVector@@XZ ; CBaseEntity::GetAbsOrigin
	mov	ecx, eax
	call	??HVector@@QBE?AV0@ABV0@@Z		; Vector::operator+

; 507  : 
; 508  : 	UTIL_TraceEntity( pBlocker, pBlocker->GetAbsOrigin(), pushDestPosition, &info.m_trace );

	mov	eax, DWORD PTR _info$[ebp]
	add	eax, 16					; 00000010H
	push	eax
	lea	ecx, DWORD PTR _pushDestPosition$[ebp]
	push	ecx
	mov	ecx, DWORD PTR _pBlocker$[ebp]
	call	?GetAbsOrigin@CBaseEntity@@QBEABVVector@@XZ ; CBaseEntity::GetAbsOrigin
	push	eax
	mov	edx, DWORD PTR _pBlocker$[ebp]
	push	edx
	call	?UTIL_TraceEntity@@YAXPAVCBaseEntity@@ABVVector@@1PAUgametrace_s@@@Z ; UTIL_TraceEntity
	add	esp, 16					; 00000010H

; 509  : 
; 510  : 	RelinkPusherList();

	mov	ecx, DWORD PTR _this$[ebp]
	call	?RelinkPusherList@CPhysicsPushedEntities@@IAEXXZ ; CPhysicsPushedEntities::RelinkPusherList

; 511  : 
; 512  : 	info.m_bPusherIsGround = false;

	mov	eax, DWORD PTR _info$[ebp]
	mov	BYTE PTR [eax+73], 0

; 513  : 
; 514  : 	// remove the onground flag for non-players
; 515  : 	if( pBlocker->pev->movetype != MOVETYPE_WALK && !bRotationalPush )

	mov	eax, DWORD PTR _pBlocker$[ebp]
	mov	ecx, DWORD PTR [eax+4]
	cmp	DWORD PTR [ecx+264], 3
	je	SHORT $LN7@Speculativ
	movzx	eax, BYTE PTR _bRotationalPush$[ebp]
	test	eax, eax
	jne	SHORT $LN7@Speculativ

; 516  : 		pBlocker->pev->flags &= ~FL_ONGROUND;

	mov	eax, DWORD PTR _pBlocker$[ebp]
	mov	ecx, DWORD PTR [eax+4]
	mov	edx, DWORD PTR [ecx+420]
	and	edx, -513				; fffffdffH
	mov	eax, DWORD PTR _pBlocker$[ebp]
	mov	ecx, DWORD PTR [eax+4]
	mov	DWORD PTR [ecx+420], edx
$LN7@Speculativ:

; 517  : 
; 518  : 	if( pBlocker->GetGroundEntity() && pBlocker->GetGroundEntity()->GetRootParent() == m_rgPusher[0].m_pEntity )

	mov	ecx, DWORD PTR _pBlocker$[ebp]
	call	?GetGroundEntity@CBaseEntity@@QAEPAV1@XZ ; CBaseEntity::GetGroundEntity
	test	eax, eax
	je	SHORT $LN8@Speculativ
	mov	ecx, DWORD PTR _pBlocker$[ebp]
	call	?GetGroundEntity@CBaseEntity@@QAEPAV1@XZ ; CBaseEntity::GetGroundEntity
	mov	ecx, eax
	call	?GetRootParent@CBaseEntity@@QAEPAV1@XZ	; CBaseEntity::GetRootParent
	mov	esi, eax
	push	0
	mov	ecx, DWORD PTR _this$[ebp]
	add	ecx, 4
	call	??A?$CUtlArray@UPhysicsPusherInfo_t@CPhysicsPushedEntities@@V?$CUtlMemory@UPhysicsPusherInfo_t@CPhysicsPushedEntities@@H@@@@QAEAAUPhysicsPusherInfo_t@CPhysicsPushedEntities@@H@Z ; CUtlArray<CPhysicsPushedEntities::PhysicsPusherInfo_t,CUtlMemory<CPhysicsPushedEntities::PhysicsPusherInfo_t,int> >::operator[]
	cmp	esi, DWORD PTR [eax]
	jne	SHORT $LN8@Speculativ

; 519  : 	{
; 520  : 		info.m_bPusherIsGround = true;

	mov	eax, DWORD PTR _info$[ebp]
	mov	BYTE PTR [eax+73], 1
$LN8@Speculativ:

; 521  : 	}
; 522  : 
; 523  : 	bool bIsDynamic = ( pBlocker->m_iActorType == ACTOR_DYNAMIC ) ? true : false;

	mov	eax, DWORD PTR _pBlocker$[ebp]
	movzx	ecx, BYTE PTR [eax+1616]
	cmp	ecx, 1
	jne	SHORT $LN30@Speculativ
	mov	BYTE PTR tv165[ebp], 1
	jmp	SHORT $LN31@Speculativ
$LN30@Speculativ:
	mov	BYTE PTR tv165[ebp], 0
$LN31@Speculativ:
	mov	dl, BYTE PTR tv165[ebp]
	mov	BYTE PTR _bIsDynamic$[ebp], dl

; 524  : 	bool bIsCharacter = (pBlocker->IsPlayer() || pBlocker->MyMonsterPointer()) ? true : false;

	mov	eax, DWORD PTR _pBlocker$[ebp]
	mov	edx, DWORD PTR [eax]
	mov	ecx, DWORD PTR _pBlocker$[ebp]
	mov	eax, DWORD PTR [edx+220]
	call	eax
	test	eax, eax
	jne	SHORT $LN32@Speculativ
	mov	ecx, DWORD PTR _pBlocker$[ebp]
	mov	edx, DWORD PTR [ecx]
	mov	ecx, DWORD PTR _pBlocker$[ebp]
	mov	eax, DWORD PTR [edx+124]
	call	eax
	test	eax, eax
	jne	SHORT $LN32@Speculativ
	mov	BYTE PTR tv176[ebp], 0
	jmp	SHORT $LN33@Speculativ
$LN32@Speculativ:
	mov	BYTE PTR tv176[ebp], 1
$LN33@Speculativ:
	mov	cl, BYTE PTR tv176[ebp]
	mov	BYTE PTR _bIsCharacter$[ebp], cl

; 525  : 	bool bIsUnblockable = (m_bIsUnblockableByPlayer && bIsCharacter) ? true : false;

	mov	eax, DWORD PTR _this$[ebp]
	movzx	ecx, BYTE PTR [eax+48]
	test	ecx, ecx
	je	SHORT $LN34@Speculativ
	movzx	edx, BYTE PTR _bIsCharacter$[ebp]
	test	edx, edx
	je	SHORT $LN34@Speculativ
	mov	BYTE PTR tv182[ebp], 1
	jmp	SHORT $LN35@Speculativ
$LN34@Speculativ:
	mov	BYTE PTR tv182[ebp], 0
$LN35@Speculativ:
	mov	al, BYTE PTR tv182[ebp]
	mov	BYTE PTR _bIsUnblockable$[ebp], al

; 526  : 	bool bIsBlocked = (pushDestPosition != info.m_trace.vecEndPos) ? true : false;

	mov	eax, DWORD PTR _info$[ebp]
	add	eax, 36					; 00000024H
	push	eax
	lea	ecx, DWORD PTR _pushDestPosition$[ebp]
	call	??9Vector@@QBEHABV0@@Z			; Vector::operator!=
	test	eax, eax
	je	SHORT $LN36@Speculativ
	mov	BYTE PTR tv189[ebp], 1
	jmp	SHORT $LN37@Speculativ
$LN36@Speculativ:
	mov	BYTE PTR tv189[ebp], 0
$LN37@Speculativ:
	mov	cl, BYTE PTR tv189[ebp]
	mov	BYTE PTR _bIsBlocked$[ebp], cl

; 527  : 
; 528  : 	if( pBlocker->pev->movetype != MOVETYPE_WALK )

	mov	eax, DWORD PTR _pBlocker$[ebp]
	mov	ecx, DWORD PTR [eax+4]
	cmp	DWORD PTR [ecx+264], 3
	je	SHORT $LN10@Speculativ

; 529  : 	{
; 530  : 		if( bRotationalPush && ( bIsBlocked || srcAbsPush.z != 0.0f ))

	movzx	eax, BYTE PTR _bRotationalPush$[ebp]
	test	eax, eax
	je	SHORT $LN10@Speculativ
	movzx	eax, BYTE PTR _bIsBlocked$[ebp]
	test	eax, eax
	jne	SHORT $LN11@Speculativ
	mov	eax, DWORD PTR _srcAbsPush$[ebp]
	movss	xmm0, DWORD PTR [eax+8]
	ucomiss	xmm0, DWORD PTR __real@00000000
	lahf
	test	ah, 68					; 00000044H
	jnp	SHORT $LN10@Speculativ
$LN11@Speculativ:

; 531  : 			pBlocker->pev->flags &= ~FL_ONGROUND;

	mov	eax, DWORD PTR _pBlocker$[ebp]
	mov	ecx, DWORD PTR [eax+4]
	mov	edx, DWORD PTR [ecx+420]
	and	edx, -513				; fffffdffH
	mov	eax, DWORD PTR _pBlocker$[ebp]
	mov	ecx, DWORD PTR [eax+4]
	mov	DWORD PTR [ecx+420], edx
$LN10@Speculativ:

; 532  : 	}
; 533  : 
; 534  : 	if( bIsUnblockable )

	movzx	eax, BYTE PTR _bIsUnblockable$[ebp]
	test	eax, eax
	je	SHORT $LN12@Speculativ

; 535  : 	{
; 536  : 		pBlocker->SetAbsOrigin( pushDestPosition );

	lea	eax, DWORD PTR _pushDestPosition$[ebp]
	push	eax
	mov	ecx, DWORD PTR _pBlocker$[ebp]
	call	?SetAbsOrigin@CBaseEntity@@QAEXABVVector@@@Z ; CBaseEntity::SetAbsOrigin

; 537  : 	}
; 538  : 	else

	jmp	$LN22@Speculativ
$LN12@Speculativ:

; 539  : 	{
; 540  : 		// move the blocker into its new position
; 541  : 		if( info.m_trace.flFraction )

	mov	eax, DWORD PTR _info$[ebp]
	movss	xmm0, DWORD PTR [eax+32]
	ucomiss	xmm0, DWORD PTR __real@00000000
	lahf
	test	ah, 68					; 00000044H
	jnp	SHORT $LN17@Speculativ

; 542  : 		{
; 543  : 			if( !info.m_trace.fAllSolid )

	mov	eax, DWORD PTR _info$[ebp]
	cmp	DWORD PTR [eax+16], 0
	jne	SHORT $LN15@Speculativ

; 544  : 			{
; 545  : 				pBlocker->SetAbsOrigin( info.m_trace.vecEndPos );

	mov	eax, DWORD PTR _info$[ebp]
	add	eax, 36					; 00000024H
	push	eax
	mov	ecx, DWORD PTR _pBlocker$[ebp]
	call	?SetAbsOrigin@CBaseEntity@@QAEXABVVector@@@Z ; CBaseEntity::SetAbsOrigin
	jmp	SHORT $LN17@Speculativ
$LN15@Speculativ:

; 546  : 			}
; 547  : 			else if( pBlocker->m_iActorType == ACTOR_DYNAMIC && !info.m_bPusherIsGround && !bRotationalPush )

	mov	eax, DWORD PTR _pBlocker$[ebp]
	movzx	ecx, BYTE PTR [eax+1616]
	cmp	ecx, 1
	jne	SHORT $LN17@Speculativ
	mov	eax, DWORD PTR _info$[ebp]
	movzx	ecx, BYTE PTR [eax+73]
	test	ecx, ecx
	jne	SHORT $LN17@Speculativ
	movzx	eax, BYTE PTR _bRotationalPush$[ebp]
	test	eax, eax
	jne	SHORT $LN17@Speculativ

; 548  : 			{
; 549  : 				return false;

	xor	al, al
	jmp	$LN1@Speculativ
$LN17@Speculativ:

; 550  : 			}
; 551  : 		}
; 552  : 
; 553  : 		// we're not blocked if the blocker is point-sized or non-solid
; 554  : 		if( pBlocker->IsPointSized() || pBlocker->pev->solid == SOLID_NOT )

	mov	eax, DWORD PTR _pBlocker$[ebp]
	mov	edx, DWORD PTR [eax]
	mov	ecx, DWORD PTR _pBlocker$[ebp]
	mov	eax, DWORD PTR [edx+352]
	call	eax
	test	eax, eax
	jne	SHORT $LN19@Speculativ
	mov	eax, DWORD PTR _pBlocker$[ebp]
	mov	ecx, DWORD PTR [eax+4]
	cmp	DWORD PTR [ecx+268], 0
	jne	SHORT $LN18@Speculativ
$LN19@Speculativ:

; 555  : 		{
; 556  : 			return true;

	mov	al, 1
	jmp	$LN1@Speculativ
$LN18@Speculativ:

; 557  : 		}
; 558  : 
; 559  : 		// we're not blocked if the blocker is dead body or trigger
; 560  : 		if( pBlocker->pev->deadflag >= DEAD_DEAD || pBlocker->pev->solid == SOLID_TRIGGER )

	mov	eax, DWORD PTR _pBlocker$[ebp]
	mov	ecx, DWORD PTR [eax+4]
	cmp	DWORD PTR [ecx+368], 2
	jge	SHORT $LN21@Speculativ
	mov	eax, DWORD PTR _pBlocker$[ebp]
	mov	ecx, DWORD PTR [eax+4]
	cmp	DWORD PTR [ecx+268], 1
	jne	SHORT $LN20@Speculativ
$LN21@Speculativ:

; 561  : 		{
; 562  : 			return true;

	mov	al, 1
	jmp	$LN1@Speculativ
$LN20@Speculativ:

; 563  : 		}
; 564  : 
; 565  : 		if(( !bRotationalPush || bIsDynamic || bIsCharacter ) && ( pBlocker->GetAbsOrigin() == pushDestPosition ))

	movzx	eax, BYTE PTR _bRotationalPush$[ebp]
	test	eax, eax
	je	SHORT $LN23@Speculativ
	movzx	eax, BYTE PTR _bIsDynamic$[ebp]
	test	eax, eax
	jne	SHORT $LN23@Speculativ
	movzx	eax, BYTE PTR _bIsCharacter$[ebp]
	test	eax, eax
	je	SHORT $LN22@Speculativ
$LN23@Speculativ:
	lea	eax, DWORD PTR _pushDestPosition$[ebp]
	push	eax
	mov	ecx, DWORD PTR _pBlocker$[ebp]
	call	?GetAbsOrigin@CBaseEntity@@QBEABVVector@@XZ ; CBaseEntity::GetAbsOrigin
	mov	ecx, eax
	call	??8Vector@@QBEHABV0@@Z			; Vector::operator==
	test	eax, eax
	je	SHORT $LN22@Speculativ

; 566  : 		{
; 567  : 			if( !info.m_bPusherIsGround && !IsPushedPositionValid( pBlocker ))

	mov	eax, DWORD PTR _info$[ebp]
	movzx	ecx, BYTE PTR [eax+73]
	test	ecx, ecx
	jne	SHORT $LN25@Speculativ
	mov	eax, DWORD PTR _pBlocker$[ebp]
	push	eax
	mov	ecx, DWORD PTR _this$[ebp]
	call	?IsPushedPositionValid@CPhysicsPushedEntities@@IAE_NPAVCBaseEntity@@@Z ; CPhysicsPushedEntities::IsPushedPositionValid
	movzx	ecx, al
	test	ecx, ecx
	jne	SHORT $LN25@Speculativ

; 568  : 			{
; 569  : 				if( !bIsDynamic )

	movzx	eax, BYTE PTR _bIsDynamic$[ebp]
	test	eax, eax
	jne	SHORT $LN25@Speculativ

; 570  : 				{
; 571  : 					ALERT( at_warning, "Interpenetrating entities! (%s and %s)\n",

	push	0
	mov	ecx, DWORD PTR _this$[ebp]
	add	ecx, 4
	call	??A?$CUtlArray@UPhysicsPusherInfo_t@CPhysicsPushedEntities@@V?$CUtlMemory@UPhysicsPusherInfo_t@CPhysicsPushedEntities@@H@@@@QAEAAUPhysicsPusherInfo_t@CPhysicsPushedEntities@@H@Z ; CUtlArray<CPhysicsPushedEntities::PhysicsPusherInfo_t,CUtlMemory<CPhysicsPushedEntities::PhysicsPusherInfo_t,int> >::operator[]
	mov	ecx, DWORD PTR [eax]
	call	?GetClassname@CBaseEntity@@QAEPBDXZ	; CBaseEntity::GetClassname
	push	eax
	mov	ecx, DWORD PTR _pBlocker$[ebp]
	call	?GetClassname@CBaseEntity@@QAEPBDXZ	; CBaseEntity::GetClassname
	push	eax
	push	OFFSET ??_C@_0CI@MPLCCPKG@Interpenetrating?5entities?$CB?5?$CI?$CFs?5a@
	push	3
	call	DWORD PTR ?g_engfuncs@@3Uenginefuncs_s@@A+244
	add	esp, 16					; 00000010H
$LN25@Speculativ:

; 572  : 					pBlocker->GetClassname(), m_rgPusher[0].m_pEntity->GetClassname() );
; 573  : 				}
; 574  : 			}
; 575  : 			return true;

	mov	al, 1
	jmp	$LN1@Speculativ
$LN22@Speculativ:

; 576  : 		}
; 577  : 	}
; 578  : 
; 579  : 	// check to see if we're still blocked by the pushers
; 580  : 	// FIXME: If the trace fraction == 0 can we early out also?
; 581  : 	info.m_bBlocked = !IsPushedPositionValid( pBlocker );

	mov	eax, DWORD PTR _pBlocker$[ebp]
	push	eax
	mov	ecx, DWORD PTR _this$[ebp]
	call	?IsPushedPositionValid@CPhysicsPushedEntities@@IAE_NPAVCBaseEntity@@@Z ; CPhysicsPushedEntities::IsPushedPositionValid
	movzx	ecx, al
	test	ecx, ecx
	jne	SHORT $LN38@Speculativ
	mov	DWORD PTR tv281[ebp], 1
	jmp	SHORT $LN39@Speculativ
$LN38@Speculativ:
	mov	DWORD PTR tv281[ebp], 0
$LN39@Speculativ:
	mov	edx, DWORD PTR _info$[ebp]
	mov	al, BYTE PTR tv281[ebp]
	mov	BYTE PTR [edx+72], al

; 582  : 
; 583  : 	if( !info.m_bBlocked /* && !bIsBlocked*/ )

	mov	eax, DWORD PTR _info$[ebp]
	movzx	ecx, BYTE PTR [eax+72]
	test	ecx, ecx
	jne	SHORT $LN26@Speculativ

; 584  : 		return true;

	mov	al, 1
	jmp	$LN1@Speculativ
$LN26@Speculativ:

; 585  : 
; 586  : 	// if the player is blocking the train try nudging him around to fix accumulated error
; 587  : 	if( bIsUnblockable )

	movzx	eax, BYTE PTR _bIsUnblockable$[ebp]
	test	eax, eax
	je	$LN27@Speculativ

; 588  : 	{
; 589  : 		Vector org = pBlocker->GetAbsOrigin();

	mov	ecx, DWORD PTR _pBlocker$[ebp]
	call	?GetAbsOrigin@CBaseEntity@@QBEABVVector@@XZ ; CBaseEntity::GetAbsOrigin
	push	eax
	lea	ecx, DWORD PTR _org$6[ebp]
	call	??0Vector@@QAE@ABV0@@Z			; Vector::Vector

; 590  : 
; 591  : 		for( int checkCount = 0; checkCount < 4; checkCount++ )

	mov	DWORD PTR _checkCount$5[ebp], 0
	jmp	SHORT $LN4@Speculativ
$LN2@Speculativ:
	mov	eax, DWORD PTR _checkCount$5[ebp]
	add	eax, 1
	mov	DWORD PTR _checkCount$5[ebp], eax
$LN4@Speculativ:
	cmp	DWORD PTR _checkCount$5[ebp], 4
	jge	$LN3@Speculativ

; 592  : 		{
; 593  : 			Vector move = m_rgPusher[0].m_pEntity->EntityToWorldTransform()[checkCount>>1];

	mov	eax, DWORD PTR _checkCount$5[ebp]
	sar	eax, 1
	push	eax
	push	0
	mov	ecx, DWORD PTR _this$[ebp]
	add	ecx, 4
	call	??A?$CUtlArray@UPhysicsPusherInfo_t@CPhysicsPushedEntities@@V?$CUtlMemory@UPhysicsPusherInfo_t@CPhysicsPushedEntities@@H@@@@QAEAAUPhysicsPusherInfo_t@CPhysicsPushedEntities@@H@Z ; CUtlArray<CPhysicsPushedEntities::PhysicsPusherInfo_t,CUtlMemory<CPhysicsPushedEntities::PhysicsPusherInfo_t,int> >::operator[]
	mov	ecx, DWORD PTR [eax]
	call	?EntityToWorldTransform@CBaseEntity@@QAEAAVmatrix4x4@@XZ ; CBaseEntity::EntityToWorldTransform
	mov	ecx, eax
	call	??Amatrix4x4@@QAEPAMH@Z			; matrix4x4::operator[]
	push	eax
	lea	ecx, DWORD PTR _move$4[ebp]
	call	??0Vector@@QAE@QAM@Z			; Vector::Vector

; 594  : 			
; 595  : 			// alternate movements 1/2" in each direction
; 596  : 			float factor = ( checkCount & 1 ) ? -0.5f : 0.5f;

	mov	eax, DWORD PTR _checkCount$5[ebp]
	and	eax, 1
	je	SHORT $LN40@Speculativ
	movss	xmm0, DWORD PTR __real@bf000000
	movss	DWORD PTR tv309[ebp], xmm0
	jmp	SHORT $LN41@Speculativ
$LN40@Speculativ:
	movss	xmm0, DWORD PTR __real@3f000000
	movss	DWORD PTR tv309[ebp], xmm0
$LN41@Speculativ:
	movss	xmm0, DWORD PTR tv309[ebp]
	movss	DWORD PTR _factor$3[ebp], xmm0

; 597  : 			pBlocker->SetAbsOrigin( org + move * factor );

	push	ecx
	movss	xmm0, DWORD PTR _factor$3[ebp]
	movss	DWORD PTR [esp], xmm0
	lea	eax, DWORD PTR $T2[ebp]
	push	eax
	lea	ecx, DWORD PTR _move$4[ebp]
	call	??DVector@@QBE?AV0@M@Z			; Vector::operator*
	push	eax
	lea	ecx, DWORD PTR $T1[ebp]
	push	ecx
	lea	ecx, DWORD PTR _org$6[ebp]
	call	??HVector@@QBE?AV0@ABV0@@Z		; Vector::operator+
	push	eax
	mov	ecx, DWORD PTR _pBlocker$[ebp]
	call	?SetAbsOrigin@CBaseEntity@@QAEXABVVector@@@Z ; CBaseEntity::SetAbsOrigin

; 598  : 			info.m_bBlocked = !IsPushedPositionValid( pBlocker );

	mov	eax, DWORD PTR _pBlocker$[ebp]
	push	eax
	mov	ecx, DWORD PTR _this$[ebp]
	call	?IsPushedPositionValid@CPhysicsPushedEntities@@IAE_NPAVCBaseEntity@@@Z ; CPhysicsPushedEntities::IsPushedPositionValid
	movzx	ecx, al
	test	ecx, ecx
	jne	SHORT $LN42@Speculativ
	mov	DWORD PTR tv326[ebp], 1
	jmp	SHORT $LN43@Speculativ
$LN42@Speculativ:
	mov	DWORD PTR tv326[ebp], 0
$LN43@Speculativ:
	mov	edx, DWORD PTR _info$[ebp]
	mov	al, BYTE PTR tv326[ebp]
	mov	BYTE PTR [edx+72], al

; 599  : 
; 600  : 			if( !info.m_bBlocked )

	mov	eax, DWORD PTR _info$[ebp]
	movzx	ecx, BYTE PTR [eax+72]
	test	ecx, ecx
	jne	SHORT $LN28@Speculativ

; 601  : 				return true;

	mov	al, 1
	jmp	SHORT $LN1@Speculativ
$LN28@Speculativ:

; 602  : 		}

	jmp	$LN2@Speculativ
$LN3@Speculativ:

; 603  : 
; 604  : 		pBlocker->SetAbsOrigin( pushDestPosition );

	lea	eax, DWORD PTR _pushDestPosition$[ebp]
	push	eax
	mov	ecx, DWORD PTR _pBlocker$[ebp]
	call	?SetAbsOrigin@CBaseEntity@@QAEXABVVector@@@Z ; CBaseEntity::SetAbsOrigin

; 605  : 		ALERT( at_aiconsole, "Ignoring player blocking train!\n" );

	push	OFFSET ??_C@_0CB@DOHDBANJ@Ignoring?5player?5blocking?5train?$CB?6@
	push	2
	call	DWORD PTR ?g_engfuncs@@3Uenginefuncs_s@@A+244
	add	esp, 8

; 606  : 		return true;

	mov	al, 1
	jmp	SHORT $LN1@Speculativ
$LN27@Speculativ:

; 607  : 	}
; 608  : 
; 609  : 	return false;

	xor	al, al
$LN1@Speculativ:

; 610  : }

	pop	edi
	pop	esi
	pop	ebx
	mov	esp, ebp
	pop	ebp
	ret	12					; 0000000cH
?SpeculativelyCheckPush@CPhysicsPushedEntities@@IAE_NAAUPhysicsPushedInfo_t@1@ABVVector@@_N@Z ENDP ; CPhysicsPushedEntities::SpeculativelyCheckPush
_TEXT	ENDS
; Function compile flags: /Odtp /ZI
; File d:\!diffusion 2020\source code 2022\client-server\server\physics\physic.cpp
;	COMDAT ?CalcRotationalPushDirection@CPhysicsPushedEntities@@IAEXPAVCBaseEntity@@ABURotatingPushMove_t@1@AAVVector@@0@Z
_TEXT	SEGMENT
$T1 = -128						; size = 12
$T2 = -116						; size = 12
_end$ = -40						; size = 12
_local$ = -28						; size = 12
_start$ = -16						; size = 12
_this$ = -4						; size = 4
_pBlocker$ = 8						; size = 4
_rotMove$ = 12						; size = 4
_pMove$ = 16						; size = 4
_pRoot$ = 20						; size = 4
?CalcRotationalPushDirection@CPhysicsPushedEntities@@IAEXPAVCBaseEntity@@ABURotatingPushMove_t@1@AAVVector@@0@Z PROC ; CPhysicsPushedEntities::CalcRotationalPushDirection, COMDAT
; _this$ = ecx

; 457  : {

	push	ebp
	mov	ebp, esp
	sub	esp, 128				; 00000080H
	push	ebx
	push	esi
	push	edi
	mov	DWORD PTR _this$[ebp], ecx

; 458  : 	// calculate destination position
; 459  : 	// "start" is relative to the *root* pusher, world orientation
; 460  : 	Vector start;

	lea	ecx, DWORD PTR _start$[ebp]
	call	??0Vector@@QAE@XZ			; Vector::Vector

; 461  : 
; 462  : 	if( !SV_AllowPushRotate( pBlocker ) || pBlocker->pev->movetype == MOVETYPE_STEP )

	mov	eax, DWORD PTR _pBlocker$[ebp]
	push	eax
	call	?SV_AllowPushRotate@@YAHPAVCBaseEntity@@@Z ; SV_AllowPushRotate
	add	esp, 4
	test	eax, eax
	je	SHORT $LN4@CalcRotati
	mov	eax, DWORD PTR _pBlocker$[ebp]
	mov	ecx, DWORD PTR [eax+4]
	cmp	DWORD PTR [ecx+264], 4
	jne	SHORT $LN2@CalcRotati
$LN4@CalcRotati:

; 463  : 		start = pBlocker->Center();

	lea	eax, DWORD PTR $T2[ebp]
	push	eax
	mov	ecx, DWORD PTR _pBlocker$[ebp]
	mov	edx, DWORD PTR [ecx]
	mov	ecx, DWORD PTR _pBlocker$[ebp]
	mov	eax, DWORD PTR [edx+336]
	call	eax
	mov	ecx, DWORD PTR [eax]
	mov	DWORD PTR _start$[ebp], ecx
	mov	edx, DWORD PTR [eax+4]
	mov	DWORD PTR _start$[ebp+4], edx
	mov	eax, DWORD PTR [eax+8]
	mov	DWORD PTR _start$[ebp+8], eax
	jmp	SHORT $LN3@CalcRotati
$LN2@CalcRotati:

; 464  : 	else start = pBlocker->GetAbsOrigin();

	mov	ecx, DWORD PTR _pBlocker$[ebp]
	call	?GetAbsOrigin@CBaseEntity@@QBEABVVector@@XZ ; CBaseEntity::GetAbsOrigin
	mov	ecx, DWORD PTR [eax]
	mov	DWORD PTR _start$[ebp], ecx
	mov	edx, DWORD PTR [eax+4]
	mov	DWORD PTR _start$[ebp+4], edx
	mov	eax, DWORD PTR [eax+8]
	mov	DWORD PTR _start$[ebp+8], eax
$LN3@CalcRotati:

; 465  : 
; 466  : 	// org is pusher local coordinate of start
; 467  : 
; 468  : 	// transform starting point into local space
; 469  : 	Vector local = rotMove.startLocalToWorld.VectorITransform( start );

	lea	eax, DWORD PTR _start$[ebp]
	push	eax
	lea	ecx, DWORD PTR _local$[ebp]
	push	ecx
	mov	ecx, DWORD PTR _rotMove$[ebp]
	add	ecx, 24					; 00000018H
	call	?VectorITransform@matrix4x4@@QBE?AVVector@@ABV2@@Z ; matrix4x4::VectorITransform

; 470  : 
; 471  : 	// rotate local org into world space at end of rotation
; 472  : 	Vector end = rotMove.endLocalToWorld.VectorTransform( local );

	lea	eax, DWORD PTR _local$[ebp]
	push	eax
	lea	ecx, DWORD PTR _end$[ebp]
	push	ecx
	mov	ecx, DWORD PTR _rotMove$[ebp]
	add	ecx, 88					; 00000058H
	call	?VectorTransform@matrix4x4@@QBE?AVVector@@ABV2@@Z ; matrix4x4::VectorTransform

; 473  : 
; 474  : 	// move is the difference (in world space) that the move will push this object
; 475  : 	pMove = end - start;

	lea	eax, DWORD PTR _start$[ebp]
	push	eax
	lea	ecx, DWORD PTR $T1[ebp]
	push	ecx
	lea	ecx, DWORD PTR _end$[ebp]
	call	??GVector@@QBE?AV0@ABV0@@Z		; Vector::operator-
	mov	edx, DWORD PTR _pMove$[ebp]
	mov	ecx, DWORD PTR [eax]
	mov	DWORD PTR [edx], ecx
	mov	ecx, DWORD PTR [eax+4]
	mov	DWORD PTR [edx+4], ecx
	mov	eax, DWORD PTR [eax+8]
	mov	DWORD PTR [edx+8], eax

; 476  : }

	pop	edi
	pop	esi
	pop	ebx
	mov	esp, ebp
	pop	ebp
	ret	16					; 00000010H
?CalcRotationalPushDirection@CPhysicsPushedEntities@@IAEXPAVCBaseEntity@@ABURotatingPushMove_t@1@AAVVector@@0@Z ENDP ; CPhysicsPushedEntities::CalcRotationalPushDirection
_TEXT	ENDS
; Function compile flags: /Odtp /ZI
; File d:\!diffusion 2020\source code 2022\client-server\server\physics\physic.cpp
;	COMDAT ?RestoreEntities@CPhysicsPushedEntities@@IAEXXZ
_TEXT	SEGMENT
_i$1 = -8						; size = 4
_this$ = -4						; size = 4
?RestoreEntities@CPhysicsPushedEntities@@IAEXXZ PROC	; CPhysicsPushedEntities::RestoreEntities, COMDAT
; _this$ = ecx

; 770  : {

	push	ebp
	mov	ebp, esp
	sub	esp, 72					; 00000048H
	push	ebx
	push	esi
	push	edi
	mov	DWORD PTR _this$[ebp], ecx

; 771  : 	// reset all of the pushed entities to get them back into place also
; 772  : 	for( int i = m_rgMoved.Count(); --i >= 0; )

	mov	ecx, DWORD PTR _this$[ebp]
	add	ecx, 24					; 00000018H
	call	?Count@?$CUtlArray@UPhysicsPushedInfo_t@CPhysicsPushedEntities@@V?$CUtlMemory@UPhysicsPushedInfo_t@CPhysicsPushedEntities@@H@@@@QBEHXZ ; CUtlArray<CPhysicsPushedEntities::PhysicsPushedInfo_t,CUtlMemory<CPhysicsPushedEntities::PhysicsPushedInfo_t,int> >::Count
	mov	DWORD PTR _i$1[ebp], eax
$LN4@RestoreEnt:
	mov	eax, DWORD PTR _i$1[ebp]
	sub	eax, 1
	mov	DWORD PTR _i$1[ebp], eax
	js	SHORT $LN1@RestoreEnt

; 773  : 	{
; 774  : 		m_rgMoved[i].m_pEntity->SetAbsOrigin( m_rgMoved[i].m_vecStartAbsOrigin );

	mov	eax, DWORD PTR _i$1[ebp]
	push	eax
	mov	ecx, DWORD PTR _this$[ebp]
	add	ecx, 24					; 00000018H
	call	??A?$CUtlArray@UPhysicsPushedInfo_t@CPhysicsPushedEntities@@V?$CUtlMemory@UPhysicsPushedInfo_t@CPhysicsPushedEntities@@H@@@@QAEAAUPhysicsPushedInfo_t@CPhysicsPushedEntities@@H@Z ; CUtlArray<CPhysicsPushedEntities::PhysicsPushedInfo_t,CUtlMemory<CPhysicsPushedEntities::PhysicsPushedInfo_t,int> >::operator[]
	add	eax, 4
	push	eax
	mov	ecx, DWORD PTR _i$1[ebp]
	push	ecx
	mov	ecx, DWORD PTR _this$[ebp]
	add	ecx, 24					; 00000018H
	call	??A?$CUtlArray@UPhysicsPushedInfo_t@CPhysicsPushedEntities@@V?$CUtlMemory@UPhysicsPushedInfo_t@CPhysicsPushedEntities@@H@@@@QAEAAUPhysicsPushedInfo_t@CPhysicsPushedEntities@@H@Z ; CUtlArray<CPhysicsPushedEntities::PhysicsPushedInfo_t,CUtlMemory<CPhysicsPushedEntities::PhysicsPushedInfo_t,int> >::operator[]
	mov	ecx, DWORD PTR [eax]
	call	?SetAbsOrigin@CBaseEntity@@QAEXABVVector@@@Z ; CBaseEntity::SetAbsOrigin

; 775  : 	}

	jmp	SHORT $LN4@RestoreEnt
$LN1@RestoreEnt:

; 776  : }

	pop	edi
	pop	esi
	pop	ebx
	mov	esp, ebp
	pop	ebp
	ret	0
?RestoreEntities@CPhysicsPushedEntities@@IAEXXZ ENDP	; CPhysicsPushedEntities::RestoreEntities
_TEXT	ENDS
; Function compile flags: /Odtp /ZI
; File d:\!diffusion 2020\source code 2022\client-server\server\physics\physic.cpp
;	COMDAT ?IsStandingOnPusher@CPhysicsPushedEntities@@IAE_NPAVCBaseEntity@@@Z
_TEXT	SEGMENT
_i$1 = -12						; size = 4
_pGroundEnt$ = -8					; size = 4
_this$ = -4						; size = 4
_pCheck$ = 8						; size = 4
?IsStandingOnPusher@CPhysicsPushedEntities@@IAE_NPAVCBaseEntity@@@Z PROC ; CPhysicsPushedEntities::IsStandingOnPusher, COMDAT
; _this$ = ecx

; 779  : {

	push	ebp
	mov	ebp, esp
	sub	esp, 76					; 0000004cH
	push	ebx
	push	esi
	push	edi
	mov	DWORD PTR _this$[ebp], ecx

; 780  : 	CBaseEntity *pGroundEnt = pCheck->GetGroundEntity();

	mov	ecx, DWORD PTR _pCheck$[ebp]
	call	?GetGroundEntity@CBaseEntity@@QAEPAV1@XZ ; CBaseEntity::GetGroundEntity
	mov	DWORD PTR _pGroundEnt$[ebp], eax

; 781  : 
; 782  : 	if( pCheck->pev->flags & FL_ONGROUND || pGroundEnt )

	mov	eax, DWORD PTR _pCheck$[ebp]
	mov	ecx, DWORD PTR [eax+4]
	mov	edx, DWORD PTR [ecx+420]
	and	edx, 512				; 00000200H
	jne	SHORT $LN6@IsStanding
	cmp	DWORD PTR _pGroundEnt$[ebp], 0
	je	SHORT $LN5@IsStanding
$LN6@IsStanding:

; 783  : 	{
; 784  : 		for( int i = m_rgPusher.Count(); --i >= 0; )

	mov	ecx, DWORD PTR _this$[ebp]
	add	ecx, 4
	call	?Count@?$CUtlArray@UPhysicsPusherInfo_t@CPhysicsPushedEntities@@V?$CUtlMemory@UPhysicsPusherInfo_t@CPhysicsPushedEntities@@H@@@@QBEHXZ ; CUtlArray<CPhysicsPushedEntities::PhysicsPusherInfo_t,CUtlMemory<CPhysicsPushedEntities::PhysicsPusherInfo_t,int> >::Count
	mov	DWORD PTR _i$1[ebp], eax
$LN4@IsStanding:
	mov	eax, DWORD PTR _i$1[ebp]
	sub	eax, 1
	mov	DWORD PTR _i$1[ebp], eax
	js	SHORT $LN5@IsStanding

; 785  : 		{
; 786  : 			if( m_rgPusher[i].m_pEntity == pGroundEnt )

	mov	eax, DWORD PTR _i$1[ebp]
	push	eax
	mov	ecx, DWORD PTR _this$[ebp]
	add	ecx, 4
	call	??A?$CUtlArray@UPhysicsPusherInfo_t@CPhysicsPushedEntities@@V?$CUtlMemory@UPhysicsPusherInfo_t@CPhysicsPushedEntities@@H@@@@QAEAAUPhysicsPusherInfo_t@CPhysicsPushedEntities@@H@Z ; CUtlArray<CPhysicsPushedEntities::PhysicsPusherInfo_t,CUtlMemory<CPhysicsPushedEntities::PhysicsPusherInfo_t,int> >::operator[]
	mov	ecx, DWORD PTR [eax]
	cmp	ecx, DWORD PTR _pGroundEnt$[ebp]
	jne	SHORT $LN7@IsStanding

; 787  : 				return true;

	mov	al, 1
	jmp	SHORT $LN1@IsStanding
$LN7@IsStanding:

; 788  : 		}

	jmp	SHORT $LN4@IsStanding
$LN5@IsStanding:

; 789  : 	}
; 790  : 
; 791  : 	return false;

	xor	al, al
$LN1@IsStanding:

; 792  : }

	pop	edi
	pop	esi
	pop	ebx
	mov	esp, ebp
	pop	ebp
	ret	4
?IsStandingOnPusher@CPhysicsPushedEntities@@IAE_NPAVCBaseEntity@@@Z ENDP ; CPhysicsPushedEntities::IsStandingOnPusher
_TEXT	ENDS
; Function compile flags: /Odtp /ZI
; File d:\!diffusion 2020\source code 2022\client-server\server\physics\physic.cpp
;	COMDAT ?AddEntity@CPhysicsPushedEntities@@IAEXPAVCBaseEntity@@@Z
_TEXT	SEGMENT
_i$ = -8						; size = 4
_this$ = -4						; size = 4
_ent$ = 8						; size = 4
?AddEntity@CPhysicsPushedEntities@@IAEXPAVCBaseEntity@@@Z PROC ; CPhysicsPushedEntities::AddEntity, COMDAT
; _this$ = ecx

; 425  : {

	push	ebp
	mov	ebp, esp
	sub	esp, 72					; 00000048H
	push	ebx
	push	esi
	push	edi
	mov	DWORD PTR _this$[ebp], ecx

; 426  : 	int i = m_rgMoved.AddToTail();

	mov	ecx, DWORD PTR _this$[ebp]
	add	ecx, 24					; 00000018H
	call	?AddToTail@?$CUtlArray@UPhysicsPushedInfo_t@CPhysicsPushedEntities@@V?$CUtlMemory@UPhysicsPushedInfo_t@CPhysicsPushedEntities@@H@@@@QAEHXZ ; CUtlArray<CPhysicsPushedEntities::PhysicsPushedInfo_t,CUtlMemory<CPhysicsPushedEntities::PhysicsPushedInfo_t,int> >::AddToTail
	mov	DWORD PTR _i$[ebp], eax

; 427  : 	m_rgMoved[i].m_pEntity = ent;

	mov	eax, DWORD PTR _i$[ebp]
	push	eax
	mov	ecx, DWORD PTR _this$[ebp]
	add	ecx, 24					; 00000018H
	call	??A?$CUtlArray@UPhysicsPushedInfo_t@CPhysicsPushedEntities@@V?$CUtlMemory@UPhysicsPushedInfo_t@CPhysicsPushedEntities@@H@@@@QAEAAUPhysicsPushedInfo_t@CPhysicsPushedEntities@@H@Z ; CUtlArray<CPhysicsPushedEntities::PhysicsPushedInfo_t,CUtlMemory<CPhysicsPushedEntities::PhysicsPushedInfo_t,int> >::operator[]
	mov	ecx, DWORD PTR _ent$[ebp]
	mov	DWORD PTR [eax], ecx

; 428  : 	m_rgMoved[i].m_vecStartAbsOrigin = ent->GetAbsOrigin();

	mov	ecx, DWORD PTR _ent$[ebp]
	call	?GetAbsOrigin@CBaseEntity@@QBEABVVector@@XZ ; CBaseEntity::GetAbsOrigin
	mov	esi, eax
	mov	eax, DWORD PTR _i$[ebp]
	push	eax
	mov	ecx, DWORD PTR _this$[ebp]
	add	ecx, 24					; 00000018H
	call	??A?$CUtlArray@UPhysicsPushedInfo_t@CPhysicsPushedEntities@@V?$CUtlMemory@UPhysicsPushedInfo_t@CPhysicsPushedEntities@@H@@@@QAEAAUPhysicsPushedInfo_t@CPhysicsPushedEntities@@H@Z ; CUtlArray<CPhysicsPushedEntities::PhysicsPushedInfo_t,CUtlMemory<CPhysicsPushedEntities::PhysicsPushedInfo_t,int> >::operator[]
	add	eax, 4
	mov	ecx, DWORD PTR [esi]
	mov	DWORD PTR [eax], ecx
	mov	edx, DWORD PTR [esi+4]
	mov	DWORD PTR [eax+4], edx
	mov	ecx, DWORD PTR [esi+8]
	mov	DWORD PTR [eax+8], ecx

; 429  : }

	pop	edi
	pop	esi
	pop	ebx
	mov	esp, ebp
	pop	ebp
	ret	4
?AddEntity@CPhysicsPushedEntities@@IAEXPAVCBaseEntity@@@Z ENDP ; CPhysicsPushedEntities::AddEntity
_TEXT	ENDS
; Function compile flags: /Odtp /ZI
;	COMDAT ??0PhysicsPushedInfo_t@CPhysicsPushedEntities@@QAE@XZ
_TEXT	SEGMENT
_this$ = -4						; size = 4
??0PhysicsPushedInfo_t@CPhysicsPushedEntities@@QAE@XZ PROC ; CPhysicsPushedEntities::PhysicsPushedInfo_t::PhysicsPushedInfo_t, COMDAT
; _this$ = ecx
	push	ebp
	mov	ebp, esp
	sub	esp, 68					; 00000044H
	push	ebx
	push	esi
	push	edi
	mov	DWORD PTR _this$[ebp], ecx
	mov	ecx, DWORD PTR _this$[ebp]
	add	ecx, 4
	call	??0Vector@@QAE@XZ			; Vector::Vector
	mov	ecx, DWORD PTR _this$[ebp]
	add	ecx, 16					; 00000010H
	call	??0gametrace_s@@QAE@XZ
	mov	eax, DWORD PTR _this$[ebp]
	pop	edi
	pop	esi
	pop	ebx
	mov	esp, ebp
	pop	ebp
	ret	0
??0PhysicsPushedInfo_t@CPhysicsPushedEntities@@QAE@XZ ENDP ; CPhysicsPushedEntities::PhysicsPushedInfo_t::PhysicsPushedInfo_t
_TEXT	ENDS
; Function compile flags: /Odtp /ZI
;	COMDAT ??0PhysicsPusherInfo_t@CPhysicsPushedEntities@@QAE@XZ
_TEXT	SEGMENT
_this$ = -4						; size = 4
??0PhysicsPusherInfo_t@CPhysicsPushedEntities@@QAE@XZ PROC ; CPhysicsPushedEntities::PhysicsPusherInfo_t::PhysicsPusherInfo_t, COMDAT
; _this$ = ecx
	push	ebp
	mov	ebp, esp
	sub	esp, 68					; 00000044H
	push	ebx
	push	esi
	push	edi
	mov	DWORD PTR _this$[ebp], ecx
	mov	ecx, DWORD PTR _this$[ebp]
	add	ecx, 4
	call	??0Vector@@QAE@XZ			; Vector::Vector
	mov	eax, DWORD PTR _this$[ebp]
	pop	edi
	pop	esi
	pop	ebx
	mov	esp, ebp
	pop	ebp
	ret	0
??0PhysicsPusherInfo_t@CPhysicsPushedEntities@@QAE@XZ ENDP ; CPhysicsPushedEntities::PhysicsPusherInfo_t::PhysicsPusherInfo_t
_TEXT	ENDS
; Function compile flags: /Odtp /ZI
;	COMDAT ??0RotatingPushMove_t@CPhysicsPushedEntities@@QAE@XZ
_TEXT	SEGMENT
_this$ = -4						; size = 4
??0RotatingPushMove_t@CPhysicsPushedEntities@@QAE@XZ PROC ; CPhysicsPushedEntities::RotatingPushMove_t::RotatingPushMove_t, COMDAT
; _this$ = ecx
	push	ebp
	mov	ebp, esp
	sub	esp, 68					; 00000044H
	push	ebx
	push	esi
	push	edi
	mov	DWORD PTR _this$[ebp], ecx
	mov	ecx, DWORD PTR _this$[ebp]
	call	??0Vector@@QAE@XZ			; Vector::Vector
	mov	ecx, DWORD PTR _this$[ebp]
	add	ecx, 12					; 0000000cH
	call	??0Vector@@QAE@XZ			; Vector::Vector
	mov	ecx, DWORD PTR _this$[ebp]
	add	ecx, 24					; 00000018H
	call	??0matrix4x4@@QAE@XZ			; matrix4x4::matrix4x4
	mov	ecx, DWORD PTR _this$[ebp]
	add	ecx, 88					; 00000058H
	call	??0matrix4x4@@QAE@XZ			; matrix4x4::matrix4x4
	mov	eax, DWORD PTR _this$[ebp]
	pop	edi
	pop	esi
	pop	ebx
	mov	esp, ebp
	pop	ebp
	ret	0
??0RotatingPushMove_t@CPhysicsPushedEntities@@QAE@XZ ENDP ; CPhysicsPushedEntities::RotatingPushMove_t::RotatingPushMove_t
_TEXT	ENDS
; Function compile flags: /Odtp /ZI
; File d:\!diffusion 2020\source code 2022\client-server\server\physics\physic.cpp
;	COMDAT ?AddPushedEntityToBlockingList@CPhysicsPushedEntities@@QAEXPAVCBaseEntity@@@Z
_TEXT	SEGMENT
tv73 = -80						; size = 4
_pCheckHighestParent$ = -12				; size = 4
_pRootHighestParent$ = -8				; size = 4
_this$ = -4						; size = 4
_pPushed$ = 8						; size = 4
?AddPushedEntityToBlockingList@CPhysicsPushedEntities@@QAEXPAVCBaseEntity@@@Z PROC ; CPhysicsPushedEntities::AddPushedEntityToBlockingList, COMDAT
; _this$ = ecx

; 795  : {

	push	ebp
	mov	ebp, esp
	sub	esp, 80					; 00000050H
	push	ebx
	push	esi
	push	edi
	mov	DWORD PTR _this$[ebp], ecx

; 796  : 	if( !pPushed ) return;

	cmp	DWORD PTR _pPushed$[ebp], 0
	jne	SHORT $LN4@AddPushedE
	jmp	$LN1@AddPushedE
$LN4@AddPushedE:

; 797  : 
; 798  : 	if( pPushed->m_iPushEnumCount == s_nEnumCount )

	mov	eax, DWORD PTR _pPushed$[ebp]
	mov	ecx, DWORD PTR _this$[ebp]
	mov	edx, DWORD PTR [eax+64]
	cmp	edx, DWORD PTR [ecx+52]
	jne	SHORT $LN5@AddPushedE

; 799  : 		return;	// already added

	jmp	$LN1@AddPushedE
$LN5@AddPushedE:

; 800  : 
; 801  : 	if( pPushed->pev->solid == SOLID_NOT )

	mov	eax, DWORD PTR _pPushed$[ebp]
	mov	ecx, DWORD PTR [eax+4]
	cmp	DWORD PTR [ecx+268], 0
	jne	SHORT $LN6@AddPushedE

; 802  : 		return;

	jmp	$LN1@AddPushedE
$LN6@AddPushedE:

; 803  : 
; 804  : 	// filter movetypes to collide with
; 805  : 	switch( pPushed->pev->movetype )

	mov	eax, DWORD PTR _pPushed$[ebp]
	mov	ecx, DWORD PTR [eax+4]
	mov	edx, DWORD PTR [ecx+264]
	mov	DWORD PTR tv73[ebp], edx
	cmp	DWORD PTR tv73[ebp], 14			; 0000000eH
	ja	SHORT $LN2@AddPushedE
	mov	eax, DWORD PTR tv73[ebp]
	movzx	ecx, BYTE PTR $LN13@AddPushedE[eax]
	jmp	DWORD PTR $LN14@AddPushedE[ecx*4]
$LN7@AddPushedE:

; 806  : 	{
; 807  : 	case MOVETYPE_NONE:
; 808  : 	case MOVETYPE_PUSH:
; 809  : 	case MOVETYPE_FOLLOW:
; 810  : 	case MOVETYPE_NOCLIP:
; 811  : 	case MOVETYPE_COMPOUND:
; 812  : 		return;

	jmp	SHORT $LN1@AddPushedE
$LN2@AddPushedE:

; 813  : 	}
; 814  : 
; 815  : 	// All elements are part of the same hierarchy, so they all have
; 816  : 	// the same root, so it doesn't matter which one we grab
; 817  : 	CBaseEntity *pRootHighestParent = m_rgPusher[0].m_pEntity->GetRootParent();

	push	0
	mov	ecx, DWORD PTR _this$[ebp]
	add	ecx, 4
	call	??A?$CUtlArray@UPhysicsPusherInfo_t@CPhysicsPushedEntities@@V?$CUtlMemory@UPhysicsPusherInfo_t@CPhysicsPushedEntities@@H@@@@QAEAAUPhysicsPusherInfo_t@CPhysicsPushedEntities@@H@Z ; CUtlArray<CPhysicsPushedEntities::PhysicsPusherInfo_t,CUtlMemory<CPhysicsPushedEntities::PhysicsPusherInfo_t,int> >::operator[]
	mov	ecx, DWORD PTR [eax]
	call	?GetRootParent@CBaseEntity@@QAEPAV1@XZ	; CBaseEntity::GetRootParent
	mov	DWORD PTR _pRootHighestParent$[ebp], eax

; 818  : 	CBaseEntity *pCheckHighestParent = pPushed->GetRootParent();

	mov	ecx, DWORD PTR _pPushed$[ebp]
	call	?GetRootParent@CBaseEntity@@QAEPAV1@XZ	; CBaseEntity::GetRootParent
	mov	DWORD PTR _pCheckHighestParent$[ebp], eax

; 819  : 
; 820  : 	if( pCheckHighestParent == pRootHighestParent )

	mov	eax, DWORD PTR _pCheckHighestParent$[ebp]
	cmp	eax, DWORD PTR _pRootHighestParent$[ebp]
	jne	SHORT $LN8@AddPushedE

; 821  : 	{
; 822  : 		// g-cont. attached pushables can be block hierarchy!
; 823  : 		if( pPushed->pev->movetype != MOVETYPE_PUSHSTEP )

	mov	eax, DWORD PTR _pPushed$[ebp]
	mov	ecx, DWORD PTR [eax+4]
	cmp	DWORD PTR [ecx+264], 13			; 0000000dH
	je	SHORT $LN8@AddPushedE

; 824  : 			return;

	jmp	SHORT $LN1@AddPushedE
$LN8@AddPushedE:

; 825  : 	}
; 826  : 
; 827  : 	// If we're standing on the pusher or any rigidly attached child
; 828  : 	// of the pusher, we don't need to bother checking for interpenetration
; 829  : 	if( !IsStandingOnPusher( pPushed ))

	mov	eax, DWORD PTR _pPushed$[ebp]
	push	eax
	mov	ecx, DWORD PTR _this$[ebp]
	call	?IsStandingOnPusher@CPhysicsPushedEntities@@IAE_NPAVCBaseEntity@@@Z ; CPhysicsPushedEntities::IsStandingOnPusher
	movzx	ecx, al
	test	ecx, ecx
	jne	SHORT $LN10@AddPushedE

; 830  : 	{
; 831  : 		// Our surrounding boxes are touching. But we may well not be colliding....
; 832  : 		// see if the ent's bbox is inside the pusher's final position
; 833  : 		if( !SV_TestEntityPosition( pPushed, NULL ))

	push	0
	mov	eax, DWORD PTR _pPushed$[ebp]
	push	eax
	call	?SV_TestEntityPosition@@YAHPAVCBaseEntity@@0@Z ; SV_TestEntityPosition
	add	esp, 8
	test	eax, eax
	jne	SHORT $LN10@AddPushedE

; 834  : 			return;

	jmp	SHORT $LN1@AddPushedE
$LN10@AddPushedE:

; 835  : 	}
; 836  : 
; 837  : 	pCheckHighestParent->m_iPushEnumCount = s_nEnumCount;

	mov	eax, DWORD PTR _pCheckHighestParent$[ebp]
	mov	ecx, DWORD PTR _this$[ebp]
	mov	edx, DWORD PTR [ecx+52]
	mov	DWORD PTR [eax+64], edx

; 838  : 
; 839  : 	// NOTE: This is pretty tricky here. If a rigidly attached child comes into
; 840  : 	// contact with a pusher, we *cannot* push the child. Instead, we must push
; 841  : 	// the highest parent of that child.
; 842  : 	AddEntity( pCheckHighestParent );

	mov	eax, DWORD PTR _pCheckHighestParent$[ebp]
	push	eax
	mov	ecx, DWORD PTR _this$[ebp]
	call	?AddEntity@CPhysicsPushedEntities@@IAEXPAVCBaseEntity@@@Z ; CPhysicsPushedEntities::AddEntity
$LN1@AddPushedE:

; 843  : }

	pop	edi
	pop	esi
	pop	ebx
	mov	esp, ebp
	pop	ebp
	ret	4
	npad	3
$LN14@AddPushedE:
	DD	$LN7@AddPushedE
	DD	$LN2@AddPushedE
$LN13@AddPushedE:
	DB	0
	DB	1
	DB	1
	DB	1
	DB	1
	DB	1
	DB	1
	DB	0
	DB	0
	DB	1
	DB	1
	DB	1
	DB	0
	DB	1
	DB	0
?AddPushedEntityToBlockingList@CPhysicsPushedEntities@@QAEXPAVCBaseEntity@@@Z ENDP ; CPhysicsPushedEntities::AddPushedEntityToBlockingList
_TEXT	ENDS
; Function compile flags: /Odtp /ZI
; File d:\!diffusion 2020\source code 2022\client-server\server\physics\physic.cpp
;	COMDAT ?BeginPush@CPhysicsPushedEntities@@QAEXPAVCBaseEntity@@@Z
_TEXT	SEGMENT
_this$ = -4						; size = 4
_pRoot$ = 8						; size = 4
?BeginPush@CPhysicsPushedEntities@@QAEXPAVCBaseEntity@@@Z PROC ; CPhysicsPushedEntities::BeginPush, COMDAT
; _this$ = ecx

; 740  : {

	push	ebp
	mov	ebp, esp
	sub	esp, 68					; 00000044H
	push	ebx
	push	esi
	push	edi
	mov	DWORD PTR _this$[ebp], ecx

; 741  : 	m_rgMoved.RemoveAll();

	mov	ecx, DWORD PTR _this$[ebp]
	add	ecx, 24					; 00000018H
	call	?RemoveAll@?$CUtlArray@UPhysicsPushedInfo_t@CPhysicsPushedEntities@@V?$CUtlMemory@UPhysicsPushedInfo_t@CPhysicsPushedEntities@@H@@@@QAEXXZ ; CUtlArray<CPhysicsPushedEntities::PhysicsPushedInfo_t,CUtlMemory<CPhysicsPushedEntities::PhysicsPushedInfo_t,int> >::RemoveAll

; 742  : 	m_rgPusher.RemoveAll();

	mov	ecx, DWORD PTR _this$[ebp]
	add	ecx, 4
	call	?RemoveAll@?$CUtlArray@UPhysicsPusherInfo_t@CPhysicsPushedEntities@@V?$CUtlMemory@UPhysicsPusherInfo_t@CPhysicsPushedEntities@@H@@@@QAEXXZ ; CUtlArray<CPhysicsPushedEntities::PhysicsPusherInfo_t,CUtlMemory<CPhysicsPushedEntities::PhysicsPusherInfo_t,int> >::RemoveAll

; 743  : }

	pop	edi
	pop	esi
	pop	ebx
	mov	esp, ebp
	pop	ebp
	ret	4
?BeginPush@CPhysicsPushedEntities@@QAEXPAVCBaseEntity@@@Z ENDP ; CPhysicsPushedEntities::BeginPush
_TEXT	ENDS
; Function compile flags: /Odtp /ZI
; File d:\!diffusion 2020\source code 2022\client-server\server\physics\physic.cpp
;	COMDAT ?PerformLinearPush@CPhysicsPushedEntities@@QAEPAVCBaseEntity@@PAV2@M@Z
_TEXT	SEGMENT
tv69 = -97						; size = 1
_pBlocker$1 = -32					; size = 4
_vecAbsPush$ = -28					; size = 12
_vecPrevOrigin$ = -16					; size = 12
_this$ = -4						; size = 4
_pRoot$ = 8						; size = 4
_movetime$ = 12						; size = 4
?PerformLinearPush@CPhysicsPushedEntities@@QAEPAVCBaseEntity@@PAV2@M@Z PROC ; CPhysicsPushedEntities::PerformLinearPush, COMDAT
; _this$ = ecx

; 999  : {

	push	ebp
	mov	ebp, esp
	sub	esp, 100				; 00000064H
	push	ebx
	push	esi
	push	edi
	mov	DWORD PTR _this$[ebp], ecx

; 1000 : 	m_bIsUnblockableByPlayer = FBitSet( pRoot->pev->flags, FL_UNBLOCKABLE ) ? true : false;

	mov	eax, DWORD PTR _pRoot$[ebp]
	mov	ecx, DWORD PTR [eax+4]
	mov	edx, DWORD PTR [ecx+420]
	and	edx, 268435456				; 10000000H
	je	SHORT $LN4@PerformLin
	mov	BYTE PTR tv69[ebp], 1
	jmp	SHORT $LN5@PerformLin
$LN4@PerformLin:
	mov	BYTE PTR tv69[ebp], 0
$LN5@PerformLin:
	mov	eax, DWORD PTR _this$[ebp]
	mov	cl, BYTE PTR tv69[ebp]
	mov	BYTE PTR [eax+48], cl

; 1001 : 
; 1002 : 	// build a list of this entity + all its children because we're going to try to move them all
; 1003 : 	// this will also make sure each entity is linked in the appropriate place
; 1004 : 	// with correct absboxes
; 1005 : 	m_rgPusher.RemoveAll();

	mov	ecx, DWORD PTR _this$[ebp]
	add	ecx, 4
	call	?RemoveAll@?$CUtlArray@UPhysicsPusherInfo_t@CPhysicsPushedEntities@@V?$CUtlMemory@UPhysicsPusherInfo_t@CPhysicsPushedEntities@@H@@@@QAEXXZ ; CUtlArray<CPhysicsPushedEntities::PhysicsPusherInfo_t,CUtlMemory<CPhysicsPushedEntities::PhysicsPusherInfo_t,int> >::RemoveAll

; 1006 : 	SetupAllInHierarchy( pRoot );

	mov	eax, DWORD PTR _pRoot$[ebp]
	push	eax
	mov	ecx, DWORD PTR _this$[ebp]
	call	?SetupAllInHierarchy@CPhysicsPushedEntities@@IAEXPAVCBaseEntity@@@Z ; CPhysicsPushedEntities::SetupAllInHierarchy

; 1007 : 
; 1008 : 	// save where we started from, in case we're blocked
; 1009 : 	Vector vecPrevOrigin = pRoot->GetAbsOrigin();

	mov	ecx, DWORD PTR _pRoot$[ebp]
	call	?GetAbsOrigin@CBaseEntity@@QBEABVVector@@XZ ; CBaseEntity::GetAbsOrigin
	push	eax
	lea	ecx, DWORD PTR _vecPrevOrigin$[ebp]
	call	??0Vector@@QAE@ABV0@@Z			; Vector::Vector

; 1010 : 
; 1011 : 	// Move the root (and all children) into its new position
; 1012 : 	Vector vecAbsPush;

	lea	ecx, DWORD PTR _vecAbsPush$[ebp]
	call	??0Vector@@QAE@XZ			; Vector::Vector

; 1013 : 	LinearlyMoveRootEntity( pRoot, movetime, vecAbsPush );

	lea	eax, DWORD PTR _vecAbsPush$[ebp]
	push	eax
	push	ecx
	movss	xmm0, DWORD PTR _movetime$[ebp]
	movss	DWORD PTR [esp], xmm0
	mov	ecx, DWORD PTR _pRoot$[ebp]
	push	ecx
	mov	ecx, DWORD PTR _this$[ebp]
	call	?LinearlyMoveRootEntity@CPhysicsPushedEntities@@IAEXPAVCBaseEntity@@MAAVVector@@@Z ; CPhysicsPushedEntities::LinearlyMoveRootEntity

; 1014 : 
; 1015 : 	// Next generate a list of all entities that could potentially be intersecting with
; 1016 : 	// any of the children in their new locations...
; 1017 : 	GenerateBlockingEntityListAddBox( vecAbsPush );

	lea	eax, DWORD PTR _vecAbsPush$[ebp]
	push	eax
	mov	ecx, DWORD PTR _this$[ebp]
	call	?GenerateBlockingEntityListAddBox@CPhysicsPushedEntities@@IAEXABVVector@@@Z ; CPhysicsPushedEntities::GenerateBlockingEntityListAddBox

; 1018 : 
; 1019 : 	// Now we have a unique list of things that could potentially block our push
; 1020 : 	// and need to be pushed out of the way. Lets try to push them all out of the way.
; 1021 : 	// if we fail, undo it all
; 1022 : 	if( !SpeculativelyCheckLinearPush( vecAbsPush ))

	lea	eax, DWORD PTR _vecAbsPush$[ebp]
	push	eax
	mov	ecx, DWORD PTR _this$[ebp]
	mov	edx, DWORD PTR [ecx]
	mov	ecx, DWORD PTR _this$[ebp]
	mov	eax, DWORD PTR [edx+4]
	call	eax
	movzx	ecx, al
	test	ecx, ecx
	jne	SHORT $LN2@PerformLin

; 1023 : 	{
; 1024 : 		CBaseEntity *pBlocker = RegisterBlockage();

	mov	ecx, DWORD PTR _this$[ebp]
	call	?RegisterBlockage@CPhysicsPushedEntities@@IAEPAVCBaseEntity@@XZ ; CPhysicsPushedEntities::RegisterBlockage
	mov	DWORD PTR _pBlocker$1[ebp], eax

; 1025 : 		pRoot->SetAbsOrigin( vecPrevOrigin );

	lea	eax, DWORD PTR _vecPrevOrigin$[ebp]
	push	eax
	mov	ecx, DWORD PTR _pRoot$[ebp]
	call	?SetAbsOrigin@CBaseEntity@@QAEXABVVector@@@Z ; CBaseEntity::SetAbsOrigin

; 1026 : 		RestoreEntities();

	mov	ecx, DWORD PTR _this$[ebp]
	call	?RestoreEntities@CPhysicsPushedEntities@@IAEXXZ ; CPhysicsPushedEntities::RestoreEntities

; 1027 : 		return pBlocker;

	mov	eax, DWORD PTR _pBlocker$1[ebp]
	jmp	SHORT $LN1@PerformLin
$LN2@PerformLin:

; 1028 : 	}
; 1029 : 
; 1030 : 	FinishPush();

	push	0
	push	0
	mov	ecx, DWORD PTR _this$[ebp]
	call	?FinishPush@CPhysicsPushedEntities@@IAEX_NPBURotatingPushMove_t@1@@Z ; CPhysicsPushedEntities::FinishPush

; 1031 : 
; 1032 : 	return NULL;

	xor	eax, eax
$LN1@PerformLin:

; 1033 : }

	pop	edi
	pop	esi
	pop	ebx
	mov	esp, ebp
	pop	ebp
	ret	8
?PerformLinearPush@CPhysicsPushedEntities@@QAEPAVCBaseEntity@@PAV2@M@Z ENDP ; CPhysicsPushedEntities::PerformLinearPush
_TEXT	ENDS
; Function compile flags: /Odtp /ZI
; File d:\!diffusion 2020\source code 2022\client-server\server\physics\physic.cpp
;	COMDAT ?PerformRotatePush@CPhysicsPushedEntities@@QAEPAVCBaseEntity@@PAV2@M@Z
_TEXT	SEGMENT
tv69 = -241						; size = 1
_pBlocker$1 = -176					; size = 4
_rotPushMove$ = -172					; size = 152
_angPrevAngles$ = -20					; size = 12
_this$ = -8						; size = 4
__$ArrayPad$ = -4					; size = 4
_pRoot$ = 8						; size = 4
_movetime$ = 12						; size = 4
?PerformRotatePush@CPhysicsPushedEntities@@QAEPAVCBaseEntity@@PAV2@M@Z PROC ; CPhysicsPushedEntities::PerformRotatePush, COMDAT
; _this$ = ecx

; 946  : {

	push	ebp
	mov	ebp, esp
	sub	esp, 244				; 000000f4H
	mov	eax, DWORD PTR ___security_cookie
	xor	eax, ebp
	mov	DWORD PTR __$ArrayPad$[ebp], eax
	push	ebx
	push	esi
	push	edi
	mov	DWORD PTR _this$[ebp], ecx

; 947  : 	m_bIsUnblockableByPlayer = FBitSet( pRoot->pev->flags, FL_UNBLOCKABLE ) ? true : false;

	mov	eax, DWORD PTR _pRoot$[ebp]
	mov	ecx, DWORD PTR [eax+4]
	mov	edx, DWORD PTR [ecx+420]
	and	edx, 268435456				; 10000000H
	je	SHORT $LN4@PerformRot
	mov	BYTE PTR tv69[ebp], 1
	jmp	SHORT $LN5@PerformRot
$LN4@PerformRot:
	mov	BYTE PTR tv69[ebp], 0
$LN5@PerformRot:
	mov	eax, DWORD PTR _this$[ebp]
	mov	cl, BYTE PTR tv69[ebp]
	mov	BYTE PTR [eax+48], cl

; 948  : 
; 949  : 	// build a list of this entity + all its children because we're going to try to move them all
; 950  : 	// this will also make sure each entity is linked in the appropriate place
; 951  : 	// with correct absboxes
; 952  : 	m_rgPusher.RemoveAll();

	mov	ecx, DWORD PTR _this$[ebp]
	add	ecx, 4
	call	?RemoveAll@?$CUtlArray@UPhysicsPusherInfo_t@CPhysicsPushedEntities@@V?$CUtlMemory@UPhysicsPusherInfo_t@CPhysicsPushedEntities@@H@@@@QAEXXZ ; CUtlArray<CPhysicsPushedEntities::PhysicsPusherInfo_t,CUtlMemory<CPhysicsPushedEntities::PhysicsPusherInfo_t,int> >::RemoveAll

; 953  : 	SetupAllInHierarchy( pRoot );

	mov	eax, DWORD PTR _pRoot$[ebp]
	push	eax
	mov	ecx, DWORD PTR _this$[ebp]
	call	?SetupAllInHierarchy@CPhysicsPushedEntities@@IAEXPAVCBaseEntity@@@Z ; CPhysicsPushedEntities::SetupAllInHierarchy

; 954  : 
; 955  : 	// save where we rotated from, in case we're blocked
; 956  : 	Vector angPrevAngles = pRoot->GetLocalAngles();

	mov	ecx, DWORD PTR _pRoot$[ebp]
	call	?GetLocalAngles@CBaseEntity@@QBEABVVector@@XZ ; CBaseEntity::GetLocalAngles
	push	eax
	lea	ecx, DWORD PTR _angPrevAngles$[ebp]
	call	??0Vector@@QAE@ABV0@@Z			; Vector::Vector

; 957  : 
; 958  : 	// apply the rotation
; 959  : 	RotatingPushMove_t rotPushMove;

	lea	ecx, DWORD PTR _rotPushMove$[ebp]
	call	??0RotatingPushMove_t@CPhysicsPushedEntities@@QAE@XZ

; 960  : 	RotateRootEntity( pRoot, movetime, rotPushMove );

	lea	eax, DWORD PTR _rotPushMove$[ebp]
	push	eax
	push	ecx
	movss	xmm0, DWORD PTR _movetime$[ebp]
	movss	DWORD PTR [esp], xmm0
	mov	ecx, DWORD PTR _pRoot$[ebp]
	push	ecx
	mov	ecx, DWORD PTR _this$[ebp]
	call	?RotateRootEntity@CPhysicsPushedEntities@@IAEXPAVCBaseEntity@@MAAURotatingPushMove_t@1@@Z ; CPhysicsPushedEntities::RotateRootEntity

; 961  : 
; 962  : 	// next generate a list of all entities that could potentially be intersecting with
; 963  : 	// any of the children in their new locations...
; 964  : 	GenerateBlockingEntityList( );

	mov	ecx, DWORD PTR _this$[ebp]
	call	?GenerateBlockingEntityList@CPhysicsPushedEntities@@IAEXXZ ; CPhysicsPushedEntities::GenerateBlockingEntityList

; 965  : 
; 966  : 	// now we have a unique list of things that could potentially block our push
; 967  : 	// and need to be pushed out of the way. Lets try to push them all out of the way.
; 968  : 	// if we fail, undo it all
; 969  : 	if( !SpeculativelyCheckRotPush( rotPushMove, pRoot ))

	mov	eax, DWORD PTR _pRoot$[ebp]
	push	eax
	lea	ecx, DWORD PTR _rotPushMove$[ebp]
	push	ecx
	mov	edx, DWORD PTR _this$[ebp]
	mov	eax, DWORD PTR [edx]
	mov	ecx, DWORD PTR _this$[ebp]
	mov	edx, DWORD PTR [eax]
	call	edx
	movzx	eax, al
	test	eax, eax
	jne	SHORT $LN2@PerformRot

; 970  : 	{
; 971  : 		CBaseEntity *pBlocker = RegisterBlockage();

	mov	ecx, DWORD PTR _this$[ebp]
	call	?RegisterBlockage@CPhysicsPushedEntities@@IAEPAVCBaseEntity@@XZ ; CPhysicsPushedEntities::RegisterBlockage
	mov	DWORD PTR _pBlocker$1[ebp], eax

; 972  : 		pRoot->SetLocalAngles( angPrevAngles );

	lea	eax, DWORD PTR _angPrevAngles$[ebp]
	push	eax
	mov	ecx, DWORD PTR _pRoot$[ebp]
	call	?SetLocalAngles@CBaseEntity@@QAEXABVVector@@@Z ; CBaseEntity::SetLocalAngles

; 973  : 		RestoreEntities( );

	mov	ecx, DWORD PTR _this$[ebp]
	call	?RestoreEntities@CPhysicsPushedEntities@@IAEXXZ ; CPhysicsPushedEntities::RestoreEntities

; 974  : 		return pBlocker;

	mov	eax, DWORD PTR _pBlocker$1[ebp]
	jmp	SHORT $LN1@PerformRot
$LN2@PerformRot:

; 975  : 	}
; 976  : 
; 977  : 	FinishPush( true, &rotPushMove );

	lea	eax, DWORD PTR _rotPushMove$[ebp]
	push	eax
	push	1
	mov	ecx, DWORD PTR _this$[ebp]
	call	?FinishPush@CPhysicsPushedEntities@@IAEX_NPBURotatingPushMove_t@1@@Z ; CPhysicsPushedEntities::FinishPush

; 978  : 
; 979  : 	return NULL;

	xor	eax, eax
$LN1@PerformRot:

; 980  : }

	pop	edi
	pop	esi
	pop	ebx
	mov	ecx, DWORD PTR __$ArrayPad$[ebp]
	xor	ecx, ebp
	call	@__security_check_cookie@4
	mov	esp, ebp
	pop	ebp
	ret	8
?PerformRotatePush@CPhysicsPushedEntities@@QAEPAVCBaseEntity@@PAV2@M@Z ENDP ; CPhysicsPushedEntities::PerformRotatePush
_TEXT	ENDS
; Function compile flags: /Odtp /ZI
; File d:\!diffusion 2020\source code 2022\client-server\server\movelist.h
;	COMDAT ??0CPhysicsPushedEntities@@QAE@XZ
_TEXT	SEGMENT
_this$ = -16						; size = 4
__$EHRec$ = -12						; size = 12
??0CPhysicsPushedEntities@@QAE@XZ PROC			; CPhysicsPushedEntities::CPhysicsPushedEntities, COMDAT
; _this$ = ecx

; 29   : 	CPhysicsPushedEntities( void ) : m_rgPusher( 8, 8 ), m_rgMoved( 32, 32 ) {}

	push	ebp
	mov	ebp, esp
	push	-1
	push	__ehhandler$??0CPhysicsPushedEntities@@QAE@XZ
	mov	eax, DWORD PTR fs:0
	push	eax
	sub	esp, 68					; 00000044H
	push	ebx
	push	esi
	push	edi
	mov	eax, DWORD PTR ___security_cookie
	xor	eax, ebp
	push	eax
	lea	eax, DWORD PTR __$EHRec$[ebp]
	mov	DWORD PTR fs:0, eax
	mov	DWORD PTR _this$[ebp], ecx
	mov	eax, DWORD PTR _this$[ebp]
	mov	DWORD PTR [eax], OFFSET ??_7CPhysicsPushedEntities@@6B@
	push	8
	push	8
	mov	ecx, DWORD PTR _this$[ebp]
	add	ecx, 4
	call	??0?$CUtlArray@UPhysicsPusherInfo_t@CPhysicsPushedEntities@@V?$CUtlMemory@UPhysicsPusherInfo_t@CPhysicsPushedEntities@@H@@@@QAE@HH@Z ; CUtlArray<CPhysicsPushedEntities::PhysicsPusherInfo_t,CUtlMemory<CPhysicsPushedEntities::PhysicsPusherInfo_t,int> >::CUtlArray<CPhysicsPushedEntities::PhysicsPusherInfo_t,CUtlMemory<CPhysicsPushedEntities::PhysicsPusherInfo_t,int> >
	mov	DWORD PTR __$EHRec$[ebp+8], 0
	push	32					; 00000020H
	push	32					; 00000020H
	mov	ecx, DWORD PTR _this$[ebp]
	add	ecx, 24					; 00000018H
	call	??0?$CUtlArray@UPhysicsPushedInfo_t@CPhysicsPushedEntities@@V?$CUtlMemory@UPhysicsPushedInfo_t@CPhysicsPushedEntities@@H@@@@QAE@HH@Z ; CUtlArray<CPhysicsPushedEntities::PhysicsPushedInfo_t,CUtlMemory<CPhysicsPushedEntities::PhysicsPushedInfo_t,int> >::CUtlArray<CPhysicsPushedEntities::PhysicsPushedInfo_t,CUtlMemory<CPhysicsPushedEntities::PhysicsPushedInfo_t,int> >
	mov	DWORD PTR __$EHRec$[ebp+8], -1
	mov	eax, DWORD PTR _this$[ebp]
	mov	ecx, DWORD PTR __$EHRec$[ebp]
	mov	DWORD PTR fs:0, ecx
	pop	ecx
	pop	edi
	pop	esi
	pop	ebx
	mov	esp, ebp
	pop	ebp
	ret	0
_TEXT	ENDS
;	COMDAT text$x
text$x	SEGMENT
__unwindfunclet$??0CPhysicsPushedEntities@@QAE@XZ$0:
	mov	ecx, DWORD PTR _this$[ebp]
	add	ecx, 4
	jmp	??1?$CUtlArray@UPhysicsPusherInfo_t@CPhysicsPushedEntities@@V?$CUtlMemory@UPhysicsPusherInfo_t@CPhysicsPushedEntities@@H@@@@QAE@XZ ; CUtlArray<CPhysicsPushedEntities::PhysicsPusherInfo_t,CUtlMemory<CPhysicsPushedEntities::PhysicsPusherInfo_t,int> >::~CUtlArray<CPhysicsPushedEntities::PhysicsPusherInfo_t,CUtlMemory<CPhysicsPushedEntities::PhysicsPusherInfo_t,int> >
__ehhandler$??0CPhysicsPushedEntities@@QAE@XZ:
	mov	edx, DWORD PTR [esp+8]
	lea	eax, DWORD PTR [edx+12]
	mov	ecx, DWORD PTR [edx-84]
	xor	ecx, eax
	call	@__security_check_cookie@4
	mov	eax, OFFSET __ehfuncinfo$??0CPhysicsPushedEntities@@QAE@XZ
	jmp	___CxxFrameHandler3
text$x	ENDS
??0CPhysicsPushedEntities@@QAE@XZ ENDP			; CPhysicsPushedEntities::CPhysicsPushedEntities
; Function compile flags: /Odtp /ZI
; File d:\!diffusion 2020\source code 2022\client-server\server\physics\physic.cpp
;	COMDAT ?RunPhysicsFrame@@YAHPAVCBaseEntity@@@Z
_TEXT	SEGMENT
tv171 = -96						; size = 4
$T1 = -92						; size = 12
_vecAbsVelocity$2 = -16					; size = 12
_pParent$ = -4						; size = 4
_pEntity$ = 8						; size = 4
?RunPhysicsFrame@@YAHPAVCBaseEntity@@@Z PROC		; RunPhysicsFrame, COMDAT

; 2543 : {

	push	ebp
	mov	ebp, esp
	sub	esp, 96					; 00000060H
	push	ebx
	push	esi
	push	edi

; 2544 : 	// to avoid run physics frame twice for parent entities
; 2545 : 	if( pEntity->m_iPhysicsFrame == g_ulFrameCount )

	mov	eax, DWORD PTR _pEntity$[ebp]
	mov	ecx, DWORD PTR [eax+60]
	cmp	ecx, DWORD PTR ?g_ulFrameCount@@3KA	; g_ulFrameCount
	jne	SHORT $LN4@RunPhysics

; 2546 : 		return 1;	// handled

	mov	eax, 1
	jmp	$LN1@RunPhysics
$LN4@RunPhysics:

; 2547 : 
; 2548 : 	pEntity->m_iPhysicsFrame = g_ulFrameCount;

	mov	eax, DWORD PTR _pEntity$[ebp]
	mov	ecx, DWORD PTR ?g_ulFrameCount@@3KA	; g_ulFrameCount
	mov	DWORD PTR [eax+60], ecx

; 2549 : 
; 2550 : 	if( gpGlobals->force_retouch != 0.0f )

	mov	eax, DWORD PTR ?gpGlobals@@3PAUglobalvars_t@@A ; gpGlobals
	movss	xmm0, DWORD PTR [eax+8]
	ucomiss	xmm0, DWORD PTR __real@00000000
	lahf
	test	ah, 68					; 00000044H
	jnp	SHORT $LN5@RunPhysics

; 2551 : 	{
; 2552 : 		// force retouch even for stationary
; 2553 : 		pEntity->RelinkEntity( true );

	push	0
	push	0
	push	1
	mov	ecx, DWORD PTR _pEntity$[ebp]
	call	?RelinkEntity@CBaseEntity@@QAEXHPBVVector@@H@Z ; CBaseEntity::RelinkEntity
$LN5@RunPhysics:

; 2554 : 	}
; 2555 : 
; 2556 : 	// If we've have a parent, we must simulate that first.
; 2557 : 	CBaseEntity *pParent = pEntity->m_hParent;

	mov	ecx, DWORD PTR _pEntity$[ebp]
	add	ecx, 160				; 000000a0H
	call	??BEHANDLE@@QAEPAVCBaseEntity@@XZ	; EHANDLE::operator CBaseEntity *
	mov	DWORD PTR _pParent$[ebp], eax

; 2558 : 
; 2559 : 	if( pEntity->pev->movetype == MOVETYPE_NONE && !pParent )

	mov	eax, DWORD PTR _pEntity$[ebp]
	mov	ecx, DWORD PTR [eax+4]
	cmp	DWORD PTR [ecx+264], 0
	jne	SHORT $LN6@RunPhysics
	cmp	DWORD PTR _pParent$[ebp], 0
	jne	SHORT $LN6@RunPhysics

; 2560 : 	{
; 2561 : 		SV_Physics_None( pEntity );

	mov	eax, DWORD PTR _pEntity$[ebp]
	push	eax
	call	?SV_Physics_None@@YAXPAVCBaseEntity@@@Z	; SV_Physics_None
	add	esp, 4

; 2562 : 		return 1;

	mov	eax, 1
	jmp	$LN1@RunPhysics
$LN6@RunPhysics:

; 2563 : 	}
; 2564 : 
; 2565 : 	// compound movetype waiting for parent
; 2566 : 	if( pEntity->pev->movetype == MOVETYPE_COMPOUND && !pEntity->pev->aiment )

	mov	eax, DWORD PTR _pEntity$[ebp]
	mov	ecx, DWORD PTR [eax+4]
	cmp	DWORD PTR [ecx+264], 14			; 0000000eH
	jne	SHORT $LN7@RunPhysics
	mov	eax, DWORD PTR _pEntity$[ebp]
	mov	ecx, DWORD PTR [eax+4]
	cmp	DWORD PTR [ecx+404], 0
	jne	SHORT $LN7@RunPhysics

; 2567 : 	{
; 2568 : 		if( pEntity->m_hParent )

	mov	ecx, DWORD PTR _pEntity$[ebp]
	add	ecx, 160				; 000000a0H
	call	??BEHANDLE@@QAEHXZ			; EHANDLE::operator int
	test	eax, eax
	je	SHORT $LN8@RunPhysics

; 2569 : 			pEntity->SetParent(( CBaseEntity *)NULL );

	push	0
	push	0
	mov	ecx, DWORD PTR _pEntity$[ebp]
	call	?SetParent@CBaseEntity@@QAEXPAV1@H@Z	; CBaseEntity::SetParent
$LN8@RunPhysics:

; 2570 : 		SV_Physics_None( pEntity );

	mov	eax, DWORD PTR _pEntity$[ebp]
	push	eax
	call	?SV_Physics_None@@YAXPAVCBaseEntity@@@Z	; SV_Physics_None
	add	esp, 4

; 2571 : 		return 1;

	mov	eax, 1
	jmp	$LN1@RunPhysics
$LN7@RunPhysics:

; 2572 : 	}
; 2573 : 
; 2574 : 	// player is already updated for this frame
; 2575 : 	if( pParent && !pParent->IsPlayer( ))

	cmp	DWORD PTR _pParent$[ebp], 0
	je	SHORT $LN9@RunPhysics
	mov	eax, DWORD PTR _pParent$[ebp]
	mov	edx, DWORD PTR [eax]
	mov	ecx, DWORD PTR _pParent$[ebp]
	mov	eax, DWORD PTR [edx+220]
	call	eax
	test	eax, eax
	jne	SHORT $LN9@RunPhysics

; 2576 : 	{
; 2577 : 		// run the parent first
; 2578 : 		RunPhysicsFrame( pParent );

	mov	eax, DWORD PTR _pParent$[ebp]
	push	eax
	call	?RunPhysicsFrame@@YAHPAVCBaseEntity@@@Z	; RunPhysicsFrame
	add	esp, 4

; 2579 : 	}
; 2580 : 	else

	jmp	$LN10@RunPhysics
$LN9@RunPhysics:

; 2581 : 	{
; 2582 : 		SV_UpdateBaseVelocity( pEntity );

	mov	eax, DWORD PTR _pEntity$[ebp]
	push	eax
	call	?SV_UpdateBaseVelocity@@YAXPAVCBaseEntity@@@Z ; SV_UpdateBaseVelocity
	add	esp, 4

; 2583 : 
; 2584 : 		if(!( pEntity->pev->flags & FL_BASEVELOCITY ) && pEntity->GetBaseVelocity() != g_vecZero )

	mov	eax, DWORD PTR _pEntity$[ebp]
	mov	ecx, DWORD PTR [eax+4]
	mov	edx, DWORD PTR [ecx+420]
	and	edx, 4194304				; 00400000H
	jne	SHORT $LN11@RunPhysics
	push	OFFSET ?g_vecZero@@3VVector@@B		; g_vecZero
	mov	ecx, DWORD PTR _pEntity$[ebp]
	call	?GetBaseVelocity@CBaseEntity@@QBEABVVector@@XZ ; CBaseEntity::GetBaseVelocity
	mov	ecx, eax
	call	??9Vector@@QBEHABV0@@Z			; Vector::operator!=
	test	eax, eax
	je	SHORT $LN11@RunPhysics

; 2585 : 		{
; 2586 : 			// Apply momentum (add in half of the previous frame of velocity first)
; 2587 : 			Vector vecAbsVelocity = pEntity->GetAbsVelocity() + pEntity->GetBaseVelocity() * (1.0f + (gpGlobals->frametime * 0.5f));

	mov	eax, DWORD PTR ?gpGlobals@@3PAUglobalvars_t@@A ; gpGlobals
	movss	xmm0, DWORD PTR [eax+4]
	mulss	xmm0, DWORD PTR __real@3f000000
	addss	xmm0, DWORD PTR __real@3f800000
	push	ecx
	movss	DWORD PTR [esp], xmm0
	lea	ecx, DWORD PTR $T1[ebp]
	push	ecx
	mov	ecx, DWORD PTR _pEntity$[ebp]
	call	?GetBaseVelocity@CBaseEntity@@QBEABVVector@@XZ ; CBaseEntity::GetBaseVelocity
	mov	ecx, eax
	call	??DVector@@QBE?AV0@M@Z			; Vector::operator*
	push	eax
	lea	edx, DWORD PTR _vecAbsVelocity$2[ebp]
	push	edx
	mov	ecx, DWORD PTR _pEntity$[ebp]
	call	?GetAbsVelocity@CBaseEntity@@QBEABVVector@@XZ ; CBaseEntity::GetAbsVelocity
	mov	ecx, eax
	call	??HVector@@QBE?AV0@ABV0@@Z		; Vector::operator+

; 2588 : 			pEntity->SetAbsVelocity( vecAbsVelocity );

	lea	eax, DWORD PTR _vecAbsVelocity$2[ebp]
	push	eax
	mov	ecx, DWORD PTR _pEntity$[ebp]
	call	?SetAbsVelocity@CBaseEntity@@QAEXABVVector@@@Z ; CBaseEntity::SetAbsVelocity

; 2589 : 			pEntity->SetBaseVelocity( g_vecZero );

	push	OFFSET ?g_vecZero@@3VVector@@B		; g_vecZero
	mov	ecx, DWORD PTR _pEntity$[ebp]
	call	?SetBaseVelocity@CBaseEntity@@QAEXABVVector@@@Z ; CBaseEntity::SetBaseVelocity
$LN11@RunPhysics:

; 2590 : 		}
; 2591 : 		pEntity->pev->flags &= ~FL_BASEVELOCITY;

	mov	eax, DWORD PTR _pEntity$[ebp]
	mov	ecx, DWORD PTR [eax+4]
	mov	edx, DWORD PTR [ecx+420]
	and	edx, -4194305				; ffbfffffH
	mov	eax, DWORD PTR _pEntity$[ebp]
	mov	ecx, DWORD PTR [eax+4]
	mov	DWORD PTR [ecx+420], edx
$LN10@RunPhysics:

; 2592 : 	}
; 2593 : 
; 2594 : 	// NOTE: at this point pEntity assume to be valid
; 2595 : 	switch( pEntity->pev->movetype )

	mov	eax, DWORD PTR _pEntity$[ebp]
	mov	ecx, DWORD PTR [eax+4]
	mov	edx, DWORD PTR [ecx+264]
	mov	DWORD PTR tv171[ebp], edx
	cmp	DWORD PTR tv171[ebp], 15		; 0000000fH
	ja	$LN2@RunPhysics
	mov	eax, DWORD PTR tv171[ebp]
	movzx	ecx, BYTE PTR $LN21@RunPhysics[eax]
	jmp	DWORD PTR $LN22@RunPhysics[ecx*4]
$LN12@RunPhysics:

; 2596 : 	{
; 2597 : 	case MOVETYPE_NONE:
; 2598 : 		SV_Physics_None( pEntity );

	mov	eax, DWORD PTR _pEntity$[ebp]
	push	eax
	call	?SV_Physics_None@@YAXPAVCBaseEntity@@@Z	; SV_Physics_None
	add	esp, 4

; 2599 : 		return 1;

	mov	eax, 1
	jmp	$LN1@RunPhysics
$LN13@RunPhysics:

; 2600 : 	case MOVETYPE_NOCLIP:
; 2601 : 		SV_Physics_Noclip( pEntity );

	mov	eax, DWORD PTR _pEntity$[ebp]
	push	eax
	call	?SV_Physics_Noclip@@YAXPAVCBaseEntity@@@Z ; SV_Physics_Noclip
	add	esp, 4

; 2602 : 		return 1;

	mov	eax, 1
	jmp	SHORT $LN1@RunPhysics
$LN14@RunPhysics:

; 2603 : 	case MOVETYPE_FOLLOW:
; 2604 : 		SV_Physics_Follow( pEntity );

	mov	eax, DWORD PTR _pEntity$[ebp]
	push	eax
	call	?SV_Physics_Follow@@YAXPAVCBaseEntity@@@Z ; SV_Physics_Follow
	add	esp, 4

; 2605 : 		return 1;

	mov	eax, 1
	jmp	SHORT $LN1@RunPhysics
$LN15@RunPhysics:

; 2606 : 	case MOVETYPE_COMPOUND:
; 2607 : 		SV_Physics_Compound( pEntity );

	mov	eax, DWORD PTR _pEntity$[ebp]
	push	eax
	call	?SV_Physics_Compound@@YAXPAVCBaseEntity@@@Z ; SV_Physics_Compound
	add	esp, 4

; 2608 : 		return 1;

	mov	eax, 1
	jmp	SHORT $LN1@RunPhysics
$LN16@RunPhysics:

; 2609 : 	case MOVETYPE_FLY:
; 2610 : 	case MOVETYPE_TOSS:
; 2611 : 	case MOVETYPE_BOUNCE:
; 2612 : 	case MOVETYPE_FLYMISSILE:
; 2613 : 	case MOVETYPE_BOUNCEMISSILE:
; 2614 : 		SV_Physics_Toss( pEntity );

	mov	eax, DWORD PTR _pEntity$[ebp]
	push	eax
	call	?SV_Physics_Toss@@YAXPAVCBaseEntity@@@Z	; SV_Physics_Toss
	add	esp, 4

; 2615 : 		return 1;

	mov	eax, 1
	jmp	SHORT $LN1@RunPhysics
$LN17@RunPhysics:

; 2616 : 	case MOVETYPE_STEP:
; 2617 : 	case MOVETYPE_PUSHSTEP:
; 2618 : 		SV_Physics_Step( pEntity );

	mov	eax, DWORD PTR _pEntity$[ebp]
	push	eax
	call	?SV_Physics_Step@@YAXPAVCBaseEntity@@@Z	; SV_Physics_Step
	add	esp, 4

; 2619 : 		return 1;

	mov	eax, 1
	jmp	SHORT $LN1@RunPhysics
$LN18@RunPhysics:

; 2620 : 	case MOVETYPE_PUSH:
; 2621 : 		SV_Physics_Pusher( pEntity );

	mov	eax, DWORD PTR _pEntity$[ebp]
	push	eax
	call	?SV_Physics_Pusher@@YAXPAVCBaseEntity@@@Z ; SV_Physics_Pusher
	add	esp, 4

; 2622 : 		return 1;

	mov	eax, 1
	jmp	SHORT $LN1@RunPhysics
$LN19@RunPhysics:

; 2623 : 	case MOVETYPE_PHYSIC:
; 2624 : 		SV_Physics_Rigid( pEntity );

	mov	eax, DWORD PTR _pEntity$[ebp]
	push	eax
	call	?SV_Physics_Rigid@@YAXPAVCBaseEntity@@@Z ; SV_Physics_Rigid
	add	esp, 4

; 2625 : 		return 1;

	mov	eax, 1
	jmp	SHORT $LN1@RunPhysics
$LN2@RunPhysics:

; 2626 : 	}
; 2627 : 
; 2628 : 	// other movetypes uses built-in engine physic
; 2629 : 	return 0;

	xor	eax, eax
$LN1@RunPhysics:

; 2630 : }

	pop	edi
	pop	esi
	pop	ebx
	mov	esp, ebp
	pop	ebp
	ret	0
	npad	1
$LN22@RunPhysics:
	DD	$LN12@RunPhysics
	DD	$LN17@RunPhysics
	DD	$LN16@RunPhysics
	DD	$LN18@RunPhysics
	DD	$LN13@RunPhysics
	DD	$LN14@RunPhysics
	DD	$LN15@RunPhysics
	DD	$LN19@RunPhysics
	DD	$LN2@RunPhysics
$LN21@RunPhysics:
	DB	0
	DB	8
	DB	8
	DB	8
	DB	1
	DB	2
	DB	2
	DB	3
	DB	4
	DB	2
	DB	2
	DB	2
	DB	5
	DB	1
	DB	6
	DB	7
?RunPhysicsFrame@@YAHPAVCBaseEntity@@@Z ENDP		; RunPhysicsFrame
_TEXT	ENDS
; Function compile flags: /Odtp /ZI
; File d:\!diffusion 2020\source code 2022\client-server\server\cbase.h
;	COMDAT ?edict@CBaseEntity@@QAEPAUedict_s@@XZ
_TEXT	SEGMENT
_this$ = -4						; size = 4
?edict@CBaseEntity@@QAEPAUedict_s@@XZ PROC		; CBaseEntity::edict, COMDAT
; _this$ = ecx

; 741  : 	edict_t *edict() { return ENT( pev ); };

	push	ebp
	mov	ebp, esp
	sub	esp, 68					; 00000044H
	push	ebx
	push	esi
	push	edi
	mov	DWORD PTR _this$[ebp], ecx
	mov	eax, DWORD PTR _this$[ebp]
	mov	ecx, DWORD PTR [eax+4]
	push	ecx
	call	?ENT@@YAPAUedict_s@@PBUentvars_s@@@Z	; ENT
	add	esp, 4
	pop	edi
	pop	esi
	pop	ebx
	mov	esp, ebp
	pop	ebp
	ret	0
?edict@CBaseEntity@@QAEPAUedict_s@@XZ ENDP		; CBaseEntity::edict
_TEXT	ENDS
; Function compile flags: /Odtp /ZI
; File d:\!diffusion 2020\source code 2022\client-server\server\cbase.h
;	COMDAT ?RestoreSolid@CBaseEntity@@QAEXXZ
_TEXT	SEGMENT
_this$ = -4						; size = 4
?RestoreSolid@CBaseEntity@@QAEXXZ PROC			; CBaseEntity::RestoreSolid, COMDAT
; _this$ = ecx

; 678  : 	{

	push	ebp
	mov	ebp, esp
	sub	esp, 68					; 00000044H
	push	ebx
	push	esi
	push	edi
	mov	DWORD PTR _this$[ebp], ecx

; 679  : 		if( m_iOldSolid != SOLID_NOT && pev->solid == SOLID_NOT )

	mov	eax, DWORD PTR _this$[ebp]
	cmp	DWORD PTR [eax+16], 0
	je	SHORT $LN1@RestoreSol
	mov	eax, DWORD PTR _this$[ebp]
	mov	ecx, DWORD PTR [eax+4]
	cmp	DWORD PTR [ecx+268], 0
	jne	SHORT $LN1@RestoreSol

; 680  : 		{
; 681  : 			WorldPhysic->EnableCollision( this, TRUE );

	push	1
	mov	eax, DWORD PTR _this$[ebp]
	push	eax
	mov	ecx, DWORD PTR ?WorldPhysic@@3PAVIPhysicLayer@@A ; WorldPhysic
	mov	edx, DWORD PTR [ecx]
	mov	ecx, DWORD PTR ?WorldPhysic@@3PAVIPhysicLayer@@A ; WorldPhysic
	mov	eax, DWORD PTR [edx+88]
	call	eax

; 682  : 			pev->solid = m_iOldSolid;

	mov	eax, DWORD PTR _this$[ebp]
	mov	ecx, DWORD PTR [eax+4]
	mov	edx, DWORD PTR _this$[ebp]
	mov	eax, DWORD PTR [edx+16]
	mov	DWORD PTR [ecx+268], eax

; 683  : 			m_iOldSolid = SOLID_NOT;

	mov	eax, DWORD PTR _this$[ebp]
	mov	DWORD PTR [eax+16], 0
$LN1@RestoreSol:

; 684  : 		}
; 685  : 	}

	pop	edi
	pop	esi
	pop	ebx
	mov	esp, ebp
	pop	ebp
	ret	0
?RestoreSolid@CBaseEntity@@QAEXXZ ENDP			; CBaseEntity::RestoreSolid
_TEXT	ENDS
; Function compile flags: /Odtp /ZI
; File d:\!diffusion 2020\source code 2022\client-server\server\cbase.h
;	COMDAT ?MakeNonSolid@CBaseEntity@@QAEXXZ
_TEXT	SEGMENT
_this$ = -4						; size = 4
?MakeNonSolid@CBaseEntity@@QAEXXZ PROC			; CBaseEntity::MakeNonSolid, COMDAT
; _this$ = ecx

; 668  : 	{

	push	ebp
	mov	ebp, esp
	sub	esp, 68					; 00000044H
	push	ebx
	push	esi
	push	edi
	mov	DWORD PTR _this$[ebp], ecx

; 669  : 		if( m_iOldSolid == SOLID_NOT && pev->solid != SOLID_NOT )

	mov	eax, DWORD PTR _this$[ebp]
	cmp	DWORD PTR [eax+16], 0
	jne	SHORT $LN1@MakeNonSol
	mov	eax, DWORD PTR _this$[ebp]
	mov	ecx, DWORD PTR [eax+4]
	cmp	DWORD PTR [ecx+268], 0
	je	SHORT $LN1@MakeNonSol

; 670  : 		{
; 671  : 			WorldPhysic->EnableCollision( this, FALSE );

	push	0
	mov	eax, DWORD PTR _this$[ebp]
	push	eax
	mov	ecx, DWORD PTR ?WorldPhysic@@3PAVIPhysicLayer@@A ; WorldPhysic
	mov	edx, DWORD PTR [ecx]
	mov	ecx, DWORD PTR ?WorldPhysic@@3PAVIPhysicLayer@@A ; WorldPhysic
	mov	eax, DWORD PTR [edx+88]
	call	eax

; 672  : 			m_iOldSolid = pev->solid;

	mov	eax, DWORD PTR _this$[ebp]
	mov	ecx, DWORD PTR [eax+4]
	mov	edx, DWORD PTR _this$[ebp]
	mov	eax, DWORD PTR [ecx+268]
	mov	DWORD PTR [edx+16], eax

; 673  : 			pev->solid = SOLID_NOT;

	mov	eax, DWORD PTR _this$[ebp]
	mov	ecx, DWORD PTR [eax+4]
	mov	DWORD PTR [ecx+268], 0
$LN1@MakeNonSol:

; 674  : 		}
; 675  : 	}

	pop	edi
	pop	esi
	pop	ebx
	mov	esp, ebp
	pop	ebp
	ret	0
?MakeNonSolid@CBaseEntity@@QAEXXZ ENDP			; CBaseEntity::MakeNonSolid
_TEXT	ENDS
; Function compile flags: /Odtp /ZI
; File d:\!diffusion 2020\source code 2022\client-server\server\cbase.h
;	COMDAT ?ClearGroundEntity@CBaseEntity@@QAEXXZ
_TEXT	SEGMENT
_this$ = -4						; size = 4
?ClearGroundEntity@CBaseEntity@@QAEXXZ PROC		; CBaseEntity::ClearGroundEntity, COMDAT
; _this$ = ecx

; 662  : 	{

	push	ebp
	mov	ebp, esp
	sub	esp, 68					; 00000044H
	push	ebx
	push	esi
	push	edi
	mov	DWORD PTR _this$[ebp], ecx

; 663  : 		pev->groundentity = NULL;

	mov	eax, DWORD PTR _this$[ebp]
	mov	ecx, DWORD PTR [eax+4]
	mov	DWORD PTR [ecx+412], 0

; 664  : 		pev->flags &= ~FL_ONGROUND;

	mov	eax, DWORD PTR _this$[ebp]
	mov	ecx, DWORD PTR [eax+4]
	mov	edx, DWORD PTR [ecx+420]
	and	edx, -513				; fffffdffH
	mov	eax, DWORD PTR _this$[ebp]
	mov	ecx, DWORD PTR [eax+4]
	mov	DWORD PTR [ecx+420], edx

; 665  : 	}

	pop	edi
	pop	esi
	pop	ebx
	mov	esp, ebp
	pop	ebp
	ret	0
?ClearGroundEntity@CBaseEntity@@QAEXXZ ENDP		; CBaseEntity::ClearGroundEntity
_TEXT	ENDS
; Function compile flags: /Odtp /ZI
; File d:\!diffusion 2020\source code 2022\client-server\server\cbase.h
;	COMDAT ?SetGroundEntity@CBaseEntity@@QAEXPAUedict_s@@@Z
_TEXT	SEGMENT
_this$ = -4						; size = 4
_pentGround$ = 8					; size = 4
?SetGroundEntity@CBaseEntity@@QAEXPAUedict_s@@@Z PROC	; CBaseEntity::SetGroundEntity, COMDAT
; _this$ = ecx

; 642  : 	{

	push	ebp
	mov	ebp, esp
	sub	esp, 68					; 00000044H
	push	ebx
	push	esi
	push	edi
	mov	DWORD PTR _this$[ebp], ecx

; 643  : 		if( pentGround != NULL )

	cmp	DWORD PTR _pentGround$[ebp], 0
	je	SHORT $LN2@SetGroundE

; 644  : 		{
; 645  : 			pev->groundentity = pentGround;

	mov	eax, DWORD PTR _this$[ebp]
	mov	ecx, DWORD PTR [eax+4]
	mov	edx, DWORD PTR _pentGround$[ebp]
	mov	DWORD PTR [ecx+412], edx

; 646  : 			pev->flags |= FL_ONGROUND;

	mov	eax, DWORD PTR _this$[ebp]
	mov	ecx, DWORD PTR [eax+4]
	mov	edx, DWORD PTR [ecx+420]
	or	edx, 512				; 00000200H
	mov	eax, DWORD PTR _this$[ebp]
	mov	ecx, DWORD PTR [eax+4]
	mov	DWORD PTR [ecx+420], edx
	jmp	SHORT $LN1@SetGroundE
$LN2@SetGroundE:

; 647  : 		}
; 648  : 		else ClearGroundEntity();

	mov	ecx, DWORD PTR _this$[ebp]
	call	?ClearGroundEntity@CBaseEntity@@QAEXXZ	; CBaseEntity::ClearGroundEntity
$LN1@SetGroundE:

; 649  : 	}

	pop	edi
	pop	esi
	pop	ebx
	mov	esp, ebp
	pop	ebp
	ret	4
?SetGroundEntity@CBaseEntity@@QAEXPAUedict_s@@@Z ENDP	; CBaseEntity::SetGroundEntity
_TEXT	ENDS
; Function compile flags: /Odtp /ZI
; File d:\!diffusion 2020\source code 2022\client-server\server\cbase.h
;	COMDAT ?GetGroundEntity@CBaseEntity@@QAEPAV1@XZ
_TEXT	SEGMENT
_this$ = -4						; size = 4
?GetGroundEntity@CBaseEntity@@QAEPAV1@XZ PROC		; CBaseEntity::GetGroundEntity, COMDAT
; _this$ = ecx

; 630  : 	CBaseEntity *GetGroundEntity( void ) { return Instance( pev->groundentity ); }

	push	ebp
	mov	ebp, esp
	sub	esp, 68					; 00000044H
	push	ebx
	push	esi
	push	edi
	mov	DWORD PTR _this$[ebp], ecx
	mov	eax, DWORD PTR _this$[ebp]
	mov	ecx, DWORD PTR [eax+4]
	mov	edx, DWORD PTR [ecx+412]
	push	edx
	call	?Instance@CBaseEntity@@SAPAV1@PAUedict_s@@@Z ; CBaseEntity::Instance
	add	esp, 4
	pop	edi
	pop	esi
	pop	ebx
	mov	esp, ebp
	pop	ebp
	ret	0
?GetGroundEntity@CBaseEntity@@QAEPAV1@XZ ENDP		; CBaseEntity::GetGroundEntity
_TEXT	ENDS
; Function compile flags: /Odtp /ZI
; File d:\!diffusion 2020\source code 2022\client-server\server\cbase.h
;	COMDAT ?Instance@CBaseEntity@@SAPAV1@PAUedict_s@@@Z
_TEXT	SEGMENT
_pEnt$ = -4						; size = 4
_pent$ = 8						; size = 4
?Instance@CBaseEntity@@SAPAV1@PAUedict_s@@@Z PROC	; CBaseEntity::Instance, COMDAT

; 557  : 	{ 

	push	ebp
	mov	ebp, esp
	sub	esp, 68					; 00000044H
	push	ebx
	push	esi
	push	edi

; 558  : 		if ( !pent )

	cmp	DWORD PTR _pent$[ebp], 0
	jne	SHORT $LN2@Instance

; 559  : 			pent = ENT(0);

	push	0
	call	?ENT@@YAPAUedict_s@@H@Z			; ENT
	add	esp, 4
	mov	DWORD PTR _pent$[ebp], eax
$LN2@Instance:

; 560  : 		CBaseEntity *pEnt = (CBaseEntity *)GET_PRIVATE(pent); 

	mov	eax, DWORD PTR _pent$[ebp]
	push	eax
	call	?GET_PRIVATE@@YAPAXPAUedict_s@@@Z	; GET_PRIVATE
	add	esp, 4
	mov	DWORD PTR _pEnt$[ebp], eax

; 561  : 		return pEnt; 

	mov	eax, DWORD PTR _pEnt$[ebp]

; 562  : 	}

	pop	edi
	pop	esi
	pop	ebx
	mov	esp, ebp
	pop	ebp
	ret	0
?Instance@CBaseEntity@@SAPAV1@PAUedict_s@@@Z ENDP	; CBaseEntity::Instance
_TEXT	ENDS
; Function compile flags: /Odtp /ZI
; File d:\!diffusion 2020\source code 2022\client-server\server\cbase.h
;	COMDAT ?SetBaseVelocity@CBaseEntity@@QAEXABVVector@@@Z
_TEXT	SEGMENT
_this$ = -4						; size = 4
_v$ = 8							; size = 4
?SetBaseVelocity@CBaseEntity@@QAEXABVVector@@@Z PROC	; CBaseEntity::SetBaseVelocity, COMDAT
; _this$ = ecx

; 410  : 	void SetBaseVelocity( const Vector& v ) { pev->basevelocity = v; }

	push	ebp
	mov	ebp, esp
	sub	esp, 68					; 00000044H
	push	ebx
	push	esi
	push	edi
	mov	DWORD PTR _this$[ebp], ecx
	mov	eax, DWORD PTR _this$[ebp]
	mov	ecx, DWORD PTR [eax+4]
	add	ecx, 44					; 0000002cH
	mov	edx, DWORD PTR _v$[ebp]
	mov	eax, DWORD PTR [edx]
	mov	DWORD PTR [ecx], eax
	mov	eax, DWORD PTR [edx+4]
	mov	DWORD PTR [ecx+4], eax
	mov	edx, DWORD PTR [edx+8]
	mov	DWORD PTR [ecx+8], edx
	pop	edi
	pop	esi
	pop	ebx
	mov	esp, ebp
	pop	ebp
	ret	4
?SetBaseVelocity@CBaseEntity@@QAEXABVVector@@@Z ENDP	; CBaseEntity::SetBaseVelocity
_TEXT	ENDS
; Function compile flags: /Odtp /ZI
; File d:\!diffusion 2020\source code 2022\client-server\server\cbase.h
;	COMDAT ?SetMoveDoneTime@CBaseEntity@@QAEXM@Z
_TEXT	SEGMENT
tv74 = -72						; size = 4
_this$ = -4						; size = 4
_flDelay$ = 8						; size = 4
?SetMoveDoneTime@CBaseEntity@@QAEXM@Z PROC		; CBaseEntity::SetMoveDoneTime, COMDAT
; _this$ = ecx

; 850  : {

	push	ebp
	mov	ebp, esp
	sub	esp, 72					; 00000048H
	push	ebx
	push	esi
	push	edi
	mov	DWORD PTR _this$[ebp], ecx

; 851  : 	if( flDelay >= 0 )

	movss	xmm0, DWORD PTR _flDelay$[ebp]
	comiss	xmm0, DWORD PTR __real@00000000
	jb	SHORT $LN2@SetMoveDon

; 852  : 		m_flMoveDoneTime = GetLocalTime() + flDelay;

	mov	ecx, DWORD PTR _this$[ebp]
	call	?GetLocalTime@CBaseEntity@@QBEMXZ	; CBaseEntity::GetLocalTime
	fstp	DWORD PTR tv74[ebp]
	movss	xmm0, DWORD PTR tv74[ebp]
	addss	xmm0, DWORD PTR _flDelay$[ebp]
	mov	eax, DWORD PTR _this$[ebp]
	movss	DWORD PTR [eax+52], xmm0
	jmp	SHORT $LN3@SetMoveDon
$LN2@SetMoveDon:

; 853  : 	else m_flMoveDoneTime = -1;

	mov	eax, DWORD PTR _this$[ebp]
	movss	xmm0, DWORD PTR __real@bf800000
	movss	DWORD PTR [eax+52], xmm0
$LN3@SetMoveDon:

; 854  : }

	pop	edi
	pop	esi
	pop	ebx
	mov	esp, ebp
	pop	ebp
	ret	4
?SetMoveDoneTime@CBaseEntity@@QAEXM@Z ENDP		; CBaseEntity::SetMoveDoneTime
_TEXT	ENDS
; Function compile flags: /Odtp /ZI
; File d:\!diffusion 2020\source code 2022\client-server\server\cbase.h
;	COMDAT ?GetMoveDoneTime@CBaseEntity@@QBEMXZ
_TEXT	SEGMENT
tv70 = -76						; size = 4
tv77 = -72						; size = 4
_this$ = -4						; size = 4
?GetMoveDoneTime@CBaseEntity@@QBEMXZ PROC		; CBaseEntity::GetMoveDoneTime, COMDAT
; _this$ = ecx

; 857  : {

	push	ebp
	mov	ebp, esp
	sub	esp, 76					; 0000004cH
	push	ebx
	push	esi
	push	edi
	mov	DWORD PTR _this$[ebp], ecx

; 858  : 	return (m_flMoveDoneTime >= 0) ? m_flMoveDoneTime - GetLocalTime() : -1;

	mov	eax, DWORD PTR _this$[ebp]
	movss	xmm0, DWORD PTR [eax+52]
	comiss	xmm0, DWORD PTR __real@00000000
	jb	SHORT $LN3@GetMoveDon
	mov	ecx, DWORD PTR _this$[ebp]
	call	?GetLocalTime@CBaseEntity@@QBEMXZ	; CBaseEntity::GetLocalTime
	fstp	DWORD PTR tv77[ebp]
	mov	ecx, DWORD PTR _this$[ebp]
	movss	xmm0, DWORD PTR [ecx+52]
	subss	xmm0, DWORD PTR tv77[ebp]
	movss	DWORD PTR tv70[ebp], xmm0
	jmp	SHORT $LN4@GetMoveDon
$LN3@GetMoveDon:
	movss	xmm0, DWORD PTR __real@bf800000
	movss	DWORD PTR tv70[ebp], xmm0
$LN4@GetMoveDon:
	fld	DWORD PTR tv70[ebp]

; 859  : }

	pop	edi
	pop	esi
	pop	ebx
	mov	esp, ebp
	pop	ebp
	ret	0
?GetMoveDoneTime@CBaseEntity@@QBEMXZ ENDP		; CBaseEntity::GetMoveDoneTime
_TEXT	ENDS
; Function compile flags: /Odtp /ZI
; File d:\!diffusion 2020\source code 2022\client-server\server\cbase.h
;	COMDAT ?IncrementLocalTime@CBaseEntity@@QAEXM@Z
_TEXT	SEGMENT
_this$ = -4						; size = 4
_flTimeDelta$ = 8					; size = 4
?IncrementLocalTime@CBaseEntity@@QAEXM@Z PROC		; CBaseEntity::IncrementLocalTime, COMDAT
; _this$ = ecx

; 845  : { 

	push	ebp
	mov	ebp, esp
	sub	esp, 68					; 00000044H
	push	ebx
	push	esi
	push	edi
	mov	DWORD PTR _this$[ebp], ecx

; 846  : 	pev->ltime += flTimeDelta; 

	mov	eax, DWORD PTR _this$[ebp]
	mov	ecx, DWORD PTR [eax+4]
	movss	xmm0, DWORD PTR [ecx+256]
	addss	xmm0, DWORD PTR _flTimeDelta$[ebp]
	mov	edx, DWORD PTR _this$[ebp]
	mov	eax, DWORD PTR [edx+4]
	movss	DWORD PTR [eax+256], xmm0

; 847  : }

	pop	edi
	pop	esi
	pop	ebx
	mov	esp, ebp
	pop	ebp
	ret	4
?IncrementLocalTime@CBaseEntity@@QAEXM@Z ENDP		; CBaseEntity::IncrementLocalTime
_TEXT	ENDS
; Function compile flags: /Odtp /ZI
; File d:\!diffusion 2020\source code 2022\client-server\server\cbase.h
;	COMDAT ?GetLocalTime@CBaseEntity@@QBEMXZ
_TEXT	SEGMENT
_this$ = -4						; size = 4
?GetLocalTime@CBaseEntity@@QBEMXZ PROC			; CBaseEntity::GetLocalTime, COMDAT
; _this$ = ecx

; 840  : { 

	push	ebp
	mov	ebp, esp
	sub	esp, 68					; 00000044H
	push	ebx
	push	esi
	push	edi
	mov	DWORD PTR _this$[ebp], ecx

; 841  : 	return pev->ltime; 

	mov	eax, DWORD PTR _this$[ebp]
	mov	ecx, DWORD PTR [eax+4]
	fld	DWORD PTR [ecx+256]

; 842  : }

	pop	edi
	pop	esi
	pop	ebx
	mov	esp, ebp
	pop	ebp
	ret	0
?GetLocalTime@CBaseEntity@@QBEMXZ ENDP			; CBaseEntity::GetLocalTime
_TEXT	ENDS
; Function compile flags: /Odtp /ZI
; File d:\!diffusion 2020\source code 2022\client-server\server\cbase.h
;	COMDAT ?GetClassname@CBaseEntity@@QAEPBDXZ
_TEXT	SEGMENT
_this$ = -4						; size = 4
?GetClassname@CBaseEntity@@QAEPBDXZ PROC		; CBaseEntity::GetClassname, COMDAT
; _this$ = ecx

; 297  : 	const char*	GetClassname() { return STRING( pev->classname ); }

	push	ebp
	mov	ebp, esp
	sub	esp, 68					; 00000044H
	push	ebx
	push	esi
	push	edi
	mov	DWORD PTR _this$[ebp], ecx
	mov	eax, DWORD PTR _this$[ebp]
	mov	ecx, DWORD PTR [eax+4]
	mov	edx, DWORD PTR [ecx]
	push	edx
	call	DWORD PTR ?g_engfuncs@@3Uenginefuncs_s@@A+264
	add	esp, 4
	pop	edi
	pop	esi
	pop	ebx
	mov	esp, ebp
	pop	ebp
	ret	0
?GetClassname@CBaseEntity@@QAEPBDXZ ENDP		; CBaseEntity::GetClassname
_TEXT	ENDS
; Function compile flags: /Odtp /ZI
; File d:\!diffusion 2020\source code 2022\client-server\server\cbase.h
;	COMDAT ?EntityToWorldTransform@CBaseEntity@@QAEAAVmatrix4x4@@XZ
_TEXT	SEGMENT
$T1 = -148						; size = 12
$T2 = -136						; size = 64
_this$ = -8						; size = 4
__$ArrayPad$ = -4					; size = 4
?EntityToWorldTransform@CBaseEntity@@QAEAAVmatrix4x4@@XZ PROC ; CBaseEntity::EntityToWorldTransform, COMDAT
; _this$ = ecx

; 784  : { 

	push	ebp
	mov	ebp, esp
	sub	esp, 148				; 00000094H
	mov	eax, DWORD PTR ___security_cookie
	xor	eax, ebp
	mov	DWORD PTR __$ArrayPad$[ebp], eax
	push	ebx
	push	esi
	push	edi
	mov	DWORD PTR _this$[ebp], ecx

; 785  : 	if( IsPlayer( ))

	mov	eax, DWORD PTR _this$[ebp]
	mov	edx, DWORD PTR [eax]
	mov	ecx, DWORD PTR _this$[ebp]
	mov	eax, DWORD PTR [edx+220]
	call	eax
	test	eax, eax
	je	SHORT $LN2@EntityToWo

; 786  : 	{
; 787  : 		m_local = matrix4x4( pev->origin, Vector( 0.0f, pev->angles.y, 0.0f ));

	push	ecx
	movss	xmm0, DWORD PTR __real@3f800000
	movss	DWORD PTR [esp], xmm0
	push	ecx
	xorps	xmm0, xmm0
	movss	DWORD PTR [esp], xmm0
	mov	eax, DWORD PTR _this$[ebp]
	mov	ecx, DWORD PTR [eax+4]
	push	ecx
	movss	xmm0, DWORD PTR [ecx+84]
	movss	DWORD PTR [esp], xmm0
	push	ecx
	xorps	xmm0, xmm0
	movss	DWORD PTR [esp], xmm0
	lea	ecx, DWORD PTR $T1[ebp]
	call	??0Vector@@QAE@MMM@Z			; Vector::Vector
	push	eax
	mov	edx, DWORD PTR _this$[ebp]
	mov	eax, DWORD PTR [edx+4]
	add	eax, 8
	push	eax
	lea	ecx, DWORD PTR $T2[ebp]
	call	??0matrix4x4@@QAE@ABVVector@@0M@Z	; matrix4x4::matrix4x4
	push	eax
	mov	ecx, DWORD PTR _this$[ebp]
	add	ecx, 192				; 000000c0H
	call	??4matrix4x4@@QAEAAV0@ABV0@@Z		; matrix4x4::operator=
	jmp	SHORT $LN4@EntityToWo
$LN2@EntityToWo:

; 788  : 	}
; 789  : 	else if( pev->flags & FL_ABSTRANSFORM )

	mov	eax, DWORD PTR _this$[ebp]
	mov	ecx, DWORD PTR [eax+4]
	mov	edx, DWORD PTR [ecx+420]
	and	edx, 131072				; 00020000H
	je	SHORT $LN4@EntityToWo

; 790  : 	{
; 791  : 		CalcAbsolutePosition();

	mov	ecx, DWORD PTR _this$[ebp]
	call	?CalcAbsolutePosition@CBaseEntity@@QAEXXZ ; CBaseEntity::CalcAbsolutePosition
$LN4@EntityToWo:

; 792  : 	}
; 793  : 	return m_local; 

	mov	eax, DWORD PTR _this$[ebp]
	add	eax, 192				; 000000c0H

; 794  : }

	pop	edi
	pop	esi
	pop	ebx
	mov	ecx, DWORD PTR __$ArrayPad$[ebp]
	xor	ecx, ebp
	call	@__security_check_cookie@4
	mov	esp, ebp
	pop	ebp
	ret	0
?EntityToWorldTransform@CBaseEntity@@QAEAAVmatrix4x4@@XZ ENDP ; CBaseEntity::EntityToWorldTransform
_TEXT	ENDS
; Function compile flags: /Odtp /ZI
; File d:\!diffusion 2020\source code 2022\client-server\server\cbase.h
;	COMDAT ?GetBaseVelocity@CBaseEntity@@QBEABVVector@@XZ
_TEXT	SEGMENT
_this$ = -4						; size = 4
?GetBaseVelocity@CBaseEntity@@QBEABVVector@@XZ PROC	; CBaseEntity::GetBaseVelocity, COMDAT
; _this$ = ecx

; 237  : 	const Vector&	GetBaseVelocity( void ) const { return pev->basevelocity; }

	push	ebp
	mov	ebp, esp
	sub	esp, 68					; 00000044H
	push	ebx
	push	esi
	push	edi
	mov	DWORD PTR _this$[ebp], ecx
	mov	eax, DWORD PTR _this$[ebp]
	mov	eax, DWORD PTR [eax+4]
	add	eax, 44					; 0000002cH
	pop	edi
	pop	esi
	pop	ebx
	mov	esp, ebp
	pop	ebp
	ret	0
?GetBaseVelocity@CBaseEntity@@QBEABVVector@@XZ ENDP	; CBaseEntity::GetBaseVelocity
_TEXT	ENDS
; Function compile flags: /Odtp /ZI
; File d:\!diffusion 2020\source code 2022\client-server\server\ehandle.h
;	COMDAT ??BEHANDLE@@QAEPAVCBaseEntity@@XZ
_TEXT	SEGMENT
_this$ = -4						; size = 4
??BEHANDLE@@QAEPAVCBaseEntity@@XZ PROC			; EHANDLE::operator CBaseEntity *, COMDAT
; _this$ = ecx

; 64   : { 

	push	ebp
	mov	ebp, esp
	sub	esp, 68					; 00000044H
	push	ebx
	push	esi
	push	edi
	mov	DWORD PTR _this$[ebp], ecx

; 65   : 	return (CBaseEntity *)GET_PRIVATE( Get( ) ); 

	mov	ecx, DWORD PTR _this$[ebp]
	call	?Get@EHANDLE@@QAEPAUedict_s@@XZ		; EHANDLE::Get
	push	eax
	call	?GET_PRIVATE@@YAPAXPAUedict_s@@@Z	; GET_PRIVATE
	add	esp, 4

; 66   : }

	pop	edi
	pop	esi
	pop	ebx
	mov	esp, ebp
	pop	ebp
	ret	0
??BEHANDLE@@QAEPAVCBaseEntity@@XZ ENDP			; EHANDLE::operator CBaseEntity *
_TEXT	ENDS
; Function compile flags: /Odtp /ZI
; File d:\!diffusion 2020\source code 2022\client-server\server\ehandle.h
;	COMDAT ??BEHANDLE@@QAEHXZ
_TEXT	SEGMENT
tv67 = -72						; size = 4
_this$ = -4						; size = 4
??BEHANDLE@@QAEHXZ PROC					; EHANDLE::operator int, COMDAT
; _this$ = ecx

; 85   : {

	push	ebp
	mov	ebp, esp
	sub	esp, 72					; 00000048H
	push	ebx
	push	esi
	push	edi
	mov	DWORD PTR _this$[ebp], ecx

; 86   : 	return Get() != NULL;

	mov	ecx, DWORD PTR _this$[ebp]
	call	?Get@EHANDLE@@QAEPAUedict_s@@XZ		; EHANDLE::Get
	test	eax, eax
	je	SHORT $LN3@operator
	mov	DWORD PTR tv67[ebp], 1
	jmp	SHORT $LN4@operator
$LN3@operator:
	mov	DWORD PTR tv67[ebp], 0
$LN4@operator:
	mov	eax, DWORD PTR tv67[ebp]

; 87   : }

	pop	edi
	pop	esi
	pop	ebx
	mov	esp, ebp
	pop	ebp
	ret	0
??BEHANDLE@@QAEHXZ ENDP					; EHANDLE::operator int
_TEXT	ENDS
; Function compile flags: /Odtp /ZI
; File d:\!diffusion 2020\source code 2022\client-server\server\ehandle.h
;	COMDAT ?Get@EHANDLE@@QAEPAUedict_s@@XZ
_TEXT	SEGMENT
_this$ = -4						; size = 4
?Get@EHANDLE@@QAEPAUedict_s@@XZ PROC			; EHANDLE::Get, COMDAT
; _this$ = ecx

; 40   : { 

	push	ebp
	mov	ebp, esp
	sub	esp, 68					; 00000044H
	push	ebx
	push	esi
	push	edi
	mov	DWORD PTR _this$[ebp], ecx

; 41   : 	if( m_pent )

	mov	eax, DWORD PTR _this$[ebp]
	cmp	DWORD PTR [eax], 0
	je	SHORT $LN2@Get

; 42   : 	{
; 43   : #if 0
; 44   : 		// keep client entity always in actual state
; 45   : 		if( ENTINDEX( m_pent ) == 1 )
; 46   : 			m_serialnumber = m_pent->serialnumber;
; 47   : #endif
; 48   : 		if( m_pent->serialnumber == m_serialnumber ) 

	mov	eax, DWORD PTR _this$[ebp]
	mov	ecx, DWORD PTR [eax]
	mov	edx, DWORD PTR _this$[ebp]
	mov	eax, DWORD PTR [ecx+4]
	cmp	eax, DWORD PTR [edx+4]
	jne	SHORT $LN2@Get

; 49   : 			return m_pent; 

	mov	eax, DWORD PTR _this$[ebp]
	mov	eax, DWORD PTR [eax]
	jmp	SHORT $LN1@Get
$LN2@Get:

; 50   : 	}
; 51   : 
; 52   : 	return NULL; 

	xor	eax, eax
$LN1@Get:

; 53   : }

	pop	edi
	pop	esi
	pop	ebx
	mov	esp, ebp
	pop	ebp
	ret	0
?Get@EHANDLE@@QAEPAUedict_s@@XZ ENDP			; EHANDLE::Get
_TEXT	ENDS
; Function compile flags: /Odtp /ZI
; File d:\!diffusion 2020\source code 2022\client-server\server\physics\physic.cpp
;	COMDAT ?DispatchUpdatePlayerBaseVelocity@@YAXPAUedict_s@@@Z
_TEXT	SEGMENT
_pEntity$ = -4						; size = 4
_pEdict$ = 8						; size = 4
?DispatchUpdatePlayerBaseVelocity@@YAXPAUedict_s@@@Z PROC ; DispatchUpdatePlayerBaseVelocity, COMDAT

; 327  : {

	push	ebp
	mov	ebp, esp
	sub	esp, 68					; 00000044H
	push	ebx
	push	esi
	push	edi

; 328  : 	CBaseEntity *pEntity = CBaseEntity :: Instance( pEdict );

	mov	eax, DWORD PTR _pEdict$[ebp]
	push	eax
	call	?Instance@CBaseEntity@@SAPAV1@PAUedict_s@@@Z ; CBaseEntity::Instance
	add	esp, 4
	mov	DWORD PTR _pEntity$[ebp], eax

; 329  : 
; 330  : 	if( !pEntity )

	cmp	DWORD PTR _pEntity$[ebp], 0
	jne	SHORT $LN2@DispatchUp

; 331  : 		return;

	jmp	SHORT $LN1@DispatchUp
$LN2@DispatchUp:

; 332  : 
; 333  : 	SV_UpdateBaseVelocity( pEntity );

	mov	eax, DWORD PTR _pEntity$[ebp]
	push	eax
	call	?SV_UpdateBaseVelocity@@YAXPAVCBaseEntity@@@Z ; SV_UpdateBaseVelocity
	add	esp, 4
$LN1@DispatchUp:

; 334  : }

	pop	edi
	pop	esi
	pop	ebx
	mov	esp, ebp
	pop	ebp
	ret	0
?DispatchUpdatePlayerBaseVelocity@@YAXPAUedict_s@@@Z ENDP ; DispatchUpdatePlayerBaseVelocity
_TEXT	ENDS
; Function compile flags: /Odtp /ZI
; File d:\!diffusion 2020\source code 2022\client-server\server\physics\physic.cpp
;	COMDAT ?DispatchPhysicsEntity@@YAHPAUedict_s@@@Z
_TEXT	SEGMENT
_pEntity$ = -4						; size = 4
_pEdict$ = 8						; size = 4
?DispatchPhysicsEntity@@YAHPAUedict_s@@@Z PROC		; DispatchPhysicsEntity, COMDAT

; 304  : {

	push	ebp
	mov	ebp, esp
	sub	esp, 68					; 00000044H
	push	ebx
	push	esi
	push	edi

; 305  : 	CBaseEntity *pEntity = CBaseEntity :: Instance( pEdict );

	mov	eax, DWORD PTR _pEdict$[ebp]
	push	eax
	call	?Instance@CBaseEntity@@SAPAV1@PAUedict_s@@@Z ; CBaseEntity::Instance
	add	esp, 4
	mov	DWORD PTR _pEntity$[ebp], eax

; 306  : 
; 307  : 	if( !pEntity )

	cmp	DWORD PTR _pEntity$[ebp], 0
	jne	SHORT $LN2@DispatchPh

; 308  : 		return 0;	// not initialized

	xor	eax, eax
	jmp	SHORT $LN1@DispatchPh
$LN2@DispatchPh:

; 309  : 
; 310  : 	if( RunPhysicsFrame( pEntity ))

	mov	eax, DWORD PTR _pEntity$[ebp]
	push	eax
	call	?RunPhysicsFrame@@YAHPAVCBaseEntity@@@Z	; RunPhysicsFrame
	add	esp, 4
	test	eax, eax
	je	SHORT $LN3@DispatchPh

; 311  : 	{
; 312  : 		// g-cont. don't alow free entities during loading because
; 313  : 		// this produce corrupted baselines
; 314  : 		if( GET_SERVER_STATE() == SERVER_ACTIVE )

	call	DWORD PTR ?g_physfuncs@@3Userver_physics_api_s@@A+20
	cmp	eax, 2
	jne	SHORT $LN4@DispatchPh

; 315  : 		{
; 316  : 			// g-cont. impulse 101 issues
; 317  : 			if( !pEdict->free && pEntity->pev->flags & FL_KILLME )

	mov	eax, DWORD PTR _pEdict$[ebp]
	cmp	DWORD PTR [eax], 0
	jne	SHORT $LN4@DispatchPh
	mov	eax, DWORD PTR _pEntity$[ebp]
	mov	ecx, DWORD PTR [eax+4]
	mov	edx, DWORD PTR [ecx+420]
	and	edx, 1073741824				; 40000000H
	je	SHORT $LN4@DispatchPh

; 318  : 				REMOVE_ENTITY( pEdict );

	mov	eax, DWORD PTR _pEdict$[ebp]
	push	eax
	call	DWORD PTR ?g_engfuncs@@3Uenginefuncs_s@@A+88
	add	esp, 4
$LN4@DispatchPh:

; 319  : 		}
; 320  : 		return 1;

	mov	eax, 1
	jmp	SHORT $LN1@DispatchPh
$LN3@DispatchPh:

; 321  : 	}
; 322  : 
; 323  : 	return 0;

	xor	eax, eax
$LN1@DispatchPh:

; 324  : }

	pop	edi
	pop	esi
	pop	ebx
	mov	esp, ebp
	pop	ebp
	ret	0
?DispatchPhysicsEntity@@YAHPAUedict_s@@@Z ENDP		; DispatchPhysicsEntity
_TEXT	ENDS
; Function compile flags: /Odtp /ZI
; File d:\!diffusion 2020\source code 2022\client-server\server\physics\physic.cpp
;	COMDAT ?DispatchCreateEntity@@YAHPAUedict_s@@PBD@Z
_TEXT	SEGMENT
_pent$ = 8						; size = 4
_szName$ = 12						; size = 4
?DispatchCreateEntity@@YAHPAUedict_s@@PBD@Z PROC	; DispatchCreateEntity, COMDAT

; 295  : {

	push	ebp
	mov	ebp, esp
	sub	esp, 64					; 00000040H
	push	ebx
	push	esi
	push	edi

; 296  : 	return -1;

	or	eax, -1

; 297  : }

	pop	edi
	pop	esi
	pop	ebx
	mov	esp, ebp
	pop	ebp
	ret	0
?DispatchCreateEntity@@YAHPAUedict_s@@PBD@Z ENDP	; DispatchCreateEntity
_TEXT	ENDS
; Function compile flags: /Odtp /ZI
; File d:\!diffusion 2020\source code 2022\client-server\server\physics\physic.cpp
;	COMDAT _Server_GetPhysicsInterface
_TEXT	SEGMENT
_iImportSize$ = -8					; size = 4
_iExportSize$ = -4					; size = 4
_iVersion$ = 8						; size = 4
_pfuncsFromEngine$ = 12					; size = 4
_pFunctionTable$ = 16					; size = 4
_Server_GetPhysicsInterface PROC			; COMDAT

; 267  : {

	push	ebp
	mov	ebp, esp
	sub	esp, 72					; 00000048H
	push	ebx
	push	esi
	push	edi

; 268  : 	if ( !pFunctionTable || !pfuncsFromEngine || iVersion != SV_PHYSICS_INTERFACE_VERSION )

	cmp	DWORD PTR _pFunctionTable$[ebp], 0
	je	SHORT $LN3@Server_Get
	cmp	DWORD PTR _pfuncsFromEngine$[ebp], 0
	je	SHORT $LN3@Server_Get
	cmp	DWORD PTR _iVersion$[ebp], 6
	je	SHORT $LN2@Server_Get
$LN3@Server_Get:

; 269  : 	{
; 270  : 		return FALSE;

	xor	eax, eax
	jmp	SHORT $LN1@Server_Get
$LN2@Server_Get:

; 271  : 	}
; 272  : 
; 273  : 	if( g_iXashEngineBuildNumber < 4140 )

	cmp	DWORD PTR ?g_iXashEngineBuildNumber@@3HA, 4140 ; g_iXashEngineBuildNumber, 0000102cH
	jge	SHORT $LN4@Server_Get

; 274  : 		return FALSE;

	xor	eax, eax
	jmp	SHORT $LN1@Server_Get
$LN4@Server_Get:

; 275  : 
; 276  : 	size_t iExportSize = sizeof( server_physics_api_t );

	mov	DWORD PTR _iExportSize$[ebp], 124	; 0000007cH

; 277  : 	size_t iImportSize = sizeof( physics_interface_t );

	mov	DWORD PTR _iImportSize$[ebp], 96	; 00000060H

; 278  : 
; 279  : 	// copy new physics interface
; 280  : 	memcpy( &g_physfuncs, pfuncsFromEngine, iExportSize );

	mov	eax, DWORD PTR _iExportSize$[ebp]
	push	eax
	mov	ecx, DWORD PTR _pfuncsFromEngine$[ebp]
	push	ecx
	push	OFFSET ?g_physfuncs@@3Userver_physics_api_s@@A ; g_physfuncs
	call	_memcpy
	add	esp, 12					; 0000000cH

; 281  : 
; 282  : 	// fill engine callbacks
; 283  : 	memcpy( pFunctionTable, &gPhysicsInterface, iImportSize );

	mov	eax, DWORD PTR _iImportSize$[ebp]
	push	eax
	push	OFFSET ?gPhysicsInterface@@3Uphysics_interface_s@@A
	mov	ecx, DWORD PTR _pFunctionTable$[ebp]
	push	ecx
	call	_memcpy
	add	esp, 12					; 0000000cH

; 284  : 
; 285  : 	g_fPhysicInitialized = TRUE;

	mov	DWORD PTR ?g_fPhysicInitialized@@3HA, 1	; g_fPhysicInitialized

; 286  : 
; 287  : 	return TRUE;

	mov	eax, 1
$LN1@Server_Get:

; 288  : }

	pop	edi
	pop	esi
	pop	ebx
	mov	esp, ebp
	pop	ebp
	ret	0
_Server_GetPhysicsInterface ENDP
_TEXT	ENDS
; Function compile flags: /Odtp /ZI
; File d:\!diffusion 2020\source code 2022\client-server\server\physics\physic.cpp
;	COMDAT ?SV_UpdateBaseVelocity@@YAXPAVCBaseEntity@@@Z
_TEXT	SEGMENT
$T1 = -116						; size = 12
$T2 = -104						; size = 12
_m_vecPushDir$3 = -28					; size = 12
_new_basevel$4 = -16					; size = 12
_pGround$5 = -4						; size = 4
_pEntity$ = 8						; size = 4
?SV_UpdateBaseVelocity@@YAXPAVCBaseEntity@@@Z PROC	; SV_UpdateBaseVelocity, COMDAT

; 1041 : {

	push	ebp
	mov	ebp, esp
	sub	esp, 116				; 00000074H
	push	ebx
	push	esi
	push	edi

; 1042 : 	if( pEntity->pev->flags & FL_ONGROUND )

	mov	eax, DWORD PTR _pEntity$[ebp]
	mov	ecx, DWORD PTR [eax+4]
	mov	edx, DWORD PTR [ecx+420]
	and	edx, 512				; 00000200H
	je	$LN4@SV_UpdateB

; 1043 : 	{
; 1044 : 		CBaseEntity *pGround = pEntity->GetGroundEntity();

	mov	ecx, DWORD PTR _pEntity$[ebp]
	call	?GetGroundEntity@CBaseEntity@@QAEPAV1@XZ ; CBaseEntity::GetGroundEntity
	mov	DWORD PTR _pGround$5[ebp], eax

; 1045 : 
; 1046 : 		if( pGround )

	cmp	DWORD PTR _pGround$5[ebp], 0
	je	$LN4@SV_UpdateB

; 1047 : 		{
; 1048 : 			// On conveyor belt that's moving?
; 1049 : 			if( pGround->pev->flags & FL_CONVEYOR )

	mov	eax, DWORD PTR _pGround$5[ebp]
	mov	ecx, DWORD PTR [eax+4]
	mov	edx, DWORD PTR [ecx+420]
	and	edx, 4
	je	$LN4@SV_UpdateB

; 1050 : 			{
; 1051 : 				Vector	new_basevel, m_vecPushDir;

	lea	ecx, DWORD PTR _new_basevel$4[ebp]
	call	??0Vector@@QAE@XZ			; Vector::Vector
	lea	ecx, DWORD PTR _m_vecPushDir$3[ebp]
	call	??0Vector@@QAE@XZ			; Vector::Vector

; 1052 : 
; 1053 : 				if( pGround->m_hParent != NULL )

	mov	ecx, DWORD PTR _pGround$5[ebp]
	add	ecx, 160				; 000000a0H
	call	??BEHANDLE@@QAEHXZ			; EHANDLE::operator int
	test	eax, eax
	je	SHORT $LN5@SV_UpdateB

; 1054 : 					m_vecPushDir = pGround->EntityToWorldTransform().VectorRotate( pGround->pev->movedir );

	mov	eax, DWORD PTR _pGround$5[ebp]
	mov	ecx, DWORD PTR [eax+4]
	add	ecx, 68					; 00000044H
	push	ecx
	lea	edx, DWORD PTR $T2[ebp]
	push	edx
	mov	ecx, DWORD PTR _pGround$5[ebp]
	call	?EntityToWorldTransform@CBaseEntity@@QAEAAVmatrix4x4@@XZ ; CBaseEntity::EntityToWorldTransform
	mov	ecx, eax
	call	?VectorRotate@matrix4x4@@QBE?AVVector@@ABV2@@Z ; matrix4x4::VectorRotate
	mov	ecx, DWORD PTR [eax]
	mov	DWORD PTR _m_vecPushDir$3[ebp], ecx
	mov	edx, DWORD PTR [eax+4]
	mov	DWORD PTR _m_vecPushDir$3[ebp+4], edx
	mov	eax, DWORD PTR [eax+8]
	mov	DWORD PTR _m_vecPushDir$3[ebp+8], eax
	jmp	SHORT $LN6@SV_UpdateB
$LN5@SV_UpdateB:

; 1055 : 				else m_vecPushDir = pGround->pev->movedir;

	mov	eax, DWORD PTR _pGround$5[ebp]
	mov	ecx, DWORD PTR [eax+4]
	add	ecx, 68					; 00000044H
	mov	edx, DWORD PTR [ecx]
	mov	DWORD PTR _m_vecPushDir$3[ebp], edx
	mov	eax, DWORD PTR [ecx+4]
	mov	DWORD PTR _m_vecPushDir$3[ebp+4], eax
	mov	ecx, DWORD PTR [ecx+8]
	mov	DWORD PTR _m_vecPushDir$3[ebp+8], ecx
$LN6@SV_UpdateB:

; 1056 : 
; 1057 : 				new_basevel = m_vecPushDir * pGround->pev->speed;

	mov	eax, DWORD PTR _pGround$5[ebp]
	mov	ecx, DWORD PTR [eax+4]
	push	ecx
	movss	xmm0, DWORD PTR [ecx+504]
	movss	DWORD PTR [esp], xmm0
	lea	edx, DWORD PTR $T1[ebp]
	push	edx
	lea	ecx, DWORD PTR _m_vecPushDir$3[ebp]
	call	??DVector@@QBE?AV0@M@Z			; Vector::operator*
	mov	ecx, DWORD PTR [eax]
	mov	DWORD PTR _new_basevel$4[ebp], ecx
	mov	edx, DWORD PTR [eax+4]
	mov	DWORD PTR _new_basevel$4[ebp+4], edx
	mov	eax, DWORD PTR [eax+8]
	mov	DWORD PTR _new_basevel$4[ebp+8], eax

; 1058 : 				if( pEntity->pev->flags & FL_BASEVELOCITY )

	mov	eax, DWORD PTR _pEntity$[ebp]
	mov	ecx, DWORD PTR [eax+4]
	mov	edx, DWORD PTR [ecx+420]
	and	edx, 4194304				; 00400000H
	je	SHORT $LN7@SV_UpdateB

; 1059 : 					new_basevel += pEntity->GetBaseVelocity();

	mov	ecx, DWORD PTR _pEntity$[ebp]
	call	?GetBaseVelocity@CBaseEntity@@QBEABVVector@@XZ ; CBaseEntity::GetBaseVelocity
	push	eax
	lea	ecx, DWORD PTR _new_basevel$4[ebp]
	call	??YVector@@QAEAAV0@ABV0@@Z		; Vector::operator+=
$LN7@SV_UpdateB:

; 1060 : 
; 1061 : 				pEntity->pev->flags |= FL_BASEVELOCITY;

	mov	eax, DWORD PTR _pEntity$[ebp]
	mov	ecx, DWORD PTR [eax+4]
	mov	edx, DWORD PTR [ecx+420]
	or	edx, 4194304				; 00400000H
	mov	eax, DWORD PTR _pEntity$[ebp]
	mov	ecx, DWORD PTR [eax+4]
	mov	DWORD PTR [ecx+420], edx

; 1062 : 				pEntity->pev->basevelocity = new_basevel;

	mov	eax, DWORD PTR _pEntity$[ebp]
	mov	ecx, DWORD PTR [eax+4]
	add	ecx, 44					; 0000002cH
	mov	edx, DWORD PTR _new_basevel$4[ebp]
	mov	DWORD PTR [ecx], edx
	mov	eax, DWORD PTR _new_basevel$4[ebp+4]
	mov	DWORD PTR [ecx+4], eax
	mov	edx, DWORD PTR _new_basevel$4[ebp+8]
	mov	DWORD PTR [ecx+8], edx
$LN4@SV_UpdateB:

; 1063 : 			}
; 1064 : 		}
; 1065 : 	}
; 1066 : }

	pop	edi
	pop	esi
	pop	ebx
	mov	esp, ebp
	pop	ebp
	ret	0
?SV_UpdateBaseVelocity@@YAXPAVCBaseEntity@@@Z ENDP	; SV_UpdateBaseVelocity
_TEXT	ENDS
; Function compile flags: /Odtp /ZI
; File d:\!diffusion 2020\source code 2022\client-server\server\physics\physic.cpp
;	COMDAT ?SV_TestEntityPosition@@YAHPAVCBaseEntity@@0@Z
_TEXT	SEGMENT
$T1 = -172						; size = 12
$T2 = -160						; size = 12
$T3 = -148						; size = 12
$T4 = -136						; size = 12
_pHit$5 = -60						; size = 4
_trace$ = -56						; size = 56
_pEntity$ = 8						; size = 4
_pBlocker$ = 12						; size = 4
?SV_TestEntityPosition@@YAHPAVCBaseEntity@@0@Z PROC	; SV_TestEntityPosition, COMDAT

; 1146 : {

	push	ebp
	mov	ebp, esp
	sub	esp, 172				; 000000acH
	push	ebx
	push	esi
	push	edi

; 1147 : 	TraceResult trace;

	lea	ecx, DWORD PTR _trace$[ebp]
	call	??0gametrace_s@@QAE@XZ

; 1148 : 
; 1149 : 	if( pEntity->IsPlayer( ))

	mov	eax, DWORD PTR _pEntity$[ebp]
	mov	edx, DWORD PTR [eax]
	mov	ecx, DWORD PTR _pEntity$[ebp]
	mov	eax, DWORD PTR [edx+220]
	call	eax
	test	eax, eax
	je	$LN4@SV_TestEnt

; 1150 : 	{
; 1151 : 		// to avoid falling through tracktrain update client mins\maxs here
; 1152 : 		if( pEntity->pev->flags & FL_DUCKING ) 

	mov	eax, DWORD PTR _pEntity$[ebp]
	mov	ecx, DWORD PTR [eax+4]
	mov	edx, DWORD PTR [ecx+420]
	and	edx, 16384				; 00004000H
	je	SHORT $LN3@SV_TestEnt

; 1153 : 			UTIL_SetSize( pEntity->pev, VEC_DUCK_HULL_MIN, VEC_DUCK_HULL_MAX );

	push	ecx
	movss	xmm0, DWORD PTR __real@41900000
	movss	DWORD PTR [esp], xmm0
	push	ecx
	movss	xmm0, DWORD PTR __real@41800000
	movss	DWORD PTR [esp], xmm0
	push	ecx
	movss	xmm0, DWORD PTR __real@41800000
	movss	DWORD PTR [esp], xmm0
	lea	ecx, DWORD PTR $T4[ebp]
	call	??0Vector@@QAE@MMM@Z			; Vector::Vector
	push	eax
	push	ecx
	movss	xmm0, DWORD PTR __real@c1900000
	movss	DWORD PTR [esp], xmm0
	push	ecx
	movss	xmm0, DWORD PTR __real@c1800000
	movss	DWORD PTR [esp], xmm0
	push	ecx
	movss	xmm0, DWORD PTR __real@c1800000
	movss	DWORD PTR [esp], xmm0
	lea	ecx, DWORD PTR $T3[ebp]
	call	??0Vector@@QAE@MMM@Z			; Vector::Vector
	push	eax
	mov	eax, DWORD PTR _pEntity$[ebp]
	mov	ecx, DWORD PTR [eax+4]
	push	ecx
	call	?UTIL_SetSize@@YAXPAUentvars_s@@ABVVector@@1@Z ; UTIL_SetSize
	add	esp, 12					; 0000000cH
	jmp	SHORT $LN4@SV_TestEnt
$LN3@SV_TestEnt:

; 1154 : 		else UTIL_SetSize( pEntity->pev, VEC_HULL_MIN, VEC_HULL_MAX );

	push	ecx
	movss	xmm0, DWORD PTR __real@42100000
	movss	DWORD PTR [esp], xmm0
	push	ecx
	movss	xmm0, DWORD PTR __real@41800000
	movss	DWORD PTR [esp], xmm0
	push	ecx
	movss	xmm0, DWORD PTR __real@41800000
	movss	DWORD PTR [esp], xmm0
	lea	ecx, DWORD PTR $T2[ebp]
	call	??0Vector@@QAE@MMM@Z			; Vector::Vector
	push	eax
	push	ecx
	movss	xmm0, DWORD PTR __real@c2100000
	movss	DWORD PTR [esp], xmm0
	push	ecx
	movss	xmm0, DWORD PTR __real@c1800000
	movss	DWORD PTR [esp], xmm0
	push	ecx
	movss	xmm0, DWORD PTR __real@c1800000
	movss	DWORD PTR [esp], xmm0
	lea	ecx, DWORD PTR $T1[ebp]
	call	??0Vector@@QAE@MMM@Z			; Vector::Vector
	push	eax
	mov	eax, DWORD PTR _pEntity$[ebp]
	mov	ecx, DWORD PTR [eax+4]
	push	ecx
	call	?UTIL_SetSize@@YAXPAUentvars_s@@ABVVector@@1@Z ; UTIL_SetSize
	add	esp, 12					; 0000000cH
$LN4@SV_TestEnt:

; 1155 : 	}
; 1156 : 
; 1157 : 	gpGlobals->trace_flags = FTRACE_SIMPLEBOX;

	mov	eax, DWORD PTR ?gpGlobals@@3PAUglobalvars_t@@A ; gpGlobals
	mov	DWORD PTR [eax+132], 1

; 1158 : 	TRACE_MONSTER_HULL( pEntity->edict(), pEntity->GetAbsOrigin(), pEntity->GetAbsOrigin(), dont_ignore_monsters, pEntity->edict(), &trace );

	lea	eax, DWORD PTR _trace$[ebp]
	push	eax
	mov	ecx, DWORD PTR _pEntity$[ebp]
	call	?edict@CBaseEntity@@QAEPAUedict_s@@XZ	; CBaseEntity::edict
	push	eax
	push	0
	mov	ecx, DWORD PTR _pEntity$[ebp]
	call	?GetAbsOrigin@CBaseEntity@@QBEABVVector@@XZ ; CBaseEntity::GetAbsOrigin
	mov	ecx, eax
	call	??BVector@@QBEPBMXZ			; Vector::operator float const *
	push	eax
	mov	ecx, DWORD PTR _pEntity$[ebp]
	call	?GetAbsOrigin@CBaseEntity@@QBEABVVector@@XZ ; CBaseEntity::GetAbsOrigin
	mov	ecx, eax
	call	??BVector@@QBEPBMXZ			; Vector::operator float const *
	push	eax
	mov	ecx, DWORD PTR _pEntity$[ebp]
	call	?edict@CBaseEntity@@QAEPAUedict_s@@XZ	; CBaseEntity::edict
	push	eax
	call	DWORD PTR ?g_engfuncs@@3Uenginefuncs_s@@A+132
	add	esp, 24					; 00000018H

; 1159 : 
; 1160 : 	if( pBlocker && trace.pHit )

	cmp	DWORD PTR _pBlocker$[ebp], 0
	je	SHORT $LN5@SV_TestEnt
	cmp	DWORD PTR _trace$[ebp+48], 0
	je	SHORT $LN5@SV_TestEnt

; 1161 : 	{
; 1162 : 		CBaseEntity *pHit = CBaseEntity::Instance( trace.pHit );

	mov	eax, DWORD PTR _trace$[ebp+48]
	push	eax
	call	?Instance@CBaseEntity@@SAPAV1@PAUedict_s@@@Z ; CBaseEntity::Instance
	add	esp, 4
	mov	DWORD PTR _pHit$5[ebp], eax

; 1163 : 		if( pHit->pev->movetype == MOVETYPE_PUSH || pHit == pBlocker )

	mov	eax, DWORD PTR _pHit$5[ebp]
	mov	ecx, DWORD PTR [eax+4]
	cmp	DWORD PTR [ecx+264], 7
	je	SHORT $LN7@SV_TestEnt
	mov	eax, DWORD PTR _pHit$5[ebp]
	cmp	eax, DWORD PTR _pBlocker$[ebp]
	jne	SHORT $LN6@SV_TestEnt
$LN7@SV_TestEnt:

; 1164 : 			return trace.fStartSolid;

	mov	eax, DWORD PTR _trace$[ebp+4]
	jmp	SHORT $LN1@SV_TestEnt
$LN6@SV_TestEnt:

; 1165 : 		return FALSE;

	xor	eax, eax
	jmp	SHORT $LN1@SV_TestEnt
$LN5@SV_TestEnt:

; 1166 : 	}
; 1167 : 
; 1168 : 	return trace.fStartSolid;

	mov	eax, DWORD PTR _trace$[ebp+4]
$LN1@SV_TestEnt:

; 1169 : }

	pop	edi
	pop	esi
	pop	ebx
	mov	esp, ebp
	pop	ebp
	ret	0
?SV_TestEntityPosition@@YAHPAVCBaseEntity@@0@Z ENDP	; SV_TestEntityPosition
_TEXT	ENDS
; Function compile flags: /Odtp /ZI
; File d:\!diffusion 2020\source code 2022\client-server\server\physics\physic.cpp
;	COMDAT ?SV_Impact@@YAXPAVCBaseEntity@@0PAUgametrace_s@@@Z
_TEXT	SEGMENT
_pEntity1$ = 8						; size = 4
_pEntity2$ = 12						; size = 4
_trace$ = 16						; size = 4
?SV_Impact@@YAXPAVCBaseEntity@@0PAUgametrace_s@@@Z PROC	; SV_Impact, COMDAT

; 1108 : {

	push	ebp
	mov	ebp, esp
	sub	esp, 64					; 00000040H
	push	ebx
	push	esi
	push	edi

; 1109 : 	// get it from trace
; 1110 : 	if( !pEntity2 ) pEntity2 = CBaseEntity::Instance( trace->pHit );

	cmp	DWORD PTR _pEntity2$[ebp], 0
	jne	SHORT $LN2@SV_Impact
	mov	eax, DWORD PTR _trace$[ebp]
	mov	ecx, DWORD PTR [eax+48]
	push	ecx
	call	?Instance@CBaseEntity@@SAPAV1@PAUedict_s@@@Z ; CBaseEntity::Instance
	add	esp, 4
	mov	DWORD PTR _pEntity2$[ebp], eax
$LN2@SV_Impact:

; 1111 : 
; 1112 : 	gpGlobals->time = PHYSICS_TIME(); // ouch!

	call	DWORD PTR ?g_physfuncs@@3Userver_physics_api_s@@A+4
	mov	eax, DWORD PTR ?gpGlobals@@3PAUglobalvars_t@@A ; gpGlobals
	fstp	DWORD PTR [eax]

; 1113 : 
; 1114 : 	if(( pEntity1->pev->flags|pEntity2->pev->flags ) & FL_KILLME )

	mov	eax, DWORD PTR _pEntity1$[ebp]
	mov	ecx, DWORD PTR [eax+4]
	mov	edx, DWORD PTR _pEntity2$[ebp]
	mov	eax, DWORD PTR [edx+4]
	mov	ecx, DWORD PTR [ecx+420]
	or	ecx, DWORD PTR [eax+420]
	and	ecx, 1073741824				; 40000000H
	je	SHORT $LN3@SV_Impact

; 1115 : 		return;

	jmp	$LN1@SV_Impact
$LN3@SV_Impact:

; 1116 : 
; 1117 : 	// group trace support
; 1118 : 	if( pEntity1->pev->groupinfo && pEntity2->pev->groupinfo )

	mov	eax, DWORD PTR _pEntity1$[ebp]
	mov	ecx, DWORD PTR [eax+4]
	cmp	DWORD PTR [ecx+576], 0
	je	SHORT $LN5@SV_Impact
	mov	eax, DWORD PTR _pEntity2$[ebp]
	mov	ecx, DWORD PTR [eax+4]
	cmp	DWORD PTR [ecx+576], 0
	je	SHORT $LN5@SV_Impact

; 1119 : 	{
; 1120 : 		if(( g_groupop == 0 && !( pEntity1->pev->groupinfo & pEntity2->pev->groupinfo )) ||

	cmp	DWORD PTR ?g_groupop@@3HA, 0		; g_groupop
	jne	SHORT $LN7@SV_Impact
	mov	eax, DWORD PTR _pEntity1$[ebp]
	mov	ecx, DWORD PTR [eax+4]
	mov	edx, DWORD PTR _pEntity2$[ebp]
	mov	eax, DWORD PTR [edx+4]
	mov	ecx, DWORD PTR [ecx+576]
	and	ecx, DWORD PTR [eax+576]
	je	SHORT $LN6@SV_Impact
$LN7@SV_Impact:
	cmp	DWORD PTR ?g_groupop@@3HA, 1		; g_groupop
	jne	SHORT $LN5@SV_Impact
	mov	eax, DWORD PTR _pEntity1$[ebp]
	mov	ecx, DWORD PTR [eax+4]
	mov	edx, DWORD PTR _pEntity2$[ebp]
	mov	eax, DWORD PTR [edx+4]
	mov	ecx, DWORD PTR [ecx+576]
	and	ecx, DWORD PTR [eax+576]
	je	SHORT $LN5@SV_Impact
$LN6@SV_Impact:

; 1121 : 		   ( g_groupop == 1 && ( pEntity1->pev->groupinfo & pEntity2->pev->groupinfo )))
; 1122 : 			return;

	jmp	SHORT $LN1@SV_Impact
$LN5@SV_Impact:

; 1123 : 	}
; 1124 : 
; 1125 : 	if( pEntity1->pev->solid != SOLID_NOT )

	mov	eax, DWORD PTR _pEntity1$[ebp]
	mov	ecx, DWORD PTR [eax+4]
	cmp	DWORD PTR [ecx+268], 0
	je	SHORT $LN8@SV_Impact

; 1126 : 	{
; 1127 : 		UTIL_CopyTraceToGlobal( trace );

	mov	eax, DWORD PTR _trace$[ebp]
	push	eax
	call	?UTIL_CopyTraceToGlobal@@YAXPAUgametrace_s@@@Z ; UTIL_CopyTraceToGlobal
	add	esp, 4

; 1128 : 		DispatchTouch( pEntity1->edict(), pEntity2->edict());

	mov	ecx, DWORD PTR _pEntity2$[ebp]
	call	?edict@CBaseEntity@@QAEPAUedict_s@@XZ	; CBaseEntity::edict
	push	eax
	mov	ecx, DWORD PTR _pEntity1$[ebp]
	call	?edict@CBaseEntity@@QAEPAUedict_s@@XZ	; CBaseEntity::edict
	push	eax
	call	?DispatchTouch@@YAXPAUedict_s@@0@Z	; DispatchTouch
	add	esp, 8
$LN8@SV_Impact:

; 1129 : 	}
; 1130 : 
; 1131 : 	if( pEntity2->pev->solid != SOLID_NOT )

	mov	eax, DWORD PTR _pEntity2$[ebp]
	mov	ecx, DWORD PTR [eax+4]
	cmp	DWORD PTR [ecx+268], 0
	je	SHORT $LN9@SV_Impact

; 1132 : 	{
; 1133 : 		UTIL_CopyTraceToGlobal( trace );

	mov	eax, DWORD PTR _trace$[ebp]
	push	eax
	call	?UTIL_CopyTraceToGlobal@@YAXPAUgametrace_s@@@Z ; UTIL_CopyTraceToGlobal
	add	esp, 4

; 1134 : 		DispatchTouch( pEntity2->edict(), pEntity1->edict());

	mov	ecx, DWORD PTR _pEntity1$[ebp]
	call	?edict@CBaseEntity@@QAEPAUedict_s@@XZ	; CBaseEntity::edict
	push	eax
	mov	ecx, DWORD PTR _pEntity2$[ebp]
	call	?edict@CBaseEntity@@QAEPAUedict_s@@XZ	; CBaseEntity::edict
	push	eax
	call	?DispatchTouch@@YAXPAUedict_s@@0@Z	; DispatchTouch
	add	esp, 8
$LN9@SV_Impact:
$LN1@SV_Impact:

; 1135 : 	}
; 1136 : }

	pop	edi
	pop	esi
	pop	ebx
	mov	esp, ebp
	pop	ebp
	ret	0
?SV_Impact@@YAXPAVCBaseEntity@@0PAUgametrace_s@@@Z ENDP	; SV_Impact
_TEXT	ENDS
; Function compile flags: /Odtp /ZI
; File d:\!diffusion 2020\source code 2022\client-server\server\util.h
;	COMDAT ?EMIT_SOUND@@YAXPAUedict_s@@HPBDMM@Z
_TEXT	SEGMENT
_entity$ = 8						; size = 4
_channel$ = 12						; size = 4
_sample$ = 16						; size = 4
_volume$ = 20						; size = 4
_attenuation$ = 24					; size = 4
?EMIT_SOUND@@YAXPAUedict_s@@HPBDMM@Z PROC		; EMIT_SOUND, COMDAT

; 622  : {

	push	ebp
	mov	ebp, esp
	sub	esp, 64					; 00000040H
	push	ebx
	push	esi
	push	edi

; 623  : 	EMIT_SOUND_DYN( entity, channel, sample, volume, attenuation, 0, PITCH_NORM );

	push	100					; 00000064H
	push	0
	push	ecx
	movss	xmm0, DWORD PTR _attenuation$[ebp]
	movss	DWORD PTR [esp], xmm0
	push	ecx
	movss	xmm0, DWORD PTR _volume$[ebp]
	movss	DWORD PTR [esp], xmm0
	mov	eax, DWORD PTR _sample$[ebp]
	push	eax
	mov	ecx, DWORD PTR _channel$[ebp]
	push	ecx
	mov	edx, DWORD PTR _entity$[ebp]
	push	edx
	call	?EMIT_SOUND_DYN@@YAXPAUedict_s@@HPBDMMHH@Z ; EMIT_SOUND_DYN
	add	esp, 28					; 0000001cH

; 624  : }

	pop	edi
	pop	esi
	pop	ebx
	mov	esp, ebp
	pop	ebp
	ret	0
?EMIT_SOUND@@YAXPAUedict_s@@HPBDMM@Z ENDP		; EMIT_SOUND
_TEXT	ENDS
; Function compile flags: /Odtp /ZI
; File d:\!diffusion 2020\source code 2022\client-server\server\util.h
;	COMDAT ?FClassnameIs@@YAHPAUentvars_s@@PBD@Z
_TEXT	SEGMENT
_pev$ = 8						; size = 4
_szClassname$ = 12					; size = 4
?FClassnameIs@@YAHPAUentvars_s@@PBD@Z PROC		; FClassnameIs, COMDAT

; 304  : {

	push	ebp
	mov	ebp, esp
	sub	esp, 64					; 00000040H
	push	ebx
	push	esi
	push	edi

; 305  : 	if( FNullEnt( pev )) return FALSE;

	mov	eax, DWORD PTR _pev$[ebp]
	push	eax
	call	?FNullEnt@@YAHPAUentvars_s@@@Z		; FNullEnt
	add	esp, 4
	test	eax, eax
	je	SHORT $LN2@FClassname
	xor	eax, eax
	jmp	SHORT $LN1@FClassname
$LN2@FClassname:

; 306  : 	return FStrEq( STRING( pev->classname ), szClassname );

	mov	eax, DWORD PTR _szClassname$[ebp]
	push	eax
	mov	ecx, DWORD PTR _pev$[ebp]
	mov	edx, DWORD PTR [ecx]
	push	edx
	call	DWORD PTR ?g_engfuncs@@3Uenginefuncs_s@@A+264
	add	esp, 4
	push	eax
	call	?FStrEq@@YAHPBD0@Z			; FStrEq
	add	esp, 8
$LN1@FClassname:

; 307  : }

	pop	edi
	pop	esi
	pop	ebx
	mov	esp, ebp
	pop	ebp
	ret	0
?FClassnameIs@@YAHPAUentvars_s@@PBD@Z ENDP		; FClassnameIs
_TEXT	ENDS
; Function compile flags: /Odtp /ZI
; File d:\!diffusion 2020\source code 2022\client-server\server\util.h
;	COMDAT ?FStrEq@@YAHPBD0@Z
_TEXT	SEGMENT
tv69 = -68						; size = 4
_sz1$ = 8						; size = 4
_sz2$ = 12						; size = 4
?FStrEq@@YAHPBD0@Z PROC					; FStrEq, COMDAT

; 287  : {

	push	ebp
	mov	ebp, esp
	sub	esp, 68					; 00000044H
	push	ebx
	push	esi
	push	edi

; 288  : 	return (Q_strcmp( sz1, sz2 ) == 0);

	push	99999					; 0001869fH
	mov	eax, DWORD PTR _sz2$[ebp]
	push	eax
	mov	ecx, DWORD PTR _sz1$[ebp]
	push	ecx
	call	?Q_strncmp@@YAHPBD0H@Z			; Q_strncmp
	add	esp, 12					; 0000000cH
	test	eax, eax
	jne	SHORT $LN3@FStrEq
	mov	DWORD PTR tv69[ebp], 1
	jmp	SHORT $LN4@FStrEq
$LN3@FStrEq:
	mov	DWORD PTR tv69[ebp], 0
$LN4@FStrEq:
	mov	eax, DWORD PTR tv69[ebp]

; 289  : }

	pop	edi
	pop	esi
	pop	ebx
	mov	esp, ebp
	pop	ebp
	ret	0
?FStrEq@@YAHPBD0@Z ENDP					; FStrEq
_TEXT	ENDS
; Function compile flags: /Odtp /ZI
; File d:\!diffusion 2020\source code 2022\client-server\server\util.h
;	COMDAT ?FNullEnt@@YAHPAUentvars_s@@@Z
_TEXT	SEGMENT
tv70 = -68						; size = 4
_pev$ = 8						; size = 4
?FNullEnt@@YAHPAUentvars_s@@@Z PROC			; FNullEnt, COMDAT

; 197  : inline BOOL FNullEnt(entvars_t* pev)				{ return pev == NULL || FNullEnt(OFFSET(pev)); }

	push	ebp
	mov	ebp, esp
	sub	esp, 68					; 00000044H
	push	ebx
	push	esi
	push	edi
	cmp	DWORD PTR _pev$[ebp], 0
	je	SHORT $LN3@FNullEnt
	mov	eax, DWORD PTR _pev$[ebp]
	push	eax
	call	?OFFSET@@YAHPAUentvars_s@@@Z		; OFFSET
	add	esp, 4
	push	eax
	call	?FNullEnt@@YAHH@Z			; FNullEnt
	add	esp, 4
	test	eax, eax
	jne	SHORT $LN3@FNullEnt
	mov	DWORD PTR tv70[ebp], 0
	jmp	SHORT $LN4@FNullEnt
$LN3@FNullEnt:
	mov	DWORD PTR tv70[ebp], 1
$LN4@FNullEnt:
	mov	eax, DWORD PTR tv70[ebp]
	pop	edi
	pop	esi
	pop	ebx
	mov	esp, ebp
	pop	ebp
	ret	0
?FNullEnt@@YAHPAUentvars_s@@@Z ENDP			; FNullEnt
_TEXT	ENDS
; Function compile flags: /Odtp /ZI
; File d:\!diffusion 2020\source code 2022\client-server\server\util.h
;	COMDAT ?FNullEnt@@YAHH@Z
_TEXT	SEGMENT
tv65 = -68						; size = 4
_eoffset$ = 8						; size = 4
?FNullEnt@@YAHH@Z PROC					; FNullEnt, COMDAT

; 195  : inline BOOL FNullEnt(EOFFSET eoffset)			{ return eoffset == 0; }

	push	ebp
	mov	ebp, esp
	sub	esp, 68					; 00000044H
	push	ebx
	push	esi
	push	edi
	cmp	DWORD PTR _eoffset$[ebp], 0
	jne	SHORT $LN3@FNullEnt
	mov	DWORD PTR tv65[ebp], 1
	jmp	SHORT $LN4@FNullEnt
$LN3@FNullEnt:
	mov	DWORD PTR tv65[ebp], 0
$LN4@FNullEnt:
	mov	eax, DWORD PTR tv65[ebp]
	pop	edi
	pop	esi
	pop	ebx
	mov	esp, ebp
	pop	ebp
	ret	0
?FNullEnt@@YAHH@Z ENDP					; FNullEnt
_TEXT	ENDS
; Function compile flags: /Odtp /ZI
; File d:\!diffusion 2020\source code 2022\client-server\server\util.h
;	COMDAT ?INDEXENT@@YAPAUedict_s@@H@Z
_TEXT	SEGMENT
_iEdictNum$ = 8						; size = 4
?INDEXENT@@YAPAUedict_s@@H@Z PROC			; INDEXENT, COMDAT

; 188  : inline edict_t *INDEXENT( int iEdictNum ) { return (*g_engfuncs.pfnPEntityOfEntIndexAllEntities)(iEdictNum); }

	push	ebp
	mov	ebp, esp
	sub	esp, 64					; 00000040H
	push	ebx
	push	esi
	push	edi
	mov	eax, DWORD PTR _iEdictNum$[ebp]
	push	eax
	call	DWORD PTR ?g_engfuncs@@3Uenginefuncs_s@@A+632
	add	esp, 4
	pop	edi
	pop	esi
	pop	ebx
	mov	esp, ebp
	pop	ebp
	ret	0
?INDEXENT@@YAPAUedict_s@@H@Z ENDP			; INDEXENT
_TEXT	ENDS
; Function compile flags: /Odtp /ZI
; File d:\!diffusion 2020\source code 2022\client-server\server\util.h
;	COMDAT ?ENTINDEX@@YAHPAUedict_s@@@Z
_TEXT	SEGMENT
_pEdict$ = 8						; size = 4
?ENTINDEX@@YAHPAUedict_s@@@Z PROC			; ENTINDEX, COMDAT

; 186  : inline int	  ENTINDEX(edict_t *pEdict)			{ return (*g_engfuncs.pfnIndexOfEdict)(pEdict); }

	push	ebp
	mov	ebp, esp
	sub	esp, 64					; 00000040H
	push	ebx
	push	esi
	push	edi
	mov	eax, DWORD PTR _pEdict$[ebp]
	push	eax
	call	DWORD PTR ?g_engfuncs@@3Uenginefuncs_s@@A+284
	add	esp, 4
	pop	edi
	pop	esi
	pop	ebx
	mov	esp, ebp
	pop	ebp
	ret	0
?ENTINDEX@@YAHPAUedict_s@@@Z ENDP			; ENTINDEX
_TEXT	ENDS
; Function compile flags: /Odtp /ZI
; File d:\!diffusion 2020\source code 2022\client-server\server\util.h
;	COMDAT ?OFFSET@@YAHPAUentvars_s@@@Z
_TEXT	SEGMENT
_pev$ = 8						; size = 4
?OFFSET@@YAHPAUentvars_s@@@Z PROC			; OFFSET, COMDAT

; 168  : { 

	push	ebp
	mov	ebp, esp
	sub	esp, 64					; 00000040H
	push	ebx
	push	esi
	push	edi

; 169  : #if _DEBUG
; 170  : 	if ( !pev )

	cmp	DWORD PTR _pev$[ebp], 0
	jne	SHORT $LN2@OFFSET

; 171  : 		ALERT( at_error, "Bad pev in OFFSET()\n" );

	push	OFFSET ??_C@_0BF@DOONGEFO@Bad?5pev?5in?5OFFSET?$CI?$CJ?6?$AA@
	push	4
	call	DWORD PTR ?g_engfuncs@@3Uenginefuncs_s@@A+244
	add	esp, 8
$LN2@OFFSET:

; 172  : #endif
; 173  : 	return OFFSET(ENT(pev)); 

	mov	eax, DWORD PTR _pev$[ebp]
	push	eax
	call	?ENT@@YAPAUedict_s@@PBUentvars_s@@@Z	; ENT
	add	esp, 4
	push	eax
	call	?OFFSET@@YAHPBUedict_s@@@Z		; OFFSET
	add	esp, 4

; 174  : }

	pop	edi
	pop	esi
	pop	ebx
	mov	esp, ebp
	pop	ebp
	ret	0
?OFFSET@@YAHPAUentvars_s@@@Z ENDP			; OFFSET
_TEXT	ENDS
; Function compile flags: /Odtp /ZI
; File d:\!diffusion 2020\source code 2022\client-server\server\util.h
;	COMDAT ?OFFSET@@YAHPBUedict_s@@@Z
_TEXT	SEGMENT
_pent$ = 8						; size = 4
?OFFSET@@YAHPBUedict_s@@@Z PROC				; OFFSET, COMDAT

; 160  : { 

	push	ebp
	mov	ebp, esp
	sub	esp, 64					; 00000040H
	push	ebx
	push	esi
	push	edi

; 161  : #if _DEBUG
; 162  : 	if ( !pent )

	cmp	DWORD PTR _pent$[ebp], 0
	jne	SHORT $LN2@OFFSET

; 163  : 		ALERT( at_error, "Bad ent in OFFSET()\n" );

	push	OFFSET ??_C@_0BF@CPEPILID@Bad?5ent?5in?5OFFSET?$CI?$CJ?6?$AA@
	push	4
	call	DWORD PTR ?g_engfuncs@@3Uenginefuncs_s@@A+244
	add	esp, 8
$LN2@OFFSET:

; 164  : #endif
; 165  : 	return (*g_engfuncs.pfnEntOffsetOfPEntity)(pent); 

	mov	eax, DWORD PTR _pent$[ebp]
	push	eax
	call	DWORD PTR ?g_engfuncs@@3Uenginefuncs_s@@A+280
	add	esp, 4

; 166  : }

	pop	edi
	pop	esi
	pop	ebx
	mov	esp, ebp
	pop	ebp
	ret	0
?OFFSET@@YAHPBUedict_s@@@Z ENDP				; OFFSET
_TEXT	ENDS
; Function compile flags: /Odtp /ZI
; File d:\!diffusion 2020\source code 2022\client-server\server\util.h
;	COMDAT ?ENT@@YAPAUedict_s@@H@Z
_TEXT	SEGMENT
_eoffset$ = 8						; size = 4
?ENT@@YAPAUedict_s@@H@Z PROC				; ENT, COMDAT

; 157  : inline edict_t *ENT(EOFFSET eoffset)			{ return (*g_engfuncs.pfnPEntityOfEntOffset)(eoffset); }

	push	ebp
	mov	ebp, esp
	sub	esp, 64					; 00000040H
	push	ebx
	push	esi
	push	edi
	mov	eax, DWORD PTR _eoffset$[ebp]
	push	eax
	call	DWORD PTR ?g_engfuncs@@3Uenginefuncs_s@@A+276
	add	esp, 4
	pop	edi
	pop	esi
	pop	ebx
	mov	esp, ebp
	pop	ebp
	ret	0
?ENT@@YAPAUedict_s@@H@Z ENDP				; ENT
_TEXT	ENDS
; Function compile flags: /Odtp /ZI
; File d:\!diffusion 2020\source code 2022\client-server\server\util.h
;	COMDAT ?ENT@@YAPAUedict_s@@PBUentvars_s@@@Z
_TEXT	SEGMENT
_pev$ = 8						; size = 4
?ENT@@YAPAUedict_s@@PBUentvars_s@@@Z PROC		; ENT, COMDAT

; 151  : 	inline edict_t *ENT(const entvars_t *pev)	{ return DBG_EntOfVars(pev); }

	push	ebp
	mov	ebp, esp
	sub	esp, 64					; 00000040H
	push	ebx
	push	esi
	push	edi
	mov	eax, DWORD PTR _pev$[ebp]
	push	eax
	call	?DBG_EntOfVars@@YAPAUedict_s@@PBUentvars_s@@@Z ; DBG_EntOfVars
	add	esp, 4
	pop	edi
	pop	esi
	pop	ebx
	mov	esp, ebp
	pop	ebp
	ret	0
?ENT@@YAPAUedict_s@@PBUentvars_s@@@Z ENDP		; ENT
_TEXT	ENDS
; Function compile flags: /Odtp /ZI
; File d:\!diffusion 2020\source code 2022\client-server\game_shared\utlmemory.h
;	COMDAT ?UtlMemory_CalcNewAllocationCount@@YAHHHHH@Z
_TEXT	SEGMENT
_nAllocationCount$ = 8					; size = 4
_nGrowSize$ = 12					; size = 4
_nNewSize$ = 16						; size = 4
_nBytesItem$ = 20					; size = 4
?UtlMemory_CalcNewAllocationCount@@YAHHHHH@Z PROC	; UtlMemory_CalcNewAllocationCount, COMDAT

; 528  : {

	push	ebp
	mov	ebp, esp
	sub	esp, 64					; 00000040H
	push	ebx
	push	esi
	push	edi

; 529  : 	if ( nGrowSize )

	cmp	DWORD PTR _nGrowSize$[ebp], 0
	je	SHORT $LN4@UtlMemory_

; 530  : 	{ 
; 531  : 		nAllocationCount = ((1 + ((nNewSize - 1) / nGrowSize)) * nGrowSize);

	mov	eax, DWORD PTR _nNewSize$[ebp]
	sub	eax, 1
	cdq
	idiv	DWORD PTR _nGrowSize$[ebp]
	add	eax, 1
	imul	eax, DWORD PTR _nGrowSize$[ebp]
	mov	DWORD PTR _nAllocationCount$[ebp], eax

; 532  : 	}
; 533  : 	else 

	jmp	SHORT $LN5@UtlMemory_
$LN4@UtlMemory_:

; 534  : 	{
; 535  : 		if ( !nAllocationCount )

	cmp	DWORD PTR _nAllocationCount$[ebp], 0
	jne	SHORT $LN2@UtlMemory_

; 536  : 		{
; 537  : 			// Compute an allocation which is at least as big as a cache line...
; 538  : 			nAllocationCount = (31 + nBytesItem) / nBytesItem;

	mov	eax, DWORD PTR _nBytesItem$[ebp]
	add	eax, 31					; 0000001fH
	cdq
	idiv	DWORD PTR _nBytesItem$[ebp]
	mov	DWORD PTR _nAllocationCount$[ebp], eax
$LN2@UtlMemory_:

; 539  : 		}
; 540  : 
; 541  : 		while (nAllocationCount < nNewSize)

	mov	eax, DWORD PTR _nAllocationCount$[ebp]
	cmp	eax, DWORD PTR _nNewSize$[ebp]
	jge	SHORT $LN5@UtlMemory_

; 542  : 		{
; 543  : #ifndef _X360
; 544  : 			nAllocationCount *= 2;

	mov	eax, DWORD PTR _nAllocationCount$[ebp]
	shl	eax, 1
	mov	DWORD PTR _nAllocationCount$[ebp], eax

; 545  : #else
; 546  : 			int nNewAllocationCount = ( nAllocationCount * 9) / 8; // 12.5 %
; 547  : 			if ( nNewAllocationCount > nAllocationCount )
; 548  : 				nAllocationCount = nNewAllocationCount;
; 549  : 			else
; 550  : 				nAllocationCount *= 2;
; 551  : #endif
; 552  : 		}

	jmp	SHORT $LN2@UtlMemory_
$LN5@UtlMemory_:

; 553  : 	}
; 554  : 
; 555  : 	return nAllocationCount;

	mov	eax, DWORD PTR _nAllocationCount$[ebp]

; 556  : }

	pop	edi
	pop	esi
	pop	ebx
	mov	esp, ebp
	pop	ebp
	ret	0
?UtlMemory_CalcNewAllocationCount@@YAHHHHH@Z ENDP	; UtlMemory_CalcNewAllocationCount
_TEXT	ENDS
; Function compile flags: /Odtp /ZI
; File c:\program files (x86)\microsoft visual studio 14.0\vc\include\vcruntime_new.h
;	COMDAT ??3@YAXPAX0@Z
_TEXT	SEGMENT
___formal$ = 8						; size = 4
___formal$ = 12						; size = 4
??3@YAXPAX0@Z PROC					; operator delete, COMDAT

; 93   :     {

	push	ebp
	mov	ebp, esp
	sub	esp, 64					; 00000040H
	push	ebx
	push	esi
	push	edi

; 94   :         return;
; 95   :     }

	pop	edi
	pop	esi
	pop	ebx
	mov	esp, ebp
	pop	ebp
	ret	0
??3@YAXPAX0@Z ENDP					; operator delete
_TEXT	ENDS
; Function compile flags: /Odtp /ZI
; File c:\program files (x86)\microsoft visual studio 14.0\vc\include\vcruntime_new.h
;	COMDAT ??2@YAPAXIPAX@Z
_TEXT	SEGMENT
__Size$ = 8						; size = 4
__Where$ = 12						; size = 4
??2@YAPAXIPAX@Z PROC					; operator new, COMDAT

; 87   :     {

	push	ebp
	mov	ebp, esp
	sub	esp, 64					; 00000040H
	push	ebx
	push	esi
	push	edi

; 88   :         (void)_Size;
; 89   :         return _Where;

	mov	eax, DWORD PTR __Where$[ebp]

; 90   :     }

	pop	edi
	pop	esi
	pop	ebx
	mov	esp, ebp
	pop	ebp
	ret	0
??2@YAPAXIPAX@Z ENDP					; operator new
_TEXT	ENDS
; Function compile flags: /Odtp /ZI
; File c:\program files (x86)\microsoft visual studio 14.0\vc\include\cmath
;	COMDAT ?sqrt@@YAMM@Z
_TEXT	SEGMENT
__Xx$ = 8						; size = 4
?sqrt@@YAMM@Z PROC					; sqrt, COMDAT

; 304  : 	{

	push	ebp
	mov	ebp, esp
	sub	esp, 64					; 00000040H
	push	ebx
	push	esi
	push	edi

; 305  : 	return (_CSTD sqrtf(_Xx));

	push	ecx
	movss	xmm0, DWORD PTR __Xx$[ebp]
	movss	DWORD PTR [esp], xmm0
	call	_sqrtf
	add	esp, 4

; 306  : 	}

	pop	edi
	pop	esi
	pop	ebx
	mov	esp, ebp
	pop	ebp
	ret	0
?sqrt@@YAMM@Z ENDP					; sqrt
_TEXT	ENDS
; Function compile flags: /Odtp /ZI
; File c:\program files (x86)\microsoft visual studio 14.0\vc\include\cmath
;	COMDAT ?fabs@@YAMM@Z
_TEXT	SEGMENT
__Xx$ = 8						; size = 4
?fabs@@YAMM@Z PROC					; fabs, COMDAT

; 122  : 	{

	push	ebp
	mov	ebp, esp
	sub	esp, 64					; 00000040H
	push	ebx
	push	esi
	push	edi

; 123  : 	return (_CSTD fabsf(_Xx));

	push	ecx
	movss	xmm0, DWORD PTR __Xx$[ebp]
	movss	DWORD PTR [esp], xmm0
	call	_fabsf
	add	esp, 4

; 124  : 	}

	pop	edi
	pop	esi
	pop	ebx
	mov	esp, ebp
	pop	ebp
	ret	0
?fabs@@YAMM@Z ENDP					; fabs
_TEXT	ENDS
; Function compile flags: /Odtp /ZI
; File d:\!diffusion 2020\source code 2022\client-server\server\enginecallback.h
;	COMDAT ?GET_PRIVATE@@YAPAXPAUedict_s@@@Z
_TEXT	SEGMENT
_pent$ = 8						; size = 4
?GET_PRIVATE@@YAPAXPAUedict_s@@@Z PROC			; GET_PRIVATE, COMDAT

; 106  : {

	push	ebp
	mov	ebp, esp
	sub	esp, 64					; 00000040H
	push	ebx
	push	esi
	push	edi

; 107  : 	if ( pent )

	cmp	DWORD PTR _pent$[ebp], 0
	je	SHORT $LN2@GET_PRIVAT

; 108  : 		return pent->pvPrivateData;

	mov	eax, DWORD PTR _pent$[ebp]
	mov	eax, DWORD PTR [eax+124]
	jmp	SHORT $LN1@GET_PRIVAT
$LN2@GET_PRIVAT:

; 109  : 	return NULL;

	xor	eax, eax
$LN1@GET_PRIVAT:

; 110  : }

	pop	edi
	pop	esi
	pop	ebx
	mov	esp, ebp
	pop	ebp
	ret	0
?GET_PRIVATE@@YAPAXPAUedict_s@@@Z ENDP			; GET_PRIVATE
_TEXT	ENDS
; Function compile flags: /Odtp /ZI
;	COMDAT ??0gametrace_s@@QAE@$$QAU0@@Z
_TEXT	SEGMENT
_this$ = -4						; size = 4
___that$ = 8						; size = 4
??0gametrace_s@@QAE@$$QAU0@@Z PROC			; gametrace_s::gametrace_s, COMDAT
; _this$ = ecx
	push	ebp
	mov	ebp, esp
	sub	esp, 68					; 00000044H
	push	ebx
	push	esi
	push	edi
	mov	DWORD PTR _this$[ebp], ecx
	mov	eax, DWORD PTR _this$[ebp]
	mov	ecx, DWORD PTR ___that$[ebp]
	mov	edx, DWORD PTR [ecx]
	mov	DWORD PTR [eax], edx
	mov	eax, DWORD PTR _this$[ebp]
	mov	ecx, DWORD PTR ___that$[ebp]
	mov	edx, DWORD PTR [ecx+4]
	mov	DWORD PTR [eax+4], edx
	mov	eax, DWORD PTR _this$[ebp]
	mov	ecx, DWORD PTR ___that$[ebp]
	mov	edx, DWORD PTR [ecx+8]
	mov	DWORD PTR [eax+8], edx
	mov	eax, DWORD PTR _this$[ebp]
	mov	ecx, DWORD PTR ___that$[ebp]
	mov	edx, DWORD PTR [ecx+12]
	mov	DWORD PTR [eax+12], edx
	mov	eax, DWORD PTR _this$[ebp]
	mov	ecx, DWORD PTR ___that$[ebp]
	mov	edx, DWORD PTR [ecx+16]
	mov	DWORD PTR [eax+16], edx
	mov	eax, DWORD PTR ___that$[ebp]
	add	eax, 20					; 00000014H
	push	eax
	mov	ecx, DWORD PTR _this$[ebp]
	add	ecx, 20					; 00000014H
	call	??0Vector@@QAE@ABV0@@Z			; Vector::Vector
	mov	eax, DWORD PTR _this$[ebp]
	mov	ecx, DWORD PTR ___that$[ebp]
	mov	edx, DWORD PTR [ecx+32]
	mov	DWORD PTR [eax+32], edx
	mov	eax, DWORD PTR ___that$[ebp]
	add	eax, 36					; 00000024H
	push	eax
	mov	ecx, DWORD PTR _this$[ebp]
	add	ecx, 36					; 00000024H
	call	??0Vector@@QAE@ABV0@@Z			; Vector::Vector
	mov	eax, DWORD PTR _this$[ebp]
	mov	ecx, DWORD PTR ___that$[ebp]
	mov	edx, DWORD PTR [ecx+48]
	mov	DWORD PTR [eax+48], edx
	mov	eax, DWORD PTR _this$[ebp]
	mov	ecx, DWORD PTR ___that$[ebp]
	mov	edx, DWORD PTR [ecx+52]
	mov	DWORD PTR [eax+52], edx
	mov	eax, DWORD PTR _this$[ebp]
	pop	edi
	pop	esi
	pop	ebx
	mov	esp, ebp
	pop	ebp
	ret	4
??0gametrace_s@@QAE@$$QAU0@@Z ENDP			; gametrace_s::gametrace_s
_TEXT	ENDS
; Function compile flags: /Odtp /ZI
;	COMDAT ??0gametrace_s@@QAE@XZ
_TEXT	SEGMENT
_this$ = -4						; size = 4
??0gametrace_s@@QAE@XZ PROC				; gametrace_s::gametrace_s, COMDAT
; _this$ = ecx
	push	ebp
	mov	ebp, esp
	sub	esp, 68					; 00000044H
	push	ebx
	push	esi
	push	edi
	mov	DWORD PTR _this$[ebp], ecx
	mov	ecx, DWORD PTR _this$[ebp]
	add	ecx, 20					; 00000014H
	call	??0Vector@@QAE@XZ			; Vector::Vector
	mov	ecx, DWORD PTR _this$[ebp]
	add	ecx, 36					; 00000024H
	call	??0Vector@@QAE@XZ			; Vector::Vector
	mov	eax, DWORD PTR _this$[ebp]
	pop	edi
	pop	esi
	pop	ebx
	mov	esp, ebp
	pop	ebp
	ret	0
??0gametrace_s@@QAE@XZ ENDP				; gametrace_s::gametrace_s
_TEXT	ENDS
; Function compile flags: /Odtp /ZI
;	COMDAT ??0trace_s@@QAE@XZ
_TEXT	SEGMENT
_this$ = -4						; size = 4
??0trace_s@@QAE@XZ PROC					; trace_s::trace_s, COMDAT
; _this$ = ecx
	push	ebp
	mov	ebp, esp
	sub	esp, 68					; 00000044H
	push	ebx
	push	esi
	push	edi
	mov	DWORD PTR _this$[ebp], ecx
	mov	ecx, DWORD PTR _this$[ebp]
	add	ecx, 20					; 00000014H
	call	??0Vector@@QAE@XZ			; Vector::Vector
	mov	ecx, DWORD PTR _this$[ebp]
	add	ecx, 32					; 00000020H
	call	??0plane_s@@QAE@XZ
	mov	eax, DWORD PTR _this$[ebp]
	pop	edi
	pop	esi
	pop	ebx
	mov	esp, ebp
	pop	ebp
	ret	0
??0trace_s@@QAE@XZ ENDP					; trace_s::trace_s
_TEXT	ENDS
; Function compile flags: /Odtp /ZI
;	COMDAT ??0plane_s@@QAE@XZ
_TEXT	SEGMENT
_this$ = -4						; size = 4
??0plane_s@@QAE@XZ PROC					; plane_s::plane_s, COMDAT
; _this$ = ecx
	push	ebp
	mov	ebp, esp
	sub	esp, 68					; 00000044H
	push	ebx
	push	esi
	push	edi
	mov	DWORD PTR _this$[ebp], ecx
	mov	ecx, DWORD PTR _this$[ebp]
	call	??0Vector@@QAE@XZ			; Vector::Vector
	mov	eax, DWORD PTR _this$[ebp]
	pop	edi
	pop	esi
	pop	ebx
	mov	esp, ebp
	pop	ebp
	ret	0
??0plane_s@@QAE@XZ ENDP					; plane_s::plane_s
_TEXT	ENDS
; Function compile flags: /Odtp /ZI
; File d:\!diffusion 2020\source code 2022\client-server\game_shared\matrix.h
;	COMDAT ??Amatrix4x4@@QAEPAMH@Z
_TEXT	SEGMENT
_this$ = -4						; size = 4
_i$ = 8							; size = 4
??Amatrix4x4@@QAEPAMH@Z PROC				; matrix4x4::operator[], COMDAT
; _this$ = ecx

; 952  : 	float* operator[]( int i ) { return mat[i]; }

	push	ebp
	mov	ebp, esp
	sub	esp, 68					; 00000044H
	push	ebx
	push	esi
	push	edi
	mov	DWORD PTR _this$[ebp], ecx
	mov	ecx, DWORD PTR _i$[ebp]
	shl	ecx, 4
	add	ecx, DWORD PTR _this$[ebp]
	call	??BVector4D@@QAEPAMXZ			; Vector4D::operator float *
	pop	edi
	pop	esi
	pop	ebx
	mov	esp, ebp
	pop	ebp
	ret	4
??Amatrix4x4@@QAEPAMH@Z ENDP				; matrix4x4::operator[]
_TEXT	ENDS
; Function compile flags: /Odtp /ZI
; File d:\!diffusion 2020\source code 2022\client-server\game_shared\matrix.h
;	COMDAT ??0matrix4x4@@QAE@ABVVector@@0M@Z
_TEXT	SEGMENT
tv1056 = -100						; size = 4
tv1054 = -100						; size = 4
tv1052 = -100						; size = 4
tv1050 = -100						; size = 4
tv1048 = -100						; size = 4
tv1046 = -100						; size = 4
tv1044 = -100						; size = 4
tv1042 = -100						; size = 4
tv1040 = -100						; size = 4
tv1038 = -100						; size = 4
tv1036 = -100						; size = 4
tv1034 = -100						; size = 4
tv1032 = -100						; size = 4
tv1030 = -100						; size = 4
tv1028 = -100						; size = 4
tv1026 = -100						; size = 4
tv1024 = -100						; size = 4
tv1022 = -100						; size = 4
tv1020 = -100						; size = 4
tv1018 = -100						; size = 4
tv1016 = -100						; size = 4
_cy$ = -32						; size = 4
_cp$ = -28						; size = 4
_cr$ = -24						; size = 4
_sy$ = -20						; size = 4
_sp$ = -16						; size = 4
_sr$ = -12						; size = 4
_angle$ = -8						; size = 4
_this$ = -4						; size = 4
_origin$ = 8						; size = 4
_angles$ = 12						; size = 4
_scale$ = 16						; size = 4
??0matrix4x4@@QAE@ABVVector@@0M@Z PROC			; matrix4x4::matrix4x4, COMDAT
; _this$ = ecx

; 701  : 	_forceinline matrix4x4( const Vector &origin, const Vector &angles, float scale = 1.0f )

	push	ebp
	mov	ebp, esp
	sub	esp, 100				; 00000064H
	push	ebx
	push	esi
	push	edi
	mov	DWORD PTR _this$[ebp], ecx

; 702  : 	{

	push	OFFSET ??0Vector4D@@QAE@XZ		; Vector4D::Vector4D
	push	4
	push	16					; 00000010H
	mov	eax, DWORD PTR _this$[ebp]
	push	eax
	call	??_H@YGXPAXIIP6EPAX0@Z@Z

; 703  : 		float	angle, sr, sp, sy, cr, cp, cy;
; 704  : 
; 705  : 		if( angles[ROLL] )

	mov	ecx, DWORD PTR _angles$[ebp]
	call	??BVector@@QBEPBMXZ			; Vector::operator float const *
	mov	ecx, 4
	shl	ecx, 1
	movss	xmm0, DWORD PTR [eax+ecx]
	ucomiss	xmm0, DWORD PTR __real@00000000
	lahf
	test	ah, 68					; 00000044H
	jnp	$LN2@matrix4x4

; 706  : 		{
; 707  : 			angle = angles[YAW] * (M_PI*2 / 360);

	mov	ecx, DWORD PTR _angles$[ebp]
	call	??BVector@@QBEPBMXZ			; Vector::operator float const *
	mov	ecx, 4
	shl	ecx, 0
	cvtss2sd xmm0, DWORD PTR [eax+ecx]
	mulsd	xmm0, QWORD PTR __real@3f91df46a2529d39
	cvtsd2ss xmm0, xmm0
	movss	DWORD PTR _angle$[ebp], xmm0

; 708  : 			SinCos( angle, &sy, &cy );

	lea	eax, DWORD PTR _cy$[ebp]
	push	eax
	lea	ecx, DWORD PTR _sy$[ebp]
	push	ecx
	push	ecx
	movss	xmm0, DWORD PTR _angle$[ebp]
	movss	DWORD PTR [esp], xmm0
	call	?SinCos@@YAXMPAM0@Z			; SinCos
	add	esp, 12					; 0000000cH

; 709  : 			angle = angles[PITCH] * (M_PI*2 / 360);

	mov	ecx, DWORD PTR _angles$[ebp]
	call	??BVector@@QBEPBMXZ			; Vector::operator float const *
	mov	ecx, 4
	imul	edx, ecx, 0
	cvtss2sd xmm0, DWORD PTR [eax+edx]
	mulsd	xmm0, QWORD PTR __real@3f91df46a2529d39
	cvtsd2ss xmm0, xmm0
	movss	DWORD PTR _angle$[ebp], xmm0

; 710  : 			SinCos( angle, &sp, &cp );

	lea	eax, DWORD PTR _cp$[ebp]
	push	eax
	lea	ecx, DWORD PTR _sp$[ebp]
	push	ecx
	push	ecx
	movss	xmm0, DWORD PTR _angle$[ebp]
	movss	DWORD PTR [esp], xmm0
	call	?SinCos@@YAXMPAM0@Z			; SinCos
	add	esp, 12					; 0000000cH

; 711  : 			angle = angles[ROLL] * (M_PI*2 / 360);

	mov	ecx, DWORD PTR _angles$[ebp]
	call	??BVector@@QBEPBMXZ			; Vector::operator float const *
	mov	ecx, 4
	shl	ecx, 1
	cvtss2sd xmm0, DWORD PTR [eax+ecx]
	mulsd	xmm0, QWORD PTR __real@3f91df46a2529d39
	cvtsd2ss xmm0, xmm0
	movss	DWORD PTR _angle$[ebp], xmm0

; 712  : 			SinCos( angle, &sr, &cr );

	lea	eax, DWORD PTR _cr$[ebp]
	push	eax
	lea	ecx, DWORD PTR _sr$[ebp]
	push	ecx
	push	ecx
	movss	xmm0, DWORD PTR _angle$[ebp]
	movss	DWORD PTR [esp], xmm0
	call	?SinCos@@YAXMPAM0@Z			; SinCos
	add	esp, 12					; 0000000cH

; 713  : 
; 714  : 			mat[0][0] = (cp*cy) * scale;

	movss	xmm0, DWORD PTR _cp$[ebp]
	mulss	xmm0, DWORD PTR _cy$[ebp]
	mulss	xmm0, DWORD PTR _scale$[ebp]
	mov	eax, 16					; 00000010H
	imul	ecx, eax, 0
	add	ecx, DWORD PTR _this$[ebp]
	movss	DWORD PTR tv1016[ebp], xmm0
	call	??BVector4D@@QAEPAMXZ			; Vector4D::operator float *
	mov	ecx, 4
	imul	edx, ecx, 0
	movss	xmm0, DWORD PTR tv1016[ebp]
	movss	DWORD PTR [eax+edx], xmm0

; 715  : 			mat[1][0] = (sr*sp*cy+cr*-sy) * scale;

	movss	xmm0, DWORD PTR _sr$[ebp]
	mulss	xmm0, DWORD PTR _sp$[ebp]
	mulss	xmm0, DWORD PTR _cy$[ebp]
	movss	xmm1, DWORD PTR _sy$[ebp]
	xorps	xmm1, DWORD PTR __xmm@80000000800000008000000080000000
	mulss	xmm1, DWORD PTR _cr$[ebp]
	addss	xmm0, xmm1
	mulss	xmm0, DWORD PTR _scale$[ebp]
	mov	ecx, 16					; 00000010H
	shl	ecx, 0
	add	ecx, DWORD PTR _this$[ebp]
	movss	DWORD PTR tv1018[ebp], xmm0
	call	??BVector4D@@QAEPAMXZ			; Vector4D::operator float *
	mov	ecx, 4
	imul	edx, ecx, 0
	movss	xmm0, DWORD PTR tv1018[ebp]
	movss	DWORD PTR [eax+edx], xmm0

; 716  : 			mat[2][0] = (cr*sp*cy+-sr*-sy) * scale;

	movss	xmm0, DWORD PTR _cr$[ebp]
	mulss	xmm0, DWORD PTR _sp$[ebp]
	mulss	xmm0, DWORD PTR _cy$[ebp]
	movss	xmm1, DWORD PTR _sr$[ebp]
	xorps	xmm1, DWORD PTR __xmm@80000000800000008000000080000000
	movss	xmm2, DWORD PTR _sy$[ebp]
	xorps	xmm2, DWORD PTR __xmm@80000000800000008000000080000000
	mulss	xmm1, xmm2
	addss	xmm0, xmm1
	mulss	xmm0, DWORD PTR _scale$[ebp]
	mov	ecx, 16					; 00000010H
	shl	ecx, 1
	add	ecx, DWORD PTR _this$[ebp]
	movss	DWORD PTR tv1020[ebp], xmm0
	call	??BVector4D@@QAEPAMXZ			; Vector4D::operator float *
	mov	ecx, 4
	imul	edx, ecx, 0
	movss	xmm0, DWORD PTR tv1020[ebp]
	movss	DWORD PTR [eax+edx], xmm0

; 717  : 			mat[3][0] = origin.x;

	mov	eax, 16					; 00000010H
	imul	ecx, eax, 3
	add	ecx, DWORD PTR _this$[ebp]
	call	??BVector4D@@QAEPAMXZ			; Vector4D::operator float *
	mov	ecx, 4
	imul	edx, ecx, 0
	mov	ecx, DWORD PTR _origin$[ebp]
	mov	ecx, DWORD PTR [ecx]
	mov	DWORD PTR [eax+edx], ecx

; 718  : 			mat[0][1] = (cp*sy) * scale;

	movss	xmm0, DWORD PTR _cp$[ebp]
	mulss	xmm0, DWORD PTR _sy$[ebp]
	mulss	xmm0, DWORD PTR _scale$[ebp]
	mov	eax, 16					; 00000010H
	imul	ecx, eax, 0
	add	ecx, DWORD PTR _this$[ebp]
	movss	DWORD PTR tv1022[ebp], xmm0
	call	??BVector4D@@QAEPAMXZ			; Vector4D::operator float *
	mov	ecx, 4
	shl	ecx, 0
	movss	xmm0, DWORD PTR tv1022[ebp]
	movss	DWORD PTR [eax+ecx], xmm0

; 719  : 			mat[1][1] = (sr*sp*sy+cr*cy) * scale;

	movss	xmm0, DWORD PTR _sr$[ebp]
	mulss	xmm0, DWORD PTR _sp$[ebp]
	mulss	xmm0, DWORD PTR _sy$[ebp]
	movss	xmm1, DWORD PTR _cr$[ebp]
	mulss	xmm1, DWORD PTR _cy$[ebp]
	addss	xmm0, xmm1
	mulss	xmm0, DWORD PTR _scale$[ebp]
	mov	ecx, 16					; 00000010H
	shl	ecx, 0
	add	ecx, DWORD PTR _this$[ebp]
	movss	DWORD PTR tv1024[ebp], xmm0
	call	??BVector4D@@QAEPAMXZ			; Vector4D::operator float *
	mov	ecx, 4
	shl	ecx, 0
	movss	xmm0, DWORD PTR tv1024[ebp]
	movss	DWORD PTR [eax+ecx], xmm0

; 720  : 			mat[2][1] = (cr*sp*sy+-sr*cy) * scale;

	movss	xmm0, DWORD PTR _cr$[ebp]
	mulss	xmm0, DWORD PTR _sp$[ebp]
	mulss	xmm0, DWORD PTR _sy$[ebp]
	movss	xmm1, DWORD PTR _sr$[ebp]
	xorps	xmm1, DWORD PTR __xmm@80000000800000008000000080000000
	mulss	xmm1, DWORD PTR _cy$[ebp]
	addss	xmm0, xmm1
	mulss	xmm0, DWORD PTR _scale$[ebp]
	mov	ecx, 16					; 00000010H
	shl	ecx, 1
	add	ecx, DWORD PTR _this$[ebp]
	movss	DWORD PTR tv1026[ebp], xmm0
	call	??BVector4D@@QAEPAMXZ			; Vector4D::operator float *
	mov	ecx, 4
	shl	ecx, 0
	movss	xmm0, DWORD PTR tv1026[ebp]
	movss	DWORD PTR [eax+ecx], xmm0

; 721  : 			mat[3][1] = origin.y;

	mov	eax, 16					; 00000010H
	imul	ecx, eax, 3
	add	ecx, DWORD PTR _this$[ebp]
	call	??BVector4D@@QAEPAMXZ			; Vector4D::operator float *
	mov	ecx, 4
	shl	ecx, 0
	mov	edx, DWORD PTR _origin$[ebp]
	mov	edx, DWORD PTR [edx+4]
	mov	DWORD PTR [eax+ecx], edx

; 722  : 			mat[0][2] = (-sp) * scale;

	movss	xmm0, DWORD PTR _sp$[ebp]
	xorps	xmm0, DWORD PTR __xmm@80000000800000008000000080000000
	mulss	xmm0, DWORD PTR _scale$[ebp]
	mov	eax, 16					; 00000010H
	imul	ecx, eax, 0
	add	ecx, DWORD PTR _this$[ebp]
	movss	DWORD PTR tv1028[ebp], xmm0
	call	??BVector4D@@QAEPAMXZ			; Vector4D::operator float *
	mov	ecx, 4
	shl	ecx, 1
	movss	xmm0, DWORD PTR tv1028[ebp]
	movss	DWORD PTR [eax+ecx], xmm0

; 723  : 			mat[1][2] = (sr*cp) * scale;

	movss	xmm0, DWORD PTR _sr$[ebp]
	mulss	xmm0, DWORD PTR _cp$[ebp]
	mulss	xmm0, DWORD PTR _scale$[ebp]
	mov	ecx, 16					; 00000010H
	shl	ecx, 0
	add	ecx, DWORD PTR _this$[ebp]
	movss	DWORD PTR tv1030[ebp], xmm0
	call	??BVector4D@@QAEPAMXZ			; Vector4D::operator float *
	mov	ecx, 4
	shl	ecx, 1
	movss	xmm0, DWORD PTR tv1030[ebp]
	movss	DWORD PTR [eax+ecx], xmm0

; 724  : 			mat[2][2] = (cr*cp) * scale;

	movss	xmm0, DWORD PTR _cr$[ebp]
	mulss	xmm0, DWORD PTR _cp$[ebp]
	mulss	xmm0, DWORD PTR _scale$[ebp]
	mov	ecx, 16					; 00000010H
	shl	ecx, 1
	add	ecx, DWORD PTR _this$[ebp]
	movss	DWORD PTR tv1032[ebp], xmm0
	call	??BVector4D@@QAEPAMXZ			; Vector4D::operator float *
	mov	ecx, 4
	shl	ecx, 1
	movss	xmm0, DWORD PTR tv1032[ebp]
	movss	DWORD PTR [eax+ecx], xmm0

; 725  : 			mat[3][2] = origin.z;

	mov	eax, 16					; 00000010H
	imul	ecx, eax, 3
	add	ecx, DWORD PTR _this$[ebp]
	call	??BVector4D@@QAEPAMXZ			; Vector4D::operator float *
	mov	ecx, 4
	shl	ecx, 1
	mov	edx, DWORD PTR _origin$[ebp]
	mov	edx, DWORD PTR [edx+8]
	mov	DWORD PTR [eax+ecx], edx

; 726  : 			mat[0][3] = 0;

	mov	eax, 16					; 00000010H
	imul	ecx, eax, 0
	add	ecx, DWORD PTR _this$[ebp]
	call	??BVector4D@@QAEPAMXZ			; Vector4D::operator float *
	mov	ecx, 4
	imul	edx, ecx, 3
	xorps	xmm0, xmm0
	movss	DWORD PTR [eax+edx], xmm0

; 727  : 			mat[1][3] = 0;

	mov	ecx, 16					; 00000010H
	shl	ecx, 0
	add	ecx, DWORD PTR _this$[ebp]
	call	??BVector4D@@QAEPAMXZ			; Vector4D::operator float *
	mov	ecx, 4
	imul	edx, ecx, 3
	xorps	xmm0, xmm0
	movss	DWORD PTR [eax+edx], xmm0

; 728  : 			mat[2][3] = 0;

	mov	ecx, 16					; 00000010H
	shl	ecx, 1
	add	ecx, DWORD PTR _this$[ebp]
	call	??BVector4D@@QAEPAMXZ			; Vector4D::operator float *
	mov	ecx, 4
	imul	edx, ecx, 3
	xorps	xmm0, xmm0
	movss	DWORD PTR [eax+edx], xmm0

; 729  : 			mat[3][3] = 1;

	mov	eax, 16					; 00000010H
	imul	ecx, eax, 3
	add	ecx, DWORD PTR _this$[ebp]
	call	??BVector4D@@QAEPAMXZ			; Vector4D::operator float *
	mov	ecx, 4
	imul	edx, ecx, 3
	movss	xmm0, DWORD PTR __real@3f800000
	movss	DWORD PTR [eax+edx], xmm0
	jmp	$LN7@matrix4x4
$LN2@matrix4x4:

; 730  : 		}
; 731  : 		else if( angles[PITCH] )

	mov	ecx, DWORD PTR _angles$[ebp]
	call	??BVector@@QBEPBMXZ			; Vector::operator float const *
	mov	ecx, 4
	imul	edx, ecx, 0
	movss	xmm0, DWORD PTR [eax+edx]
	ucomiss	xmm0, DWORD PTR __real@00000000
	lahf
	test	ah, 68					; 00000044H
	jnp	$LN4@matrix4x4

; 732  : 		{
; 733  : 			angle = angles[YAW] * (M_PI*2 / 360);

	mov	ecx, DWORD PTR _angles$[ebp]
	call	??BVector@@QBEPBMXZ			; Vector::operator float const *
	mov	ecx, 4
	shl	ecx, 0
	cvtss2sd xmm0, DWORD PTR [eax+ecx]
	mulsd	xmm0, QWORD PTR __real@3f91df46a2529d39
	cvtsd2ss xmm0, xmm0
	movss	DWORD PTR _angle$[ebp], xmm0

; 734  : 			SinCos( angle, &sy, &cy );

	lea	eax, DWORD PTR _cy$[ebp]
	push	eax
	lea	ecx, DWORD PTR _sy$[ebp]
	push	ecx
	push	ecx
	movss	xmm0, DWORD PTR _angle$[ebp]
	movss	DWORD PTR [esp], xmm0
	call	?SinCos@@YAXMPAM0@Z			; SinCos
	add	esp, 12					; 0000000cH

; 735  : 			angle = angles[PITCH] * (M_PI*2 / 360);

	mov	ecx, DWORD PTR _angles$[ebp]
	call	??BVector@@QBEPBMXZ			; Vector::operator float const *
	mov	ecx, 4
	imul	edx, ecx, 0
	cvtss2sd xmm0, DWORD PTR [eax+edx]
	mulsd	xmm0, QWORD PTR __real@3f91df46a2529d39
	cvtsd2ss xmm0, xmm0
	movss	DWORD PTR _angle$[ebp], xmm0

; 736  : 			SinCos( angle, &sp, &cp );

	lea	eax, DWORD PTR _cp$[ebp]
	push	eax
	lea	ecx, DWORD PTR _sp$[ebp]
	push	ecx
	push	ecx
	movss	xmm0, DWORD PTR _angle$[ebp]
	movss	DWORD PTR [esp], xmm0
	call	?SinCos@@YAXMPAM0@Z			; SinCos
	add	esp, 12					; 0000000cH

; 737  : 
; 738  : 			mat[0][0] = (cp*cy) * scale;

	movss	xmm0, DWORD PTR _cp$[ebp]
	mulss	xmm0, DWORD PTR _cy$[ebp]
	mulss	xmm0, DWORD PTR _scale$[ebp]
	mov	eax, 16					; 00000010H
	imul	ecx, eax, 0
	add	ecx, DWORD PTR _this$[ebp]
	movss	DWORD PTR tv1034[ebp], xmm0
	call	??BVector4D@@QAEPAMXZ			; Vector4D::operator float *
	mov	ecx, 4
	imul	edx, ecx, 0
	movss	xmm0, DWORD PTR tv1034[ebp]
	movss	DWORD PTR [eax+edx], xmm0

; 739  : 			mat[1][0] = (-sy) * scale;

	movss	xmm0, DWORD PTR _sy$[ebp]
	xorps	xmm0, DWORD PTR __xmm@80000000800000008000000080000000
	mulss	xmm0, DWORD PTR _scale$[ebp]
	mov	ecx, 16					; 00000010H
	shl	ecx, 0
	add	ecx, DWORD PTR _this$[ebp]
	movss	DWORD PTR tv1036[ebp], xmm0
	call	??BVector4D@@QAEPAMXZ			; Vector4D::operator float *
	mov	ecx, 4
	imul	edx, ecx, 0
	movss	xmm0, DWORD PTR tv1036[ebp]
	movss	DWORD PTR [eax+edx], xmm0

; 740  : 			mat[2][0] = (sp*cy) * scale;

	movss	xmm0, DWORD PTR _sp$[ebp]
	mulss	xmm0, DWORD PTR _cy$[ebp]
	mulss	xmm0, DWORD PTR _scale$[ebp]
	mov	ecx, 16					; 00000010H
	shl	ecx, 1
	add	ecx, DWORD PTR _this$[ebp]
	movss	DWORD PTR tv1038[ebp], xmm0
	call	??BVector4D@@QAEPAMXZ			; Vector4D::operator float *
	mov	ecx, 4
	imul	edx, ecx, 0
	movss	xmm0, DWORD PTR tv1038[ebp]
	movss	DWORD PTR [eax+edx], xmm0

; 741  : 			mat[3][0] = origin.x;

	mov	eax, 16					; 00000010H
	imul	ecx, eax, 3
	add	ecx, DWORD PTR _this$[ebp]
	call	??BVector4D@@QAEPAMXZ			; Vector4D::operator float *
	mov	ecx, 4
	imul	edx, ecx, 0
	mov	ecx, DWORD PTR _origin$[ebp]
	mov	ecx, DWORD PTR [ecx]
	mov	DWORD PTR [eax+edx], ecx

; 742  : 			mat[0][1] = (cp*sy) * scale;

	movss	xmm0, DWORD PTR _cp$[ebp]
	mulss	xmm0, DWORD PTR _sy$[ebp]
	mulss	xmm0, DWORD PTR _scale$[ebp]
	mov	eax, 16					; 00000010H
	imul	ecx, eax, 0
	add	ecx, DWORD PTR _this$[ebp]
	movss	DWORD PTR tv1040[ebp], xmm0
	call	??BVector4D@@QAEPAMXZ			; Vector4D::operator float *
	mov	ecx, 4
	shl	ecx, 0
	movss	xmm0, DWORD PTR tv1040[ebp]
	movss	DWORD PTR [eax+ecx], xmm0

; 743  : 			mat[1][1] = (cy) * scale;

	movss	xmm0, DWORD PTR _cy$[ebp]
	mulss	xmm0, DWORD PTR _scale$[ebp]
	mov	ecx, 16					; 00000010H
	shl	ecx, 0
	add	ecx, DWORD PTR _this$[ebp]
	movss	DWORD PTR tv1042[ebp], xmm0
	call	??BVector4D@@QAEPAMXZ			; Vector4D::operator float *
	mov	ecx, 4
	shl	ecx, 0
	movss	xmm0, DWORD PTR tv1042[ebp]
	movss	DWORD PTR [eax+ecx], xmm0

; 744  : 			mat[2][1] = (sp*sy) * scale;

	movss	xmm0, DWORD PTR _sp$[ebp]
	mulss	xmm0, DWORD PTR _sy$[ebp]
	mulss	xmm0, DWORD PTR _scale$[ebp]
	mov	ecx, 16					; 00000010H
	shl	ecx, 1
	add	ecx, DWORD PTR _this$[ebp]
	movss	DWORD PTR tv1044[ebp], xmm0
	call	??BVector4D@@QAEPAMXZ			; Vector4D::operator float *
	mov	ecx, 4
	shl	ecx, 0
	movss	xmm0, DWORD PTR tv1044[ebp]
	movss	DWORD PTR [eax+ecx], xmm0

; 745  : 			mat[3][1] = origin.y;

	mov	eax, 16					; 00000010H
	imul	ecx, eax, 3
	add	ecx, DWORD PTR _this$[ebp]
	call	??BVector4D@@QAEPAMXZ			; Vector4D::operator float *
	mov	ecx, 4
	shl	ecx, 0
	mov	edx, DWORD PTR _origin$[ebp]
	mov	edx, DWORD PTR [edx+4]
	mov	DWORD PTR [eax+ecx], edx

; 746  : 			mat[0][2] = (-sp) * scale;

	movss	xmm0, DWORD PTR _sp$[ebp]
	xorps	xmm0, DWORD PTR __xmm@80000000800000008000000080000000
	mulss	xmm0, DWORD PTR _scale$[ebp]
	mov	eax, 16					; 00000010H
	imul	ecx, eax, 0
	add	ecx, DWORD PTR _this$[ebp]
	movss	DWORD PTR tv1046[ebp], xmm0
	call	??BVector4D@@QAEPAMXZ			; Vector4D::operator float *
	mov	ecx, 4
	shl	ecx, 1
	movss	xmm0, DWORD PTR tv1046[ebp]
	movss	DWORD PTR [eax+ecx], xmm0

; 747  : 			mat[1][2] = 0;

	mov	ecx, 16					; 00000010H
	shl	ecx, 0
	add	ecx, DWORD PTR _this$[ebp]
	call	??BVector4D@@QAEPAMXZ			; Vector4D::operator float *
	mov	ecx, 4
	shl	ecx, 1
	xorps	xmm0, xmm0
	movss	DWORD PTR [eax+ecx], xmm0

; 748  : 			mat[2][2] = (cp) * scale;

	movss	xmm0, DWORD PTR _cp$[ebp]
	mulss	xmm0, DWORD PTR _scale$[ebp]
	mov	ecx, 16					; 00000010H
	shl	ecx, 1
	add	ecx, DWORD PTR _this$[ebp]
	movss	DWORD PTR tv1048[ebp], xmm0
	call	??BVector4D@@QAEPAMXZ			; Vector4D::operator float *
	mov	ecx, 4
	shl	ecx, 1
	movss	xmm0, DWORD PTR tv1048[ebp]
	movss	DWORD PTR [eax+ecx], xmm0

; 749  : 			mat[3][2] = origin.z;

	mov	eax, 16					; 00000010H
	imul	ecx, eax, 3
	add	ecx, DWORD PTR _this$[ebp]
	call	??BVector4D@@QAEPAMXZ			; Vector4D::operator float *
	mov	ecx, 4
	shl	ecx, 1
	mov	edx, DWORD PTR _origin$[ebp]
	mov	edx, DWORD PTR [edx+8]
	mov	DWORD PTR [eax+ecx], edx

; 750  : 			mat[0][3] = 0;

	mov	eax, 16					; 00000010H
	imul	ecx, eax, 0
	add	ecx, DWORD PTR _this$[ebp]
	call	??BVector4D@@QAEPAMXZ			; Vector4D::operator float *
	mov	ecx, 4
	imul	edx, ecx, 3
	xorps	xmm0, xmm0
	movss	DWORD PTR [eax+edx], xmm0

; 751  : 			mat[1][3] = 0;

	mov	ecx, 16					; 00000010H
	shl	ecx, 0
	add	ecx, DWORD PTR _this$[ebp]
	call	??BVector4D@@QAEPAMXZ			; Vector4D::operator float *
	mov	ecx, 4
	imul	edx, ecx, 3
	xorps	xmm0, xmm0
	movss	DWORD PTR [eax+edx], xmm0

; 752  : 			mat[2][3] = 0;

	mov	ecx, 16					; 00000010H
	shl	ecx, 1
	add	ecx, DWORD PTR _this$[ebp]
	call	??BVector4D@@QAEPAMXZ			; Vector4D::operator float *
	mov	ecx, 4
	imul	edx, ecx, 3
	xorps	xmm0, xmm0
	movss	DWORD PTR [eax+edx], xmm0

; 753  : 			mat[3][3] = 1;

	mov	eax, 16					; 00000010H
	imul	ecx, eax, 3
	add	ecx, DWORD PTR _this$[ebp]
	call	??BVector4D@@QAEPAMXZ			; Vector4D::operator float *
	mov	ecx, 4
	imul	edx, ecx, 3
	movss	xmm0, DWORD PTR __real@3f800000
	movss	DWORD PTR [eax+edx], xmm0
	jmp	$LN7@matrix4x4
$LN4@matrix4x4:

; 754  : 		}
; 755  : 		else if( angles[YAW] )

	mov	ecx, DWORD PTR _angles$[ebp]
	call	??BVector@@QBEPBMXZ			; Vector::operator float const *
	mov	ecx, 4
	shl	ecx, 0
	movss	xmm0, DWORD PTR [eax+ecx]
	ucomiss	xmm0, DWORD PTR __real@00000000
	lahf
	test	ah, 68					; 00000044H
	jnp	$LN6@matrix4x4

; 756  : 		{
; 757  : 			angle = angles[YAW] * (M_PI*2 / 360);

	mov	ecx, DWORD PTR _angles$[ebp]
	call	??BVector@@QBEPBMXZ			; Vector::operator float const *
	mov	ecx, 4
	shl	ecx, 0
	cvtss2sd xmm0, DWORD PTR [eax+ecx]
	mulsd	xmm0, QWORD PTR __real@3f91df46a2529d39
	cvtsd2ss xmm0, xmm0
	movss	DWORD PTR _angle$[ebp], xmm0

; 758  : 			SinCos( angle, &sy, &cy );

	lea	eax, DWORD PTR _cy$[ebp]
	push	eax
	lea	ecx, DWORD PTR _sy$[ebp]
	push	ecx
	push	ecx
	movss	xmm0, DWORD PTR _angle$[ebp]
	movss	DWORD PTR [esp], xmm0
	call	?SinCos@@YAXMPAM0@Z			; SinCos
	add	esp, 12					; 0000000cH

; 759  : 
; 760  : 			mat[0][0] = (cy) * scale;

	movss	xmm0, DWORD PTR _cy$[ebp]
	mulss	xmm0, DWORD PTR _scale$[ebp]
	mov	eax, 16					; 00000010H
	imul	ecx, eax, 0
	add	ecx, DWORD PTR _this$[ebp]
	movss	DWORD PTR tv1050[ebp], xmm0
	call	??BVector4D@@QAEPAMXZ			; Vector4D::operator float *
	mov	ecx, 4
	imul	edx, ecx, 0
	movss	xmm0, DWORD PTR tv1050[ebp]
	movss	DWORD PTR [eax+edx], xmm0

; 761  : 			mat[1][0] = (-sy) * scale;

	movss	xmm0, DWORD PTR _sy$[ebp]
	xorps	xmm0, DWORD PTR __xmm@80000000800000008000000080000000
	mulss	xmm0, DWORD PTR _scale$[ebp]
	mov	ecx, 16					; 00000010H
	shl	ecx, 0
	add	ecx, DWORD PTR _this$[ebp]
	movss	DWORD PTR tv1052[ebp], xmm0
	call	??BVector4D@@QAEPAMXZ			; Vector4D::operator float *
	mov	ecx, 4
	imul	edx, ecx, 0
	movss	xmm0, DWORD PTR tv1052[ebp]
	movss	DWORD PTR [eax+edx], xmm0

; 762  : 			mat[2][0] = 0;

	mov	ecx, 16					; 00000010H
	shl	ecx, 1
	add	ecx, DWORD PTR _this$[ebp]
	call	??BVector4D@@QAEPAMXZ			; Vector4D::operator float *
	mov	ecx, 4
	imul	edx, ecx, 0
	xorps	xmm0, xmm0
	movss	DWORD PTR [eax+edx], xmm0

; 763  : 			mat[3][0] = origin.x;

	mov	eax, 16					; 00000010H
	imul	ecx, eax, 3
	add	ecx, DWORD PTR _this$[ebp]
	call	??BVector4D@@QAEPAMXZ			; Vector4D::operator float *
	mov	ecx, 4
	imul	edx, ecx, 0
	mov	ecx, DWORD PTR _origin$[ebp]
	mov	ecx, DWORD PTR [ecx]
	mov	DWORD PTR [eax+edx], ecx

; 764  : 			mat[0][1] = (sy) * scale;

	movss	xmm0, DWORD PTR _sy$[ebp]
	mulss	xmm0, DWORD PTR _scale$[ebp]
	mov	eax, 16					; 00000010H
	imul	ecx, eax, 0
	add	ecx, DWORD PTR _this$[ebp]
	movss	DWORD PTR tv1054[ebp], xmm0
	call	??BVector4D@@QAEPAMXZ			; Vector4D::operator float *
	mov	ecx, 4
	shl	ecx, 0
	movss	xmm0, DWORD PTR tv1054[ebp]
	movss	DWORD PTR [eax+ecx], xmm0

; 765  : 			mat[1][1] = (cy) * scale;

	movss	xmm0, DWORD PTR _cy$[ebp]
	mulss	xmm0, DWORD PTR _scale$[ebp]
	mov	ecx, 16					; 00000010H
	shl	ecx, 0
	add	ecx, DWORD PTR _this$[ebp]
	movss	DWORD PTR tv1056[ebp], xmm0
	call	??BVector4D@@QAEPAMXZ			; Vector4D::operator float *
	mov	ecx, 4
	shl	ecx, 0
	movss	xmm0, DWORD PTR tv1056[ebp]
	movss	DWORD PTR [eax+ecx], xmm0

; 766  : 			mat[2][1] = 0;

	mov	ecx, 16					; 00000010H
	shl	ecx, 1
	add	ecx, DWORD PTR _this$[ebp]
	call	??BVector4D@@QAEPAMXZ			; Vector4D::operator float *
	mov	ecx, 4
	shl	ecx, 0
	xorps	xmm0, xmm0
	movss	DWORD PTR [eax+ecx], xmm0

; 767  : 			mat[3][1] = origin.y;

	mov	eax, 16					; 00000010H
	imul	ecx, eax, 3
	add	ecx, DWORD PTR _this$[ebp]
	call	??BVector4D@@QAEPAMXZ			; Vector4D::operator float *
	mov	ecx, 4
	shl	ecx, 0
	mov	edx, DWORD PTR _origin$[ebp]
	mov	edx, DWORD PTR [edx+4]
	mov	DWORD PTR [eax+ecx], edx

; 768  : 			mat[0][2] = 0;

	mov	eax, 16					; 00000010H
	imul	ecx, eax, 0
	add	ecx, DWORD PTR _this$[ebp]
	call	??BVector4D@@QAEPAMXZ			; Vector4D::operator float *
	mov	ecx, 4
	shl	ecx, 1
	xorps	xmm0, xmm0
	movss	DWORD PTR [eax+ecx], xmm0

; 769  : 			mat[1][2] = 0;

	mov	ecx, 16					; 00000010H
	shl	ecx, 0
	add	ecx, DWORD PTR _this$[ebp]
	call	??BVector4D@@QAEPAMXZ			; Vector4D::operator float *
	mov	ecx, 4
	shl	ecx, 1
	xorps	xmm0, xmm0
	movss	DWORD PTR [eax+ecx], xmm0

; 770  : 			mat[2][2] = scale;

	mov	ecx, 16					; 00000010H
	shl	ecx, 1
	add	ecx, DWORD PTR _this$[ebp]
	call	??BVector4D@@QAEPAMXZ			; Vector4D::operator float *
	mov	ecx, 4
	shl	ecx, 1
	movss	xmm0, DWORD PTR _scale$[ebp]
	movss	DWORD PTR [eax+ecx], xmm0

; 771  : 			mat[3][2] = origin.z;

	mov	eax, 16					; 00000010H
	imul	ecx, eax, 3
	add	ecx, DWORD PTR _this$[ebp]
	call	??BVector4D@@QAEPAMXZ			; Vector4D::operator float *
	mov	ecx, 4
	shl	ecx, 1
	mov	edx, DWORD PTR _origin$[ebp]
	mov	edx, DWORD PTR [edx+8]
	mov	DWORD PTR [eax+ecx], edx

; 772  : 			mat[0][3] = 0;

	mov	eax, 16					; 00000010H
	imul	ecx, eax, 0
	add	ecx, DWORD PTR _this$[ebp]
	call	??BVector4D@@QAEPAMXZ			; Vector4D::operator float *
	mov	ecx, 4
	imul	edx, ecx, 3
	xorps	xmm0, xmm0
	movss	DWORD PTR [eax+edx], xmm0

; 773  : 			mat[1][3] = 0;

	mov	ecx, 16					; 00000010H
	shl	ecx, 0
	add	ecx, DWORD PTR _this$[ebp]
	call	??BVector4D@@QAEPAMXZ			; Vector4D::operator float *
	mov	ecx, 4
	imul	edx, ecx, 3
	xorps	xmm0, xmm0
	movss	DWORD PTR [eax+edx], xmm0

; 774  : 			mat[2][3] = 0;

	mov	ecx, 16					; 00000010H
	shl	ecx, 1
	add	ecx, DWORD PTR _this$[ebp]
	call	??BVector4D@@QAEPAMXZ			; Vector4D::operator float *
	mov	ecx, 4
	imul	edx, ecx, 3
	xorps	xmm0, xmm0
	movss	DWORD PTR [eax+edx], xmm0

; 775  : 			mat[3][3] = 1;

	mov	eax, 16					; 00000010H
	imul	ecx, eax, 3
	add	ecx, DWORD PTR _this$[ebp]
	call	??BVector4D@@QAEPAMXZ			; Vector4D::operator float *
	mov	ecx, 4
	imul	edx, ecx, 3
	movss	xmm0, DWORD PTR __real@3f800000
	movss	DWORD PTR [eax+edx], xmm0

; 776  : 		}
; 777  : 		else

	jmp	$LN7@matrix4x4
$LN6@matrix4x4:

; 778  : 		{
; 779  : 			mat[0][0] = scale;

	mov	eax, 16					; 00000010H
	imul	ecx, eax, 0
	add	ecx, DWORD PTR _this$[ebp]
	call	??BVector4D@@QAEPAMXZ			; Vector4D::operator float *
	mov	ecx, 4
	imul	edx, ecx, 0
	movss	xmm0, DWORD PTR _scale$[ebp]
	movss	DWORD PTR [eax+edx], xmm0

; 780  : 			mat[1][0] = 0;

	mov	ecx, 16					; 00000010H
	shl	ecx, 0
	add	ecx, DWORD PTR _this$[ebp]
	call	??BVector4D@@QAEPAMXZ			; Vector4D::operator float *
	mov	ecx, 4
	imul	edx, ecx, 0
	xorps	xmm0, xmm0
	movss	DWORD PTR [eax+edx], xmm0

; 781  : 			mat[2][0] = 0;

	mov	ecx, 16					; 00000010H
	shl	ecx, 1
	add	ecx, DWORD PTR _this$[ebp]
	call	??BVector4D@@QAEPAMXZ			; Vector4D::operator float *
	mov	ecx, 4
	imul	edx, ecx, 0
	xorps	xmm0, xmm0
	movss	DWORD PTR [eax+edx], xmm0

; 782  : 			mat[3][0] = origin.x;

	mov	eax, 16					; 00000010H
	imul	ecx, eax, 3
	add	ecx, DWORD PTR _this$[ebp]
	call	??BVector4D@@QAEPAMXZ			; Vector4D::operator float *
	mov	ecx, 4
	imul	edx, ecx, 0
	mov	ecx, DWORD PTR _origin$[ebp]
	mov	ecx, DWORD PTR [ecx]
	mov	DWORD PTR [eax+edx], ecx

; 783  : 			mat[0][1] = 0;

	mov	eax, 16					; 00000010H
	imul	ecx, eax, 0
	add	ecx, DWORD PTR _this$[ebp]
	call	??BVector4D@@QAEPAMXZ			; Vector4D::operator float *
	mov	ecx, 4
	shl	ecx, 0
	xorps	xmm0, xmm0
	movss	DWORD PTR [eax+ecx], xmm0

; 784  : 			mat[1][1] = scale;

	mov	ecx, 16					; 00000010H
	shl	ecx, 0
	add	ecx, DWORD PTR _this$[ebp]
	call	??BVector4D@@QAEPAMXZ			; Vector4D::operator float *
	mov	ecx, 4
	shl	ecx, 0
	movss	xmm0, DWORD PTR _scale$[ebp]
	movss	DWORD PTR [eax+ecx], xmm0

; 785  : 			mat[2][1] = 0;

	mov	ecx, 16					; 00000010H
	shl	ecx, 1
	add	ecx, DWORD PTR _this$[ebp]
	call	??BVector4D@@QAEPAMXZ			; Vector4D::operator float *
	mov	ecx, 4
	shl	ecx, 0
	xorps	xmm0, xmm0
	movss	DWORD PTR [eax+ecx], xmm0

; 786  : 			mat[3][1] = origin.y;

	mov	eax, 16					; 00000010H
	imul	ecx, eax, 3
	add	ecx, DWORD PTR _this$[ebp]
	call	??BVector4D@@QAEPAMXZ			; Vector4D::operator float *
	mov	ecx, 4
	shl	ecx, 0
	mov	edx, DWORD PTR _origin$[ebp]
	mov	edx, DWORD PTR [edx+4]
	mov	DWORD PTR [eax+ecx], edx

; 787  : 			mat[0][2] = 0;

	mov	eax, 16					; 00000010H
	imul	ecx, eax, 0
	add	ecx, DWORD PTR _this$[ebp]
	call	??BVector4D@@QAEPAMXZ			; Vector4D::operator float *
	mov	ecx, 4
	shl	ecx, 1
	xorps	xmm0, xmm0
	movss	DWORD PTR [eax+ecx], xmm0

; 788  : 			mat[1][2] = 0;

	mov	ecx, 16					; 00000010H
	shl	ecx, 0
	add	ecx, DWORD PTR _this$[ebp]
	call	??BVector4D@@QAEPAMXZ			; Vector4D::operator float *
	mov	ecx, 4
	shl	ecx, 1
	xorps	xmm0, xmm0
	movss	DWORD PTR [eax+ecx], xmm0

; 789  : 			mat[2][2] = scale;

	mov	ecx, 16					; 00000010H
	shl	ecx, 1
	add	ecx, DWORD PTR _this$[ebp]
	call	??BVector4D@@QAEPAMXZ			; Vector4D::operator float *
	mov	ecx, 4
	shl	ecx, 1
	movss	xmm0, DWORD PTR _scale$[ebp]
	movss	DWORD PTR [eax+ecx], xmm0

; 790  : 			mat[3][2] = origin.z;

	mov	eax, 16					; 00000010H
	imul	ecx, eax, 3
	add	ecx, DWORD PTR _this$[ebp]
	call	??BVector4D@@QAEPAMXZ			; Vector4D::operator float *
	mov	ecx, 4
	shl	ecx, 1
	mov	edx, DWORD PTR _origin$[ebp]
	mov	edx, DWORD PTR [edx+8]
	mov	DWORD PTR [eax+ecx], edx

; 791  : 			mat[0][3] = 0;

	mov	eax, 16					; 00000010H
	imul	ecx, eax, 0
	add	ecx, DWORD PTR _this$[ebp]
	call	??BVector4D@@QAEPAMXZ			; Vector4D::operator float *
	mov	ecx, 4
	imul	edx, ecx, 3
	xorps	xmm0, xmm0
	movss	DWORD PTR [eax+edx], xmm0

; 792  : 			mat[1][3] = 0;

	mov	ecx, 16					; 00000010H
	shl	ecx, 0
	add	ecx, DWORD PTR _this$[ebp]
	call	??BVector4D@@QAEPAMXZ			; Vector4D::operator float *
	mov	ecx, 4
	imul	edx, ecx, 3
	xorps	xmm0, xmm0
	movss	DWORD PTR [eax+edx], xmm0

; 793  : 			mat[2][3] = 0;

	mov	ecx, 16					; 00000010H
	shl	ecx, 1
	add	ecx, DWORD PTR _this$[ebp]
	call	??BVector4D@@QAEPAMXZ			; Vector4D::operator float *
	mov	ecx, 4
	imul	edx, ecx, 3
	xorps	xmm0, xmm0
	movss	DWORD PTR [eax+edx], xmm0

; 794  : 			mat[3][3] = 1;

	mov	eax, 16					; 00000010H
	imul	ecx, eax, 3
	add	ecx, DWORD PTR _this$[ebp]
	call	??BVector4D@@QAEPAMXZ			; Vector4D::operator float *
	mov	ecx, 4
	imul	edx, ecx, 3
	movss	xmm0, DWORD PTR __real@3f800000
	movss	DWORD PTR [eax+edx], xmm0
$LN7@matrix4x4:

; 795  : 		}
; 796  : 	}

	mov	eax, DWORD PTR _this$[ebp]
	pop	edi
	pop	esi
	pop	ebx
	mov	esp, ebp
	pop	ebp
	ret	12					; 0000000cH
??0matrix4x4@@QAE@ABVVector@@0M@Z ENDP			; matrix4x4::matrix4x4
_TEXT	ENDS
; Function compile flags: /Odtp /ZI
; File d:\!diffusion 2020\source code 2022\client-server\game_shared\vector.h
;	COMDAT ??BVector4D@@QAEPAMXZ
_TEXT	SEGMENT
_this$ = -4						; size = 4
??BVector4D@@QAEPAMXZ PROC				; Vector4D::operator float *, COMDAT
; _this$ = ecx

; 344  : 	operator float *()					{ return &x; }

	push	ebp
	mov	ebp, esp
	sub	esp, 68					; 00000044H
	push	ebx
	push	esi
	push	edi
	mov	DWORD PTR _this$[ebp], ecx
	mov	eax, DWORD PTR _this$[ebp]
	pop	edi
	pop	esi
	pop	ebx
	mov	esp, ebp
	pop	ebp
	ret	0
??BVector4D@@QAEPAMXZ ENDP				; Vector4D::operator float *
_TEXT	ENDS
; Function compile flags: /Odtp /ZI
; File d:\!diffusion 2020\source code 2022\client-server\game_shared\vector.h
;	COMDAT ??0Vector4D@@QAE@XZ
_TEXT	SEGMENT
_this$ = -4						; size = 4
??0Vector4D@@QAE@XZ PROC				; Vector4D::Vector4D, COMDAT
; _this$ = ecx

; 330  : 	inline Vector4D( void ) { }

	push	ebp
	mov	ebp, esp
	sub	esp, 68					; 00000044H
	push	ebx
	push	esi
	push	edi
	mov	DWORD PTR _this$[ebp], ecx
	mov	eax, DWORD PTR _this$[ebp]
	pop	edi
	pop	esi
	pop	ebx
	mov	esp, ebp
	pop	ebp
	ret	0
??0Vector4D@@QAE@XZ ENDP				; Vector4D::Vector4D
_TEXT	ENDS
; Function compile flags: /Odtp /ZI
; File d:\!diffusion 2020\source code 2022\client-server\game_shared\vector.h
;	COMDAT ?CrossProduct@@YA?AVVector@@ABV1@0@Z
_TEXT	SEGMENT
___$ReturnUdt$ = 8					; size = 4
_a$ = 12						; size = 4
_b$ = 16						; size = 4
?CrossProduct@@YA?AVVector@@ABV1@0@Z PROC		; CrossProduct, COMDAT

; 310  : inline Vector CrossProduct( const Vector& a, const Vector& b ) { return Vector( a.y*b.z - a.z*b.y, a.z*b.x - a.x*b.z, a.x*b.y - a.y*b.x ); }

	push	ebp
	mov	ebp, esp
	sub	esp, 64					; 00000040H
	push	ebx
	push	esi
	push	edi
	mov	eax, DWORD PTR _a$[ebp]
	mov	ecx, DWORD PTR _b$[ebp]
	movss	xmm0, DWORD PTR [eax]
	mulss	xmm0, DWORD PTR [ecx+4]
	mov	edx, DWORD PTR _a$[ebp]
	mov	eax, DWORD PTR _b$[ebp]
	movss	xmm1, DWORD PTR [edx+4]
	mulss	xmm1, DWORD PTR [eax]
	subss	xmm0, xmm1
	push	ecx
	movss	DWORD PTR [esp], xmm0
	mov	ecx, DWORD PTR _a$[ebp]
	mov	edx, DWORD PTR _b$[ebp]
	movss	xmm0, DWORD PTR [ecx+8]
	mulss	xmm0, DWORD PTR [edx]
	mov	eax, DWORD PTR _a$[ebp]
	mov	ecx, DWORD PTR _b$[ebp]
	movss	xmm1, DWORD PTR [eax]
	mulss	xmm1, DWORD PTR [ecx+8]
	subss	xmm0, xmm1
	push	ecx
	movss	DWORD PTR [esp], xmm0
	mov	edx, DWORD PTR _a$[ebp]
	mov	eax, DWORD PTR _b$[ebp]
	movss	xmm0, DWORD PTR [edx+4]
	mulss	xmm0, DWORD PTR [eax+8]
	mov	ecx, DWORD PTR _a$[ebp]
	mov	edx, DWORD PTR _b$[ebp]
	movss	xmm1, DWORD PTR [ecx+8]
	mulss	xmm1, DWORD PTR [edx+4]
	subss	xmm0, xmm1
	push	ecx
	movss	DWORD PTR [esp], xmm0
	mov	ecx, DWORD PTR ___$ReturnUdt$[ebp]
	call	??0Vector@@QAE@MMM@Z			; Vector::Vector
	mov	eax, DWORD PTR ___$ReturnUdt$[ebp]
	pop	edi
	pop	esi
	pop	ebx
	mov	esp, ebp
	pop	ebp
	ret	0
?CrossProduct@@YA?AVVector@@ABV1@0@Z ENDP		; CrossProduct
_TEXT	ENDS
; Function compile flags: /Odtp /ZI
; File d:\!diffusion 2020\source code 2022\client-server\game_shared\vector.h
;	COMDAT ?DotProduct@@YAMABVVector@@0@Z
_TEXT	SEGMENT
tv86 = -68						; size = 4
_a$ = 8							; size = 4
_b$ = 12						; size = 4
?DotProduct@@YAMABVVector@@0@Z PROC			; DotProduct, COMDAT

; 308  : inline float DotProduct(const Vector& a, const Vector& b ) { return( a.x * b.x + a.y * b.y + a.z * b.z ); }

	push	ebp
	mov	ebp, esp
	sub	esp, 68					; 00000044H
	push	ebx
	push	esi
	push	edi
	mov	eax, DWORD PTR _a$[ebp]
	mov	ecx, DWORD PTR _b$[ebp]
	movss	xmm0, DWORD PTR [eax]
	mulss	xmm0, DWORD PTR [ecx]
	mov	edx, DWORD PTR _a$[ebp]
	mov	eax, DWORD PTR _b$[ebp]
	movss	xmm1, DWORD PTR [edx+4]
	mulss	xmm1, DWORD PTR [eax+4]
	addss	xmm0, xmm1
	mov	ecx, DWORD PTR _a$[ebp]
	mov	edx, DWORD PTR _b$[ebp]
	movss	xmm1, DWORD PTR [ecx+8]
	mulss	xmm1, DWORD PTR [edx+8]
	addss	xmm0, xmm1
	movss	DWORD PTR tv86[ebp], xmm0
	fld	DWORD PTR tv86[ebp]
	pop	edi
	pop	esi
	pop	ebx
	mov	esp, ebp
	pop	ebp
	ret	0
?DotProduct@@YAMABVVector@@0@Z ENDP			; DotProduct
_TEXT	ENDS
; Function compile flags: /Odtp /ZI
; File d:\!diffusion 2020\source code 2022\client-server\game_shared\vector.h
;	COMDAT ??BVector@@QBEPBMXZ
_TEXT	SEGMENT
_this$ = -4						; size = 4
??BVector@@QBEPBMXZ PROC				; Vector::operator float const *, COMDAT
; _this$ = ecx

; 248  : 	operator const float *() const		{ return &x; } 

	push	ebp
	mov	ebp, esp
	sub	esp, 68					; 00000044H
	push	ebx
	push	esi
	push	edi
	mov	DWORD PTR _this$[ebp], ecx
	mov	eax, DWORD PTR _this$[ebp]
	pop	edi
	pop	esi
	pop	ebx
	mov	esp, ebp
	pop	ebp
	ret	0
??BVector@@QBEPBMXZ ENDP				; Vector::operator float const *
_TEXT	ENDS
; Function compile flags: /Odtp /ZI
; File d:\!diffusion 2020\source code 2022\client-server\game_shared\vector.h
;	COMDAT ??BVector@@QAEPAMXZ
_TEXT	SEGMENT
_this$ = -4						; size = 4
??BVector@@QAEPAMXZ PROC				; Vector::operator float *, COMDAT
; _this$ = ecx

; 247  : 	operator float *()				{ return &x; } // Vectors will now automatically convert to float * when needed

	push	ebp
	mov	ebp, esp
	sub	esp, 68					; 00000044H
	push	ebx
	push	esi
	push	edi
	mov	DWORD PTR _this$[ebp], ecx
	mov	eax, DWORD PTR _this$[ebp]
	pop	edi
	pop	esi
	pop	ebx
	mov	esp, ebp
	pop	ebp
	ret	0
??BVector@@QAEPAMXZ ENDP				; Vector::operator float *
_TEXT	ENDS
; Function compile flags: /Odtp /ZI
; File d:\!diffusion 2020\source code 2022\client-server\game_shared\vector.h
;	COMDAT ??ZVector@@QAEAAV0@ABV0@@Z
_TEXT	SEGMENT
_this$ = -4						; size = 4
_v$ = 8							; size = 4
??ZVector@@QAEAAV0@ABV0@@Z PROC				; Vector::operator-=, COMDAT
; _this$ = ecx

; 173  : 	{

	push	ebp
	mov	ebp, esp
	sub	esp, 68					; 00000044H
	push	ebx
	push	esi
	push	edi
	mov	DWORD PTR _this$[ebp], ecx

; 174  : 		x-=v.x; y-=v.y; z -= v.z;	

	mov	eax, DWORD PTR _this$[ebp]
	mov	ecx, DWORD PTR _v$[ebp]
	movss	xmm0, DWORD PTR [eax]
	subss	xmm0, DWORD PTR [ecx]
	mov	edx, DWORD PTR _this$[ebp]
	movss	DWORD PTR [edx], xmm0
	mov	eax, DWORD PTR _this$[ebp]
	mov	ecx, DWORD PTR _v$[ebp]
	movss	xmm0, DWORD PTR [eax+4]
	subss	xmm0, DWORD PTR [ecx+4]
	mov	edx, DWORD PTR _this$[ebp]
	movss	DWORD PTR [edx+4], xmm0
	mov	eax, DWORD PTR _this$[ebp]
	mov	ecx, DWORD PTR _v$[ebp]
	movss	xmm0, DWORD PTR [eax+8]
	subss	xmm0, DWORD PTR [ecx+8]
	mov	edx, DWORD PTR _this$[ebp]
	movss	DWORD PTR [edx+8], xmm0

; 175  : 		return *this;

	mov	eax, DWORD PTR _this$[ebp]

; 176  : 	}		

	pop	edi
	pop	esi
	pop	ebx
	mov	esp, ebp
	pop	ebp
	ret	4
??ZVector@@QAEAAV0@ABV0@@Z ENDP				; Vector::operator-=
_TEXT	ENDS
; Function compile flags: /Odtp /ZI
; File d:\!diffusion 2020\source code 2022\client-server\game_shared\vector.h
;	COMDAT ??YVector@@QAEAAV0@ABV0@@Z
_TEXT	SEGMENT
_this$ = -4						; size = 4
_v$ = 8							; size = 4
??YVector@@QAEAAV0@ABV0@@Z PROC				; Vector::operator+=, COMDAT
; _this$ = ecx

; 168  : 	{

	push	ebp
	mov	ebp, esp
	sub	esp, 68					; 00000044H
	push	ebx
	push	esi
	push	edi
	mov	DWORD PTR _this$[ebp], ecx

; 169  : 		x+=v.x; y+=v.y; z += v.z;	

	mov	eax, DWORD PTR _this$[ebp]
	mov	ecx, DWORD PTR _v$[ebp]
	movss	xmm0, DWORD PTR [eax]
	addss	xmm0, DWORD PTR [ecx]
	mov	edx, DWORD PTR _this$[ebp]
	movss	DWORD PTR [edx], xmm0
	mov	eax, DWORD PTR _this$[ebp]
	mov	ecx, DWORD PTR _v$[ebp]
	movss	xmm0, DWORD PTR [eax+4]
	addss	xmm0, DWORD PTR [ecx+4]
	mov	edx, DWORD PTR _this$[ebp]
	movss	DWORD PTR [edx+4], xmm0
	mov	eax, DWORD PTR _this$[ebp]
	mov	ecx, DWORD PTR _v$[ebp]
	movss	xmm0, DWORD PTR [eax+8]
	addss	xmm0, DWORD PTR [ecx+8]
	mov	edx, DWORD PTR _this$[ebp]
	movss	DWORD PTR [edx+8], xmm0

; 170  : 		return *this;

	mov	eax, DWORD PTR _this$[ebp]

; 171  : 	}			

	pop	edi
	pop	esi
	pop	ebx
	mov	esp, ebp
	pop	ebp
	ret	4
??YVector@@QAEAAV0@ABV0@@Z ENDP				; Vector::operator+=
_TEXT	ENDS
; Function compile flags: /Odtp /ZI
; File d:\!diffusion 2020\source code 2022\client-server\game_shared\vector.h
;	COMDAT ??DVector@@QBE?AV0@M@Z
_TEXT	SEGMENT
_this$ = -4						; size = 4
___$ReturnUdt$ = 8					; size = 4
_fl$ = 12						; size = 4
??DVector@@QBE?AV0@M@Z PROC				; Vector::operator*, COMDAT
; _this$ = ecx

; 162  : 	inline Vector operator*(float fl) const		{ return Vector(x*fl, y*fl, z*fl);	   }

	push	ebp
	mov	ebp, esp
	sub	esp, 68					; 00000044H
	push	ebx
	push	esi
	push	edi
	mov	DWORD PTR _this$[ebp], ecx
	mov	eax, DWORD PTR _this$[ebp]
	movss	xmm0, DWORD PTR [eax+8]
	mulss	xmm0, DWORD PTR _fl$[ebp]
	push	ecx
	movss	DWORD PTR [esp], xmm0
	mov	ecx, DWORD PTR _this$[ebp]
	movss	xmm0, DWORD PTR [ecx+4]
	mulss	xmm0, DWORD PTR _fl$[ebp]
	push	ecx
	movss	DWORD PTR [esp], xmm0
	mov	edx, DWORD PTR _this$[ebp]
	movss	xmm0, DWORD PTR [edx]
	mulss	xmm0, DWORD PTR _fl$[ebp]
	push	ecx
	movss	DWORD PTR [esp], xmm0
	mov	ecx, DWORD PTR ___$ReturnUdt$[ebp]
	call	??0Vector@@QAE@MMM@Z			; Vector::Vector
	mov	eax, DWORD PTR ___$ReturnUdt$[ebp]
	pop	edi
	pop	esi
	pop	ebx
	mov	esp, ebp
	pop	ebp
	ret	8
??DVector@@QBE?AV0@M@Z ENDP				; Vector::operator*
_TEXT	ENDS
; Function compile flags: /Odtp /ZI
; File d:\!diffusion 2020\source code 2022\client-server\game_shared\vector.h
;	COMDAT ??GVector@@QBE?AV0@M@Z
_TEXT	SEGMENT
_this$ = -4						; size = 4
___$ReturnUdt$ = 8					; size = 4
_fl$ = 12						; size = 4
??GVector@@QBE?AV0@M@Z PROC				; Vector::operator-, COMDAT
; _this$ = ecx

; 161  : 	inline Vector operator-(float fl) const		{ return Vector(x-fl, y-fl, z-fl);	   }

	push	ebp
	mov	ebp, esp
	sub	esp, 68					; 00000044H
	push	ebx
	push	esi
	push	edi
	mov	DWORD PTR _this$[ebp], ecx
	mov	eax, DWORD PTR _this$[ebp]
	movss	xmm0, DWORD PTR [eax+8]
	subss	xmm0, DWORD PTR _fl$[ebp]
	push	ecx
	movss	DWORD PTR [esp], xmm0
	mov	ecx, DWORD PTR _this$[ebp]
	movss	xmm0, DWORD PTR [ecx+4]
	subss	xmm0, DWORD PTR _fl$[ebp]
	push	ecx
	movss	DWORD PTR [esp], xmm0
	mov	edx, DWORD PTR _this$[ebp]
	movss	xmm0, DWORD PTR [edx]
	subss	xmm0, DWORD PTR _fl$[ebp]
	push	ecx
	movss	DWORD PTR [esp], xmm0
	mov	ecx, DWORD PTR ___$ReturnUdt$[ebp]
	call	??0Vector@@QAE@MMM@Z			; Vector::Vector
	mov	eax, DWORD PTR ___$ReturnUdt$[ebp]
	pop	edi
	pop	esi
	pop	ebx
	mov	esp, ebp
	pop	ebp
	ret	8
??GVector@@QBE?AV0@M@Z ENDP				; Vector::operator-
_TEXT	ENDS
; Function compile flags: /Odtp /ZI
; File d:\!diffusion 2020\source code 2022\client-server\game_shared\vector.h
;	COMDAT ??HVector@@QBE?AV0@M@Z
_TEXT	SEGMENT
_this$ = -4						; size = 4
___$ReturnUdt$ = 8					; size = 4
_fl$ = 12						; size = 4
??HVector@@QBE?AV0@M@Z PROC				; Vector::operator+, COMDAT
; _this$ = ecx

; 160  : 	inline Vector operator+(float fl) const		{ return Vector(x+fl, y+fl, z+fl);	   }

	push	ebp
	mov	ebp, esp
	sub	esp, 68					; 00000044H
	push	ebx
	push	esi
	push	edi
	mov	DWORD PTR _this$[ebp], ecx
	mov	eax, DWORD PTR _this$[ebp]
	movss	xmm0, DWORD PTR [eax+8]
	addss	xmm0, DWORD PTR _fl$[ebp]
	push	ecx
	movss	DWORD PTR [esp], xmm0
	mov	ecx, DWORD PTR _this$[ebp]
	movss	xmm0, DWORD PTR [ecx+4]
	addss	xmm0, DWORD PTR _fl$[ebp]
	push	ecx
	movss	DWORD PTR [esp], xmm0
	mov	edx, DWORD PTR _this$[ebp]
	movss	xmm0, DWORD PTR [edx]
	addss	xmm0, DWORD PTR _fl$[ebp]
	push	ecx
	movss	DWORD PTR [esp], xmm0
	mov	ecx, DWORD PTR ___$ReturnUdt$[ebp]
	call	??0Vector@@QAE@MMM@Z			; Vector::Vector
	mov	eax, DWORD PTR ___$ReturnUdt$[ebp]
	pop	edi
	pop	esi
	pop	ebx
	mov	esp, ebp
	pop	ebp
	ret	8
??HVector@@QBE?AV0@M@Z ENDP				; Vector::operator+
_TEXT	ENDS
; Function compile flags: /Odtp /ZI
; File d:\!diffusion 2020\source code 2022\client-server\game_shared\vector.h
;	COMDAT ??GVector@@QBE?AV0@ABV0@@Z
_TEXT	SEGMENT
_this$ = -4						; size = 4
___$ReturnUdt$ = 8					; size = 4
_v$ = 12						; size = 4
??GVector@@QBE?AV0@ABV0@@Z PROC				; Vector::operator-, COMDAT
; _this$ = ecx

; 159  : 	inline Vector operator-(const Vector& v) const	{ return Vector(x-v.x, y-v.y, z-v.z);	   }

	push	ebp
	mov	ebp, esp
	sub	esp, 68					; 00000044H
	push	ebx
	push	esi
	push	edi
	mov	DWORD PTR _this$[ebp], ecx
	mov	eax, DWORD PTR _this$[ebp]
	mov	ecx, DWORD PTR _v$[ebp]
	movss	xmm0, DWORD PTR [eax+8]
	subss	xmm0, DWORD PTR [ecx+8]
	push	ecx
	movss	DWORD PTR [esp], xmm0
	mov	edx, DWORD PTR _this$[ebp]
	mov	eax, DWORD PTR _v$[ebp]
	movss	xmm0, DWORD PTR [edx+4]
	subss	xmm0, DWORD PTR [eax+4]
	push	ecx
	movss	DWORD PTR [esp], xmm0
	mov	ecx, DWORD PTR _this$[ebp]
	mov	edx, DWORD PTR _v$[ebp]
	movss	xmm0, DWORD PTR [ecx]
	subss	xmm0, DWORD PTR [edx]
	push	ecx
	movss	DWORD PTR [esp], xmm0
	mov	ecx, DWORD PTR ___$ReturnUdt$[ebp]
	call	??0Vector@@QAE@MMM@Z			; Vector::Vector
	mov	eax, DWORD PTR ___$ReturnUdt$[ebp]
	pop	edi
	pop	esi
	pop	ebx
	mov	esp, ebp
	pop	ebp
	ret	8
??GVector@@QBE?AV0@ABV0@@Z ENDP				; Vector::operator-
_TEXT	ENDS
; Function compile flags: /Odtp /ZI
; File d:\!diffusion 2020\source code 2022\client-server\game_shared\vector.h
;	COMDAT ??HVector@@QBE?AV0@ABV0@@Z
_TEXT	SEGMENT
_this$ = -4						; size = 4
___$ReturnUdt$ = 8					; size = 4
_v$ = 12						; size = 4
??HVector@@QBE?AV0@ABV0@@Z PROC				; Vector::operator+, COMDAT
; _this$ = ecx

; 158  : 	inline Vector operator+(const Vector& v) const	{ return Vector(x+v.x, y+v.y, z+v.z);	   }

	push	ebp
	mov	ebp, esp
	sub	esp, 68					; 00000044H
	push	ebx
	push	esi
	push	edi
	mov	DWORD PTR _this$[ebp], ecx
	mov	eax, DWORD PTR _this$[ebp]
	mov	ecx, DWORD PTR _v$[ebp]
	movss	xmm0, DWORD PTR [eax+8]
	addss	xmm0, DWORD PTR [ecx+8]
	push	ecx
	movss	DWORD PTR [esp], xmm0
	mov	edx, DWORD PTR _this$[ebp]
	mov	eax, DWORD PTR _v$[ebp]
	movss	xmm0, DWORD PTR [edx+4]
	addss	xmm0, DWORD PTR [eax+4]
	push	ecx
	movss	DWORD PTR [esp], xmm0
	mov	ecx, DWORD PTR _this$[ebp]
	mov	edx, DWORD PTR _v$[ebp]
	movss	xmm0, DWORD PTR [ecx]
	addss	xmm0, DWORD PTR [edx]
	push	ecx
	movss	DWORD PTR [esp], xmm0
	mov	ecx, DWORD PTR ___$ReturnUdt$[ebp]
	call	??0Vector@@QAE@MMM@Z			; Vector::Vector
	mov	eax, DWORD PTR ___$ReturnUdt$[ebp]
	pop	edi
	pop	esi
	pop	ebx
	mov	esp, ebp
	pop	ebp
	ret	8
??HVector@@QBE?AV0@ABV0@@Z ENDP				; Vector::operator+
_TEXT	ENDS
; Function compile flags: /Odtp /ZI
; File d:\!diffusion 2020\source code 2022\client-server\game_shared\vector.h
;	COMDAT ??9Vector@@QBEHABV0@@Z
_TEXT	SEGMENT
tv68 = -72						; size = 4
_this$ = -4						; size = 4
_v$ = 8							; size = 4
??9Vector@@QBEHABV0@@Z PROC				; Vector::operator!=, COMDAT
; _this$ = ecx

; 157  : 	inline int operator!=(const Vector& v) const	{ return !(*this==v);		   }

	push	ebp
	mov	ebp, esp
	sub	esp, 72					; 00000048H
	push	ebx
	push	esi
	push	edi
	mov	DWORD PTR _this$[ebp], ecx
	mov	eax, DWORD PTR _v$[ebp]
	push	eax
	mov	ecx, DWORD PTR _this$[ebp]
	call	??8Vector@@QBEHABV0@@Z			; Vector::operator==
	test	eax, eax
	jne	SHORT $LN3@operator
	mov	DWORD PTR tv68[ebp], 1
	jmp	SHORT $LN4@operator
$LN3@operator:
	mov	DWORD PTR tv68[ebp], 0
$LN4@operator:
	mov	eax, DWORD PTR tv68[ebp]
	pop	edi
	pop	esi
	pop	ebx
	mov	esp, ebp
	pop	ebp
	ret	4
??9Vector@@QBEHABV0@@Z ENDP				; Vector::operator!=
_TEXT	ENDS
; Function compile flags: /Odtp /ZI
; File d:\!diffusion 2020\source code 2022\client-server\game_shared\vector.h
;	COMDAT ??8Vector@@QBEHABV0@@Z
_TEXT	SEGMENT
tv73 = -72						; size = 4
_this$ = -4						; size = 4
_v$ = 8							; size = 4
??8Vector@@QBEHABV0@@Z PROC				; Vector::operator==, COMDAT
; _this$ = ecx

; 156  : 	inline int operator==(const Vector& v) const	{ return x==v.x && y==v.y && z==v.z;	   }

	push	ebp
	mov	ebp, esp
	sub	esp, 72					; 00000048H
	push	ebx
	push	esi
	push	edi
	mov	DWORD PTR _this$[ebp], ecx
	mov	eax, DWORD PTR _this$[ebp]
	mov	ecx, DWORD PTR _v$[ebp]
	movss	xmm0, DWORD PTR [eax]
	ucomiss	xmm0, DWORD PTR [ecx]
	lahf
	test	ah, 68					; 00000044H
	jp	SHORT $LN3@operator
	mov	edx, DWORD PTR _this$[ebp]
	mov	eax, DWORD PTR _v$[ebp]
	movss	xmm0, DWORD PTR [edx+4]
	ucomiss	xmm0, DWORD PTR [eax+4]
	lahf
	test	ah, 68					; 00000044H
	jp	SHORT $LN3@operator
	mov	ecx, DWORD PTR _this$[ebp]
	mov	edx, DWORD PTR _v$[ebp]
	movss	xmm0, DWORD PTR [ecx+8]
	ucomiss	xmm0, DWORD PTR [edx+8]
	lahf
	test	ah, 68					; 00000044H
	jp	SHORT $LN3@operator
	mov	DWORD PTR tv73[ebp], 1
	jmp	SHORT $LN4@operator
$LN3@operator:
	mov	DWORD PTR tv73[ebp], 0
$LN4@operator:
	mov	eax, DWORD PTR tv73[ebp]
	pop	edi
	pop	esi
	pop	ebx
	mov	esp, ebp
	pop	ebp
	ret	4
??8Vector@@QBEHABV0@@Z ENDP				; Vector::operator==
_TEXT	ENDS
; Function compile flags: /Odtp /ZI
; File d:\!diffusion 2020\source code 2022\client-server\game_shared\vector.h
;	COMDAT ??GVector@@QBE?AV0@XZ
_TEXT	SEGMENT
_this$ = -4						; size = 4
___$ReturnUdt$ = 8					; size = 4
??GVector@@QBE?AV0@XZ PROC				; Vector::operator-, COMDAT
; _this$ = ecx

; 155  : 	inline Vector operator-(void) const		{ return Vector(-x,-y,-z);		   }

	push	ebp
	mov	ebp, esp
	sub	esp, 68					; 00000044H
	push	ebx
	push	esi
	push	edi
	mov	DWORD PTR _this$[ebp], ecx
	mov	eax, DWORD PTR _this$[ebp]
	movss	xmm0, DWORD PTR [eax+8]
	xorps	xmm0, DWORD PTR __xmm@80000000800000008000000080000000
	push	ecx
	movss	DWORD PTR [esp], xmm0
	mov	ecx, DWORD PTR _this$[ebp]
	movss	xmm0, DWORD PTR [ecx+4]
	xorps	xmm0, DWORD PTR __xmm@80000000800000008000000080000000
	push	ecx
	movss	DWORD PTR [esp], xmm0
	mov	edx, DWORD PTR _this$[ebp]
	movss	xmm0, DWORD PTR [edx]
	xorps	xmm0, DWORD PTR __xmm@80000000800000008000000080000000
	push	ecx
	movss	DWORD PTR [esp], xmm0
	mov	ecx, DWORD PTR ___$ReturnUdt$[ebp]
	call	??0Vector@@QAE@MMM@Z			; Vector::Vector
	mov	eax, DWORD PTR ___$ReturnUdt$[ebp]
	pop	edi
	pop	esi
	pop	ebx
	mov	esp, ebp
	pop	ebp
	ret	4
??GVector@@QBE?AV0@XZ ENDP				; Vector::operator-
_TEXT	ENDS
; Function compile flags: /Odtp /ZI
; File d:\!diffusion 2020\source code 2022\client-server\game_shared\vector.h
;	COMDAT ??0Vector@@QAE@QAM@Z
_TEXT	SEGMENT
_this$ = -4						; size = 4
_rgfl$ = 8						; size = 4
??0Vector@@QAE@QAM@Z PROC				; Vector::Vector, COMDAT
; _this$ = ecx

; 147  : 	inline Vector(float rgfl[3])			{ x = rgfl[0]; y = rgfl[1]; z = rgfl[2];   }

	push	ebp
	mov	ebp, esp
	sub	esp, 68					; 00000044H
	push	ebx
	push	esi
	push	edi
	mov	DWORD PTR _this$[ebp], ecx
	mov	eax, 4
	imul	ecx, eax, 0
	mov	edx, DWORD PTR _this$[ebp]
	mov	eax, DWORD PTR _rgfl$[ebp]
	mov	ecx, DWORD PTR [eax+ecx]
	mov	DWORD PTR [edx], ecx
	mov	eax, 4
	shl	eax, 0
	mov	ecx, DWORD PTR _this$[ebp]
	mov	edx, DWORD PTR _rgfl$[ebp]
	mov	eax, DWORD PTR [edx+eax]
	mov	DWORD PTR [ecx+4], eax
	mov	eax, 4
	shl	eax, 1
	mov	ecx, DWORD PTR _this$[ebp]
	mov	edx, DWORD PTR _rgfl$[ebp]
	mov	eax, DWORD PTR [edx+eax]
	mov	DWORD PTR [ecx+8], eax
	mov	eax, DWORD PTR _this$[ebp]
	pop	edi
	pop	esi
	pop	ebx
	mov	esp, ebp
	pop	ebp
	ret	4
??0Vector@@QAE@QAM@Z ENDP				; Vector::Vector
_TEXT	ENDS
; Function compile flags: /Odtp /ZI
; File d:\!diffusion 2020\source code 2022\client-server\game_shared\vector.h
;	COMDAT ??0Vector@@QAE@PBM@Z
_TEXT	SEGMENT
_this$ = -4						; size = 4
_rgfl$ = 8						; size = 4
??0Vector@@QAE@PBM@Z PROC				; Vector::Vector, COMDAT
; _this$ = ecx

; 146  : 	inline Vector( const float *rgfl )		{ x = rgfl[0]; y = rgfl[1]; z = rgfl[2];   }

	push	ebp
	mov	ebp, esp
	sub	esp, 68					; 00000044H
	push	ebx
	push	esi
	push	edi
	mov	DWORD PTR _this$[ebp], ecx
	mov	eax, 4
	imul	ecx, eax, 0
	mov	edx, DWORD PTR _this$[ebp]
	mov	eax, DWORD PTR _rgfl$[ebp]
	mov	ecx, DWORD PTR [eax+ecx]
	mov	DWORD PTR [edx], ecx
	mov	eax, 4
	shl	eax, 0
	mov	ecx, DWORD PTR _this$[ebp]
	mov	edx, DWORD PTR _rgfl$[ebp]
	mov	eax, DWORD PTR [edx+eax]
	mov	DWORD PTR [ecx+4], eax
	mov	eax, 4
	shl	eax, 1
	mov	ecx, DWORD PTR _this$[ebp]
	mov	edx, DWORD PTR _rgfl$[ebp]
	mov	eax, DWORD PTR [edx+eax]
	mov	DWORD PTR [ecx+8], eax
	mov	eax, DWORD PTR _this$[ebp]
	pop	edi
	pop	esi
	pop	ebx
	mov	esp, ebp
	pop	ebp
	ret	4
??0Vector@@QAE@PBM@Z ENDP				; Vector::Vector
_TEXT	ENDS
; Function compile flags: /Odtp /ZI
; File d:\!diffusion 2020\source code 2022\client-server\game_shared\vector.h
;	COMDAT ??0Vector@@QAE@ABV0@@Z
_TEXT	SEGMENT
_this$ = -4						; size = 4
_v$ = 8							; size = 4
??0Vector@@QAE@ABV0@@Z PROC				; Vector::Vector, COMDAT
; _this$ = ecx

; 145  : 	inline Vector(const Vector& v)		{ x = v.x; y = v.y; z = v.z;		   }

	push	ebp
	mov	ebp, esp
	sub	esp, 68					; 00000044H
	push	ebx
	push	esi
	push	edi
	mov	DWORD PTR _this$[ebp], ecx
	mov	eax, DWORD PTR _this$[ebp]
	mov	ecx, DWORD PTR _v$[ebp]
	mov	edx, DWORD PTR [ecx]
	mov	DWORD PTR [eax], edx
	mov	eax, DWORD PTR _this$[ebp]
	mov	ecx, DWORD PTR _v$[ebp]
	mov	edx, DWORD PTR [ecx+4]
	mov	DWORD PTR [eax+4], edx
	mov	eax, DWORD PTR _this$[ebp]
	mov	ecx, DWORD PTR _v$[ebp]
	mov	edx, DWORD PTR [ecx+8]
	mov	DWORD PTR [eax+8], edx
	mov	eax, DWORD PTR _this$[ebp]
	pop	edi
	pop	esi
	pop	ebx
	mov	esp, ebp
	pop	ebp
	ret	4
??0Vector@@QAE@ABV0@@Z ENDP				; Vector::Vector
_TEXT	ENDS
; Function compile flags: /Odtp /ZI
; File d:\!diffusion 2020\source code 2022\client-server\game_shared\vector.h
;	COMDAT ??0Vector@@QAE@MMM@Z
_TEXT	SEGMENT
_this$ = -4						; size = 4
_X$ = 8							; size = 4
_Y$ = 12						; size = 4
_Z$ = 16						; size = 4
??0Vector@@QAE@MMM@Z PROC				; Vector::Vector, COMDAT
; _this$ = ecx

; 144  : 	inline Vector(float X, float Y, float Z)	{ x = X; y = Y; z = Z;                     }

	push	ebp
	mov	ebp, esp
	sub	esp, 68					; 00000044H
	push	ebx
	push	esi
	push	edi
	mov	DWORD PTR _this$[ebp], ecx
	mov	eax, DWORD PTR _this$[ebp]
	movss	xmm0, DWORD PTR _X$[ebp]
	movss	DWORD PTR [eax], xmm0
	mov	eax, DWORD PTR _this$[ebp]
	movss	xmm0, DWORD PTR _Y$[ebp]
	movss	DWORD PTR [eax+4], xmm0
	mov	eax, DWORD PTR _this$[ebp]
	movss	xmm0, DWORD PTR _Z$[ebp]
	movss	DWORD PTR [eax+8], xmm0
	mov	eax, DWORD PTR _this$[ebp]
	pop	edi
	pop	esi
	pop	ebx
	mov	esp, ebp
	pop	ebp
	ret	12					; 0000000cH
??0Vector@@QAE@MMM@Z ENDP				; Vector::Vector
_TEXT	ENDS
; Function compile flags: /Odtp /ZI
; File d:\!diffusion 2020\source code 2022\client-server\game_shared\vector.h
;	COMDAT ??0Vector@@QAE@XZ
_TEXT	SEGMENT
_this$ = -4						; size = 4
??0Vector@@QAE@XZ PROC					; Vector::Vector, COMDAT
; _this$ = ecx

; 143  : 	inline Vector(void)				{ }

	push	ebp
	mov	ebp, esp
	sub	esp, 68					; 00000044H
	push	ebx
	push	esi
	push	edi
	mov	DWORD PTR _this$[ebp], ecx
	mov	eax, DWORD PTR _this$[ebp]
	pop	edi
	pop	esi
	pop	ebx
	mov	esp, ebp
	pop	ebp
	ret	0
??0Vector@@QAE@XZ ENDP					; Vector::Vector
_TEXT	ENDS
; Function compile flags: /Odtp /ZI
; File d:\!diffusion 2020\source code 2022\client-server\game_shared\vector.h
;	COMDAT ?SinCos@@YAXMPAM0@Z
_TEXT	SEGMENT
_angle$ = 8						; size = 4
_sine$ = 12						; size = 4
_cosine$ = 16						; size = 4
?SinCos@@YAXMPAM0@Z PROC				; SinCos, COMDAT

; 36   : {

	push	ebp
	mov	ebp, esp
	sub	esp, 64					; 00000040H
	push	ebx
	push	esi
	push	edi

; 37   : 	/*
; 38   : 	__asm
; 39   : 	{
; 40   : 		push	ecx
; 41   : 		fld	dword ptr angle
; 42   : 		fsincos
; 43   : 		mov	ecx, dword ptr[cosine]
; 44   : 		fstp      dword ptr [ecx]
; 45   : 		mov 	ecx, dword ptr[sine]
; 46   : 		fstp	dword ptr [ecx]
; 47   : 		pop	ecx
; 48   : 	}*/
; 49   : 	*sine = sin( angle );

	cvtss2sd xmm0, DWORD PTR _angle$[ebp]
	sub	esp, 8
	movsd	QWORD PTR [esp], xmm0
	call	_sin
	add	esp, 8
	mov	eax, DWORD PTR _sine$[ebp]
	fstp	DWORD PTR [eax]

; 50   : 	*cosine = cos( angle );

	cvtss2sd xmm0, DWORD PTR _angle$[ebp]
	sub	esp, 8
	movsd	QWORD PTR [esp], xmm0
	call	_cos
	add	esp, 8
	mov	eax, DWORD PTR _cosine$[ebp]
	fstp	DWORD PTR [eax]

; 51   : }

	pop	edi
	pop	esi
	pop	ebx
	mov	esp, ebp
	pop	ebp
	ret	0
?SinCos@@YAXMPAM0@Z ENDP				; SinCos
_TEXT	ENDS
; Function compile flags: /Odtp /ZI
; File c:\program files (x86)\windows kits\10\include\10.0.10240.0\ucrt\math.h
;	COMDAT _sqrtf
_TEXT	SEGMENT
tv71 = -68						; size = 4
__X$ = 8						; size = 4
_sqrtf	PROC						; COMDAT

; 745  :     {

	push	ebp
	mov	ebp, esp
	sub	esp, 68					; 00000044H
	push	ebx
	push	esi
	push	edi

; 746  :         return (float)sqrt(_X);

	cvtss2sd xmm0, DWORD PTR __X$[ebp]
	sub	esp, 8
	movsd	QWORD PTR [esp], xmm0
	call	_sqrt
	add	esp, 8
	fstp	DWORD PTR tv71[ebp]
	fld	DWORD PTR tv71[ebp]

; 747  :     }

	pop	edi
	pop	esi
	pop	ebx
	mov	esp, ebp
	pop	ebp
	ret	0
_sqrtf	ENDP
_TEXT	ENDS
; Function compile flags: /Odtp /ZI
; File c:\program files (x86)\windows kits\10\include\10.0.10240.0\ucrt\math.h
;	COMDAT _fabsf
_TEXT	SEGMENT
tv71 = -68						; size = 4
__X$ = 8						; size = 4
_fabsf	PROC						; COMDAT

; 657  :     {

	push	ebp
	mov	ebp, esp
	sub	esp, 68					; 00000044H
	push	ebx
	push	esi
	push	edi

; 658  :         return (float)fabs(_X);

	cvtss2sd xmm0, DWORD PTR __X$[ebp]
	sub	esp, 8
	movsd	QWORD PTR [esp], xmm0
	call	_fabs
	add	esp, 8
	fstp	DWORD PTR tv71[ebp]
	fld	DWORD PTR tv71[ebp]

; 659  :     }

	pop	edi
	pop	esi
	pop	ebx
	mov	esp, ebp
	pop	ebp
	ret	0
_fabsf	ENDP
_TEXT	ENDS
; Function compile flags: /Odtp /ZI
; File d:\!diffusion 2020\source code 2022\client-server\server\physics\physic.cpp
;	COMDAT ?__empty_global_delete@@YAXPAXI@Z
_TEXT	SEGMENT
___formal$ = 8						; size = 4
___formal$ = 12						; size = 4
?__empty_global_delete@@YAXPAXI@Z PROC			; __empty_global_delete, COMDAT

	push	ebp
	mov	ebp, esp
	sub	esp, 64					; 00000040H
	push	ebx
	push	esi
	push	edi
	pop	edi
	pop	esi
	pop	ebx
	mov	esp, ebp
	pop	ebp
	ret	0
?__empty_global_delete@@YAXPAXI@Z ENDP			; __empty_global_delete
_TEXT	ENDS
; Function compile flags: /Odtp /ZI
; File d:\!diffusion 2020\source code 2022\client-server\server\physics\physic.cpp
;	COMDAT ?__empty_global_delete@@YAXPAX@Z
_TEXT	SEGMENT
___formal$ = 8						; size = 4
?__empty_global_delete@@YAXPAX@Z PROC			; __empty_global_delete, COMDAT

; 2631 : }

	push	ebp
	mov	ebp, esp
	sub	esp, 64					; 00000040H
	push	ebx
	push	esi
	push	edi
	pop	edi
	pop	esi
	pop	ebx
	mov	esp, ebp
	pop	ebp
	ret	0
?__empty_global_delete@@YAXPAX@Z ENDP			; __empty_global_delete
_TEXT	ENDS
; Function compile flags: /Odtp /ZI
;	COMDAT ??__G@YGXPAX0IIP6EPAX00@Z@Z
_TEXT	SEGMENT
tv66 = -68						; size = 4
___t$ = 8						; size = 4
___u$ = 12						; size = 4
___s$ = 16						; size = 4
___n$ = 20						; size = 4
___f$ = 24						; size = 4
??__G@YGXPAX0IIP6EPAX00@Z@Z PROC			; `vector copy constructor iterator', COMDAT
	push	ebp
	mov	ebp, esp
	sub	esp, 68					; 00000044H
	push	ebx
	push	esi
	push	edi
$LN2@vector:
	mov	eax, DWORD PTR ___n$[ebp]
	mov	DWORD PTR tv66[ebp], eax
	mov	ecx, DWORD PTR ___n$[ebp]
	sub	ecx, 1
	mov	DWORD PTR ___n$[ebp], ecx
	cmp	DWORD PTR tv66[ebp], 0
	jbe	SHORT $LN1@vector
	mov	eax, DWORD PTR ___u$[ebp]
	push	eax
	mov	ecx, DWORD PTR ___t$[ebp]
	call	DWORD PTR ___f$[ebp]
	mov	eax, DWORD PTR ___t$[ebp]
	add	eax, DWORD PTR ___s$[ebp]
	mov	DWORD PTR ___t$[ebp], eax
	mov	eax, DWORD PTR ___u$[ebp]
	add	eax, DWORD PTR ___s$[ebp]
	mov	DWORD PTR ___u$[ebp], eax
	jmp	SHORT $LN2@vector
$LN1@vector:
	pop	edi
	pop	esi
	pop	ebx
	mov	esp, ebp
	pop	ebp
	ret	20					; 00000014H
??__G@YGXPAX0IIP6EPAX00@Z@Z ENDP			; `vector copy constructor iterator'
_TEXT	ENDS
; Function compile flags: /Odtp /ZI
;	COMDAT ??_H@YGXPAXIIP6EPAX0@Z@Z
_TEXT	SEGMENT
tv66 = -68						; size = 4
___t$ = 8						; size = 4
___s$ = 12						; size = 4
___n$ = 16						; size = 4
___f$ = 20						; size = 4
??_H@YGXPAXIIP6EPAX0@Z@Z PROC				; `vector constructor iterator', COMDAT
	push	ebp
	mov	ebp, esp
	sub	esp, 68					; 00000044H
	push	ebx
	push	esi
	push	edi
$LN2@vector:
	mov	eax, DWORD PTR ___n$[ebp]
	mov	DWORD PTR tv66[ebp], eax
	mov	ecx, DWORD PTR ___n$[ebp]
	sub	ecx, 1
	mov	DWORD PTR ___n$[ebp], ecx
	cmp	DWORD PTR tv66[ebp], 0
	jbe	SHORT $LN1@vector
	mov	ecx, DWORD PTR ___t$[ebp]
	call	DWORD PTR ___f$[ebp]
	mov	eax, DWORD PTR ___t$[ebp]
	add	eax, DWORD PTR ___s$[ebp]
	mov	DWORD PTR ___t$[ebp], eax
	jmp	SHORT $LN2@vector
$LN1@vector:
	pop	edi
	pop	esi
	pop	ebx
	mov	esp, ebp
	pop	ebp
	ret	16					; 00000010H
??_H@YGXPAXIIP6EPAX0@Z@Z ENDP				; `vector constructor iterator'
_TEXT	ENDS
END
