; Listing generated by Microsoft (R) Optimizing Compiler Version 19.00.24247.2 

	TITLE	D:\!DIFFUSION 2020\source code 2022\client-server\server\game\rules_singleplayer.cpp
	.686P
	.XMM
	include listing.inc
	.model	flat

INCLUDELIB LIBCMT
INCLUDELIB OLDNAMES

PUBLIC	??_H@YGXPAXIIP6EPAX0@Z@Z			; `vector constructor iterator'
PUBLIC	??__G@YGXPAX0IIP6EPAX00@Z@Z			; `vector copy constructor iterator'
PUBLIC	?__empty_global_delete@@YAXPAX@Z		; __empty_global_delete
PUBLIC	?__empty_global_delete@@YAXPAXI@Z		; __empty_global_delete
PUBLIC	??0Vector@@QAE@XZ				; Vector::Vector
PUBLIC	??0Vector@@QAE@ABV0@@Z				; Vector::Vector
PUBLIC	?iWeight@CBasePlayerItem@@QAEHXZ		; CBasePlayerItem::iWeight
PUBLIC	?IsTeamplay@CGameRules@@UAEHXZ			; CGameRules::IsTeamplay
PUBLIC	?GetGameDescription@CGameRules@@UAEPBDXZ	; CGameRules::GetGameDescription
PUBLIC	?UpdateGameMode@CGameRules@@UAEXPAVCBasePlayer@@@Z ; CGameRules::UpdateGameMode
PUBLIC	?FPlayerCanTakeDamage@CGameRules@@UAEHPAVCBasePlayer@@PAVCBaseEntity@@@Z ; CGameRules::FPlayerCanTakeDamage
PUBLIC	?ShouldAutoAim@CGameRules@@UAEHPAVCBasePlayer@@PAUedict_s@@@Z ; CGameRules::ShouldAutoAim
PUBLIC	?AllowAutoTargetCrosshair@CGameRules@@UAEHXZ	; CGameRules::AllowAutoTargetCrosshair
PUBLIC	?ClientCommand@CGameRules@@UAEHPAVCBasePlayer@@PBD@Z ; CGameRules::ClientCommand
PUBLIC	?ClientUserInfoChanged@CGameRules@@UAEXPAVCBasePlayer@@PAD@Z ; CGameRules::ClientUserInfoChanged
PUBLIC	?FlHEVChargerRechargeTime@CGameRules@@UAEMXZ	; CGameRules::FlHEVChargerRechargeTime
PUBLIC	?GetTeamIndex@CGameRules@@UAEHPBD@Z		; CGameRules::GetTeamIndex
PUBLIC	?GetIndexedTeamName@CGameRules@@UAEPBDH@Z	; CGameRules::GetIndexedTeamName
PUBLIC	?IsValidTeam@CGameRules@@UAEHPBD@Z		; CGameRules::IsValidTeam
PUBLIC	?ChangePlayerTeam@CGameRules@@UAEXPAVCBasePlayer@@PBDHH@Z ; CGameRules::ChangePlayerTeam
PUBLIC	?SetDefaultPlayerTeam@CGameRules@@UAEPBDPAVCBasePlayer@@@Z ; CGameRules::SetDefaultPlayerTeam
PUBLIC	?PlayTextureSounds@CGameRules@@UAEHXZ		; CGameRules::PlayTextureSounds
PUBLIC	?PlayFootstepSounds@CGameRules@@UAEHPAVCBasePlayer@@M@Z ; CGameRules::PlayFootstepSounds
PUBLIC	?EndMultiplayerGame@CGameRules@@UAEXXZ		; CGameRules::EndMultiplayerGame
PUBLIC	??0CGameRules@@QAE@XZ				; CGameRules::CGameRules
PUBLIC	??0CHalfLifeRules@@QAE@XZ			; CHalfLifeRules::CHalfLifeRules
PUBLIC	?Think@CHalfLifeRules@@UAEXXZ			; CHalfLifeRules::Think
PUBLIC	?IsAllowedToSpawn@CHalfLifeRules@@UAEHPAVCBaseEntity@@@Z ; CHalfLifeRules::IsAllowedToSpawn
PUBLIC	?FAllowFlashlight@CHalfLifeRules@@UAEHXZ	; CHalfLifeRules::FAllowFlashlight
PUBLIC	?FShouldSwitchWeapon@CHalfLifeRules@@UAEHPAVCBasePlayer@@PAVCBasePlayerItem@@@Z ; CHalfLifeRules::FShouldSwitchWeapon
PUBLIC	?GetNextBestWeapon@CHalfLifeRules@@UAEHPAVCBasePlayer@@PAVCBasePlayerItem@@@Z ; CHalfLifeRules::GetNextBestWeapon
PUBLIC	?IsMultiplayer@CHalfLifeRules@@UAEHXZ		; CHalfLifeRules::IsMultiplayer
PUBLIC	?IsDeathmatch@CHalfLifeRules@@UAEHXZ		; CHalfLifeRules::IsDeathmatch
PUBLIC	?IsCoOp@CHalfLifeRules@@UAEHXZ			; CHalfLifeRules::IsCoOp
PUBLIC	?ClientConnected@CHalfLifeRules@@UAEHPAUedict_s@@PBD1QAD@Z ; CHalfLifeRules::ClientConnected
PUBLIC	?InitHUD@CHalfLifeRules@@UAEXPAVCBasePlayer@@@Z	; CHalfLifeRules::InitHUD
PUBLIC	?ClientDisconnected@CHalfLifeRules@@UAEXPAUedict_s@@@Z ; CHalfLifeRules::ClientDisconnected
PUBLIC	?FlPlayerFallDamage@CHalfLifeRules@@UAEMPAVCBasePlayer@@@Z ; CHalfLifeRules::FlPlayerFallDamage
PUBLIC	?PlayerSpawn@CHalfLifeRules@@UAEXPAVCBasePlayer@@@Z ; CHalfLifeRules::PlayerSpawn
PUBLIC	?PlayerThink@CHalfLifeRules@@UAEXPAVCBasePlayer@@@Z ; CHalfLifeRules::PlayerThink
PUBLIC	?FPlayerCanRespawn@CHalfLifeRules@@UAEHPAVCBasePlayer@@@Z ; CHalfLifeRules::FPlayerCanRespawn
PUBLIC	?FlPlayerSpawnTime@CHalfLifeRules@@UAEMPAVCBasePlayer@@@Z ; CHalfLifeRules::FlPlayerSpawnTime
PUBLIC	?AllowAutoTargetCrosshair@CHalfLifeRules@@UAEHXZ ; CHalfLifeRules::AllowAutoTargetCrosshair
PUBLIC	?IPointsForKill@CHalfLifeRules@@UAEHPAVCBasePlayer@@0@Z ; CHalfLifeRules::IPointsForKill
PUBLIC	?PlayerKilled@CHalfLifeRules@@UAEXPAVCBasePlayer@@PAUentvars_s@@1@Z ; CHalfLifeRules::PlayerKilled
PUBLIC	?DeathNotice@CHalfLifeRules@@UAEXPAVCBasePlayer@@PAUentvars_s@@1@Z ; CHalfLifeRules::DeathNotice
PUBLIC	?PlayerGotWeapon@CHalfLifeRules@@UAEXPAVCBasePlayer@@PAVCBasePlayerItem@@@Z ; CHalfLifeRules::PlayerGotWeapon
PUBLIC	?WeaponShouldRespawn@CHalfLifeRules@@UAEHPAVCBasePlayerItem@@@Z ; CHalfLifeRules::WeaponShouldRespawn
PUBLIC	?FlWeaponRespawnTime@CHalfLifeRules@@UAEMPAVCBasePlayerItem@@@Z ; CHalfLifeRules::FlWeaponRespawnTime
PUBLIC	?FlWeaponTryRespawn@CHalfLifeRules@@UAEMPAVCBasePlayerItem@@@Z ; CHalfLifeRules::FlWeaponTryRespawn
PUBLIC	?VecWeaponRespawnSpot@CHalfLifeRules@@UAE?AVVector@@PAVCBasePlayerItem@@@Z ; CHalfLifeRules::VecWeaponRespawnSpot
PUBLIC	?CanHaveItem@CHalfLifeRules@@UAEHPAVCBasePlayer@@PAVCItem@@@Z ; CHalfLifeRules::CanHaveItem
PUBLIC	?PlayerGotItem@CHalfLifeRules@@UAEXPAVCBasePlayer@@PAVCItem@@@Z ; CHalfLifeRules::PlayerGotItem
PUBLIC	?ItemShouldRespawn@CHalfLifeRules@@UAEHPAVCItem@@@Z ; CHalfLifeRules::ItemShouldRespawn
PUBLIC	?FlItemRespawnTime@CHalfLifeRules@@UAEMPAVCItem@@@Z ; CHalfLifeRules::FlItemRespawnTime
PUBLIC	?VecItemRespawnSpot@CHalfLifeRules@@UAE?AVVector@@PAVCItem@@@Z ; CHalfLifeRules::VecItemRespawnSpot
PUBLIC	?PlayerGotAmmo@CHalfLifeRules@@UAEXPAVCBasePlayer@@PADH@Z ; CHalfLifeRules::PlayerGotAmmo
PUBLIC	?AmmoShouldRespawn@CHalfLifeRules@@UAEHPAVCBasePlayerAmmo@@@Z ; CHalfLifeRules::AmmoShouldRespawn
PUBLIC	?FlAmmoRespawnTime@CHalfLifeRules@@UAEMPAVCBasePlayerAmmo@@@Z ; CHalfLifeRules::FlAmmoRespawnTime
PUBLIC	?VecAmmoRespawnSpot@CHalfLifeRules@@UAE?AVVector@@PAVCBasePlayerAmmo@@@Z ; CHalfLifeRules::VecAmmoRespawnSpot
PUBLIC	?FlHealthChargerRechargeTime@CHalfLifeRules@@UAEMXZ ; CHalfLifeRules::FlHealthChargerRechargeTime
PUBLIC	?DeadPlayerWeapons@CHalfLifeRules@@UAEHPAVCBasePlayer@@@Z ; CHalfLifeRules::DeadPlayerWeapons
PUBLIC	?DeadPlayerAmmo@CHalfLifeRules@@UAEHPAVCBasePlayer@@@Z ; CHalfLifeRules::DeadPlayerAmmo
PUBLIC	?FAllowMonsters@CHalfLifeRules@@UAEHXZ		; CHalfLifeRules::FAllowMonsters
PUBLIC	?GetTeamID@CHalfLifeRules@@UAEPBDPAVCBaseEntity@@@Z ; CHalfLifeRules::GetTeamID
PUBLIC	?PlayerRelationship@CHalfLifeRules@@UAEHPAVCBaseEntity@@0@Z ; CHalfLifeRules::PlayerRelationship
PUBLIC	??_C@_00CNPNBAHC@?$AA@				; `string'
PUBLIC	??_7CGameRules@@6B@				; CGameRules::`vftable'
PUBLIC	??_C@_09IBONLKEI@Half?9Life?$AA@		; `string'
PUBLIC	??_7CHalfLifeRules@@6B@				; CHalfLifeRules::`vftable'
PUBLIC	??_C@_0BC@NDIKNKII@game_player_equip?$AA@	; `string'
PUBLIC	??_R4CGameRules@@6B@				; CGameRules::`RTTI Complete Object Locator'
PUBLIC	??_R0?AVCGameRules@@@8				; CGameRules `RTTI Type Descriptor'
PUBLIC	??_R3CGameRules@@8				; CGameRules::`RTTI Class Hierarchy Descriptor'
PUBLIC	??_R2CGameRules@@8				; CGameRules::`RTTI Base Class Array'
PUBLIC	??_R1A@?0A@EA@CGameRules@@8			; CGameRules::`RTTI Base Class Descriptor at (0,-1,0,64)'
PUBLIC	??_R4CHalfLifeRules@@6B@			; CHalfLifeRules::`RTTI Complete Object Locator'
PUBLIC	??_R0?AVCHalfLifeRules@@@8			; CHalfLifeRules `RTTI Type Descriptor'
PUBLIC	??_R3CHalfLifeRules@@8				; CHalfLifeRules::`RTTI Class Hierarchy Descriptor'
PUBLIC	??_R2CHalfLifeRules@@8				; CHalfLifeRules::`RTTI Base Class Array'
PUBLIC	??_R1A@?0A@EA@CHalfLifeRules@@8			; CHalfLifeRules::`RTTI Base Class Descriptor at (0,-1,0,64)'
PUBLIC	__real@00000000
PUBLIC	__real@42c80000
PUBLIC	__real@43fa0000
PUBLIC	__real@44030000
PUBLIC	__real@bf800000
EXTRN	__purecall:PROC
EXTRN	?UTIL_FindEntityByClassname@@YAPAVCBaseEntity@@PAV1@PBD@Z:PROC ; UTIL_FindEntityByClassname
EXTRN	?GetAbsOrigin@CBaseEntity@@QBEABVVector@@XZ:PROC ; CBaseEntity::GetAbsOrigin
EXTRN	?SwitchWeapon@CBasePlayer@@QAEHPAVCBasePlayerItem@@@Z:PROC ; CBasePlayer::SwitchWeapon
EXTRN	?RefreshSkillData@CGameRules@@UAEXXZ:PROC	; CGameRules::RefreshSkillData
EXTRN	?GetPlayerSpawnSpot@CGameRules@@UAEPAUedict_s@@PAVCBasePlayer@@@Z:PROC ; CGameRules::GetPlayerSpawnSpot
EXTRN	?CanHavePlayerItem@CGameRules@@UAEHPAVCBasePlayer@@PAVCBasePlayerItem@@@Z:PROC ; CGameRules::CanHavePlayerItem
EXTRN	?CanHaveAmmo@CGameRules@@UAEHPAVCBasePlayer@@PBDH@Z:PROC ; CGameRules::CanHaveAmmo
EXTRN	??_7type_info@@6B@:QWORD			; type_info::`vftable'
EXTRN	?gpGlobals@@3PAUglobalvars_t@@A:DWORD		; gpGlobals
EXTRN	?ItemInfoArray@CBasePlayerItem@@2PAUItemInfo@@A:BYTE ; CBasePlayerItem::ItemInfoArray
EXTRN	?g_iSkillLevel@@3HA:DWORD			; g_iSkillLevel
EXTRN	__fltused:DWORD
;	COMDAT __real@bf800000
CONST	SEGMENT
__real@bf800000 DD 0bf800000r			; -1
CONST	ENDS
;	COMDAT __real@44030000
CONST	SEGMENT
__real@44030000 DD 044030000r			; 524
CONST	ENDS
;	COMDAT __real@43fa0000
CONST	SEGMENT
__real@43fa0000 DD 043fa0000r			; 500
CONST	ENDS
;	COMDAT __real@42c80000
CONST	SEGMENT
__real@42c80000 DD 042c80000r			; 100
CONST	ENDS
;	COMDAT __real@00000000
CONST	SEGMENT
__real@00000000 DD 000000000r			; 0
CONST	ENDS
;	COMDAT ??_R1A@?0A@EA@CHalfLifeRules@@8
rdata$r	SEGMENT
??_R1A@?0A@EA@CHalfLifeRules@@8 DD FLAT:??_R0?AVCHalfLifeRules@@@8 ; CHalfLifeRules::`RTTI Base Class Descriptor at (0,-1,0,64)'
	DD	01H
	DD	00H
	DD	0ffffffffH
	DD	00H
	DD	040H
	DD	FLAT:??_R3CHalfLifeRules@@8
rdata$r	ENDS
;	COMDAT ??_R2CHalfLifeRules@@8
rdata$r	SEGMENT
??_R2CHalfLifeRules@@8 DD FLAT:??_R1A@?0A@EA@CHalfLifeRules@@8 ; CHalfLifeRules::`RTTI Base Class Array'
	DD	FLAT:??_R1A@?0A@EA@CGameRules@@8
rdata$r	ENDS
;	COMDAT ??_R3CHalfLifeRules@@8
rdata$r	SEGMENT
??_R3CHalfLifeRules@@8 DD 00H				; CHalfLifeRules::`RTTI Class Hierarchy Descriptor'
	DD	00H
	DD	02H
	DD	FLAT:??_R2CHalfLifeRules@@8
rdata$r	ENDS
;	COMDAT ??_R0?AVCHalfLifeRules@@@8
data$r	SEGMENT
??_R0?AVCHalfLifeRules@@@8 DD FLAT:??_7type_info@@6B@	; CHalfLifeRules `RTTI Type Descriptor'
	DD	00H
	DB	'.?AVCHalfLifeRules@@', 00H
data$r	ENDS
;	COMDAT ??_R4CHalfLifeRules@@6B@
rdata$r	SEGMENT
??_R4CHalfLifeRules@@6B@ DD 00H				; CHalfLifeRules::`RTTI Complete Object Locator'
	DD	00H
	DD	00H
	DD	FLAT:??_R0?AVCHalfLifeRules@@@8
	DD	FLAT:??_R3CHalfLifeRules@@8
rdata$r	ENDS
;	COMDAT ??_R1A@?0A@EA@CGameRules@@8
rdata$r	SEGMENT
??_R1A@?0A@EA@CGameRules@@8 DD FLAT:??_R0?AVCGameRules@@@8 ; CGameRules::`RTTI Base Class Descriptor at (0,-1,0,64)'
	DD	00H
	DD	00H
	DD	0ffffffffH
	DD	00H
	DD	040H
	DD	FLAT:??_R3CGameRules@@8
rdata$r	ENDS
;	COMDAT ??_R2CGameRules@@8
rdata$r	SEGMENT
??_R2CGameRules@@8 DD FLAT:??_R1A@?0A@EA@CGameRules@@8	; CGameRules::`RTTI Base Class Array'
rdata$r	ENDS
;	COMDAT ??_R3CGameRules@@8
rdata$r	SEGMENT
??_R3CGameRules@@8 DD 00H				; CGameRules::`RTTI Class Hierarchy Descriptor'
	DD	00H
	DD	01H
	DD	FLAT:??_R2CGameRules@@8
rdata$r	ENDS
;	COMDAT ??_R0?AVCGameRules@@@8
data$r	SEGMENT
??_R0?AVCGameRules@@@8 DD FLAT:??_7type_info@@6B@	; CGameRules `RTTI Type Descriptor'
	DD	00H
	DB	'.?AVCGameRules@@', 00H
data$r	ENDS
;	COMDAT ??_R4CGameRules@@6B@
rdata$r	SEGMENT
??_R4CGameRules@@6B@ DD 00H				; CGameRules::`RTTI Complete Object Locator'
	DD	00H
	DD	00H
	DD	FLAT:??_R0?AVCGameRules@@@8
	DD	FLAT:??_R3CGameRules@@8
rdata$r	ENDS
;	COMDAT ??_C@_0BC@NDIKNKII@game_player_equip?$AA@
CONST	SEGMENT
??_C@_0BC@NDIKNKII@game_player_equip?$AA@ DB 'game_player_equip', 00H ; `string'
CONST	ENDS
;	COMDAT ??_7CHalfLifeRules@@6B@
CONST	SEGMENT
??_7CHalfLifeRules@@6B@ DD FLAT:??_R4CHalfLifeRules@@6B@ ; CHalfLifeRules::`vftable'
	DD	FLAT:?RefreshSkillData@CGameRules@@UAEXXZ
	DD	FLAT:?Think@CHalfLifeRules@@UAEXXZ
	DD	FLAT:?IsAllowedToSpawn@CHalfLifeRules@@UAEHPAVCBaseEntity@@@Z
	DD	FLAT:?FAllowFlashlight@CHalfLifeRules@@UAEHXZ
	DD	FLAT:?FShouldSwitchWeapon@CHalfLifeRules@@UAEHPAVCBasePlayer@@PAVCBasePlayerItem@@@Z
	DD	FLAT:?GetNextBestWeapon@CHalfLifeRules@@UAEHPAVCBasePlayer@@PAVCBasePlayerItem@@@Z
	DD	FLAT:?IsMultiplayer@CHalfLifeRules@@UAEHXZ
	DD	FLAT:?IsDeathmatch@CHalfLifeRules@@UAEHXZ
	DD	FLAT:?IsTeamplay@CGameRules@@UAEHXZ
	DD	FLAT:?IsCoOp@CHalfLifeRules@@UAEHXZ
	DD	FLAT:?GetGameDescription@CGameRules@@UAEPBDXZ
	DD	FLAT:?ClientConnected@CHalfLifeRules@@UAEHPAUedict_s@@PBD1QAD@Z
	DD	FLAT:?InitHUD@CHalfLifeRules@@UAEXPAVCBasePlayer@@@Z
	DD	FLAT:?ClientDisconnected@CHalfLifeRules@@UAEXPAUedict_s@@@Z
	DD	FLAT:?UpdateGameMode@CGameRules@@UAEXPAVCBasePlayer@@@Z
	DD	FLAT:?FlPlayerFallDamage@CHalfLifeRules@@UAEMPAVCBasePlayer@@@Z
	DD	FLAT:?FPlayerCanTakeDamage@CGameRules@@UAEHPAVCBasePlayer@@PAVCBaseEntity@@@Z
	DD	FLAT:?ShouldAutoAim@CGameRules@@UAEHPAVCBasePlayer@@PAUedict_s@@@Z
	DD	FLAT:?PlayerSpawn@CHalfLifeRules@@UAEXPAVCBasePlayer@@@Z
	DD	FLAT:?PlayerThink@CHalfLifeRules@@UAEXPAVCBasePlayer@@@Z
	DD	FLAT:?FPlayerCanRespawn@CHalfLifeRules@@UAEHPAVCBasePlayer@@@Z
	DD	FLAT:?FlPlayerSpawnTime@CHalfLifeRules@@UAEMPAVCBasePlayer@@@Z
	DD	FLAT:?GetPlayerSpawnSpot@CGameRules@@UAEPAUedict_s@@PAVCBasePlayer@@@Z
	DD	FLAT:?AllowAutoTargetCrosshair@CHalfLifeRules@@UAEHXZ
	DD	FLAT:?ClientCommand@CGameRules@@UAEHPAVCBasePlayer@@PBD@Z
	DD	FLAT:?ClientUserInfoChanged@CGameRules@@UAEXPAVCBasePlayer@@PAD@Z
	DD	FLAT:?IPointsForKill@CHalfLifeRules@@UAEHPAVCBasePlayer@@0@Z
	DD	FLAT:?PlayerKilled@CHalfLifeRules@@UAEXPAVCBasePlayer@@PAUentvars_s@@1@Z
	DD	FLAT:?DeathNotice@CHalfLifeRules@@UAEXPAVCBasePlayer@@PAUentvars_s@@1@Z
	DD	FLAT:?CanHavePlayerItem@CGameRules@@UAEHPAVCBasePlayer@@PAVCBasePlayerItem@@@Z
	DD	FLAT:?PlayerGotWeapon@CHalfLifeRules@@UAEXPAVCBasePlayer@@PAVCBasePlayerItem@@@Z
	DD	FLAT:?WeaponShouldRespawn@CHalfLifeRules@@UAEHPAVCBasePlayerItem@@@Z
	DD	FLAT:?FlWeaponRespawnTime@CHalfLifeRules@@UAEMPAVCBasePlayerItem@@@Z
	DD	FLAT:?FlWeaponTryRespawn@CHalfLifeRules@@UAEMPAVCBasePlayerItem@@@Z
	DD	FLAT:?VecWeaponRespawnSpot@CHalfLifeRules@@UAE?AVVector@@PAVCBasePlayerItem@@@Z
	DD	FLAT:?CanHaveItem@CHalfLifeRules@@UAEHPAVCBasePlayer@@PAVCItem@@@Z
	DD	FLAT:?PlayerGotItem@CHalfLifeRules@@UAEXPAVCBasePlayer@@PAVCItem@@@Z
	DD	FLAT:?ItemShouldRespawn@CHalfLifeRules@@UAEHPAVCItem@@@Z
	DD	FLAT:?FlItemRespawnTime@CHalfLifeRules@@UAEMPAVCItem@@@Z
	DD	FLAT:?VecItemRespawnSpot@CHalfLifeRules@@UAE?AVVector@@PAVCItem@@@Z
	DD	FLAT:?CanHaveAmmo@CGameRules@@UAEHPAVCBasePlayer@@PBDH@Z
	DD	FLAT:?PlayerGotAmmo@CHalfLifeRules@@UAEXPAVCBasePlayer@@PADH@Z
	DD	FLAT:?AmmoShouldRespawn@CHalfLifeRules@@UAEHPAVCBasePlayerAmmo@@@Z
	DD	FLAT:?FlAmmoRespawnTime@CHalfLifeRules@@UAEMPAVCBasePlayerAmmo@@@Z
	DD	FLAT:?VecAmmoRespawnSpot@CHalfLifeRules@@UAE?AVVector@@PAVCBasePlayerAmmo@@@Z
	DD	FLAT:?FlHealthChargerRechargeTime@CHalfLifeRules@@UAEMXZ
	DD	FLAT:?FlHEVChargerRechargeTime@CGameRules@@UAEMXZ
	DD	FLAT:?DeadPlayerWeapons@CHalfLifeRules@@UAEHPAVCBasePlayer@@@Z
	DD	FLAT:?DeadPlayerAmmo@CHalfLifeRules@@UAEHPAVCBasePlayer@@@Z
	DD	FLAT:?GetTeamID@CHalfLifeRules@@UAEPBDPAVCBaseEntity@@@Z
	DD	FLAT:?PlayerRelationship@CHalfLifeRules@@UAEHPAVCBaseEntity@@0@Z
	DD	FLAT:?GetTeamIndex@CGameRules@@UAEHPBD@Z
	DD	FLAT:?GetIndexedTeamName@CGameRules@@UAEPBDH@Z
	DD	FLAT:?IsValidTeam@CGameRules@@UAEHPBD@Z
	DD	FLAT:?ChangePlayerTeam@CGameRules@@UAEXPAVCBasePlayer@@PBDHH@Z
	DD	FLAT:?SetDefaultPlayerTeam@CGameRules@@UAEPBDPAVCBasePlayer@@@Z
	DD	FLAT:?PlayTextureSounds@CGameRules@@UAEHXZ
	DD	FLAT:?PlayFootstepSounds@CGameRules@@UAEHPAVCBasePlayer@@M@Z
	DD	FLAT:?FAllowMonsters@CHalfLifeRules@@UAEHXZ
	DD	FLAT:?EndMultiplayerGame@CGameRules@@UAEXXZ
CONST	ENDS
;	COMDAT ??_C@_09IBONLKEI@Half?9Life?$AA@
CONST	SEGMENT
??_C@_09IBONLKEI@Half?9Life?$AA@ DB 'Half-Life', 00H	; `string'
CONST	ENDS
;	COMDAT ??_7CGameRules@@6B@
CONST	SEGMENT
??_7CGameRules@@6B@ DD FLAT:??_R4CGameRules@@6B@	; CGameRules::`vftable'
	DD	FLAT:?RefreshSkillData@CGameRules@@UAEXXZ
	DD	FLAT:__purecall
	DD	FLAT:__purecall
	DD	FLAT:__purecall
	DD	FLAT:__purecall
	DD	FLAT:__purecall
	DD	FLAT:__purecall
	DD	FLAT:__purecall
	DD	FLAT:?IsTeamplay@CGameRules@@UAEHXZ
	DD	FLAT:__purecall
	DD	FLAT:?GetGameDescription@CGameRules@@UAEPBDXZ
	DD	FLAT:__purecall
	DD	FLAT:__purecall
	DD	FLAT:__purecall
	DD	FLAT:?UpdateGameMode@CGameRules@@UAEXPAVCBasePlayer@@@Z
	DD	FLAT:__purecall
	DD	FLAT:?FPlayerCanTakeDamage@CGameRules@@UAEHPAVCBasePlayer@@PAVCBaseEntity@@@Z
	DD	FLAT:?ShouldAutoAim@CGameRules@@UAEHPAVCBasePlayer@@PAUedict_s@@@Z
	DD	FLAT:__purecall
	DD	FLAT:__purecall
	DD	FLAT:__purecall
	DD	FLAT:__purecall
	DD	FLAT:?GetPlayerSpawnSpot@CGameRules@@UAEPAUedict_s@@PAVCBasePlayer@@@Z
	DD	FLAT:?AllowAutoTargetCrosshair@CGameRules@@UAEHXZ
	DD	FLAT:?ClientCommand@CGameRules@@UAEHPAVCBasePlayer@@PBD@Z
	DD	FLAT:?ClientUserInfoChanged@CGameRules@@UAEXPAVCBasePlayer@@PAD@Z
	DD	FLAT:__purecall
	DD	FLAT:__purecall
	DD	FLAT:__purecall
	DD	FLAT:?CanHavePlayerItem@CGameRules@@UAEHPAVCBasePlayer@@PAVCBasePlayerItem@@@Z
	DD	FLAT:__purecall
	DD	FLAT:__purecall
	DD	FLAT:__purecall
	DD	FLAT:__purecall
	DD	FLAT:__purecall
	DD	FLAT:__purecall
	DD	FLAT:__purecall
	DD	FLAT:__purecall
	DD	FLAT:__purecall
	DD	FLAT:__purecall
	DD	FLAT:?CanHaveAmmo@CGameRules@@UAEHPAVCBasePlayer@@PBDH@Z
	DD	FLAT:__purecall
	DD	FLAT:__purecall
	DD	FLAT:__purecall
	DD	FLAT:__purecall
	DD	FLAT:__purecall
	DD	FLAT:?FlHEVChargerRechargeTime@CGameRules@@UAEMXZ
	DD	FLAT:__purecall
	DD	FLAT:__purecall
	DD	FLAT:__purecall
	DD	FLAT:__purecall
	DD	FLAT:?GetTeamIndex@CGameRules@@UAEHPBD@Z
	DD	FLAT:?GetIndexedTeamName@CGameRules@@UAEPBDH@Z
	DD	FLAT:?IsValidTeam@CGameRules@@UAEHPBD@Z
	DD	FLAT:?ChangePlayerTeam@CGameRules@@UAEXPAVCBasePlayer@@PBDHH@Z
	DD	FLAT:?SetDefaultPlayerTeam@CGameRules@@UAEPBDPAVCBasePlayer@@@Z
	DD	FLAT:?PlayTextureSounds@CGameRules@@UAEHXZ
	DD	FLAT:?PlayFootstepSounds@CGameRules@@UAEHPAVCBasePlayer@@M@Z
	DD	FLAT:__purecall
	DD	FLAT:?EndMultiplayerGame@CGameRules@@UAEXXZ
CONST	ENDS
;	COMDAT ??_C@_00CNPNBAHC@?$AA@
CONST	SEGMENT
??_C@_00CNPNBAHC@?$AA@ DB 00H				; `string'
CONST	ENDS
; Function compile flags: /Odtp /ZI
; File d:\!diffusion 2020\source code 2022\client-server\server\game\rules_singleplayer.cpp
;	COMDAT ?PlayerRelationship@CHalfLifeRules@@UAEHPAVCBaseEntity@@0@Z
_TEXT	SEGMENT
_this$ = -4						; size = 4
_pPlayer$ = 8						; size = 4
_pTarget$ = 12						; size = 4
?PlayerRelationship@CHalfLifeRules@@UAEHPAVCBaseEntity@@0@Z PROC ; CHalfLifeRules::PlayerRelationship, COMDAT
; _this$ = ecx

; 385  : {

	push	ebp
	mov	ebp, esp
	sub	esp, 68					; 00000044H
	push	ebx
	push	esi
	push	edi
	mov	DWORD PTR _this$[ebp], ecx

; 386  : 	// why would a single player in half life need this? 
; 387  : 	return GR_NOTTEAMMATE;

	xor	eax, eax

; 388  : }

	pop	edi
	pop	esi
	pop	ebx
	mov	esp, ebp
	pop	ebp
	ret	8
?PlayerRelationship@CHalfLifeRules@@UAEHPAVCBaseEntity@@0@Z ENDP ; CHalfLifeRules::PlayerRelationship
_TEXT	ENDS
; Function compile flags: /Odtp /ZI
; File d:\!diffusion 2020\source code 2022\client-server\server\game\gamerules.h
;	COMDAT ?GetTeamID@CHalfLifeRules@@UAEPBDPAVCBaseEntity@@@Z
_TEXT	SEGMENT
_this$ = -4						; size = 4
_pEntity$ = 8						; size = 4
?GetTeamID@CHalfLifeRules@@UAEPBDPAVCBaseEntity@@@Z PROC ; CHalfLifeRules::GetTeamID, COMDAT
; _this$ = ecx

; 286  : 	virtual const char *GetTeamID( CBaseEntity *pEntity ) {return "";};

	push	ebp
	mov	ebp, esp
	sub	esp, 68					; 00000044H
	push	ebx
	push	esi
	push	edi
	mov	DWORD PTR _this$[ebp], ecx
	mov	eax, OFFSET ??_C@_00CNPNBAHC@?$AA@
	pop	edi
	pop	esi
	pop	ebx
	mov	esp, ebp
	pop	ebp
	ret	4
?GetTeamID@CHalfLifeRules@@UAEPBDPAVCBaseEntity@@@Z ENDP ; CHalfLifeRules::GetTeamID
_TEXT	ENDS
; Function compile flags: /Odtp /ZI
; File d:\!diffusion 2020\source code 2022\client-server\server\game\rules_singleplayer.cpp
;	COMDAT ?FAllowMonsters@CHalfLifeRules@@UAEHXZ
_TEXT	SEGMENT
_this$ = -4						; size = 4
?FAllowMonsters@CHalfLifeRules@@UAEHXZ PROC		; CHalfLifeRules::FAllowMonsters, COMDAT
; _this$ = ecx

; 393  : {

	push	ebp
	mov	ebp, esp
	sub	esp, 68					; 00000044H
	push	ebx
	push	esi
	push	edi
	mov	DWORD PTR _this$[ebp], ecx

; 394  : 	return TRUE;

	mov	eax, 1

; 395  : }

	pop	edi
	pop	esi
	pop	ebx
	mov	esp, ebp
	pop	ebp
	ret	0
?FAllowMonsters@CHalfLifeRules@@UAEHXZ ENDP		; CHalfLifeRules::FAllowMonsters
_TEXT	ENDS
; Function compile flags: /Odtp /ZI
; File d:\!diffusion 2020\source code 2022\client-server\server\game\rules_singleplayer.cpp
;	COMDAT ?DeadPlayerAmmo@CHalfLifeRules@@UAEHPAVCBasePlayer@@@Z
_TEXT	SEGMENT
_this$ = -4						; size = 4
_pPlayer$ = 8						; size = 4
?DeadPlayerAmmo@CHalfLifeRules@@UAEHPAVCBasePlayer@@@Z PROC ; CHalfLifeRules::DeadPlayerAmmo, COMDAT
; _this$ = ecx

; 378  : {

	push	ebp
	mov	ebp, esp
	sub	esp, 68					; 00000044H
	push	ebx
	push	esi
	push	edi
	mov	DWORD PTR _this$[ebp], ecx

; 379  : 	return GR_PLR_DROP_AMMO_NO;

	mov	eax, 12					; 0000000cH

; 380  : }

	pop	edi
	pop	esi
	pop	ebx
	mov	esp, ebp
	pop	ebp
	ret	4
?DeadPlayerAmmo@CHalfLifeRules@@UAEHPAVCBasePlayer@@@Z ENDP ; CHalfLifeRules::DeadPlayerAmmo
_TEXT	ENDS
; Function compile flags: /Odtp /ZI
; File d:\!diffusion 2020\source code 2022\client-server\server\game\rules_singleplayer.cpp
;	COMDAT ?DeadPlayerWeapons@CHalfLifeRules@@UAEHPAVCBasePlayer@@@Z
_TEXT	SEGMENT
_this$ = -4						; size = 4
_pPlayer$ = 8						; size = 4
?DeadPlayerWeapons@CHalfLifeRules@@UAEHPAVCBasePlayer@@@Z PROC ; CHalfLifeRules::DeadPlayerWeapons, COMDAT
; _this$ = ecx

; 371  : {

	push	ebp
	mov	ebp, esp
	sub	esp, 68					; 00000044H
	push	ebx
	push	esi
	push	edi
	mov	DWORD PTR _this$[ebp], ecx

; 372  : 	return GR_PLR_DROP_GUN_NO;

	mov	eax, 9

; 373  : }

	pop	edi
	pop	esi
	pop	ebx
	mov	esp, ebp
	pop	ebp
	ret	4
?DeadPlayerWeapons@CHalfLifeRules@@UAEHPAVCBasePlayer@@@Z ENDP ; CHalfLifeRules::DeadPlayerWeapons
_TEXT	ENDS
; Function compile flags: /Odtp /ZI
; File d:\!diffusion 2020\source code 2022\client-server\server\game\rules_singleplayer.cpp
;	COMDAT ?FlHealthChargerRechargeTime@CHalfLifeRules@@UAEMXZ
_TEXT	SEGMENT
_this$ = -4						; size = 4
?FlHealthChargerRechargeTime@CHalfLifeRules@@UAEMXZ PROC ; CHalfLifeRules::FlHealthChargerRechargeTime, COMDAT
; _this$ = ecx

; 364  : {

	push	ebp
	mov	ebp, esp
	sub	esp, 68					; 00000044H
	push	ebx
	push	esi
	push	edi
	mov	DWORD PTR _this$[ebp], ecx

; 365  : 	return 0;// don't recharge

	fldz

; 366  : }

	pop	edi
	pop	esi
	pop	ebx
	mov	esp, ebp
	pop	ebp
	ret	0
?FlHealthChargerRechargeTime@CHalfLifeRules@@UAEMXZ ENDP ; CHalfLifeRules::FlHealthChargerRechargeTime
_TEXT	ENDS
; Function compile flags: /Odtp /ZI
; File d:\!diffusion 2020\source code 2022\client-server\server\game\rules_singleplayer.cpp
;	COMDAT ?VecAmmoRespawnSpot@CHalfLifeRules@@UAE?AVVector@@PAVCBasePlayerAmmo@@@Z
_TEXT	SEGMENT
_this$ = -4						; size = 4
___$ReturnUdt$ = 8					; size = 4
_pAmmo$ = 12						; size = 4
?VecAmmoRespawnSpot@CHalfLifeRules@@UAE?AVVector@@PAVCBasePlayerAmmo@@@Z PROC ; CHalfLifeRules::VecAmmoRespawnSpot, COMDAT
; _this$ = ecx

; 357  : {

	push	ebp
	mov	ebp, esp
	sub	esp, 68					; 00000044H
	push	ebx
	push	esi
	push	edi
	mov	DWORD PTR _this$[ebp], ecx

; 358  : 	return pAmmo->GetAbsOrigin();

	mov	ecx, DWORD PTR _pAmmo$[ebp]
	call	?GetAbsOrigin@CBaseEntity@@QBEABVVector@@XZ ; CBaseEntity::GetAbsOrigin
	push	eax
	mov	ecx, DWORD PTR ___$ReturnUdt$[ebp]
	call	??0Vector@@QAE@ABV0@@Z			; Vector::Vector
	mov	eax, DWORD PTR ___$ReturnUdt$[ebp]

; 359  : }

	pop	edi
	pop	esi
	pop	ebx
	mov	esp, ebp
	pop	ebp
	ret	8
?VecAmmoRespawnSpot@CHalfLifeRules@@UAE?AVVector@@PAVCBasePlayerAmmo@@@Z ENDP ; CHalfLifeRules::VecAmmoRespawnSpot
_TEXT	ENDS
; Function compile flags: /Odtp /ZI
; File d:\!diffusion 2020\source code 2022\client-server\server\game\rules_singleplayer.cpp
;	COMDAT ?FlAmmoRespawnTime@CHalfLifeRules@@UAEMPAVCBasePlayerAmmo@@@Z
_TEXT	SEGMENT
_this$ = -4						; size = 4
_pAmmo$ = 8						; size = 4
?FlAmmoRespawnTime@CHalfLifeRules@@UAEMPAVCBasePlayerAmmo@@@Z PROC ; CHalfLifeRules::FlAmmoRespawnTime, COMDAT
; _this$ = ecx

; 350  : {

	push	ebp
	mov	ebp, esp
	sub	esp, 68					; 00000044H
	push	ebx
	push	esi
	push	edi
	mov	DWORD PTR _this$[ebp], ecx

; 351  : 	return -1;

	fld	DWORD PTR __real@bf800000

; 352  : }

	pop	edi
	pop	esi
	pop	ebx
	mov	esp, ebp
	pop	ebp
	ret	4
?FlAmmoRespawnTime@CHalfLifeRules@@UAEMPAVCBasePlayerAmmo@@@Z ENDP ; CHalfLifeRules::FlAmmoRespawnTime
_TEXT	ENDS
; Function compile flags: /Odtp /ZI
; File d:\!diffusion 2020\source code 2022\client-server\server\game\rules_singleplayer.cpp
;	COMDAT ?AmmoShouldRespawn@CHalfLifeRules@@UAEHPAVCBasePlayerAmmo@@@Z
_TEXT	SEGMENT
_this$ = -4						; size = 4
_pAmmo$ = 8						; size = 4
?AmmoShouldRespawn@CHalfLifeRules@@UAEHPAVCBasePlayerAmmo@@@Z PROC ; CHalfLifeRules::AmmoShouldRespawn, COMDAT
; _this$ = ecx

; 343  : {

	push	ebp
	mov	ebp, esp
	sub	esp, 68					; 00000044H
	push	ebx
	push	esi
	push	edi
	mov	DWORD PTR _this$[ebp], ecx

; 344  : 	return GR_AMMO_RESPAWN_NO;

	mov	eax, 4

; 345  : }

	pop	edi
	pop	esi
	pop	ebx
	mov	esp, ebp
	pop	ebp
	ret	4
?AmmoShouldRespawn@CHalfLifeRules@@UAEHPAVCBasePlayerAmmo@@@Z ENDP ; CHalfLifeRules::AmmoShouldRespawn
_TEXT	ENDS
; Function compile flags: /Odtp /ZI
; File d:\!diffusion 2020\source code 2022\client-server\server\game\rules_singleplayer.cpp
;	COMDAT ?PlayerGotAmmo@CHalfLifeRules@@UAEXPAVCBasePlayer@@PADH@Z
_TEXT	SEGMENT
_this$ = -4						; size = 4
_pPlayer$ = 8						; size = 4
_szName$ = 12						; size = 4
_iCount$ = 16						; size = 4
?PlayerGotAmmo@CHalfLifeRules@@UAEXPAVCBasePlayer@@PADH@Z PROC ; CHalfLifeRules::PlayerGotAmmo, COMDAT
; _this$ = ecx

; 337  : {

	push	ebp
	mov	ebp, esp
	sub	esp, 68					; 00000044H
	push	ebx
	push	esi
	push	edi
	mov	DWORD PTR _this$[ebp], ecx

; 338  : }

	pop	edi
	pop	esi
	pop	ebx
	mov	esp, ebp
	pop	ebp
	ret	12					; 0000000cH
?PlayerGotAmmo@CHalfLifeRules@@UAEXPAVCBasePlayer@@PADH@Z ENDP ; CHalfLifeRules::PlayerGotAmmo
_TEXT	ENDS
; Function compile flags: /Odtp /ZI
; File d:\!diffusion 2020\source code 2022\client-server\server\game\rules_singleplayer.cpp
;	COMDAT ?VecItemRespawnSpot@CHalfLifeRules@@UAE?AVVector@@PAVCItem@@@Z
_TEXT	SEGMENT
_this$ = -4						; size = 4
___$ReturnUdt$ = 8					; size = 4
_pItem$ = 12						; size = 4
?VecItemRespawnSpot@CHalfLifeRules@@UAE?AVVector@@PAVCItem@@@Z PROC ; CHalfLifeRules::VecItemRespawnSpot, COMDAT
; _this$ = ecx

; 323  : {

	push	ebp
	mov	ebp, esp
	sub	esp, 68					; 00000044H
	push	ebx
	push	esi
	push	edi
	mov	DWORD PTR _this$[ebp], ecx

; 324  : 	return pItem->GetAbsOrigin();

	mov	ecx, DWORD PTR _pItem$[ebp]
	call	?GetAbsOrigin@CBaseEntity@@QBEABVVector@@XZ ; CBaseEntity::GetAbsOrigin
	push	eax
	mov	ecx, DWORD PTR ___$ReturnUdt$[ebp]
	call	??0Vector@@QAE@ABV0@@Z			; Vector::Vector
	mov	eax, DWORD PTR ___$ReturnUdt$[ebp]

; 325  : }

	pop	edi
	pop	esi
	pop	ebx
	mov	esp, ebp
	pop	ebp
	ret	8
?VecItemRespawnSpot@CHalfLifeRules@@UAE?AVVector@@PAVCItem@@@Z ENDP ; CHalfLifeRules::VecItemRespawnSpot
_TEXT	ENDS
; Function compile flags: /Odtp /ZI
; File d:\!diffusion 2020\source code 2022\client-server\server\game\rules_singleplayer.cpp
;	COMDAT ?FlItemRespawnTime@CHalfLifeRules@@UAEMPAVCItem@@@Z
_TEXT	SEGMENT
_this$ = -4						; size = 4
_pItem$ = 8						; size = 4
?FlItemRespawnTime@CHalfLifeRules@@UAEMPAVCItem@@@Z PROC ; CHalfLifeRules::FlItemRespawnTime, COMDAT
; _this$ = ecx

; 314  : {

	push	ebp
	mov	ebp, esp
	sub	esp, 68					; 00000044H
	push	ebx
	push	esi
	push	edi
	mov	DWORD PTR _this$[ebp], ecx

; 315  : 	return -1;

	fld	DWORD PTR __real@bf800000

; 316  : }

	pop	edi
	pop	esi
	pop	ebx
	mov	esp, ebp
	pop	ebp
	ret	4
?FlItemRespawnTime@CHalfLifeRules@@UAEMPAVCItem@@@Z ENDP ; CHalfLifeRules::FlItemRespawnTime
_TEXT	ENDS
; Function compile flags: /Odtp /ZI
; File d:\!diffusion 2020\source code 2022\client-server\server\game\rules_singleplayer.cpp
;	COMDAT ?ItemShouldRespawn@CHalfLifeRules@@UAEHPAVCItem@@@Z
_TEXT	SEGMENT
_this$ = -4						; size = 4
_pItem$ = 8						; size = 4
?ItemShouldRespawn@CHalfLifeRules@@UAEHPAVCItem@@@Z PROC ; CHalfLifeRules::ItemShouldRespawn, COMDAT
; _this$ = ecx

; 305  : {

	push	ebp
	mov	ebp, esp
	sub	esp, 68					; 00000044H
	push	ebx
	push	esi
	push	edi
	mov	DWORD PTR _this$[ebp], ecx

; 306  : 	return GR_ITEM_RESPAWN_NO;

	mov	eax, 6

; 307  : }

	pop	edi
	pop	esi
	pop	ebx
	mov	esp, ebp
	pop	ebp
	ret	4
?ItemShouldRespawn@CHalfLifeRules@@UAEHPAVCItem@@@Z ENDP ; CHalfLifeRules::ItemShouldRespawn
_TEXT	ENDS
; Function compile flags: /Odtp /ZI
; File d:\!diffusion 2020\source code 2022\client-server\server\game\rules_singleplayer.cpp
;	COMDAT ?PlayerGotItem@CHalfLifeRules@@UAEXPAVCBasePlayer@@PAVCItem@@@Z
_TEXT	SEGMENT
_this$ = -4						; size = 4
_pPlayer$ = 8						; size = 4
_pItem$ = 12						; size = 4
?PlayerGotItem@CHalfLifeRules@@UAEXPAVCBasePlayer@@PAVCItem@@@Z PROC ; CHalfLifeRules::PlayerGotItem, COMDAT
; _this$ = ecx

; 299  : {

	push	ebp
	mov	ebp, esp
	sub	esp, 68					; 00000044H
	push	ebx
	push	esi
	push	edi
	mov	DWORD PTR _this$[ebp], ecx

; 300  : }

	pop	edi
	pop	esi
	pop	ebx
	mov	esp, ebp
	pop	ebp
	ret	8
?PlayerGotItem@CHalfLifeRules@@UAEXPAVCBasePlayer@@PAVCItem@@@Z ENDP ; CHalfLifeRules::PlayerGotItem
_TEXT	ENDS
; Function compile flags: /Odtp /ZI
; File d:\!diffusion 2020\source code 2022\client-server\server\game\rules_singleplayer.cpp
;	COMDAT ?CanHaveItem@CHalfLifeRules@@UAEHPAVCBasePlayer@@PAVCItem@@@Z
_TEXT	SEGMENT
_this$ = -4						; size = 4
_pPlayer$ = 8						; size = 4
_pItem$ = 12						; size = 4
?CanHaveItem@CHalfLifeRules@@UAEHPAVCBasePlayer@@PAVCItem@@@Z PROC ; CHalfLifeRules::CanHaveItem, COMDAT
; _this$ = ecx

; 292  : {

	push	ebp
	mov	ebp, esp
	sub	esp, 68					; 00000044H
	push	ebx
	push	esi
	push	edi
	mov	DWORD PTR _this$[ebp], ecx

; 293  : 	return TRUE;

	mov	eax, 1

; 294  : }

	pop	edi
	pop	esi
	pop	ebx
	mov	esp, ebp
	pop	ebp
	ret	8
?CanHaveItem@CHalfLifeRules@@UAEHPAVCBasePlayer@@PAVCItem@@@Z ENDP ; CHalfLifeRules::CanHaveItem
_TEXT	ENDS
; Function compile flags: /Odtp /ZI
; File d:\!diffusion 2020\source code 2022\client-server\server\game\rules_singleplayer.cpp
;	COMDAT ?VecWeaponRespawnSpot@CHalfLifeRules@@UAE?AVVector@@PAVCBasePlayerItem@@@Z
_TEXT	SEGMENT
_this$ = -4						; size = 4
___$ReturnUdt$ = 8					; size = 4
_pWeapon$ = 12						; size = 4
?VecWeaponRespawnSpot@CHalfLifeRules@@UAE?AVVector@@PAVCBasePlayerItem@@@Z PROC ; CHalfLifeRules::VecWeaponRespawnSpot, COMDAT
; _this$ = ecx

; 276  : {

	push	ebp
	mov	ebp, esp
	sub	esp, 68					; 00000044H
	push	ebx
	push	esi
	push	edi
	mov	DWORD PTR _this$[ebp], ecx

; 277  : 	return pWeapon->GetAbsOrigin();

	mov	ecx, DWORD PTR _pWeapon$[ebp]
	call	?GetAbsOrigin@CBaseEntity@@QBEABVVector@@XZ ; CBaseEntity::GetAbsOrigin
	push	eax
	mov	ecx, DWORD PTR ___$ReturnUdt$[ebp]
	call	??0Vector@@QAE@ABV0@@Z			; Vector::Vector
	mov	eax, DWORD PTR ___$ReturnUdt$[ebp]

; 278  : }

	pop	edi
	pop	esi
	pop	ebx
	mov	esp, ebp
	pop	ebp
	ret	8
?VecWeaponRespawnSpot@CHalfLifeRules@@UAE?AVVector@@PAVCBasePlayerItem@@@Z ENDP ; CHalfLifeRules::VecWeaponRespawnSpot
_TEXT	ENDS
; Function compile flags: /Odtp /ZI
; File d:\!diffusion 2020\source code 2022\client-server\server\game\rules_singleplayer.cpp
;	COMDAT ?FlWeaponTryRespawn@CHalfLifeRules@@UAEMPAVCBasePlayerItem@@@Z
_TEXT	SEGMENT
_this$ = -4						; size = 4
_pWeapon$ = 8						; size = 4
?FlWeaponTryRespawn@CHalfLifeRules@@UAEMPAVCBasePlayerItem@@@Z PROC ; CHalfLifeRules::FlWeaponTryRespawn, COMDAT
; _this$ = ecx

; 267  : {

	push	ebp
	mov	ebp, esp
	sub	esp, 68					; 00000044H
	push	ebx
	push	esi
	push	edi
	mov	DWORD PTR _this$[ebp], ecx

; 268  : 	return 0;

	fldz

; 269  : }

	pop	edi
	pop	esi
	pop	ebx
	mov	esp, ebp
	pop	ebp
	ret	4
?FlWeaponTryRespawn@CHalfLifeRules@@UAEMPAVCBasePlayerItem@@@Z ENDP ; CHalfLifeRules::FlWeaponTryRespawn
_TEXT	ENDS
; Function compile flags: /Odtp /ZI
; File d:\!diffusion 2020\source code 2022\client-server\server\game\rules_singleplayer.cpp
;	COMDAT ?FlWeaponRespawnTime@CHalfLifeRules@@UAEMPAVCBasePlayerItem@@@Z
_TEXT	SEGMENT
_this$ = -4						; size = 4
_pWeapon$ = 8						; size = 4
?FlWeaponRespawnTime@CHalfLifeRules@@UAEMPAVCBasePlayerItem@@@Z PROC ; CHalfLifeRules::FlWeaponRespawnTime, COMDAT
; _this$ = ecx

; 257  : {

	push	ebp
	mov	ebp, esp
	sub	esp, 68					; 00000044H
	push	ebx
	push	esi
	push	edi
	mov	DWORD PTR _this$[ebp], ecx

; 258  : 	return -1;

	fld	DWORD PTR __real@bf800000

; 259  : }

	pop	edi
	pop	esi
	pop	ebx
	mov	esp, ebp
	pop	ebp
	ret	4
?FlWeaponRespawnTime@CHalfLifeRules@@UAEMPAVCBasePlayerItem@@@Z ENDP ; CHalfLifeRules::FlWeaponRespawnTime
_TEXT	ENDS
; Function compile flags: /Odtp /ZI
; File d:\!diffusion 2020\source code 2022\client-server\server\game\rules_singleplayer.cpp
;	COMDAT ?WeaponShouldRespawn@CHalfLifeRules@@UAEHPAVCBasePlayerItem@@@Z
_TEXT	SEGMENT
_this$ = -4						; size = 4
_pWeapon$ = 8						; size = 4
?WeaponShouldRespawn@CHalfLifeRules@@UAEHPAVCBasePlayerItem@@@Z PROC ; CHalfLifeRules::WeaponShouldRespawn, COMDAT
; _this$ = ecx

; 285  : {

	push	ebp
	mov	ebp, esp
	sub	esp, 68					; 00000044H
	push	ebx
	push	esi
	push	edi
	mov	DWORD PTR _this$[ebp], ecx

; 286  : 	return GR_WEAPON_RESPAWN_NO;

	mov	eax, 2

; 287  : }

	pop	edi
	pop	esi
	pop	ebx
	mov	esp, ebp
	pop	ebp
	ret	4
?WeaponShouldRespawn@CHalfLifeRules@@UAEHPAVCBasePlayerItem@@@Z ENDP ; CHalfLifeRules::WeaponShouldRespawn
_TEXT	ENDS
; Function compile flags: /Odtp /ZI
; File d:\!diffusion 2020\source code 2022\client-server\server\game\rules_singleplayer.cpp
;	COMDAT ?PlayerGotWeapon@CHalfLifeRules@@UAEXPAVCBasePlayer@@PAVCBasePlayerItem@@@Z
_TEXT	SEGMENT
_this$ = -4						; size = 4
_pPlayer$ = 8						; size = 4
_pWeapon$ = 12						; size = 4
?PlayerGotWeapon@CHalfLifeRules@@UAEXPAVCBasePlayer@@PAVCBasePlayerItem@@@Z PROC ; CHalfLifeRules::PlayerGotWeapon, COMDAT
; _this$ = ecx

; 249  : {

	push	ebp
	mov	ebp, esp
	sub	esp, 68					; 00000044H
	push	ebx
	push	esi
	push	edi
	mov	DWORD PTR _this$[ebp], ecx

; 250  : }

	pop	edi
	pop	esi
	pop	ebx
	mov	esp, ebp
	pop	ebp
	ret	8
?PlayerGotWeapon@CHalfLifeRules@@UAEXPAVCBasePlayer@@PAVCBasePlayerItem@@@Z ENDP ; CHalfLifeRules::PlayerGotWeapon
_TEXT	ENDS
; Function compile flags: /Odtp /ZI
; File d:\!diffusion 2020\source code 2022\client-server\server\game\rules_singleplayer.cpp
;	COMDAT ?DeathNotice@CHalfLifeRules@@UAEXPAVCBasePlayer@@PAUentvars_s@@1@Z
_TEXT	SEGMENT
_this$ = -4						; size = 4
_pVictim$ = 8						; size = 4
_pKiller$ = 12						; size = 4
_pInflictor$ = 16					; size = 4
?DeathNotice@CHalfLifeRules@@UAEXPAVCBasePlayer@@PAUentvars_s@@1@Z PROC ; CHalfLifeRules::DeathNotice, COMDAT
; _this$ = ecx

; 241  : {

	push	ebp
	mov	ebp, esp
	sub	esp, 68					; 00000044H
	push	ebx
	push	esi
	push	edi
	mov	DWORD PTR _this$[ebp], ecx

; 242  : }

	pop	edi
	pop	esi
	pop	ebx
	mov	esp, ebp
	pop	ebp
	ret	12					; 0000000cH
?DeathNotice@CHalfLifeRules@@UAEXPAVCBasePlayer@@PAUentvars_s@@1@Z ENDP ; CHalfLifeRules::DeathNotice
_TEXT	ENDS
; Function compile flags: /Odtp /ZI
; File d:\!diffusion 2020\source code 2022\client-server\server\game\rules_singleplayer.cpp
;	COMDAT ?PlayerKilled@CHalfLifeRules@@UAEXPAVCBasePlayer@@PAUentvars_s@@1@Z
_TEXT	SEGMENT
_this$ = -4						; size = 4
_pVictim$ = 8						; size = 4
_pKiller$ = 12						; size = 4
_pInflictor$ = 16					; size = 4
?PlayerKilled@CHalfLifeRules@@UAEXPAVCBasePlayer@@PAUentvars_s@@1@Z PROC ; CHalfLifeRules::PlayerKilled, COMDAT
; _this$ = ecx

; 234  : {

	push	ebp
	mov	ebp, esp
	sub	esp, 68					; 00000044H
	push	ebx
	push	esi
	push	edi
	mov	DWORD PTR _this$[ebp], ecx

; 235  : }

	pop	edi
	pop	esi
	pop	ebx
	mov	esp, ebp
	pop	ebp
	ret	12					; 0000000cH
?PlayerKilled@CHalfLifeRules@@UAEXPAVCBasePlayer@@PAUentvars_s@@1@Z ENDP ; CHalfLifeRules::PlayerKilled
_TEXT	ENDS
; Function compile flags: /Odtp /ZI
; File d:\!diffusion 2020\source code 2022\client-server\server\game\rules_singleplayer.cpp
;	COMDAT ?IPointsForKill@CHalfLifeRules@@UAEHPAVCBasePlayer@@0@Z
_TEXT	SEGMENT
_this$ = -4						; size = 4
_pAttacker$ = 8						; size = 4
_pKilled$ = 12						; size = 4
?IPointsForKill@CHalfLifeRules@@UAEHPAVCBasePlayer@@0@Z PROC ; CHalfLifeRules::IPointsForKill, COMDAT
; _this$ = ecx

; 226  : {

	push	ebp
	mov	ebp, esp
	sub	esp, 68					; 00000044H
	push	ebx
	push	esi
	push	edi
	mov	DWORD PTR _this$[ebp], ecx

; 227  : 	return 1;

	mov	eax, 1

; 228  : }

	pop	edi
	pop	esi
	pop	ebx
	mov	esp, ebp
	pop	ebp
	ret	8
?IPointsForKill@CHalfLifeRules@@UAEHPAVCBasePlayer@@0@Z ENDP ; CHalfLifeRules::IPointsForKill
_TEXT	ENDS
; Function compile flags: /Odtp /ZI
; File d:\!diffusion 2020\source code 2022\client-server\server\game\rules_singleplayer.cpp
;	COMDAT ?AllowAutoTargetCrosshair@CHalfLifeRules@@UAEHXZ
_TEXT	SEGMENT
tv65 = -72						; size = 4
_this$ = -4						; size = 4
?AllowAutoTargetCrosshair@CHalfLifeRules@@UAEHXZ PROC	; CHalfLifeRules::AllowAutoTargetCrosshair, COMDAT
; _this$ = ecx

; 196  : {

	push	ebp
	mov	ebp, esp
	sub	esp, 72					; 00000048H
	push	ebx
	push	esi
	push	edi
	mov	DWORD PTR _this$[ebp], ecx

; 197  : 	return ( g_iSkillLevel == SKILL_EASY );

	cmp	DWORD PTR ?g_iSkillLevel@@3HA, 1	; g_iSkillLevel
	jne	SHORT $LN3@AllowAutoT
	mov	DWORD PTR tv65[ebp], 1
	jmp	SHORT $LN4@AllowAutoT
$LN3@AllowAutoT:
	mov	DWORD PTR tv65[ebp], 0
$LN4@AllowAutoT:
	mov	eax, DWORD PTR tv65[ebp]

; 198  : }

	pop	edi
	pop	esi
	pop	ebx
	mov	esp, ebp
	pop	ebp
	ret	0
?AllowAutoTargetCrosshair@CHalfLifeRules@@UAEHXZ ENDP	; CHalfLifeRules::AllowAutoTargetCrosshair
_TEXT	ENDS
; Function compile flags: /Odtp /ZI
; File d:\!diffusion 2020\source code 2022\client-server\server\game\rules_singleplayer.cpp
;	COMDAT ?FlPlayerSpawnTime@CHalfLifeRules@@UAEMPAVCBasePlayer@@@Z
_TEXT	SEGMENT
_this$ = -4						; size = 4
_pPlayer$ = 8						; size = 4
?FlPlayerSpawnTime@CHalfLifeRules@@UAEMPAVCBasePlayer@@@Z PROC ; CHalfLifeRules::FlPlayerSpawnTime, COMDAT
; _this$ = ecx

; 217  : {

	push	ebp
	mov	ebp, esp
	sub	esp, 68					; 00000044H
	push	ebx
	push	esi
	push	edi
	mov	DWORD PTR _this$[ebp], ecx

; 218  : 	return gpGlobals->time;//now!

	mov	eax, DWORD PTR ?gpGlobals@@3PAUglobalvars_t@@A ; gpGlobals
	fld	DWORD PTR [eax]

; 219  : }

	pop	edi
	pop	esi
	pop	ebx
	mov	esp, ebp
	pop	ebp
	ret	4
?FlPlayerSpawnTime@CHalfLifeRules@@UAEMPAVCBasePlayer@@@Z ENDP ; CHalfLifeRules::FlPlayerSpawnTime
_TEXT	ENDS
; Function compile flags: /Odtp /ZI
; File d:\!diffusion 2020\source code 2022\client-server\server\game\rules_singleplayer.cpp
;	COMDAT ?FPlayerCanRespawn@CHalfLifeRules@@UAEHPAVCBasePlayer@@@Z
_TEXT	SEGMENT
_this$ = -4						; size = 4
_pPlayer$ = 8						; size = 4
?FPlayerCanRespawn@CHalfLifeRules@@UAEHPAVCBasePlayer@@@Z PROC ; CHalfLifeRules::FPlayerCanRespawn, COMDAT
; _this$ = ecx

; 210  : {

	push	ebp
	mov	ebp, esp
	sub	esp, 68					; 00000044H
	push	ebx
	push	esi
	push	edi
	mov	DWORD PTR _this$[ebp], ecx

; 211  : 	return TRUE;

	mov	eax, 1

; 212  : }

	pop	edi
	pop	esi
	pop	ebx
	mov	esp, ebp
	pop	ebp
	ret	4
?FPlayerCanRespawn@CHalfLifeRules@@UAEHPAVCBasePlayer@@@Z ENDP ; CHalfLifeRules::FPlayerCanRespawn
_TEXT	ENDS
; Function compile flags: /Odtp /ZI
; File d:\!diffusion 2020\source code 2022\client-server\server\game\rules_singleplayer.cpp
;	COMDAT ?PlayerThink@CHalfLifeRules@@UAEXPAVCBasePlayer@@@Z
_TEXT	SEGMENT
_this$ = -4						; size = 4
_pPlayer$ = 8						; size = 4
?PlayerThink@CHalfLifeRules@@UAEXPAVCBasePlayer@@@Z PROC ; CHalfLifeRules::PlayerThink, COMDAT
; _this$ = ecx

; 203  : {

	push	ebp
	mov	ebp, esp
	sub	esp, 68					; 00000044H
	push	ebx
	push	esi
	push	edi
	mov	DWORD PTR _this$[ebp], ecx

; 204  : }

	pop	edi
	pop	esi
	pop	ebx
	mov	esp, ebp
	pop	ebp
	ret	4
?PlayerThink@CHalfLifeRules@@UAEXPAVCBasePlayer@@@Z ENDP ; CHalfLifeRules::PlayerThink
_TEXT	ENDS
; Function compile flags: /Odtp /ZI
; File d:\!diffusion 2020\source code 2022\client-server\server\game\rules_singleplayer.cpp
;	COMDAT ?PlayerSpawn@CHalfLifeRules@@UAEXPAVCBasePlayer@@@Z
_TEXT	SEGMENT
_pWeaponEntity$ = -8					; size = 4
_this$ = -4						; size = 4
_pPlayer$ = 8						; size = 4
?PlayerSpawn@CHalfLifeRules@@UAEXPAVCBasePlayer@@@Z PROC ; CHalfLifeRules::PlayerSpawn, COMDAT
; _this$ = ecx

; 182  : {

	push	ebp
	mov	ebp, esp
	sub	esp, 72					; 00000048H
	push	ebx
	push	esi
	push	edi
	mov	DWORD PTR _this$[ebp], ecx

; 183  : 	CBaseEntity	*pWeaponEntity = NULL;

	mov	DWORD PTR _pWeaponEntity$[ebp], 0
$LN2@PlayerSpaw:

; 184  : 
; 185  : // LRC what's wrong with allowing "game_player_equip" entities in single player? (The
; 186  : // level designer is God: if he wants the player to start with a weapon, we should allow it!)
; 187  : 	while ( pWeaponEntity = UTIL_FindEntityByClassname( pWeaponEntity, "game_player_equip" ))

	push	OFFSET ??_C@_0BC@NDIKNKII@game_player_equip?$AA@
	mov	eax, DWORD PTR _pWeaponEntity$[ebp]
	push	eax
	call	?UTIL_FindEntityByClassname@@YAPAVCBaseEntity@@PAV1@PBD@Z ; UTIL_FindEntityByClassname
	add	esp, 8
	mov	DWORD PTR _pWeaponEntity$[ebp], eax
	cmp	DWORD PTR _pWeaponEntity$[ebp], 0
	je	SHORT $LN1@PlayerSpaw

; 188  : 	{
; 189  : 		pWeaponEntity->Touch( pPlayer );

	mov	eax, DWORD PTR _pPlayer$[ebp]
	push	eax
	mov	ecx, DWORD PTR _pWeaponEntity$[ebp]
	mov	edx, DWORD PTR [ecx]
	mov	ecx, DWORD PTR _pWeaponEntity$[ebp]
	mov	eax, DWORD PTR [edx+312]
	call	eax

; 190  : 	}

	jmp	SHORT $LN2@PlayerSpaw
$LN1@PlayerSpaw:

; 191  : }

	pop	edi
	pop	esi
	pop	ebx
	mov	esp, ebp
	pop	ebp
	ret	4
?PlayerSpawn@CHalfLifeRules@@UAEXPAVCBasePlayer@@@Z ENDP ; CHalfLifeRules::PlayerSpawn
_TEXT	ENDS
; Function compile flags: /Odtp /ZI
; File d:\!diffusion 2020\source code 2022\client-server\server\game\rules_singleplayer.cpp
;	COMDAT ?FlPlayerFallDamage@CHalfLifeRules@@UAEMPAVCBasePlayer@@@Z
_TEXT	SEGMENT
tv76 = -72						; size = 4
_this$ = -4						; size = 4
_pPlayer$ = 8						; size = 4
?FlPlayerFallDamage@CHalfLifeRules@@UAEMPAVCBasePlayer@@@Z PROC ; CHalfLifeRules::FlPlayerFallDamage, COMDAT
; _this$ = ecx

; 172  : {

	push	ebp
	mov	ebp, esp
	sub	esp, 72					; 00000048H
	push	ebx
	push	esi
	push	edi
	mov	DWORD PTR _this$[ebp], ecx

; 173  : 	// subtract off the speed at which a player is allowed to fall without being hurt,
; 174  : 	// so damage will be based on speed beyond that, not the entire fall
; 175  : 	pPlayer->m_flFallVelocity -= PLAYER_MAX_SAFE_FALL_SPEED;

	mov	eax, DWORD PTR _pPlayer$[ebp]
	movss	xmm0, DWORD PTR [eax+2552]
	subss	xmm0, DWORD PTR __real@43fa0000
	mov	ecx, DWORD PTR _pPlayer$[ebp]
	movss	DWORD PTR [ecx+2552], xmm0

; 176  : 	return pPlayer->m_flFallVelocity * DAMAGE_FOR_FALL_SPEED;

	mov	eax, DWORD PTR _pPlayer$[ebp]
	movss	xmm0, DWORD PTR [eax+2552]
	mulss	xmm0, DWORD PTR __real@42c80000
	divss	xmm0, DWORD PTR __real@44030000
	movss	DWORD PTR tv76[ebp], xmm0
	fld	DWORD PTR tv76[ebp]

; 177  : }

	pop	edi
	pop	esi
	pop	ebx
	mov	esp, ebp
	pop	ebp
	ret	4
?FlPlayerFallDamage@CHalfLifeRules@@UAEMPAVCBasePlayer@@@Z ENDP ; CHalfLifeRules::FlPlayerFallDamage
_TEXT	ENDS
; Function compile flags: /Odtp /ZI
; File d:\!diffusion 2020\source code 2022\client-server\server\game\rules_singleplayer.cpp
;	COMDAT ?ClientDisconnected@CHalfLifeRules@@UAEXPAUedict_s@@@Z
_TEXT	SEGMENT
_this$ = -4						; size = 4
_pClient$ = 8						; size = 4
?ClientDisconnected@CHalfLifeRules@@UAEXPAUedict_s@@@Z PROC ; CHalfLifeRules::ClientDisconnected, COMDAT
; _this$ = ecx

; 166  : {

	push	ebp
	mov	ebp, esp
	sub	esp, 68					; 00000044H
	push	ebx
	push	esi
	push	edi
	mov	DWORD PTR _this$[ebp], ecx

; 167  : }

	pop	edi
	pop	esi
	pop	ebx
	mov	esp, ebp
	pop	ebp
	ret	4
?ClientDisconnected@CHalfLifeRules@@UAEXPAUedict_s@@@Z ENDP ; CHalfLifeRules::ClientDisconnected
_TEXT	ENDS
; Function compile flags: /Odtp /ZI
; File d:\!diffusion 2020\source code 2022\client-server\server\game\rules_singleplayer.cpp
;	COMDAT ?InitHUD@CHalfLifeRules@@UAEXPAVCBasePlayer@@@Z
_TEXT	SEGMENT
_this$ = -4						; size = 4
_pl$ = 8						; size = 4
?InitHUD@CHalfLifeRules@@UAEXPAVCBasePlayer@@@Z PROC	; CHalfLifeRules::InitHUD, COMDAT
; _this$ = ecx

; 160  : {

	push	ebp
	mov	ebp, esp
	sub	esp, 68					; 00000044H
	push	ebx
	push	esi
	push	edi
	mov	DWORD PTR _this$[ebp], ecx

; 161  : }

	pop	edi
	pop	esi
	pop	ebx
	mov	esp, ebp
	pop	ebp
	ret	4
?InitHUD@CHalfLifeRules@@UAEXPAVCBasePlayer@@@Z ENDP	; CHalfLifeRules::InitHUD
_TEXT	ENDS
; Function compile flags: /Odtp /ZI
; File d:\!diffusion 2020\source code 2022\client-server\server\game\rules_singleplayer.cpp
;	COMDAT ?ClientConnected@CHalfLifeRules@@UAEHPAUedict_s@@PBD1QAD@Z
_TEXT	SEGMENT
_this$ = -4						; size = 4
_pEntity$ = 8						; size = 4
_pszName$ = 12						; size = 4
_pszAddress$ = 16					; size = 4
_szRejectReason$ = 20					; size = 4
?ClientConnected@CHalfLifeRules@@UAEHPAUedict_s@@PBD1QAD@Z PROC ; CHalfLifeRules::ClientConnected, COMDAT
; _this$ = ecx

; 155  : {

	push	ebp
	mov	ebp, esp
	sub	esp, 68					; 00000044H
	push	ebx
	push	esi
	push	edi
	mov	DWORD PTR _this$[ebp], ecx

; 156  : 	return TRUE;

	mov	eax, 1

; 157  : }

	pop	edi
	pop	esi
	pop	ebx
	mov	esp, ebp
	pop	ebp
	ret	16					; 00000010H
?ClientConnected@CHalfLifeRules@@UAEHPAUedict_s@@PBD1QAD@Z ENDP ; CHalfLifeRules::ClientConnected
_TEXT	ENDS
; Function compile flags: /Odtp /ZI
; File d:\!diffusion 2020\source code 2022\client-server\server\game\rules_singleplayer.cpp
;	COMDAT ?IsCoOp@CHalfLifeRules@@UAEHXZ
_TEXT	SEGMENT
_this$ = -4						; size = 4
?IsCoOp@CHalfLifeRules@@UAEHXZ PROC			; CHalfLifeRules::IsCoOp, COMDAT
; _this$ = ecx

; 63   : {

	push	ebp
	mov	ebp, esp
	sub	esp, 68					; 00000044H
	push	ebx
	push	esi
	push	edi
	mov	DWORD PTR _this$[ebp], ecx

; 64   : 	return FALSE;

	xor	eax, eax

; 65   : }

	pop	edi
	pop	esi
	pop	ebx
	mov	esp, ebp
	pop	ebp
	ret	0
?IsCoOp@CHalfLifeRules@@UAEHXZ ENDP			; CHalfLifeRules::IsCoOp
_TEXT	ENDS
; Function compile flags: /Odtp /ZI
; File d:\!diffusion 2020\source code 2022\client-server\server\game\rules_singleplayer.cpp
;	COMDAT ?IsDeathmatch@CHalfLifeRules@@UAEHXZ
_TEXT	SEGMENT
_this$ = -4						; size = 4
?IsDeathmatch@CHalfLifeRules@@UAEHXZ PROC		; CHalfLifeRules::IsDeathmatch, COMDAT
; _this$ = ecx

; 56   : {

	push	ebp
	mov	ebp, esp
	sub	esp, 68					; 00000044H
	push	ebx
	push	esi
	push	edi
	mov	DWORD PTR _this$[ebp], ecx

; 57   : 	return FALSE;

	xor	eax, eax

; 58   : }

	pop	edi
	pop	esi
	pop	ebx
	mov	esp, ebp
	pop	ebp
	ret	0
?IsDeathmatch@CHalfLifeRules@@UAEHXZ ENDP		; CHalfLifeRules::IsDeathmatch
_TEXT	ENDS
; Function compile flags: /Odtp /ZI
; File d:\!diffusion 2020\source code 2022\client-server\server\game\rules_singleplayer.cpp
;	COMDAT ?IsMultiplayer@CHalfLifeRules@@UAEHXZ
_TEXT	SEGMENT
_this$ = -4						; size = 4
?IsMultiplayer@CHalfLifeRules@@UAEHXZ PROC		; CHalfLifeRules::IsMultiplayer, COMDAT
; _this$ = ecx

; 49   : {

	push	ebp
	mov	ebp, esp
	sub	esp, 68					; 00000044H
	push	ebx
	push	esi
	push	edi
	mov	DWORD PTR _this$[ebp], ecx

; 50   : 	return FALSE;

	xor	eax, eax

; 51   : }

	pop	edi
	pop	esi
	pop	ebx
	mov	esp, ebp
	pop	ebp
	ret	0
?IsMultiplayer@CHalfLifeRules@@UAEHXZ ENDP		; CHalfLifeRules::IsMultiplayer
_TEXT	ENDS
; Function compile flags: /Odtp /ZI
; File d:\!diffusion 2020\source code 2022\client-server\server\game\rules_singleplayer.cpp
;	COMDAT ?GetNextBestWeapon@CHalfLifeRules@@UAEHPAVCBasePlayer@@PAVCBasePlayerItem@@@Z
_TEXT	SEGMENT
_i$ = -20						; size = 4
_iBestWeight$ = -16					; size = 4
_pBest$ = -12						; size = 4
_pCheck$ = -8						; size = 4
_this$ = -4						; size = 4
_pPlayer$ = 8						; size = 4
_pCurrentWeapon$ = 12					; size = 4
?GetNextBestWeapon@CHalfLifeRules@@UAEHPAVCBasePlayer@@PAVCBasePlayerItem@@@Z PROC ; CHalfLifeRules::GetNextBestWeapon, COMDAT
; _this$ = ecx

; 89   : {

	push	ebp
	mov	ebp, esp
	sub	esp, 84					; 00000054H
	push	ebx
	push	esi
	push	edi
	mov	DWORD PTR _this$[ebp], ecx

; 90   : 	CBasePlayerItem *pCheck;
; 91   : 	CBasePlayerItem *pBest;// this will be used in the event that we don't find a weapon in the same category.
; 92   : 	int iBestWeight;
; 93   : 	int i;
; 94   : 
; 95   : 	iBestWeight = -1;// no weapon lower than -1 can be autoswitched to

	mov	DWORD PTR _iBestWeight$[ebp], -1

; 96   : 	pBest = NULL;

	mov	DWORD PTR _pBest$[ebp], 0

; 97   : 
; 98   : 	if ( !pCurrentWeapon->CanHolster() )

	mov	eax, DWORD PTR _pCurrentWeapon$[ebp]
	mov	edx, DWORD PTR [eax]
	mov	ecx, DWORD PTR _pCurrentWeapon$[ebp]
	mov	eax, DWORD PTR [edx+400]
	call	eax
	test	eax, eax
	jne	SHORT $LN7@GetNextBes

; 99   : 	{
; 100  : 		// can't put this gun away right now, so can't switch.
; 101  : 		return FALSE;

	xor	eax, eax
	jmp	$LN1@GetNextBes
$LN7@GetNextBes:

; 102  : 	}
; 103  : 
; 104  : 	for ( i = 0 ; i < MAX_ITEM_TYPES ; i++ )

	mov	DWORD PTR _i$[ebp], 0
	jmp	SHORT $LN4@GetNextBes
$LN2@GetNextBes:
	mov	eax, DWORD PTR _i$[ebp]
	add	eax, 1
	mov	DWORD PTR _i$[ebp], eax
$LN4@GetNextBes:
	cmp	DWORD PTR _i$[ebp], 6
	jge	$LN3@GetNextBes

; 105  : 	{
; 106  : 		pCheck = pPlayer->m_rgpPlayerItems[ i ];

	mov	eax, DWORD PTR _i$[ebp]
	mov	ecx, DWORD PTR _pPlayer$[ebp]
	mov	edx, DWORD PTR [ecx+eax*4+3076]
	mov	DWORD PTR _pCheck$[ebp], edx
$LN5@GetNextBes:

; 107  : 
; 108  : 		while ( pCheck )

	cmp	DWORD PTR _pCheck$[ebp], 0
	je	$LN6@GetNextBes

; 109  : 		{
; 110  : 			if ( pCheck->iWeight() > -1 && pCheck->iWeight() == pCurrentWeapon->iWeight() && pCheck != pCurrentWeapon )

	mov	ecx, DWORD PTR _pCheck$[ebp]
	call	?iWeight@CBasePlayerItem@@QAEHXZ	; CBasePlayerItem::iWeight
	cmp	eax, -1
	jle	SHORT $LN8@GetNextBes
	mov	ecx, DWORD PTR _pCheck$[ebp]
	call	?iWeight@CBasePlayerItem@@QAEHXZ	; CBasePlayerItem::iWeight
	mov	esi, eax
	mov	ecx, DWORD PTR _pCurrentWeapon$[ebp]
	call	?iWeight@CBasePlayerItem@@QAEHXZ	; CBasePlayerItem::iWeight
	cmp	esi, eax
	jne	SHORT $LN8@GetNextBes
	mov	eax, DWORD PTR _pCheck$[ebp]
	cmp	eax, DWORD PTR _pCurrentWeapon$[ebp]
	je	SHORT $LN8@GetNextBes

; 111  : 			{
; 112  : 				// this weapon is from the same category. 
; 113  : 				if ( pCheck->CanDeploy() )

	mov	eax, DWORD PTR _pCheck$[ebp]
	mov	edx, DWORD PTR [eax]
	mov	ecx, DWORD PTR _pCheck$[ebp]
	mov	eax, DWORD PTR [edx+392]
	call	eax
	test	eax, eax
	je	SHORT $LN10@GetNextBes

; 114  : 				{
; 115  : 					if ( pPlayer->SwitchWeapon( pCheck ) )

	mov	eax, DWORD PTR _pCheck$[ebp]
	push	eax
	mov	ecx, DWORD PTR _pPlayer$[ebp]
	call	?SwitchWeapon@CBasePlayer@@QAEHPAVCBasePlayerItem@@@Z ; CBasePlayer::SwitchWeapon
	test	eax, eax
	je	SHORT $LN10@GetNextBes

; 116  : 						return TRUE;

	mov	eax, 1
	jmp	SHORT $LN1@GetNextBes
$LN10@GetNextBes:

; 117  : 				}
; 118  : 			}

	jmp	SHORT $LN9@GetNextBes
$LN8@GetNextBes:

; 119  : 			else if ( pCheck->iWeight() > iBestWeight && pCheck != pCurrentWeapon )// don't reselect the weapon we're trying to get rid of

	mov	ecx, DWORD PTR _pCheck$[ebp]
	call	?iWeight@CBasePlayerItem@@QAEHXZ	; CBasePlayerItem::iWeight
	cmp	eax, DWORD PTR _iBestWeight$[ebp]
	jle	SHORT $LN9@GetNextBes
	mov	eax, DWORD PTR _pCheck$[ebp]
	cmp	eax, DWORD PTR _pCurrentWeapon$[ebp]
	je	SHORT $LN9@GetNextBes

; 120  : 			{
; 121  : 				//ALERT ( at_console, "Considering %s\n", STRING( pCheck->pev->classname ) );
; 122  : 				// we keep updating the 'best' weapon just in case we can't find a weapon of the same weight
; 123  : 				// that the player was using. This will end up leaving the player with his heaviest-weighted 
; 124  : 				// weapon. 
; 125  : 				if ( pCheck->CanDeploy() )

	mov	eax, DWORD PTR _pCheck$[ebp]
	mov	edx, DWORD PTR [eax]
	mov	ecx, DWORD PTR _pCheck$[ebp]
	mov	eax, DWORD PTR [edx+392]
	call	eax
	test	eax, eax
	je	SHORT $LN9@GetNextBes

; 126  : 				{
; 127  : 					// if this weapon is useable, flag it as the best
; 128  : 					iBestWeight = pCheck->iWeight();

	mov	ecx, DWORD PTR _pCheck$[ebp]
	call	?iWeight@CBasePlayerItem@@QAEHXZ	; CBasePlayerItem::iWeight
	mov	DWORD PTR _iBestWeight$[ebp], eax

; 129  : 					pBest = pCheck;

	mov	eax, DWORD PTR _pCheck$[ebp]
	mov	DWORD PTR _pBest$[ebp], eax
$LN9@GetNextBes:

; 130  : 				}
; 131  : 			}
; 132  : 
; 133  : 			pCheck = pCheck->m_pNext;

	mov	eax, DWORD PTR _pCheck$[ebp]
	mov	ecx, DWORD PTR [eax+1860]
	mov	DWORD PTR _pCheck$[ebp], ecx

; 134  : 		}

	jmp	$LN5@GetNextBes
$LN6@GetNextBes:

; 135  : 	}

	jmp	$LN2@GetNextBes
$LN3@GetNextBes:

; 136  : 
; 137  : 	// if we make it here, we've checked all the weapons and found no useable 
; 138  : 	// weapon in the same catagory as the current weapon. 
; 139  : 	
; 140  : 	// if pBest is null, we didn't find ANYTHING. Shouldn't be possible- should always 
; 141  : 	// at least get the crowbar, but ya never know.
; 142  : 	if ( !pBest )

	cmp	DWORD PTR _pBest$[ebp], 0
	jne	SHORT $LN14@GetNextBes

; 143  : 	{
; 144  : 		return FALSE;

	xor	eax, eax
	jmp	SHORT $LN1@GetNextBes
$LN14@GetNextBes:

; 145  : 	}
; 146  : 
; 147  : 	pPlayer->SwitchWeapon( pBest );

	mov	eax, DWORD PTR _pBest$[ebp]
	push	eax
	mov	ecx, DWORD PTR _pPlayer$[ebp]
	call	?SwitchWeapon@CBasePlayer@@QAEHPAVCBasePlayerItem@@@Z ; CBasePlayer::SwitchWeapon

; 148  : 
; 149  : 	return TRUE;

	mov	eax, 1
$LN1@GetNextBes:

; 150  : }

	pop	edi
	pop	esi
	pop	ebx
	mov	esp, ebp
	pop	ebp
	ret	8
?GetNextBestWeapon@CHalfLifeRules@@UAEHPAVCBasePlayer@@PAVCBasePlayerItem@@@Z ENDP ; CHalfLifeRules::GetNextBestWeapon
_TEXT	ENDS
; Function compile flags: /Odtp /ZI
; File d:\!diffusion 2020\source code 2022\client-server\server\game\rules_singleplayer.cpp
;	COMDAT ?FShouldSwitchWeapon@CHalfLifeRules@@UAEHPAVCBasePlayer@@PAVCBasePlayerItem@@@Z
_TEXT	SEGMENT
_this$ = -4						; size = 4
_pPlayer$ = 8						; size = 4
_pWeapon$ = 12						; size = 4
?FShouldSwitchWeapon@CHalfLifeRules@@UAEHPAVCBasePlayer@@PAVCBasePlayerItem@@@Z PROC ; CHalfLifeRules::FShouldSwitchWeapon, COMDAT
; _this$ = ecx

; 71   : {

	push	ebp
	mov	ebp, esp
	sub	esp, 68					; 00000044H
	push	ebx
	push	esi
	push	edi
	mov	DWORD PTR _this$[ebp], ecx

; 72   : 	if ( !pPlayer->m_pActiveItem )

	mov	eax, DWORD PTR _pPlayer$[ebp]
	cmp	DWORD PTR [eax+3100], 0
	jne	SHORT $LN2@FShouldSwi

; 73   : 	{
; 74   : 		// player doesn't have an active item!
; 75   : 		return TRUE;

	mov	eax, 1
	jmp	SHORT $LN1@FShouldSwi
$LN2@FShouldSwi:

; 76   : 	}
; 77   : 
; 78   : 	if ( !pPlayer->m_pActiveItem->CanHolster() )

	mov	eax, DWORD PTR _pPlayer$[ebp]
	mov	ecx, DWORD PTR [eax+3100]
	mov	edx, DWORD PTR _pPlayer$[ebp]
	mov	eax, DWORD PTR [ecx]
	mov	ecx, DWORD PTR [edx+3100]
	mov	edx, DWORD PTR [eax+400]
	call	edx
	test	eax, eax
	jne	SHORT $LN3@FShouldSwi

; 79   : 	{
; 80   : 		return FALSE;

	xor	eax, eax
	jmp	SHORT $LN1@FShouldSwi
$LN3@FShouldSwi:

; 81   : 	}
; 82   : 
; 83   : 	return TRUE;

	mov	eax, 1
$LN1@FShouldSwi:

; 84   : }

	pop	edi
	pop	esi
	pop	ebx
	mov	esp, ebp
	pop	ebp
	ret	8
?FShouldSwitchWeapon@CHalfLifeRules@@UAEHPAVCBasePlayer@@PAVCBasePlayerItem@@@Z ENDP ; CHalfLifeRules::FShouldSwitchWeapon
_TEXT	ENDS
; Function compile flags: /Odtp /ZI
; File d:\!diffusion 2020\source code 2022\client-server\server\game\gamerules.h
;	COMDAT ?FAllowFlashlight@CHalfLifeRules@@UAEHXZ
_TEXT	SEGMENT
_this$ = -4						; size = 4
?FAllowFlashlight@CHalfLifeRules@@UAEHXZ PROC		; CHalfLifeRules::FAllowFlashlight, COMDAT
; _this$ = ecx

; 216  : 	virtual BOOL FAllowFlashlight( void ) { return TRUE; };

	push	ebp
	mov	ebp, esp
	sub	esp, 68					; 00000044H
	push	ebx
	push	esi
	push	edi
	mov	DWORD PTR _this$[ebp], ecx
	mov	eax, 1
	pop	edi
	pop	esi
	pop	ebx
	mov	esp, ebp
	pop	ebp
	ret	0
?FAllowFlashlight@CHalfLifeRules@@UAEHXZ ENDP		; CHalfLifeRules::FAllowFlashlight
_TEXT	ENDS
; Function compile flags: /Odtp /ZI
; File d:\!diffusion 2020\source code 2022\client-server\server\game\rules_singleplayer.cpp
;	COMDAT ?IsAllowedToSpawn@CHalfLifeRules@@UAEHPAVCBaseEntity@@@Z
_TEXT	SEGMENT
_this$ = -4						; size = 4
_pEntity$ = 8						; size = 4
?IsAllowedToSpawn@CHalfLifeRules@@UAEHPAVCBaseEntity@@@Z PROC ; CHalfLifeRules::IsAllowedToSpawn, COMDAT
; _this$ = ecx

; 330  : {

	push	ebp
	mov	ebp, esp
	sub	esp, 68					; 00000044H
	push	ebx
	push	esi
	push	edi
	mov	DWORD PTR _this$[ebp], ecx

; 331  : 	return TRUE;

	mov	eax, 1

; 332  : }

	pop	edi
	pop	esi
	pop	ebx
	mov	esp, ebp
	pop	ebp
	ret	4
?IsAllowedToSpawn@CHalfLifeRules@@UAEHPAVCBaseEntity@@@Z ENDP ; CHalfLifeRules::IsAllowedToSpawn
_TEXT	ENDS
; Function compile flags: /Odtp /ZI
; File d:\!diffusion 2020\source code 2022\client-server\server\game\rules_singleplayer.cpp
;	COMDAT ?Think@CHalfLifeRules@@UAEXXZ
_TEXT	SEGMENT
_this$ = -4						; size = 4
?Think@CHalfLifeRules@@UAEXXZ PROC			; CHalfLifeRules::Think, COMDAT
; _this$ = ecx

; 43   : {

	push	ebp
	mov	ebp, esp
	sub	esp, 68					; 00000044H
	push	ebx
	push	esi
	push	edi
	mov	DWORD PTR _this$[ebp], ecx

; 44   : }

	pop	edi
	pop	esi
	pop	ebx
	mov	esp, ebp
	pop	ebp
	ret	0
?Think@CHalfLifeRules@@UAEXXZ ENDP			; CHalfLifeRules::Think
_TEXT	ENDS
; Function compile flags: /Odtp /ZI
; File d:\!diffusion 2020\source code 2022\client-server\server\game\rules_singleplayer.cpp
;	COMDAT ??0CHalfLifeRules@@QAE@XZ
_TEXT	SEGMENT
_this$ = -4						; size = 4
??0CHalfLifeRules@@QAE@XZ PROC				; CHalfLifeRules::CHalfLifeRules, COMDAT
; _this$ = ecx

; 36   : {

	push	ebp
	mov	ebp, esp
	sub	esp, 68					; 00000044H
	push	ebx
	push	esi
	push	edi
	mov	DWORD PTR _this$[ebp], ecx
	mov	ecx, DWORD PTR _this$[ebp]
	call	??0CGameRules@@QAE@XZ
	mov	eax, DWORD PTR _this$[ebp]
	mov	DWORD PTR [eax], OFFSET ??_7CHalfLifeRules@@6B@

; 37   : 	RefreshSkillData();

	mov	ecx, DWORD PTR _this$[ebp]
	call	?RefreshSkillData@CGameRules@@UAEXXZ	; CGameRules::RefreshSkillData

; 38   : }

	mov	eax, DWORD PTR _this$[ebp]
	pop	edi
	pop	esi
	pop	ebx
	mov	esp, ebp
	pop	ebp
	ret	0
??0CHalfLifeRules@@QAE@XZ ENDP				; CHalfLifeRules::CHalfLifeRules
_TEXT	ENDS
; Function compile flags: /Odtp /ZI
;	COMDAT ??0CGameRules@@QAE@XZ
_TEXT	SEGMENT
_this$ = -4						; size = 4
??0CGameRules@@QAE@XZ PROC				; CGameRules::CGameRules, COMDAT
; _this$ = ecx
	push	ebp
	mov	ebp, esp
	sub	esp, 68					; 00000044H
	push	ebx
	push	esi
	push	edi
	mov	DWORD PTR _this$[ebp], ecx
	mov	eax, DWORD PTR _this$[ebp]
	mov	DWORD PTR [eax], OFFSET ??_7CGameRules@@6B@
	push	OFFSET ??0Vector@@QAE@XZ		; Vector::Vector
	push	5
	push	12					; 0000000cH
	mov	eax, DWORD PTR _this$[ebp]
	add	eax, 27636				; 00006bf4H
	push	eax
	call	??_H@YGXPAXIIP6EPAX0@Z@Z
	mov	eax, DWORD PTR _this$[ebp]
	pop	edi
	pop	esi
	pop	ebx
	mov	esp, ebp
	pop	ebp
	ret	0
??0CGameRules@@QAE@XZ ENDP				; CGameRules::CGameRules
_TEXT	ENDS
; Function compile flags: /Odtp /ZI
; File d:\!diffusion 2020\source code 2022\client-server\server\game\gamerules.h
;	COMDAT ?EndMultiplayerGame@CGameRules@@UAEXXZ
_TEXT	SEGMENT
_this$ = -4						; size = 4
?EndMultiplayerGame@CGameRules@@UAEXXZ PROC		; CGameRules::EndMultiplayerGame, COMDAT
; _this$ = ecx

; 174  : 	virtual void EndMultiplayerGame( void ) {}

	push	ebp
	mov	ebp, esp
	sub	esp, 68					; 00000044H
	push	ebx
	push	esi
	push	edi
	mov	DWORD PTR _this$[ebp], ecx
	pop	edi
	pop	esi
	pop	ebx
	mov	esp, ebp
	pop	ebp
	ret	0
?EndMultiplayerGame@CGameRules@@UAEXXZ ENDP		; CGameRules::EndMultiplayerGame
_TEXT	ENDS
; Function compile flags: /Odtp /ZI
; File d:\!diffusion 2020\source code 2022\client-server\server\game\gamerules.h
;	COMDAT ?PlayFootstepSounds@CGameRules@@UAEHPAVCBasePlayer@@M@Z
_TEXT	SEGMENT
_this$ = -4						; size = 4
_pl$ = 8						; size = 4
_fvol$ = 12						; size = 4
?PlayFootstepSounds@CGameRules@@UAEHPAVCBasePlayer@@M@Z PROC ; CGameRules::PlayFootstepSounds, COMDAT
; _this$ = ecx

; 168  : 	virtual BOOL PlayFootstepSounds( CBasePlayer *pl, float fvol ) { return TRUE; }

	push	ebp
	mov	ebp, esp
	sub	esp, 68					; 00000044H
	push	ebx
	push	esi
	push	edi
	mov	DWORD PTR _this$[ebp], ecx
	mov	eax, 1
	pop	edi
	pop	esi
	pop	ebx
	mov	esp, ebp
	pop	ebp
	ret	8
?PlayFootstepSounds@CGameRules@@UAEHPAVCBasePlayer@@M@Z ENDP ; CGameRules::PlayFootstepSounds
_TEXT	ENDS
; Function compile flags: /Odtp /ZI
; File d:\!diffusion 2020\source code 2022\client-server\server\game\gamerules.h
;	COMDAT ?PlayTextureSounds@CGameRules@@UAEHXZ
_TEXT	SEGMENT
_this$ = -4						; size = 4
?PlayTextureSounds@CGameRules@@UAEHXZ PROC		; CGameRules::PlayTextureSounds, COMDAT
; _this$ = ecx

; 167  : 	virtual BOOL PlayTextureSounds( void ) { return TRUE; }

	push	ebp
	mov	ebp, esp
	sub	esp, 68					; 00000044H
	push	ebx
	push	esi
	push	edi
	mov	DWORD PTR _this$[ebp], ecx
	mov	eax, 1
	pop	edi
	pop	esi
	pop	ebx
	mov	esp, ebp
	pop	ebp
	ret	0
?PlayTextureSounds@CGameRules@@UAEHXZ ENDP		; CGameRules::PlayTextureSounds
_TEXT	ENDS
; Function compile flags: /Odtp /ZI
; File d:\!diffusion 2020\source code 2022\client-server\server\game\gamerules.h
;	COMDAT ?SetDefaultPlayerTeam@CGameRules@@UAEPBDPAVCBasePlayer@@@Z
_TEXT	SEGMENT
_this$ = -4						; size = 4
_pPlayer$ = 8						; size = 4
?SetDefaultPlayerTeam@CGameRules@@UAEPBDPAVCBasePlayer@@@Z PROC ; CGameRules::SetDefaultPlayerTeam, COMDAT
; _this$ = ecx

; 164  : 	virtual const char *SetDefaultPlayerTeam( CBasePlayer *pPlayer ) { return ""; }

	push	ebp
	mov	ebp, esp
	sub	esp, 68					; 00000044H
	push	ebx
	push	esi
	push	edi
	mov	DWORD PTR _this$[ebp], ecx
	mov	eax, OFFSET ??_C@_00CNPNBAHC@?$AA@
	pop	edi
	pop	esi
	pop	ebx
	mov	esp, ebp
	pop	ebp
	ret	4
?SetDefaultPlayerTeam@CGameRules@@UAEPBDPAVCBasePlayer@@@Z ENDP ; CGameRules::SetDefaultPlayerTeam
_TEXT	ENDS
; Function compile flags: /Odtp /ZI
; File d:\!diffusion 2020\source code 2022\client-server\server\game\gamerules.h
;	COMDAT ?ChangePlayerTeam@CGameRules@@UAEXPAVCBasePlayer@@PBDHH@Z
_TEXT	SEGMENT
_this$ = -4						; size = 4
_pPlayer$ = 8						; size = 4
_pTeamName$ = 12					; size = 4
_bKill$ = 16						; size = 4
_bGib$ = 20						; size = 4
?ChangePlayerTeam@CGameRules@@UAEXPAVCBasePlayer@@PBDHH@Z PROC ; CGameRules::ChangePlayerTeam, COMDAT
; _this$ = ecx

; 163  : 	virtual void ChangePlayerTeam( CBasePlayer *pPlayer, const char *pTeamName, BOOL bKill, BOOL bGib ) {}

	push	ebp
	mov	ebp, esp
	sub	esp, 68					; 00000044H
	push	ebx
	push	esi
	push	edi
	mov	DWORD PTR _this$[ebp], ecx
	pop	edi
	pop	esi
	pop	ebx
	mov	esp, ebp
	pop	ebp
	ret	16					; 00000010H
?ChangePlayerTeam@CGameRules@@UAEXPAVCBasePlayer@@PBDHH@Z ENDP ; CGameRules::ChangePlayerTeam
_TEXT	ENDS
; Function compile flags: /Odtp /ZI
; File d:\!diffusion 2020\source code 2022\client-server\server\game\gamerules.h
;	COMDAT ?IsValidTeam@CGameRules@@UAEHPBD@Z
_TEXT	SEGMENT
_this$ = -4						; size = 4
_pTeamName$ = 8						; size = 4
?IsValidTeam@CGameRules@@UAEHPBD@Z PROC			; CGameRules::IsValidTeam, COMDAT
; _this$ = ecx

; 162  : 	virtual BOOL IsValidTeam( const char *pTeamName ) { return TRUE; }

	push	ebp
	mov	ebp, esp
	sub	esp, 68					; 00000044H
	push	ebx
	push	esi
	push	edi
	mov	DWORD PTR _this$[ebp], ecx
	mov	eax, 1
	pop	edi
	pop	esi
	pop	ebx
	mov	esp, ebp
	pop	ebp
	ret	4
?IsValidTeam@CGameRules@@UAEHPBD@Z ENDP			; CGameRules::IsValidTeam
_TEXT	ENDS
; Function compile flags: /Odtp /ZI
; File d:\!diffusion 2020\source code 2022\client-server\server\game\gamerules.h
;	COMDAT ?GetIndexedTeamName@CGameRules@@UAEPBDH@Z
_TEXT	SEGMENT
_this$ = -4						; size = 4
_teamIndex$ = 8						; size = 4
?GetIndexedTeamName@CGameRules@@UAEPBDH@Z PROC		; CGameRules::GetIndexedTeamName, COMDAT
; _this$ = ecx

; 161  : 	virtual const char *GetIndexedTeamName( int teamIndex ) { return ""; }

	push	ebp
	mov	ebp, esp
	sub	esp, 68					; 00000044H
	push	ebx
	push	esi
	push	edi
	mov	DWORD PTR _this$[ebp], ecx
	mov	eax, OFFSET ??_C@_00CNPNBAHC@?$AA@
	pop	edi
	pop	esi
	pop	ebx
	mov	esp, ebp
	pop	ebp
	ret	4
?GetIndexedTeamName@CGameRules@@UAEPBDH@Z ENDP		; CGameRules::GetIndexedTeamName
_TEXT	ENDS
; Function compile flags: /Odtp /ZI
; File d:\!diffusion 2020\source code 2022\client-server\server\game\gamerules.h
;	COMDAT ?GetTeamIndex@CGameRules@@UAEHPBD@Z
_TEXT	SEGMENT
_this$ = -4						; size = 4
_pTeamName$ = 8						; size = 4
?GetTeamIndex@CGameRules@@UAEHPBD@Z PROC		; CGameRules::GetTeamIndex, COMDAT
; _this$ = ecx

; 160  : 	virtual int GetTeamIndex( const char *pTeamName ) { return -1; }

	push	ebp
	mov	ebp, esp
	sub	esp, 68					; 00000044H
	push	ebx
	push	esi
	push	edi
	mov	DWORD PTR _this$[ebp], ecx
	or	eax, -1
	pop	edi
	pop	esi
	pop	ebx
	mov	esp, ebp
	pop	ebp
	ret	4
?GetTeamIndex@CGameRules@@UAEHPBD@Z ENDP		; CGameRules::GetTeamIndex
_TEXT	ENDS
; Function compile flags: /Odtp /ZI
; File d:\!diffusion 2020\source code 2022\client-server\server\game\gamerules.h
;	COMDAT ?FlHEVChargerRechargeTime@CGameRules@@UAEMXZ
_TEXT	SEGMENT
_this$ = -4						; size = 4
?FlHEVChargerRechargeTime@CGameRules@@UAEMXZ PROC	; CGameRules::FlHEVChargerRechargeTime, COMDAT
; _this$ = ecx

; 149  : 	virtual float FlHEVChargerRechargeTime( void ) { return 0; }// how long until a depleted HealthCharger recharges itself?

	push	ebp
	mov	ebp, esp
	sub	esp, 68					; 00000044H
	push	ebx
	push	esi
	push	edi
	mov	DWORD PTR _this$[ebp], ecx
	fldz
	pop	edi
	pop	esi
	pop	ebx
	mov	esp, ebp
	pop	ebp
	ret	0
?FlHEVChargerRechargeTime@CGameRules@@UAEMXZ ENDP	; CGameRules::FlHEVChargerRechargeTime
_TEXT	ENDS
; Function compile flags: /Odtp /ZI
; File d:\!diffusion 2020\source code 2022\client-server\server\game\gamerules.h
;	COMDAT ?ClientUserInfoChanged@CGameRules@@UAEXPAVCBasePlayer@@PAD@Z
_TEXT	SEGMENT
_this$ = -4						; size = 4
_pPlayer$ = 8						; size = 4
_infobuffer$ = 12					; size = 4
?ClientUserInfoChanged@CGameRules@@UAEXPAVCBasePlayer@@PAD@Z PROC ; CGameRules::ClientUserInfoChanged, COMDAT
; _this$ = ecx

; 112  : 	virtual void ClientUserInfoChanged( CBasePlayer *pPlayer, char *infobuffer ) {}		// the player has changed userinfo;  can change it now

	push	ebp
	mov	ebp, esp
	sub	esp, 68					; 00000044H
	push	ebx
	push	esi
	push	edi
	mov	DWORD PTR _this$[ebp], ecx
	pop	edi
	pop	esi
	pop	ebx
	mov	esp, ebp
	pop	ebp
	ret	8
?ClientUserInfoChanged@CGameRules@@UAEXPAVCBasePlayer@@PAD@Z ENDP ; CGameRules::ClientUserInfoChanged
_TEXT	ENDS
; Function compile flags: /Odtp /ZI
; File d:\!diffusion 2020\source code 2022\client-server\server\game\gamerules.h
;	COMDAT ?ClientCommand@CGameRules@@UAEHPAVCBasePlayer@@PBD@Z
_TEXT	SEGMENT
_this$ = -4						; size = 4
_pPlayer$ = 8						; size = 4
_pcmd$ = 12						; size = 4
?ClientCommand@CGameRules@@UAEHPAVCBasePlayer@@PBD@Z PROC ; CGameRules::ClientCommand, COMDAT
; _this$ = ecx

; 111  : 	virtual BOOL ClientCommand( CBasePlayer *pPlayer, const char *pcmd ) { return FALSE; };  // handles the user commands;  returns TRUE if command handled properly

	push	ebp
	mov	ebp, esp
	sub	esp, 68					; 00000044H
	push	ebx
	push	esi
	push	edi
	mov	DWORD PTR _this$[ebp], ecx
	xor	eax, eax
	pop	edi
	pop	esi
	pop	ebx
	mov	esp, ebp
	pop	ebp
	ret	8
?ClientCommand@CGameRules@@UAEHPAVCBasePlayer@@PBD@Z ENDP ; CGameRules::ClientCommand
_TEXT	ENDS
; Function compile flags: /Odtp /ZI
; File d:\!diffusion 2020\source code 2022\client-server\server\game\gamerules.h
;	COMDAT ?AllowAutoTargetCrosshair@CGameRules@@UAEHXZ
_TEXT	SEGMENT
_this$ = -4						; size = 4
?AllowAutoTargetCrosshair@CGameRules@@UAEHXZ PROC	; CGameRules::AllowAutoTargetCrosshair, COMDAT
; _this$ = ecx

; 110  : 	virtual BOOL AllowAutoTargetCrosshair( void ) { return TRUE; };

	push	ebp
	mov	ebp, esp
	sub	esp, 68					; 00000044H
	push	ebx
	push	esi
	push	edi
	mov	DWORD PTR _this$[ebp], ecx
	mov	eax, 1
	pop	edi
	pop	esi
	pop	ebx
	mov	esp, ebp
	pop	ebp
	ret	0
?AllowAutoTargetCrosshair@CGameRules@@UAEHXZ ENDP	; CGameRules::AllowAutoTargetCrosshair
_TEXT	ENDS
; Function compile flags: /Odtp /ZI
; File d:\!diffusion 2020\source code 2022\client-server\server\game\gamerules.h
;	COMDAT ?ShouldAutoAim@CGameRules@@UAEHPAVCBasePlayer@@PAUedict_s@@@Z
_TEXT	SEGMENT
_this$ = -4						; size = 4
_pPlayer$ = 8						; size = 4
_target$ = 12						; size = 4
?ShouldAutoAim@CGameRules@@UAEHPAVCBasePlayer@@PAUedict_s@@@Z PROC ; CGameRules::ShouldAutoAim, COMDAT
; _this$ = ecx

; 101  : 	virtual BOOL ShouldAutoAim( CBasePlayer *pPlayer, edict_t *target ) { return TRUE; }

	push	ebp
	mov	ebp, esp
	sub	esp, 68					; 00000044H
	push	ebx
	push	esi
	push	edi
	mov	DWORD PTR _this$[ebp], ecx
	mov	eax, 1
	pop	edi
	pop	esi
	pop	ebx
	mov	esp, ebp
	pop	ebp
	ret	8
?ShouldAutoAim@CGameRules@@UAEHPAVCBasePlayer@@PAUedict_s@@@Z ENDP ; CGameRules::ShouldAutoAim
_TEXT	ENDS
; Function compile flags: /Odtp /ZI
; File d:\!diffusion 2020\source code 2022\client-server\server\game\gamerules.h
;	COMDAT ?FPlayerCanTakeDamage@CGameRules@@UAEHPAVCBasePlayer@@PAVCBaseEntity@@@Z
_TEXT	SEGMENT
_this$ = -4						; size = 4
_pPlayer$ = 8						; size = 4
_pAttacker$ = 12					; size = 4
?FPlayerCanTakeDamage@CGameRules@@UAEHPAVCBasePlayer@@PAVCBaseEntity@@@Z PROC ; CGameRules::FPlayerCanTakeDamage, COMDAT
; _this$ = ecx

; 100  : 	virtual BOOL  FPlayerCanTakeDamage( CBasePlayer *pPlayer, CBaseEntity *pAttacker ) {return TRUE;};// can this player take damage from this attacker?

	push	ebp
	mov	ebp, esp
	sub	esp, 68					; 00000044H
	push	ebx
	push	esi
	push	edi
	mov	DWORD PTR _this$[ebp], ecx
	mov	eax, 1
	pop	edi
	pop	esi
	pop	ebx
	mov	esp, ebp
	pop	ebp
	ret	8
?FPlayerCanTakeDamage@CGameRules@@UAEHPAVCBasePlayer@@PAVCBaseEntity@@@Z ENDP ; CGameRules::FPlayerCanTakeDamage
_TEXT	ENDS
; Function compile flags: /Odtp /ZI
; File d:\!diffusion 2020\source code 2022\client-server\server\game\gamerules.h
;	COMDAT ?UpdateGameMode@CGameRules@@UAEXPAVCBasePlayer@@@Z
_TEXT	SEGMENT
_this$ = -4						; size = 4
_pPlayer$ = 8						; size = 4
?UpdateGameMode@CGameRules@@UAEXPAVCBasePlayer@@@Z PROC	; CGameRules::UpdateGameMode, COMDAT
; _this$ = ecx

; 96   : 	virtual void UpdateGameMode( CBasePlayer *pPlayer ) {}  // the client needs to be informed of the current game mode

	push	ebp
	mov	ebp, esp
	sub	esp, 68					; 00000044H
	push	ebx
	push	esi
	push	edi
	mov	DWORD PTR _this$[ebp], ecx
	pop	edi
	pop	esi
	pop	ebx
	mov	esp, ebp
	pop	ebp
	ret	4
?UpdateGameMode@CGameRules@@UAEXPAVCBasePlayer@@@Z ENDP	; CGameRules::UpdateGameMode
_TEXT	ENDS
; Function compile flags: /Odtp /ZI
; File d:\!diffusion 2020\source code 2022\client-server\server\game\gamerules.h
;	COMDAT ?GetGameDescription@CGameRules@@UAEPBDXZ
_TEXT	SEGMENT
_this$ = -4						; size = 4
?GetGameDescription@CGameRules@@UAEPBDXZ PROC		; CGameRules::GetGameDescription, COMDAT
; _this$ = ecx

; 90   : 	virtual const char *GetGameDescription( void ) { return "Half-Life"; }  // this is the game name that gets seen in the server browser

	push	ebp
	mov	ebp, esp
	sub	esp, 68					; 00000044H
	push	ebx
	push	esi
	push	edi
	mov	DWORD PTR _this$[ebp], ecx
	mov	eax, OFFSET ??_C@_09IBONLKEI@Half?9Life?$AA@
	pop	edi
	pop	esi
	pop	ebx
	mov	esp, ebp
	pop	ebp
	ret	0
?GetGameDescription@CGameRules@@UAEPBDXZ ENDP		; CGameRules::GetGameDescription
_TEXT	ENDS
; Function compile flags: /Odtp /ZI
; File d:\!diffusion 2020\source code 2022\client-server\server\game\gamerules.h
;	COMDAT ?IsTeamplay@CGameRules@@UAEHXZ
_TEXT	SEGMENT
_this$ = -4						; size = 4
?IsTeamplay@CGameRules@@UAEHXZ PROC			; CGameRules::IsTeamplay, COMDAT
; _this$ = ecx

; 88   : 	virtual BOOL IsTeamplay( void ) { return FALSE; };// is this deathmatch game being played with team rules?

	push	ebp
	mov	ebp, esp
	sub	esp, 68					; 00000044H
	push	ebx
	push	esi
	push	edi
	mov	DWORD PTR _this$[ebp], ecx
	xor	eax, eax
	pop	edi
	pop	esi
	pop	ebx
	mov	esp, ebp
	pop	ebp
	ret	0
?IsTeamplay@CGameRules@@UAEHXZ ENDP			; CGameRules::IsTeamplay
_TEXT	ENDS
; Function compile flags: /Odtp /ZI
; File d:\!diffusion 2020\source code 2022\client-server\server\weapons\weapons.h
;	COMDAT ?iWeight@CBasePlayerItem@@QAEHXZ
_TEXT	SEGMENT
_this$ = -4						; size = 4
?iWeight@CBasePlayerItem@@QAEHXZ PROC			; CBasePlayerItem::iWeight, COMDAT
; _this$ = ecx

; 326  : 	int		iWeight( void )	{ return ItemInfoArray[ m_iId ].iWeight; }

	push	ebp
	mov	ebp, esp
	sub	esp, 68					; 00000044H
	push	ebx
	push	esi
	push	edi
	mov	DWORD PTR _this$[ebp], ecx
	mov	eax, DWORD PTR _this$[ebp]
	imul	ecx, DWORD PTR [eax+1864], 44
	mov	eax, DWORD PTR ?ItemInfoArray@CBasePlayerItem@@2PAUItemInfo@@A[ecx+40]
	pop	edi
	pop	esi
	pop	ebx
	mov	esp, ebp
	pop	ebp
	ret	0
?iWeight@CBasePlayerItem@@QAEHXZ ENDP			; CBasePlayerItem::iWeight
_TEXT	ENDS
; Function compile flags: /Odtp /ZI
; File d:\!diffusion 2020\source code 2022\client-server\game_shared\vector.h
;	COMDAT ??0Vector@@QAE@ABV0@@Z
_TEXT	SEGMENT
_this$ = -4						; size = 4
_v$ = 8							; size = 4
??0Vector@@QAE@ABV0@@Z PROC				; Vector::Vector, COMDAT
; _this$ = ecx

; 145  : 	inline Vector(const Vector& v)		{ x = v.x; y = v.y; z = v.z;		   }

	push	ebp
	mov	ebp, esp
	sub	esp, 68					; 00000044H
	push	ebx
	push	esi
	push	edi
	mov	DWORD PTR _this$[ebp], ecx
	mov	eax, DWORD PTR _this$[ebp]
	mov	ecx, DWORD PTR _v$[ebp]
	mov	edx, DWORD PTR [ecx]
	mov	DWORD PTR [eax], edx
	mov	eax, DWORD PTR _this$[ebp]
	mov	ecx, DWORD PTR _v$[ebp]
	mov	edx, DWORD PTR [ecx+4]
	mov	DWORD PTR [eax+4], edx
	mov	eax, DWORD PTR _this$[ebp]
	mov	ecx, DWORD PTR _v$[ebp]
	mov	edx, DWORD PTR [ecx+8]
	mov	DWORD PTR [eax+8], edx
	mov	eax, DWORD PTR _this$[ebp]
	pop	edi
	pop	esi
	pop	ebx
	mov	esp, ebp
	pop	ebp
	ret	4
??0Vector@@QAE@ABV0@@Z ENDP				; Vector::Vector
_TEXT	ENDS
; Function compile flags: /Odtp /ZI
; File d:\!diffusion 2020\source code 2022\client-server\game_shared\vector.h
;	COMDAT ??0Vector@@QAE@XZ
_TEXT	SEGMENT
_this$ = -4						; size = 4
??0Vector@@QAE@XZ PROC					; Vector::Vector, COMDAT
; _this$ = ecx

; 143  : 	inline Vector(void)				{ }

	push	ebp
	mov	ebp, esp
	sub	esp, 68					; 00000044H
	push	ebx
	push	esi
	push	edi
	mov	DWORD PTR _this$[ebp], ecx
	mov	eax, DWORD PTR _this$[ebp]
	pop	edi
	pop	esi
	pop	ebx
	mov	esp, ebp
	pop	ebp
	ret	0
??0Vector@@QAE@XZ ENDP					; Vector::Vector
_TEXT	ENDS
; Function compile flags: /Odtp /ZI
; File d:\!diffusion 2020\source code 2022\client-server\server\game\rules_singleplayer.cpp
;	COMDAT ?__empty_global_delete@@YAXPAXI@Z
_TEXT	SEGMENT
___formal$ = 8						; size = 4
___formal$ = 12						; size = 4
?__empty_global_delete@@YAXPAXI@Z PROC			; __empty_global_delete, COMDAT

	push	ebp
	mov	ebp, esp
	sub	esp, 64					; 00000040H
	push	ebx
	push	esi
	push	edi
	pop	edi
	pop	esi
	pop	ebx
	mov	esp, ebp
	pop	ebp
	ret	0
?__empty_global_delete@@YAXPAXI@Z ENDP			; __empty_global_delete
_TEXT	ENDS
; Function compile flags: /Odtp /ZI
; File d:\!diffusion 2020\source code 2022\client-server\server\game\rules_singleplayer.cpp
;	COMDAT ?__empty_global_delete@@YAXPAX@Z
_TEXT	SEGMENT
___formal$ = 8						; size = 4
?__empty_global_delete@@YAXPAX@Z PROC			; __empty_global_delete, COMDAT

	push	ebp
	mov	ebp, esp
	sub	esp, 64					; 00000040H
	push	ebx
	push	esi
	push	edi
	pop	edi
	pop	esi
	pop	ebx
	mov	esp, ebp
	pop	ebp
	ret	0
?__empty_global_delete@@YAXPAX@Z ENDP			; __empty_global_delete
_TEXT	ENDS
; Function compile flags: /Odtp /ZI
;	COMDAT ??__G@YGXPAX0IIP6EPAX00@Z@Z
_TEXT	SEGMENT
tv66 = -68						; size = 4
___t$ = 8						; size = 4
___u$ = 12						; size = 4
___s$ = 16						; size = 4
___n$ = 20						; size = 4
___f$ = 24						; size = 4
??__G@YGXPAX0IIP6EPAX00@Z@Z PROC			; `vector copy constructor iterator', COMDAT
	push	ebp
	mov	ebp, esp
	sub	esp, 68					; 00000044H
	push	ebx
	push	esi
	push	edi
$LN2@vector:
	mov	eax, DWORD PTR ___n$[ebp]
	mov	DWORD PTR tv66[ebp], eax
	mov	ecx, DWORD PTR ___n$[ebp]
	sub	ecx, 1
	mov	DWORD PTR ___n$[ebp], ecx
	cmp	DWORD PTR tv66[ebp], 0
	jbe	SHORT $LN1@vector
	mov	eax, DWORD PTR ___u$[ebp]
	push	eax
	mov	ecx, DWORD PTR ___t$[ebp]
	call	DWORD PTR ___f$[ebp]
	mov	eax, DWORD PTR ___t$[ebp]
	add	eax, DWORD PTR ___s$[ebp]
	mov	DWORD PTR ___t$[ebp], eax
	mov	eax, DWORD PTR ___u$[ebp]
	add	eax, DWORD PTR ___s$[ebp]
	mov	DWORD PTR ___u$[ebp], eax
	jmp	SHORT $LN2@vector
$LN1@vector:
	pop	edi
	pop	esi
	pop	ebx
	mov	esp, ebp
	pop	ebp
	ret	20					; 00000014H
??__G@YGXPAX0IIP6EPAX00@Z@Z ENDP			; `vector copy constructor iterator'
_TEXT	ENDS
; Function compile flags: /Odtp /ZI
;	COMDAT ??_H@YGXPAXIIP6EPAX0@Z@Z
_TEXT	SEGMENT
tv66 = -68						; size = 4
___t$ = 8						; size = 4
___s$ = 12						; size = 4
___n$ = 16						; size = 4
___f$ = 20						; size = 4
??_H@YGXPAXIIP6EPAX0@Z@Z PROC				; `vector constructor iterator', COMDAT
	push	ebp
	mov	ebp, esp
	sub	esp, 68					; 00000044H
	push	ebx
	push	esi
	push	edi
$LN2@vector:
	mov	eax, DWORD PTR ___n$[ebp]
	mov	DWORD PTR tv66[ebp], eax
	mov	ecx, DWORD PTR ___n$[ebp]
	sub	ecx, 1
	mov	DWORD PTR ___n$[ebp], ecx
	cmp	DWORD PTR tv66[ebp], 0
	jbe	SHORT $LN1@vector
	mov	ecx, DWORD PTR ___t$[ebp]
	call	DWORD PTR ___f$[ebp]
	mov	eax, DWORD PTR ___t$[ebp]
	add	eax, DWORD PTR ___s$[ebp]
	mov	DWORD PTR ___t$[ebp], eax
	jmp	SHORT $LN2@vector
$LN1@vector:
	pop	edi
	pop	esi
	pop	ebx
	mov	esp, ebp
	pop	ebp
	ret	16					; 00000010H
??_H@YGXPAXIIP6EPAX0@Z@Z ENDP				; `vector constructor iterator'
_TEXT	ENDS
END
