; Listing generated by Microsoft (R) Optimizing Compiler Version 19.00.24247.2 

	TITLE	D:\!DIFFUSION 2020\source code 2022\client-server\server\game\saverestore.cpp
	.686P
	.XMM
	include listing.inc
	.model	flat

INCLUDELIB LIBCMT
INCLUDELIB OLDNAMES

PUBLIC	??_C@_09CNJINBGN@classname?$AA@			; `string'
PUBLIC	??_C@_0L@FEPNPAJD@targetname?$AA@		; `string'
PUBLIC	??_C@_06JJLAMBGK@target?$AA@			; `string'
PUBLIC	?gEntvarsDescription@@3PAUtypedescription_s@@A	; gEntvarsDescription
PUBLIC	??_C@_0L@JILCNGEO@globalname?$AA@		; `string'
PUBLIC	??_C@_06NHCMNMEH@origin?$AA@			; `string'
PUBLIC	??_C@_09GHNAOIED@oldorigin?$AA@			; `string'
PUBLIC	??_C@_08ICEJNDOI@velocity?$AA@			; `string'
PUBLIC	??_C@_0N@OGGCDFHA@basevelocity?$AA@		; `string'
PUBLIC	??_C@_07MOCPDEJO@movedir?$AA@			; `string'
PUBLIC	??_C@_06GNEAMJOC@angles?$AA@			; `string'
PUBLIC	??_C@_09LJOPMAHO@avelocity?$AA@			; `string'
PUBLIC	??_C@_0L@BCLKNKBP@punchangle?$AA@		; `string'
PUBLIC	??_C@_07DPGDFGBA@v_angle?$AA@			; `string'
PUBLIC	??_C@_08DMLAEBGM@fixangle?$AA@			; `string'
PUBLIC	??_C@_0L@LNKGLLBL@idealpitch?$AA@		; `string'
PUBLIC	??_C@_0M@PADHJFPD@pitch_speed?$AA@		; `string'
PUBLIC	??_C@_09HPOLLHBO@ideal_yaw?$AA@			; `string'
PUBLIC	??_C@_09BJCIJCBC@yaw_speed?$AA@			; `string'
PUBLIC	??_C@_0L@OOABJPOI@modelindex?$AA@		; `string'
PUBLIC	??_C@_05NCCFOPHA@model?$AA@			; `string'
PUBLIC	??_C@_09DKDOKEPP@viewmodel?$AA@			; `string'
PUBLIC	??_C@_0M@HFKHPDIJ@weaponmodel?$AA@		; `string'
PUBLIC	??_C@_06MBCIMKMG@absmin?$AA@			; `string'
PUBLIC	??_C@_06NDKDCOKJ@absmax?$AA@			; `string'
PUBLIC	??_C@_04FIAKMPII@mins?$AA@			; `string'
PUBLIC	??_C@_04IFBFDIKF@maxs?$AA@			; `string'
PUBLIC	??_C@_04IAGNFIBA@size?$AA@			; `string'
PUBLIC	??_C@_05CDPCKIGK@ltime?$AA@			; `string'
PUBLIC	??_C@_09BJKCIGCI@nextthink?$AA@			; `string'
PUBLIC	??_C@_05OPIONHBI@solid?$AA@			; `string'
PUBLIC	??_C@_08DMIOBKOG@movetype?$AA@			; `string'
PUBLIC	??_C@_04NHPAFEHJ@skin?$AA@			; `string'
PUBLIC	??_C@_04IEJGKNJ@body?$AA@			; `string'
PUBLIC	??_C@_07BLLGFBLI@effects?$AA@			; `string'
PUBLIC	??_C@_07GFBFDLBM@gravity?$AA@			; `string'
PUBLIC	??_C@_08LKDNMFOC@friction?$AA@			; `string'
PUBLIC	??_C@_0M@EMAIGPBJ@light_level?$AA@		; `string'
PUBLIC	??_C@_05MIJNFGED@frame?$AA@			; `string'
PUBLIC	??_C@_05MHMEBBGO@scale?$AA@			; `string'
PUBLIC	??_C@_08IBBDGPOF@sequence?$AA@			; `string'
PUBLIC	??_C@_08CPDCOAJK@animtime?$AA@			; `string'
PUBLIC	??_C@_09PLDKGHKD@framerate?$AA@			; `string'
PUBLIC	??_C@_0L@DNGLJIEO@controller?$AA@		; `string'
PUBLIC	??_C@_08EFDOIIKB@blending?$AA@			; `string'
PUBLIC	??_C@_0L@PCPPJFN@rendermode?$AA@		; `string'
PUBLIC	??_C@_09BBEIIFBJ@renderamt?$AA@			; `string'
PUBLIC	??_C@_0M@PKPFNFIN@rendercolor?$AA@		; `string'
PUBLIC	??_C@_08CMBMAAGP@renderfx?$AA@			; `string'
PUBLIC	??_C@_06KJINILIP@health?$AA@			; `string'
PUBLIC	??_C@_05NJJCGGEC@frags?$AA@			; `string'
PUBLIC	??_C@_0L@KJOAGEFO@takedamage?$AA@		; `string'
PUBLIC	??_C@_08DKPNAJBK@deadflag?$AA@			; `string'
PUBLIC	??_C@_08LAMJGEN@view_ofs?$AA@			; `string'
PUBLIC	??_C@_06HFKPFKMP@button?$AA@			; `string'
PUBLIC	??_C@_07LKMFNFAN@impulse?$AA@			; `string'
PUBLIC	??_C@_05FGPNDJME@chain?$AA@			; `string'
PUBLIC	??_C@_0O@ONBBJJMD@dmg_inflictor?$AA@		; `string'
PUBLIC	??_C@_05ICAMJEGE@enemy?$AA@			; `string'
PUBLIC	??_C@_06EOJNHFH@aiment?$AA@			; `string'
PUBLIC	??_C@_05HEIBENID@owner?$AA@			; `string'
PUBLIC	??_C@_0N@FEDPFDJI@groundentity?$AA@		; `string'
PUBLIC	??_C@_0L@HLIKNEFC@spawnflags?$AA@		; `string'
PUBLIC	??_C@_05GECEPKB@flags?$AA@			; `string'
PUBLIC	??_C@_08OMBDDLKJ@colormap?$AA@			; `string'
PUBLIC	??_C@_04KADBPNCB@team?$AA@			; `string'
PUBLIC	??_C@_0L@DNHONBML@max_health?$AA@		; `string'
PUBLIC	??_C@_0O@KOGAOCNF@teleport_time?$AA@		; `string'
PUBLIC	??_C@_09NKOBGIJD@armortype?$AA@			; `string'
PUBLIC	??_C@_0L@GKOHIKGL@armorvalue?$AA@		; `string'
PUBLIC	??_C@_0L@NEBDHOBF@waterlevel?$AA@		; `string'
PUBLIC	??_C@_09KCJIJCMG@watertype?$AA@			; `string'
PUBLIC	??_C@_07OLJMCAFB@netname?$AA@			; `string'
PUBLIC	??_C@_07ONPBMBOP@message?$AA@			; `string'
PUBLIC	??_C@_08DDJOCLJA@dmg_take?$AA@			; `string'
PUBLIC	??_C@_08JFEAMHKD@dmg_save?$AA@			; `string'
PUBLIC	??_C@_03EMOFKE@dmg?$AA@				; `string'
PUBLIC	??_C@_07CDBFKFAH@dmgtime?$AA@			; `string'
PUBLIC	??_C@_05GPLCCBII@noise?$AA@			; `string'
PUBLIC	??_C@_06CFFBLOIB@noise1?$AA@			; `string'
PUBLIC	??_C@_06OHMONEC@noise2?$AA@			; `string'
PUBLIC	??_C@_06BHGHNMAD@noise3?$AA@			; `string'
PUBLIC	??_C@_05HJCMGBKF@speed?$AA@			; `string'
PUBLIC	??_C@_0N@GDIGBCMH@air_finished?$AA@		; `string'
PUBLIC	??_C@_0O@PDMKMIML@pain_finished?$AA@		; `string'
PUBLIC	??_C@_0BB@EAPLFHEL@radsuit_finished?$AA@	; `string'
PUBLIC	??_C@_06JFGGHPEA@vuser1?$AA@			; `string'
PUBLIC	??_C@_06LOELCMID@vuser2?$AA@			; `string'
PUBLIC	??_C@_06KHFABNMC@vuser3?$AA@			; `string'
PUBLIC	??_C@_06OIBBILAF@vuser4?$AA@			; `string'
PUBLIC	??_C@_06EPAJDGH@iuser1?$AA@			; `string'
PUBLIC	??_C@_06CPNNMAKE@iuser2?$AA@			; `string'
PUBLIC	??_C@_06DGMGPBOF@iuser3?$AA@			; `string'
PUBLIC	??_C@_06HJIHGHCC@iuser4?$AA@			; `string'
PUBLIC	??_C@_06PCLIODIO@fuser1?$AA@			; `string'
PUBLIC	??_C@_06NJJFLAEN@fuser2?$AA@			; `string'
PUBLIC	??_C@_06MAIOIBAM@fuser3?$AA@			; `string'
PUBLIC	??_C@_06IPMPBHML@fuser4?$AA@			; `string'
PUBLIC	??_C@_08LDBNCAAL@startpos?$AA@			; `string'
_BSS	SEGMENT
?tokensparsed@?1??TokenHash@CSaveRestoreBuffer@@QAEGPBD@Z@4HA DD 01H DUP (?) ; `CSaveRestoreBuffer::TokenHash'::`2'::tokensparsed
?beentheredonethat@?5??TokenHash@CSaveRestoreBuffer@@QAEGPBD@Z@4HA DD 01H DUP (?) ; `CSaveRestoreBuffer::TokenHash'::`6'::beentheredonethat
_BSS	ENDS
;	COMDAT ??_C@_08LDBNCAAL@startpos?$AA@
CONST	SEGMENT
??_C@_08LDBNCAAL@startpos?$AA@ DB 'startpos', 00H	; `string'
CONST	ENDS
;	COMDAT ??_C@_06IPMPBHML@fuser4?$AA@
CONST	SEGMENT
??_C@_06IPMPBHML@fuser4?$AA@ DB 'fuser4', 00H		; `string'
CONST	ENDS
;	COMDAT ??_C@_06MAIOIBAM@fuser3?$AA@
CONST	SEGMENT
??_C@_06MAIOIBAM@fuser3?$AA@ DB 'fuser3', 00H		; `string'
CONST	ENDS
;	COMDAT ??_C@_06NJJFLAEN@fuser2?$AA@
CONST	SEGMENT
??_C@_06NJJFLAEN@fuser2?$AA@ DB 'fuser2', 00H		; `string'
CONST	ENDS
;	COMDAT ??_C@_06PCLIODIO@fuser1?$AA@
CONST	SEGMENT
??_C@_06PCLIODIO@fuser1?$AA@ DB 'fuser1', 00H		; `string'
CONST	ENDS
;	COMDAT ??_C@_06HJIHGHCC@iuser4?$AA@
CONST	SEGMENT
??_C@_06HJIHGHCC@iuser4?$AA@ DB 'iuser4', 00H		; `string'
CONST	ENDS
;	COMDAT ??_C@_06DGMGPBOF@iuser3?$AA@
CONST	SEGMENT
??_C@_06DGMGPBOF@iuser3?$AA@ DB 'iuser3', 00H		; `string'
CONST	ENDS
;	COMDAT ??_C@_06CPNNMAKE@iuser2?$AA@
CONST	SEGMENT
??_C@_06CPNNMAKE@iuser2?$AA@ DB 'iuser2', 00H		; `string'
CONST	ENDS
;	COMDAT ??_C@_06EPAJDGH@iuser1?$AA@
CONST	SEGMENT
??_C@_06EPAJDGH@iuser1?$AA@ DB 'iuser1', 00H		; `string'
CONST	ENDS
;	COMDAT ??_C@_06OIBBILAF@vuser4?$AA@
CONST	SEGMENT
??_C@_06OIBBILAF@vuser4?$AA@ DB 'vuser4', 00H		; `string'
CONST	ENDS
;	COMDAT ??_C@_06KHFABNMC@vuser3?$AA@
CONST	SEGMENT
??_C@_06KHFABNMC@vuser3?$AA@ DB 'vuser3', 00H		; `string'
CONST	ENDS
;	COMDAT ??_C@_06LOELCMID@vuser2?$AA@
CONST	SEGMENT
??_C@_06LOELCMID@vuser2?$AA@ DB 'vuser2', 00H		; `string'
CONST	ENDS
;	COMDAT ??_C@_06JFGGHPEA@vuser1?$AA@
CONST	SEGMENT
??_C@_06JFGGHPEA@vuser1?$AA@ DB 'vuser1', 00H		; `string'
CONST	ENDS
;	COMDAT ??_C@_0BB@EAPLFHEL@radsuit_finished?$AA@
CONST	SEGMENT
??_C@_0BB@EAPLFHEL@radsuit_finished?$AA@ DB 'radsuit_finished', 00H ; `string'
CONST	ENDS
;	COMDAT ??_C@_0O@PDMKMIML@pain_finished?$AA@
CONST	SEGMENT
??_C@_0O@PDMKMIML@pain_finished?$AA@ DB 'pain_finished', 00H ; `string'
CONST	ENDS
;	COMDAT ??_C@_0N@GDIGBCMH@air_finished?$AA@
CONST	SEGMENT
??_C@_0N@GDIGBCMH@air_finished?$AA@ DB 'air_finished', 00H ; `string'
CONST	ENDS
;	COMDAT ??_C@_05HJCMGBKF@speed?$AA@
CONST	SEGMENT
??_C@_05HJCMGBKF@speed?$AA@ DB 'speed', 00H		; `string'
CONST	ENDS
;	COMDAT ??_C@_06BHGHNMAD@noise3?$AA@
CONST	SEGMENT
??_C@_06BHGHNMAD@noise3?$AA@ DB 'noise3', 00H		; `string'
CONST	ENDS
;	COMDAT ??_C@_06OHMONEC@noise2?$AA@
CONST	SEGMENT
??_C@_06OHMONEC@noise2?$AA@ DB 'noise2', 00H		; `string'
CONST	ENDS
;	COMDAT ??_C@_06CFFBLOIB@noise1?$AA@
CONST	SEGMENT
??_C@_06CFFBLOIB@noise1?$AA@ DB 'noise1', 00H		; `string'
CONST	ENDS
;	COMDAT ??_C@_05GPLCCBII@noise?$AA@
CONST	SEGMENT
??_C@_05GPLCCBII@noise?$AA@ DB 'noise', 00H		; `string'
CONST	ENDS
;	COMDAT ??_C@_07CDBFKFAH@dmgtime?$AA@
CONST	SEGMENT
??_C@_07CDBFKFAH@dmgtime?$AA@ DB 'dmgtime', 00H		; `string'
CONST	ENDS
;	COMDAT ??_C@_03EMOFKE@dmg?$AA@
CONST	SEGMENT
??_C@_03EMOFKE@dmg?$AA@ DB 'dmg', 00H			; `string'
CONST	ENDS
;	COMDAT ??_C@_08JFEAMHKD@dmg_save?$AA@
CONST	SEGMENT
??_C@_08JFEAMHKD@dmg_save?$AA@ DB 'dmg_save', 00H	; `string'
CONST	ENDS
;	COMDAT ??_C@_08DDJOCLJA@dmg_take?$AA@
CONST	SEGMENT
??_C@_08DDJOCLJA@dmg_take?$AA@ DB 'dmg_take', 00H	; `string'
CONST	ENDS
;	COMDAT ??_C@_07ONPBMBOP@message?$AA@
CONST	SEGMENT
??_C@_07ONPBMBOP@message?$AA@ DB 'message', 00H		; `string'
CONST	ENDS
;	COMDAT ??_C@_07OLJMCAFB@netname?$AA@
CONST	SEGMENT
??_C@_07OLJMCAFB@netname?$AA@ DB 'netname', 00H		; `string'
CONST	ENDS
;	COMDAT ??_C@_09KCJIJCMG@watertype?$AA@
CONST	SEGMENT
??_C@_09KCJIJCMG@watertype?$AA@ DB 'watertype', 00H	; `string'
CONST	ENDS
;	COMDAT ??_C@_0L@NEBDHOBF@waterlevel?$AA@
CONST	SEGMENT
??_C@_0L@NEBDHOBF@waterlevel?$AA@ DB 'waterlevel', 00H	; `string'
CONST	ENDS
;	COMDAT ??_C@_0L@GKOHIKGL@armorvalue?$AA@
CONST	SEGMENT
??_C@_0L@GKOHIKGL@armorvalue?$AA@ DB 'armorvalue', 00H	; `string'
CONST	ENDS
;	COMDAT ??_C@_09NKOBGIJD@armortype?$AA@
CONST	SEGMENT
??_C@_09NKOBGIJD@armortype?$AA@ DB 'armortype', 00H	; `string'
CONST	ENDS
;	COMDAT ??_C@_0O@KOGAOCNF@teleport_time?$AA@
CONST	SEGMENT
??_C@_0O@KOGAOCNF@teleport_time?$AA@ DB 'teleport_time', 00H ; `string'
CONST	ENDS
;	COMDAT ??_C@_0L@DNHONBML@max_health?$AA@
CONST	SEGMENT
??_C@_0L@DNHONBML@max_health?$AA@ DB 'max_health', 00H	; `string'
CONST	ENDS
;	COMDAT ??_C@_04KADBPNCB@team?$AA@
CONST	SEGMENT
??_C@_04KADBPNCB@team?$AA@ DB 'team', 00H		; `string'
CONST	ENDS
;	COMDAT ??_C@_08OMBDDLKJ@colormap?$AA@
CONST	SEGMENT
??_C@_08OMBDDLKJ@colormap?$AA@ DB 'colormap', 00H	; `string'
CONST	ENDS
;	COMDAT ??_C@_05GECEPKB@flags?$AA@
CONST	SEGMENT
??_C@_05GECEPKB@flags?$AA@ DB 'flags', 00H		; `string'
CONST	ENDS
;	COMDAT ??_C@_0L@HLIKNEFC@spawnflags?$AA@
CONST	SEGMENT
??_C@_0L@HLIKNEFC@spawnflags?$AA@ DB 'spawnflags', 00H	; `string'
CONST	ENDS
;	COMDAT ??_C@_0N@FEDPFDJI@groundentity?$AA@
CONST	SEGMENT
??_C@_0N@FEDPFDJI@groundentity?$AA@ DB 'groundentity', 00H ; `string'
CONST	ENDS
;	COMDAT ??_C@_05HEIBENID@owner?$AA@
CONST	SEGMENT
??_C@_05HEIBENID@owner?$AA@ DB 'owner', 00H		; `string'
CONST	ENDS
;	COMDAT ??_C@_06EOJNHFH@aiment?$AA@
CONST	SEGMENT
??_C@_06EOJNHFH@aiment?$AA@ DB 'aiment', 00H		; `string'
CONST	ENDS
;	COMDAT ??_C@_05ICAMJEGE@enemy?$AA@
CONST	SEGMENT
??_C@_05ICAMJEGE@enemy?$AA@ DB 'enemy', 00H		; `string'
CONST	ENDS
;	COMDAT ??_C@_0O@ONBBJJMD@dmg_inflictor?$AA@
CONST	SEGMENT
??_C@_0O@ONBBJJMD@dmg_inflictor?$AA@ DB 'dmg_inflictor', 00H ; `string'
CONST	ENDS
;	COMDAT ??_C@_05FGPNDJME@chain?$AA@
CONST	SEGMENT
??_C@_05FGPNDJME@chain?$AA@ DB 'chain', 00H		; `string'
CONST	ENDS
;	COMDAT ??_C@_07LKMFNFAN@impulse?$AA@
CONST	SEGMENT
??_C@_07LKMFNFAN@impulse?$AA@ DB 'impulse', 00H		; `string'
CONST	ENDS
;	COMDAT ??_C@_06HFKPFKMP@button?$AA@
CONST	SEGMENT
??_C@_06HFKPFKMP@button?$AA@ DB 'button', 00H		; `string'
CONST	ENDS
;	COMDAT ??_C@_08LAMJGEN@view_ofs?$AA@
CONST	SEGMENT
??_C@_08LAMJGEN@view_ofs?$AA@ DB 'view_ofs', 00H	; `string'
CONST	ENDS
;	COMDAT ??_C@_08DKPNAJBK@deadflag?$AA@
CONST	SEGMENT
??_C@_08DKPNAJBK@deadflag?$AA@ DB 'deadflag', 00H	; `string'
CONST	ENDS
;	COMDAT ??_C@_0L@KJOAGEFO@takedamage?$AA@
CONST	SEGMENT
??_C@_0L@KJOAGEFO@takedamage?$AA@ DB 'takedamage', 00H	; `string'
CONST	ENDS
;	COMDAT ??_C@_05NJJCGGEC@frags?$AA@
CONST	SEGMENT
??_C@_05NJJCGGEC@frags?$AA@ DB 'frags', 00H		; `string'
CONST	ENDS
;	COMDAT ??_C@_06KJINILIP@health?$AA@
CONST	SEGMENT
??_C@_06KJINILIP@health?$AA@ DB 'health', 00H		; `string'
CONST	ENDS
;	COMDAT ??_C@_08CMBMAAGP@renderfx?$AA@
CONST	SEGMENT
??_C@_08CMBMAAGP@renderfx?$AA@ DB 'renderfx', 00H	; `string'
CONST	ENDS
;	COMDAT ??_C@_0M@PKPFNFIN@rendercolor?$AA@
CONST	SEGMENT
??_C@_0M@PKPFNFIN@rendercolor?$AA@ DB 'rendercolor', 00H ; `string'
CONST	ENDS
;	COMDAT ??_C@_09BBEIIFBJ@renderamt?$AA@
CONST	SEGMENT
??_C@_09BBEIIFBJ@renderamt?$AA@ DB 'renderamt', 00H	; `string'
CONST	ENDS
;	COMDAT ??_C@_0L@PCPPJFN@rendermode?$AA@
CONST	SEGMENT
??_C@_0L@PCPPJFN@rendermode?$AA@ DB 'rendermode', 00H	; `string'
CONST	ENDS
;	COMDAT ??_C@_08EFDOIIKB@blending?$AA@
CONST	SEGMENT
??_C@_08EFDOIIKB@blending?$AA@ DB 'blending', 00H	; `string'
CONST	ENDS
;	COMDAT ??_C@_0L@DNGLJIEO@controller?$AA@
CONST	SEGMENT
??_C@_0L@DNGLJIEO@controller?$AA@ DB 'controller', 00H	; `string'
CONST	ENDS
;	COMDAT ??_C@_09PLDKGHKD@framerate?$AA@
CONST	SEGMENT
??_C@_09PLDKGHKD@framerate?$AA@ DB 'framerate', 00H	; `string'
CONST	ENDS
;	COMDAT ??_C@_08CPDCOAJK@animtime?$AA@
CONST	SEGMENT
??_C@_08CPDCOAJK@animtime?$AA@ DB 'animtime', 00H	; `string'
CONST	ENDS
;	COMDAT ??_C@_08IBBDGPOF@sequence?$AA@
CONST	SEGMENT
??_C@_08IBBDGPOF@sequence?$AA@ DB 'sequence', 00H	; `string'
CONST	ENDS
;	COMDAT ??_C@_05MHMEBBGO@scale?$AA@
CONST	SEGMENT
??_C@_05MHMEBBGO@scale?$AA@ DB 'scale', 00H		; `string'
CONST	ENDS
;	COMDAT ??_C@_05MIJNFGED@frame?$AA@
CONST	SEGMENT
??_C@_05MIJNFGED@frame?$AA@ DB 'frame', 00H		; `string'
CONST	ENDS
;	COMDAT ??_C@_0M@EMAIGPBJ@light_level?$AA@
CONST	SEGMENT
??_C@_0M@EMAIGPBJ@light_level?$AA@ DB 'light_level', 00H ; `string'
CONST	ENDS
;	COMDAT ??_C@_08LKDNMFOC@friction?$AA@
CONST	SEGMENT
??_C@_08LKDNMFOC@friction?$AA@ DB 'friction', 00H	; `string'
CONST	ENDS
;	COMDAT ??_C@_07GFBFDLBM@gravity?$AA@
CONST	SEGMENT
??_C@_07GFBFDLBM@gravity?$AA@ DB 'gravity', 00H		; `string'
CONST	ENDS
;	COMDAT ??_C@_07BLLGFBLI@effects?$AA@
CONST	SEGMENT
??_C@_07BLLGFBLI@effects?$AA@ DB 'effects', 00H		; `string'
CONST	ENDS
;	COMDAT ??_C@_04IEJGKNJ@body?$AA@
CONST	SEGMENT
??_C@_04IEJGKNJ@body?$AA@ DB 'body', 00H		; `string'
CONST	ENDS
;	COMDAT ??_C@_04NHPAFEHJ@skin?$AA@
CONST	SEGMENT
??_C@_04NHPAFEHJ@skin?$AA@ DB 'skin', 00H		; `string'
CONST	ENDS
;	COMDAT ??_C@_08DMIOBKOG@movetype?$AA@
CONST	SEGMENT
??_C@_08DMIOBKOG@movetype?$AA@ DB 'movetype', 00H	; `string'
CONST	ENDS
;	COMDAT ??_C@_05OPIONHBI@solid?$AA@
CONST	SEGMENT
??_C@_05OPIONHBI@solid?$AA@ DB 'solid', 00H		; `string'
CONST	ENDS
;	COMDAT ??_C@_09BJKCIGCI@nextthink?$AA@
CONST	SEGMENT
??_C@_09BJKCIGCI@nextthink?$AA@ DB 'nextthink', 00H	; `string'
CONST	ENDS
;	COMDAT ??_C@_05CDPCKIGK@ltime?$AA@
CONST	SEGMENT
??_C@_05CDPCKIGK@ltime?$AA@ DB 'ltime', 00H		; `string'
CONST	ENDS
;	COMDAT ??_C@_04IAGNFIBA@size?$AA@
CONST	SEGMENT
??_C@_04IAGNFIBA@size?$AA@ DB 'size', 00H		; `string'
CONST	ENDS
;	COMDAT ??_C@_04IFBFDIKF@maxs?$AA@
CONST	SEGMENT
??_C@_04IFBFDIKF@maxs?$AA@ DB 'maxs', 00H		; `string'
CONST	ENDS
;	COMDAT ??_C@_04FIAKMPII@mins?$AA@
CONST	SEGMENT
??_C@_04FIAKMPII@mins?$AA@ DB 'mins', 00H		; `string'
CONST	ENDS
;	COMDAT ??_C@_06NDKDCOKJ@absmax?$AA@
CONST	SEGMENT
??_C@_06NDKDCOKJ@absmax?$AA@ DB 'absmax', 00H		; `string'
CONST	ENDS
;	COMDAT ??_C@_06MBCIMKMG@absmin?$AA@
CONST	SEGMENT
??_C@_06MBCIMKMG@absmin?$AA@ DB 'absmin', 00H		; `string'
CONST	ENDS
;	COMDAT ??_C@_0M@HFKHPDIJ@weaponmodel?$AA@
CONST	SEGMENT
??_C@_0M@HFKHPDIJ@weaponmodel?$AA@ DB 'weaponmodel', 00H ; `string'
CONST	ENDS
;	COMDAT ??_C@_09DKDOKEPP@viewmodel?$AA@
CONST	SEGMENT
??_C@_09DKDOKEPP@viewmodel?$AA@ DB 'viewmodel', 00H	; `string'
CONST	ENDS
;	COMDAT ??_C@_05NCCFOPHA@model?$AA@
CONST	SEGMENT
??_C@_05NCCFOPHA@model?$AA@ DB 'model', 00H		; `string'
CONST	ENDS
;	COMDAT ??_C@_0L@OOABJPOI@modelindex?$AA@
CONST	SEGMENT
??_C@_0L@OOABJPOI@modelindex?$AA@ DB 'modelindex', 00H	; `string'
CONST	ENDS
;	COMDAT ??_C@_09BJCIJCBC@yaw_speed?$AA@
CONST	SEGMENT
??_C@_09BJCIJCBC@yaw_speed?$AA@ DB 'yaw_speed', 00H	; `string'
CONST	ENDS
;	COMDAT ??_C@_09HPOLLHBO@ideal_yaw?$AA@
CONST	SEGMENT
??_C@_09HPOLLHBO@ideal_yaw?$AA@ DB 'ideal_yaw', 00H	; `string'
CONST	ENDS
;	COMDAT ??_C@_0M@PADHJFPD@pitch_speed?$AA@
CONST	SEGMENT
??_C@_0M@PADHJFPD@pitch_speed?$AA@ DB 'pitch_speed', 00H ; `string'
CONST	ENDS
;	COMDAT ??_C@_0L@LNKGLLBL@idealpitch?$AA@
CONST	SEGMENT
??_C@_0L@LNKGLLBL@idealpitch?$AA@ DB 'idealpitch', 00H	; `string'
CONST	ENDS
;	COMDAT ??_C@_08DMLAEBGM@fixangle?$AA@
CONST	SEGMENT
??_C@_08DMLAEBGM@fixangle?$AA@ DB 'fixangle', 00H	; `string'
CONST	ENDS
;	COMDAT ??_C@_07DPGDFGBA@v_angle?$AA@
CONST	SEGMENT
??_C@_07DPGDFGBA@v_angle?$AA@ DB 'v_angle', 00H		; `string'
CONST	ENDS
;	COMDAT ??_C@_0L@BCLKNKBP@punchangle?$AA@
CONST	SEGMENT
??_C@_0L@BCLKNKBP@punchangle?$AA@ DB 'punchangle', 00H	; `string'
CONST	ENDS
;	COMDAT ??_C@_09LJOPMAHO@avelocity?$AA@
CONST	SEGMENT
??_C@_09LJOPMAHO@avelocity?$AA@ DB 'avelocity', 00H	; `string'
CONST	ENDS
;	COMDAT ??_C@_06GNEAMJOC@angles?$AA@
CONST	SEGMENT
??_C@_06GNEAMJOC@angles?$AA@ DB 'angles', 00H		; `string'
CONST	ENDS
;	COMDAT ??_C@_07MOCPDEJO@movedir?$AA@
CONST	SEGMENT
??_C@_07MOCPDEJO@movedir?$AA@ DB 'movedir', 00H		; `string'
CONST	ENDS
;	COMDAT ??_C@_0N@OGGCDFHA@basevelocity?$AA@
CONST	SEGMENT
??_C@_0N@OGGCDFHA@basevelocity?$AA@ DB 'basevelocity', 00H ; `string'
CONST	ENDS
;	COMDAT ??_C@_08ICEJNDOI@velocity?$AA@
CONST	SEGMENT
??_C@_08ICEJNDOI@velocity?$AA@ DB 'velocity', 00H	; `string'
CONST	ENDS
;	COMDAT ??_C@_09GHNAOIED@oldorigin?$AA@
CONST	SEGMENT
??_C@_09GHNAOIED@oldorigin?$AA@ DB 'oldorigin', 00H	; `string'
CONST	ENDS
;	COMDAT ??_C@_06NHCMNMEH@origin?$AA@
CONST	SEGMENT
??_C@_06NHCMNMEH@origin?$AA@ DB 'origin', 00H		; `string'
CONST	ENDS
;	COMDAT ??_C@_0L@JILCNGEO@globalname?$AA@
CONST	SEGMENT
??_C@_0L@JILCNGEO@globalname?$AA@ DB 'globalname', 00H	; `string'
CONST	ENDS
_DATA	SEGMENT
?gEntvarsDescription@@3PAUtypedescription_s@@A DD 01H	; gEntvarsDescription
	DD	FLAT:??_C@_09CNJINBGN@classname?$AA@
	DD	00H
	DW	01H
	DW	06H
	DD	FLAT:??_C@_09CNJINBGN@classname?$AA@
	DD	00H
	DD	01H
	DD	FLAT:??_C@_0L@JILCNGEO@globalname?$AA@
	DD	04H
	DW	01H
	DW	07H
	DD	FLAT:??_C@_0L@JILCNGEO@globalname?$AA@
	DD	00H
	DD	08H
	DD	FLAT:??_C@_06NHCMNMEH@origin?$AA@
	DD	08H
	DW	01H
	DW	06H
	DD	FLAT:??_C@_06NHCMNMEH@origin?$AA@
	DD	00H
	DD	07H
	DD	FLAT:??_C@_09GHNAOIED@oldorigin?$AA@
	DD	014H
	DW	01H
	DW	07H
	DD	FLAT:??_C@_09GHNAOIED@oldorigin?$AA@
	DD	00H
	DD	07H
	DD	FLAT:??_C@_08ICEJNDOI@velocity?$AA@
	DD	020H
	DW	01H
	DW	06H
	DD	FLAT:??_C@_08ICEJNDOI@velocity?$AA@
	DD	00H
	DD	07H
	DD	FLAT:??_C@_0N@OGGCDFHA@basevelocity?$AA@
	DD	02cH
	DW	01H
	DW	06H
	DD	FLAT:??_C@_0N@OGGCDFHA@basevelocity?$AA@
	DD	00H
	DD	07H
	DD	FLAT:??_C@_07MOCPDEJO@movedir?$AA@
	DD	044H
	DW	01H
	DW	06H
	DD	FLAT:??_C@_07MOCPDEJO@movedir?$AA@
	DD	00H
	DD	07H
	DD	FLAT:??_C@_06GNEAMJOC@angles?$AA@
	DD	050H
	DW	01H
	DW	06H
	DD	FLAT:??_C@_06GNEAMJOC@angles?$AA@
	DD	00H
	DD	07H
	DD	FLAT:??_C@_09LJOPMAHO@avelocity?$AA@
	DD	05cH
	DW	01H
	DW	06H
	DD	FLAT:??_C@_09LJOPMAHO@avelocity?$AA@
	DD	00H
	DD	07H
	DD	FLAT:??_C@_0L@BCLKNKBP@punchangle?$AA@
	DD	068H
	DW	01H
	DW	06H
	DD	FLAT:??_C@_0L@BCLKNKBP@punchangle?$AA@
	DD	00H
	DD	07H
	DD	FLAT:??_C@_07DPGDFGBA@v_angle?$AA@
	DD	074H
	DW	01H
	DW	06H
	DD	FLAT:??_C@_07DPGDFGBA@v_angle?$AA@
	DD	00H
	DD	00H
	DD	FLAT:??_C@_08DMLAEBGM@fixangle?$AA@
	DD	0a0H
	DW	01H
	DW	06H
	DD	FLAT:??_C@_08DMLAEBGM@fixangle?$AA@
	DD	00H
	DD	00H
	DD	FLAT:??_C@_0L@LNKGLLBL@idealpitch?$AA@
	DD	0a4H
	DW	01H
	DW	06H
	DD	FLAT:??_C@_0L@LNKGLLBL@idealpitch?$AA@
	DD	00H
	DD	00H
	DD	FLAT:??_C@_0M@PADHJFPD@pitch_speed?$AA@
	DD	0a8H
	DW	01H
	DW	06H
	DD	FLAT:??_C@_0M@PADHJFPD@pitch_speed?$AA@
	DD	00H
	DD	00H
	DD	FLAT:??_C@_09HPOLLHBO@ideal_yaw?$AA@
	DD	0acH
	DW	01H
	DW	06H
	DD	FLAT:??_C@_09HPOLLHBO@ideal_yaw?$AA@
	DD	00H
	DD	00H
	DD	FLAT:??_C@_09BJCIJCBC@yaw_speed?$AA@
	DD	0b0H
	DW	01H
	DW	06H
	DD	FLAT:??_C@_09BJCIJCBC@yaw_speed?$AA@
	DD	00H
	DD	0aH
	DD	FLAT:??_C@_0L@OOABJPOI@modelindex?$AA@
	DD	0b4H
	DW	01H
	DW	06H
	DD	FLAT:??_C@_0L@OOABJPOI@modelindex?$AA@
	DD	00H
	DD	010H
	DD	FLAT:??_C@_05NCCFOPHA@model?$AA@
	DD	0b8H
	DW	01H
	DW	07H
	DD	FLAT:??_C@_05NCCFOPHA@model?$AA@
	DD	00H
	DD	010H
	DD	FLAT:??_C@_09DKDOKEPP@viewmodel?$AA@
	DD	0bcH
	DW	01H
	DW	06H
	DD	FLAT:??_C@_09DKDOKEPP@viewmodel?$AA@
	DD	00H
	DD	010H
	DD	FLAT:??_C@_0M@HFKHPDIJ@weaponmodel?$AA@
	DD	0c0H
	DW	01H
	DW	06H
	DD	FLAT:??_C@_0M@HFKHPDIJ@weaponmodel?$AA@
	DD	00H
	DD	08H
	DD	FLAT:??_C@_06MBCIMKMG@absmin?$AA@
	DD	0c4H
	DW	01H
	DW	06H
	DD	FLAT:??_C@_06MBCIMKMG@absmin?$AA@
	DD	00H
	DD	08H
	DD	FLAT:??_C@_06NDKDCOKJ@absmax?$AA@
	DD	0d0H
	DW	01H
	DW	06H
	DD	FLAT:??_C@_06NDKDCOKJ@absmax?$AA@
	DD	00H
	DD	07H
	DD	FLAT:??_C@_04FIAKMPII@mins?$AA@
	DD	0dcH
	DW	01H
	DW	07H
	DD	FLAT:??_C@_04FIAKMPII@mins?$AA@
	DD	00H
	DD	07H
	DD	FLAT:??_C@_04IFBFDIKF@maxs?$AA@
	DD	0e8H
	DW	01H
	DW	07H
	DD	FLAT:??_C@_04IFBFDIKF@maxs?$AA@
	DD	00H
	DD	07H
	DD	FLAT:??_C@_04IAGNFIBA@size?$AA@
	DD	0f4H
	DW	01H
	DW	07H
	DD	FLAT:??_C@_04IAGNFIBA@size?$AA@
	DD	00H
	DD	00H
	DD	FLAT:??_C@_05CDPCKIGK@ltime?$AA@
	DD	0100H
	DW	01H
	DW	06H
	DD	FLAT:??_C@_05CDPCKIGK@ltime?$AA@
	DD	00H
	DD	0fH
	DD	FLAT:??_C@_09BJKCIGCI@nextthink?$AA@
	DD	0104H
	DW	01H
	DW	06H
	DD	FLAT:??_C@_09BJKCIGCI@nextthink?$AA@
	DD	00H
	DD	0aH
	DD	FLAT:??_C@_05OPIONHBI@solid?$AA@
	DD	010cH
	DW	01H
	DW	06H
	DD	FLAT:??_C@_05OPIONHBI@solid?$AA@
	DD	00H
	DD	0aH
	DD	FLAT:??_C@_08DMIOBKOG@movetype?$AA@
	DD	0108H
	DW	01H
	DW	06H
	DD	FLAT:??_C@_08DMIOBKOG@movetype?$AA@
	DD	00H
	DD	0aH
	DD	FLAT:??_C@_04NHPAFEHJ@skin?$AA@
	DD	0110H
	DW	01H
	DW	06H
	DD	FLAT:??_C@_04NHPAFEHJ@skin?$AA@
	DD	00H
	DD	0aH
	DD	FLAT:??_C@_04IEJGKNJ@body?$AA@
	DD	0114H
	DW	01H
	DW	06H
	DD	FLAT:??_C@_04IEJGKNJ@body?$AA@
	DD	00H
	DD	0aH
	DD	FLAT:??_C@_07BLLGFBLI@effects?$AA@
	DD	0118H
	DW	01H
	DW	06H
	DD	FLAT:??_C@_07BLLGFBLI@effects?$AA@
	DD	00H
	DD	00H
	DD	FLAT:??_C@_07GFBFDLBM@gravity?$AA@
	DD	011cH
	DW	01H
	DW	06H
	DD	FLAT:??_C@_07GFBFDLBM@gravity?$AA@
	DD	00H
	DD	00H
	DD	FLAT:??_C@_08LKDNMFOC@friction?$AA@
	DD	0120H
	DW	01H
	DW	06H
	DD	FLAT:??_C@_08LKDNMFOC@friction?$AA@
	DD	00H
	DD	00H
	DD	FLAT:??_C@_0M@EMAIGPBJ@light_level?$AA@
	DD	0124H
	DW	01H
	DW	06H
	DD	FLAT:??_C@_0M@EMAIGPBJ@light_level?$AA@
	DD	00H
	DD	00H
	DD	FLAT:??_C@_05MIJNFGED@frame?$AA@
	DD	0130H
	DW	01H
	DW	06H
	DD	FLAT:??_C@_05MIJNFGED@frame?$AA@
	DD	00H
	DD	00H
	DD	FLAT:??_C@_05MHMEBBGO@scale?$AA@
	DD	0144H
	DW	01H
	DW	06H
	DD	FLAT:??_C@_05MHMEBBGO@scale?$AA@
	DD	00H
	DD	0aH
	DD	FLAT:??_C@_08IBBDGPOF@sequence?$AA@
	DD	0128H
	DW	01H
	DW	06H
	DD	FLAT:??_C@_08IBBDGPOF@sequence?$AA@
	DD	00H
	DD	0fH
	DD	FLAT:??_C@_08CPDCOAJK@animtime?$AA@
	DD	0134H
	DW	01H
	DW	06H
	DD	FLAT:??_C@_08CPDCOAJK@animtime?$AA@
	DD	00H
	DD	00H
	DD	FLAT:??_C@_09PLDKGHKD@framerate?$AA@
	DD	0138H
	DW	01H
	DW	06H
	DD	FLAT:??_C@_09PLDKGHKD@framerate?$AA@
	DD	00H
	DD	0aH
	DD	FLAT:??_C@_0L@DNGLJIEO@controller?$AA@
	DD	013cH
	DW	01H
	DW	06H
	DD	FLAT:??_C@_0L@DNGLJIEO@controller?$AA@
	DD	00H
	DD	0dH
	DD	FLAT:??_C@_08EFDOIIKB@blending?$AA@
	DD	0140H
	DW	01H
	DW	06H
	DD	FLAT:??_C@_08EFDOIIKB@blending?$AA@
	DD	00H
	DD	0aH
	DD	FLAT:??_C@_0L@PCPPJFN@rendermode?$AA@
	DD	0148H
	DW	01H
	DW	06H
	DD	FLAT:??_C@_0L@PCPPJFN@rendermode?$AA@
	DD	00H
	DD	00H
	DD	FLAT:??_C@_09BBEIIFBJ@renderamt?$AA@
	DD	014cH
	DW	01H
	DW	06H
	DD	FLAT:??_C@_09BBEIIFBJ@renderamt?$AA@
	DD	00H
	DD	07H
	DD	FLAT:??_C@_0M@PKPFNFIN@rendercolor?$AA@
	DD	0150H
	DW	01H
	DW	06H
	DD	FLAT:??_C@_0M@PKPFNFIN@rendercolor?$AA@
	DD	00H
	DD	0aH
	DD	FLAT:??_C@_08CMBMAAGP@renderfx?$AA@
	DD	015cH
	DW	01H
	DW	06H
	DD	FLAT:??_C@_08CMBMAAGP@renderfx?$AA@
	DD	00H
	DD	00H
	DD	FLAT:??_C@_06KJINILIP@health?$AA@
	DD	0160H
	DW	01H
	DW	06H
	DD	FLAT:??_C@_06KJINILIP@health?$AA@
	DD	00H
	DD	00H
	DD	FLAT:??_C@_05NJJCGGEC@frags?$AA@
	DD	0164H
	DW	01H
	DW	06H
	DD	FLAT:??_C@_05NJJCGGEC@frags?$AA@
	DD	00H
	DD	00H
	DD	FLAT:??_C@_0L@KJOAGEFO@takedamage?$AA@
	DD	016cH
	DW	01H
	DW	06H
	DD	FLAT:??_C@_0L@KJOAGEFO@takedamage?$AA@
	DD	00H
	DD	00H
	DD	FLAT:??_C@_08DKPNAJBK@deadflag?$AA@
	DD	0170H
	DW	01H
	DW	06H
	DD	FLAT:??_C@_08DKPNAJBK@deadflag?$AA@
	DD	00H
	DD	07H
	DD	FLAT:??_C@_08LAMJGEN@view_ofs?$AA@
	DD	0174H
	DW	01H
	DW	06H
	DD	FLAT:??_C@_08LAMJGEN@view_ofs?$AA@
	DD	00H
	DD	0aH
	DD	FLAT:??_C@_06HFKPFKMP@button?$AA@
	DD	0180H
	DW	01H
	DW	06H
	DD	FLAT:??_C@_06HFKPFKMP@button?$AA@
	DD	00H
	DD	0aH
	DD	FLAT:??_C@_07LKMFNFAN@impulse?$AA@
	DD	0184H
	DW	01H
	DW	06H
	DD	FLAT:??_C@_07LKMFNFAN@impulse?$AA@
	DD	00H
	DD	06H
	DD	FLAT:??_C@_05FGPNDJME@chain?$AA@
	DD	0188H
	DW	01H
	DW	06H
	DD	FLAT:??_C@_05FGPNDJME@chain?$AA@
	DD	00H
	DD	06H
	DD	FLAT:??_C@_0O@ONBBJJMD@dmg_inflictor?$AA@
	DD	018cH
	DW	01H
	DW	06H
	DD	FLAT:??_C@_0O@ONBBJJMD@dmg_inflictor?$AA@
	DD	00H
	DD	06H
	DD	FLAT:??_C@_05ICAMJEGE@enemy?$AA@
	DD	0190H
	DW	01H
	DW	06H
	DD	FLAT:??_C@_05ICAMJEGE@enemy?$AA@
	DD	00H
	DD	06H
	DD	FLAT:??_C@_06EOJNHFH@aiment?$AA@
	DD	0194H
	DW	01H
	DW	06H
	DD	FLAT:??_C@_06EOJNHFH@aiment?$AA@
	DD	00H
	DD	06H
	DD	FLAT:??_C@_05HEIBENID@owner?$AA@
	DD	0198H
	DW	01H
	DW	06H
	DD	FLAT:??_C@_05HEIBENID@owner?$AA@
	DD	00H
	DD	06H
	DD	FLAT:??_C@_0N@FEDPFDJI@groundentity?$AA@
	DD	019cH
	DW	01H
	DW	06H
	DD	FLAT:??_C@_0N@FEDPFDJI@groundentity?$AA@
	DD	00H
	DD	0aH
	DD	FLAT:??_C@_0L@HLIKNEFC@spawnflags?$AA@
	DD	01a0H
	DW	01H
	DW	06H
	DD	FLAT:??_C@_0L@HLIKNEFC@spawnflags?$AA@
	DD	00H
	DD	00H
	DD	FLAT:??_C@_05GECEPKB@flags?$AA@
	DD	01a4H
	DW	01H
	DW	06H
	DD	FLAT:??_C@_05GECEPKB@flags?$AA@
	DD	00H
	DD	0aH
	DD	FLAT:??_C@_08OMBDDLKJ@colormap?$AA@
	DD	01a8H
	DW	01H
	DW	06H
	DD	FLAT:??_C@_08OMBDDLKJ@colormap?$AA@
	DD	00H
	DD	0aH
	DD	FLAT:??_C@_04KADBPNCB@team?$AA@
	DD	01acH
	DW	01H
	DW	06H
	DD	FLAT:??_C@_04KADBPNCB@team?$AA@
	DD	00H
	DD	00H
	DD	FLAT:??_C@_0L@DNHONBML@max_health?$AA@
	DD	01b0H
	DW	01H
	DW	06H
	DD	FLAT:??_C@_0L@DNHONBML@max_health?$AA@
	DD	00H
	DD	0fH
	DD	FLAT:??_C@_0O@KOGAOCNF@teleport_time?$AA@
	DD	01b4H
	DW	01H
	DW	06H
	DD	FLAT:??_C@_0O@KOGAOCNF@teleport_time?$AA@
	DD	00H
	DD	00H
	DD	FLAT:??_C@_09NKOBGIJD@armortype?$AA@
	DD	01b8H
	DW	01H
	DW	06H
	DD	FLAT:??_C@_09NKOBGIJD@armortype?$AA@
	DD	00H
	DD	00H
	DD	FLAT:??_C@_0L@GKOHIKGL@armorvalue?$AA@
	DD	01bcH
	DW	01H
	DW	06H
	DD	FLAT:??_C@_0L@GKOHIKGL@armorvalue?$AA@
	DD	00H
	DD	0aH
	DD	FLAT:??_C@_0L@NEBDHOBF@waterlevel?$AA@
	DD	01c0H
	DW	01H
	DW	06H
	DD	FLAT:??_C@_0L@NEBDHOBF@waterlevel?$AA@
	DD	00H
	DD	0aH
	DD	FLAT:??_C@_09KCJIJCMG@watertype?$AA@
	DD	01c4H
	DW	01H
	DW	06H
	DD	FLAT:??_C@_09KCJIJCMG@watertype?$AA@
	DD	00H
	DD	01H
	DD	FLAT:??_C@_06JJLAMBGK@target?$AA@
	DD	01c8H
	DW	01H
	DW	07H
	DD	FLAT:??_C@_06JJLAMBGK@target?$AA@
	DD	00H
	DD	01H
	DD	FLAT:??_C@_0L@FEPNPAJD@targetname?$AA@
	DD	01ccH
	DW	01H
	DW	07H
	DD	FLAT:??_C@_0L@FEPNPAJD@targetname?$AA@
	DD	00H
	DD	01H
	DD	FLAT:??_C@_07OLJMCAFB@netname?$AA@
	DD	01d0H
	DW	01H
	DW	06H
	DD	FLAT:??_C@_07OLJMCAFB@netname?$AA@
	DD	00H
	DD	01H
	DD	FLAT:??_C@_07ONPBMBOP@message?$AA@
	DD	01d4H
	DW	01H
	DW	06H
	DD	FLAT:??_C@_07ONPBMBOP@message?$AA@
	DD	00H
	DD	00H
	DD	FLAT:??_C@_08DDJOCLJA@dmg_take?$AA@
	DD	01d8H
	DW	01H
	DW	06H
	DD	FLAT:??_C@_08DDJOCLJA@dmg_take?$AA@
	DD	00H
	DD	00H
	DD	FLAT:??_C@_08JFEAMHKD@dmg_save?$AA@
	DD	01dcH
	DW	01H
	DW	06H
	DD	FLAT:??_C@_08JFEAMHKD@dmg_save?$AA@
	DD	00H
	DD	00H
	DD	FLAT:??_C@_03EMOFKE@dmg?$AA@
	DD	01e0H
	DW	01H
	DW	06H
	DD	FLAT:??_C@_03EMOFKE@dmg?$AA@
	DD	00H
	DD	0fH
	DD	FLAT:??_C@_07CDBFKFAH@dmgtime?$AA@
	DD	01e4H
	DW	01H
	DW	06H
	DD	FLAT:??_C@_07CDBFKFAH@dmgtime?$AA@
	DD	00H
	DD	011H
	DD	FLAT:??_C@_05GPLCCBII@noise?$AA@
	DD	01e8H
	DW	01H
	DW	06H
	DD	FLAT:??_C@_05GPLCCBII@noise?$AA@
	DD	00H
	DD	011H
	DD	FLAT:??_C@_06CFFBLOIB@noise1?$AA@
	DD	01ecH
	DW	01H
	DW	06H
	DD	FLAT:??_C@_06CFFBLOIB@noise1?$AA@
	DD	00H
	DD	011H
	DD	FLAT:??_C@_06OHMONEC@noise2?$AA@
	DD	01f0H
	DW	01H
	DW	06H
	DD	FLAT:??_C@_06OHMONEC@noise2?$AA@
	DD	00H
	DD	011H
	DD	FLAT:??_C@_06BHGHNMAD@noise3?$AA@
	DD	01f4H
	DW	01H
	DW	06H
	DD	FLAT:??_C@_06BHGHNMAD@noise3?$AA@
	DD	00H
	DD	00H
	DD	FLAT:??_C@_05HJCMGBKF@speed?$AA@
	DD	01f8H
	DW	01H
	DW	06H
	DD	FLAT:??_C@_05HJCMGBKF@speed?$AA@
	DD	00H
	DD	0fH
	DD	FLAT:??_C@_0N@GDIGBCMH@air_finished?$AA@
	DD	01fcH
	DW	01H
	DW	06H
	DD	FLAT:??_C@_0N@GDIGBCMH@air_finished?$AA@
	DD	00H
	DD	0fH
	DD	FLAT:??_C@_0O@PDMKMIML@pain_finished?$AA@
	DD	0200H
	DW	01H
	DW	06H
	DD	FLAT:??_C@_0O@PDMKMIML@pain_finished?$AA@
	DD	00H
	DD	0fH
	DD	FLAT:??_C@_0BB@EAPLFHEL@radsuit_finished?$AA@
	DD	0204H
	DW	01H
	DW	06H
	DD	FLAT:??_C@_0BB@EAPLFHEL@radsuit_finished?$AA@
	DD	00H
	DD	07H
	DD	FLAT:??_C@_06JFGGHPEA@vuser1?$AA@
	DD	0264H
	DW	01H
	DW	06H
	DD	FLAT:??_C@_06JFGGHPEA@vuser1?$AA@
	DD	00H
	DD	07H
	DD	FLAT:??_C@_06LOELCMID@vuser2?$AA@
	DD	0270H
	DW	01H
	DW	06H
	DD	FLAT:??_C@_06LOELCMID@vuser2?$AA@
	DD	00H
	DD	07H
	DD	FLAT:??_C@_06KHFABNMC@vuser3?$AA@
	DD	027cH
	DW	01H
	DW	06H
	DD	FLAT:??_C@_06KHFABNMC@vuser3?$AA@
	DD	00H
	DD	07H
	DD	FLAT:??_C@_06OIBBILAF@vuser4?$AA@
	DD	0288H
	DW	01H
	DW	06H
	DD	FLAT:??_C@_06OIBBILAF@vuser4?$AA@
	DD	00H
	DD	0aH
	DD	FLAT:??_C@_06EPAJDGH@iuser1?$AA@
	DD	0244H
	DW	01H
	DW	06H
	DD	FLAT:??_C@_06EPAJDGH@iuser1?$AA@
	DD	00H
	DD	0aH
	DD	FLAT:??_C@_06CPNNMAKE@iuser2?$AA@
	DD	0248H
	DW	01H
	DW	06H
	DD	FLAT:??_C@_06CPNNMAKE@iuser2?$AA@
	DD	00H
	DD	0aH
	DD	FLAT:??_C@_06DGMGPBOF@iuser3?$AA@
	DD	024cH
	DW	01H
	DW	06H
	DD	FLAT:??_C@_06DGMGPBOF@iuser3?$AA@
	DD	00H
	DD	0aH
	DD	FLAT:??_C@_06HJIHGHCC@iuser4?$AA@
	DD	0250H
	DW	01H
	DW	06H
	DD	FLAT:??_C@_06HJIHGHCC@iuser4?$AA@
	DD	00H
	DD	00H
	DD	FLAT:??_C@_06PCLIODIO@fuser1?$AA@
	DD	0254H
	DW	01H
	DW	06H
	DD	FLAT:??_C@_06PCLIODIO@fuser1?$AA@
	DD	00H
	DD	00H
	DD	FLAT:??_C@_06NJJFLAEN@fuser2?$AA@
	DD	0258H
	DW	01H
	DW	06H
	DD	FLAT:??_C@_06NJJFLAEN@fuser2?$AA@
	DD	00H
	DD	00H
	DD	FLAT:??_C@_06MAIOIBAM@fuser3?$AA@
	DD	025cH
	DW	01H
	DW	06H
	DD	FLAT:??_C@_06MAIOIBAM@fuser3?$AA@
	DD	00H
	DD	00H
	DD	FLAT:??_C@_06IPMPBHML@fuser4?$AA@
	DD	0260H
	DW	01H
	DW	06H
	DD	FLAT:??_C@_06IPMPBHML@fuser4?$AA@
	DD	00H
	DD	07H
	DD	FLAT:??_C@_08LDBNCAAL@startpos?$AA@
	DD	08cH
	DW	01H
	DW	06H
	DD	FLAT:??_C@_08LDBNCAAL@startpos?$AA@
	DD	00H
?gSizes@@3PAHA DD 04H					; gSizes
	DD	04H
	DD	04H
	DD	04H
	DD	04H
	DD	04H
	DD	04H
	DD	0cH
	DD	0cH
	DD	04H
	DD	04H
	DD	04H
	DD	01H
	DD	02H
	DD	01H
	DD	04H
	DD	04H
	DD	04H
	DD	00H
	ORG $+4
_DATA	ENDS
;	COMDAT ??_C@_06JJLAMBGK@target?$AA@
CONST	SEGMENT
??_C@_06JJLAMBGK@target?$AA@ DB 'target', 00H		; `string'
CONST	ENDS
;	COMDAT ??_C@_0L@FEPNPAJD@targetname?$AA@
CONST	SEGMENT
??_C@_0L@FEPNPAJD@targetname?$AA@ DB 'targetname', 00H	; `string'
CONST	ENDS
;	COMDAT ??_C@_09CNJINBGN@classname?$AA@
CONST	SEGMENT
??_C@_09CNJINBGN@classname?$AA@ DB 'classname', 00H	; `string'
CONST	ENDS
PUBLIC	??_H@YGXPAXIIP6EPAX0@Z@Z			; `vector constructor iterator'
PUBLIC	??__G@YGXPAX0IIP6EPAX00@Z@Z			; `vector copy constructor iterator'
PUBLIC	?__empty_global_delete@@YAXPAX@Z		; __empty_global_delete
PUBLIC	?__empty_global_delete@@YAXPAXI@Z		; __empty_global_delete
PUBLIC	??0Vector@@QAE@XZ				; Vector::Vector
PUBLIC	??0Vector@@QAE@MMM@Z				; Vector::Vector
PUBLIC	??0Vector@@QAE@ABV0@@Z				; Vector::Vector
PUBLIC	??GVector@@QBE?AV0@ABV0@@Z			; Vector::operator-
PUBLIC	?GET_PRIVATE@@YAPAXPAUedict_s@@@Z		; GET_PRIVATE
PUBLIC	?ENT@@YAPAUedict_s@@PBUentvars_s@@@Z		; ENT
PUBLIC	?ENT@@YAPAUedict_s@@H@Z				; ENT
PUBLIC	?OFFSET@@YAHPBUedict_s@@@Z			; OFFSET
PUBLIC	?VARS@@YAPAUentvars_s@@PAUedict_s@@@Z		; VARS
PUBLIC	?FStringNull@@YAHH@Z				; FStringNull
PUBLIC	?FStrEq@@YAHPBD0@Z				; FStrEq
PUBLIC	??0CSaveRestoreBuffer@@QAE@XZ			; CSaveRestoreBuffer::CSaveRestoreBuffer
PUBLIC	??0CSaveRestoreBuffer@@QAE@PAUsaverestore_s@@@Z	; CSaveRestoreBuffer::CSaveRestoreBuffer
PUBLIC	??1CSaveRestoreBuffer@@QAE@XZ			; CSaveRestoreBuffer::~CSaveRestoreBuffer
PUBLIC	?EntityIndex@CSaveRestoreBuffer@@QAEHPAUentvars_s@@@Z ; CSaveRestoreBuffer::EntityIndex
PUBLIC	?EntityIndex@CSaveRestoreBuffer@@QAEHPAUedict_s@@@Z ; CSaveRestoreBuffer::EntityIndex
PUBLIC	?EntityIndex@CSaveRestoreBuffer@@QAEHH@Z	; CSaveRestoreBuffer::EntityIndex
PUBLIC	?EntityIndex@CSaveRestoreBuffer@@QAEHPAVCBaseEntity@@@Z ; CSaveRestoreBuffer::EntityIndex
PUBLIC	?EntityFlagsSet@CSaveRestoreBuffer@@QAEHHH@Z	; CSaveRestoreBuffer::EntityFlagsSet
PUBLIC	?EntityFromIndex@CSaveRestoreBuffer@@QAEPAUedict_s@@H@Z ; CSaveRestoreBuffer::EntityFromIndex
PUBLIC	?TokenHash@CSaveRestoreBuffer@@QAEGPBD@Z	; CSaveRestoreBuffer::TokenHash
PUBLIC	?BufferRewind@CSaveRestoreBuffer@@IAEXH@Z	; CSaveRestoreBuffer::BufferRewind
PUBLIC	?HashString@CSaveRestoreBuffer@@IAEIPBD@Z	; CSaveRestoreBuffer::HashString
PUBLIC	?DoWriteAll@CSave@@QAEHPBXPAUdatamap_s@@1@Z	; CSave::DoWriteAll
PUBLIC	?WriteShort@CSave@@QAEXPBDPBFH@Z		; CSave::WriteShort
PUBLIC	?WriteInt@CSave@@QAEXPBDPBHH@Z			; CSave::WriteInt
PUBLIC	?WriteFloat@CSave@@QAEXPBDPBMH@Z		; CSave::WriteFloat
PUBLIC	?WriteTime@CSave@@QAEXPBDPBMH@Z			; CSave::WriteTime
PUBLIC	?WriteData@CSave@@QAEXPBDH0@Z			; CSave::WriteData
PUBLIC	?WriteString@CSave@@QAEXPBD0@Z			; CSave::WriteString
PUBLIC	?WriteString@CSave@@QAEXPBDPBHH@Z		; CSave::WriteString
PUBLIC	?WriteVector@CSave@@QAEXPBDABVVector@@@Z	; CSave::WriteVector
PUBLIC	?WriteVector@CSave@@QAEXPBDPBMH@Z		; CSave::WriteVector
PUBLIC	?WritePositionVector@CSave@@QAEXPBDABVVector@@@Z ; CSave::WritePositionVector
PUBLIC	?WritePositionVector@CSave@@QAEXPBDPBMH@Z	; CSave::WritePositionVector
PUBLIC	?WriteFunction@CSave@@QAEXPAUdatamap_s@@PBDPBHH@Z ; CSave::WriteFunction
PUBLIC	?WriteEntVars@CSave@@QAEHPBDPAUdatamap_s@@PAUentvars_s@@@Z ; CSave::WriteEntVars
PUBLIC	?WriteFields@CSave@@QAEHPBDPBXPAUdatamap_s@@PAUtypedescription_s@@H@Z ; CSave::WriteFields
PUBLIC	?Log@CSave@@AAEXPAUdatamap_s@@PBD1W4_fieldtypes@@PAXH@Z ; CSave::Log
PUBLIC	?DataEmpty@CSave@@AAEHPBDH@Z			; CSave::DataEmpty
PUBLIC	?BufferField@CSave@@AAEXPBDH0@Z			; CSave::BufferField
PUBLIC	?BufferString@CSave@@AAEXPADH@Z			; CSave::BufferString
PUBLIC	?BufferData@CSave@@AAEXPBDH@Z			; CSave::BufferData
PUBLIC	?BufferHeader@CSave@@AAEXPBDH@Z			; CSave::BufferHeader
PUBLIC	?DoReadAll@CRestore@@QAEHPAXPAUdatamap_s@@1@Z	; CRestore::DoReadAll
PUBLIC	?ReadEntVars@CRestore@@QAEHPBDPAUdatamap_s@@PAUentvars_s@@@Z ; CRestore::ReadEntVars
PUBLIC	?ReadFields@CRestore@@QAEHPBDPBXPAUdatamap_s@@PAUtypedescription_s@@H@Z ; CRestore::ReadFields
PUBLIC	?ReadField@CRestore@@QAEHPBXPAUdatamap_s@@PAUtypedescription_s@@HHHPADPAX@Z ; CRestore::ReadField
PUBLIC	?ReadFunction@CRestore@@QAEHPAUdatamap_s@@PAPAXPBD@Z ; CRestore::ReadFunction
PUBLIC	?ReadInt@CRestore@@QAEHXZ			; CRestore::ReadInt
PUBLIC	?ReadShort@CRestore@@QAEFXZ			; CRestore::ReadShort
PUBLIC	?ReadNamedInt@CRestore@@QAEHPBD@Z		; CRestore::ReadNamedInt
PUBLIC	?ReadNamedString@CRestore@@QAEPADPBD@Z		; CRestore::ReadNamedString
PUBLIC	?Empty@CRestore@@QAEHXZ				; CRestore::Empty
PUBLIC	?BufferPointer@CRestore@@AAEPADXZ		; CRestore::BufferPointer
PUBLIC	?BufferReadBytes@CRestore@@AAEXPADH@Z		; CRestore::BufferReadBytes
PUBLIC	?BufferSkipBytes@CRestore@@AAEXH@Z		; CRestore::BufferSkipBytes
PUBLIC	?BufferReadHeader@CRestore@@AAEXPAUHEADER@@@Z	; CRestore::BufferReadHeader
PUBLIC	?Get@EHANDLE@@QAEPAUedict_s@@XZ			; EHANDLE::Get
PUBLIC	??BEHANDLE@@QAEPAVCBaseEntity@@XZ		; EHANDLE::operator CBaseEntity *
PUBLIC	??4EHANDLE@@QAEPAVCBaseEntity@@PAV1@@Z		; EHANDLE::operator=
PUBLIC	?Instance@CBaseEntity@@SAPAV1@PAUedict_s@@@Z	; CBaseEntity::Instance
PUBLIC	?Instance@CBaseEntity@@SAPAV1@PAUentvars_s@@@Z	; CBaseEntity::Instance
PUBLIC	?EntvarsKeyvalue@@YAXPAUentvars_s@@PAUKeyValueData_s@@@Z ; EntvarsKeyvalue
PUBLIC	??_C@_0BF@CPEPILID@Bad?5ent?5in?5OFFSET?$CI?$CJ?6?$AA@ ; `string'
PUBLIC	??_C@_0CF@NBIBCMLK@No?5token?5table?5array?5in?5TokenHas@ ; `string'
PUBLIC	??_C@_0DH@GDIMFBJD@CSaveRestoreBuffer?5?3?3?5TokenHash?$CI@ ; `string'
PUBLIC	??_C@_0DG@PLEHHJFB@CSaveRestoreBuffer?5?3?3?5TokenHash?$CI@ ; `string'
PUBLIC	??_C@_07HDHDLLK@?$CFs?9?$DO?$CFs?5?$AA@		; `string'
PUBLIC	??_C@_02DPKJAMEF@?$CFd?$AA@			; `string'
PUBLIC	??_C@_02NJPGOMH@?$CFf?$AA@			; `string'
PUBLIC	??_C@_02DKCKIIND@?$CFs?$AA@			; `string'
PUBLIC	??_C@_0L@MKEFNAGA@?$CI?$CFf?5?$CFf?5?$CFf?$CJ?$AA@ ; `string'
PUBLIC	??_C@_01CLKCMJKC@?5?$AA@			; `string'
PUBLIC	??_C@_01EEMJAFIK@?6?$AA@			; `string'
PUBLIC	??_C@_0CH@MIPHMABE@Invalid?5function?5pointer?5in?5clas@ ; `string'
PUBLIC	??_C@_0BH@EKBNCGHO@Bad?5field?5in?5entity?$CB?$CB?6?$AA@ ; `string'
PUBLIC	??_C@_0DB@NAHFIIFC@Can?8t?5save?5more?5than?5?$CFd?5entities@ ; `string'
PUBLIC	??_C@_0BA@CGJOHFEH@Bad?5field?5type?6?$AA@	; `string'
PUBLIC	??_C@_0DI@EKOAHHAL@CSave?5?3?3?5BufferHeader?$CI?$CJ?5size?5par@ ; `string'
PUBLIC	??_C@_0BH@DDIPEFHA@Save?1Restore?5overflow?$CB?$AA@ ; `string'
PUBLIC	?__LINE__Var@?0??ReadFields@CRestore@@QAEHPBDPBXPAUdatamap_s@@PAUtypedescription_s@@H@Z@4JA ; `CRestore::ReadFields'::`1'::__LINE__Var
PUBLIC	??_C@_0EO@PKCAKHFH@d?3?2?$CBdiffusion?52020?2source?5code?52@ ; `string'
PUBLIC	??_C@_0BB@HBGCKGNA@i?5?$DN?$DN?5sizeof?$CIint?$CJ?$AA@ ; `string'
PUBLIC	?__LINE__Var@?0??BufferReadHeader@CRestore@@AAEXPAUHEADER@@@Z@4JA ; `CRestore::BufferReadHeader'::`1'::__LINE__Var
PUBLIC	??_C@_0O@HOIPNDOM@pheader?$CB?$DNNULL?$AA@	; `string'
PUBLIC	?__LINE__Var@?0??BufferReadBytes@CRestore@@AAEXPADH@Z@4JA ; `CRestore::BufferReadBytes'::`1'::__LINE__Var
PUBLIC	??_C@_0P@EFMHEPIK@m_pdata?5?$CB?$DNNULL?$AA@	; `string'
PUBLIC	??_C@_0BC@LOPFGCCH@Restore?5overflow?$CB?$AA@	; `string'
EXTRN	_atof:PROC
EXTRN	_atoi:PROC
EXTRN	_memcpy:PROC
EXTRN	_memset:PROC
EXTRN	_strcmp:PROC
EXTRN	_strlen:PROC
EXTRN	_stricmp:PROC
EXTRN	?Q_strncat@@YAIPADPBDI@Z:PROC			; Q_strncat
EXTRN	?Q_strncpy@@YAIPADPBDI@Z:PROC			; Q_strncpy
EXTRN	?Q_strnicmp@@YAHPBD0H@Z:PROC			; Q_strnicmp
EXTRN	?Q_strncmp@@YAHPBD0H@Z:PROC			; Q_strncmp
EXTRN	?Q_snprintf@@YAHPADIPBDZZ:PROC			; Q_snprintf
EXTRN	?DBG_EntOfVars@@YAPAUedict_s@@PBUentvars_s@@@Z:PROC ; DBG_EntOfVars
EXTRN	?ENT@@YAPAUedict_s@@PAVCBaseEntity@@@Z:PROC	; ENT
EXTRN	?UTIL_StringToVector@@YAXPAMPBD@Z:PROC		; UTIL_StringToVector
EXTRN	?UTIL_SetMovedir@@YAXPAVCBaseEntity@@@Z:PROC	; UTIL_SetMovedir
EXTRN	?DBG_AssertFunction@@YAXHPBD0H0@Z:PROC		; DBG_AssertFunction
EXTRN	?UTIL_FunctionToName@@YAPBDPAUdatamap_s@@PAX@Z:PROC ; UTIL_FunctionToName
EXTRN	?UTIL_FunctionFromName@@YAPAXPAUdatamap_s@@PBD@Z:PROC ; UTIL_FunctionFromName
EXTRN	?SetAbsOrigin@CBaseEntity@@QAEXABVVector@@@Z:PROC ; CBaseEntity::SetAbsOrigin
EXTRN	?SetAbsAngles@CBaseEntity@@QAEXABVVector@@@Z:PROC ; CBaseEntity::SetAbsAngles
EXTRN	@__security_check_cookie@4:PROC
EXTRN	?g_vecZero@@3VVector@@B:BYTE			; g_vecZero
EXTRN	?g_engfuncs@@3Uenginefuncs_s@@A:BYTE		; g_engfuncs
EXTRN	___security_cookie:DWORD
EXTRN	__fltused:DWORD
_BSS	SEGMENT
?szBuf@?1??Log@CSave@@AAEXPAUdatamap_s@@PBD1W4_fieldtypes@@PAXH@Z@4PADA DB 0400H DUP (?) ; `CSave::Log'::`2'::szBuf
?szTempBuf@?1??Log@CSave@@AAEXPAUdatamap_s@@PBD1W4_fieldtypes@@PAXH@Z@4PADA DB 0100H DUP (?) ; `CSave::Log'::`2'::szTempBuf
_BSS	ENDS
;	COMDAT ??_C@_0BC@LOPFGCCH@Restore?5overflow?$CB?$AA@
CONST	SEGMENT
??_C@_0BC@LOPFGCCH@Restore?5overflow?$CB?$AA@ DB 'Restore overflow!', 00H ; `string'
CONST	ENDS
;	COMDAT ??_C@_0P@EFMHEPIK@m_pdata?5?$CB?$DNNULL?$AA@
CONST	SEGMENT
??_C@_0P@EFMHEPIK@m_pdata?5?$CB?$DNNULL?$AA@ DB 'm_pdata !=NULL', 00H ; `string'
CONST	ENDS
;	COMDAT ?__LINE__Var@?0??BufferReadBytes@CRestore@@AAEXPADH@Z@4JA
_DATA	SEGMENT
?__LINE__Var@?0??BufferReadBytes@CRestore@@AAEXPADH@Z@4JA DD 0454H ; `CRestore::BufferReadBytes'::`1'::__LINE__Var
_DATA	ENDS
;	COMDAT ??_C@_0O@HOIPNDOM@pheader?$CB?$DNNULL?$AA@
CONST	SEGMENT
??_C@_0O@HOIPNDOM@pheader?$CB?$DNNULL?$AA@ DB 'pheader!=NULL', 00H ; `string'
CONST	ENDS
;	COMDAT ?__LINE__Var@?0??BufferReadHeader@CRestore@@AAEXPAUHEADER@@@Z@4JA
_DATA	SEGMENT
?__LINE__Var@?0??BufferReadHeader@CRestore@@AAEXPAUHEADER@@@Z@4JA DD 041dH ; `CRestore::BufferReadHeader'::`1'::__LINE__Var
_DATA	ENDS
;	COMDAT ??_C@_0BB@HBGCKGNA@i?5?$DN?$DN?5sizeof?$CIint?$CJ?$AA@
CONST	SEGMENT
??_C@_0BB@HBGCKGNA@i?5?$DN?$DN?5sizeof?$CIint?$CJ?$AA@ DB 'i == sizeof(in'
	DB	't)', 00H					; `string'
CONST	ENDS
;	COMDAT ??_C@_0EO@PKCAKHFH@d?3?2?$CBdiffusion?52020?2source?5code?52@
CONST	SEGMENT
??_C@_0EO@PKCAKHFH@d?3?2?$CBdiffusion?52020?2source?5code?52@ DB 'd:\!dif'
	DB	'fusion 2020\source code 2022\client-server\server\game\savere'
	DB	'store.cpp', 00H				; `string'
CONST	ENDS
;	COMDAT ?__LINE__Var@?0??ReadFields@CRestore@@QAEHPBDPBXPAUdatamap_s@@PAUtypedescription_s@@H@Z@4JA
_DATA	SEGMENT
?__LINE__Var@?0??ReadFields@CRestore@@QAEHPBDPBXPAUdatamap_s@@PAUtypedescription_s@@H@Z@4JA DD 03e2H ; `CRestore::ReadFields'::`1'::__LINE__Var
_DATA	ENDS
;	COMDAT ??_C@_0BH@DDIPEFHA@Save?1Restore?5overflow?$CB?$AA@
CONST	SEGMENT
??_C@_0BH@DDIPEFHA@Save?1Restore?5overflow?$CB?$AA@ DB 'Save/Restore over'
	DB	'flow!', 00H					; `string'
CONST	ENDS
;	COMDAT ??_C@_0DI@EKOAHHAL@CSave?5?3?3?5BufferHeader?$CI?$CJ?5size?5par@
CONST	SEGMENT
??_C@_0DI@EKOAHHAL@CSave?5?3?3?5BufferHeader?$CI?$CJ?5size?5par@ DB 'CSav'
	DB	'e :: BufferHeader() size parameter exceeds ''short''!', 00H ; `string'
CONST	ENDS
;	COMDAT ??_C@_0BA@CGJOHFEH@Bad?5field?5type?6?$AA@
CONST	SEGMENT
??_C@_0BA@CGJOHFEH@Bad?5field?5type?6?$AA@ DB 'Bad field type', 0aH, 00H ; `string'
CONST	ENDS
;	COMDAT ??_C@_0DB@NAHFIIFC@Can?8t?5save?5more?5than?5?$CFd?5entities@
CONST	SEGMENT
??_C@_0DB@NAHFIIFC@Can?8t?5save?5more?5than?5?$CFd?5entities@ DB 'Can''t '
	DB	'save more than %d entities in an array!!!', 0aH, 00H ; `string'
CONST	ENDS
;	COMDAT ??_C@_0BH@EKBNCGHO@Bad?5field?5in?5entity?$CB?$CB?6?$AA@
CONST	SEGMENT
??_C@_0BH@EKBNCGHO@Bad?5field?5in?5entity?$CB?$CB?6?$AA@ DB 'Bad field in'
	DB	' entity!!', 0aH, 00H			; `string'
CONST	ENDS
;	COMDAT ??_C@_0CH@MIPHMABE@Invalid?5function?5pointer?5in?5clas@
CONST	SEGMENT
??_C@_0CH@MIPHMABE@Invalid?5function?5pointer?5in?5clas@ DB 'Invalid func'
	DB	'tion pointer in class %s!', 0aH, 00H	; `string'
CONST	ENDS
;	COMDAT ??_C@_01EEMJAFIK@?6?$AA@
CONST	SEGMENT
??_C@_01EEMJAFIK@?6?$AA@ DB 0aH, 00H			; `string'
CONST	ENDS
;	COMDAT ??_C@_01CLKCMJKC@?5?$AA@
CONST	SEGMENT
??_C@_01CLKCMJKC@?5?$AA@ DB ' ', 00H			; `string'
CONST	ENDS
;	COMDAT ??_C@_0L@MKEFNAGA@?$CI?$CFf?5?$CFf?5?$CFf?$CJ?$AA@
CONST	SEGMENT
??_C@_0L@MKEFNAGA@?$CI?$CFf?5?$CFf?5?$CFf?$CJ?$AA@ DB '(%f %f %f)', 00H ; `string'
CONST	ENDS
;	COMDAT ??_C@_02DKCKIIND@?$CFs?$AA@
CONST	SEGMENT
??_C@_02DKCKIIND@?$CFs?$AA@ DB '%s', 00H		; `string'
CONST	ENDS
;	COMDAT ??_C@_02NJPGOMH@?$CFf?$AA@
CONST	SEGMENT
??_C@_02NJPGOMH@?$CFf?$AA@ DB '%f', 00H			; `string'
CONST	ENDS
;	COMDAT ??_C@_02DPKJAMEF@?$CFd?$AA@
CONST	SEGMENT
??_C@_02DPKJAMEF@?$CFd?$AA@ DB '%d', 00H		; `string'
CONST	ENDS
;	COMDAT ??_C@_07HDHDLLK@?$CFs?9?$DO?$CFs?5?$AA@
CONST	SEGMENT
??_C@_07HDHDLLK@?$CFs?9?$DO?$CFs?5?$AA@ DB '%s->%s ', 00H ; `string'
CONST	ENDS
;	COMDAT ??_C@_0DG@PLEHHJFB@CSaveRestoreBuffer?5?3?3?5TokenHash?$CI@
CONST	SEGMENT
??_C@_0DG@PLEHHJFB@CSaveRestoreBuffer?5?3?3?5TokenHash?$CI@ DB 'CSaveRest'
	DB	'oreBuffer :: TokenHash() is COMPLETELY FULL!', 00H ; `string'
CONST	ENDS
;	COMDAT ??_C@_0DH@GDIMFBJD@CSaveRestoreBuffer?5?3?3?5TokenHash?$CI@
CONST	SEGMENT
??_C@_0DH@GDIMFBJD@CSaveRestoreBuffer?5?3?3?5TokenHash?$CI@ DB 'CSaveRest'
	DB	'oreBuffer :: TokenHash() is getting too full!', 00H ; `string'
CONST	ENDS
;	COMDAT ??_C@_0CF@NBIBCMLK@No?5token?5table?5array?5in?5TokenHas@
CONST	SEGMENT
??_C@_0CF@NBIBCMLK@No?5token?5table?5array?5in?5TokenHas@ DB 'No token ta'
	DB	'ble array in TokenHash()!', 00H		; `string'
CONST	ENDS
;	COMDAT ??_C@_0BF@CPEPILID@Bad?5ent?5in?5OFFSET?$CI?$CJ?6?$AA@
CONST	SEGMENT
??_C@_0BF@CPEPILID@Bad?5ent?5in?5OFFSET?$CI?$CJ?6?$AA@ DB 'Bad ent in OFF'
	DB	'SET()', 0aH, 00H				; `string'
CONST	ENDS
; Function compile flags: /Odtp /ZI
; File d:\!diffusion 2020\source code 2022\client-server\server\game\saverestore.cpp
;	COMDAT ?EntvarsKeyvalue@@YAXPAUentvars_s@@PAUKeyValueData_s@@@Z
_TEXT	SEGMENT
tv199 = -84						; size = 4
tv76 = -84						; size = 4
_pEntity$1 = -16					; size = 4
_pEntity$2 = -12					; size = 4
_i$3 = -8						; size = 4
_pField$ = -4						; size = 4
_pev$ = 8						; size = 4
_pkvd$ = 12						; size = 4
?EntvarsKeyvalue@@YAXPAUentvars_s@@PAUKeyValueData_s@@@Z PROC ; EntvarsKeyvalue, COMDAT

; 574  : {

	push	ebp
	mov	ebp, esp
	sub	esp, 84					; 00000054H
	push	ebx
	push	esi
	push	edi

; 575  : 	TYPEDESCRIPTION *pField;
; 576  : 
; 577  : 	for ( int i = 0; i < ENTVARS_COUNT; i++ )

	mov	DWORD PTR _i$3[ebp], 0
	jmp	SHORT $LN4@EntvarsKey
$LN2@EntvarsKey:
	mov	eax, DWORD PTR _i$3[ebp]
	add	eax, 1
	mov	DWORD PTR _i$3[ebp], eax
$LN4@EntvarsKey:
	cmp	DWORD PTR _i$3[ebp], 98			; 00000062H
	jae	$LN3@EntvarsKey

; 578  : 	{
; 579  : 		pField = &gEntvarsDescription[i];

	imul	eax, DWORD PTR _i$3[ebp], 24
	add	eax, OFFSET ?gEntvarsDescription@@3PAUtypedescription_s@@A ; gEntvarsDescription
	mov	DWORD PTR _pField$[ebp], eax

; 580  : 
; 581  : 		if ( !Q_stricmp( pField->fieldName, pkvd->szKeyName ) )

	push	99999					; 0001869fH
	mov	eax, DWORD PTR _pkvd$[ebp]
	mov	ecx, DWORD PTR [eax+4]
	push	ecx
	mov	edx, DWORD PTR _pField$[ebp]
	mov	eax, DWORD PTR [edx+4]
	push	eax
	call	?Q_strnicmp@@YAHPBD0H@Z			; Q_strnicmp
	add	esp, 12					; 0000000cH
	test	eax, eax
	jne	$LN7@EntvarsKey

; 582  : 		{
; 583  : 			switch( pField->fieldType )

	mov	eax, DWORD PTR _pField$[ebp]
	mov	ecx, DWORD PTR [eax]
	mov	DWORD PTR tv76[ebp], ecx
	cmp	DWORD PTR tv76[ebp], 17			; 00000011H
	ja	$LN12@EntvarsKey
	mov	edx, DWORD PTR tv76[ebp]
	movzx	eax, BYTE PTR $LN22@EntvarsKey[edx]
	jmp	DWORD PTR $LN23@EntvarsKey[eax*4]
$LN8@EntvarsKey:

; 584  : 			{
; 585  : 			case FIELD_MODELNAME:
; 586  : 			case FIELD_SOUNDNAME:
; 587  : 			case FIELD_STRING:
; 588  : 				(*(int *)((char *)pev + pField->fieldOffset)) = ALLOC_STRING( pkvd->szValue );

	mov	eax, DWORD PTR _pkvd$[ebp]
	mov	ecx, DWORD PTR [eax+8]
	push	ecx
	call	DWORD PTR ?g_engfuncs@@3Uenginefuncs_s@@A+268
	add	esp, 4
	mov	edx, DWORD PTR _pField$[ebp]
	mov	ecx, DWORD PTR [edx+8]
	mov	edx, DWORD PTR _pev$[ebp]
	mov	DWORD PTR [edx+ecx], eax

; 589  : 				break;

	jmp	SHORT $LN5@EntvarsKey
$LN9@EntvarsKey:

; 590  : 
; 591  : 			case FIELD_TIME:
; 592  : 			case FIELD_FLOAT:
; 593  : 				(*(float *)((char *)pev + pField->fieldOffset)) = atof( pkvd->szValue );

	mov	eax, DWORD PTR _pkvd$[ebp]
	mov	ecx, DWORD PTR [eax+8]
	push	ecx
	call	_atof
	add	esp, 4
	fstp	DWORD PTR tv199[ebp]
	fld	DWORD PTR tv199[ebp]
	mov	edx, DWORD PTR _pField$[ebp]
	mov	eax, DWORD PTR [edx+8]
	mov	ecx, DWORD PTR _pev$[ebp]
	fstp	DWORD PTR [ecx+eax]

; 594  : 				break;

	jmp	SHORT $LN5@EntvarsKey
$LN10@EntvarsKey:

; 595  : 
; 596  : 			case FIELD_INTEGER:
; 597  : 				(*(int *)((char *)pev + pField->fieldOffset)) = atoi( pkvd->szValue );

	mov	eax, DWORD PTR _pkvd$[ebp]
	mov	ecx, DWORD PTR [eax+8]
	push	ecx
	call	_atoi
	add	esp, 4
	mov	edx, DWORD PTR _pField$[ebp]
	mov	ecx, DWORD PTR [edx+8]
	mov	edx, DWORD PTR _pev$[ebp]
	mov	DWORD PTR [edx+ecx], eax

; 598  : 				break;

	jmp	SHORT $LN5@EntvarsKey
$LN11@EntvarsKey:

; 599  : 
; 600  : 			case FIELD_POSITION_VECTOR:
; 601  : 			case FIELD_VECTOR:
; 602  : 				UTIL_StringToVector( (float *)((char *)pev + pField->fieldOffset), pkvd->szValue );

	mov	eax, DWORD PTR _pkvd$[ebp]
	mov	ecx, DWORD PTR [eax+8]
	push	ecx
	mov	edx, DWORD PTR _pField$[ebp]
	mov	eax, DWORD PTR _pev$[ebp]
	add	eax, DWORD PTR [edx+8]
	push	eax
	call	?UTIL_StringToVector@@YAXPAMPBD@Z	; UTIL_StringToVector
	add	esp, 8

; 603  : 				break;

	jmp	SHORT $LN5@EntvarsKey
$LN12@EntvarsKey:

; 604  : 			case FIELD_EVARS:
; 605  : 			case FIELD_CLASSPTR:
; 606  : 			case FIELD_EDICT:
; 607  : 			case FIELD_ENTITY:
; 608  : 			case FIELD_POINTER:
; 609  : 			default:	ALERT( at_error, "Bad field in entity!!\n" );

	push	OFFSET ??_C@_0BH@EKBNCGHO@Bad?5field?5in?5entity?$CB?$CB?6?$AA@
	push	4
	call	DWORD PTR ?g_engfuncs@@3Uenginefuncs_s@@A+244
	add	esp, 8
$LN5@EntvarsKey:

; 610  : 				break;
; 611  : 			}
; 612  : 
; 613  : 			// g-cont. HACKHACK to set origin and angles properly
; 614  : 			if( FStrEq( pField->fieldName, "origin" ))

	push	OFFSET ??_C@_06NHCMNMEH@origin?$AA@
	mov	eax, DWORD PTR _pField$[ebp]
	mov	ecx, DWORD PTR [eax+4]
	push	ecx
	call	?FStrEq@@YAHPBD0@Z			; FStrEq
	add	esp, 8
	test	eax, eax
	je	SHORT $LN13@EntvarsKey

; 615  : 			{
; 616  : 				CBaseEntity *pEntity = CBaseEntity::Instance( pev );

	mov	eax, DWORD PTR _pev$[ebp]
	push	eax
	call	?Instance@CBaseEntity@@SAPAV1@PAUentvars_s@@@Z ; CBaseEntity::Instance
	add	esp, 4
	mov	DWORD PTR _pEntity$2[ebp], eax

; 617  : 				if( pEntity ) pEntity->SetAbsOrigin( pev->origin );

	cmp	DWORD PTR _pEntity$2[ebp], 0
	je	SHORT $LN15@EntvarsKey
	mov	eax, DWORD PTR _pev$[ebp]
	add	eax, 8
	push	eax
	mov	ecx, DWORD PTR _pEntity$2[ebp]
	call	?SetAbsOrigin@CBaseEntity@@QAEXABVVector@@@Z ; CBaseEntity::SetAbsOrigin
$LN15@EntvarsKey:

; 618  : 			}

	jmp	$LN17@EntvarsKey
$LN13@EntvarsKey:

; 619  : 			else if( FStrEq( pField->fieldName, "angles" ))

	push	OFFSET ??_C@_06GNEAMJOC@angles?$AA@
	mov	eax, DWORD PTR _pField$[ebp]
	mov	ecx, DWORD PTR [eax+4]
	push	ecx
	call	?FStrEq@@YAHPBD0@Z			; FStrEq
	add	esp, 8
	test	eax, eax
	je	$LN17@EntvarsKey

; 620  : 			{
; 621  : 				CBaseEntity *pEntity = CBaseEntity::Instance( pev );

	mov	eax, DWORD PTR _pev$[ebp]
	push	eax
	call	?Instance@CBaseEntity@@SAPAV1@PAUentvars_s@@@Z ; CBaseEntity::Instance
	add	esp, 4
	mov	DWORD PTR _pEntity$1[ebp], eax

; 622  : 				if( pEntity )

	cmp	DWORD PTR _pEntity$1[ebp], 0
	je	$LN17@EntvarsKey

; 623  : 				{
; 624  : 					if( pEntity->ObjectCaps() & FCAP_SET_MOVEDIR )

	mov	eax, DWORD PTR _pEntity$1[ebp]
	mov	edx, DWORD PTR [eax]
	mov	ecx, DWORD PTR _pEntity$1[ebp]
	mov	eax, DWORD PTR [edx+24]
	call	eax
	and	eax, 1
	je	SHORT $LN18@EntvarsKey

; 625  : 					{
; 626  : 						UTIL_SetMovedir( pEntity );

	mov	eax, DWORD PTR _pEntity$1[ebp]
	push	eax
	call	?UTIL_SetMovedir@@YAXPAVCBaseEntity@@@Z	; UTIL_SetMovedir
	add	esp, 4
	jmp	SHORT $LN20@EntvarsKey
$LN18@EntvarsKey:

; 627  : 					}
; 628  : 					else if( pEntity->ObjectCaps() & FCAP_HOLD_ANGLES )

	mov	eax, DWORD PTR _pEntity$1[ebp]
	mov	edx, DWORD PTR [eax]
	mov	ecx, DWORD PTR _pEntity$1[ebp]
	mov	eax, DWORD PTR [edx+24]
	call	eax
	and	eax, 1024				; 00000400H
	je	SHORT $LN20@EntvarsKey

; 629  : 					{
; 630  : 						pEntity->m_vecTempAngles = pev->angles;

	mov	eax, DWORD PTR _pev$[ebp]
	add	eax, 80					; 00000050H
	mov	ecx, DWORD PTR _pEntity$1[ebp]
	add	ecx, 84					; 00000054H
	mov	edx, DWORD PTR [eax]
	mov	DWORD PTR [ecx], edx
	mov	edx, DWORD PTR [eax+4]
	mov	DWORD PTR [ecx+4], edx
	mov	eax, DWORD PTR [eax+8]
	mov	DWORD PTR [ecx+8], eax

; 631  : 						pev->angles = g_vecZero;

	mov	eax, DWORD PTR _pev$[ebp]
	add	eax, 80					; 00000050H
	mov	ecx, DWORD PTR ?g_vecZero@@3VVector@@B
	mov	DWORD PTR [eax], ecx
	mov	edx, DWORD PTR ?g_vecZero@@3VVector@@B+4
	mov	DWORD PTR [eax+4], edx
	mov	ecx, DWORD PTR ?g_vecZero@@3VVector@@B+8
	mov	DWORD PTR [eax+8], ecx
$LN20@EntvarsKey:

; 632  : 					}
; 633  : 					pEntity->SetAbsAngles( pev->angles );

	mov	eax, DWORD PTR _pev$[ebp]
	add	eax, 80					; 00000050H
	push	eax
	mov	ecx, DWORD PTR _pEntity$1[ebp]
	call	?SetAbsAngles@CBaseEntity@@QAEXABVVector@@@Z ; CBaseEntity::SetAbsAngles

; 634  : 					pEntity->m_fSetAngles = TRUE;

	mov	eax, DWORD PTR _pEntity$1[ebp]
	mov	DWORD PTR [eax+80], 1
$LN17@EntvarsKey:

; 635  : 				}
; 636  : 			}
; 637  : 
; 638  : 			pkvd->fHandled = TRUE;

	mov	eax, DWORD PTR _pkvd$[ebp]
	mov	DWORD PTR [eax+12], 1

; 639  : 			return;

	jmp	SHORT $LN1@EntvarsKey
$LN7@EntvarsKey:

; 640  : 		}
; 641  : 	}

	jmp	$LN2@EntvarsKey
$LN3@EntvarsKey:
$LN1@EntvarsKey:

; 642  : }

	pop	edi
	pop	esi
	pop	ebx
	mov	esp, ebp
	pop	ebp
	ret	0
	npad	1
$LN23@EntvarsKey:
	DD	$LN9@EntvarsKey
	DD	$LN8@EntvarsKey
	DD	$LN11@EntvarsKey
	DD	$LN10@EntvarsKey
	DD	$LN12@EntvarsKey
$LN22@EntvarsKey:
	DB	0
	DB	1
	DB	4
	DB	4
	DB	4
	DB	4
	DB	4
	DB	2
	DB	2
	DB	4
	DB	3
	DB	4
	DB	4
	DB	4
	DB	4
	DB	0
	DB	1
	DB	1
?EntvarsKeyvalue@@YAXPAUentvars_s@@PAUKeyValueData_s@@@Z ENDP ; EntvarsKeyvalue
_TEXT	ENDS
; Function compile flags: /Odtp /ZI
; File d:\!diffusion 2020\source code 2022\client-server\server\cbase.h
;	COMDAT ?Instance@CBaseEntity@@SAPAV1@PAUentvars_s@@@Z
_TEXT	SEGMENT
_pev$ = 8						; size = 4
?Instance@CBaseEntity@@SAPAV1@PAUentvars_s@@@Z PROC	; CBaseEntity::Instance, COMDAT

; 564  : 	static CBaseEntity *Instance( entvars_t *pev ) { return Instance( ENT( pev ) ); }

	push	ebp
	mov	ebp, esp
	sub	esp, 64					; 00000040H
	push	ebx
	push	esi
	push	edi
	mov	eax, DWORD PTR _pev$[ebp]
	push	eax
	call	?ENT@@YAPAUedict_s@@PBUentvars_s@@@Z	; ENT
	add	esp, 4
	push	eax
	call	?Instance@CBaseEntity@@SAPAV1@PAUedict_s@@@Z ; CBaseEntity::Instance
	add	esp, 4
	pop	edi
	pop	esi
	pop	ebx
	mov	esp, ebp
	pop	ebp
	ret	0
?Instance@CBaseEntity@@SAPAV1@PAUentvars_s@@@Z ENDP	; CBaseEntity::Instance
_TEXT	ENDS
; Function compile flags: /Odtp /ZI
; File d:\!diffusion 2020\source code 2022\client-server\server\cbase.h
;	COMDAT ?Instance@CBaseEntity@@SAPAV1@PAUedict_s@@@Z
_TEXT	SEGMENT
_pEnt$ = -4						; size = 4
_pent$ = 8						; size = 4
?Instance@CBaseEntity@@SAPAV1@PAUedict_s@@@Z PROC	; CBaseEntity::Instance, COMDAT

; 557  : 	{ 

	push	ebp
	mov	ebp, esp
	sub	esp, 68					; 00000044H
	push	ebx
	push	esi
	push	edi

; 558  : 		if ( !pent )

	cmp	DWORD PTR _pent$[ebp], 0
	jne	SHORT $LN2@Instance

; 559  : 			pent = ENT(0);

	push	0
	call	?ENT@@YAPAUedict_s@@H@Z			; ENT
	add	esp, 4
	mov	DWORD PTR _pent$[ebp], eax
$LN2@Instance:

; 560  : 		CBaseEntity *pEnt = (CBaseEntity *)GET_PRIVATE(pent); 

	mov	eax, DWORD PTR _pent$[ebp]
	push	eax
	call	?GET_PRIVATE@@YAPAXPAUedict_s@@@Z	; GET_PRIVATE
	add	esp, 4
	mov	DWORD PTR _pEnt$[ebp], eax

; 561  : 		return pEnt; 

	mov	eax, DWORD PTR _pEnt$[ebp]

; 562  : 	}

	pop	edi
	pop	esi
	pop	ebx
	mov	esp, ebp
	pop	ebp
	ret	0
?Instance@CBaseEntity@@SAPAV1@PAUedict_s@@@Z ENDP	; CBaseEntity::Instance
_TEXT	ENDS
; Function compile flags: /Odtp /ZI
; File d:\!diffusion 2020\source code 2022\client-server\server\ehandle.h
;	COMDAT ??4EHANDLE@@QAEPAVCBaseEntity@@PAV1@@Z
_TEXT	SEGMENT
_this$ = -4						; size = 4
_pEntity$ = 8						; size = 4
??4EHANDLE@@QAEPAVCBaseEntity@@PAV1@@Z PROC		; EHANDLE::operator=, COMDAT
; _this$ = ecx

; 69   : {

	push	ebp
	mov	ebp, esp
	sub	esp, 68					; 00000044H
	push	ebx
	push	esi
	push	edi
	mov	DWORD PTR _this$[ebp], ecx

; 70   : 	if (pEntity)

	cmp	DWORD PTR _pEntity$[ebp], 0
	je	SHORT $LN2@operator

; 71   : 	{
; 72   : 		m_pent = ENT( pEntity );

	mov	eax, DWORD PTR _pEntity$[ebp]
	push	eax
	call	?ENT@@YAPAUedict_s@@PAVCBaseEntity@@@Z	; ENT
	add	esp, 4
	mov	ecx, DWORD PTR _this$[ebp]
	mov	DWORD PTR [ecx], eax

; 73   : 		if (m_pent)

	mov	eax, DWORD PTR _this$[ebp]
	cmp	DWORD PTR [eax], 0
	je	SHORT $LN4@operator

; 74   : 			m_serialnumber = m_pent->serialnumber;

	mov	eax, DWORD PTR _this$[ebp]
	mov	ecx, DWORD PTR [eax]
	mov	edx, DWORD PTR _this$[ebp]
	mov	eax, DWORD PTR [ecx+4]
	mov	DWORD PTR [edx+4], eax
$LN4@operator:

; 75   : 	}
; 76   : 	else

	jmp	SHORT $LN3@operator
$LN2@operator:

; 77   : 	{
; 78   : 		m_pent = NULL;

	mov	eax, DWORD PTR _this$[ebp]
	mov	DWORD PTR [eax], 0

; 79   : 		m_serialnumber = 0;

	mov	eax, DWORD PTR _this$[ebp]
	mov	DWORD PTR [eax+4], 0
$LN3@operator:

; 80   : 	}
; 81   : 	return pEntity;

	mov	eax, DWORD PTR _pEntity$[ebp]

; 82   : }

	pop	edi
	pop	esi
	pop	ebx
	mov	esp, ebp
	pop	ebp
	ret	4
??4EHANDLE@@QAEPAVCBaseEntity@@PAV1@@Z ENDP		; EHANDLE::operator=
_TEXT	ENDS
; Function compile flags: /Odtp /ZI
; File d:\!diffusion 2020\source code 2022\client-server\server\ehandle.h
;	COMDAT ??BEHANDLE@@QAEPAVCBaseEntity@@XZ
_TEXT	SEGMENT
_this$ = -4						; size = 4
??BEHANDLE@@QAEPAVCBaseEntity@@XZ PROC			; EHANDLE::operator CBaseEntity *, COMDAT
; _this$ = ecx

; 64   : { 

	push	ebp
	mov	ebp, esp
	sub	esp, 68					; 00000044H
	push	ebx
	push	esi
	push	edi
	mov	DWORD PTR _this$[ebp], ecx

; 65   : 	return (CBaseEntity *)GET_PRIVATE( Get( ) ); 

	mov	ecx, DWORD PTR _this$[ebp]
	call	?Get@EHANDLE@@QAEPAUedict_s@@XZ		; EHANDLE::Get
	push	eax
	call	?GET_PRIVATE@@YAPAXPAUedict_s@@@Z	; GET_PRIVATE
	add	esp, 4

; 66   : }

	pop	edi
	pop	esi
	pop	ebx
	mov	esp, ebp
	pop	ebp
	ret	0
??BEHANDLE@@QAEPAVCBaseEntity@@XZ ENDP			; EHANDLE::operator CBaseEntity *
_TEXT	ENDS
; Function compile flags: /Odtp /ZI
; File d:\!diffusion 2020\source code 2022\client-server\server\ehandle.h
;	COMDAT ?Get@EHANDLE@@QAEPAUedict_s@@XZ
_TEXT	SEGMENT
_this$ = -4						; size = 4
?Get@EHANDLE@@QAEPAUedict_s@@XZ PROC			; EHANDLE::Get, COMDAT
; _this$ = ecx

; 40   : { 

	push	ebp
	mov	ebp, esp
	sub	esp, 68					; 00000044H
	push	ebx
	push	esi
	push	edi
	mov	DWORD PTR _this$[ebp], ecx

; 41   : 	if( m_pent )

	mov	eax, DWORD PTR _this$[ebp]
	cmp	DWORD PTR [eax], 0
	je	SHORT $LN2@Get

; 42   : 	{
; 43   : #if 0
; 44   : 		// keep client entity always in actual state
; 45   : 		if( ENTINDEX( m_pent ) == 1 )
; 46   : 			m_serialnumber = m_pent->serialnumber;
; 47   : #endif
; 48   : 		if( m_pent->serialnumber == m_serialnumber ) 

	mov	eax, DWORD PTR _this$[ebp]
	mov	ecx, DWORD PTR [eax]
	mov	edx, DWORD PTR _this$[ebp]
	mov	eax, DWORD PTR [ecx+4]
	cmp	eax, DWORD PTR [edx+4]
	jne	SHORT $LN2@Get

; 49   : 			return m_pent; 

	mov	eax, DWORD PTR _this$[ebp]
	mov	eax, DWORD PTR [eax]
	jmp	SHORT $LN1@Get
$LN2@Get:

; 50   : 	}
; 51   : 
; 52   : 	return NULL; 

	xor	eax, eax
$LN1@Get:

; 53   : }

	pop	edi
	pop	esi
	pop	ebx
	mov	esp, ebp
	pop	ebp
	ret	0
?Get@EHANDLE@@QAEPAUedict_s@@XZ ENDP			; EHANDLE::Get
_TEXT	ENDS
; Function compile flags: /Odtp /ZI
; File d:\!diffusion 2020\source code 2022\client-server\server\game\saverestore.cpp
;	COMDAT ?BufferReadHeader@CRestore@@AAEXPAUHEADER@@@Z
_TEXT	SEGMENT
tv70 = -72						; size = 4
_this$ = -4						; size = 4
_pheader$ = 8						; size = 4
?BufferReadHeader@CRestore@@AAEXPAUHEADER@@@Z PROC	; CRestore::BufferReadHeader, COMDAT
; _this$ = ecx

; 1053 : {

	push	ebp
	mov	ebp, esp
	sub	esp, 72					; 00000048H
	push	ebx
	push	esi
	push	edi
	mov	DWORD PTR _this$[ebp], ecx

; 1054 : 	ASSERT( pheader!=NULL );

	cmp	DWORD PTR _pheader$[ebp], 0
	je	SHORT $LN3@BufferRead
	mov	DWORD PTR tv70[ebp], 1
	jmp	SHORT $LN4@BufferRead
$LN3@BufferRead:
	mov	DWORD PTR tv70[ebp], 0
$LN4@BufferRead:
	push	0
	mov	eax, DWORD PTR ?__LINE__Var@?0??BufferReadHeader@CRestore@@AAEXPAUHEADER@@@Z@4JA
	add	eax, 1
	push	eax
	push	OFFSET ??_C@_0EO@PKCAKHFH@d?3?2?$CBdiffusion?52020?2source?5code?52@
	push	OFFSET ??_C@_0O@HOIPNDOM@pheader?$CB?$DNNULL?$AA@
	mov	ecx, DWORD PTR tv70[ebp]
	push	ecx
	call	?DBG_AssertFunction@@YAXHPBD0H0@Z	; DBG_AssertFunction
	add	esp, 20					; 00000014H

; 1055 : 	pheader->size = ReadShort();				// Read field size

	mov	ecx, DWORD PTR _this$[ebp]
	call	?ReadShort@CRestore@@QAEFXZ		; CRestore::ReadShort
	mov	ecx, DWORD PTR _pheader$[ebp]
	mov	WORD PTR [ecx], ax

; 1056 : 	pheader->token = ReadShort();				// Read field name token

	mov	ecx, DWORD PTR _this$[ebp]
	call	?ReadShort@CRestore@@QAEFXZ		; CRestore::ReadShort
	mov	ecx, DWORD PTR _pheader$[ebp]
	mov	WORD PTR [ecx+2], ax

; 1057 : 	pheader->pData = BufferPointer();			// Field Data is next

	mov	ecx, DWORD PTR _this$[ebp]
	call	?BufferPointer@CRestore@@AAEPADXZ	; CRestore::BufferPointer
	mov	ecx, DWORD PTR _pheader$[ebp]
	mov	DWORD PTR [ecx+4], eax

; 1058 : 	BufferSkipBytes( pheader->size );			// Advance to next field

	mov	eax, DWORD PTR _pheader$[ebp]
	movzx	ecx, WORD PTR [eax]
	push	ecx
	mov	ecx, DWORD PTR _this$[ebp]
	call	?BufferSkipBytes@CRestore@@AAEXH@Z	; CRestore::BufferSkipBytes

; 1059 : }

	pop	edi
	pop	esi
	pop	ebx
	mov	esp, ebp
	pop	ebp
	ret	4
?BufferReadHeader@CRestore@@AAEXPAUHEADER@@@Z ENDP	; CRestore::BufferReadHeader
_TEXT	ENDS
; Function compile flags: /Odtp /ZI
; File d:\!diffusion 2020\source code 2022\client-server\server\game\saverestore.cpp
;	COMDAT ?BufferSkipBytes@CRestore@@AAEXH@Z
_TEXT	SEGMENT
_this$ = -4						; size = 4
_bytes$ = 8						; size = 4
?BufferSkipBytes@CRestore@@AAEXH@Z PROC			; CRestore::BufferSkipBytes, COMDAT
; _this$ = ecx

; 1138 : {

	push	ebp
	mov	ebp, esp
	sub	esp, 68					; 00000044H
	push	ebx
	push	esi
	push	edi
	mov	DWORD PTR _this$[ebp], ecx

; 1139 : 	BufferReadBytes( NULL, bytes );

	mov	eax, DWORD PTR _bytes$[ebp]
	push	eax
	push	0
	mov	ecx, DWORD PTR _this$[ebp]
	call	?BufferReadBytes@CRestore@@AAEXPADH@Z	; CRestore::BufferReadBytes

; 1140 : }

	pop	edi
	pop	esi
	pop	ebx
	mov	esp, ebp
	pop	ebp
	ret	4
?BufferSkipBytes@CRestore@@AAEXH@Z ENDP			; CRestore::BufferSkipBytes
_TEXT	ENDS
; Function compile flags: /Odtp /ZI
; File d:\!diffusion 2020\source code 2022\client-server\server\game\saverestore.cpp
;	COMDAT ?BufferReadBytes@CRestore@@AAEXPADH@Z
_TEXT	SEGMENT
tv75 = -72						; size = 4
_this$ = -4						; size = 4
_pOutput$ = 8						; size = 4
_size$ = 12						; size = 4
?BufferReadBytes@CRestore@@AAEXPADH@Z PROC		; CRestore::BufferReadBytes, COMDAT
; _this$ = ecx

; 1108 : {

	push	ebp
	mov	ebp, esp
	sub	esp, 72					; 00000048H
	push	ebx
	push	esi
	push	edi
	mov	DWORD PTR _this$[ebp], ecx

; 1109 : 	ASSERT( m_pdata !=NULL );

	mov	eax, DWORD PTR _this$[ebp]
	cmp	DWORD PTR [eax+24], 0
	je	SHORT $LN7@BufferRead
	mov	DWORD PTR tv75[ebp], 1
	jmp	SHORT $LN8@BufferRead
$LN7@BufferRead:
	mov	DWORD PTR tv75[ebp], 0
$LN8@BufferRead:
	push	0
	mov	ecx, DWORD PTR ?__LINE__Var@?0??BufferReadBytes@CRestore@@AAEXPADH@Z@4JA
	add	ecx, 1
	push	ecx
	push	OFFSET ??_C@_0EO@PKCAKHFH@d?3?2?$CBdiffusion?52020?2source?5code?52@
	push	OFFSET ??_C@_0P@EFMHEPIK@m_pdata?5?$CB?$DNNULL?$AA@
	mov	edx, DWORD PTR tv75[ebp]
	push	edx
	call	?DBG_AssertFunction@@YAXHPBD0H0@Z	; DBG_AssertFunction
	add	esp, 20					; 00000014H

; 1110 : 
; 1111 : 	if ( !m_pdata || Empty() )

	mov	eax, DWORD PTR _this$[ebp]
	cmp	DWORD PTR [eax+24], 0
	je	SHORT $LN3@BufferRead
	mov	ecx, DWORD PTR _this$[ebp]
	call	?Empty@CRestore@@QAEHXZ			; CRestore::Empty
	test	eax, eax
	je	SHORT $LN2@BufferRead
$LN3@BufferRead:

; 1112 : 		return;

	jmp	$LN1@BufferRead
$LN2@BufferRead:

; 1113 : 
; 1114 : 	if ( (m_pdata->size + size) > m_pdata->bufferSize )

	mov	eax, DWORD PTR _this$[ebp]
	mov	ecx, DWORD PTR [eax+24]
	mov	edx, DWORD PTR [ecx+8]
	add	edx, DWORD PTR _size$[ebp]
	mov	eax, DWORD PTR _this$[ebp]
	mov	ecx, DWORD PTR [eax+24]
	cmp	edx, DWORD PTR [ecx+12]
	jle	SHORT $LN4@BufferRead

; 1115 : 	{
; 1116 : 		ALERT( at_error, "Restore overflow!" );

	push	OFFSET ??_C@_0BC@LOPFGCCH@Restore?5overflow?$CB?$AA@
	push	4
	call	DWORD PTR ?g_engfuncs@@3Uenginefuncs_s@@A+244
	add	esp, 8

; 1117 : 		m_pdata->size = m_pdata->bufferSize;

	mov	eax, DWORD PTR _this$[ebp]
	mov	ecx, DWORD PTR [eax+24]
	mov	edx, DWORD PTR _this$[ebp]
	mov	eax, DWORD PTR [edx+24]
	mov	ecx, DWORD PTR [ecx+12]
	mov	DWORD PTR [eax+8], ecx

; 1118 : 		return;

	jmp	SHORT $LN1@BufferRead
$LN4@BufferRead:

; 1119 : 	}
; 1120 : 
; 1121 : 	if ( pOutput )

	cmp	DWORD PTR _pOutput$[ebp], 0
	je	SHORT $LN5@BufferRead

; 1122 : 		memcpy( pOutput, m_pdata->pCurrentData, size );

	mov	eax, DWORD PTR _size$[ebp]
	push	eax
	mov	ecx, DWORD PTR _this$[ebp]
	mov	edx, DWORD PTR [ecx+24]
	mov	eax, DWORD PTR [edx+4]
	push	eax
	mov	ecx, DWORD PTR _pOutput$[ebp]
	push	ecx
	call	_memcpy
	add	esp, 12					; 0000000cH
$LN5@BufferRead:

; 1123 : 	m_pdata->pCurrentData += size;

	mov	eax, DWORD PTR _this$[ebp]
	mov	ecx, DWORD PTR [eax+24]
	mov	edx, DWORD PTR [ecx+4]
	add	edx, DWORD PTR _size$[ebp]
	mov	eax, DWORD PTR _this$[ebp]
	mov	ecx, DWORD PTR [eax+24]
	mov	DWORD PTR [ecx+4], edx

; 1124 : 	m_pdata->size += size;

	mov	eax, DWORD PTR _this$[ebp]
	mov	ecx, DWORD PTR [eax+24]
	mov	edx, DWORD PTR [ecx+8]
	add	edx, DWORD PTR _size$[ebp]
	mov	eax, DWORD PTR _this$[ebp]
	mov	ecx, DWORD PTR [eax+24]
	mov	DWORD PTR [ecx+8], edx
$LN1@BufferRead:

; 1125 : }

	pop	edi
	pop	esi
	pop	ebx
	mov	esp, ebp
	pop	ebp
	ret	8
?BufferReadBytes@CRestore@@AAEXPADH@Z ENDP		; CRestore::BufferReadBytes
_TEXT	ENDS
; Function compile flags: /Odtp /ZI
; File d:\!diffusion 2020\source code 2022\client-server\server\game\saverestore.cpp
;	COMDAT ?BufferPointer@CRestore@@AAEPADXZ
_TEXT	SEGMENT
_this$ = -4						; size = 4
?BufferPointer@CRestore@@AAEPADXZ PROC			; CRestore::BufferPointer, COMDAT
; _this$ = ecx

; 1100 : {

	push	ebp
	mov	ebp, esp
	sub	esp, 68					; 00000044H
	push	ebx
	push	esi
	push	edi
	mov	DWORD PTR _this$[ebp], ecx

; 1101 : 	if ( !m_pdata )

	mov	eax, DWORD PTR _this$[ebp]
	cmp	DWORD PTR [eax+24], 0
	jne	SHORT $LN2@BufferPoin

; 1102 : 		return NULL;

	xor	eax, eax
	jmp	SHORT $LN1@BufferPoin
$LN2@BufferPoin:

; 1103 : 
; 1104 : 	return m_pdata->pCurrentData;

	mov	eax, DWORD PTR _this$[ebp]
	mov	ecx, DWORD PTR [eax+24]
	mov	eax, DWORD PTR [ecx+4]
$LN1@BufferPoin:

; 1105 : }

	pop	edi
	pop	esi
	pop	ebx
	mov	esp, ebp
	pop	ebp
	ret	0
?BufferPointer@CRestore@@AAEPADXZ ENDP			; CRestore::BufferPointer
_TEXT	ENDS
; Function compile flags: /Odtp /ZI
; File d:\!diffusion 2020\source code 2022\client-server\server\game\saverestore.h
;	COMDAT ?Empty@CRestore@@QAEHXZ
_TEXT	SEGMENT
tv90 = -72						; size = 4
_this$ = -4						; size = 4
?Empty@CRestore@@QAEHXZ PROC				; CRestore::Empty, COMDAT
; _this$ = ecx

; 102  : 	int	Empty( void ) { return (m_pdata == NULL) || ((m_pdata->pCurrentData-m_pdata->pBaseData)>=m_pdata->bufferSize); }

	push	ebp
	mov	ebp, esp
	sub	esp, 72					; 00000048H
	push	ebx
	push	esi
	push	edi
	mov	DWORD PTR _this$[ebp], ecx
	mov	eax, DWORD PTR _this$[ebp]
	cmp	DWORD PTR [eax+24], 0
	je	SHORT $LN3@Empty
	mov	ecx, DWORD PTR _this$[ebp]
	mov	edx, DWORD PTR [ecx+24]
	mov	eax, DWORD PTR _this$[ebp]
	mov	ecx, DWORD PTR [eax+24]
	mov	edx, DWORD PTR [edx+4]
	sub	edx, DWORD PTR [ecx]
	mov	eax, DWORD PTR _this$[ebp]
	mov	ecx, DWORD PTR [eax+24]
	cmp	edx, DWORD PTR [ecx+12]
	jge	SHORT $LN3@Empty
	mov	DWORD PTR tv90[ebp], 0
	jmp	SHORT $LN4@Empty
$LN3@Empty:
	mov	DWORD PTR tv90[ebp], 1
$LN4@Empty:
	mov	eax, DWORD PTR tv90[ebp]
	pop	edi
	pop	esi
	pop	ebx
	mov	esp, ebp
	pop	ebp
	ret	0
?Empty@CRestore@@QAEHXZ ENDP				; CRestore::Empty
_TEXT	ENDS
; Function compile flags: /Odtp /ZI
; File d:\!diffusion 2020\source code 2022\client-server\server\game\saverestore.cpp
;	COMDAT ?ReadNamedString@CRestore@@QAEPADPBD@Z
_TEXT	SEGMENT
_header$ = -12						; size = 8
_this$ = -4						; size = 4
_pName$ = 8						; size = 4
?ReadNamedString@CRestore@@QAEPADPBD@Z PROC		; CRestore::ReadNamedString, COMDAT
; _this$ = ecx

; 1088 : {

	push	ebp
	mov	ebp, esp
	sub	esp, 76					; 0000004cH
	push	ebx
	push	esi
	push	edi
	mov	DWORD PTR _this$[ebp], ecx

; 1089 : 	HEADER header;
; 1090 : 
; 1091 : 	BufferReadHeader( &header );

	lea	eax, DWORD PTR _header$[ebp]
	push	eax
	mov	ecx, DWORD PTR _this$[ebp]
	call	?BufferReadHeader@CRestore@@AAEXPAUHEADER@@@Z ; CRestore::BufferReadHeader

; 1092 : #ifdef TOKENIZE
; 1093 : 	return (char *)(m_pdata->pTokens[*(short *)header.pData]);
; 1094 : #else
; 1095 : 	return (char *)header.pData;

	mov	eax, DWORD PTR _header$[ebp+4]

; 1096 : #endif
; 1097 : }

	pop	edi
	pop	esi
	pop	ebx
	mov	esp, ebp
	pop	ebp
	ret	4
?ReadNamedString@CRestore@@QAEPADPBD@Z ENDP		; CRestore::ReadNamedString
_TEXT	ENDS
; Function compile flags: /Odtp /ZI
; File d:\!diffusion 2020\source code 2022\client-server\server\game\saverestore.cpp
;	COMDAT ?ReadNamedInt@CRestore@@QAEHPBD@Z
_TEXT	SEGMENT
_header$ = -12						; size = 8
_this$ = -4						; size = 4
_pName$ = 8						; size = 4
?ReadNamedInt@CRestore@@QAEHPBD@Z PROC			; CRestore::ReadNamedInt, COMDAT
; _this$ = ecx

; 1080 : {

	push	ebp
	mov	ebp, esp
	sub	esp, 76					; 0000004cH
	push	ebx
	push	esi
	push	edi
	mov	DWORD PTR _this$[ebp], ecx

; 1081 : 	HEADER header;
; 1082 : 
; 1083 : 	BufferReadHeader( &header );

	lea	eax, DWORD PTR _header$[ebp]
	push	eax
	mov	ecx, DWORD PTR _this$[ebp]
	call	?BufferReadHeader@CRestore@@AAEXPAUHEADER@@@Z ; CRestore::BufferReadHeader

; 1084 : 	return ((int *)header.pData)[0];

	mov	eax, 4
	imul	ecx, eax, 0
	mov	edx, DWORD PTR _header$[ebp+4]
	mov	eax, DWORD PTR [edx+ecx]

; 1085 : }

	pop	edi
	pop	esi
	pop	ebx
	mov	esp, ebp
	pop	ebp
	ret	4
?ReadNamedInt@CRestore@@QAEHPBD@Z ENDP			; CRestore::ReadNamedInt
_TEXT	ENDS
; Function compile flags: /Odtp /ZI
; File d:\!diffusion 2020\source code 2022\client-server\server\game\saverestore.cpp
;	COMDAT ?ReadShort@CRestore@@QAEFXZ
_TEXT	SEGMENT
_tmp$ = -8						; size = 2
_this$ = -4						; size = 4
?ReadShort@CRestore@@QAEFXZ PROC			; CRestore::ReadShort, COMDAT
; _this$ = ecx

; 1062 : {

	push	ebp
	mov	ebp, esp
	sub	esp, 72					; 00000048H
	push	ebx
	push	esi
	push	edi
	mov	DWORD PTR _this$[ebp], ecx

; 1063 : 	short tmp = 0;

	xor	eax, eax
	mov	WORD PTR _tmp$[ebp], ax

; 1064 : 
; 1065 : 	BufferReadBytes( (char *)&tmp, sizeof(short) );

	push	2
	lea	eax, DWORD PTR _tmp$[ebp]
	push	eax
	mov	ecx, DWORD PTR _this$[ebp]
	call	?BufferReadBytes@CRestore@@AAEXPADH@Z	; CRestore::BufferReadBytes

; 1066 : 
; 1067 : 	return tmp;

	mov	ax, WORD PTR _tmp$[ebp]

; 1068 : }

	pop	edi
	pop	esi
	pop	ebx
	mov	esp, ebp
	pop	ebp
	ret	0
?ReadShort@CRestore@@QAEFXZ ENDP			; CRestore::ReadShort
_TEXT	ENDS
; Function compile flags: /Odtp /ZI
; File d:\!diffusion 2020\source code 2022\client-server\server\game\saverestore.cpp
;	COMDAT ?ReadInt@CRestore@@QAEHXZ
_TEXT	SEGMENT
_tmp$ = -8						; size = 4
_this$ = -4						; size = 4
?ReadInt@CRestore@@QAEHXZ PROC				; CRestore::ReadInt, COMDAT
; _this$ = ecx

; 1071 : {

	push	ebp
	mov	ebp, esp
	sub	esp, 72					; 00000048H
	push	ebx
	push	esi
	push	edi
	mov	DWORD PTR _this$[ebp], ecx

; 1072 : 	int tmp = 0;

	mov	DWORD PTR _tmp$[ebp], 0

; 1073 : 
; 1074 : 	BufferReadBytes( (char *)&tmp, sizeof(int) );

	push	4
	lea	eax, DWORD PTR _tmp$[ebp]
	push	eax
	mov	ecx, DWORD PTR _this$[ebp]
	call	?BufferReadBytes@CRestore@@AAEXPADH@Z	; CRestore::BufferReadBytes

; 1075 : 
; 1076 : 	return tmp;

	mov	eax, DWORD PTR _tmp$[ebp]

; 1077 : }

	pop	edi
	pop	esi
	pop	ebx
	mov	esp, ebp
	pop	ebp
	ret	0
?ReadInt@CRestore@@QAEHXZ ENDP				; CRestore::ReadInt
_TEXT	ENDS
; Function compile flags: /Odtp /ZI
; File d:\!diffusion 2020\source code 2022\client-server\server\game\saverestore.cpp
;	COMDAT ?ReadFunction@CRestore@@QAEHPAUdatamap_s@@PAPAXPBD@Z
_TEXT	SEGMENT
_this$ = -4						; size = 4
_pMap$ = 8						; size = 4
_pValue$ = 12						; size = 4
_pszFunctionName$ = 16					; size = 4
?ReadFunction@CRestore@@QAEHPAUdatamap_s@@PAPAXPBD@Z PROC ; CRestore::ReadFunction, COMDAT
; _this$ = ecx

; 1128 : {

	push	ebp
	mov	ebp, esp
	sub	esp, 68					; 00000044H
	push	ebx
	push	esi
	push	edi
	mov	DWORD PTR _this$[ebp], ecx

; 1129 : 	if ( strlen( (char *)pszFunctionName ) == 0 )

	mov	eax, DWORD PTR _pszFunctionName$[ebp]
	push	eax
	call	_strlen
	add	esp, 4
	test	eax, eax
	jne	SHORT $LN2@ReadFuncti

; 1130 : 		*pValue = NULL;

	mov	eax, DWORD PTR _pValue$[ebp]
	mov	DWORD PTR [eax], 0

; 1131 : 	else

	jmp	SHORT $LN3@ReadFuncti
$LN2@ReadFuncti:

; 1132 : 		*pValue = UTIL_FunctionFromName( pMap, pszFunctionName );

	mov	eax, DWORD PTR _pszFunctionName$[ebp]
	push	eax
	mov	ecx, DWORD PTR _pMap$[ebp]
	push	ecx
	call	?UTIL_FunctionFromName@@YAPAXPAUdatamap_s@@PBD@Z ; UTIL_FunctionFromName
	add	esp, 8
	mov	edx, DWORD PTR _pValue$[ebp]
	mov	DWORD PTR [edx], eax
$LN3@ReadFuncti:

; 1133 : 
; 1134 : 	return 0;

	xor	eax, eax

; 1135 : }

	pop	edi
	pop	esi
	pop	ebx
	mov	esp, ebp
	pop	ebp
	ret	12					; 0000000cH
?ReadFunction@CRestore@@QAEHPAUdatamap_s@@PAPAXPBD@Z ENDP ; CRestore::ReadFunction
_TEXT	ENDS
; Function compile flags: /Odtp /ZI
; File d:\!diffusion 2020\source code 2022\client-server\server\game\saverestore.cpp
;	COMDAT ?ReadField@CRestore@@QAEHPBXPAUdatamap_s@@PAUtypedescription_s@@HHHPADPAX@Z
_TEXT	SEGMENT
tv163 = -148						; size = 4
$T1 = -144						; size = 12
_string$2 = -68						; size = 4
_pInputData$3 = -64					; size = 4
_pOutputData$4 = -60					; size = 4
_pString$ = -56						; size = 4
_pent$ = -52						; size = 4
_position$ = -48					; size = 12
_timeData$ = -36					; size = 4
_time$ = -32						; size = 4
_pTest$ = -28						; size = 4
_entityIndex$ = -24					; size = 4
_fieldNumber$ = -20					; size = 4
_stringCount$ = -16					; size = 4
_j$ = -12						; size = 4
_i$ = -8						; size = 4
_this$ = -4						; size = 4
_pBaseData$ = 8						; size = 4
_pMap$ = 12						; size = 4
_pFields$ = 16						; size = 4
_fieldCount$ = 20					; size = 4
_startField$ = 24					; size = 4
_size$ = 28						; size = 4
_pName$ = 32						; size = 4
_pData$ = 36						; size = 4
?ReadField@CRestore@@QAEHPBXPAUdatamap_s@@PAUtypedescription_s@@HHHPADPAX@Z PROC ; CRestore::ReadField, COMDAT
; _this$ = ecx

; 835  : {

	push	ebp
	mov	ebp, esp
	sub	esp, 148				; 00000094H
	push	ebx
	push	esi
	push	edi
	mov	DWORD PTR _this$[ebp], ecx

; 836  : 	int i, j, stringCount, fieldNumber, entityIndex;
; 837  : 	TYPEDESCRIPTION *pTest;
; 838  : 	float	time, timeData;
; 839  : 	Vector	position;

	lea	ecx, DWORD PTR _position$[ebp]
	call	??0Vector@@QAE@XZ			; Vector::Vector

; 840  : 	edict_t	*pent;
; 841  : 	char	*pString;
; 842  : 
; 843  : 	time = 0;

	xorps	xmm0, xmm0
	movss	DWORD PTR _time$[ebp], xmm0

; 844  : 	position = Vector(0,0,0);

	push	ecx
	xorps	xmm0, xmm0
	movss	DWORD PTR [esp], xmm0
	push	ecx
	xorps	xmm0, xmm0
	movss	DWORD PTR [esp], xmm0
	push	ecx
	xorps	xmm0, xmm0
	movss	DWORD PTR [esp], xmm0
	lea	ecx, DWORD PTR $T1[ebp]
	call	??0Vector@@QAE@MMM@Z			; Vector::Vector
	mov	ecx, DWORD PTR [eax]
	mov	DWORD PTR _position$[ebp], ecx
	mov	edx, DWORD PTR [eax+4]
	mov	DWORD PTR _position$[ebp+4], edx
	mov	eax, DWORD PTR [eax+8]
	mov	DWORD PTR _position$[ebp+8], eax

; 845  : 
; 846  : 	if ( m_pdata )

	mov	eax, DWORD PTR _this$[ebp]
	cmp	DWORD PTR [eax+24], 0
	je	SHORT $LN16@ReadField

; 847  : 	{
; 848  : 		time = m_pdata->time;

	mov	eax, DWORD PTR _this$[ebp]
	mov	ecx, DWORD PTR [eax+24]
	movss	xmm0, DWORD PTR [ecx+1360]
	movss	DWORD PTR _time$[ebp], xmm0

; 849  : 		if ( m_pdata->fUseLandmark )

	mov	eax, DWORD PTR _this$[ebp]
	mov	ecx, DWORD PTR [eax+24]
	cmp	DWORD PTR [ecx+1324], 0
	je	SHORT $LN16@ReadField

; 850  : 			position = m_pdata->vecLandmarkOffset;

	mov	eax, DWORD PTR _this$[ebp]
	mov	ecx, DWORD PTR [eax+24]
	add	ecx, 1348				; 00000544H
	mov	edx, DWORD PTR [ecx]
	mov	DWORD PTR _position$[ebp], edx
	mov	eax, DWORD PTR [ecx+4]
	mov	DWORD PTR _position$[ebp+4], eax
	mov	ecx, DWORD PTR [ecx+8]
	mov	DWORD PTR _position$[ebp+8], ecx
$LN16@ReadField:

; 851  : 	}
; 852  : 
; 853  : 	for ( i = 0; i < fieldCount; i++ )

	mov	DWORD PTR _i$[ebp], 0
	jmp	SHORT $LN4@ReadField
$LN2@ReadField:
	mov	eax, DWORD PTR _i$[ebp]
	add	eax, 1
	mov	DWORD PTR _i$[ebp], eax
$LN4@ReadField:
	mov	eax, DWORD PTR _i$[ebp]
	cmp	eax, DWORD PTR _fieldCount$[ebp]
	jge	$LN3@ReadField

; 854  : 	{
; 855  : 		fieldNumber = (i+startField)%fieldCount;

	mov	eax, DWORD PTR _i$[ebp]
	add	eax, DWORD PTR _startField$[ebp]
	cdq
	idiv	DWORD PTR _fieldCount$[ebp]
	mov	DWORD PTR _fieldNumber$[ebp], edx

; 856  : 		pTest = &pFields[ fieldNumber ];

	imul	eax, DWORD PTR _fieldNumber$[ebp], 24
	add	eax, DWORD PTR _pFields$[ebp]
	mov	DWORD PTR _pTest$[ebp], eax

; 857  : 		if ( !stricmp( pTest->fieldName, pName ) )

	mov	eax, DWORD PTR _pName$[ebp]
	push	eax
	mov	ecx, DWORD PTR _pTest$[ebp]
	mov	edx, DWORD PTR [ecx+4]
	push	edx
	call	_stricmp
	add	esp, 8
	test	eax, eax
	jne	$LN17@ReadField

; 858  : 		{
; 859  : 			if ( !m_global || !(pTest->flags & FTYPEDESC_GLOBAL) )

	mov	eax, DWORD PTR _this$[ebp]
	cmp	DWORD PTR [eax+28], 0
	je	SHORT $LN19@ReadField
	mov	eax, DWORD PTR _pTest$[ebp]
	movsx	ecx, WORD PTR [eax+14]
	and	ecx, 1
	jne	$LN6@ReadField
$LN19@ReadField:

; 860  : 			{
; 861  : 				for ( j = 0; j < pTest->fieldSize; j++ )

	mov	DWORD PTR _j$[ebp], 0
	jmp	SHORT $LN7@ReadField
$LN5@ReadField:
	mov	eax, DWORD PTR _j$[ebp]
	add	eax, 1
	mov	DWORD PTR _j$[ebp], eax
$LN7@ReadField:
	mov	eax, DWORD PTR _pTest$[ebp]
	movzx	ecx, WORD PTR [eax+12]
	cmp	DWORD PTR _j$[ebp], ecx
	jge	$LN6@ReadField

; 862  : 				{
; 863  : 					void *pOutputData = ((char *)pBaseData + pTest->fieldOffset + (j*gSizes[pTest->fieldType]) );

	mov	eax, DWORD PTR _pTest$[ebp]
	mov	ecx, DWORD PTR _pBaseData$[ebp]
	add	ecx, DWORD PTR [eax+8]
	mov	edx, DWORD PTR _pTest$[ebp]
	mov	eax, DWORD PTR [edx]
	mov	edx, DWORD PTR _j$[ebp]
	imul	edx, DWORD PTR ?gSizes@@3PAHA[eax*4]
	add	ecx, edx
	mov	DWORD PTR _pOutputData$4[ebp], ecx

; 864  : 					void *pInputData = (char *)pData + j * gSizes[pTest->fieldType];

	mov	eax, DWORD PTR _pTest$[ebp]
	mov	ecx, DWORD PTR [eax]
	mov	edx, DWORD PTR _j$[ebp]
	imul	edx, DWORD PTR ?gSizes@@3PAHA[ecx*4]
	add	edx, DWORD PTR _pData$[ebp]
	mov	DWORD PTR _pInputData$3[ebp], edx

; 865  : 
; 866  : 					switch( pTest->fieldType )

	mov	eax, DWORD PTR _pTest$[ebp]
	mov	ecx, DWORD PTR [eax]
	mov	DWORD PTR tv163[ebp], ecx
	cmp	DWORD PTR tv163[ebp], 19		; 00000013H
	ja	$LN50@ReadField
	mov	edx, DWORD PTR tv163[ebp]
	jmp	DWORD PTR $LN52@ReadField[edx*4]
$LN20@ReadField:

; 867  : 					{
; 868  : 					case FIELD_TIME:
; 869  : 						timeData = *(float *)pInputData;

	mov	eax, DWORD PTR _pInputData$3[ebp]
	movss	xmm0, DWORD PTR [eax]
	movss	DWORD PTR _timeData$[ebp], xmm0

; 870  : 						// Re-base time variables
; 871  : 						timeData += time;

	movss	xmm0, DWORD PTR _timeData$[ebp]
	addss	xmm0, DWORD PTR _time$[ebp]
	movss	DWORD PTR _timeData$[ebp], xmm0

; 872  : 						*((float *)pOutputData) = timeData;

	mov	eax, DWORD PTR _pOutputData$4[ebp]
	movss	xmm0, DWORD PTR _timeData$[ebp]
	movss	DWORD PTR [eax], xmm0

; 873  : 						break;

	jmp	$LN8@ReadField
$LN21@ReadField:

; 874  : 					case FIELD_FLOAT:
; 875  : 						*((float *)pOutputData) = *(float *)pInputData;

	mov	eax, DWORD PTR _pOutputData$4[ebp]
	mov	ecx, DWORD PTR _pInputData$3[ebp]
	mov	edx, DWORD PTR [ecx]
	mov	DWORD PTR [eax], edx

; 876  : 						break;

	jmp	$LN8@ReadField
$LN22@ReadField:

; 877  : 					case FIELD_MODELNAME:
; 878  : 					case FIELD_SOUNDNAME:
; 879  : 					case FIELD_STRING:
; 880  : 						// Skip over j strings
; 881  : 						pString = (char *)pData;

	mov	eax, DWORD PTR _pData$[ebp]
	mov	DWORD PTR _pString$[ebp], eax

; 882  : 						for ( stringCount = 0; stringCount < j; stringCount++ )

	mov	DWORD PTR _stringCount$[ebp], 0
	jmp	SHORT $LN12@ReadField
$LN10@ReadField:
	mov	eax, DWORD PTR _stringCount$[ebp]
	add	eax, 1
	mov	DWORD PTR _stringCount$[ebp], eax
$LN12@ReadField:
	mov	eax, DWORD PTR _stringCount$[ebp]
	cmp	eax, DWORD PTR _j$[ebp]
	jge	SHORT $LN11@ReadField
$LN13@ReadField:

; 883  : 						{
; 884  : 							while (*pString)

	mov	eax, DWORD PTR _pString$[ebp]
	movsx	ecx, BYTE PTR [eax]
	test	ecx, ecx
	je	SHORT $LN14@ReadField

; 885  : 								pString++;

	mov	eax, DWORD PTR _pString$[ebp]
	add	eax, 1
	mov	DWORD PTR _pString$[ebp], eax
	jmp	SHORT $LN13@ReadField
$LN14@ReadField:

; 886  : 							pString++;

	mov	eax, DWORD PTR _pString$[ebp]
	add	eax, 1
	mov	DWORD PTR _pString$[ebp], eax

; 887  : 						}

	jmp	SHORT $LN10@ReadField
$LN11@ReadField:

; 888  : 						pInputData = pString;

	mov	eax, DWORD PTR _pString$[ebp]
	mov	DWORD PTR _pInputData$3[ebp], eax

; 889  : 						if ( strlen( (char *)pInputData ) == 0 )

	mov	eax, DWORD PTR _pInputData$3[ebp]
	push	eax
	call	_strlen
	add	esp, 4
	test	eax, eax
	jne	SHORT $LN23@ReadField

; 890  : 							*((int *)pOutputData) = 0;

	mov	eax, DWORD PTR _pOutputData$4[ebp]
	mov	DWORD PTR [eax], 0

; 891  : 						else

	jmp	SHORT $LN28@ReadField
$LN23@ReadField:

; 892  : 						{
; 893  : 							int string;
; 894  : 
; 895  : 							string = ALLOC_STRING( (char *)pInputData );

	mov	eax, DWORD PTR _pInputData$3[ebp]
	push	eax
	call	DWORD PTR ?g_engfuncs@@3Uenginefuncs_s@@A+268
	add	esp, 4
	mov	DWORD PTR _string$2[ebp], eax

; 896  : 							
; 897  : 							*((int *)pOutputData) = string;

	mov	eax, DWORD PTR _pOutputData$4[ebp]
	mov	ecx, DWORD PTR _string$2[ebp]
	mov	DWORD PTR [eax], ecx

; 898  : 
; 899  : 							if ( !FStringNull( string ) && m_precache )

	mov	eax, DWORD PTR _string$2[ebp]
	push	eax
	call	?FStringNull@@YAHH@Z			; FStringNull
	add	esp, 4
	test	eax, eax
	jne	SHORT $LN28@ReadField
	mov	eax, DWORD PTR _this$[ebp]
	cmp	DWORD PTR [eax+32], 0
	je	SHORT $LN28@ReadField

; 900  : 							{
; 901  : 								if ( pTest->fieldType == FIELD_MODELNAME )

	mov	eax, DWORD PTR _pTest$[ebp]
	cmp	DWORD PTR [eax], 16			; 00000010H
	jne	SHORT $LN26@ReadField

; 902  : 									PRECACHE_MODEL( (char *)STRING( string ) );

	mov	eax, DWORD PTR _string$2[ebp]
	push	eax
	call	DWORD PTR ?g_engfuncs@@3Uenginefuncs_s@@A+264
	add	esp, 4
	push	eax
	call	DWORD PTR ?g_engfuncs@@3Uenginefuncs_s@@A
	add	esp, 4
	jmp	SHORT $LN28@ReadField
$LN26@ReadField:

; 903  : 								else if ( pTest->fieldType == FIELD_SOUNDNAME )

	mov	eax, DWORD PTR _pTest$[ebp]
	cmp	DWORD PTR [eax], 17			; 00000011H
	jne	SHORT $LN28@ReadField

; 904  : 									PRECACHE_SOUND( (char *)STRING( string ) );

	mov	eax, DWORD PTR _string$2[ebp]
	push	eax
	call	DWORD PTR ?g_engfuncs@@3Uenginefuncs_s@@A+264
	add	esp, 4
	push	eax
	call	DWORD PTR ?g_engfuncs@@3Uenginefuncs_s@@A+4
	add	esp, 4
$LN28@ReadField:

; 905  : 							}
; 906  : 						}
; 907  : 						break;

	jmp	$LN8@ReadField
$LN29@ReadField:

; 908  : 					case FIELD_EVARS:
; 909  : 						entityIndex = *( int *)pInputData;

	mov	eax, DWORD PTR _pInputData$3[ebp]
	mov	ecx, DWORD PTR [eax]
	mov	DWORD PTR _entityIndex$[ebp], ecx

; 910  : 						pent = EntityFromIndex( entityIndex );

	mov	eax, DWORD PTR _entityIndex$[ebp]
	push	eax
	mov	ecx, DWORD PTR _this$[ebp]
	call	?EntityFromIndex@CSaveRestoreBuffer@@QAEPAUedict_s@@H@Z ; CSaveRestoreBuffer::EntityFromIndex
	mov	DWORD PTR _pent$[ebp], eax

; 911  : 						if ( pent )

	cmp	DWORD PTR _pent$[ebp], 0
	je	SHORT $LN30@ReadField

; 912  : 							*((entvars_t **)pOutputData) = VARS(pent);

	mov	eax, DWORD PTR _pent$[ebp]
	push	eax
	call	?VARS@@YAPAUentvars_s@@PAUedict_s@@@Z	; VARS
	add	esp, 4
	mov	ecx, DWORD PTR _pOutputData$4[ebp]
	mov	DWORD PTR [ecx], eax

; 913  : 						else

	jmp	SHORT $LN31@ReadField
$LN30@ReadField:

; 914  : 							*((entvars_t **)pOutputData) = NULL;

	mov	eax, DWORD PTR _pOutputData$4[ebp]
	mov	DWORD PTR [eax], 0
$LN31@ReadField:

; 915  : 						break;

	jmp	$LN8@ReadField
$LN32@ReadField:

; 916  : 					case FIELD_CLASSPTR:
; 917  : 						entityIndex = *( int *)pInputData;

	mov	eax, DWORD PTR _pInputData$3[ebp]
	mov	ecx, DWORD PTR [eax]
	mov	DWORD PTR _entityIndex$[ebp], ecx

; 918  : 						pent = EntityFromIndex( entityIndex );

	mov	eax, DWORD PTR _entityIndex$[ebp]
	push	eax
	mov	ecx, DWORD PTR _this$[ebp]
	call	?EntityFromIndex@CSaveRestoreBuffer@@QAEPAUedict_s@@H@Z ; CSaveRestoreBuffer::EntityFromIndex
	mov	DWORD PTR _pent$[ebp], eax

; 919  : 						if ( pent )

	cmp	DWORD PTR _pent$[ebp], 0
	je	SHORT $LN33@ReadField

; 920  : 							*((CBaseEntity **)pOutputData) = CBaseEntity::Instance(pent);

	mov	eax, DWORD PTR _pent$[ebp]
	push	eax
	call	?Instance@CBaseEntity@@SAPAV1@PAUedict_s@@@Z ; CBaseEntity::Instance
	add	esp, 4
	mov	ecx, DWORD PTR _pOutputData$4[ebp]
	mov	DWORD PTR [ecx], eax

; 921  : 						else

	jmp	SHORT $LN34@ReadField
$LN33@ReadField:

; 922  : 							*((CBaseEntity **)pOutputData) = NULL;

	mov	eax, DWORD PTR _pOutputData$4[ebp]
	mov	DWORD PTR [eax], 0
$LN34@ReadField:

; 923  : 						break;

	jmp	$LN8@ReadField
$LN35@ReadField:

; 924  : 					case FIELD_EDICT:
; 925  : 						entityIndex = *( int *)pInputData;

	mov	eax, DWORD PTR _pInputData$3[ebp]
	mov	ecx, DWORD PTR [eax]
	mov	DWORD PTR _entityIndex$[ebp], ecx

; 926  : 						pent = EntityFromIndex( entityIndex );

	mov	eax, DWORD PTR _entityIndex$[ebp]
	push	eax
	mov	ecx, DWORD PTR _this$[ebp]
	call	?EntityFromIndex@CSaveRestoreBuffer@@QAEPAUedict_s@@H@Z ; CSaveRestoreBuffer::EntityFromIndex
	mov	DWORD PTR _pent$[ebp], eax

; 927  : 						*((edict_t **)pOutputData) = pent;

	mov	eax, DWORD PTR _pOutputData$4[ebp]
	mov	ecx, DWORD PTR _pent$[ebp]
	mov	DWORD PTR [eax], ecx

; 928  : 						break;

	jmp	$LN8@ReadField
$LN36@ReadField:

; 929  : 					case FIELD_EHANDLE:
; 930  : 						// Input and Output sizes are different!
; 931  : 						pOutputData = (char *)pOutputData + j*(sizeof(EHANDLE) - gSizes[pTest->fieldType]);

	mov	eax, DWORD PTR _pTest$[ebp]
	mov	ecx, DWORD PTR [eax]
	mov	edx, 8
	sub	edx, DWORD PTR ?gSizes@@3PAHA[ecx*4]
	imul	edx, DWORD PTR _j$[ebp]
	add	edx, DWORD PTR _pOutputData$4[ebp]
	mov	DWORD PTR _pOutputData$4[ebp], edx

; 932  : 						entityIndex = *( int *)pInputData;

	mov	eax, DWORD PTR _pInputData$3[ebp]
	mov	ecx, DWORD PTR [eax]
	mov	DWORD PTR _entityIndex$[ebp], ecx

; 933  : 						pent = EntityFromIndex( entityIndex );

	mov	eax, DWORD PTR _entityIndex$[ebp]
	push	eax
	mov	ecx, DWORD PTR _this$[ebp]
	call	?EntityFromIndex@CSaveRestoreBuffer@@QAEPAUedict_s@@H@Z ; CSaveRestoreBuffer::EntityFromIndex
	mov	DWORD PTR _pent$[ebp], eax

; 934  : 						if ( pent )

	cmp	DWORD PTR _pent$[ebp], 0
	je	SHORT $LN37@ReadField

; 935  : 							*((EHANDLE *)pOutputData) = CBaseEntity::Instance(pent);

	mov	eax, DWORD PTR _pent$[ebp]
	push	eax
	call	?Instance@CBaseEntity@@SAPAV1@PAUedict_s@@@Z ; CBaseEntity::Instance
	add	esp, 4
	push	eax
	mov	ecx, DWORD PTR _pOutputData$4[ebp]
	call	??4EHANDLE@@QAEPAVCBaseEntity@@PAV1@@Z	; EHANDLE::operator=

; 936  : 						else

	jmp	SHORT $LN38@ReadField
$LN37@ReadField:

; 937  : 							*((EHANDLE *)pOutputData) = NULL;

	push	0
	mov	ecx, DWORD PTR _pOutputData$4[ebp]
	call	??4EHANDLE@@QAEPAVCBaseEntity@@PAV1@@Z	; EHANDLE::operator=
$LN38@ReadField:

; 938  : 						break;

	jmp	$LN8@ReadField
$LN39@ReadField:

; 939  : 					case FIELD_ENTITY:
; 940  : 						entityIndex = *( int *)pInputData;

	mov	eax, DWORD PTR _pInputData$3[ebp]
	mov	ecx, DWORD PTR [eax]
	mov	DWORD PTR _entityIndex$[ebp], ecx

; 941  : 						pent = EntityFromIndex( entityIndex );

	mov	eax, DWORD PTR _entityIndex$[ebp]
	push	eax
	mov	ecx, DWORD PTR _this$[ebp]
	call	?EntityFromIndex@CSaveRestoreBuffer@@QAEPAUedict_s@@H@Z ; CSaveRestoreBuffer::EntityFromIndex
	mov	DWORD PTR _pent$[ebp], eax

; 942  : 						if ( pent )

	cmp	DWORD PTR _pent$[ebp], 0
	je	SHORT $LN40@ReadField

; 943  : 							*((EOFFSET *)pOutputData) = OFFSET(pent);

	mov	eax, DWORD PTR _pent$[ebp]
	push	eax
	call	?OFFSET@@YAHPBUedict_s@@@Z		; OFFSET
	add	esp, 4
	mov	ecx, DWORD PTR _pOutputData$4[ebp]
	mov	DWORD PTR [ecx], eax

; 944  : 						else

	jmp	SHORT $LN41@ReadField
$LN40@ReadField:

; 945  : 							*((EOFFSET *)pOutputData) = 0;

	mov	eax, DWORD PTR _pOutputData$4[ebp]
	mov	DWORD PTR [eax], 0
$LN41@ReadField:

; 946  : 						break;

	jmp	$LN8@ReadField
$LN42@ReadField:

; 947  : 					case FIELD_VECTOR:
; 948  : 						((float *)pOutputData)[0] = ((float *)pInputData)[0];

	mov	eax, 4
	imul	ecx, eax, 0
	mov	edx, 4
	imul	eax, edx, 0
	mov	edx, DWORD PTR _pOutputData$4[ebp]
	mov	esi, DWORD PTR _pInputData$3[ebp]
	mov	ecx, DWORD PTR [esi+ecx]
	mov	DWORD PTR [edx+eax], ecx

; 949  : 						((float *)pOutputData)[1] = ((float *)pInputData)[1];

	mov	eax, 4
	shl	eax, 0
	mov	ecx, 4
	shl	ecx, 0
	mov	edx, DWORD PTR _pOutputData$4[ebp]
	mov	esi, DWORD PTR _pInputData$3[ebp]
	mov	eax, DWORD PTR [esi+eax]
	mov	DWORD PTR [edx+ecx], eax

; 950  : 						((float *)pOutputData)[2] = ((float *)pInputData)[2];

	mov	eax, 4
	shl	eax, 1
	mov	ecx, 4
	shl	ecx, 1
	mov	edx, DWORD PTR _pOutputData$4[ebp]
	mov	esi, DWORD PTR _pInputData$3[ebp]
	mov	eax, DWORD PTR [esi+eax]
	mov	DWORD PTR [edx+ecx], eax

; 951  : 						break;

	jmp	$LN8@ReadField
$LN43@ReadField:

; 952  : 					case FIELD_POSITION_VECTOR:
; 953  : 						((float *)pOutputData)[0] = ((float *)pInputData)[0] + position.x;

	mov	eax, 4
	imul	ecx, eax, 0
	mov	edx, DWORD PTR _pInputData$3[ebp]
	movss	xmm0, DWORD PTR [edx+ecx]
	addss	xmm0, DWORD PTR _position$[ebp]
	mov	eax, 4
	imul	ecx, eax, 0
	mov	edx, DWORD PTR _pOutputData$4[ebp]
	movss	DWORD PTR [edx+ecx], xmm0

; 954  : 						((float *)pOutputData)[1] = ((float *)pInputData)[1] + position.y;

	mov	eax, 4
	shl	eax, 0
	mov	ecx, DWORD PTR _pInputData$3[ebp]
	movss	xmm0, DWORD PTR [ecx+eax]
	addss	xmm0, DWORD PTR _position$[ebp+4]
	mov	edx, 4
	shl	edx, 0
	mov	eax, DWORD PTR _pOutputData$4[ebp]
	movss	DWORD PTR [eax+edx], xmm0

; 955  : 						((float *)pOutputData)[2] = ((float *)pInputData)[2] + position.z;

	mov	eax, 4
	shl	eax, 1
	mov	ecx, DWORD PTR _pInputData$3[ebp]
	movss	xmm0, DWORD PTR [ecx+eax]
	addss	xmm0, DWORD PTR _position$[ebp+8]
	mov	edx, 4
	shl	edx, 1
	mov	eax, DWORD PTR _pOutputData$4[ebp]
	movss	DWORD PTR [eax+edx], xmm0

; 956  : 						break;

	jmp	SHORT $LN8@ReadField
$LN44@ReadField:

; 957  : 					case FIELD_BOOLEAN:
; 958  : 					case FIELD_INTEGER:
; 959  : 						*((int *)pOutputData) = *( int *)pInputData;

	mov	eax, DWORD PTR _pOutputData$4[ebp]
	mov	ecx, DWORD PTR _pInputData$3[ebp]
	mov	edx, DWORD PTR [ecx]
	mov	DWORD PTR [eax], edx

; 960  : 						break;

	jmp	SHORT $LN8@ReadField
$LN45@ReadField:

; 961  : 					case FIELD_SHORT:
; 962  : 						*((short *)pOutputData) = *( short *)pInputData;

	mov	eax, DWORD PTR _pOutputData$4[ebp]
	mov	ecx, DWORD PTR _pInputData$3[ebp]
	mov	dx, WORD PTR [ecx]
	mov	WORD PTR [eax], dx

; 963  : 						break;

	jmp	SHORT $LN8@ReadField
$LN46@ReadField:

; 964  : 					case FIELD_CHARACTER:
; 965  : 						*((char *)pOutputData) = *( char *)pInputData;

	mov	eax, DWORD PTR _pOutputData$4[ebp]
	mov	ecx, DWORD PTR _pInputData$3[ebp]
	mov	dl, BYTE PTR [ecx]
	mov	BYTE PTR [eax], dl

; 966  : 						break;

	jmp	SHORT $LN8@ReadField
$LN47@ReadField:

; 967  : 					case FIELD_POINTER:
; 968  : 						*((int *)pOutputData) = *( int *)pInputData;

	mov	eax, DWORD PTR _pOutputData$4[ebp]
	mov	ecx, DWORD PTR _pInputData$3[ebp]
	mov	edx, DWORD PTR [ecx]
	mov	DWORD PTR [eax], edx

; 969  : 						break;

	jmp	SHORT $LN8@ReadField
$LN48@ReadField:

; 970  : 					case FIELD_FUNCTION:
; 971  : 						ReadFunction( pMap, (void **)pOutputData, (const char *)pInputData );

	mov	eax, DWORD PTR _pInputData$3[ebp]
	push	eax
	mov	ecx, DWORD PTR _pOutputData$4[ebp]
	push	ecx
	mov	edx, DWORD PTR _pMap$[ebp]
	push	edx
	mov	ecx, DWORD PTR _this$[ebp]
	call	?ReadFunction@CRestore@@QAEHPAUdatamap_s@@PAPAXPBD@Z ; CRestore::ReadFunction

; 972  : 						break;

	jmp	SHORT $LN8@ReadField
$LN49@ReadField:

; 973  : 					case FIELD_INT64:
; 974  : 						*((std::uint64_t *)pOutputData) = *(std::uint64_t *)pInputData;

	mov	eax, DWORD PTR _pOutputData$4[ebp]
	mov	ecx, DWORD PTR _pInputData$3[ebp]
	mov	edx, DWORD PTR [ecx]
	mov	DWORD PTR [eax], edx
	mov	ecx, DWORD PTR [ecx+4]
	mov	DWORD PTR [eax+4], ecx

; 975  : 						break;

	jmp	SHORT $LN8@ReadField
$LN50@ReadField:

; 976  : 					default:
; 977  : 						ALERT( at_error, "Bad field type\n" );

	push	OFFSET ??_C@_0BA@CGJOHFEH@Bad?5field?5type?6?$AA@
	push	4
	call	DWORD PTR ?g_engfuncs@@3Uenginefuncs_s@@A+244
	add	esp, 8
$LN8@ReadField:

; 978  : 					}
; 979  : 				}

	jmp	$LN5@ReadField
$LN6@ReadField:

; 980  : 			}
; 981  : 			return fieldNumber;

	mov	eax, DWORD PTR _fieldNumber$[ebp]
	jmp	SHORT $LN1@ReadField
$LN17@ReadField:

; 982  : 		}
; 983  : 	}

	jmp	$LN2@ReadField
$LN3@ReadField:

; 984  : 
; 985  : 	return -1;

	or	eax, -1
$LN1@ReadField:

; 986  : }

	pop	edi
	pop	esi
	pop	ebx
	mov	esp, ebp
	pop	ebp
	ret	32					; 00000020H
	npad	1
$LN52@ReadField:
	DD	$LN21@ReadField
	DD	$LN22@ReadField
	DD	$LN39@ReadField
	DD	$LN32@ReadField
	DD	$LN36@ReadField
	DD	$LN29@ReadField
	DD	$LN35@ReadField
	DD	$LN42@ReadField
	DD	$LN43@ReadField
	DD	$LN47@ReadField
	DD	$LN44@ReadField
	DD	$LN48@ReadField
	DD	$LN44@ReadField
	DD	$LN45@ReadField
	DD	$LN46@ReadField
	DD	$LN20@ReadField
	DD	$LN22@ReadField
	DD	$LN22@ReadField
	DD	$LN50@ReadField
	DD	$LN49@ReadField
?ReadField@CRestore@@QAEHPBXPAUdatamap_s@@PAUtypedescription_s@@HHHPADPAX@Z ENDP ; CRestore::ReadField
_TEXT	ENDS
; Function compile flags: /Odtp /ZI
; File d:\!diffusion 2020\source code 2022\client-server\server\game\saverestore.cpp
;	COMDAT ?ReadFields@CRestore@@QAEHPBDPBXPAUdatamap_s@@PAUtypedescription_s@@H@Z
_TEXT	SEGMENT
tv73 = -96						; size = 4
_header$ = -28						; size = 8
_fileCount$ = -20					; size = 4
_lastField$ = -16					; size = 4
_token$ = -12						; size = 2
_i$ = -8						; size = 2
_this$ = -4						; size = 4
_pname$ = 8						; size = 4
_pBaseData$ = 12					; size = 4
_pMap$ = 16						; size = 4
_pFields$ = 20						; size = 4
_fieldCount$ = 24					; size = 4
?ReadFields@CRestore@@QAEHPBDPBXPAUdatamap_s@@PAUtypedescription_s@@H@Z PROC ; CRestore::ReadFields, COMDAT
; _this$ = ecx

; 994  : {

	push	ebp
	mov	ebp, esp
	sub	esp, 96					; 00000060H
	push	ebx
	push	esi
	push	edi
	mov	DWORD PTR _this$[ebp], ecx

; 995  : 	unsigned short	i, token;
; 996  : 	int		lastField, fileCount;
; 997  : 	HEADER	header;
; 998  : 
; 999  : 	i = ReadShort();

	mov	ecx, DWORD PTR _this$[ebp]
	call	?ReadShort@CRestore@@QAEFXZ		; CRestore::ReadShort
	mov	WORD PTR _i$[ebp], ax

; 1000 : 	ASSERT( i == sizeof(int) );			// First entry should be an int

	movzx	eax, WORD PTR _i$[ebp]
	cmp	eax, 4
	jne	SHORT $LN12@ReadFields
	mov	DWORD PTR tv73[ebp], 1
	jmp	SHORT $LN13@ReadFields
$LN12@ReadFields:
	mov	DWORD PTR tv73[ebp], 0
$LN13@ReadFields:
	push	0
	mov	ecx, DWORD PTR ?__LINE__Var@?0??ReadFields@CRestore@@QAEHPBDPBXPAUdatamap_s@@PAUtypedescription_s@@H@Z@4JA
	add	ecx, 6
	push	ecx
	push	OFFSET ??_C@_0EO@PKCAKHFH@d?3?2?$CBdiffusion?52020?2source?5code?52@
	push	OFFSET ??_C@_0BB@HBGCKGNA@i?5?$DN?$DN?5sizeof?$CIint?$CJ?$AA@
	mov	edx, DWORD PTR tv73[ebp]
	push	edx
	call	?DBG_AssertFunction@@YAXHPBD0H0@Z	; DBG_AssertFunction
	add	esp, 20					; 00000014H

; 1001 : 
; 1002 : 	token = ReadShort();

	mov	ecx, DWORD PTR _this$[ebp]
	call	?ReadShort@CRestore@@QAEFXZ		; CRestore::ReadShort
	mov	WORD PTR _token$[ebp], ax

; 1003 : 
; 1004 : 	// Check the struct name
; 1005 : 	if ( token != TokenHash(pname) )			// Field Set marker

	movzx	esi, WORD PTR _token$[ebp]
	mov	eax, DWORD PTR _pname$[ebp]
	push	eax
	mov	ecx, DWORD PTR _this$[ebp]
	call	?TokenHash@CSaveRestoreBuffer@@QAEGPBD@Z ; CSaveRestoreBuffer::TokenHash
	movzx	ecx, ax
	cmp	esi, ecx
	je	SHORT $LN8@ReadFields

; 1006 : 	{
; 1007 : //		ALERT( at_error, "Expected %s found %s!\n", pname, BufferPointer() );
; 1008 : 		BufferRewind( 2*sizeof(short) );

	push	4
	mov	ecx, DWORD PTR _this$[ebp]
	call	?BufferRewind@CSaveRestoreBuffer@@IAEXH@Z ; CSaveRestoreBuffer::BufferRewind

; 1009 : 		return 0;

	xor	eax, eax
	jmp	$LN1@ReadFields
$LN8@ReadFields:

; 1010 : 	}
; 1011 : 
; 1012 : 	// Skip over the struct name
; 1013 : 	fileCount = ReadInt();						// Read field count

	mov	ecx, DWORD PTR _this$[ebp]
	call	?ReadInt@CRestore@@QAEHXZ		; CRestore::ReadInt
	mov	DWORD PTR _fileCount$[ebp], eax

; 1014 : 
; 1015 : 	lastField = 0;								// Make searches faster, most data is read/written in the same order

	mov	DWORD PTR _lastField$[ebp], 0

; 1016 : 
; 1017 : 	// Clear out base data
; 1018 : 	for ( i = 0; i < fieldCount; i++ )

	xor	eax, eax
	mov	WORD PTR _i$[ebp], ax
	jmp	SHORT $LN4@ReadFields
$LN2@ReadFields:
	mov	ax, WORD PTR _i$[ebp]
	add	ax, 1
	mov	WORD PTR _i$[ebp], ax
$LN4@ReadFields:
	movzx	eax, WORD PTR _i$[ebp]
	cmp	eax, DWORD PTR _fieldCount$[ebp]
	jge	SHORT $LN3@ReadFields

; 1019 : 	{
; 1020 : 		// Don't clear global fields
; 1021 : 		if ( !m_global || !(pFields[i].flags & FTYPEDESC_GLOBAL) )

	mov	eax, DWORD PTR _this$[ebp]
	cmp	DWORD PTR [eax+28], 0
	je	SHORT $LN10@ReadFields
	movzx	eax, WORD PTR _i$[ebp]
	imul	ecx, eax, 24
	mov	edx, DWORD PTR _pFields$[ebp]
	movsx	eax, WORD PTR [edx+ecx+14]
	and	eax, 1
	jne	SHORT $LN9@ReadFields
$LN10@ReadFields:

; 1022 : 			memset( ((char *)pBaseData + pFields[i].fieldOffset), 0, pFields[i].fieldSize * gSizes[pFields[i].fieldType] );

	movzx	eax, WORD PTR _i$[ebp]
	imul	ecx, eax, 24
	mov	edx, DWORD PTR _pFields$[ebp]
	movzx	eax, WORD PTR [edx+ecx+12]
	movzx	ecx, WORD PTR _i$[ebp]
	imul	edx, ecx, 24
	mov	ecx, DWORD PTR _pFields$[ebp]
	mov	edx, DWORD PTR [ecx+edx]
	imul	eax, DWORD PTR ?gSizes@@3PAHA[edx*4]
	push	eax
	push	0
	movzx	eax, WORD PTR _i$[ebp]
	imul	ecx, eax, 24
	mov	edx, DWORD PTR _pFields$[ebp]
	mov	eax, DWORD PTR _pBaseData$[ebp]
	add	eax, DWORD PTR [edx+ecx+8]
	push	eax
	call	_memset
	add	esp, 12					; 0000000cH
$LN9@ReadFields:

; 1023 : 	}

	jmp	SHORT $LN2@ReadFields
$LN3@ReadFields:

; 1024 : 
; 1025 : 	for ( i = 0; i < fileCount; i++ )

	xor	eax, eax
	mov	WORD PTR _i$[ebp], ax
	jmp	SHORT $LN7@ReadFields
$LN5@ReadFields:
	mov	ax, WORD PTR _i$[ebp]
	add	ax, 1
	mov	WORD PTR _i$[ebp], ax
$LN7@ReadFields:
	movzx	eax, WORD PTR _i$[ebp]
	cmp	eax, DWORD PTR _fileCount$[ebp]
	jge	SHORT $LN6@ReadFields

; 1026 : 	{
; 1027 : 		BufferReadHeader( &header );

	lea	eax, DWORD PTR _header$[ebp]
	push	eax
	mov	ecx, DWORD PTR _this$[ebp]
	call	?BufferReadHeader@CRestore@@AAEXPAUHEADER@@@Z ; CRestore::BufferReadHeader

; 1028 : 		lastField = ReadField( pBaseData, pMap, pFields, fieldCount, lastField, header.size, m_pdata->pTokens[header.token], header.pData );

	mov	eax, DWORD PTR _header$[ebp+4]
	push	eax
	mov	ecx, DWORD PTR _this$[ebp]
	mov	edx, DWORD PTR [ecx+24]
	movzx	eax, WORD PTR _header$[ebp+2]
	mov	ecx, DWORD PTR [edx+24]
	mov	edx, DWORD PTR [ecx+eax*4]
	push	edx
	movzx	eax, WORD PTR _header$[ebp]
	push	eax
	mov	ecx, DWORD PTR _lastField$[ebp]
	push	ecx
	mov	edx, DWORD PTR _fieldCount$[ebp]
	push	edx
	mov	eax, DWORD PTR _pFields$[ebp]
	push	eax
	mov	ecx, DWORD PTR _pMap$[ebp]
	push	ecx
	mov	edx, DWORD PTR _pBaseData$[ebp]
	push	edx
	mov	ecx, DWORD PTR _this$[ebp]
	call	?ReadField@CRestore@@QAEHPBXPAUdatamap_s@@PAUtypedescription_s@@HHHPADPAX@Z ; CRestore::ReadField
	mov	DWORD PTR _lastField$[ebp], eax

; 1029 : 		lastField++;

	mov	eax, DWORD PTR _lastField$[ebp]
	add	eax, 1
	mov	DWORD PTR _lastField$[ebp], eax

; 1030 : 	}

	jmp	SHORT $LN5@ReadFields
$LN6@ReadFields:

; 1031 : 	
; 1032 : 	return 1;

	mov	eax, 1
$LN1@ReadFields:

; 1033 : }

	pop	edi
	pop	esi
	pop	ebx
	mov	esp, ebp
	pop	ebp
	ret	20					; 00000014H
?ReadFields@CRestore@@QAEHPBDPBXPAUdatamap_s@@PAUtypedescription_s@@H@Z ENDP ; CRestore::ReadFields
_TEXT	ENDS
; Function compile flags: /Odtp /ZI
; File d:\!diffusion 2020\source code 2022\client-server\server\game\saverestore.cpp
;	COMDAT ?ReadEntVars@CRestore@@QAEHPBDPAUdatamap_s@@PAUentvars_s@@@Z
_TEXT	SEGMENT
_this$ = -4						; size = 4
_pname$ = 8						; size = 4
_pMap$ = 12						; size = 4
_pev$ = 16						; size = 4
?ReadEntVars@CRestore@@QAEHPBDPAUdatamap_s@@PAUentvars_s@@@Z PROC ; CRestore::ReadEntVars, COMDAT
; _this$ = ecx

; 989  : {

	push	ebp
	mov	ebp, esp
	sub	esp, 68					; 00000044H
	push	ebx
	push	esi
	push	edi
	mov	DWORD PTR _this$[ebp], ecx

; 990  : 	return ReadFields( pname, pev, pMap, gEntvarsDescription, ENTVARS_COUNT );

	push	98					; 00000062H
	push	OFFSET ?gEntvarsDescription@@3PAUtypedescription_s@@A ; gEntvarsDescription
	mov	eax, DWORD PTR _pMap$[ebp]
	push	eax
	mov	ecx, DWORD PTR _pev$[ebp]
	push	ecx
	mov	edx, DWORD PTR _pname$[ebp]
	push	edx
	mov	ecx, DWORD PTR _this$[ebp]
	call	?ReadFields@CRestore@@QAEHPBDPBXPAUdatamap_s@@PAUtypedescription_s@@H@Z ; CRestore::ReadFields

; 991  : }

	pop	edi
	pop	esi
	pop	ebx
	mov	esp, ebp
	pop	ebp
	ret	12					; 0000000cH
?ReadEntVars@CRestore@@QAEHPBDPAUdatamap_s@@PAUentvars_s@@@Z ENDP ; CRestore::ReadEntVars
_TEXT	ENDS
; Function compile flags: /Odtp /ZI
; File d:\!diffusion 2020\source code 2022\client-server\server\game\saverestore.cpp
;	COMDAT ?DoReadAll@CRestore@@QAEHPAXPAUdatamap_s@@1@Z
_TEXT	SEGMENT
_status$1 = -8						; size = 4
_this$ = -4						; size = 4
_pLeafObject$ = 8					; size = 4
_pLeafMap$ = 12						; size = 4
_pCurMap$ = 16						; size = 4
?DoReadAll@CRestore@@QAEHPAXPAUdatamap_s@@1@Z PROC	; CRestore::DoReadAll, COMDAT
; _this$ = ecx

; 1040 : {

	push	ebp
	mov	ebp, esp
	sub	esp, 72					; 00000048H
	push	ebx
	push	esi
	push	edi
	mov	DWORD PTR _this$[ebp], ecx

; 1041 : 	// restore base classes first
; 1042 : 	if ( pCurMap->baseMap )

	mov	eax, DWORD PTR _pCurMap$[ebp]
	cmp	DWORD PTR [eax+12], 0
	je	SHORT $LN2@DoReadAll

; 1043 : 	{
; 1044 : 		int status = DoReadAll( pLeafObject, pLeafMap, pCurMap->baseMap );

	mov	eax, DWORD PTR _pCurMap$[ebp]
	mov	ecx, DWORD PTR [eax+12]
	push	ecx
	mov	edx, DWORD PTR _pLeafMap$[ebp]
	push	edx
	mov	eax, DWORD PTR _pLeafObject$[ebp]
	push	eax
	mov	ecx, DWORD PTR _this$[ebp]
	call	?DoReadAll@CRestore@@QAEHPAXPAUdatamap_s@@1@Z ; CRestore::DoReadAll
	mov	DWORD PTR _status$1[ebp], eax

; 1045 : 		if ( !status )

	cmp	DWORD PTR _status$1[ebp], 0
	jne	SHORT $LN2@DoReadAll

; 1046 : 			return status;

	mov	eax, DWORD PTR _status$1[ebp]
	jmp	SHORT $LN1@DoReadAll
$LN2@DoReadAll:

; 1047 : 	}
; 1048 : 
; 1049 : 	return ReadFields( pCurMap->dataClassName, pLeafObject, pLeafMap, pCurMap->dataDesc, pCurMap->dataNumFields );

	mov	eax, DWORD PTR _pCurMap$[ebp]
	mov	ecx, DWORD PTR [eax+4]
	push	ecx
	mov	edx, DWORD PTR _pCurMap$[ebp]
	mov	eax, DWORD PTR [edx]
	push	eax
	mov	ecx, DWORD PTR _pLeafMap$[ebp]
	push	ecx
	mov	edx, DWORD PTR _pLeafObject$[ebp]
	push	edx
	mov	eax, DWORD PTR _pCurMap$[ebp]
	mov	ecx, DWORD PTR [eax+8]
	push	ecx
	mov	ecx, DWORD PTR _this$[ebp]
	call	?ReadFields@CRestore@@QAEHPBDPBXPAUdatamap_s@@PAUtypedescription_s@@H@Z ; CRestore::ReadFields
$LN1@DoReadAll:

; 1050 : }

	pop	edi
	pop	esi
	pop	ebx
	mov	esp, ebp
	pop	ebp
	ret	12					; 0000000cH
?DoReadAll@CRestore@@QAEHPAXPAUdatamap_s@@1@Z ENDP	; CRestore::DoReadAll
_TEXT	ENDS
; Function compile flags: /Odtp /ZI
; File d:\!diffusion 2020\source code 2022\client-server\server\game\saverestore.cpp
;	COMDAT ?BufferHeader@CSave@@AAEXPBDH@Z
_TEXT	SEGMENT
_hashvalue$ = -8					; size = 2
_this$ = -4						; size = 4
_pname$ = 8						; size = 4
_size$ = 12						; size = 4
?BufferHeader@CSave@@AAEXPBDH@Z PROC			; CSave::BufferHeader, COMDAT
; _this$ = ecx

; 802  : {

	push	ebp
	mov	ebp, esp
	sub	esp, 72					; 00000048H
	push	ebx
	push	esi
	push	edi
	mov	DWORD PTR _this$[ebp], ecx

; 803  : 	short	hashvalue = TokenHash( pname );

	mov	eax, DWORD PTR _pname$[ebp]
	push	eax
	mov	ecx, DWORD PTR _this$[ebp]
	call	?TokenHash@CSaveRestoreBuffer@@QAEGPBD@Z ; CSaveRestoreBuffer::TokenHash
	mov	WORD PTR _hashvalue$[ebp], ax

; 804  : 	if ( size > 1<<(sizeof(short)*8) )

	cmp	DWORD PTR _size$[ebp], 65536		; 00010000H
	jle	SHORT $LN2@BufferHead

; 805  : 		ALERT( at_error, "CSave :: BufferHeader() size parameter exceeds 'short'!" );

	push	OFFSET ??_C@_0DI@EKOAHHAL@CSave?5?3?3?5BufferHeader?$CI?$CJ?5size?5par@
	push	4
	call	DWORD PTR ?g_engfuncs@@3Uenginefuncs_s@@A+244
	add	esp, 8
$LN2@BufferHead:

; 806  : 	BufferData( (const char *)&size, sizeof(short) );

	push	2
	lea	eax, DWORD PTR _size$[ebp]
	push	eax
	mov	ecx, DWORD PTR _this$[ebp]
	call	?BufferData@CSave@@AAEXPBDH@Z		; CSave::BufferData

; 807  : 	BufferData( (const char *)&hashvalue, sizeof(short) );

	push	2
	lea	eax, DWORD PTR _hashvalue$[ebp]
	push	eax
	mov	ecx, DWORD PTR _this$[ebp]
	call	?BufferData@CSave@@AAEXPBDH@Z		; CSave::BufferData

; 808  : }

	pop	edi
	pop	esi
	pop	ebx
	mov	esp, ebp
	pop	ebp
	ret	8
?BufferHeader@CSave@@AAEXPBDH@Z ENDP			; CSave::BufferHeader
_TEXT	ENDS
; Function compile flags: /Odtp /ZI
; File d:\!diffusion 2020\source code 2022\client-server\server\game\saverestore.cpp
;	COMDAT ?BufferData@CSave@@AAEXPBDH@Z
_TEXT	SEGMENT
_this$ = -4						; size = 4
_pdata$ = 8						; size = 4
_size$ = 12						; size = 4
?BufferData@CSave@@AAEXPBDH@Z PROC			; CSave::BufferData, COMDAT
; _this$ = ecx

; 811  : {

	push	ebp
	mov	ebp, esp
	sub	esp, 68					; 00000044H
	push	ebx
	push	esi
	push	edi
	mov	DWORD PTR _this$[ebp], ecx

; 812  : 	if ( !m_pdata )

	mov	eax, DWORD PTR _this$[ebp]
	cmp	DWORD PTR [eax+24], 0
	jne	SHORT $LN2@BufferData

; 813  : 		return;

	jmp	SHORT $LN1@BufferData
$LN2@BufferData:

; 814  : 
; 815  : 	if ( m_pdata->size + size > m_pdata->bufferSize )

	mov	eax, DWORD PTR _this$[ebp]
	mov	ecx, DWORD PTR [eax+24]
	mov	edx, DWORD PTR [ecx+8]
	add	edx, DWORD PTR _size$[ebp]
	mov	eax, DWORD PTR _this$[ebp]
	mov	ecx, DWORD PTR [eax+24]
	cmp	edx, DWORD PTR [ecx+12]
	jle	SHORT $LN3@BufferData

; 816  : 	{
; 817  : 		ALERT( at_error, "Save/Restore overflow!" );

	push	OFFSET ??_C@_0BH@DDIPEFHA@Save?1Restore?5overflow?$CB?$AA@
	push	4
	call	DWORD PTR ?g_engfuncs@@3Uenginefuncs_s@@A+244
	add	esp, 8

; 818  : 		m_pdata->size = m_pdata->bufferSize;

	mov	eax, DWORD PTR _this$[ebp]
	mov	ecx, DWORD PTR [eax+24]
	mov	edx, DWORD PTR _this$[ebp]
	mov	eax, DWORD PTR [edx+24]
	mov	ecx, DWORD PTR [ecx+12]
	mov	DWORD PTR [eax+8], ecx

; 819  : 		return;

	jmp	SHORT $LN1@BufferData
$LN3@BufferData:

; 820  : 	}
; 821  : 
; 822  : 	memcpy( m_pdata->pCurrentData, pdata, size );

	mov	eax, DWORD PTR _size$[ebp]
	push	eax
	mov	ecx, DWORD PTR _pdata$[ebp]
	push	ecx
	mov	edx, DWORD PTR _this$[ebp]
	mov	eax, DWORD PTR [edx+24]
	mov	ecx, DWORD PTR [eax+4]
	push	ecx
	call	_memcpy
	add	esp, 12					; 0000000cH

; 823  : 	m_pdata->pCurrentData += size;

	mov	eax, DWORD PTR _this$[ebp]
	mov	ecx, DWORD PTR [eax+24]
	mov	edx, DWORD PTR [ecx+4]
	add	edx, DWORD PTR _size$[ebp]
	mov	eax, DWORD PTR _this$[ebp]
	mov	ecx, DWORD PTR [eax+24]
	mov	DWORD PTR [ecx+4], edx

; 824  : 	m_pdata->size += size;

	mov	eax, DWORD PTR _this$[ebp]
	mov	ecx, DWORD PTR [eax+24]
	mov	edx, DWORD PTR [ecx+8]
	add	edx, DWORD PTR _size$[ebp]
	mov	eax, DWORD PTR _this$[ebp]
	mov	ecx, DWORD PTR [eax+24]
	mov	DWORD PTR [ecx+8], edx
$LN1@BufferData:

; 825  : }

	pop	edi
	pop	esi
	pop	ebx
	mov	esp, ebp
	pop	ebp
	ret	8
?BufferData@CSave@@AAEXPBDH@Z ENDP			; CSave::BufferData
_TEXT	ENDS
; Function compile flags: /Odtp /ZI
; File d:\!diffusion 2020\source code 2022\client-server\server\game\saverestore.cpp
;	COMDAT ?BufferString@CSave@@AAEXPADH@Z
_TEXT	SEGMENT
_c$ = -5						; size = 1
_this$ = -4						; size = 4
_pdata$ = 8						; size = 4
_len$ = 12						; size = 4
?BufferString@CSave@@AAEXPADH@Z PROC			; CSave::BufferString, COMDAT
; _this$ = ecx

; 778  : {

	push	ebp
	mov	ebp, esp
	sub	esp, 72					; 00000048H
	push	ebx
	push	esi
	push	edi
	mov	DWORD PTR _this$[ebp], ecx

; 779  : 	char c = 0;

	mov	BYTE PTR _c$[ebp], 0

; 780  : 
; 781  : 	BufferData( pdata, len );		// Write the string

	mov	eax, DWORD PTR _len$[ebp]
	push	eax
	mov	ecx, DWORD PTR _pdata$[ebp]
	push	ecx
	mov	ecx, DWORD PTR _this$[ebp]
	call	?BufferData@CSave@@AAEXPBDH@Z		; CSave::BufferData

; 782  : 	BufferData( &c, 1 );			// Write a null terminator

	push	1
	lea	eax, DWORD PTR _c$[ebp]
	push	eax
	mov	ecx, DWORD PTR _this$[ebp]
	call	?BufferData@CSave@@AAEXPBDH@Z		; CSave::BufferData

; 783  : }

	pop	edi
	pop	esi
	pop	ebx
	mov	esp, ebp
	pop	ebp
	ret	8
?BufferString@CSave@@AAEXPADH@Z ENDP			; CSave::BufferString
_TEXT	ENDS
; Function compile flags: /Odtp /ZI
; File d:\!diffusion 2020\source code 2022\client-server\server\game\saverestore.cpp
;	COMDAT ?BufferField@CSave@@AAEXPBDH0@Z
_TEXT	SEGMENT
_this$ = -4						; size = 4
_pname$ = 8						; size = 4
_size$ = 12						; size = 4
_pdata$ = 16						; size = 4
?BufferField@CSave@@AAEXPBDH0@Z PROC			; CSave::BufferField, COMDAT
; _this$ = ecx

; 796  : {

	push	ebp
	mov	ebp, esp
	sub	esp, 68					; 00000044H
	push	ebx
	push	esi
	push	edi
	mov	DWORD PTR _this$[ebp], ecx

; 797  : 	BufferHeader( pname, size );

	mov	eax, DWORD PTR _size$[ebp]
	push	eax
	mov	ecx, DWORD PTR _pname$[ebp]
	push	ecx
	mov	ecx, DWORD PTR _this$[ebp]
	call	?BufferHeader@CSave@@AAEXPBDH@Z		; CSave::BufferHeader

; 798  : 	BufferData( pdata, size );

	mov	eax, DWORD PTR _size$[ebp]
	push	eax
	mov	ecx, DWORD PTR _pdata$[ebp]
	push	ecx
	mov	ecx, DWORD PTR _this$[ebp]
	call	?BufferData@CSave@@AAEXPBDH@Z		; CSave::BufferData

; 799  : }

	pop	edi
	pop	esi
	pop	ebx
	mov	esp, ebp
	pop	ebp
	ret	12					; 0000000cH
?BufferField@CSave@@AAEXPBDH0@Z ENDP			; CSave::BufferField
_TEXT	ENDS
; Function compile flags: /Odtp /ZI
; File d:\!diffusion 2020\source code 2022\client-server\server\game\saverestore.cpp
;	COMDAT ?DataEmpty@CSave@@AAEHPBDH@Z
_TEXT	SEGMENT
_i$1 = -8						; size = 4
_this$ = -4						; size = 4
_pdata$ = 8						; size = 4
_size$ = 12						; size = 4
?DataEmpty@CSave@@AAEHPBDH@Z PROC			; CSave::DataEmpty, COMDAT
; _this$ = ecx

; 786  : {

	push	ebp
	mov	ebp, esp
	sub	esp, 72					; 00000048H
	push	ebx
	push	esi
	push	edi
	mov	DWORD PTR _this$[ebp], ecx

; 787  : 	for ( int i = 0; i < size; i++ )

	mov	DWORD PTR _i$1[ebp], 0
	jmp	SHORT $LN4@DataEmpty
$LN2@DataEmpty:
	mov	eax, DWORD PTR _i$1[ebp]
	add	eax, 1
	mov	DWORD PTR _i$1[ebp], eax
$LN4@DataEmpty:
	mov	eax, DWORD PTR _i$1[ebp]
	cmp	eax, DWORD PTR _size$[ebp]
	jge	SHORT $LN3@DataEmpty

; 788  : 	{
; 789  : 		if ( pdata[i] )

	mov	eax, DWORD PTR _pdata$[ebp]
	add	eax, DWORD PTR _i$1[ebp]
	movsx	ecx, BYTE PTR [eax]
	test	ecx, ecx
	je	SHORT $LN5@DataEmpty

; 790  : 			return 0;

	xor	eax, eax
	jmp	SHORT $LN1@DataEmpty
$LN5@DataEmpty:

; 791  : 	}

	jmp	SHORT $LN2@DataEmpty
$LN3@DataEmpty:

; 792  : 	return 1;

	mov	eax, 1
$LN1@DataEmpty:

; 793  : }

	pop	edi
	pop	esi
	pop	ebx
	mov	esp, ebp
	pop	ebp
	ret	8
?DataEmpty@CSave@@AAEHPBDH@Z ENDP			; CSave::DataEmpty
_TEXT	ENDS
; Function compile flags: /Odtp /ZI
; File d:\!diffusion 2020\source code 2022\client-server\server\game\saverestore.cpp
;	COMDAT ?Log@CSave@@AAEXPAUdatamap_s@@PBD1W4_fieldtypes@@PAXH@Z
_TEXT	SEGMENT
tv71 = -148						; size = 4
_funcName$1 = -80					; size = 4
_pValue$2 = -76						; size = 4
_chValue$3 = -69					; size = 1
_pValue$4 = -68						; size = 4
_vecValue$5 = -64					; size = 12
_pValue$6 = -52						; size = 4
_sValue$7 = -48						; size = 4
_pValue$8 = -44						; size = 4
_nValue$9 = -40						; size = 4
_pValue$10 = -36					; size = 4
_bValue$11 = -29					; size = 1
_pValue$12 = -28					; size = 4
_flValue$13 = -24					; size = 4
_pValue$14 = -20					; size = 4
_nValue$15 = -16					; size = 2
_pValue$16 = -12					; size = 4
_iCount$17 = -8						; size = 4
_this$ = -4						; size = 4
_pMap$ = 8						; size = 4
_pName$ = 12						; size = 4
_pFieldName$ = 16					; size = 4
_fieldType$ = 20					; size = 4
_value$ = 24						; size = 4
_count$ = 28						; size = 4
?Log@CSave@@AAEXPAUdatamap_s@@PBD1W4_fieldtypes@@PAXH@Z PROC ; CSave::Log, COMDAT
; _this$ = ecx

; 351  : {

	push	ebp
	mov	ebp, esp
	sub	esp, 148				; 00000094H
	push	ebx
	push	esi
	push	edi
	mov	DWORD PTR _this$[ebp], ecx

; 352  : 	// Check to see if we are logging.
; 353  : 	static char szBuf[1024];
; 354  : 	static char szTempBuf[256];
; 355  : 
; 356  : 	// Save the name.
; 357  : 	Q_snprintf( szBuf, sizeof( szBuf ), "%s->%s ", pName, pFieldName );

	mov	eax, DWORD PTR _pFieldName$[ebp]
	push	eax
	mov	ecx, DWORD PTR _pName$[ebp]
	push	ecx
	push	OFFSET ??_C@_07HDHDLLK@?$CFs?9?$DO?$CFs?5?$AA@
	push	1024					; 00000400H
	push	OFFSET ?szBuf@?1??Log@CSave@@AAEXPAUdatamap_s@@PBD1W4_fieldtypes@@PAXH@Z@4PADA
	call	?Q_snprintf@@YAHPADIPBDZZ		; Q_snprintf
	add	esp, 20					; 00000014H

; 358  : 
; 359  : 	for ( int iCount = 0; iCount < count; iCount++ )

	mov	DWORD PTR _iCount$17[ebp], 0
	jmp	SHORT $LN4@Log
$LN2@Log:
	mov	eax, DWORD PTR _iCount$17[ebp]
	add	eax, 1
	mov	DWORD PTR _iCount$17[ebp], eax
$LN4@Log:
	mov	eax, DWORD PTR _iCount$17[ebp]
	cmp	eax, DWORD PTR _count$[ebp]
	jge	$LN3@Log

; 360  : 	{
; 361  : 		switch ( fieldType )

	mov	eax, DWORD PTR _fieldType$[ebp]
	mov	DWORD PTR tv71[ebp], eax
	cmp	DWORD PTR tv71[ebp], 17			; 00000011H
	ja	$LN16@Log
	mov	ecx, DWORD PTR tv71[ebp]
	movzx	edx, BYTE PTR $LN20@Log[ecx]
	jmp	DWORD PTR $LN21@Log[edx*4]
$LN7@Log:

; 362  : 		{
; 363  : 		case FIELD_SHORT:
; 364  : 			{
; 365  : 				short *pValue = ( short* )( value );

	mov	eax, DWORD PTR _value$[ebp]
	mov	DWORD PTR _pValue$16[ebp], eax

; 366  : 				short nValue = pValue[iCount];

	mov	eax, DWORD PTR _iCount$17[ebp]
	mov	ecx, DWORD PTR _pValue$16[ebp]
	mov	dx, WORD PTR [ecx+eax*2]
	mov	WORD PTR _nValue$15[ebp], dx

; 367  : 				Q_snprintf( szTempBuf, sizeof( szTempBuf ), "%d", nValue );

	movsx	eax, WORD PTR _nValue$15[ebp]
	push	eax
	push	OFFSET ??_C@_02DPKJAMEF@?$CFd?$AA@
	push	256					; 00000100H
	push	OFFSET ?szTempBuf@?1??Log@CSave@@AAEXPAUdatamap_s@@PBD1W4_fieldtypes@@PAXH@Z@4PADA
	call	?Q_snprintf@@YAHPADIPBDZZ		; Q_snprintf
	add	esp, 16					; 00000010H

; 368  : 				Q_strncat( szBuf, szTempBuf, sizeof( szTempBuf ));

	push	256					; 00000100H
	push	OFFSET ?szTempBuf@?1??Log@CSave@@AAEXPAUdatamap_s@@PBD1W4_fieldtypes@@PAXH@Z@4PADA
	push	OFFSET ?szBuf@?1??Log@CSave@@AAEXPAUdatamap_s@@PBD1W4_fieldtypes@@PAXH@Z@4PADA
	call	?Q_strncat@@YAIPADPBDI@Z		; Q_strncat
	add	esp, 12					; 0000000cH

; 369  : 				break;

	jmp	$LN5@Log
$LN8@Log:

; 370  : 			}
; 371  : 		case FIELD_FLOAT:
; 372  : 		case FIELD_TIME:
; 373  : 			{
; 374  : 				float *pValue = ( float* )( value );

	mov	eax, DWORD PTR _value$[ebp]
	mov	DWORD PTR _pValue$14[ebp], eax

; 375  : 				float flValue = pValue[iCount];

	mov	eax, DWORD PTR _iCount$17[ebp]
	mov	ecx, DWORD PTR _pValue$14[ebp]
	movss	xmm0, DWORD PTR [ecx+eax*4]
	movss	DWORD PTR _flValue$13[ebp], xmm0

; 376  : 				Q_snprintf( szTempBuf, sizeof( szTempBuf ), "%f", flValue );

	cvtss2sd xmm0, DWORD PTR _flValue$13[ebp]
	sub	esp, 8
	movsd	QWORD PTR [esp], xmm0
	push	OFFSET ??_C@_02NJPGOMH@?$CFf?$AA@
	push	256					; 00000100H
	push	OFFSET ?szTempBuf@?1??Log@CSave@@AAEXPAUdatamap_s@@PBD1W4_fieldtypes@@PAXH@Z@4PADA
	call	?Q_snprintf@@YAHPADIPBDZZ		; Q_snprintf
	add	esp, 20					; 00000014H

; 377  : 				Q_strncat( szBuf, szTempBuf, sizeof( szTempBuf ));

	push	256					; 00000100H
	push	OFFSET ?szTempBuf@?1??Log@CSave@@AAEXPAUdatamap_s@@PBD1W4_fieldtypes@@PAXH@Z@4PADA
	push	OFFSET ?szBuf@?1??Log@CSave@@AAEXPAUdatamap_s@@PBD1W4_fieldtypes@@PAXH@Z@4PADA
	call	?Q_strncat@@YAIPADPBDI@Z		; Q_strncat
	add	esp, 12					; 0000000cH

; 378  : 				break;

	jmp	$LN5@Log
$LN9@Log:

; 379  : 			}
; 380  : 		case FIELD_BOOLEAN:
; 381  : 			{
; 382  : 				bool *pValue = ( bool* )( value );

	mov	eax, DWORD PTR _value$[ebp]
	mov	DWORD PTR _pValue$12[ebp], eax

; 383  : 				bool bValue = pValue[iCount];

	mov	eax, DWORD PTR _pValue$12[ebp]
	add	eax, DWORD PTR _iCount$17[ebp]
	mov	cl, BYTE PTR [eax]
	mov	BYTE PTR _bValue$11[ebp], cl

; 384  : 				Q_snprintf( szTempBuf, sizeof( szTempBuf ), "%d", ( int )( bValue ) );

	movzx	eax, BYTE PTR _bValue$11[ebp]
	push	eax
	push	OFFSET ??_C@_02DPKJAMEF@?$CFd?$AA@
	push	256					; 00000100H
	push	OFFSET ?szTempBuf@?1??Log@CSave@@AAEXPAUdatamap_s@@PBD1W4_fieldtypes@@PAXH@Z@4PADA
	call	?Q_snprintf@@YAHPADIPBDZZ		; Q_snprintf
	add	esp, 16					; 00000010H

; 385  : 				Q_strncat( szBuf, szTempBuf, sizeof( szTempBuf ));

	push	256					; 00000100H
	push	OFFSET ?szTempBuf@?1??Log@CSave@@AAEXPAUdatamap_s@@PBD1W4_fieldtypes@@PAXH@Z@4PADA
	push	OFFSET ?szBuf@?1??Log@CSave@@AAEXPAUdatamap_s@@PBD1W4_fieldtypes@@PAXH@Z@4PADA
	call	?Q_strncat@@YAIPADPBDI@Z		; Q_strncat
	add	esp, 12					; 0000000cH

; 386  : 				break;

	jmp	$LN5@Log
$LN10@Log:

; 387  : 			}
; 388  : 		case FIELD_INTEGER:
; 389  : 			{
; 390  : 				int *pValue = ( int* )( value );

	mov	eax, DWORD PTR _value$[ebp]
	mov	DWORD PTR _pValue$10[ebp], eax

; 391  : 				int nValue = pValue[iCount];

	mov	eax, DWORD PTR _iCount$17[ebp]
	mov	ecx, DWORD PTR _pValue$10[ebp]
	mov	edx, DWORD PTR [ecx+eax*4]
	mov	DWORD PTR _nValue$9[ebp], edx

; 392  : 				Q_snprintf( szTempBuf, sizeof( szTempBuf ), "%d", nValue );

	mov	eax, DWORD PTR _nValue$9[ebp]
	push	eax
	push	OFFSET ??_C@_02DPKJAMEF@?$CFd?$AA@
	push	256					; 00000100H
	push	OFFSET ?szTempBuf@?1??Log@CSave@@AAEXPAUdatamap_s@@PBD1W4_fieldtypes@@PAXH@Z@4PADA
	call	?Q_snprintf@@YAHPADIPBDZZ		; Q_snprintf
	add	esp, 16					; 00000010H

; 393  : 				Q_strncat( szBuf, szTempBuf, sizeof( szTempBuf ));

	push	256					; 00000100H
	push	OFFSET ?szTempBuf@?1??Log@CSave@@AAEXPAUdatamap_s@@PBD1W4_fieldtypes@@PAXH@Z@4PADA
	push	OFFSET ?szBuf@?1??Log@CSave@@AAEXPAUdatamap_s@@PBD1W4_fieldtypes@@PAXH@Z@4PADA
	call	?Q_strncat@@YAIPADPBDI@Z		; Q_strncat
	add	esp, 12					; 0000000cH

; 394  : 				break;

	jmp	$LN5@Log
$LN11@Log:

; 395  : 			}
; 396  : 		case FIELD_STRING:
; 397  : 		case FIELD_MODELNAME:
; 398  : 		case FIELD_SOUNDNAME:
; 399  : 			{
; 400  : 				string_t *pValue = ( string_t* )( value );

	mov	eax, DWORD PTR _value$[ebp]
	mov	DWORD PTR _pValue$8[ebp], eax

; 401  : 				string_t sValue = pValue[iCount];

	mov	eax, DWORD PTR _iCount$17[ebp]
	mov	ecx, DWORD PTR _pValue$8[ebp]
	mov	edx, DWORD PTR [ecx+eax*4]
	mov	DWORD PTR _sValue$7[ebp], edx

; 402  : 				Q_snprintf( szTempBuf, sizeof( szTempBuf ), "%s", ( char* )STRING( sValue ) );

	mov	eax, DWORD PTR _sValue$7[ebp]
	push	eax
	call	DWORD PTR ?g_engfuncs@@3Uenginefuncs_s@@A+264
	add	esp, 4
	push	eax
	push	OFFSET ??_C@_02DKCKIIND@?$CFs?$AA@
	push	256					; 00000100H
	push	OFFSET ?szTempBuf@?1??Log@CSave@@AAEXPAUdatamap_s@@PBD1W4_fieldtypes@@PAXH@Z@4PADA
	call	?Q_snprintf@@YAHPADIPBDZZ		; Q_snprintf
	add	esp, 16					; 00000010H

; 403  : 				Q_strncat( szBuf, szTempBuf, sizeof( szTempBuf ));

	push	256					; 00000100H
	push	OFFSET ?szTempBuf@?1??Log@CSave@@AAEXPAUdatamap_s@@PBD1W4_fieldtypes@@PAXH@Z@4PADA
	push	OFFSET ?szBuf@?1??Log@CSave@@AAEXPAUdatamap_s@@PBD1W4_fieldtypes@@PAXH@Z@4PADA
	call	?Q_strncat@@YAIPADPBDI@Z		; Q_strncat
	add	esp, 12					; 0000000cH

; 404  : 				break;					

	jmp	$LN5@Log
$LN12@Log:

; 405  : 			}
; 406  : 		case FIELD_VECTOR:
; 407  : 		case FIELD_POSITION_VECTOR:
; 408  : 			{
; 409  : 				Vector *pValue = ( Vector* )( value );

	mov	eax, DWORD PTR _value$[ebp]
	mov	DWORD PTR _pValue$6[ebp], eax

; 410  : 				Vector vecValue = pValue[iCount];

	imul	eax, DWORD PTR _iCount$17[ebp], 12
	add	eax, DWORD PTR _pValue$6[ebp]
	push	eax
	lea	ecx, DWORD PTR _vecValue$5[ebp]
	call	??0Vector@@QAE@ABV0@@Z			; Vector::Vector

; 411  : 				Q_snprintf( szTempBuf, sizeof( szTempBuf ), "(%f %f %f)", vecValue.x, vecValue.y, vecValue.z );

	cvtss2sd xmm0, DWORD PTR _vecValue$5[ebp+8]
	sub	esp, 8
	movsd	QWORD PTR [esp], xmm0
	cvtss2sd xmm0, DWORD PTR _vecValue$5[ebp+4]
	sub	esp, 8
	movsd	QWORD PTR [esp], xmm0
	cvtss2sd xmm0, DWORD PTR _vecValue$5[ebp]
	sub	esp, 8
	movsd	QWORD PTR [esp], xmm0
	push	OFFSET ??_C@_0L@MKEFNAGA@?$CI?$CFf?5?$CFf?5?$CFf?$CJ?$AA@
	push	256					; 00000100H
	push	OFFSET ?szTempBuf@?1??Log@CSave@@AAEXPAUdatamap_s@@PBD1W4_fieldtypes@@PAXH@Z@4PADA
	call	?Q_snprintf@@YAHPADIPBDZZ		; Q_snprintf
	add	esp, 36					; 00000024H

; 412  : 				Q_strncat( szBuf, szTempBuf, sizeof( szTempBuf ));

	push	256					; 00000100H
	push	OFFSET ?szTempBuf@?1??Log@CSave@@AAEXPAUdatamap_s@@PBD1W4_fieldtypes@@PAXH@Z@4PADA
	push	OFFSET ?szBuf@?1??Log@CSave@@AAEXPAUdatamap_s@@PBD1W4_fieldtypes@@PAXH@Z@4PADA
	call	?Q_strncat@@YAIPADPBDI@Z		; Q_strncat
	add	esp, 12					; 0000000cH

; 413  : 				break;

	jmp	$LN5@Log
$LN13@Log:

; 414  : 			}
; 415  : 		case FIELD_CHARACTER:
; 416  : 			{
; 417  : 				if( count != 1 ) break;

	cmp	DWORD PTR _count$[ebp], 1
	je	SHORT $LN14@Log
	jmp	$LN5@Log
$LN14@Log:

; 418  : 				char *pValue = ( char* )( value );

	mov	eax, DWORD PTR _value$[ebp]
	mov	DWORD PTR _pValue$4[ebp], eax

; 419  : 				char chValue = pValue[iCount];

	mov	eax, DWORD PTR _pValue$4[ebp]
	add	eax, DWORD PTR _iCount$17[ebp]
	mov	cl, BYTE PTR [eax]
	mov	BYTE PTR _chValue$3[ebp], cl

; 420  : 				Q_snprintf( szTempBuf, sizeof( szTempBuf ), "%d", chValue );

	movsx	eax, BYTE PTR _chValue$3[ebp]
	push	eax
	push	OFFSET ??_C@_02DPKJAMEF@?$CFd?$AA@
	push	256					; 00000100H
	push	OFFSET ?szTempBuf@?1??Log@CSave@@AAEXPAUdatamap_s@@PBD1W4_fieldtypes@@PAXH@Z@4PADA
	call	?Q_snprintf@@YAHPADIPBDZZ		; Q_snprintf
	add	esp, 16					; 00000010H

; 421  : 				Q_strncat( szBuf, szTempBuf, sizeof( szTempBuf ));

	push	256					; 00000100H
	push	OFFSET ?szTempBuf@?1??Log@CSave@@AAEXPAUdatamap_s@@PBD1W4_fieldtypes@@PAXH@Z@4PADA
	push	OFFSET ?szBuf@?1??Log@CSave@@AAEXPAUdatamap_s@@PBD1W4_fieldtypes@@PAXH@Z@4PADA
	call	?Q_strncat@@YAIPADPBDI@Z		; Q_strncat
	add	esp, 12					; 0000000cH

; 422  : 				break;

	jmp	SHORT $LN5@Log
$LN15@Log:

; 423  : 			}
; 424  : 		case FIELD_FUNCTION:
; 425  : 			{
; 426  : 				const int *pValue = (int *)value;

	mov	eax, DWORD PTR _value$[ebp]
	mov	DWORD PTR _pValue$2[ebp], eax

; 427  : 				const char *funcName = UTIL_FunctionToName( pMap, (void *)( *pValue ));

	mov	eax, DWORD PTR _pValue$2[ebp]
	mov	ecx, DWORD PTR [eax]
	push	ecx
	mov	edx, DWORD PTR _pMap$[ebp]
	push	edx
	call	?UTIL_FunctionToName@@YAPBDPAUdatamap_s@@PAX@Z ; UTIL_FunctionToName
	add	esp, 8
	mov	DWORD PTR _funcName$1[ebp], eax

; 428  : 				Q_snprintf( szTempBuf, sizeof( szTempBuf ), "%s", funcName );

	mov	eax, DWORD PTR _funcName$1[ebp]
	push	eax
	push	OFFSET ??_C@_02DKCKIIND@?$CFs?$AA@
	push	256					; 00000100H
	push	OFFSET ?szTempBuf@?1??Log@CSave@@AAEXPAUdatamap_s@@PBD1W4_fieldtypes@@PAXH@Z@4PADA
	call	?Q_snprintf@@YAHPADIPBDZZ		; Q_snprintf
	add	esp, 16					; 00000010H

; 429  : 				Q_strncat( szBuf, szTempBuf, sizeof( szTempBuf ));

	push	256					; 00000100H
	push	OFFSET ?szTempBuf@?1??Log@CSave@@AAEXPAUdatamap_s@@PBD1W4_fieldtypes@@PAXH@Z@4PADA
	push	OFFSET ?szBuf@?1??Log@CSave@@AAEXPAUdatamap_s@@PBD1W4_fieldtypes@@PAXH@Z@4PADA
	call	?Q_strncat@@YAIPADPBDI@Z		; Q_strncat
	add	esp, 12					; 0000000cH
$LN16@Log:
$LN5@Log:

; 430  : 				break;
; 431  : 			}
; 432  : 		default:
; 433  : 			break;
; 434  : 		}
; 435  : 
; 436  : 		// Add space data.
; 437  : 		if ( ( iCount + 1 ) != count )

	mov	eax, DWORD PTR _iCount$17[ebp]
	add	eax, 1
	cmp	eax, DWORD PTR _count$[ebp]
	je	SHORT $LN17@Log

; 438  : 		{
; 439  : 			Q_strncpy( szTempBuf, " ", sizeof( szTempBuf ) );

	push	256					; 00000100H
	push	OFFSET ??_C@_01CLKCMJKC@?5?$AA@
	push	OFFSET ?szTempBuf@?1??Log@CSave@@AAEXPAUdatamap_s@@PBD1W4_fieldtypes@@PAXH@Z@4PADA
	call	?Q_strncpy@@YAIPADPBDI@Z		; Q_strncpy
	add	esp, 12					; 0000000cH

; 440  : 			Q_strncat( szBuf, szTempBuf, sizeof( szTempBuf ));

	push	256					; 00000100H
	push	OFFSET ?szTempBuf@?1??Log@CSave@@AAEXPAUdatamap_s@@PBD1W4_fieldtypes@@PAXH@Z@4PADA
	push	OFFSET ?szBuf@?1??Log@CSave@@AAEXPAUdatamap_s@@PBD1W4_fieldtypes@@PAXH@Z@4PADA
	call	?Q_strncat@@YAIPADPBDI@Z		; Q_strncat
	add	esp, 12					; 0000000cH

; 441  : 		}
; 442  : 		else

	jmp	SHORT $LN18@Log
$LN17@Log:

; 443  : 		{
; 444  : 			Q_strncpy( szTempBuf, "\n", sizeof( szTempBuf ) );

	push	256					; 00000100H
	push	OFFSET ??_C@_01EEMJAFIK@?6?$AA@
	push	OFFSET ?szTempBuf@?1??Log@CSave@@AAEXPAUdatamap_s@@PBD1W4_fieldtypes@@PAXH@Z@4PADA
	call	?Q_strncpy@@YAIPADPBDI@Z		; Q_strncpy
	add	esp, 12					; 0000000cH

; 445  : 			Q_strncat( szBuf, szTempBuf, sizeof( szTempBuf ));

	push	256					; 00000100H
	push	OFFSET ?szTempBuf@?1??Log@CSave@@AAEXPAUdatamap_s@@PBD1W4_fieldtypes@@PAXH@Z@4PADA
	push	OFFSET ?szBuf@?1??Log@CSave@@AAEXPAUdatamap_s@@PBD1W4_fieldtypes@@PAXH@Z@4PADA
	call	?Q_strncat@@YAIPADPBDI@Z		; Q_strncat
	add	esp, 12					; 0000000cH
$LN18@Log:

; 446  : 		}
; 447  : 	}

	jmp	$LN2@Log
$LN3@Log:

; 448  : 
; 449  : 	ALERT( at_console, szBuf );

	push	OFFSET ?szBuf@?1??Log@CSave@@AAEXPAUdatamap_s@@PBD1W4_fieldtypes@@PAXH@Z@4PADA
	push	1
	call	DWORD PTR ?g_engfuncs@@3Uenginefuncs_s@@A+244
	add	esp, 8

; 450  : }

	pop	edi
	pop	esi
	pop	ebx
	mov	esp, ebp
	pop	ebp
	ret	24					; 00000018H
	npad	2
$LN21@Log:
	DD	$LN8@Log
	DD	$LN11@Log
	DD	$LN12@Log
	DD	$LN10@Log
	DD	$LN15@Log
	DD	$LN9@Log
	DD	$LN7@Log
	DD	$LN13@Log
	DD	$LN16@Log
$LN20@Log:
	DB	0
	DB	1
	DB	8
	DB	8
	DB	8
	DB	8
	DB	8
	DB	2
	DB	2
	DB	8
	DB	3
	DB	4
	DB	5
	DB	6
	DB	7
	DB	0
	DB	1
	DB	1
?Log@CSave@@AAEXPAUdatamap_s@@PBD1W4_fieldtypes@@PAXH@Z ENDP ; CSave::Log
_TEXT	ENDS
; Function compile flags: /Odtp /ZI
; File d:\!diffusion 2020\source code 2022\client-server\server\game\saverestore.cpp
;	COMDAT ?WriteFields@CSave@@QAEHPBDPBXPAUdatamap_s@@PAUtypedescription_s@@H@Z
_TEXT	SEGMENT
tv174 = -360						; size = 4
tv141 = -360						; size = 4
_pOutputData$1 = -292					; size = 4
_pOutputData$2 = -288					; size = 4
_pTest$ = -284						; size = 4
_entityArray$ = -280					; size = 256
_emptyCount$ = -24					; size = 4
_actualCount$ = -20					; size = 4
_j$ = -16						; size = 4
_i$ = -12						; size = 4
_this$ = -8						; size = 4
__$ArrayPad$ = -4					; size = 4
_pname$ = 8						; size = 4
_pBaseData$ = 12					; size = 4
_pMap$ = 16						; size = 4
_pFields$ = 20						; size = 4
_fieldCount$ = 24					; size = 4
?WriteFields@CSave@@QAEHPBDPBXPAUdatamap_s@@PAUtypedescription_s@@H@Z PROC ; CSave::WriteFields, COMDAT
; _this$ = ecx

; 667  : {

	push	ebp
	mov	ebp, esp
	sub	esp, 360				; 00000168H
	mov	eax, DWORD PTR ___security_cookie
	xor	eax, ebp
	mov	DWORD PTR __$ArrayPad$[ebp], eax
	push	ebx
	push	esi
	push	edi
	mov	DWORD PTR _this$[ebp], ecx

; 668  : 	int i, j, actualCount, emptyCount;
; 669  : 	int entityArray[MAX_ENTITYARRAY];
; 670  : 	TYPEDESCRIPTION *pTest;
; 671  : 
; 672  : 	// Precalculate the number of empty fields
; 673  : 	emptyCount = 0;

	mov	DWORD PTR _emptyCount$[ebp], 0

; 674  : 	for ( i = 0; i < fieldCount; i++ )

	mov	DWORD PTR _i$[ebp], 0
	jmp	SHORT $LN4@WriteField
$LN2@WriteField:
	mov	eax, DWORD PTR _i$[ebp]
	add	eax, 1
	mov	DWORD PTR _i$[ebp], eax
$LN4@WriteField:
	mov	eax, DWORD PTR _i$[ebp]
	cmp	eax, DWORD PTR _fieldCount$[ebp]
	jge	SHORT $LN3@WriteField

; 675  : 	{
; 676  : 		void *pOutputData;
; 677  : 		pOutputData = ((char *)pBaseData + pFields[i].fieldOffset );

	imul	eax, DWORD PTR _i$[ebp], 24
	mov	ecx, DWORD PTR _pFields$[ebp]
	mov	edx, DWORD PTR _pBaseData$[ebp]
	add	edx, DWORD PTR [ecx+eax+8]
	mov	DWORD PTR _pOutputData$2[ebp], edx

; 678  : 		if ( DataEmpty( (const char *)pOutputData, pFields[i].fieldSize * gSizes[pFields[i].fieldType] ) )

	imul	eax, DWORD PTR _i$[ebp], 24
	mov	ecx, DWORD PTR _pFields$[ebp]
	movzx	edx, WORD PTR [ecx+eax+12]
	imul	eax, DWORD PTR _i$[ebp], 24
	mov	ecx, DWORD PTR _pFields$[ebp]
	mov	eax, DWORD PTR [ecx+eax]
	imul	edx, DWORD PTR ?gSizes@@3PAHA[eax*4]
	push	edx
	mov	ecx, DWORD PTR _pOutputData$2[ebp]
	push	ecx
	mov	ecx, DWORD PTR _this$[ebp]
	call	?DataEmpty@CSave@@AAEHPBDH@Z		; CSave::DataEmpty
	test	eax, eax
	je	SHORT $LN15@WriteField

; 679  : 			emptyCount++;

	mov	eax, DWORD PTR _emptyCount$[ebp]
	add	eax, 1
	mov	DWORD PTR _emptyCount$[ebp], eax
$LN15@WriteField:

; 680  : 	}

	jmp	SHORT $LN2@WriteField
$LN3@WriteField:

; 681  : 
; 682  : 	// Empty fields will not be written, write out the actual number of fields to be written
; 683  : 	actualCount = fieldCount - emptyCount;

	mov	eax, DWORD PTR _fieldCount$[ebp]
	sub	eax, DWORD PTR _emptyCount$[ebp]
	mov	DWORD PTR _actualCount$[ebp], eax

; 684  : 	WriteInt( pname, &actualCount, 1 );

	push	1
	lea	eax, DWORD PTR _actualCount$[ebp]
	push	eax
	mov	ecx, DWORD PTR _pname$[ebp]
	push	ecx
	mov	ecx, DWORD PTR _this$[ebp]
	call	?WriteInt@CSave@@QAEXPBDPBHH@Z		; CSave::WriteInt

; 685  : 
; 686  : 	for ( i = 0; i < fieldCount; i++ )

	mov	DWORD PTR _i$[ebp], 0
	jmp	SHORT $LN7@WriteField
$LN5@WriteField:
	mov	eax, DWORD PTR _i$[ebp]
	add	eax, 1
	mov	DWORD PTR _i$[ebp], eax
$LN7@WriteField:
	mov	eax, DWORD PTR _i$[ebp]
	cmp	eax, DWORD PTR _fieldCount$[ebp]
	jge	$LN6@WriteField

; 687  : 	{
; 688  : 		void *pOutputData;
; 689  : 		pTest = &pFields[ i ];

	imul	eax, DWORD PTR _i$[ebp], 24
	add	eax, DWORD PTR _pFields$[ebp]
	mov	DWORD PTR _pTest$[ebp], eax

; 690  : 		pOutputData = ((char *)pBaseData + pTest->fieldOffset );

	mov	eax, DWORD PTR _pTest$[ebp]
	mov	ecx, DWORD PTR _pBaseData$[ebp]
	add	ecx, DWORD PTR [eax+8]
	mov	DWORD PTR _pOutputData$1[ebp], ecx

; 691  : 
; 692  : 		// UNDONE: Must we do this twice?
; 693  : 		if ( DataEmpty( (const char *)pOutputData, pTest->fieldSize * gSizes[pTest->fieldType] ) )

	mov	eax, DWORD PTR _pTest$[ebp]
	movzx	ecx, WORD PTR [eax+12]
	mov	edx, DWORD PTR _pTest$[ebp]
	mov	eax, DWORD PTR [edx]
	imul	ecx, DWORD PTR ?gSizes@@3PAHA[eax*4]
	push	ecx
	mov	ecx, DWORD PTR _pOutputData$1[ebp]
	push	ecx
	mov	ecx, DWORD PTR _this$[ebp]
	call	?DataEmpty@CSave@@AAEHPBDH@Z		; CSave::DataEmpty
	test	eax, eax
	je	SHORT $LN16@WriteField

; 694  : 			continue;

	jmp	SHORT $LN5@WriteField
$LN16@WriteField:

; 695  : 
; 696  : #ifdef _DEBUG
; 697  : 		// Log( pMap, pname, pTest->fieldName, pTest->fieldType, pOutputData, pTest->fieldSize );
; 698  : #endif
; 699  : 		switch( pTest->fieldType )

	mov	eax, DWORD PTR _pTest$[ebp]
	mov	ecx, DWORD PTR [eax]
	mov	DWORD PTR tv141[ebp], ecx
	cmp	DWORD PTR tv141[ebp], 19		; 00000013H
	ja	$LN35@WriteField
	mov	edx, DWORD PTR tv141[ebp]
	jmp	DWORD PTR $LN37@WriteField[edx*4]
$LN17@WriteField:

; 700  : 		{
; 701  : 		case FIELD_FLOAT:
; 702  : 			WriteFloat( pTest->fieldName, (float *)pOutputData, pTest->fieldSize );

	mov	eax, DWORD PTR _pTest$[ebp]
	movzx	ecx, WORD PTR [eax+12]
	push	ecx
	mov	edx, DWORD PTR _pOutputData$1[ebp]
	push	edx
	mov	eax, DWORD PTR _pTest$[ebp]
	mov	ecx, DWORD PTR [eax+4]
	push	ecx
	mov	ecx, DWORD PTR _this$[ebp]
	call	?WriteFloat@CSave@@QAEXPBDPBMH@Z	; CSave::WriteFloat

; 703  : 			break;

	jmp	$LN8@WriteField
$LN18@WriteField:

; 704  : 		case FIELD_TIME:
; 705  : 			WriteTime( pTest->fieldName, (float *)pOutputData, pTest->fieldSize );

	mov	eax, DWORD PTR _pTest$[ebp]
	movzx	ecx, WORD PTR [eax+12]
	push	ecx
	mov	edx, DWORD PTR _pOutputData$1[ebp]
	push	edx
	mov	eax, DWORD PTR _pTest$[ebp]
	mov	ecx, DWORD PTR [eax+4]
	push	ecx
	mov	ecx, DWORD PTR _this$[ebp]
	call	?WriteTime@CSave@@QAEXPBDPBMH@Z		; CSave::WriteTime

; 706  : 			break;

	jmp	$LN8@WriteField
$LN19@WriteField:

; 707  : 		case FIELD_MODELNAME:
; 708  : 		case FIELD_SOUNDNAME:
; 709  : 		case FIELD_STRING:
; 710  : 			WriteString( pTest->fieldName, (int *)pOutputData, pTest->fieldSize );

	mov	eax, DWORD PTR _pTest$[ebp]
	movzx	ecx, WORD PTR [eax+12]
	push	ecx
	mov	edx, DWORD PTR _pOutputData$1[ebp]
	push	edx
	mov	eax, DWORD PTR _pTest$[ebp]
	mov	ecx, DWORD PTR [eax+4]
	push	ecx
	mov	ecx, DWORD PTR _this$[ebp]
	call	?WriteString@CSave@@QAEXPBDPBHH@Z	; CSave::WriteString

; 711  : 			break;

	jmp	$LN8@WriteField
$LN20@WriteField:

; 712  : 		case FIELD_CLASSPTR:
; 713  : 		case FIELD_EVARS:
; 714  : 		case FIELD_EDICT:
; 715  : 		case FIELD_ENTITY:
; 716  : 		case FIELD_EHANDLE:
; 717  : 			if ( pTest->fieldSize > MAX_ENTITYARRAY )

	mov	eax, DWORD PTR _pTest$[ebp]
	movzx	ecx, WORD PTR [eax+12]
	cmp	ecx, 64					; 00000040H
	jle	SHORT $LN21@WriteField

; 718  : 				ALERT( at_error, "Can't save more than %d entities in an array!!!\n", MAX_ENTITYARRAY );

	push	64					; 00000040H
	push	OFFSET ??_C@_0DB@NAHFIIFC@Can?8t?5save?5more?5than?5?$CFd?5entities@
	push	4
	call	DWORD PTR ?g_engfuncs@@3Uenginefuncs_s@@A+244
	add	esp, 12					; 0000000cH
$LN21@WriteField:

; 719  : 			for ( j = 0; j < pTest->fieldSize; j++ )

	mov	DWORD PTR _j$[ebp], 0
	jmp	SHORT $LN12@WriteField
$LN10@WriteField:
	mov	eax, DWORD PTR _j$[ebp]
	add	eax, 1
	mov	DWORD PTR _j$[ebp], eax
$LN12@WriteField:
	mov	eax, DWORD PTR _pTest$[ebp]
	movzx	ecx, WORD PTR [eax+12]
	cmp	DWORD PTR _j$[ebp], ecx
	jge	$LN11@WriteField

; 720  : 			{
; 721  : 				switch( pTest->fieldType )

	mov	eax, DWORD PTR _pTest$[ebp]
	mov	ecx, DWORD PTR [eax]
	mov	DWORD PTR tv174[ebp], ecx
	mov	edx, DWORD PTR tv174[ebp]
	sub	edx, 2
	mov	DWORD PTR tv174[ebp], edx
	cmp	DWORD PTR tv174[ebp], 4
	ja	$LN13@WriteField
	mov	eax, DWORD PTR tv174[ebp]
	jmp	DWORD PTR $LN38@WriteField[eax*4]
$LN22@WriteField:

; 722  : 				{
; 723  : 					case FIELD_EVARS:
; 724  : 						entityArray[j] = EntityIndex( ((entvars_t **)pOutputData)[j] );

	mov	eax, DWORD PTR _j$[ebp]
	mov	ecx, DWORD PTR _pOutputData$1[ebp]
	mov	edx, DWORD PTR [ecx+eax*4]
	push	edx
	mov	ecx, DWORD PTR _this$[ebp]
	call	?EntityIndex@CSaveRestoreBuffer@@QAEHPAUentvars_s@@@Z ; CSaveRestoreBuffer::EntityIndex
	mov	ecx, DWORD PTR _j$[ebp]
	mov	DWORD PTR _entityArray$[ebp+ecx*4], eax

; 725  : 					break;

	jmp	$LN13@WriteField
$LN23@WriteField:

; 726  : 					case FIELD_CLASSPTR:
; 727  : 						entityArray[j] = EntityIndex( ((CBaseEntity **)pOutputData)[j] );

	mov	eax, DWORD PTR _j$[ebp]
	mov	ecx, DWORD PTR _pOutputData$1[ebp]
	mov	edx, DWORD PTR [ecx+eax*4]
	push	edx
	mov	ecx, DWORD PTR _this$[ebp]
	call	?EntityIndex@CSaveRestoreBuffer@@QAEHPAVCBaseEntity@@@Z ; CSaveRestoreBuffer::EntityIndex
	mov	ecx, DWORD PTR _j$[ebp]
	mov	DWORD PTR _entityArray$[ebp+ecx*4], eax

; 728  : 					break;

	jmp	SHORT $LN13@WriteField
$LN24@WriteField:

; 729  : 					case FIELD_EDICT:
; 730  : 						entityArray[j] = EntityIndex( ((edict_t **)pOutputData)[j] );

	mov	eax, DWORD PTR _j$[ebp]
	mov	ecx, DWORD PTR _pOutputData$1[ebp]
	mov	edx, DWORD PTR [ecx+eax*4]
	push	edx
	mov	ecx, DWORD PTR _this$[ebp]
	call	?EntityIndex@CSaveRestoreBuffer@@QAEHPAUedict_s@@@Z ; CSaveRestoreBuffer::EntityIndex
	mov	ecx, DWORD PTR _j$[ebp]
	mov	DWORD PTR _entityArray$[ebp+ecx*4], eax

; 731  : 					break;

	jmp	SHORT $LN13@WriteField
$LN25@WriteField:

; 732  : 					case FIELD_ENTITY:
; 733  : 						entityArray[j] = EntityIndex( ((EOFFSET *)pOutputData)[j] );

	mov	eax, DWORD PTR _j$[ebp]
	mov	ecx, DWORD PTR _pOutputData$1[ebp]
	mov	edx, DWORD PTR [ecx+eax*4]
	push	edx
	mov	ecx, DWORD PTR _this$[ebp]
	call	?EntityIndex@CSaveRestoreBuffer@@QAEHH@Z ; CSaveRestoreBuffer::EntityIndex
	mov	ecx, DWORD PTR _j$[ebp]
	mov	DWORD PTR _entityArray$[ebp+ecx*4], eax

; 734  : 					break;

	jmp	SHORT $LN13@WriteField
$LN26@WriteField:

; 735  : 					case FIELD_EHANDLE:
; 736  : 						entityArray[j] = EntityIndex( (CBaseEntity *)(((EHANDLE *)pOutputData)[j]) );

	mov	eax, DWORD PTR _j$[ebp]
	mov	ecx, DWORD PTR _pOutputData$1[ebp]
	lea	ecx, DWORD PTR [ecx+eax*8]
	call	??BEHANDLE@@QAEPAVCBaseEntity@@XZ	; EHANDLE::operator CBaseEntity *
	push	eax
	mov	ecx, DWORD PTR _this$[ebp]
	call	?EntityIndex@CSaveRestoreBuffer@@QAEHPAVCBaseEntity@@@Z ; CSaveRestoreBuffer::EntityIndex
	mov	edx, DWORD PTR _j$[ebp]
	mov	DWORD PTR _entityArray$[ebp+edx*4], eax
$LN13@WriteField:

; 737  : 					break;
; 738  : 				}
; 739  : 			}

	jmp	$LN10@WriteField
$LN11@WriteField:

; 740  : 			WriteInt( pTest->fieldName, entityArray, pTest->fieldSize );

	mov	eax, DWORD PTR _pTest$[ebp]
	movzx	ecx, WORD PTR [eax+12]
	push	ecx
	lea	edx, DWORD PTR _entityArray$[ebp]
	push	edx
	mov	eax, DWORD PTR _pTest$[ebp]
	mov	ecx, DWORD PTR [eax+4]
	push	ecx
	mov	ecx, DWORD PTR _this$[ebp]
	call	?WriteInt@CSave@@QAEXPBDPBHH@Z		; CSave::WriteInt

; 741  : 			break;

	jmp	$LN8@WriteField
$LN27@WriteField:

; 742  : 		case FIELD_POSITION_VECTOR:
; 743  : 			WritePositionVector( pTest->fieldName, (float *)pOutputData, pTest->fieldSize );

	mov	eax, DWORD PTR _pTest$[ebp]
	movzx	ecx, WORD PTR [eax+12]
	push	ecx
	mov	edx, DWORD PTR _pOutputData$1[ebp]
	push	edx
	mov	eax, DWORD PTR _pTest$[ebp]
	mov	ecx, DWORD PTR [eax+4]
	push	ecx
	mov	ecx, DWORD PTR _this$[ebp]
	call	?WritePositionVector@CSave@@QAEXPBDPBMH@Z ; CSave::WritePositionVector

; 744  : 			break;

	jmp	$LN8@WriteField
$LN28@WriteField:

; 745  : 		case FIELD_VECTOR:
; 746  : 			WriteVector( pTest->fieldName, (float *)pOutputData, pTest->fieldSize );

	mov	eax, DWORD PTR _pTest$[ebp]
	movzx	ecx, WORD PTR [eax+12]
	push	ecx
	mov	edx, DWORD PTR _pOutputData$1[ebp]
	push	edx
	mov	eax, DWORD PTR _pTest$[ebp]
	mov	ecx, DWORD PTR [eax+4]
	push	ecx
	mov	ecx, DWORD PTR _this$[ebp]
	call	?WriteVector@CSave@@QAEXPBDPBMH@Z	; CSave::WriteVector

; 747  : 			break;

	jmp	$LN8@WriteField
$LN29@WriteField:

; 748  : 		case FIELD_BOOLEAN:
; 749  : 		case FIELD_INTEGER:
; 750  : 			WriteInt( pTest->fieldName, (int *)pOutputData, pTest->fieldSize );

	mov	eax, DWORD PTR _pTest$[ebp]
	movzx	ecx, WORD PTR [eax+12]
	push	ecx
	mov	edx, DWORD PTR _pOutputData$1[ebp]
	push	edx
	mov	eax, DWORD PTR _pTest$[ebp]
	mov	ecx, DWORD PTR [eax+4]
	push	ecx
	mov	ecx, DWORD PTR _this$[ebp]
	call	?WriteInt@CSave@@QAEXPBDPBHH@Z		; CSave::WriteInt

; 751  : 			break;

	jmp	$LN8@WriteField
$LN30@WriteField:

; 752  : 		case FIELD_SHORT:
; 753  : 			WriteData( pTest->fieldName, 2 * pTest->fieldSize, ((char *)pOutputData) );

	mov	eax, DWORD PTR _pOutputData$1[ebp]
	push	eax
	mov	ecx, DWORD PTR _pTest$[ebp]
	movzx	edx, WORD PTR [ecx+12]
	shl	edx, 1
	push	edx
	mov	eax, DWORD PTR _pTest$[ebp]
	mov	ecx, DWORD PTR [eax+4]
	push	ecx
	mov	ecx, DWORD PTR _this$[ebp]
	call	?WriteData@CSave@@QAEXPBDH0@Z		; CSave::WriteData

; 754  : 			break;

	jmp	$LN8@WriteField
$LN31@WriteField:

; 755  : 		case FIELD_CHARACTER:
; 756  : 			WriteData( pTest->fieldName, pTest->fieldSize, ((char *)pOutputData) );

	mov	eax, DWORD PTR _pOutputData$1[ebp]
	push	eax
	mov	ecx, DWORD PTR _pTest$[ebp]
	movzx	edx, WORD PTR [ecx+12]
	push	edx
	mov	eax, DWORD PTR _pTest$[ebp]
	mov	ecx, DWORD PTR [eax+4]
	push	ecx
	mov	ecx, DWORD PTR _this$[ebp]
	call	?WriteData@CSave@@QAEXPBDH0@Z		; CSave::WriteData

; 757  : 			break;

	jmp	$LN8@WriteField
$LN32@WriteField:

; 758  : 		// For now, just write the address out, we're not going to change memory while doing this yet!
; 759  : 		case FIELD_POINTER:
; 760  : 			WriteInt( pTest->fieldName, (int *)(char *)pOutputData, pTest->fieldSize );

	mov	eax, DWORD PTR _pTest$[ebp]
	movzx	ecx, WORD PTR [eax+12]
	push	ecx
	mov	edx, DWORD PTR _pOutputData$1[ebp]
	push	edx
	mov	eax, DWORD PTR _pTest$[ebp]
	mov	ecx, DWORD PTR [eax+4]
	push	ecx
	mov	ecx, DWORD PTR _this$[ebp]
	call	?WriteInt@CSave@@QAEXPBDPBHH@Z		; CSave::WriteInt

; 761  : 			break;

	jmp	SHORT $LN8@WriteField
$LN33@WriteField:

; 762  : 		case FIELD_FUNCTION:
; 763  : 			WriteFunction( pMap, pTest->fieldName, (int *)(char *)pOutputData, pTest->fieldSize );

	mov	eax, DWORD PTR _pTest$[ebp]
	movzx	ecx, WORD PTR [eax+12]
	push	ecx
	mov	edx, DWORD PTR _pOutputData$1[ebp]
	push	edx
	mov	eax, DWORD PTR _pTest$[ebp]
	mov	ecx, DWORD PTR [eax+4]
	push	ecx
	mov	edx, DWORD PTR _pMap$[ebp]
	push	edx
	mov	ecx, DWORD PTR _this$[ebp]
	call	?WriteFunction@CSave@@QAEXPAUdatamap_s@@PBDPBHH@Z ; CSave::WriteFunction

; 764  : 			break;

	jmp	SHORT $LN8@WriteField
$LN34@WriteField:

; 765  : 		case FIELD_INT64:
; 766  : 			WriteData( pTest->fieldName, sizeof( std::uint64_t ) * pTest->fieldSize, ((char *)pOutputData) );

	mov	eax, DWORD PTR _pOutputData$1[ebp]
	push	eax
	mov	ecx, DWORD PTR _pTest$[ebp]
	movzx	edx, WORD PTR [ecx+12]
	shl	edx, 3
	push	edx
	mov	eax, DWORD PTR _pTest$[ebp]
	mov	ecx, DWORD PTR [eax+4]
	push	ecx
	mov	ecx, DWORD PTR _this$[ebp]
	call	?WriteData@CSave@@QAEXPBDH0@Z		; CSave::WriteData

; 767  : 			break;

	jmp	SHORT $LN8@WriteField
$LN35@WriteField:

; 768  : 		default:
; 769  : 			ALERT( at_error, "Bad field type\n" );

	push	OFFSET ??_C@_0BA@CGJOHFEH@Bad?5field?5type?6?$AA@
	push	4
	call	DWORD PTR ?g_engfuncs@@3Uenginefuncs_s@@A+244
	add	esp, 8
$LN8@WriteField:

; 770  : 			break;
; 771  : 		}
; 772  : 	}

	jmp	$LN5@WriteField
$LN6@WriteField:

; 773  : 
; 774  : 	return 1;

	mov	eax, 1

; 775  : }

	pop	edi
	pop	esi
	pop	ebx
	mov	ecx, DWORD PTR __$ArrayPad$[ebp]
	xor	ecx, ebp
	call	@__security_check_cookie@4
	mov	esp, ebp
	pop	ebp
	ret	20					; 00000014H
	npad	3
$LN37@WriteField:
	DD	$LN17@WriteField
	DD	$LN19@WriteField
	DD	$LN20@WriteField
	DD	$LN20@WriteField
	DD	$LN20@WriteField
	DD	$LN20@WriteField
	DD	$LN20@WriteField
	DD	$LN28@WriteField
	DD	$LN27@WriteField
	DD	$LN32@WriteField
	DD	$LN29@WriteField
	DD	$LN33@WriteField
	DD	$LN29@WriteField
	DD	$LN30@WriteField
	DD	$LN31@WriteField
	DD	$LN18@WriteField
	DD	$LN19@WriteField
	DD	$LN19@WriteField
	DD	$LN35@WriteField
	DD	$LN34@WriteField
$LN38@WriteField:
	DD	$LN25@WriteField
	DD	$LN23@WriteField
	DD	$LN26@WriteField
	DD	$LN22@WriteField
	DD	$LN24@WriteField
?WriteFields@CSave@@QAEHPBDPBXPAUdatamap_s@@PAUtypedescription_s@@H@Z ENDP ; CSave::WriteFields
_TEXT	ENDS
; Function compile flags: /Odtp /ZI
; File d:\!diffusion 2020\source code 2022\client-server\server\game\saverestore.cpp
;	COMDAT ?WriteEntVars@CSave@@QAEHPBDPAUdatamap_s@@PAUentvars_s@@@Z
_TEXT	SEGMENT
_this$ = -4						; size = 4
_pname$ = 8						; size = 4
_pMap$ = 12						; size = 4
_pev$ = 16						; size = 4
?WriteEntVars@CSave@@QAEHPBDPAUdatamap_s@@PAUentvars_s@@@Z PROC ; CSave::WriteEntVars, COMDAT
; _this$ = ecx

; 645  : {

	push	ebp
	mov	ebp, esp
	sub	esp, 68					; 00000044H
	push	ebx
	push	esi
	push	edi
	mov	DWORD PTR _this$[ebp], ecx

; 646  : 	return WriteFields( pname, pev, pMap, gEntvarsDescription, ENTVARS_COUNT );

	push	98					; 00000062H
	push	OFFSET ?gEntvarsDescription@@3PAUtypedescription_s@@A ; gEntvarsDescription
	mov	eax, DWORD PTR _pMap$[ebp]
	push	eax
	mov	ecx, DWORD PTR _pev$[ebp]
	push	ecx
	mov	edx, DWORD PTR _pname$[ebp]
	push	edx
	mov	ecx, DWORD PTR _this$[ebp]
	call	?WriteFields@CSave@@QAEHPBDPBXPAUdatamap_s@@PAUtypedescription_s@@H@Z ; CSave::WriteFields

; 647  : }

	pop	edi
	pop	esi
	pop	ebx
	mov	esp, ebp
	pop	ebp
	ret	12					; 0000000cH
?WriteEntVars@CSave@@QAEHPBDPAUdatamap_s@@PAUentvars_s@@@Z ENDP ; CSave::WriteEntVars
_TEXT	ENDS
; Function compile flags: /Odtp /ZI
; File d:\!diffusion 2020\source code 2022\client-server\server\game\saverestore.cpp
;	COMDAT ?WriteFunction@CSave@@QAEXPAUdatamap_s@@PBDPBHH@Z
_TEXT	SEGMENT
_functionName$ = -8					; size = 4
_this$ = -4						; size = 4
_pRootMap$ = 8						; size = 4
_pname$ = 12						; size = 4
_data$ = 16						; size = 4
_count$ = 20						; size = 4
?WriteFunction@CSave@@QAEXPAUdatamap_s@@PBDPBHH@Z PROC	; CSave::WriteFunction, COMDAT
; _this$ = ecx

; 564  : {

	push	ebp
	mov	ebp, esp
	sub	esp, 72					; 00000048H
	push	ebx
	push	esi
	push	edi
	mov	DWORD PTR _this$[ebp], ecx

; 565  : 	const char *functionName = UTIL_FunctionToName( pRootMap, (void *)(*data) );

	mov	eax, DWORD PTR _data$[ebp]
	mov	ecx, DWORD PTR [eax]
	push	ecx
	mov	edx, DWORD PTR _pRootMap$[ebp]
	push	edx
	call	?UTIL_FunctionToName@@YAPBDPAUdatamap_s@@PAX@Z ; UTIL_FunctionToName
	add	esp, 8
	mov	DWORD PTR _functionName$[ebp], eax

; 566  : 
; 567  : 	if ( functionName )

	cmp	DWORD PTR _functionName$[ebp], 0
	je	SHORT $LN2@WriteFunct

; 568  : 		BufferField( pname, strlen(functionName) + 1, functionName );

	mov	eax, DWORD PTR _functionName$[ebp]
	push	eax
	mov	ecx, DWORD PTR _functionName$[ebp]
	push	ecx
	call	_strlen
	add	esp, 4
	add	eax, 1
	push	eax
	mov	edx, DWORD PTR _pname$[ebp]
	push	edx
	mov	ecx, DWORD PTR _this$[ebp]
	call	?BufferField@CSave@@AAEXPBDH0@Z		; CSave::BufferField

; 569  : 	else

	jmp	SHORT $LN1@WriteFunct
$LN2@WriteFunct:

; 570  : 		ALERT( at_error, "Invalid function pointer in class %s!\n", pRootMap->dataClassName );

	mov	eax, DWORD PTR _pRootMap$[ebp]
	mov	ecx, DWORD PTR [eax+8]
	push	ecx
	push	OFFSET ??_C@_0CH@MIPHMABE@Invalid?5function?5pointer?5in?5clas@
	push	4
	call	DWORD PTR ?g_engfuncs@@3Uenginefuncs_s@@A+244
	add	esp, 12					; 0000000cH
$LN1@WriteFunct:

; 571  : }

	pop	edi
	pop	esi
	pop	ebx
	mov	esp, ebp
	pop	ebp
	ret	16					; 00000010H
?WriteFunction@CSave@@QAEXPAUdatamap_s@@PBDPBHH@Z ENDP	; CSave::WriteFunction
_TEXT	ENDS
; Function compile flags: /Odtp /ZI
; File d:\!diffusion 2020\source code 2022\client-server\server\game\saverestore.cpp
;	COMDAT ?WritePositionVector@CSave@@QAEXPBDPBMH@Z
_TEXT	SEGMENT
$T1 = -120						; size = 12
_tmp$2 = -44						; size = 12
_input$ = -32						; size = 12
_tmp$ = -20						; size = 12
_i$ = -8						; size = 4
_this$ = -4						; size = 4
_pname$ = 8						; size = 4
_value$ = 12						; size = 4
_count$ = 16						; size = 4
?WritePositionVector@CSave@@QAEXPBDPBMH@Z PROC		; CSave::WritePositionVector, COMDAT
; _this$ = ecx

; 546  : {

	push	ebp
	mov	ebp, esp
	sub	esp, 120				; 00000078H
	push	ebx
	push	esi
	push	edi
	mov	DWORD PTR _this$[ebp], ecx

; 547  : 	int i;
; 548  : 	Vector tmp, input;

	lea	ecx, DWORD PTR _tmp$[ebp]
	call	??0Vector@@QAE@XZ			; Vector::Vector
	lea	ecx, DWORD PTR _input$[ebp]
	call	??0Vector@@QAE@XZ			; Vector::Vector

; 549  : 
; 550  : 	BufferHeader( pname, sizeof(float) * 3 * count );

	imul	eax, DWORD PTR _count$[ebp], 12
	push	eax
	mov	ecx, DWORD PTR _pname$[ebp]
	push	ecx
	mov	ecx, DWORD PTR _this$[ebp]
	call	?BufferHeader@CSave@@AAEXPBDH@Z		; CSave::BufferHeader

; 551  : 	for ( i = 0; i < count; i++ )

	mov	DWORD PTR _i$[ebp], 0
	jmp	SHORT $LN4@WritePosit
$LN2@WritePosit:
	mov	eax, DWORD PTR _i$[ebp]
	add	eax, 1
	mov	DWORD PTR _i$[ebp], eax
$LN4@WritePosit:
	mov	eax, DWORD PTR _i$[ebp]
	cmp	eax, DWORD PTR _count$[ebp]
	jge	$LN3@WritePosit

; 552  : 	{
; 553  : 		Vector tmp( value[0], value[1], value[2] );

	mov	eax, 4
	shl	eax, 1
	mov	ecx, DWORD PTR _value$[ebp]
	push	ecx
	movss	xmm0, DWORD PTR [ecx+eax]
	movss	DWORD PTR [esp], xmm0
	mov	edx, 4
	shl	edx, 0
	mov	eax, DWORD PTR _value$[ebp]
	push	ecx
	movss	xmm0, DWORD PTR [eax+edx]
	movss	DWORD PTR [esp], xmm0
	mov	ecx, 4
	imul	edx, ecx, 0
	mov	eax, DWORD PTR _value$[ebp]
	push	ecx
	movss	xmm0, DWORD PTR [eax+edx]
	movss	DWORD PTR [esp], xmm0
	lea	ecx, DWORD PTR _tmp$2[ebp]
	call	??0Vector@@QAE@MMM@Z			; Vector::Vector

; 554  : 
; 555  : 		if ( m_pdata && m_pdata->fUseLandmark )

	mov	eax, DWORD PTR _this$[ebp]
	cmp	DWORD PTR [eax+24], 0
	je	SHORT $LN5@WritePosit
	mov	eax, DWORD PTR _this$[ebp]
	mov	ecx, DWORD PTR [eax+24]
	cmp	DWORD PTR [ecx+1324], 0
	je	SHORT $LN5@WritePosit

; 556  : 			tmp = tmp - m_pdata->vecLandmarkOffset;

	mov	eax, DWORD PTR _this$[ebp]
	mov	ecx, DWORD PTR [eax+24]
	add	ecx, 1348				; 00000544H
	push	ecx
	lea	edx, DWORD PTR $T1[ebp]
	push	edx
	lea	ecx, DWORD PTR _tmp$2[ebp]
	call	??GVector@@QBE?AV0@ABV0@@Z		; Vector::operator-
	mov	ecx, DWORD PTR [eax]
	mov	DWORD PTR _tmp$2[ebp], ecx
	mov	edx, DWORD PTR [eax+4]
	mov	DWORD PTR _tmp$2[ebp+4], edx
	mov	eax, DWORD PTR [eax+8]
	mov	DWORD PTR _tmp$2[ebp+8], eax
$LN5@WritePosit:

; 557  : 
; 558  : 		BufferData( (const char *)&tmp.x, sizeof(float) * 3 );

	push	12					; 0000000cH
	lea	eax, DWORD PTR _tmp$2[ebp]
	push	eax
	mov	ecx, DWORD PTR _this$[ebp]
	call	?BufferData@CSave@@AAEXPBDH@Z		; CSave::BufferData

; 559  : 		value += 3;

	mov	eax, DWORD PTR _value$[ebp]
	add	eax, 12					; 0000000cH
	mov	DWORD PTR _value$[ebp], eax

; 560  : 	}

	jmp	$LN2@WritePosit
$LN3@WritePosit:

; 561  : }

	pop	edi
	pop	esi
	pop	ebx
	mov	esp, ebp
	pop	ebp
	ret	12					; 0000000cH
?WritePositionVector@CSave@@QAEXPBDPBMH@Z ENDP		; CSave::WritePositionVector
_TEXT	ENDS
; Function compile flags: /Odtp /ZI
; File d:\!diffusion 2020\source code 2022\client-server\server\game\saverestore.cpp
;	COMDAT ?WritePositionVector@CSave@@QAEXPBDABVVector@@@Z
_TEXT	SEGMENT
_tmp$1 = -16						; size = 12
_this$ = -4						; size = 4
_pname$ = 8						; size = 4
_value$ = 12						; size = 4
?WritePositionVector@CSave@@QAEXPBDABVVector@@@Z PROC	; CSave::WritePositionVector, COMDAT
; _this$ = ecx

; 535  : {

	push	ebp
	mov	ebp, esp
	sub	esp, 80					; 00000050H
	push	ebx
	push	esi
	push	edi
	mov	DWORD PTR _this$[ebp], ecx

; 536  : 	if ( m_pdata && m_pdata->fUseLandmark )

	mov	eax, DWORD PTR _this$[ebp]
	cmp	DWORD PTR [eax+24], 0
	je	SHORT $LN2@WritePosit
	mov	eax, DWORD PTR _this$[ebp]
	mov	ecx, DWORD PTR [eax+24]
	cmp	DWORD PTR [ecx+1324], 0
	je	SHORT $LN2@WritePosit

; 537  : 	{
; 538  : 		Vector tmp = value - m_pdata->vecLandmarkOffset;

	mov	eax, DWORD PTR _this$[ebp]
	mov	ecx, DWORD PTR [eax+24]
	add	ecx, 1348				; 00000544H
	push	ecx
	lea	edx, DWORD PTR _tmp$1[ebp]
	push	edx
	mov	ecx, DWORD PTR _value$[ebp]
	call	??GVector@@QBE?AV0@ABV0@@Z		; Vector::operator-

; 539  : 		WriteVector( pname, tmp );

	lea	eax, DWORD PTR _tmp$1[ebp]
	push	eax
	mov	ecx, DWORD PTR _pname$[ebp]
	push	ecx
	mov	ecx, DWORD PTR _this$[ebp]
	call	?WriteVector@CSave@@QAEXPBDABVVector@@@Z ; CSave::WriteVector
$LN2@WritePosit:

; 540  : 	}
; 541  : 
; 542  : 	WriteVector( pname, value );

	mov	eax, DWORD PTR _value$[ebp]
	push	eax
	mov	ecx, DWORD PTR _pname$[ebp]
	push	ecx
	mov	ecx, DWORD PTR _this$[ebp]
	call	?WriteVector@CSave@@QAEXPBDABVVector@@@Z ; CSave::WriteVector

; 543  : }

	pop	edi
	pop	esi
	pop	ebx
	mov	esp, ebp
	pop	ebp
	ret	8
?WritePositionVector@CSave@@QAEXPBDABVVector@@@Z ENDP	; CSave::WritePositionVector
_TEXT	ENDS
; Function compile flags: /Odtp /ZI
; File d:\!diffusion 2020\source code 2022\client-server\server\game\saverestore.cpp
;	COMDAT ?WriteVector@CSave@@QAEXPBDPBMH@Z
_TEXT	SEGMENT
_this$ = -4						; size = 4
_pname$ = 8						; size = 4
_value$ = 12						; size = 4
_count$ = 16						; size = 4
?WriteVector@CSave@@QAEXPBDPBMH@Z PROC			; CSave::WriteVector, COMDAT
; _this$ = ecx

; 529  : {

	push	ebp
	mov	ebp, esp
	sub	esp, 68					; 00000044H
	push	ebx
	push	esi
	push	edi
	mov	DWORD PTR _this$[ebp], ecx

; 530  : 	BufferHeader( pname, sizeof(float) * 3 * count );

	imul	eax, DWORD PTR _count$[ebp], 12
	push	eax
	mov	ecx, DWORD PTR _pname$[ebp]
	push	ecx
	mov	ecx, DWORD PTR _this$[ebp]
	call	?BufferHeader@CSave@@AAEXPBDH@Z		; CSave::BufferHeader

; 531  : 	BufferData( (const char *)value, sizeof(float) * 3 * count );

	imul	eax, DWORD PTR _count$[ebp], 12
	push	eax
	mov	ecx, DWORD PTR _value$[ebp]
	push	ecx
	mov	ecx, DWORD PTR _this$[ebp]
	call	?BufferData@CSave@@AAEXPBDH@Z		; CSave::BufferData

; 532  : }

	pop	edi
	pop	esi
	pop	ebx
	mov	esp, ebp
	pop	ebp
	ret	12					; 0000000cH
?WriteVector@CSave@@QAEXPBDPBMH@Z ENDP			; CSave::WriteVector
_TEXT	ENDS
; Function compile flags: /Odtp /ZI
; File d:\!diffusion 2020\source code 2022\client-server\server\game\saverestore.cpp
;	COMDAT ?WriteVector@CSave@@QAEXPBDABVVector@@@Z
_TEXT	SEGMENT
_this$ = -4						; size = 4
_pname$ = 8						; size = 4
_value$ = 12						; size = 4
?WriteVector@CSave@@QAEXPBDABVVector@@@Z PROC		; CSave::WriteVector, COMDAT
; _this$ = ecx

; 524  : {

	push	ebp
	mov	ebp, esp
	sub	esp, 68					; 00000044H
	push	ebx
	push	esi
	push	edi
	mov	DWORD PTR _this$[ebp], ecx

; 525  : 	WriteVector( pname, &value.x, 1 );

	push	1
	mov	eax, DWORD PTR _value$[ebp]
	push	eax
	mov	ecx, DWORD PTR _pname$[ebp]
	push	ecx
	mov	ecx, DWORD PTR _this$[ebp]
	call	?WriteVector@CSave@@QAEXPBDPBMH@Z	; CSave::WriteVector

; 526  : }

	pop	edi
	pop	esi
	pop	ebx
	mov	esp, ebp
	pop	ebp
	ret	8
?WriteVector@CSave@@QAEXPBDABVVector@@@Z ENDP		; CSave::WriteVector
_TEXT	ENDS
; Function compile flags: /Odtp /ZI
; File d:\!diffusion 2020\source code 2022\client-server\server\game\saverestore.cpp
;	COMDAT ?WriteString@CSave@@QAEXPBDPBHH@Z
_TEXT	SEGMENT
_pString$1 = -16					; size = 4
_size$ = -12						; size = 4
_i$ = -8						; size = 4
_this$ = -4						; size = 4
_pname$ = 8						; size = 4
_stringId$ = 12						; size = 4
_count$ = 16						; size = 4
?WriteString@CSave@@QAEXPBDPBHH@Z PROC			; CSave::WriteString, COMDAT
; _this$ = ecx

; 503  : {

	push	ebp
	mov	ebp, esp
	sub	esp, 80					; 00000050H
	push	ebx
	push	esi
	push	edi
	mov	DWORD PTR _this$[ebp], ecx

; 504  : 	int i, size;
; 505  : 
; 506  : #ifdef TOKENIZE
; 507  : 	short	token = (short)TokenHash( STRING( *stringId ) );
; 508  : 	WriteShort( pname, &token, 1 );
; 509  : #else
; 510  : 	size = 0;

	mov	DWORD PTR _size$[ebp], 0

; 511  : 	for ( i = 0; i < count; i++ )

	mov	DWORD PTR _i$[ebp], 0
	jmp	SHORT $LN4@WriteStrin
$LN2@WriteStrin:
	mov	eax, DWORD PTR _i$[ebp]
	add	eax, 1
	mov	DWORD PTR _i$[ebp], eax
$LN4@WriteStrin:
	mov	eax, DWORD PTR _i$[ebp]
	cmp	eax, DWORD PTR _count$[ebp]
	jge	SHORT $LN3@WriteStrin

; 512  : 		size += strlen( STRING( stringId[i] ) ) + 1;

	mov	eax, DWORD PTR _i$[ebp]
	mov	ecx, DWORD PTR _stringId$[ebp]
	mov	edx, DWORD PTR [ecx+eax*4]
	push	edx
	call	DWORD PTR ?g_engfuncs@@3Uenginefuncs_s@@A+264
	add	esp, 4
	push	eax
	call	_strlen
	add	esp, 4
	mov	ecx, DWORD PTR _size$[ebp]
	lea	edx, DWORD PTR [ecx+eax+1]
	mov	DWORD PTR _size$[ebp], edx
	jmp	SHORT $LN2@WriteStrin
$LN3@WriteStrin:

; 513  : 
; 514  : 	BufferHeader( pname, size );

	mov	eax, DWORD PTR _size$[ebp]
	push	eax
	mov	ecx, DWORD PTR _pname$[ebp]
	push	ecx
	mov	ecx, DWORD PTR _this$[ebp]
	call	?BufferHeader@CSave@@AAEXPBDH@Z		; CSave::BufferHeader

; 515  : 	for ( i = 0; i < count; i++ )

	mov	DWORD PTR _i$[ebp], 0
	jmp	SHORT $LN7@WriteStrin
$LN5@WriteStrin:
	mov	eax, DWORD PTR _i$[ebp]
	add	eax, 1
	mov	DWORD PTR _i$[ebp], eax
$LN7@WriteStrin:
	mov	eax, DWORD PTR _i$[ebp]
	cmp	eax, DWORD PTR _count$[ebp]
	jge	SHORT $LN1@WriteStrin

; 516  : 	{
; 517  : 		const char *pString = STRING(stringId[i]);

	mov	eax, DWORD PTR _i$[ebp]
	mov	ecx, DWORD PTR _stringId$[ebp]
	mov	edx, DWORD PTR [ecx+eax*4]
	push	edx
	call	DWORD PTR ?g_engfuncs@@3Uenginefuncs_s@@A+264
	add	esp, 4
	mov	DWORD PTR _pString$1[ebp], eax

; 518  : 		BufferData( pString, strlen(pString)+1 );

	mov	eax, DWORD PTR _pString$1[ebp]
	push	eax
	call	_strlen
	add	esp, 4
	add	eax, 1
	push	eax
	mov	ecx, DWORD PTR _pString$1[ebp]
	push	ecx
	mov	ecx, DWORD PTR _this$[ebp]
	call	?BufferData@CSave@@AAEXPBDH@Z		; CSave::BufferData

; 519  : 	}

	jmp	SHORT $LN5@WriteStrin
$LN1@WriteStrin:

; 520  : #endif
; 521  : }

	pop	edi
	pop	esi
	pop	ebx
	mov	esp, ebp
	pop	ebp
	ret	12					; 0000000cH
?WriteString@CSave@@QAEXPBDPBHH@Z ENDP			; CSave::WriteString
_TEXT	ENDS
; Function compile flags: /Odtp /ZI
; File d:\!diffusion 2020\source code 2022\client-server\server\game\saverestore.cpp
;	COMDAT ?WriteString@CSave@@QAEXPBD0@Z
_TEXT	SEGMENT
_this$ = -4						; size = 4
_pname$ = 8						; size = 4
_pdata$ = 12						; size = 4
?WriteString@CSave@@QAEXPBD0@Z PROC			; CSave::WriteString, COMDAT
; _this$ = ecx

; 493  : {

	push	ebp
	mov	ebp, esp
	sub	esp, 68					; 00000044H
	push	ebx
	push	esi
	push	edi
	mov	DWORD PTR _this$[ebp], ecx

; 494  : #ifdef TOKENIZE
; 495  : 	short	token = (short)TokenHash( pdata );
; 496  : 	WriteShort( pname, &token, 1 );
; 497  : #else
; 498  : 	BufferField( pname, strlen(pdata) + 1, pdata );

	mov	eax, DWORD PTR _pdata$[ebp]
	push	eax
	mov	ecx, DWORD PTR _pdata$[ebp]
	push	ecx
	call	_strlen
	add	esp, 4
	add	eax, 1
	push	eax
	mov	edx, DWORD PTR _pname$[ebp]
	push	edx
	mov	ecx, DWORD PTR _this$[ebp]
	call	?BufferField@CSave@@AAEXPBDH0@Z		; CSave::BufferField

; 499  : #endif
; 500  : }

	pop	edi
	pop	esi
	pop	ebx
	mov	esp, ebp
	pop	ebp
	ret	8
?WriteString@CSave@@QAEXPBD0@Z ENDP			; CSave::WriteString
_TEXT	ENDS
; Function compile flags: /Odtp /ZI
; File d:\!diffusion 2020\source code 2022\client-server\server\game\saverestore.cpp
;	COMDAT ?WriteData@CSave@@QAEXPBDH0@Z
_TEXT	SEGMENT
_this$ = -4						; size = 4
_pname$ = 8						; size = 4
_size$ = 12						; size = 4
_pdata$ = 16						; size = 4
?WriteData@CSave@@QAEXPBDH0@Z PROC			; CSave::WriteData, COMDAT
; _this$ = ecx

; 453  : {

	push	ebp
	mov	ebp, esp
	sub	esp, 68					; 00000044H
	push	ebx
	push	esi
	push	edi
	mov	DWORD PTR _this$[ebp], ecx

; 454  : 	BufferField( pname, size, pdata );

	mov	eax, DWORD PTR _pdata$[ebp]
	push	eax
	mov	ecx, DWORD PTR _size$[ebp]
	push	ecx
	mov	edx, DWORD PTR _pname$[ebp]
	push	edx
	mov	ecx, DWORD PTR _this$[ebp]
	call	?BufferField@CSave@@AAEXPBDH0@Z		; CSave::BufferField

; 455  : }

	pop	edi
	pop	esi
	pop	ebx
	mov	esp, ebp
	pop	ebp
	ret	12					; 0000000cH
?WriteData@CSave@@QAEXPBDH0@Z ENDP			; CSave::WriteData
_TEXT	ENDS
; Function compile flags: /Odtp /ZI
; File d:\!diffusion 2020\source code 2022\client-server\server\game\saverestore.cpp
;	COMDAT ?WriteTime@CSave@@QAEXPBDPBMH@Z
_TEXT	SEGMENT
_tmp$1 = -36						; size = 4
_input$ = -32						; size = 12
_tmp$ = -20						; size = 12
_i$ = -8						; size = 4
_this$ = -4						; size = 4
_pname$ = 8						; size = 4
_data$ = 12						; size = 4
_count$ = 16						; size = 4
?WriteTime@CSave@@QAEXPBDPBMH@Z PROC			; CSave::WriteTime, COMDAT
; _this$ = ecx

; 473  : {

	push	ebp
	mov	ebp, esp
	sub	esp, 100				; 00000064H
	push	ebx
	push	esi
	push	edi
	mov	DWORD PTR _this$[ebp], ecx

; 474  : 	int i;
; 475  : 	Vector tmp, input;

	lea	ecx, DWORD PTR _tmp$[ebp]
	call	??0Vector@@QAE@XZ			; Vector::Vector
	lea	ecx, DWORD PTR _input$[ebp]
	call	??0Vector@@QAE@XZ			; Vector::Vector

; 476  : 
; 477  : 	BufferHeader( pname, sizeof(float) * count );

	mov	eax, DWORD PTR _count$[ebp]
	shl	eax, 2
	push	eax
	mov	ecx, DWORD PTR _pname$[ebp]
	push	ecx
	mov	ecx, DWORD PTR _this$[ebp]
	call	?BufferHeader@CSave@@AAEXPBDH@Z		; CSave::BufferHeader

; 478  : 	for ( i = 0; i < count; i++ )

	mov	DWORD PTR _i$[ebp], 0
	jmp	SHORT $LN4@WriteTime
$LN2@WriteTime:
	mov	eax, DWORD PTR _i$[ebp]
	add	eax, 1
	mov	DWORD PTR _i$[ebp], eax
$LN4@WriteTime:
	mov	eax, DWORD PTR _i$[ebp]
	cmp	eax, DWORD PTR _count$[ebp]
	jge	SHORT $LN3@WriteTime

; 479  : 	{
; 480  : 		float tmp = data[0];

	mov	eax, 4
	imul	ecx, eax, 0
	mov	edx, DWORD PTR _data$[ebp]
	movss	xmm0, DWORD PTR [edx+ecx]
	movss	DWORD PTR _tmp$1[ebp], xmm0

; 481  : 
; 482  : 		// Always encode time as a delta from the current time so it can be re-based if loaded in a new level
; 483  : 		// Times of 0 are never written to the file, so they will be restored as 0, not a relative time
; 484  : 		if ( m_pdata )

	mov	eax, DWORD PTR _this$[ebp]
	cmp	DWORD PTR [eax+24], 0
	je	SHORT $LN5@WriteTime

; 485  : 			tmp -= m_pdata->time;

	mov	eax, DWORD PTR _this$[ebp]
	mov	ecx, DWORD PTR [eax+24]
	movss	xmm0, DWORD PTR _tmp$1[ebp]
	subss	xmm0, DWORD PTR [ecx+1360]
	movss	DWORD PTR _tmp$1[ebp], xmm0
$LN5@WriteTime:

; 486  : 
; 487  : 		BufferData( (const char *)&tmp, sizeof(float) );

	push	4
	lea	eax, DWORD PTR _tmp$1[ebp]
	push	eax
	mov	ecx, DWORD PTR _this$[ebp]
	call	?BufferData@CSave@@AAEXPBDH@Z		; CSave::BufferData

; 488  : 		data ++;

	mov	eax, DWORD PTR _data$[ebp]
	add	eax, 4
	mov	DWORD PTR _data$[ebp], eax

; 489  : 	}

	jmp	SHORT $LN2@WriteTime
$LN3@WriteTime:

; 490  : }

	pop	edi
	pop	esi
	pop	ebx
	mov	esp, ebp
	pop	ebp
	ret	12					; 0000000cH
?WriteTime@CSave@@QAEXPBDPBMH@Z ENDP			; CSave::WriteTime
_TEXT	ENDS
; Function compile flags: /Odtp /ZI
; File d:\!diffusion 2020\source code 2022\client-server\server\game\saverestore.cpp
;	COMDAT ?WriteFloat@CSave@@QAEXPBDPBMH@Z
_TEXT	SEGMENT
_this$ = -4						; size = 4
_pname$ = 8						; size = 4
_data$ = 12						; size = 4
_count$ = 16						; size = 4
?WriteFloat@CSave@@QAEXPBDPBMH@Z PROC			; CSave::WriteFloat, COMDAT
; _this$ = ecx

; 468  : {

	push	ebp
	mov	ebp, esp
	sub	esp, 68					; 00000044H
	push	ebx
	push	esi
	push	edi
	mov	DWORD PTR _this$[ebp], ecx

; 469  : 	BufferField( pname, sizeof(float) * count, (const char *)data );

	mov	eax, DWORD PTR _data$[ebp]
	push	eax
	mov	ecx, DWORD PTR _count$[ebp]
	shl	ecx, 2
	push	ecx
	mov	edx, DWORD PTR _pname$[ebp]
	push	edx
	mov	ecx, DWORD PTR _this$[ebp]
	call	?BufferField@CSave@@AAEXPBDH0@Z		; CSave::BufferField

; 470  : }

	pop	edi
	pop	esi
	pop	ebx
	mov	esp, ebp
	pop	ebp
	ret	12					; 0000000cH
?WriteFloat@CSave@@QAEXPBDPBMH@Z ENDP			; CSave::WriteFloat
_TEXT	ENDS
; Function compile flags: /Odtp /ZI
; File d:\!diffusion 2020\source code 2022\client-server\server\game\saverestore.cpp
;	COMDAT ?WriteInt@CSave@@QAEXPBDPBHH@Z
_TEXT	SEGMENT
_this$ = -4						; size = 4
_pname$ = 8						; size = 4
_data$ = 12						; size = 4
_count$ = 16						; size = 4
?WriteInt@CSave@@QAEXPBDPBHH@Z PROC			; CSave::WriteInt, COMDAT
; _this$ = ecx

; 463  : {

	push	ebp
	mov	ebp, esp
	sub	esp, 68					; 00000044H
	push	ebx
	push	esi
	push	edi
	mov	DWORD PTR _this$[ebp], ecx

; 464  : 	BufferField( pname, sizeof(int) * count, (const char *)data );

	mov	eax, DWORD PTR _data$[ebp]
	push	eax
	mov	ecx, DWORD PTR _count$[ebp]
	shl	ecx, 2
	push	ecx
	mov	edx, DWORD PTR _pname$[ebp]
	push	edx
	mov	ecx, DWORD PTR _this$[ebp]
	call	?BufferField@CSave@@AAEXPBDH0@Z		; CSave::BufferField

; 465  : }

	pop	edi
	pop	esi
	pop	ebx
	mov	esp, ebp
	pop	ebp
	ret	12					; 0000000cH
?WriteInt@CSave@@QAEXPBDPBHH@Z ENDP			; CSave::WriteInt
_TEXT	ENDS
; Function compile flags: /Odtp /ZI
; File d:\!diffusion 2020\source code 2022\client-server\server\game\saverestore.cpp
;	COMDAT ?WriteShort@CSave@@QAEXPBDPBFH@Z
_TEXT	SEGMENT
_this$ = -4						; size = 4
_pname$ = 8						; size = 4
_data$ = 12						; size = 4
_count$ = 16						; size = 4
?WriteShort@CSave@@QAEXPBDPBFH@Z PROC			; CSave::WriteShort, COMDAT
; _this$ = ecx

; 458  : {

	push	ebp
	mov	ebp, esp
	sub	esp, 68					; 00000044H
	push	ebx
	push	esi
	push	edi
	mov	DWORD PTR _this$[ebp], ecx

; 459  : 	BufferField( pname, sizeof(short) * count, (const char *)data );

	mov	eax, DWORD PTR _data$[ebp]
	push	eax
	mov	ecx, DWORD PTR _count$[ebp]
	shl	ecx, 1
	push	ecx
	mov	edx, DWORD PTR _pname$[ebp]
	push	edx
	mov	ecx, DWORD PTR _this$[ebp]
	call	?BufferField@CSave@@AAEXPBDH0@Z		; CSave::BufferField

; 460  : }

	pop	edi
	pop	esi
	pop	ebx
	mov	esp, ebp
	pop	ebp
	ret	12					; 0000000cH
?WriteShort@CSave@@QAEXPBDPBFH@Z ENDP			; CSave::WriteShort
_TEXT	ENDS
; Function compile flags: /Odtp /ZI
; File d:\!diffusion 2020\source code 2022\client-server\server\game\saverestore.cpp
;	COMDAT ?DoWriteAll@CSave@@QAEHPBXPAUdatamap_s@@1@Z
_TEXT	SEGMENT
_status$1 = -8						; size = 4
_this$ = -4						; size = 4
_pLeafObject$ = 8					; size = 4
_pLeafMap$ = 12						; size = 4
_pCurMap$ = 16						; size = 4
?DoWriteAll@CSave@@QAEHPBXPAUdatamap_s@@1@Z PROC	; CSave::DoWriteAll, COMDAT
; _this$ = ecx

; 654  : {

	push	ebp
	mov	ebp, esp
	sub	esp, 72					; 00000048H
	push	ebx
	push	esi
	push	edi
	mov	DWORD PTR _this$[ebp], ecx

; 655  : 	// save base classes first
; 656  : 	if ( pCurMap->baseMap )

	mov	eax, DWORD PTR _pCurMap$[ebp]
	cmp	DWORD PTR [eax+12], 0
	je	SHORT $LN2@DoWriteAll

; 657  : 	{
; 658  : 		int status = DoWriteAll( pLeafObject, pLeafMap, pCurMap->baseMap );

	mov	eax, DWORD PTR _pCurMap$[ebp]
	mov	ecx, DWORD PTR [eax+12]
	push	ecx
	mov	edx, DWORD PTR _pLeafMap$[ebp]
	push	edx
	mov	eax, DWORD PTR _pLeafObject$[ebp]
	push	eax
	mov	ecx, DWORD PTR _this$[ebp]
	call	?DoWriteAll@CSave@@QAEHPBXPAUdatamap_s@@1@Z ; CSave::DoWriteAll
	mov	DWORD PTR _status$1[ebp], eax

; 659  : 		if( !status )

	cmp	DWORD PTR _status$1[ebp], 0
	jne	SHORT $LN2@DoWriteAll

; 660  : 			return status;

	mov	eax, DWORD PTR _status$1[ebp]
	jmp	SHORT $LN1@DoWriteAll
$LN2@DoWriteAll:

; 661  : 	}
; 662  : 
; 663  : 	return WriteFields( pCurMap->dataClassName, pLeafObject, pLeafMap, pCurMap->dataDesc, pCurMap->dataNumFields );

	mov	eax, DWORD PTR _pCurMap$[ebp]
	mov	ecx, DWORD PTR [eax+4]
	push	ecx
	mov	edx, DWORD PTR _pCurMap$[ebp]
	mov	eax, DWORD PTR [edx]
	push	eax
	mov	ecx, DWORD PTR _pLeafMap$[ebp]
	push	ecx
	mov	edx, DWORD PTR _pLeafObject$[ebp]
	push	edx
	mov	eax, DWORD PTR _pCurMap$[ebp]
	mov	ecx, DWORD PTR [eax+8]
	push	ecx
	mov	ecx, DWORD PTR _this$[ebp]
	call	?WriteFields@CSave@@QAEHPBDPBXPAUdatamap_s@@PAUtypedescription_s@@H@Z ; CSave::WriteFields
$LN1@DoWriteAll:

; 664  : }

	pop	edi
	pop	esi
	pop	ebx
	mov	esp, ebp
	pop	ebp
	ret	12					; 0000000cH
?DoWriteAll@CSave@@QAEHPBXPAUdatamap_s@@1@Z ENDP	; CSave::DoWriteAll
_TEXT	ENDS
; Function compile flags: /Odtp /ZI
; File d:\!diffusion 2020\source code 2022\client-server\server\game\saverestore.cpp
;	COMDAT ?HashString@CSaveRestoreBuffer@@IAEIPBD@Z
_TEXT	SEGMENT
_hash$ = -8						; size = 4
_this$ = -4						; size = 4
_pszToken$ = 8						; size = 4
?HashString@CSaveRestoreBuffer@@IAEIPBD@Z PROC		; CSaveRestoreBuffer::HashString, COMDAT
; _this$ = ecx

; 302  : {

	push	ebp
	mov	ebp, esp
	sub	esp, 72					; 00000048H
	push	ebx
	push	esi
	push	edi
	mov	DWORD PTR _this$[ebp], ecx

; 303  : 	unsigned int	hash = 0;

	mov	DWORD PTR _hash$[ebp], 0
$LN2@HashString:

; 304  : 
; 305  : 	while ( *pszToken )

	mov	eax, DWORD PTR _pszToken$[ebp]
	movsx	ecx, BYTE PTR [eax]
	test	ecx, ecx
	je	SHORT $LN3@HashString

; 306  : 		hash = _rotr( hash, 4 ) ^ *pszToken++;

	mov	eax, DWORD PTR _hash$[ebp]
	ror	eax, 4
	mov	ecx, DWORD PTR _pszToken$[ebp]
	movsx	edx, BYTE PTR [ecx]
	xor	eax, edx
	mov	DWORD PTR _hash$[ebp], eax
	mov	eax, DWORD PTR _pszToken$[ebp]
	add	eax, 1
	mov	DWORD PTR _pszToken$[ebp], eax
	jmp	SHORT $LN2@HashString
$LN3@HashString:

; 307  : 
; 308  : 	return hash;

	mov	eax, DWORD PTR _hash$[ebp]

; 309  : }

	pop	edi
	pop	esi
	pop	ebx
	mov	esp, ebp
	pop	ebp
	ret	4
?HashString@CSaveRestoreBuffer@@IAEIPBD@Z ENDP		; CSaveRestoreBuffer::HashString
_TEXT	ENDS
; Function compile flags: /Odtp /ZI
; File d:\!diffusion 2020\source code 2022\client-server\server\game\saverestore.cpp
;	COMDAT ?BufferRewind@CSaveRestoreBuffer@@IAEXH@Z
_TEXT	SEGMENT
_this$ = -4						; size = 4
_size$ = 8						; size = 4
?BufferRewind@CSaveRestoreBuffer@@IAEXH@Z PROC		; CSaveRestoreBuffer::BufferRewind, COMDAT
; _this$ = ecx

; 268  : {

	push	ebp
	mov	ebp, esp
	sub	esp, 68					; 00000044H
	push	ebx
	push	esi
	push	edi
	mov	DWORD PTR _this$[ebp], ecx

; 269  : 	if ( !m_pdata )

	mov	eax, DWORD PTR _this$[ebp]
	cmp	DWORD PTR [eax+24], 0
	jne	SHORT $LN2@BufferRewi

; 270  : 		return;

	jmp	SHORT $LN1@BufferRewi
$LN2@BufferRewi:

; 271  : 
; 272  : 	if ( m_pdata->size < size )

	mov	eax, DWORD PTR _this$[ebp]
	mov	ecx, DWORD PTR [eax+24]
	mov	edx, DWORD PTR [ecx+8]
	cmp	edx, DWORD PTR _size$[ebp]
	jge	SHORT $LN3@BufferRewi

; 273  : 		size = m_pdata->size;

	mov	eax, DWORD PTR _this$[ebp]
	mov	ecx, DWORD PTR [eax+24]
	mov	edx, DWORD PTR [ecx+8]
	mov	DWORD PTR _size$[ebp], edx
$LN3@BufferRewi:

; 274  : 
; 275  : 	m_pdata->pCurrentData -= size;

	mov	eax, DWORD PTR _this$[ebp]
	mov	ecx, DWORD PTR [eax+24]
	mov	edx, DWORD PTR [ecx+4]
	sub	edx, DWORD PTR _size$[ebp]
	mov	eax, DWORD PTR _this$[ebp]
	mov	ecx, DWORD PTR [eax+24]
	mov	DWORD PTR [ecx+4], edx

; 276  : 	m_pdata->size -= size;

	mov	eax, DWORD PTR _this$[ebp]
	mov	ecx, DWORD PTR [eax+24]
	mov	edx, DWORD PTR [ecx+8]
	sub	edx, DWORD PTR _size$[ebp]
	mov	eax, DWORD PTR _this$[ebp]
	mov	ecx, DWORD PTR [eax+24]
	mov	DWORD PTR [ecx+8], edx
$LN1@BufferRewi:

; 277  : }

	pop	edi
	pop	esi
	pop	ebx
	mov	esp, ebp
	pop	ebp
	ret	4
?BufferRewind@CSaveRestoreBuffer@@IAEXH@Z ENDP		; CSaveRestoreBuffer::BufferRewind
_TEXT	ENDS
; Function compile flags: /Odtp /ZI
; File d:\!diffusion 2020\source code 2022\client-server\server\game\saverestore.cpp
;	COMDAT ?TokenHash@CSaveRestoreBuffer@@QAEGPBD@Z
_TEXT	SEGMENT
_index$1 = -16						; size = 4
_i$2 = -12						; size = 4
_hash$ = -8						; size = 2
_this$ = -4						; size = 4
_pszToken$ = 8						; size = 4
?TokenHash@CSaveRestoreBuffer@@QAEGPBD@Z PROC		; CSaveRestoreBuffer::TokenHash, COMDAT
; _this$ = ecx

; 312  : {

	push	ebp
	mov	ebp, esp
	sub	esp, 80					; 00000050H
	push	ebx
	push	esi
	push	edi
	mov	DWORD PTR _this$[ebp], ecx

; 313  : 	unsigned short	hash = (unsigned short)(HashString( pszToken ) % (unsigned)m_pdata->tokenCount );

	mov	eax, DWORD PTR _pszToken$[ebp]
	push	eax
	mov	ecx, DWORD PTR _this$[ebp]
	call	?HashString@CSaveRestoreBuffer@@IAEIPBD@Z ; CSaveRestoreBuffer::HashString
	mov	ecx, DWORD PTR _this$[ebp]
	mov	ecx, DWORD PTR [ecx+24]
	xor	edx, edx
	div	DWORD PTR [ecx+20]
	mov	WORD PTR _hash$[ebp], dx

; 314  : 	
; 315  : #if _DEBUG
; 316  : 	static int tokensparsed = 0;
; 317  : 	tokensparsed++;

	mov	eax, DWORD PTR ?tokensparsed@?1??TokenHash@CSaveRestoreBuffer@@QAEGPBD@Z@4HA
	add	eax, 1
	mov	DWORD PTR ?tokensparsed@?1??TokenHash@CSaveRestoreBuffer@@QAEGPBD@Z@4HA, eax

; 318  : 	if ( !m_pdata->tokenCount || !m_pdata->pTokens )

	mov	eax, DWORD PTR _this$[ebp]
	mov	ecx, DWORD PTR [eax+24]
	cmp	DWORD PTR [ecx+20], 0
	je	SHORT $LN6@TokenHash
	mov	eax, DWORD PTR _this$[ebp]
	mov	ecx, DWORD PTR [eax+24]
	cmp	DWORD PTR [ecx+24], 0
	jne	SHORT $LN5@TokenHash
$LN6@TokenHash:

; 319  : 		ALERT( at_error, "No token table array in TokenHash()!" );

	push	OFFSET ??_C@_0CF@NBIBCMLK@No?5token?5table?5array?5in?5TokenHas@
	push	4
	call	DWORD PTR ?g_engfuncs@@3Uenginefuncs_s@@A+244
	add	esp, 8
$LN5@TokenHash:

; 320  : #endif
; 321  : 
; 322  : 	for ( int i=0; i<m_pdata->tokenCount; i++ )

	mov	DWORD PTR _i$2[ebp], 0
	jmp	SHORT $LN4@TokenHash
$LN2@TokenHash:
	mov	eax, DWORD PTR _i$2[ebp]
	add	eax, 1
	mov	DWORD PTR _i$2[ebp], eax
$LN4@TokenHash:
	mov	eax, DWORD PTR _this$[ebp]
	mov	ecx, DWORD PTR [eax+24]
	mov	edx, DWORD PTR _i$2[ebp]
	cmp	edx, DWORD PTR [ecx+20]
	jge	$LN3@TokenHash

; 323  : 	{
; 324  : #if _DEBUG
; 325  : 		static qboolean beentheredonethat = FALSE;
; 326  : 		if ( i > 50 && !beentheredonethat )

	cmp	DWORD PTR _i$2[ebp], 50			; 00000032H
	jle	SHORT $LN7@TokenHash
	cmp	DWORD PTR ?beentheredonethat@?5??TokenHash@CSaveRestoreBuffer@@QAEGPBD@Z@4HA, 0
	jne	SHORT $LN7@TokenHash

; 327  : 		{
; 328  : 			beentheredonethat = TRUE;

	mov	DWORD PTR ?beentheredonethat@?5??TokenHash@CSaveRestoreBuffer@@QAEGPBD@Z@4HA, 1

; 329  : 			ALERT( at_error, "CSaveRestoreBuffer :: TokenHash() is getting too full!" );

	push	OFFSET ??_C@_0DH@GDIMFBJD@CSaveRestoreBuffer?5?3?3?5TokenHash?$CI@
	push	4
	call	DWORD PTR ?g_engfuncs@@3Uenginefuncs_s@@A+244
	add	esp, 8
$LN7@TokenHash:

; 330  : 		}
; 331  : #endif
; 332  : 
; 333  : 		int	index = hash + i;

	movzx	eax, WORD PTR _hash$[ebp]
	add	eax, DWORD PTR _i$2[ebp]
	mov	DWORD PTR _index$1[ebp], eax

; 334  : 		if ( index >= m_pdata->tokenCount )

	mov	eax, DWORD PTR _this$[ebp]
	mov	ecx, DWORD PTR [eax+24]
	mov	edx, DWORD PTR _index$1[ebp]
	cmp	edx, DWORD PTR [ecx+20]
	jl	SHORT $LN8@TokenHash

; 335  : 			index -= m_pdata->tokenCount;

	mov	eax, DWORD PTR _this$[ebp]
	mov	ecx, DWORD PTR [eax+24]
	mov	edx, DWORD PTR _index$1[ebp]
	sub	edx, DWORD PTR [ecx+20]
	mov	DWORD PTR _index$1[ebp], edx
$LN8@TokenHash:

; 336  : 
; 337  : 		if ( !m_pdata->pTokens[index] || strcmp( pszToken, m_pdata->pTokens[index] ) == 0 )

	mov	eax, DWORD PTR _this$[ebp]
	mov	ecx, DWORD PTR [eax+24]
	mov	edx, DWORD PTR [ecx+24]
	mov	eax, DWORD PTR _index$1[ebp]
	cmp	DWORD PTR [edx+eax*4], 0
	je	SHORT $LN10@TokenHash
	mov	eax, DWORD PTR _this$[ebp]
	mov	ecx, DWORD PTR [eax+24]
	mov	edx, DWORD PTR [ecx+24]
	mov	eax, DWORD PTR _index$1[ebp]
	mov	ecx, DWORD PTR [edx+eax*4]
	push	ecx
	mov	edx, DWORD PTR _pszToken$[ebp]
	push	edx
	call	_strcmp
	add	esp, 8
	test	eax, eax
	jne	SHORT $LN9@TokenHash
$LN10@TokenHash:

; 338  : 		{
; 339  : 			m_pdata->pTokens[index] = (char *)pszToken;

	mov	eax, DWORD PTR _this$[ebp]
	mov	ecx, DWORD PTR [eax+24]
	mov	edx, DWORD PTR [ecx+24]
	mov	eax, DWORD PTR _index$1[ebp]
	mov	ecx, DWORD PTR _pszToken$[ebp]
	mov	DWORD PTR [edx+eax*4], ecx

; 340  : 			return index;

	mov	ax, WORD PTR _index$1[ebp]
	jmp	SHORT $LN1@TokenHash
$LN9@TokenHash:

; 341  : 		}
; 342  : 	}

	jmp	$LN2@TokenHash
$LN3@TokenHash:

; 343  : 		
; 344  : 	// Token hash table full!!! 
; 345  : 	// [Consider doing overflow table(s) after the main table & limiting linear hash table search]
; 346  : 	ALERT( at_error, "CSaveRestoreBuffer :: TokenHash() is COMPLETELY FULL!" );

	push	OFFSET ??_C@_0DG@PLEHHJFB@CSaveRestoreBuffer?5?3?3?5TokenHash?$CI@
	push	4
	call	DWORD PTR ?g_engfuncs@@3Uenginefuncs_s@@A+244
	add	esp, 8

; 347  : 	return 0;

	xor	eax, eax
$LN1@TokenHash:

; 348  : }

	pop	edi
	pop	esi
	pop	ebx
	mov	esp, ebp
	pop	ebp
	ret	4
?TokenHash@CSaveRestoreBuffer@@QAEGPBD@Z ENDP		; CSaveRestoreBuffer::TokenHash
_TEXT	ENDS
; Function compile flags: /Odtp /ZI
; File d:\!diffusion 2020\source code 2022\client-server\server\game\saverestore.cpp
;	COMDAT ?EntityFromIndex@CSaveRestoreBuffer@@QAEPAUedict_s@@H@Z
_TEXT	SEGMENT
_pTable$ = -12						; size = 4
_i$ = -8						; size = 4
_this$ = -4						; size = 4
_entityIndex$ = 8					; size = 4
?EntityFromIndex@CSaveRestoreBuffer@@QAEPAUedict_s@@H@Z PROC ; CSaveRestoreBuffer::EntityFromIndex, COMDAT
; _this$ = ecx

; 239  : {

	push	ebp
	mov	ebp, esp
	sub	esp, 76					; 0000004cH
	push	ebx
	push	esi
	push	edi
	mov	DWORD PTR _this$[ebp], ecx

; 240  : 	if ( !m_pdata || entityIndex < 0 )

	mov	eax, DWORD PTR _this$[ebp]
	cmp	DWORD PTR [eax+24], 0
	je	SHORT $LN6@EntityFrom
	cmp	DWORD PTR _entityIndex$[ebp], 0
	jge	SHORT $LN5@EntityFrom
$LN6@EntityFrom:

; 241  : 		return NULL;

	xor	eax, eax
	jmp	SHORT $LN1@EntityFrom
$LN5@EntityFrom:

; 242  : 
; 243  : 	int i;
; 244  : 	ENTITYTABLE *pTable;
; 245  : 
; 246  : 	for ( i = 0; i < m_pdata->tableCount; i++ )

	mov	DWORD PTR _i$[ebp], 0
	jmp	SHORT $LN4@EntityFrom
$LN2@EntityFrom:
	mov	eax, DWORD PTR _i$[ebp]
	add	eax, 1
	mov	DWORD PTR _i$[ebp], eax
$LN4@EntityFrom:
	mov	eax, DWORD PTR _this$[ebp]
	mov	ecx, DWORD PTR [eax+24]
	mov	edx, DWORD PTR _i$[ebp]
	cmp	edx, DWORD PTR [ecx+32]
	jge	SHORT $LN3@EntityFrom

; 247  : 	{
; 248  : 		pTable = m_pdata->pTable + i;

	mov	eax, DWORD PTR _this$[ebp]
	mov	ecx, DWORD PTR [eax+24]
	imul	edx, DWORD PTR _i$[ebp], 24
	add	edx, DWORD PTR [ecx+40]
	mov	DWORD PTR _pTable$[ebp], edx

; 249  : 		if ( pTable->id == entityIndex )

	mov	eax, DWORD PTR _pTable$[ebp]
	mov	ecx, DWORD PTR [eax]
	cmp	ecx, DWORD PTR _entityIndex$[ebp]
	jne	SHORT $LN7@EntityFrom

; 250  : 			return pTable->pent;

	mov	eax, DWORD PTR _pTable$[ebp]
	mov	eax, DWORD PTR [eax+4]
	jmp	SHORT $LN1@EntityFrom
$LN7@EntityFrom:

; 251  : 	}

	jmp	SHORT $LN2@EntityFrom
$LN3@EntityFrom:

; 252  : 	return NULL;

	xor	eax, eax
$LN1@EntityFrom:

; 253  : }

	pop	edi
	pop	esi
	pop	ebx
	mov	esp, ebp
	pop	ebp
	ret	4
?EntityFromIndex@CSaveRestoreBuffer@@QAEPAUedict_s@@H@Z ENDP ; CSaveRestoreBuffer::EntityFromIndex
_TEXT	ENDS
; Function compile flags: /Odtp /ZI
; File d:\!diffusion 2020\source code 2022\client-server\server\game\saverestore.cpp
;	COMDAT ?EntityFlagsSet@CSaveRestoreBuffer@@QAEHHH@Z
_TEXT	SEGMENT
_this$ = -4						; size = 4
_entityIndex$ = 8					; size = 4
_flags$ = 12						; size = 4
?EntityFlagsSet@CSaveRestoreBuffer@@QAEHHH@Z PROC	; CSaveRestoreBuffer::EntityFlagsSet, COMDAT
; _this$ = ecx

; 256  : {

	push	ebp
	mov	ebp, esp
	sub	esp, 68					; 00000044H
	push	ebx
	push	esi
	push	edi
	mov	DWORD PTR _this$[ebp], ecx

; 257  : 	if ( !m_pdata || entityIndex < 0 )

	mov	eax, DWORD PTR _this$[ebp]
	cmp	DWORD PTR [eax+24], 0
	je	SHORT $LN3@EntityFlag
	cmp	DWORD PTR _entityIndex$[ebp], 0
	jge	SHORT $LN2@EntityFlag
$LN3@EntityFlag:

; 258  : 		return 0;

	xor	eax, eax
	jmp	SHORT $LN1@EntityFlag
$LN2@EntityFlag:

; 259  : 	if ( entityIndex > m_pdata->tableCount )

	mov	eax, DWORD PTR _this$[ebp]
	mov	ecx, DWORD PTR [eax+24]
	mov	edx, DWORD PTR _entityIndex$[ebp]
	cmp	edx, DWORD PTR [ecx+32]
	jle	SHORT $LN4@EntityFlag

; 260  : 		return 0;

	xor	eax, eax
	jmp	SHORT $LN1@EntityFlag
$LN4@EntityFlag:

; 261  : 
; 262  : 	m_pdata->pTable[ entityIndex ].flags |= flags;

	mov	eax, DWORD PTR _this$[ebp]
	mov	ecx, DWORD PTR [eax+24]
	imul	edx, DWORD PTR _entityIndex$[ebp], 24
	mov	eax, DWORD PTR [ecx+40]
	mov	ecx, DWORD PTR [eax+edx+16]
	or	ecx, DWORD PTR _flags$[ebp]
	mov	edx, DWORD PTR _this$[ebp]
	mov	eax, DWORD PTR [edx+24]
	imul	edx, DWORD PTR _entityIndex$[ebp], 24
	mov	eax, DWORD PTR [eax+40]
	mov	DWORD PTR [eax+edx+16], ecx

; 263  : 
; 264  : 	return m_pdata->pTable[ entityIndex ].flags;

	mov	eax, DWORD PTR _this$[ebp]
	mov	ecx, DWORD PTR [eax+24]
	imul	edx, DWORD PTR _entityIndex$[ebp], 24
	mov	eax, DWORD PTR [ecx+40]
	mov	eax, DWORD PTR [eax+edx+16]
$LN1@EntityFlag:

; 265  : }

	pop	edi
	pop	esi
	pop	ebx
	mov	esp, ebp
	pop	ebp
	ret	8
?EntityFlagsSet@CSaveRestoreBuffer@@QAEHHH@Z ENDP	; CSaveRestoreBuffer::EntityFlagsSet
_TEXT	ENDS
; Function compile flags: /Odtp /ZI
; File d:\!diffusion 2020\source code 2022\client-server\server\game\saverestore.cpp
;	COMDAT ?EntityIndex@CSaveRestoreBuffer@@QAEHPAVCBaseEntity@@@Z
_TEXT	SEGMENT
_this$ = -4						; size = 4
_pEntity$ = 8						; size = 4
?EntityIndex@CSaveRestoreBuffer@@QAEHPAVCBaseEntity@@@Z PROC ; CSaveRestoreBuffer::EntityIndex, COMDAT
; _this$ = ecx

; 203  : {

	push	ebp
	mov	ebp, esp
	sub	esp, 68					; 00000044H
	push	ebx
	push	esi
	push	edi
	mov	DWORD PTR _this$[ebp], ecx

; 204  : 	if ( pEntity == NULL )

	cmp	DWORD PTR _pEntity$[ebp], 0
	jne	SHORT $LN2@EntityInde

; 205  : 		return -1;

	or	eax, -1
	jmp	SHORT $LN1@EntityInde
$LN2@EntityInde:

; 206  : 	return EntityIndex( pEntity->pev );

	mov	eax, DWORD PTR _pEntity$[ebp]
	mov	ecx, DWORD PTR [eax+4]
	push	ecx
	mov	ecx, DWORD PTR _this$[ebp]
	call	?EntityIndex@CSaveRestoreBuffer@@QAEHPAUentvars_s@@@Z ; CSaveRestoreBuffer::EntityIndex
$LN1@EntityInde:

; 207  : }

	pop	edi
	pop	esi
	pop	ebx
	mov	esp, ebp
	pop	ebp
	ret	4
?EntityIndex@CSaveRestoreBuffer@@QAEHPAVCBaseEntity@@@Z ENDP ; CSaveRestoreBuffer::EntityIndex
_TEXT	ENDS
; Function compile flags: /Odtp /ZI
; File d:\!diffusion 2020\source code 2022\client-server\server\game\saverestore.cpp
;	COMDAT ?EntityIndex@CSaveRestoreBuffer@@QAEHH@Z
_TEXT	SEGMENT
_this$ = -4						; size = 4
_eoLookup$ = 8						; size = 4
?EntityIndex@CSaveRestoreBuffer@@QAEHH@Z PROC		; CSaveRestoreBuffer::EntityIndex, COMDAT
; _this$ = ecx

; 217  : {

	push	ebp
	mov	ebp, esp
	sub	esp, 68					; 00000044H
	push	ebx
	push	esi
	push	edi
	mov	DWORD PTR _this$[ebp], ecx

; 218  : 	return EntityIndex( ENT( eoLookup ) );

	mov	eax, DWORD PTR _eoLookup$[ebp]
	push	eax
	call	?ENT@@YAPAUedict_s@@H@Z			; ENT
	add	esp, 4
	push	eax
	mov	ecx, DWORD PTR _this$[ebp]
	call	?EntityIndex@CSaveRestoreBuffer@@QAEHPAUedict_s@@@Z ; CSaveRestoreBuffer::EntityIndex

; 219  : }

	pop	edi
	pop	esi
	pop	ebx
	mov	esp, ebp
	pop	ebp
	ret	4
?EntityIndex@CSaveRestoreBuffer@@QAEHH@Z ENDP		; CSaveRestoreBuffer::EntityIndex
_TEXT	ENDS
; Function compile flags: /Odtp /ZI
; File d:\!diffusion 2020\source code 2022\client-server\server\game\saverestore.cpp
;	COMDAT ?EntityIndex@CSaveRestoreBuffer@@QAEHPAUedict_s@@@Z
_TEXT	SEGMENT
_pTable$ = -12						; size = 4
_i$ = -8						; size = 4
_this$ = -4						; size = 4
_pentLookup$ = 8					; size = 4
?EntityIndex@CSaveRestoreBuffer@@QAEHPAUedict_s@@@Z PROC ; CSaveRestoreBuffer::EntityIndex, COMDAT
; _this$ = ecx

; 222  : {

	push	ebp
	mov	ebp, esp
	sub	esp, 76					; 0000004cH
	push	ebx
	push	esi
	push	edi
	mov	DWORD PTR _this$[ebp], ecx

; 223  : 	if ( !m_pdata || pentLookup == NULL )

	mov	eax, DWORD PTR _this$[ebp]
	cmp	DWORD PTR [eax+24], 0
	je	SHORT $LN6@EntityInde
	cmp	DWORD PTR _pentLookup$[ebp], 0
	jne	SHORT $LN5@EntityInde
$LN6@EntityInde:

; 224  : 		return -1;

	or	eax, -1
	jmp	SHORT $LN1@EntityInde
$LN5@EntityInde:

; 225  : 
; 226  : 	int i;
; 227  : 	ENTITYTABLE *pTable;
; 228  : 
; 229  : 	for ( i = 0; i < m_pdata->tableCount; i++ )

	mov	DWORD PTR _i$[ebp], 0
	jmp	SHORT $LN4@EntityInde
$LN2@EntityInde:
	mov	eax, DWORD PTR _i$[ebp]
	add	eax, 1
	mov	DWORD PTR _i$[ebp], eax
$LN4@EntityInde:
	mov	eax, DWORD PTR _this$[ebp]
	mov	ecx, DWORD PTR [eax+24]
	mov	edx, DWORD PTR _i$[ebp]
	cmp	edx, DWORD PTR [ecx+32]
	jge	SHORT $LN3@EntityInde

; 230  : 	{
; 231  : 		pTable = m_pdata->pTable + i;

	mov	eax, DWORD PTR _this$[ebp]
	mov	ecx, DWORD PTR [eax+24]
	imul	edx, DWORD PTR _i$[ebp], 24
	add	edx, DWORD PTR [ecx+40]
	mov	DWORD PTR _pTable$[ebp], edx

; 232  : 		if ( pTable->pent == pentLookup )

	mov	eax, DWORD PTR _pTable$[ebp]
	mov	ecx, DWORD PTR [eax+4]
	cmp	ecx, DWORD PTR _pentLookup$[ebp]
	jne	SHORT $LN7@EntityInde

; 233  : 			return i;

	mov	eax, DWORD PTR _i$[ebp]
	jmp	SHORT $LN1@EntityInde
$LN7@EntityInde:

; 234  : 	}

	jmp	SHORT $LN2@EntityInde
$LN3@EntityInde:

; 235  : 	return -1;

	or	eax, -1
$LN1@EntityInde:

; 236  : }

	pop	edi
	pop	esi
	pop	ebx
	mov	esp, ebp
	pop	ebp
	ret	4
?EntityIndex@CSaveRestoreBuffer@@QAEHPAUedict_s@@@Z ENDP ; CSaveRestoreBuffer::EntityIndex
_TEXT	ENDS
; Function compile flags: /Odtp /ZI
; File d:\!diffusion 2020\source code 2022\client-server\server\game\saverestore.cpp
;	COMDAT ?EntityIndex@CSaveRestoreBuffer@@QAEHPAUentvars_s@@@Z
_TEXT	SEGMENT
_this$ = -4						; size = 4
_pevLookup$ = 8						; size = 4
?EntityIndex@CSaveRestoreBuffer@@QAEHPAUentvars_s@@@Z PROC ; CSaveRestoreBuffer::EntityIndex, COMDAT
; _this$ = ecx

; 210  : {

	push	ebp
	mov	ebp, esp
	sub	esp, 68					; 00000044H
	push	ebx
	push	esi
	push	edi
	mov	DWORD PTR _this$[ebp], ecx

; 211  : 	if ( pevLookup == NULL )

	cmp	DWORD PTR _pevLookup$[ebp], 0
	jne	SHORT $LN2@EntityInde

; 212  : 		return -1;

	or	eax, -1
	jmp	SHORT $LN1@EntityInde
$LN2@EntityInde:

; 213  : 	return EntityIndex( ENT( pevLookup ) );

	mov	eax, DWORD PTR _pevLookup$[ebp]
	push	eax
	call	?ENT@@YAPAUedict_s@@PBUentvars_s@@@Z	; ENT
	add	esp, 4
	push	eax
	mov	ecx, DWORD PTR _this$[ebp]
	call	?EntityIndex@CSaveRestoreBuffer@@QAEHPAUedict_s@@@Z ; CSaveRestoreBuffer::EntityIndex
$LN1@EntityInde:

; 214  : }

	pop	edi
	pop	esi
	pop	ebx
	mov	esp, ebp
	pop	ebp
	ret	4
?EntityIndex@CSaveRestoreBuffer@@QAEHPAUentvars_s@@@Z ENDP ; CSaveRestoreBuffer::EntityIndex
_TEXT	ENDS
; Function compile flags: /Odtp /ZI
; File d:\!diffusion 2020\source code 2022\client-server\server\game\saverestore.cpp
;	COMDAT ??1CSaveRestoreBuffer@@QAE@XZ
_TEXT	SEGMENT
_this$ = -4						; size = 4
??1CSaveRestoreBuffer@@QAE@XZ PROC			; CSaveRestoreBuffer::~CSaveRestoreBuffer, COMDAT
; _this$ = ecx

; 199  : {

	push	ebp
	mov	ebp, esp
	sub	esp, 68					; 00000044H
	push	ebx
	push	esi
	push	edi
	mov	DWORD PTR _this$[ebp], ecx

; 200  : }

	pop	edi
	pop	esi
	pop	ebx
	mov	esp, ebp
	pop	ebp
	ret	0
??1CSaveRestoreBuffer@@QAE@XZ ENDP			; CSaveRestoreBuffer::~CSaveRestoreBuffer
_TEXT	ENDS
; Function compile flags: /Odtp /ZI
; File d:\!diffusion 2020\source code 2022\client-server\server\game\saverestore.cpp
;	COMDAT ??0CSaveRestoreBuffer@@QAE@PAUsaverestore_s@@@Z
_TEXT	SEGMENT
_this$ = -4						; size = 4
_pdata$ = 8						; size = 4
??0CSaveRestoreBuffer@@QAE@PAUsaverestore_s@@@Z PROC	; CSaveRestoreBuffer::CSaveRestoreBuffer, COMDAT
; _this$ = ecx

; 194  : {

	push	ebp
	mov	ebp, esp
	sub	esp, 68					; 00000044H
	push	ebx
	push	esi
	push	edi
	mov	DWORD PTR _this$[ebp], ecx
	mov	ecx, DWORD PTR _this$[ebp]
	call	??0Vector@@QAE@XZ			; Vector::Vector
	mov	ecx, DWORD PTR _this$[ebp]
	add	ecx, 12					; 0000000cH
	call	??0Vector@@QAE@XZ			; Vector::Vector

; 195  : 	m_pdata = pdata;

	mov	eax, DWORD PTR _this$[ebp]
	mov	ecx, DWORD PTR _pdata$[ebp]
	mov	DWORD PTR [eax+24], ecx

; 196  : }

	mov	eax, DWORD PTR _this$[ebp]
	pop	edi
	pop	esi
	pop	ebx
	mov	esp, ebp
	pop	ebp
	ret	4
??0CSaveRestoreBuffer@@QAE@PAUsaverestore_s@@@Z ENDP	; CSaveRestoreBuffer::CSaveRestoreBuffer
_TEXT	ENDS
; Function compile flags: /Odtp /ZI
; File d:\!diffusion 2020\source code 2022\client-server\server\game\saverestore.cpp
;	COMDAT ??0CSaveRestoreBuffer@@QAE@XZ
_TEXT	SEGMENT
_this$ = -4						; size = 4
??0CSaveRestoreBuffer@@QAE@XZ PROC			; CSaveRestoreBuffer::CSaveRestoreBuffer, COMDAT
; _this$ = ecx

; 189  : {

	push	ebp
	mov	ebp, esp
	sub	esp, 68					; 00000044H
	push	ebx
	push	esi
	push	edi
	mov	DWORD PTR _this$[ebp], ecx
	mov	ecx, DWORD PTR _this$[ebp]
	call	??0Vector@@QAE@XZ			; Vector::Vector
	mov	ecx, DWORD PTR _this$[ebp]
	add	ecx, 12					; 0000000cH
	call	??0Vector@@QAE@XZ			; Vector::Vector

; 190  : 	m_pdata = NULL;

	mov	eax, DWORD PTR _this$[ebp]
	mov	DWORD PTR [eax+24], 0

; 191  : }

	mov	eax, DWORD PTR _this$[ebp]
	pop	edi
	pop	esi
	pop	ebx
	mov	esp, ebp
	pop	ebp
	ret	0
??0CSaveRestoreBuffer@@QAE@XZ ENDP			; CSaveRestoreBuffer::CSaveRestoreBuffer
_TEXT	ENDS
; Function compile flags: /Odtp /ZI
; File d:\!diffusion 2020\source code 2022\client-server\server\util.h
;	COMDAT ?FStrEq@@YAHPBD0@Z
_TEXT	SEGMENT
tv69 = -68						; size = 4
_sz1$ = 8						; size = 4
_sz2$ = 12						; size = 4
?FStrEq@@YAHPBD0@Z PROC					; FStrEq, COMDAT

; 287  : {

	push	ebp
	mov	ebp, esp
	sub	esp, 68					; 00000044H
	push	ebx
	push	esi
	push	edi

; 288  : 	return (Q_strcmp( sz1, sz2 ) == 0);

	push	99999					; 0001869fH
	mov	eax, DWORD PTR _sz2$[ebp]
	push	eax
	mov	ecx, DWORD PTR _sz1$[ebp]
	push	ecx
	call	?Q_strncmp@@YAHPBD0H@Z			; Q_strncmp
	add	esp, 12					; 0000000cH
	test	eax, eax
	jne	SHORT $LN3@FStrEq
	mov	DWORD PTR tv69[ebp], 1
	jmp	SHORT $LN4@FStrEq
$LN3@FStrEq:
	mov	DWORD PTR tv69[ebp], 0
$LN4@FStrEq:
	mov	eax, DWORD PTR tv69[ebp]

; 289  : }

	pop	edi
	pop	esi
	pop	ebx
	mov	esp, ebp
	pop	ebp
	ret	0
?FStrEq@@YAHPBD0@Z ENDP					; FStrEq
_TEXT	ENDS
; Function compile flags: /Odtp /ZI
; File d:\!diffusion 2020\source code 2022\client-server\server\util.h
;	COMDAT ?FStringNull@@YAHH@Z
_TEXT	SEGMENT
tv65 = -68						; size = 4
_iString$ = 8						; size = 4
?FStringNull@@YAHH@Z PROC				; FStringNull, COMDAT

; 202  : inline BOOL FStringNull(int iString)			{ return iString == iStringNull; }

	push	ebp
	mov	ebp, esp
	sub	esp, 68					; 00000044H
	push	ebx
	push	esi
	push	edi
	cmp	DWORD PTR _iString$[ebp], 0
	jne	SHORT $LN3@FStringNul
	mov	DWORD PTR tv65[ebp], 1
	jmp	SHORT $LN4@FStringNul
$LN3@FStringNul:
	mov	DWORD PTR tv65[ebp], 0
$LN4@FStringNul:
	mov	eax, DWORD PTR tv65[ebp]
	pop	edi
	pop	esi
	pop	ebx
	mov	esp, ebp
	pop	ebp
	ret	0
?FStringNull@@YAHH@Z ENDP				; FStringNull
_TEXT	ENDS
; Function compile flags: /Odtp /ZI
; File d:\!diffusion 2020\source code 2022\client-server\server\util.h
;	COMDAT ?VARS@@YAPAUentvars_s@@PAUedict_s@@@Z
_TEXT	SEGMENT
_pent$ = 8						; size = 4
?VARS@@YAPAUentvars_s@@PAUedict_s@@@Z PROC		; VARS, COMDAT

; 178  : { 

	push	ebp
	mov	ebp, esp
	sub	esp, 64					; 00000040H
	push	ebx
	push	esi
	push	edi

; 179  : 	if ( !pent )

	cmp	DWORD PTR _pent$[ebp], 0
	jne	SHORT $LN2@VARS

; 180  : 		return NULL;

	xor	eax, eax
	jmp	SHORT $LN1@VARS
$LN2@VARS:

; 181  : 
; 182  : 	return &pent->v; 

	mov	eax, DWORD PTR _pent$[ebp]
	add	eax, 128				; 00000080H
$LN1@VARS:

; 183  : }

	pop	edi
	pop	esi
	pop	ebx
	mov	esp, ebp
	pop	ebp
	ret	0
?VARS@@YAPAUentvars_s@@PAUedict_s@@@Z ENDP		; VARS
_TEXT	ENDS
; Function compile flags: /Odtp /ZI
; File d:\!diffusion 2020\source code 2022\client-server\server\util.h
;	COMDAT ?OFFSET@@YAHPBUedict_s@@@Z
_TEXT	SEGMENT
_pent$ = 8						; size = 4
?OFFSET@@YAHPBUedict_s@@@Z PROC				; OFFSET, COMDAT

; 160  : { 

	push	ebp
	mov	ebp, esp
	sub	esp, 64					; 00000040H
	push	ebx
	push	esi
	push	edi

; 161  : #if _DEBUG
; 162  : 	if ( !pent )

	cmp	DWORD PTR _pent$[ebp], 0
	jne	SHORT $LN2@OFFSET

; 163  : 		ALERT( at_error, "Bad ent in OFFSET()\n" );

	push	OFFSET ??_C@_0BF@CPEPILID@Bad?5ent?5in?5OFFSET?$CI?$CJ?6?$AA@
	push	4
	call	DWORD PTR ?g_engfuncs@@3Uenginefuncs_s@@A+244
	add	esp, 8
$LN2@OFFSET:

; 164  : #endif
; 165  : 	return (*g_engfuncs.pfnEntOffsetOfPEntity)(pent); 

	mov	eax, DWORD PTR _pent$[ebp]
	push	eax
	call	DWORD PTR ?g_engfuncs@@3Uenginefuncs_s@@A+280
	add	esp, 4

; 166  : }

	pop	edi
	pop	esi
	pop	ebx
	mov	esp, ebp
	pop	ebp
	ret	0
?OFFSET@@YAHPBUedict_s@@@Z ENDP				; OFFSET
_TEXT	ENDS
; Function compile flags: /Odtp /ZI
; File d:\!diffusion 2020\source code 2022\client-server\server\util.h
;	COMDAT ?ENT@@YAPAUedict_s@@H@Z
_TEXT	SEGMENT
_eoffset$ = 8						; size = 4
?ENT@@YAPAUedict_s@@H@Z PROC				; ENT, COMDAT

; 157  : inline edict_t *ENT(EOFFSET eoffset)			{ return (*g_engfuncs.pfnPEntityOfEntOffset)(eoffset); }

	push	ebp
	mov	ebp, esp
	sub	esp, 64					; 00000040H
	push	ebx
	push	esi
	push	edi
	mov	eax, DWORD PTR _eoffset$[ebp]
	push	eax
	call	DWORD PTR ?g_engfuncs@@3Uenginefuncs_s@@A+276
	add	esp, 4
	pop	edi
	pop	esi
	pop	ebx
	mov	esp, ebp
	pop	ebp
	ret	0
?ENT@@YAPAUedict_s@@H@Z ENDP				; ENT
_TEXT	ENDS
; Function compile flags: /Odtp /ZI
; File d:\!diffusion 2020\source code 2022\client-server\server\util.h
;	COMDAT ?ENT@@YAPAUedict_s@@PBUentvars_s@@@Z
_TEXT	SEGMENT
_pev$ = 8						; size = 4
?ENT@@YAPAUedict_s@@PBUentvars_s@@@Z PROC		; ENT, COMDAT

; 151  : 	inline edict_t *ENT(const entvars_t *pev)	{ return DBG_EntOfVars(pev); }

	push	ebp
	mov	ebp, esp
	sub	esp, 64					; 00000040H
	push	ebx
	push	esi
	push	edi
	mov	eax, DWORD PTR _pev$[ebp]
	push	eax
	call	?DBG_EntOfVars@@YAPAUedict_s@@PBUentvars_s@@@Z ; DBG_EntOfVars
	add	esp, 4
	pop	edi
	pop	esi
	pop	ebx
	mov	esp, ebp
	pop	ebp
	ret	0
?ENT@@YAPAUedict_s@@PBUentvars_s@@@Z ENDP		; ENT
_TEXT	ENDS
; Function compile flags: /Odtp /ZI
; File d:\!diffusion 2020\source code 2022\client-server\server\enginecallback.h
;	COMDAT ?GET_PRIVATE@@YAPAXPAUedict_s@@@Z
_TEXT	SEGMENT
_pent$ = 8						; size = 4
?GET_PRIVATE@@YAPAXPAUedict_s@@@Z PROC			; GET_PRIVATE, COMDAT

; 106  : {

	push	ebp
	mov	ebp, esp
	sub	esp, 64					; 00000040H
	push	ebx
	push	esi
	push	edi

; 107  : 	if ( pent )

	cmp	DWORD PTR _pent$[ebp], 0
	je	SHORT $LN2@GET_PRIVAT

; 108  : 		return pent->pvPrivateData;

	mov	eax, DWORD PTR _pent$[ebp]
	mov	eax, DWORD PTR [eax+124]
	jmp	SHORT $LN1@GET_PRIVAT
$LN2@GET_PRIVAT:

; 109  : 	return NULL;

	xor	eax, eax
$LN1@GET_PRIVAT:

; 110  : }

	pop	edi
	pop	esi
	pop	ebx
	mov	esp, ebp
	pop	ebp
	ret	0
?GET_PRIVATE@@YAPAXPAUedict_s@@@Z ENDP			; GET_PRIVATE
_TEXT	ENDS
; Function compile flags: /Odtp /ZI
; File d:\!diffusion 2020\source code 2022\client-server\game_shared\vector.h
;	COMDAT ??GVector@@QBE?AV0@ABV0@@Z
_TEXT	SEGMENT
_this$ = -4						; size = 4
___$ReturnUdt$ = 8					; size = 4
_v$ = 12						; size = 4
??GVector@@QBE?AV0@ABV0@@Z PROC				; Vector::operator-, COMDAT
; _this$ = ecx

; 159  : 	inline Vector operator-(const Vector& v) const	{ return Vector(x-v.x, y-v.y, z-v.z);	   }

	push	ebp
	mov	ebp, esp
	sub	esp, 68					; 00000044H
	push	ebx
	push	esi
	push	edi
	mov	DWORD PTR _this$[ebp], ecx
	mov	eax, DWORD PTR _this$[ebp]
	mov	ecx, DWORD PTR _v$[ebp]
	movss	xmm0, DWORD PTR [eax+8]
	subss	xmm0, DWORD PTR [ecx+8]
	push	ecx
	movss	DWORD PTR [esp], xmm0
	mov	edx, DWORD PTR _this$[ebp]
	mov	eax, DWORD PTR _v$[ebp]
	movss	xmm0, DWORD PTR [edx+4]
	subss	xmm0, DWORD PTR [eax+4]
	push	ecx
	movss	DWORD PTR [esp], xmm0
	mov	ecx, DWORD PTR _this$[ebp]
	mov	edx, DWORD PTR _v$[ebp]
	movss	xmm0, DWORD PTR [ecx]
	subss	xmm0, DWORD PTR [edx]
	push	ecx
	movss	DWORD PTR [esp], xmm0
	mov	ecx, DWORD PTR ___$ReturnUdt$[ebp]
	call	??0Vector@@QAE@MMM@Z			; Vector::Vector
	mov	eax, DWORD PTR ___$ReturnUdt$[ebp]
	pop	edi
	pop	esi
	pop	ebx
	mov	esp, ebp
	pop	ebp
	ret	8
??GVector@@QBE?AV0@ABV0@@Z ENDP				; Vector::operator-
_TEXT	ENDS
; Function compile flags: /Odtp /ZI
; File d:\!diffusion 2020\source code 2022\client-server\game_shared\vector.h
;	COMDAT ??0Vector@@QAE@ABV0@@Z
_TEXT	SEGMENT
_this$ = -4						; size = 4
_v$ = 8							; size = 4
??0Vector@@QAE@ABV0@@Z PROC				; Vector::Vector, COMDAT
; _this$ = ecx

; 145  : 	inline Vector(const Vector& v)		{ x = v.x; y = v.y; z = v.z;		   }

	push	ebp
	mov	ebp, esp
	sub	esp, 68					; 00000044H
	push	ebx
	push	esi
	push	edi
	mov	DWORD PTR _this$[ebp], ecx
	mov	eax, DWORD PTR _this$[ebp]
	mov	ecx, DWORD PTR _v$[ebp]
	mov	edx, DWORD PTR [ecx]
	mov	DWORD PTR [eax], edx
	mov	eax, DWORD PTR _this$[ebp]
	mov	ecx, DWORD PTR _v$[ebp]
	mov	edx, DWORD PTR [ecx+4]
	mov	DWORD PTR [eax+4], edx
	mov	eax, DWORD PTR _this$[ebp]
	mov	ecx, DWORD PTR _v$[ebp]
	mov	edx, DWORD PTR [ecx+8]
	mov	DWORD PTR [eax+8], edx
	mov	eax, DWORD PTR _this$[ebp]
	pop	edi
	pop	esi
	pop	ebx
	mov	esp, ebp
	pop	ebp
	ret	4
??0Vector@@QAE@ABV0@@Z ENDP				; Vector::Vector
_TEXT	ENDS
; Function compile flags: /Odtp /ZI
; File d:\!diffusion 2020\source code 2022\client-server\game_shared\vector.h
;	COMDAT ??0Vector@@QAE@MMM@Z
_TEXT	SEGMENT
_this$ = -4						; size = 4
_X$ = 8							; size = 4
_Y$ = 12						; size = 4
_Z$ = 16						; size = 4
??0Vector@@QAE@MMM@Z PROC				; Vector::Vector, COMDAT
; _this$ = ecx

; 144  : 	inline Vector(float X, float Y, float Z)	{ x = X; y = Y; z = Z;                     }

	push	ebp
	mov	ebp, esp
	sub	esp, 68					; 00000044H
	push	ebx
	push	esi
	push	edi
	mov	DWORD PTR _this$[ebp], ecx
	mov	eax, DWORD PTR _this$[ebp]
	movss	xmm0, DWORD PTR _X$[ebp]
	movss	DWORD PTR [eax], xmm0
	mov	eax, DWORD PTR _this$[ebp]
	movss	xmm0, DWORD PTR _Y$[ebp]
	movss	DWORD PTR [eax+4], xmm0
	mov	eax, DWORD PTR _this$[ebp]
	movss	xmm0, DWORD PTR _Z$[ebp]
	movss	DWORD PTR [eax+8], xmm0
	mov	eax, DWORD PTR _this$[ebp]
	pop	edi
	pop	esi
	pop	ebx
	mov	esp, ebp
	pop	ebp
	ret	12					; 0000000cH
??0Vector@@QAE@MMM@Z ENDP				; Vector::Vector
_TEXT	ENDS
; Function compile flags: /Odtp /ZI
; File d:\!diffusion 2020\source code 2022\client-server\game_shared\vector.h
;	COMDAT ??0Vector@@QAE@XZ
_TEXT	SEGMENT
_this$ = -4						; size = 4
??0Vector@@QAE@XZ PROC					; Vector::Vector, COMDAT
; _this$ = ecx

; 143  : 	inline Vector(void)				{ }

	push	ebp
	mov	ebp, esp
	sub	esp, 68					; 00000044H
	push	ebx
	push	esi
	push	edi
	mov	DWORD PTR _this$[ebp], ecx
	mov	eax, DWORD PTR _this$[ebp]
	pop	edi
	pop	esi
	pop	ebx
	mov	esp, ebp
	pop	ebp
	ret	0
??0Vector@@QAE@XZ ENDP					; Vector::Vector
_TEXT	ENDS
; Function compile flags: /Odtp /ZI
; File d:\!diffusion 2020\source code 2022\client-server\server\game\saverestore.cpp
;	COMDAT ?__empty_global_delete@@YAXPAXI@Z
_TEXT	SEGMENT
___formal$ = 8						; size = 4
___formal$ = 12						; size = 4
?__empty_global_delete@@YAXPAXI@Z PROC			; __empty_global_delete, COMDAT

	push	ebp
	mov	ebp, esp
	sub	esp, 64					; 00000040H
	push	ebx
	push	esi
	push	edi
	pop	edi
	pop	esi
	pop	ebx
	mov	esp, ebp
	pop	ebp
	ret	0
?__empty_global_delete@@YAXPAXI@Z ENDP			; __empty_global_delete
_TEXT	ENDS
; Function compile flags: /Odtp /ZI
; File d:\!diffusion 2020\source code 2022\client-server\server\game\saverestore.cpp
;	COMDAT ?__empty_global_delete@@YAXPAX@Z
_TEXT	SEGMENT
___formal$ = 8						; size = 4
?__empty_global_delete@@YAXPAX@Z PROC			; __empty_global_delete, COMDAT

; 1141 : }

	push	ebp
	mov	ebp, esp
	sub	esp, 64					; 00000040H
	push	ebx
	push	esi
	push	edi
	pop	edi
	pop	esi
	pop	ebx
	mov	esp, ebp
	pop	ebp
	ret	0
?__empty_global_delete@@YAXPAX@Z ENDP			; __empty_global_delete
_TEXT	ENDS
; Function compile flags: /Odtp /ZI
;	COMDAT ??__G@YGXPAX0IIP6EPAX00@Z@Z
_TEXT	SEGMENT
tv66 = -68						; size = 4
___t$ = 8						; size = 4
___u$ = 12						; size = 4
___s$ = 16						; size = 4
___n$ = 20						; size = 4
___f$ = 24						; size = 4
??__G@YGXPAX0IIP6EPAX00@Z@Z PROC			; `vector copy constructor iterator', COMDAT
	push	ebp
	mov	ebp, esp
	sub	esp, 68					; 00000044H
	push	ebx
	push	esi
	push	edi
$LN2@vector:
	mov	eax, DWORD PTR ___n$[ebp]
	mov	DWORD PTR tv66[ebp], eax
	mov	ecx, DWORD PTR ___n$[ebp]
	sub	ecx, 1
	mov	DWORD PTR ___n$[ebp], ecx
	cmp	DWORD PTR tv66[ebp], 0
	jbe	SHORT $LN1@vector
	mov	eax, DWORD PTR ___u$[ebp]
	push	eax
	mov	ecx, DWORD PTR ___t$[ebp]
	call	DWORD PTR ___f$[ebp]
	mov	eax, DWORD PTR ___t$[ebp]
	add	eax, DWORD PTR ___s$[ebp]
	mov	DWORD PTR ___t$[ebp], eax
	mov	eax, DWORD PTR ___u$[ebp]
	add	eax, DWORD PTR ___s$[ebp]
	mov	DWORD PTR ___u$[ebp], eax
	jmp	SHORT $LN2@vector
$LN1@vector:
	pop	edi
	pop	esi
	pop	ebx
	mov	esp, ebp
	pop	ebp
	ret	20					; 00000014H
??__G@YGXPAX0IIP6EPAX00@Z@Z ENDP			; `vector copy constructor iterator'
_TEXT	ENDS
; Function compile flags: /Odtp /ZI
;	COMDAT ??_H@YGXPAXIIP6EPAX0@Z@Z
_TEXT	SEGMENT
tv66 = -68						; size = 4
___t$ = 8						; size = 4
___s$ = 12						; size = 4
___n$ = 16						; size = 4
___f$ = 20						; size = 4
??_H@YGXPAXIIP6EPAX0@Z@Z PROC				; `vector constructor iterator', COMDAT
	push	ebp
	mov	ebp, esp
	sub	esp, 68					; 00000044H
	push	ebx
	push	esi
	push	edi
$LN2@vector:
	mov	eax, DWORD PTR ___n$[ebp]
	mov	DWORD PTR tv66[ebp], eax
	mov	ecx, DWORD PTR ___n$[ebp]
	sub	ecx, 1
	mov	DWORD PTR ___n$[ebp], ecx
	cmp	DWORD PTR tv66[ebp], 0
	jbe	SHORT $LN1@vector
	mov	ecx, DWORD PTR ___t$[ebp]
	call	DWORD PTR ___f$[ebp]
	mov	eax, DWORD PTR ___t$[ebp]
	add	eax, DWORD PTR ___s$[ebp]
	mov	DWORD PTR ___t$[ebp], eax
	jmp	SHORT $LN2@vector
$LN1@vector:
	pop	edi
	pop	esi
	pop	ebx
	mov	esp, ebp
	pop	ebp
	ret	16					; 00000010H
??_H@YGXPAXIIP6EPAX0@Z@Z ENDP				; `vector constructor iterator'
_TEXT	ENDS
END
