; Listing generated by Microsoft (R) Optimizing Compiler Version 19.00.24247.2 

	TITLE	D:\!DIFFUSION 2020\source code 2022\client-server\server\sound.cpp
	.686P
	.XMM
	include listing.inc
	.model	flat

INCLUDELIB LIBCMT
INCLUDELIB OLDNAMES

PUBLIC	??_C@_0BA@FPHDGFEO@m_flAttenuation?$AA@		; `string'
PUBLIC	??_C@_0M@NKGAHMMH@attenuation?$AA@		; `string'
PUBLIC	??_C@_09ONJFEJGN@m_fActive?$AA@			; `string'
PUBLIC	??_C@_0L@EFDJKFOK@m_fLooping?$AA@		; `string'
PUBLIC	??_C@_05NJMEMMLG@m_dpv?$AA@			; `string'
PUBLIC	?m_DataMap@CSpeaker@@2Udatamap_s@@A		; CSpeaker::m_DataMap
PUBLIC	??_C@_08IKHBFCDE@CSpeaker?$AA@			; `string'
PUBLIC	??_C@_08LPEJFCFP@m_preset?$AA@			; `string'
PUBLIC	??_C@_06OFAGBOBG@preset?$AA@			; `string'
PUBLIC	?m_DataMap@CEnvSound@@2Udatamap_s@@A		; CEnvSound::m_DataMap
PUBLIC	??_C@_09DJGFLIBI@CEnvSound?$AA@			; `string'
PUBLIC	??_C@_0L@OEEMMINI@m_flRadius?$AA@		; `string'
PUBLIC	??_C@_06KGHINEPG@radius?$AA@			; `string'
PUBLIC	??_C@_0N@EOOENLGB@m_flRoomtype?$AA@		; `string'
PUBLIC	??_C@_08FBOCMMDG@roomtype?$AA@			; `string'
PUBLIC	?rgsentenceg@@3PAUsentenceg@@A			; rgsentenceg
PUBLIC	?fSentencesInit@@3HA				; fSentencesInit
PUBLIC	?gszallsentencenames@@3PAY0CA@DA		; gszallsentencenames
PUBLIC	?gcallsentences@@3HA				; gcallsentences
PUBLIC	?rgdpvpreset@@3PAUdynpitchvol@@A		; rgdpvpreset
PUBLIC	?m_DataMap@CAmbientGeneric@@2Udatamap_s@@A	; CAmbientGeneric::m_DataMap
PUBLIC	?fTextureTypeInit@@3HA				; fTextureTypeInit
PUBLIC	?gcTextures@@3HA				; gcTextures
PUBLIC	?grgszTextureName@@3PAY0BI@DA			; grgszTextureName
PUBLIC	?grgchTextureType@@3PADA			; grgchTextureType
PUBLIC	??_C@_0BA@JFHJJCNE@CAmbientGeneric?$AA@		; `string'
_BSS	SEGMENT
?rgsentenceg@@3PAUsentenceg@@A DB 064000H DUP (?)	; rgsentenceg
?fSentencesInit@@3HA DD 01H DUP (?)			; fSentencesInit
?gszallsentencenames@@3PAY0CA@DA DB 020000H DUP (?)	; gszallsentencenames
?gcallsentences@@3HA DD 01H DUP (?)			; gcallsentences
?fTextureTypeInit@@3HA DD 01H DUP (?)			; fTextureTypeInit
?gcTextures@@3HA DD 01H DUP (?)				; gcTextures
?grgszTextureName@@3PAY0BI@DA DB 06000H DUP (?)		; grgszTextureName
?grgchTextureType@@3PADA DB 0400H DUP (?)		; grgchTextureType
_BSS	ENDS
;	COMDAT ??_C@_0BA@JFHJJCNE@CAmbientGeneric?$AA@
CONST	SEGMENT
??_C@_0BA@JFHJJCNE@CAmbientGeneric?$AA@ DB 'CAmbientGeneric', 00H ; `string'
CONST	ENDS
;	COMDAT ??_C@_08FBOCMMDG@roomtype?$AA@
CONST	SEGMENT
??_C@_08FBOCMMDG@roomtype?$AA@ DB 'roomtype', 00H	; `string'
CONST	ENDS
;	COMDAT ??_C@_0N@EOOENLGB@m_flRoomtype?$AA@
CONST	SEGMENT
??_C@_0N@EOOENLGB@m_flRoomtype?$AA@ DB 'm_flRoomtype', 00H ; `string'
CONST	ENDS
;	COMDAT ??_C@_06KGHINEPG@radius?$AA@
CONST	SEGMENT
??_C@_06KGHINEPG@radius?$AA@ DB 'radius', 00H		; `string'
CONST	ENDS
;	COMDAT ??_C@_0L@OEEMMINI@m_flRadius?$AA@
CONST	SEGMENT
??_C@_0L@OEEMMINI@m_flRadius?$AA@ DB 'm_flRadius', 00H	; `string'
CONST	ENDS
;	COMDAT ??_C@_09DJGFLIBI@CEnvSound?$AA@
CONST	SEGMENT
??_C@_09DJGFLIBI@CEnvSound?$AA@ DB 'CEnvSound', 00H	; `string'
CONST	ENDS
;	COMDAT ??_C@_06OFAGBOBG@preset?$AA@
CONST	SEGMENT
??_C@_06OFAGBOBG@preset?$AA@ DB 'preset', 00H		; `string'
CONST	ENDS
;	COMDAT ??_C@_08LPEJFCFP@m_preset?$AA@
CONST	SEGMENT
??_C@_08LPEJFCFP@m_preset?$AA@ DB 'm_preset', 00H	; `string'
CONST	ENDS
;	COMDAT ??_C@_08IKHBFCDE@CSpeaker?$AA@
CONST	SEGMENT
??_C@_08IKHBFCDE@CSpeaker?$AA@ DB 'CSpeaker', 00H	; `string'
CONST	ENDS
;	COMDAT ??_C@_05NJMEMMLG@m_dpv?$AA@
CONST	SEGMENT
??_C@_05NJMEMMLG@m_dpv?$AA@ DB 'm_dpv', 00H		; `string'
CONST	ENDS
;	COMDAT ??_C@_0L@EFDJKFOK@m_fLooping?$AA@
CONST	SEGMENT
??_C@_0L@EFDJKFOK@m_fLooping?$AA@ DB 'm_fLooping', 00H	; `string'
CONST	ENDS
;	COMDAT ??_C@_09ONJFEJGN@m_fActive?$AA@
CONST	SEGMENT
??_C@_09ONJFEJGN@m_fActive?$AA@ DB 'm_fActive', 00H	; `string'
CONST	ENDS
;	COMDAT ??_C@_0M@NKGAHMMH@attenuation?$AA@
CONST	SEGMENT
??_C@_0M@NKGAHMMH@attenuation?$AA@ DB 'attenuation', 00H ; `string'
CONST	ENDS
;	COMDAT ??_C@_0BA@FPHDGFEO@m_flAttenuation?$AA@
CONST	SEGMENT
??_C@_0BA@FPHDGFEO@m_flAttenuation?$AA@ DB 'm_flAttenuation', 00H ; `string'
CONST	ENDS
_DATA	SEGMENT
?dataDesc@?1???$DataMapInit@VCAmbientGeneric@@@@YAPAUdatamap_s@@PAVCAmbientGeneric@@@Z@4PAUtypedescription_s@@A DD 012H ; `DataMapInit<CAmbientGeneric>'::`2'::dataDesc
	DD	00H
	DD	00H
	DW	00H
	DW	00H
	DD	00H
	DD	00H
	DD	00H
	DD	FLAT:??_C@_0BA@FPHDGFEO@m_flAttenuation?$AA@
	DD	070cH
	DW	01H
	DW	06H
	DD	FLAT:??_C@_0M@NKGAHMMH@attenuation?$AA@
	DD	00H
	DD	0cH
	DD	FLAT:??_C@_09ONJFEJGN@m_fActive?$AA@
	DD	0774H
	DW	01H
	DW	02H
	DD	00H
	DD	00H
	DD	0cH
	DD	FLAT:??_C@_0L@EFDJKFOK@m_fLooping?$AA@
	DD	0778H
	DW	01H
	DW	02H
	DD	00H
	DD	00H
	DD	0eH
	DD	FLAT:??_C@_05NJMEMMLG@m_dpv?$AA@
	DD	0710H
	DW	064H
	DW	02H
	DD	00H
	DD	00H
	DD	012H
	ORG $+92
?m_DataMap@CSpeaker@@2Udatamap_s@@A DD 00H		; CSpeaker::m_DataMap
	DD	00H
	DD	FLAT:??_C@_08IKHBFCDE@CSpeaker?$AA@
	DD	00H
?dataDesc@?1???$DataMapInit@VCSpeaker@@@@YAPAUdatamap_s@@PAVCSpeaker@@@Z@4PAUtypedescription_s@@A DD 012H ; `DataMapInit<CSpeaker>'::`2'::dataDesc
	DD	00H
	DD	00H
	DW	00H
	DW	00H
	DD	00H
	DD	00H
	DD	0aH
	DD	FLAT:??_C@_08LPEJFCFP@m_preset?$AA@
	DD	070cH
	DW	01H
	DW	06H
	DD	FLAT:??_C@_06OFAGBOBG@preset?$AA@
	DD	00H
	DD	012H
	ORG $+44
?m_DataMap@CEnvSound@@2Udatamap_s@@A DD 00H		; CEnvSound::m_DataMap
	DD	00H
	DD	FLAT:??_C@_09DJGFLIBI@CEnvSound?$AA@
	DD	00H
?dataDesc@?1???$DataMapInit@VCEnvSound@@@@YAPAUdatamap_s@@PAVCEnvSound@@@Z@4PAUtypedescription_s@@A DD 012H ; `DataMapInit<CEnvSound>'::`2'::dataDesc
	DD	00H
	DD	00H
	DW	00H
	DW	00H
	DD	00H
	DD	00H
	DD	00H
	DD	FLAT:??_C@_0L@OEEMMINI@m_flRadius?$AA@
	DD	070cH
	DW	01H
	DW	06H
	DD	FLAT:??_C@_06KGHINEPG@radius?$AA@
	DD	00H
	DD	00H
	DD	FLAT:??_C@_0N@EOOENLGB@m_flRoomtype?$AA@
	DD	0710H
	DW	01H
	DW	06H
	DD	FLAT:??_C@_08FBOCMMDG@roomtype?$AA@
	DD	00H
?rgdpvpreset@@3PAUdynpitchvol@@A DD 01H			; rgdpvpreset
	DD	0ffH
	DD	04bH
	DD	05fH
	DD	05fH
	DD	0aH
	DD	01H
	DD	032H
	DD	05fH
	DD	00H
	DD	00H
	DD	00H
	DD	00H
	DD	00H
	DD	00H
	DD	00H
	DD	00H
	DD	00H
	DD	00H
	DD	00H
	DD	00H
	DD	00H
	DD	00H
	DD	00H
	ORG $+4
	DD	02H
	DD	0ffH
	DD	055H
	DD	046H
	DD	058H
	DD	0aH
	DD	01H
	DD	014H
	DD	058H
	DD	00H
	DD	00H
	DD	00H
	DD	00H
	DD	00H
	DD	00H
	DD	00H
	DD	00H
	DD	00H
	DD	00H
	DD	00H
	DD	00H
	DD	00H
	DD	00H
	DD	00H
	ORG $+4
	DD	03H
	DD	0ffH
	DD	064H
	DD	032H
	DD	04bH
	DD	0aH
	DD	01H
	DD	0aH
	DD	04bH
	DD	00H
	DD	00H
	DD	00H
	DD	00H
	DD	00H
	DD	00H
	DD	00H
	DD	00H
	DD	00H
	DD	00H
	DD	00H
	DD	00H
	DD	00H
	DD	00H
	DD	00H
	ORG $+4
	DD	04H
	DD	064H
	DD	064H
	DD	00H
	DD	00H
	DD	0aH
	DD	01H
	DD	05aH
	DD	05aH
	DD	00H
	DD	00H
	DD	00H
	DD	00H
	DD	00H
	DD	00H
	DD	00H
	DD	00H
	DD	00H
	DD	00H
	DD	00H
	DD	00H
	DD	00H
	DD	00H
	DD	00H
	ORG $+4
	DD	05H
	DD	064H
	DD	064H
	DD	00H
	DD	00H
	DD	0aH
	DD	01H
	DD	050H
	DD	050H
	DD	00H
	DD	00H
	DD	00H
	DD	00H
	DD	00H
	DD	00H
	DD	00H
	DD	00H
	DD	00H
	DD	00H
	DD	00H
	DD	00H
	DD	00H
	DD	00H
	DD	00H
	ORG $+4
	DD	06H
	DD	064H
	DD	064H
	DD	00H
	DD	00H
	DD	0aH
	DD	01H
	DD	032H
	DD	046H
	DD	00H
	DD	00H
	DD	00H
	DD	00H
	DD	00H
	DD	00H
	DD	00H
	DD	00H
	DD	00H
	DD	00H
	DD	00H
	DD	00H
	DD	00H
	DD	00H
	DD	00H
	ORG $+4
	DD	07H
	DD	064H
	DD	064H
	DD	00H
	DD	00H
	DD	05H
	DD	01H
	DD	028H
	DD	032H
	DD	01H
	DD	032H
	DD	00H
	DD	0aH
	DD	00H
	DD	00H
	DD	00H
	DD	00H
	DD	00H
	DD	00H
	DD	00H
	DD	00H
	DD	00H
	DD	00H
	DD	00H
	ORG $+4
	DD	08H
	DD	064H
	DD	064H
	DD	00H
	DD	00H
	DD	05H
	DD	01H
	DD	028H
	DD	032H
	DD	01H
	DD	096H
	DD	00H
	DD	0aH
	DD	00H
	DD	00H
	DD	00H
	DD	00H
	DD	00H
	DD	00H
	DD	00H
	DD	00H
	DD	00H
	DD	00H
	DD	00H
	ORG $+4
	DD	09H
	DD	064H
	DD	064H
	DD	00H
	DD	00H
	DD	05H
	DD	01H
	DD	028H
	DD	032H
	DD	01H
	DD	02eeH
	DD	00H
	DD	0aH
	DD	00H
	DD	00H
	DD	00H
	DD	00H
	DD	00H
	DD	00H
	DD	00H
	DD	00H
	DD	00H
	DD	00H
	DD	00H
	ORG $+4
	DD	0aH
	DD	080H
	DD	064H
	DD	032H
	DD	04bH
	DD	0aH
	DD	01H
	DD	01eH
	DD	028H
	DD	02H
	DD	08H
	DD	014H
	DD	00H
	DD	00H
	DD	00H
	DD	00H
	DD	00H
	DD	00H
	DD	00H
	DD	00H
	DD	00H
	DD	00H
	DD	00H
	DD	00H
	ORG $+4
	DD	0bH
	DD	080H
	DD	064H
	DD	032H
	DD	04bH
	DD	0aH
	DD	01H
	DD	01eH
	DD	028H
	DD	02H
	DD	019H
	DD	014H
	DD	00H
	DD	00H
	DD	00H
	DD	00H
	DD	00H
	DD	00H
	DD	00H
	DD	00H
	DD	00H
	DD	00H
	DD	00H
	DD	00H
	ORG $+4
	DD	0cH
	DD	080H
	DD	064H
	DD	032H
	DD	04bH
	DD	0aH
	DD	01H
	DD	01eH
	DD	028H
	DD	02H
	DD	046H
	DD	014H
	DD	00H
	DD	00H
	DD	00H
	DD	00H
	DD	00H
	DD	00H
	DD	00H
	DD	00H
	DD	00H
	DD	00H
	DD	00H
	DD	00H
	ORG $+4
	DD	0dH
	DD	032H
	DD	032H
	DD	00H
	DD	00H
	DD	0aH
	DD	01H
	DD	014H
	DD	032H
	DD	00H
	DD	00H
	DD	00H
	DD	00H
	DD	00H
	DD	00H
	DD	00H
	DD	00H
	DD	00H
	DD	00H
	DD	00H
	DD	00H
	DD	00H
	DD	00H
	DD	00H
	ORG $+4
	DD	0eH
	DD	046H
	DD	046H
	DD	00H
	DD	00H
	DD	0aH
	DD	01H
	DD	014H
	DD	032H
	DD	00H
	DD	00H
	DD	00H
	DD	00H
	DD	00H
	DD	00H
	DD	00H
	DD	00H
	DD	00H
	DD	00H
	DD	00H
	DD	00H
	DD	00H
	DD	00H
	DD	00H
	ORG $+4
	DD	0fH
	DD	05aH
	DD	05aH
	DD	00H
	DD	00H
	DD	0aH
	DD	01H
	DD	014H
	DD	032H
	DD	00H
	DD	00H
	DD	00H
	DD	00H
	DD	00H
	DD	00H
	DD	00H
	DD	00H
	DD	00H
	DD	00H
	DD	00H
	DD	00H
	DD	00H
	DD	00H
	DD	00H
	ORG $+4
	DD	010H
	DD	078H
	DD	078H
	DD	00H
	DD	00H
	DD	0aH
	DD	01H
	DD	014H
	DD	032H
	DD	00H
	DD	00H
	DD	00H
	DD	00H
	DD	00H
	DD	00H
	DD	00H
	DD	00H
	DD	00H
	DD	00H
	DD	00H
	DD	00H
	DD	00H
	DD	00H
	DD	00H
	ORG $+4
	DD	011H
	DD	0b4H
	DD	0b4H
	DD	00H
	DD	00H
	DD	0aH
	DD	01H
	DD	014H
	DD	032H
	DD	00H
	DD	00H
	DD	00H
	DD	00H
	DD	00H
	DD	00H
	DD	00H
	DD	00H
	DD	00H
	DD	00H
	DD	00H
	DD	00H
	DD	00H
	DD	00H
	DD	00H
	ORG $+4
	DD	012H
	DD	0ffH
	DD	0ffH
	DD	00H
	DD	00H
	DD	0aH
	DD	01H
	DD	014H
	DD	032H
	DD	00H
	DD	00H
	DD	00H
	DD	00H
	DD	00H
	DD	00H
	DD	00H
	DD	00H
	DD	00H
	DD	00H
	DD	00H
	DD	00H
	DD	00H
	DD	00H
	DD	00H
	ORG $+4
	DD	013H
	DD	0c8H
	DD	04bH
	DD	05aH
	DD	05aH
	DD	0aH
	DD	01H
	DD	032H
	DD	05aH
	DD	02H
	DD	064H
	DD	014H
	DD	00H
	DD	00H
	DD	00H
	DD	00H
	DD	00H
	DD	00H
	DD	00H
	DD	00H
	DD	00H
	DD	00H
	DD	00H
	DD	00H
	ORG $+4
	DD	014H
	DD	0ffH
	DD	04bH
	DD	061H
	DD	05aH
	DD	0aH
	DD	01H
	DD	032H
	DD	05aH
	DD	01H
	DD	028H
	DD	032H
	DD	00H
	DD	00H
	DD	00H
	DD	00H
	DD	00H
	DD	00H
	DD	00H
	DD	00H
	DD	00H
	DD	00H
	DD	00H
	DD	00H
	ORG $+4
	DD	015H
	DD	064H
	DD	064H
	DD	00H
	DD	00H
	DD	0aH
	DD	01H
	DD	01eH
	DD	032H
	DD	03H
	DD	0fH
	DD	014H
	DD	00H
	DD	00H
	DD	00H
	DD	00H
	DD	00H
	DD	00H
	DD	00H
	DD	00H
	DD	00H
	DD	00H
	DD	00H
	DD	00H
	ORG $+4
	DD	016H
	DD	0a0H
	DD	0a0H
	DD	00H
	DD	00H
	DD	0aH
	DD	01H
	DD	032H
	DD	032H
	DD	03H
	DD	01f4H
	DD	019H
	DD	00H
	DD	00H
	DD	00H
	DD	00H
	DD	00H
	DD	00H
	DD	00H
	DD	00H
	DD	00H
	DD	00H
	DD	00H
	DD	00H
	ORG $+4
	DD	017H
	DD	0ffH
	DD	04bH
	DD	058H
	DD	00H
	DD	0aH
	DD	01H
	DD	028H
	DD	00H
	DD	00H
	DD	00H
	DD	00H
	DD	00H
	DD	05H
	DD	00H
	DD	00H
	DD	00H
	DD	00H
	DD	00H
	DD	00H
	DD	00H
	DD	00H
	DD	00H
	DD	00H
	ORG $+4
	DD	018H
	DD	0c8H
	DD	014H
	DD	05fH
	DD	046H
	DD	0aH
	DD	01H
	DD	046H
	DD	046H
	DD	03H
	DD	014H
	DD	032H
	DD	00H
	DD	00H
	DD	00H
	DD	00H
	DD	00H
	DD	00H
	DD	00H
	DD	00H
	DD	00H
	DD	00H
	DD	00H
	DD	00H
	ORG $+4
	DD	019H
	DD	0b4H
	DD	064H
	DD	032H
	DD	03cH
	DD	0aH
	DD	01H
	DD	028H
	DD	03cH
	DD	02H
	DD	05aH
	DD	064H
	DD	064H
	DD	00H
	DD	00H
	DD	00H
	DD	00H
	DD	00H
	DD	00H
	DD	00H
	DD	00H
	DD	00H
	DD	00H
	DD	00H
	ORG $+4
	DD	01aH
	DD	03cH
	DD	03cH
	DD	00H
	DD	00H
	DD	0aH
	DD	01H
	DD	028H
	DD	046H
	DD	03H
	DD	050H
	DD	014H
	DD	032H
	DD	00H
	DD	00H
	DD	00H
	DD	00H
	DD	00H
	DD	00H
	DD	00H
	DD	00H
	DD	00H
	DD	00H
	DD	00H
	ORG $+4
	DD	01bH
	DD	080H
	DD	05aH
	DD	0aH
	DD	0aH
	DD	0aH
	DD	01H
	DD	014H
	DD	028H
	DD	01H
	DD	05H
	DD	0aH
	DD	014H
	DD	00H
	DD	00H
	DD	00H
	DD	00H
	DD	00H
	DD	00H
	DD	00H
	DD	00H
	DD	00H
	DD	00H
	DD	00H
	ORG $+4
?m_DataMap@CAmbientGeneric@@2Udatamap_s@@A DD 00H	; CAmbientGeneric::m_DataMap
	DD	00H
	DD	FLAT:??_C@_0BA@JFHJJCNE@CAmbientGeneric?$AA@
	DD	00H
_DATA	ENDS
PUBLIC	??_H@YGXPAXIIP6EPAX0@Z@Z			; `vector constructor iterator'
PUBLIC	??__G@YGXPAX0IIP6EPAX00@Z@Z			; `vector copy constructor iterator'
PUBLIC	?__empty_global_delete@@YAXPAX@Z		; __empty_global_delete
PUBLIC	?__empty_global_delete@@YAXPAXI@Z		; __empty_global_delete
PUBLIC	?strstr@@YAPADQADQBD@Z				; strstr
PUBLIC	___local_stdio_printf_options
PUBLIC	??$__vcrt_va_start_verify_argument_type@QBD@@YAXXZ ; __vcrt_va_start_verify_argument_type<char const * const>
PUBLIC	__vsnprintf_l
PUBLIC	__vsprintf_l
PUBLIC	_sprintf
PUBLIC	??0Vector@@QAE@XZ				; Vector::Vector
PUBLIC	??0Vector@@QAE@MMM@Z				; Vector::Vector
PUBLIC	??0Vector@@QAE@ABV0@@Z				; Vector::Vector
PUBLIC	??8Vector@@QBEHABV0@@Z				; Vector::operator==
PUBLIC	??9Vector@@QBEHABV0@@Z				; Vector::operator!=
PUBLIC	??HVector@@QBE?AV0@ABV0@@Z			; Vector::operator+
PUBLIC	??GVector@@QBE?AV0@ABV0@@Z			; Vector::operator-
PUBLIC	??DVector@@QBE?AV0@M@Z				; Vector::operator*
PUBLIC	?CopyToArray@Vector@@QBEXPAM@Z			; Vector::CopyToArray
PUBLIC	?Length@Vector@@QBEMXZ				; Vector::Length
PUBLIC	??BVector@@QAEPAMXZ				; Vector::operator float *
PUBLIC	??0gametrace_s@@QAE@XZ				; gametrace_s::gametrace_s
PUBLIC	??0gametrace_s@@QAE@$$QAU0@@Z			; gametrace_s::gametrace_s
PUBLIC	?MESSAGE_BEGIN@@YAXHHPBMPAUedict_s@@@Z		; MESSAGE_BEGIN
PUBLIC	?GET_PRIVATE@@YAPAXPAUedict_s@@@Z		; GET_PRIVATE
PUBLIC	??2@YAPAXIPAX@Z					; operator new
PUBLIC	?UtlMemory_CalcNewAllocationCount@@YAHHHHH@Z	; UtlMemory_CalcNewAllocationCount
PUBLIC	??0CDatadescGeneratedNameHolder@@QAE@PBD@Z	; CDatadescGeneratedNameHolder::CDatadescGeneratedNameHolder
PUBLIC	??1CDatadescGeneratedNameHolder@@QAE@XZ		; CDatadescGeneratedNameHolder::~CDatadescGeneratedNameHolder
PUBLIC	?GenerateName@CDatadescGeneratedNameHolder@@QAEPBDPBD@Z ; CDatadescGeneratedNameHolder::GenerateName
PUBLIC	??0?$CUtlArray@PADV?$CUtlMemory@PADH@@@@QAE@HH@Z ; CUtlArray<char *,CUtlMemory<char *,int> >::CUtlArray<char *,CUtlMemory<char *,int> >
PUBLIC	??1?$CUtlArray@PADV?$CUtlMemory@PADH@@@@QAE@XZ	; CUtlArray<char *,CUtlMemory<char *,int> >::~CUtlArray<char *,CUtlMemory<char *,int> >
PUBLIC	??A?$CUtlArray@PADV?$CUtlMemory@PADH@@@@QAEAAPADH@Z ; CUtlArray<char *,CUtlMemory<char *,int> >::operator[]
PUBLIC	?Element@?$CUtlArray@PADV?$CUtlMemory@PADH@@@@QAEAAPADH@Z ; CUtlArray<char *,CUtlMemory<char *,int> >::Element
PUBLIC	?Base@?$CUtlArray@PADV?$CUtlMemory@PADH@@@@QAEPAPADXZ ; CUtlArray<char *,CUtlMemory<char *,int> >::Base
PUBLIC	?Count@?$CUtlArray@PADV?$CUtlMemory@PADH@@@@QBEHXZ ; CUtlArray<char *,CUtlMemory<char *,int> >::Count
PUBLIC	?IsValidIndex@?$CUtlArray@PADV?$CUtlMemory@PADH@@@@QBE_NH@Z ; CUtlArray<char *,CUtlMemory<char *,int> >::IsValidIndex
PUBLIC	?AddToTail@?$CUtlArray@PADV?$CUtlMemory@PADH@@@@QAEHABQAD@Z ; CUtlArray<char *,CUtlMemory<char *,int> >::AddToTail
PUBLIC	?InsertBefore@?$CUtlArray@PADV?$CUtlMemory@PADH@@@@QAEHHABQAD@Z ; CUtlArray<char *,CUtlMemory<char *,int> >::InsertBefore
PUBLIC	?RemoveAll@?$CUtlArray@PADV?$CUtlMemory@PADH@@@@QAEXXZ ; CUtlArray<char *,CUtlMemory<char *,int> >::RemoveAll
PUBLIC	?Purge@?$CUtlArray@PADV?$CUtlMemory@PADH@@@@QAEXXZ ; CUtlArray<char *,CUtlMemory<char *,int> >::Purge
PUBLIC	?GrowVector@?$CUtlArray@PADV?$CUtlMemory@PADH@@@@IAEXH@Z ; CUtlArray<char *,CUtlMemory<char *,int> >::GrowVector
PUBLIC	?ShiftElementsRight@?$CUtlArray@PADV?$CUtlMemory@PADH@@@@IAEXHH@Z ; CUtlArray<char *,CUtlMemory<char *,int> >::ShiftElementsRight
PUBLIC	??0?$CUtlMemory@PADH@@QAE@HH@Z			; CUtlMemory<char *,int>::CUtlMemory<char *,int>
PUBLIC	??1?$CUtlMemory@PADH@@QAE@XZ			; CUtlMemory<char *,int>::~CUtlMemory<char *,int>
PUBLIC	??A?$CUtlMemory@PADH@@QAEAAPADH@Z		; CUtlMemory<char *,int>::operator[]
PUBLIC	?IsIdxValid@?$CUtlMemory@PADH@@QBE_NH@Z		; CUtlMemory<char *,int>::IsIdxValid
PUBLIC	?Base@?$CUtlMemory@PADH@@QAEPAPADXZ		; CUtlMemory<char *,int>::Base
PUBLIC	?NumAllocated@?$CUtlMemory@PADH@@QBEHXZ		; CUtlMemory<char *,int>::NumAllocated
PUBLIC	?Grow@?$CUtlMemory@PADH@@QAEXH@Z		; CUtlMemory<char *,int>::Grow
PUBLIC	?Purge@?$CUtlMemory@PADH@@QAEXXZ		; CUtlMemory<char *,int>::Purge
PUBLIC	?IsExternallyAllocated@?$CUtlMemory@PADH@@QBE_NXZ ; CUtlMemory<char *,int>::IsExternallyAllocated
PUBLIC	?IsReadOnly@?$CUtlMemory@PADH@@QBE_NXZ		; CUtlMemory<char *,int>::IsReadOnly
PUBLIC	?ValidateGrowSize@?$CUtlMemory@PADH@@IAEXXZ	; CUtlMemory<char *,int>::ValidateGrowSize
PUBLIC	?ResetDbgInfo@?$CUtlArray@PADV?$CUtlMemory@PADH@@@@IAEXXZ ; CUtlArray<char *,CUtlMemory<char *,int> >::ResetDbgInfo
PUBLIC	??0IEntityFactory@@QAE@XZ			; IEntityFactory::IEntityFactory
PUBLIC	?ENT@@YAPAUedict_s@@PBUentvars_s@@@Z		; ENT
PUBLIC	?ENT@@YAPAUedict_s@@H@Z				; ENT
PUBLIC	?OFFSET@@YAHPBUedict_s@@@Z			; OFFSET
PUBLIC	?OFFSET@@YAHPAUentvars_s@@@Z			; OFFSET
PUBLIC	?VARS@@YAPAUentvars_s@@PAUedict_s@@@Z		; VARS
PUBLIC	?FNullEnt@@YAHH@Z				; FNullEnt
PUBLIC	?FNullEnt@@YAHPBUedict_s@@@Z			; FNullEnt
PUBLIC	?FNullEnt@@YAHPAUentvars_s@@@Z			; FNullEnt
PUBLIC	?FStringNull@@YAHH@Z				; FStringNull
PUBLIC	?FStrEq@@YAHPBD0@Z				; FStrEq
PUBLIC	?FClassnameIs@@YAHPAUentvars_s@@PBD@Z		; FClassnameIs
PUBLIC	?USENTENCEG_Pick@@YAHHPAD@Z			; USENTENCEG_Pick
PUBLIC	?USENTENCEG_PickSequential@@YAHHPADHH@Z		; USENTENCEG_PickSequential
PUBLIC	?USENTENCEG_InitLRU@@YAXPAEH@Z			; USENTENCEG_InitLRU
PUBLIC	?SENTENCEG_Init@@YAXXZ				; SENTENCEG_Init
PUBLIC	?SENTENCEG_Stop@@YAXPAUedict_s@@HH@Z		; SENTENCEG_Stop
PUBLIC	?SENTENCEG_PlayRndI@@YAHPAUedict_s@@HMMHH@Z	; SENTENCEG_PlayRndI
PUBLIC	?SENTENCEG_PlayRndSz@@YAHPAUedict_s@@PBDMMHH@Z	; SENTENCEG_PlayRndSz
PUBLIC	?SENTENCEG_PlaySequentialSz@@YAHPAUedict_s@@PBDMMHHHH@Z ; SENTENCEG_PlaySequentialSz
PUBLIC	?SENTENCEG_GetIndex@@YAHPBD@Z			; SENTENCEG_GetIndex
PUBLIC	?SENTENCEG_Lookup@@YAHPBDPAD@Z			; SENTENCEG_Lookup
PUBLIC	?TEXTURETYPE_Init@@YAXXZ			; TEXTURETYPE_Init
PUBLIC	?TEXTURETYPE_Find@@YADPAD@Z			; TEXTURETYPE_Find
PUBLIC	?TEXTURETYPE_PlaySound@@YAMPAUgametrace_s@@VVector@@1H@Z ; TEXTURETYPE_PlaySound
PUBLIC	?EMIT_SOUND_DYN@@YAXPAUedict_s@@HPBDMMHH@Z	; EMIT_SOUND_DYN
PUBLIC	?EMIT_SOUND@@YAXPAUedict_s@@HPBDMM@Z		; EMIT_SOUND
PUBLIC	?STOP_SOUND@@YAXPAUedict_s@@HPBD@Z		; STOP_SOUND
PUBLIC	?EMIT_SOUND_SUIT@@YAXPAUedict_s@@PBD@Z		; EMIT_SOUND_SUIT
PUBLIC	?EMIT_GROUPID_SUIT@@YAXPAUedict_s@@H@Z		; EMIT_GROUPID_SUIT
PUBLIC	?EMIT_GROUPNAME_SUIT@@YAXPAUedict_s@@PBD@Z	; EMIT_GROUPNAME_SUIT
PUBLIC	??0WayPoint_t@@QAE@XZ				; WayPoint_t::WayPoint_t
PUBLIC	?Get@EHANDLE@@QAEPAUedict_s@@XZ			; EHANDLE::Get
PUBLIC	??BEHANDLE@@QAEHXZ				; EHANDLE::operator int
PUBLIC	??CEHANDLE@@QAEPAVCBaseEntity@@XZ		; EHANDLE::operator->
PUBLIC	?GetClassname@CBaseEntity@@QAEPBDXZ		; CBaseEntity::GetClassname
PUBLIC	?GetMessageA@CBaseEntity@@QAEPBDXZ		; CBaseEntity::GetMessageA
PUBLIC	?GetNetname@CBaseEntity@@QAEPBDXZ		; CBaseEntity::GetNetname
PUBLIC	?SetClassname@CBaseEntity@@QAEXPBD@Z		; CBaseEntity::SetClassname
PUBLIC	?Spawn@CBaseEntity@@UAEXXZ			; CBaseEntity::Spawn
PUBLIC	?Precache@CBaseEntity@@UAEXXZ			; CBaseEntity::Precache
PUBLIC	?KeyValue@CBaseEntity@@UAEXPAUKeyValueData_s@@@Z ; CBaseEntity::KeyValue
PUBLIC	?ObjectCaps@CBaseEntity@@UAEHXZ			; CBaseEntity::ObjectCaps
PUBLIC	?Activate@CBaseEntity@@UAEXXZ			; CBaseEntity::Activate
PUBLIC	?OnChangeLevel@CBaseEntity@@UAEXXZ		; CBaseEntity::OnChangeLevel
PUBLIC	?OnTeleport@CBaseEntity@@UAEXXZ			; CBaseEntity::OnTeleport
PUBLIC	?PortalSleep@CBaseEntity@@UAEXM@Z		; CBaseEntity::PortalSleep
PUBLIC	?StartMessage@CBaseEntity@@UAEXPAVCBasePlayer@@@Z ; CBaseEntity::StartMessage
PUBLIC	?GetPosition@CBaseEntity@@UAEMXZ		; CBaseEntity::GetPosition
PUBLIC	?OnChangeParent@CBaseEntity@@UAEXXZ		; CBaseEntity::OnChangeParent
PUBLIC	?OnClearParent@CBaseEntity@@UAEXXZ		; CBaseEntity::OnClearParent
PUBLIC	?OnRemove@CBaseEntity@@UAEXXZ			; CBaseEntity::OnRemove
PUBLIC	?Classify@CBaseEntity@@UAEHXZ			; CBaseEntity::Classify
PUBLIC	?DeathNotice@CBaseEntity@@UAEXPAUentvars_s@@@Z	; CBaseEntity::DeathNotice
PUBLIC	?IsRigidBody@CBaseEntity@@UAEHXZ		; CBaseEntity::IsRigidBody
PUBLIC	?GetState@CBaseEntity@@UAE?AW4STATE@@XZ		; CBaseEntity::GetState
PUBLIC	?GetState@CBaseEntity@@UAE?AW4STATE@@PAV1@@Z	; CBaseEntity::GetState
PUBLIC	?BloodColor@CBaseEntity@@UAEHXZ			; CBaseEntity::BloodColor
PUBLIC	?IsTriggered@CBaseEntity@@UAEHPAV1@@Z		; CBaseEntity::IsTriggered
PUBLIC	?MyMonsterPointer@CBaseEntity@@UAEPAVCBaseMonster@@XZ ; CBaseEntity::MyMonsterPointer
PUBLIC	?MySquadMonsterPointer@CBaseEntity@@UAEPAVCSquadMonster@@XZ ; CBaseEntity::MySquadMonsterPointer
PUBLIC	?GetToggleState@CBaseEntity@@UAEHXZ		; CBaseEntity::GetToggleState
PUBLIC	?AddPoints@CBaseEntity@@UAEXHH@Z		; CBaseEntity::AddPoints
PUBLIC	?AddPointsToTeam@CBaseEntity@@UAEXHH@Z		; CBaseEntity::AddPointsToTeam
PUBLIC	?AddPlayerItem@CBaseEntity@@UAEHPAVCBasePlayerItem@@@Z ; CBaseEntity::AddPlayerItem
PUBLIC	?RemovePlayerItem@CBaseEntity@@UAEHPAVCBasePlayerItem@@@Z ; CBaseEntity::RemovePlayerItem
PUBLIC	?GiveAmmo@CBaseEntity@@UAEHHPADH@Z		; CBaseEntity::GiveAmmo
PUBLIC	?GetDelay@CBaseEntity@@UAEMXZ			; CBaseEntity::GetDelay
PUBLIC	?IsMoving@CBaseEntity@@UAEHXZ			; CBaseEntity::IsMoving
PUBLIC	?OverrideReset@CBaseEntity@@UAEXXZ		; CBaseEntity::OverrideReset
PUBLIC	?TransferReset@CBaseEntity@@UAEXXZ		; CBaseEntity::TransferReset
PUBLIC	?SetToggleState@CBaseEntity@@UAEXH@Z		; CBaseEntity::SetToggleState
PUBLIC	?StartSneaking@CBaseEntity@@UAEXXZ		; CBaseEntity::StartSneaking
PUBLIC	?StopSneaking@CBaseEntity@@UAEXXZ		; CBaseEntity::StopSneaking
PUBLIC	?OnControls@CBaseEntity@@UAEHPAV1@@Z		; CBaseEntity::OnControls
PUBLIC	?IsSneaking@CBaseEntity@@UAEHXZ			; CBaseEntity::IsSneaking
PUBLIC	?IsAlive@CBaseEntity@@UAEHXZ			; CBaseEntity::IsAlive
PUBLIC	?IsBSPModel@CBaseEntity@@UAEHXZ			; CBaseEntity::IsBSPModel
PUBLIC	?IsCustomModel@CBaseEntity@@UAEHXZ		; CBaseEntity::IsCustomModel
PUBLIC	?ReflectGauss@CBaseEntity@@UAEHXZ		; CBaseEntity::ReflectGauss
PUBLIC	?HasTarget@CBaseEntity@@UAEHH@Z			; CBaseEntity::HasTarget
PUBLIC	?IsPlayer@CBaseEntity@@UAEHXZ			; CBaseEntity::IsPlayer
PUBLIC	?IsNetClient@CBaseEntity@@UAEHXZ		; CBaseEntity::IsNetClient
PUBLIC	?IsMonster@CBaseEntity@@UAEHXZ			; CBaseEntity::IsMonster
PUBLIC	?IsPushable@CBaseEntity@@UAEHXZ			; CBaseEntity::IsPushable
PUBLIC	?IsProjectile@CBaseEntity@@UAEHXZ		; CBaseEntity::IsProjectile
PUBLIC	?IsFuncScreen@CBaseEntity@@UAEHXZ		; CBaseEntity::IsFuncScreen
PUBLIC	?IsPortal@CBaseEntity@@UAEHXZ			; CBaseEntity::IsPortal
PUBLIC	?IsTank@CBaseEntity@@UAEHXZ			; CBaseEntity::IsTank
PUBLIC	?IsMover@CBaseEntity@@UAEHXZ			; CBaseEntity::IsMover
PUBLIC	?IsBreakable@CBaseEntity@@UAEHXZ		; CBaseEntity::IsBreakable
PUBLIC	?TeamID@CBaseEntity@@UAEPBDXZ			; CBaseEntity::TeamID
PUBLIC	?AddSpawnFlags@CBaseEntity@@UAEXH@Z		; CBaseEntity::AddSpawnFlags
PUBLIC	?HasSpawnFlags@CBaseEntity@@UBE_NH@Z		; CBaseEntity::HasSpawnFlags
PUBLIC	?SetFadeDistance@CBaseEntity@@UAEXH@Z		; CBaseEntity::SetFadeDistance
PUBLIC	?SetFlag@CBaseEntity@@UAEXH@Z			; CBaseEntity::SetFlag
PUBLIC	?HasFlag@CBaseEntity@@UBE_NH@Z			; CBaseEntity::HasFlag
PUBLIC	?RemoveFlag@CBaseEntity@@UAEXH@Z		; CBaseEntity::RemoveFlag
PUBLIC	?SetNullModel@CBaseEntity@@UAEXXZ		; CBaseEntity::SetNullModel
PUBLIC	?OnPickupObject@CBaseEntity@@UAEXXZ		; CBaseEntity::OnPickupObject
PUBLIC	?OnDropObject@CBaseEntity@@UAEXXZ		; CBaseEntity::OnDropObject
PUBLIC	?Think@CBaseEntity@@UAEXXZ			; CBaseEntity::Think
PUBLIC	?Use@CBaseEntity@@UAEXPAV1@0W4USE_TYPE@@M@Z	; CBaseEntity::Use
PUBLIC	?Touch@CBaseEntity@@UAEXPAV1@@Z			; CBaseEntity::Touch
PUBLIC	?Blocked@CBaseEntity@@UAEXPAV1@@Z		; CBaseEntity::Blocked
PUBLIC	?MoveDone@CBaseEntity@@UAEXXZ			; CBaseEntity::MoveDone
PUBLIC	??2CBaseEntity@@SAPAXIPAUentvars_s@@@Z		; CBaseEntity::operator new
PUBLIC	??3CBaseEntity@@SAXPAXPAUentvars_s@@@Z		; CBaseEntity::operator delete
PUBLIC	?Respawn@CBaseEntity@@UAEPAV1@XZ		; CBaseEntity::Respawn
PUBLIC	?Instance@CBaseEntity@@SAPAV1@PAUedict_s@@@Z	; CBaseEntity::Instance
PUBLIC	?FunctionCheck@CBaseEntity@@QAEXPAXPAD@Z	; CBaseEntity::FunctionCheck
PUBLIC	?ThinkSet@CBaseEntity@@QAEP81@AEXXZP81@AEXXZPAD@Z ; CBaseEntity::ThinkSet
PUBLIC	?UseSet@CBaseEntity@@QAEP81@AEXPAV1@0W4USE_TYPE@@M@ZP81@AEX001M@ZPAD@Z ; CBaseEntity::UseSet
PUBLIC	?UpdateOwner@CBaseEntity@@UAEXXZ		; CBaseEntity::UpdateOwner
PUBLIC	?FBecomeProne@CBaseEntity@@UAEHXZ		; CBaseEntity::FBecomeProne
PUBLIC	?edict@CBaseEntity@@QAEPAUedict_s@@XZ		; CBaseEntity::edict
PUBLIC	?Center@CBaseEntity@@UAE?AVVector@@XZ		; CBaseEntity::Center
PUBLIC	?EyePosition@CBaseEntity@@UAE?AVVector@@XZ	; CBaseEntity::EyePosition
PUBLIC	?EarPosition@CBaseEntity@@UAE?AVVector@@XZ	; CBaseEntity::EarPosition
PUBLIC	?BodyTarget@CBaseEntity@@UAE?AVVector@@ABV2@@Z	; CBaseEntity::BodyTarget
PUBLIC	?IsPointSized@CBaseEntity@@UBEHXZ		; CBaseEntity::IsPointSized
PUBLIC	?Illumination@CBaseEntity@@UAEHXZ		; CBaseEntity::Illumination
PUBLIC	??0CBaseEntity@@QAE@XZ				; CBaseEntity::CBaseEntity
PUBLIC	??1CBaseEntity@@QAE@XZ				; CBaseEntity::~CBaseEntity
PUBLIC	?ObjectCaps@CPointEntity@@UAEHXZ		; CPointEntity::ObjectCaps
PUBLIC	??0CPointEntity@@QAE@XZ				; CPointEntity::CPointEntity
PUBLIC	?PlayLockSounds@@YAXPAUentvars_s@@PAUlocksounds@@HH@Z ; PlayLockSounds
PUBLIC	?GetState@CBaseDelay@@UAE?AW4STATE@@XZ		; CBaseDelay::GetState
PUBLIC	??0CBaseDelay@@QAE@XZ				; CBaseDelay::CBaseDelay
PUBLIC	??1CBaseDelay@@QAE@XZ				; CBaseDelay::~CBaseDelay
PUBLIC	?HandleAnimEvent@CBaseAnimating@@UAEXPAUMonsterEvent_t@@@Z ; CBaseAnimating::HandleAnimEvent
PUBLIC	??0CBaseAnimating@@QAE@XZ			; CBaseAnimating::CBaseAnimating
PUBLIC	??1CBaseAnimating@@QAE@XZ			; CBaseAnimating::~CBaseAnimating
PUBLIC	?GetToggleState@CBaseToggle@@UAEHXZ		; CBaseToggle::GetToggleState
PUBLIC	?GetDelay@CBaseToggle@@UAEMXZ			; CBaseToggle::GetDelay
PUBLIC	??0CBaseToggle@@QAE@XZ				; CBaseToggle::CBaseToggle
PUBLIC	??1CBaseToggle@@QAE@XZ				; CBaseToggle::~CBaseToggle
PUBLIC	?Classify@CBaseMonster@@UAEHXZ			; CBaseMonster::Classify
PUBLIC	?BloodColor@CBaseMonster@@UAEHXZ		; CBaseMonster::BloodColor
PUBLIC	?MyMonsterPointer@CBaseMonster@@UAEPAV1@XZ	; CBaseMonster::MyMonsterPointer
PUBLIC	?IsAlive@CBaseMonster@@UAEHXZ			; CBaseMonster::IsAlive
PUBLIC	?GetStoppedActivity@CBaseMonster@@UAE?AW4Activity@@XZ ; CBaseMonster::GetStoppedActivity
PUBLIC	?Stop@CBaseMonster@@UAEXXZ			; CBaseMonster::Stop
PUBLIC	?ScheduleChange@CBaseMonster@@UAEXXZ		; CBaseMonster::ScheduleChange
PUBLIC	?CanPlaySentence@CBaseMonster@@UAEHH@Z		; CBaseMonster::CanPlaySentence
PUBLIC	?SetYawSpeed@CBaseMonster@@UAEXXZ		; CBaseMonster::SetYawSpeed
PUBLIC	?FValidateCover@CBaseMonster@@UAEHABVVector@@@Z	; CBaseMonster::FValidateCover
PUBLIC	?CoverRadius@CBaseMonster@@UAEMXZ		; CBaseMonster::CoverRadius
PUBLIC	?CheckAmmo@CBaseMonster@@UAEXXZ			; CBaseMonster::CheckAmmo
PUBLIC	?HearingSensitivity@CBaseMonster@@UAEMXZ	; CBaseMonster::HearingSensitivity
PUBLIC	?PrescheduleThink@CBaseMonster@@UAEXXZ		; CBaseMonster::PrescheduleThink
PUBLIC	?BodyTarget@CBaseMonster@@UAE?AVVector@@ABV2@@Z	; CBaseMonster::BodyTarget
PUBLIC	?IsMoving@CBaseMonster@@UAEHXZ			; CBaseMonster::IsMoving
PUBLIC	?DeathSound@CBaseMonster@@UAEXXZ		; CBaseMonster::DeathSound
PUBLIC	?AlertSound@CBaseMonster@@UAEXXZ		; CBaseMonster::AlertSound
PUBLIC	?IdleSound@CBaseMonster@@UAEXXZ			; CBaseMonster::IdleSound
PUBLIC	?PainSound@CBaseMonster@@UAEXXZ			; CBaseMonster::PainSound
PUBLIC	?StopFollowing@CBaseMonster@@UAEXH@Z		; CBaseMonster::StopFollowing
PUBLIC	??0CBaseMonster@@QAE@XZ				; CBaseMonster::CBaseMonster
PUBLIC	??1CBaseMonster@@QAE@XZ				; CBaseMonster::~CBaseMonster
PUBLIC	?BodyTarget@CBasePlayer@@UAE?AVVector@@ABV2@@Z	; CBasePlayer::BodyTarget
PUBLIC	?StartSneaking@CBasePlayer@@UAEXXZ		; CBasePlayer::StartSneaking
PUBLIC	?StopSneaking@CBasePlayer@@UAEXXZ		; CBasePlayer::StopSneaking
PUBLIC	?IsSneaking@CBasePlayer@@UAEHXZ			; CBasePlayer::IsSneaking
PUBLIC	?IsAlive@CBasePlayer@@UAEHXZ			; CBasePlayer::IsAlive
PUBLIC	?ShouldFadeOnDeath@CBasePlayer@@UAEHXZ		; CBasePlayer::ShouldFadeOnDeath
PUBLIC	?IsPlayer@CBasePlayer@@UAEHXZ			; CBasePlayer::IsPlayer
PUBLIC	?IsNetClient@CBasePlayer@@UAEHXZ		; CBasePlayer::IsNetClient
PUBLIC	?ObjectCaps@CBasePlayer@@UAEHXZ			; CBasePlayer::ObjectCaps
PUBLIC	??0CBasePlayer@@QAE@XZ				; CBasePlayer::CBasePlayer
PUBLIC	?KeyValue@CAmbientGeneric@@UAEXPAUKeyValueData_s@@@Z ; CAmbientGeneric::KeyValue
PUBLIC	?Spawn@CAmbientGeneric@@UAEXXZ			; CAmbientGeneric::Spawn
PUBLIC	?Precache@CAmbientGeneric@@UAEXXZ		; CAmbientGeneric::Precache
PUBLIC	?ToggleUse@CAmbientGeneric@@QAEXPAVCBaseEntity@@0W4USE_TYPE@@M@Z ; CAmbientGeneric::ToggleUse
PUBLIC	?RampThink@CAmbientGeneric@@QAEXXZ		; CAmbientGeneric::RampThink
PUBLIC	?StartDynamicSound@CAmbientGeneric@@QAEXXZ	; CAmbientGeneric::StartDynamicSound
PUBLIC	?InitModulationParms@CAmbientGeneric@@QAEXXZ	; CAmbientGeneric::InitModulationParms
PUBLIC	?ReInitialize@CAmbientGeneric@@QAEXXZ		; CAmbientGeneric::ReInitialize
PUBLIC	?ClearEffects@CAmbientGeneric@@UAEXXZ		; CAmbientGeneric::ClearEffects
PUBLIC	?GetBaseMap@CAmbientGeneric@@SAPAUdatamap_s@@XZ	; CAmbientGeneric::GetBaseMap
PUBLIC	?GetDataDescMap@CAmbientGeneric@@UAEPAUdatamap_s@@XZ ; CAmbientGeneric::GetDataDescMap
PUBLIC	?ObjectCaps@CAmbientGeneric@@UAEHXZ		; CAmbientGeneric::ObjectCaps
PUBLIC	??0CAmbientGeneric@@QAE@XZ			; CAmbientGeneric::CAmbientGeneric
PUBLIC	??0?$CEntityFactory@VCAmbientGeneric@@@@QAE@PBD@Z ; CEntityFactory<CAmbientGeneric>::CEntityFactory<CAmbientGeneric>
PUBLIC	?Create@?$CEntityFactory@VCAmbientGeneric@@@@UAEPAVCBaseEntity@@PBDPAUentvars_s@@@Z ; CEntityFactory<CAmbientGeneric>::Create
PUBLIC	?Destroy@?$CEntityFactory@VCAmbientGeneric@@@@UAEXPAVCBaseEntity@@@Z ; CEntityFactory<CAmbientGeneric>::Destroy
PUBLIC	?GetEntitySize@?$CEntityFactory@VCAmbientGeneric@@@@UAEIXZ ; CEntityFactory<CAmbientGeneric>::GetEntitySize
PUBLIC	??$DataMapAccess@VCBaseEntity@@@@YAXPAVCBaseEntity@@PAPAUdatamap_s@@@Z ; DataMapAccess<CBaseEntity>
PUBLIC	??$DataMapInit@VCAmbientGeneric@@@@YAPAUdatamap_s@@PAVCAmbientGeneric@@@Z ; DataMapInit<CAmbientGeneric>
PUBLIC	?KeyValue@CEnvSound@@UAEXPAUKeyValueData_s@@@Z	; CEnvSound::KeyValue
PUBLIC	?Spawn@CEnvSound@@UAEXXZ			; CEnvSound::Spawn
PUBLIC	?Think@CEnvSound@@UAEXXZ			; CEnvSound::Think
PUBLIC	?GetBaseMap@CEnvSound@@SAPAUdatamap_s@@XZ	; CEnvSound::GetBaseMap
PUBLIC	?GetDataDescMap@CEnvSound@@UAEPAUdatamap_s@@XZ	; CEnvSound::GetDataDescMap
PUBLIC	??0CEnvSound@@QAE@XZ				; CEnvSound::CEnvSound
PUBLIC	??0?$CEntityFactory@VCEnvSound@@@@QAE@PBD@Z	; CEntityFactory<CEnvSound>::CEntityFactory<CEnvSound>
PUBLIC	?Create@?$CEntityFactory@VCEnvSound@@@@UAEPAVCBaseEntity@@PBDPAUentvars_s@@@Z ; CEntityFactory<CEnvSound>::Create
PUBLIC	?Destroy@?$CEntityFactory@VCEnvSound@@@@UAEXPAVCBaseEntity@@@Z ; CEntityFactory<CEnvSound>::Destroy
PUBLIC	?GetEntitySize@?$CEntityFactory@VCEnvSound@@@@UAEIXZ ; CEntityFactory<CEnvSound>::GetEntitySize
PUBLIC	??$DataMapAccess@VCPointEntity@@@@YAXPAVCPointEntity@@PAPAUdatamap_s@@@Z ; DataMapAccess<CPointEntity>
PUBLIC	??$DataMapInit@VCEnvSound@@@@YAPAUdatamap_s@@PAVCEnvSound@@@Z ; DataMapInit<CEnvSound>
PUBLIC	?FEnvSoundInRange@@YAHPAVCBaseEntity@@0PAM@Z	; FEnvSoundInRange
PUBLIC	??$GetClassPtr@VCEnvSound@@@@YAPAVCEnvSound@@PAV0@@Z ; GetClassPtr<CEnvSound>
PUBLIC	??$GetClassPtr@VCBasePlayer@@@@YAPAVCBasePlayer@@PAV0@@Z ; GetClassPtr<CBasePlayer>
PUBLIC	?KeyValue@CTriggerSound@@UAEXPAUKeyValueData_s@@@Z ; CTriggerSound::KeyValue
PUBLIC	?Spawn@CTriggerSound@@UAEXXZ			; CTriggerSound::Spawn
PUBLIC	?Touch@CTriggerSound@@UAEXPAVCBaseEntity@@@Z	; CTriggerSound::Touch
PUBLIC	?ObjectCaps@CTriggerSound@@UAEHXZ		; CTriggerSound::ObjectCaps
PUBLIC	??0CTriggerSound@@QAE@XZ			; CTriggerSound::CTriggerSound
PUBLIC	??0?$CEntityFactory@VCTriggerSound@@@@QAE@PBD@Z	; CEntityFactory<CTriggerSound>::CEntityFactory<CTriggerSound>
PUBLIC	?Create@?$CEntityFactory@VCTriggerSound@@@@UAEPAVCBaseEntity@@PBDPAUentvars_s@@@Z ; CEntityFactory<CTriggerSound>::Create
PUBLIC	?Destroy@?$CEntityFactory@VCTriggerSound@@@@UAEXPAVCBaseEntity@@@Z ; CEntityFactory<CTriggerSound>::Destroy
PUBLIC	?GetEntitySize@?$CEntityFactory@VCTriggerSound@@@@UAEIXZ ; CEntityFactory<CTriggerSound>::GetEntitySize
PUBLIC	?KeyValue@CSpeaker@@UAEXPAUKeyValueData_s@@@Z	; CSpeaker::KeyValue
PUBLIC	?Spawn@CSpeaker@@UAEXXZ				; CSpeaker::Spawn
PUBLIC	?Precache@CSpeaker@@UAEXXZ			; CSpeaker::Precache
PUBLIC	?ToggleUse@CSpeaker@@QAEXPAVCBaseEntity@@0W4USE_TYPE@@M@Z ; CSpeaker::ToggleUse
PUBLIC	?SpeakerThink@CSpeaker@@QAEXXZ			; CSpeaker::SpeakerThink
PUBLIC	?GetBaseMap@CSpeaker@@SAPAUdatamap_s@@XZ	; CSpeaker::GetBaseMap
PUBLIC	?GetDataDescMap@CSpeaker@@UAEPAUdatamap_s@@XZ	; CSpeaker::GetDataDescMap
PUBLIC	?ObjectCaps@CSpeaker@@UAEHXZ			; CSpeaker::ObjectCaps
PUBLIC	??0CSpeaker@@QAE@XZ				; CSpeaker::CSpeaker
PUBLIC	??0?$CEntityFactory@VCSpeaker@@@@QAE@PBD@Z	; CEntityFactory<CSpeaker>::CEntityFactory<CSpeaker>
PUBLIC	?Create@?$CEntityFactory@VCSpeaker@@@@UAEPAVCBaseEntity@@PBDPAUentvars_s@@@Z ; CEntityFactory<CSpeaker>::Create
PUBLIC	?Destroy@?$CEntityFactory@VCSpeaker@@@@UAEXPAVCBaseEntity@@@Z ; CEntityFactory<CSpeaker>::Destroy
PUBLIC	?GetEntitySize@?$CEntityFactory@VCSpeaker@@@@UAEIXZ ; CEntityFactory<CSpeaker>::GetEntitySize
PUBLIC	??$DataMapInit@VCSpeaker@@@@YAPAUdatamap_s@@PAVCSpeaker@@@Z ; DataMapInit<CSpeaker>
PUBLIC	?GetState@CAmbientMusic@@UAE?AW4STATE@@XZ	; CAmbientMusic::GetState
PUBLIC	?Use@CAmbientMusic@@UAEXPAVCBaseEntity@@0W4USE_TYPE@@M@Z ; CAmbientMusic::Use
PUBLIC	?PlayStream@CAmbientMusic@@QAEXPAVCBasePlayer@@_N@Z ; CAmbientMusic::PlayStream
PUBLIC	?StartMessage@CAmbientMusic@@UAEXPAVCBasePlayer@@@Z ; CAmbientMusic::StartMessage
PUBLIC	?KeyValue@CAmbientMusic@@UAEXPAUKeyValueData_s@@@Z ; CAmbientMusic::KeyValue
PUBLIC	?Spawn@CAmbientMusic@@UAEXXZ			; CAmbientMusic::Spawn
PUBLIC	?Think@CAmbientMusic@@UAEXXZ			; CAmbientMusic::Think
PUBLIC	??0CAmbientMusic@@QAE@XZ			; CAmbientMusic::CAmbientMusic
PUBLIC	??0?$CEntityFactory@VCAmbientMusic@@@@QAE@PBD@Z	; CEntityFactory<CAmbientMusic>::CEntityFactory<CAmbientMusic>
PUBLIC	?Create@?$CEntityFactory@VCAmbientMusic@@@@UAEPAVCBaseEntity@@PBDPAUentvars_s@@@Z ; CEntityFactory<CAmbientMusic>::Create
PUBLIC	?Destroy@?$CEntityFactory@VCAmbientMusic@@@@UAEXPAVCBaseEntity@@@Z ; CEntityFactory<CAmbientMusic>::Destroy
PUBLIC	?GetEntitySize@?$CEntityFactory@VCAmbientMusic@@@@UAEIXZ ; CEntityFactory<CAmbientMusic>::GetEntitySize
PUBLIC	??$GetClassPtr@VCAmbientMusic@@@@YAPAVCAmbientMusic@@PAV0@PBD@Z ; GetClassPtr<CAmbientMusic>
PUBLIC	??$GetClassPtr@VCSpeaker@@@@YAPAVCSpeaker@@PAV0@PBD@Z ; GetClassPtr<CSpeaker>
PUBLIC	??$GetClassPtr@VCTriggerSound@@@@YAPAVCTriggerSound@@PAV0@PBD@Z ; GetClassPtr<CTriggerSound>
PUBLIC	??$GetClassPtr@VCEnvSound@@@@YAPAVCEnvSound@@PAV0@PBD@Z ; GetClassPtr<CEnvSound>
PUBLIC	??$GetClassPtr@VCAmbientGeneric@@@@YAPAVCAmbientGeneric@@PAV0@PBD@Z ; GetClassPtr<CAmbientGeneric>
PUBLIC	??$CopyConstruct@PAD@@YAXPAPADABQAD@Z		; CopyConstruct<char *>
PUBLIC	??$Destruct@PAD@@YAXPAPAD@Z			; Destruct<char *>
PUBLIC	?_OptionsStorage@?1??__local_stdio_printf_options@@9@4_KA ; `__local_stdio_printf_options'::`2'::_OptionsStorage
PUBLIC	??_C@_00CNPNBAHC@?$AA@				; `string'
PUBLIC	??_C@_04EFCDBJNL@?$CFs?3?3?$AA@			; `string'
PUBLIC	??_7IEntityFactory@@6B@				; IEntityFactory::`vftable'
PUBLIC	??_C@_0BF@CPEPILID@Bad?5ent?5in?5OFFSET?$CI?$CJ?6?$AA@ ; `string'
PUBLIC	??_C@_0BF@DOONGEFO@Bad?5pev?5in?5OFFSET?$CI?$CJ?6?$AA@ ; `string'
PUBLIC	??_7CBaseEntity@@6B@				; CBaseEntity::`vftable'
PUBLIC	??_C@_06MLKDMCBD@parent?$AA@			; `string'
PUBLIC	??_C@_08JJJAOBDI@movewith?$AA@			; `string'
PUBLIC	??_C@_0M@EAELDHJO@parentflags?$AA@		; `string'
PUBLIC	??_C@_05IAKJCFIM@style?$AA@			; `string'
PUBLIC	??_C@_0L@IKCANML@reflection?$AA@		; `string'
PUBLIC	??_C@_0N@JILDNHAP@vlight_cache?$AA@		; `string'
PUBLIC	??_C@_0L@JIJDCONP@customname?$AA@		; `string'
PUBLIC	??_C@_0CH@HELFJPDL@FUNCTION?5NOT?5IN?5TABLE?$CB?3?5?$CFs?3?$CFs?5?$CI?$CF@ ; `string'
PUBLIC	??_7CPointEntity@@6B@				; CPointEntity::`vftable'
PUBLIC	??_7CBaseDelay@@6B@				; CBaseDelay::`vftable'
PUBLIC	??_7CBaseAnimating@@6B@				; CBaseAnimating::`vftable'
PUBLIC	??_7CBaseToggle@@6B@				; CBaseToggle::`vftable'
PUBLIC	??_7CBaseMonster@@6B@				; CBaseMonster::`vftable'
PUBLIC	??_C@_0BB@EMJBJDBM@sprites?1null?4spr?$AA@	; `string'
PUBLIC	??_C@_0BJ@EIFNLFLK@?$CGCBaseEntity?3?3SUB_Remove?$AA@ ; `string'
PUBLIC	??_7CBasePlayer@@6B@				; CBasePlayer::`vftable'
PUBLIC	??_7CAmbientGeneric@@6B@			; CAmbientGeneric::`vftable'
PUBLIC	??_7?$CEntityFactory@VCAmbientGeneric@@@@6B@	; CEntityFactory<CAmbientGeneric>::`vftable'
PUBLIC	??_C@_0BA@JGPOPFCJ@ambient_generic?$AA@		; `string'
PUBLIC	?g_DataMapHolder@CAmbientGeneric_DataDescInit@@3PAUdatamap_s@@A ; CAmbientGeneric_DataDescInit::g_DataMapHolder
PUBLIC	??_C@_09PBDJKLPI@RampThink?$AA@			; `string'
PUBLIC	??_C@_09CHGFKFGA@ToggleUse?$AA@			; `string'
PUBLIC	??_C@_0BC@JFAHPILA@StartDynamicSound?$AA@	; `string'
PUBLIC	??_C@_0N@BFNLBOAL@ReInitialize?$AA@		; `string'
PUBLIC	??_C@_0BO@MMKAKBAC@EMPTY?5AMBIENT?5AT?3?5?$CFf?0?5?$CFf?0?5?$CFf?6?$AA@ ; `string'
PUBLIC	??_C@_0BM@OHHKHLFG@?$CGCAmbientGeneric?3?3ToggleUse?$AA@ ; `string'
PUBLIC	??_C@_0CE@DGMMICMH@?$CGCAmbientGeneric?3?3StartDynamicSo@ ; `string'
PUBLIC	??_C@_0BP@KHIOGCIN@?$CGCAmbientGeneric?3?3ReInitialize?$AA@ ; `string'
PUBLIC	??_C@_0BM@DBCGHFMO@?$CGCAmbientGeneric?3?3RampThink?$AA@ ; `string'
PUBLIC	??_C@_05NCNFOFLM@pitch?$AA@			; `string'
PUBLIC	??_C@_0L@BCICKNJD@pitchstart?$AA@		; `string'
PUBLIC	??_C@_06IGOPKBLH@spinup?$AA@			; `string'
PUBLIC	??_C@_08PFGPOMOJ@spindown?$AA@			; `string'
PUBLIC	??_C@_08MBMKGMEC@volstart?$AA@			; `string'
PUBLIC	??_C@_06JFGPOFJL@fadein?$AA@			; `string'
PUBLIC	??_C@_07BJADIKJG@fadeout?$AA@			; `string'
PUBLIC	??_C@_07FKEDAPJJ@lfotype?$AA@			; `string'
PUBLIC	??_C@_07EHKHCNJF@lforate?$AA@			; `string'
PUBLIC	??_C@_0M@HGAJBMGN@lfomodpitch?$AA@		; `string'
PUBLIC	??_C@_09EKPKCPJP@lfomodvol?$AA@			; `string'
PUBLIC	??_C@_07CAMFAGPI@cspinup?$AA@			; `string'
PUBLIC	??_7CEnvSound@@6B@				; CEnvSound::`vftable'
PUBLIC	??_7?$CEntityFactory@VCEnvSound@@@@6B@		; CEntityFactory<CEnvSound>::`vftable'
PUBLIC	??_C@_09IJFFIEBG@env_sound?$AA@			; `string'
PUBLIC	?g_DataMapHolder@CEnvSound_DataDescInit@@3PAUdatamap_s@@A ; CEnvSound_DataDescInit::g_DataMapHolder
PUBLIC	??_7CTriggerSound@@6B@				; CTriggerSound::`vftable'
PUBLIC	??_7?$CEntityFactory@VCTriggerSound@@@@6B@	; CEntityFactory<CTriggerSound>::`vftable'
PUBLIC	??_C@_0O@FMPBPFAO@trigger_sound?$AA@		; `string'
PUBLIC	??_C@_01DCLJPIOD@?$CB?$AA@			; `string'
PUBLIC	??_C@_02DPKJAMEF@?$CFd?$AA@			; `string'
PUBLIC	??_C@_0BL@PDIDECJC@No?5such?5sentence?5group?5?$CFs?6?$AA@ ; `string'
PUBLIC	??_C@_0BE@LOFIHEDB@sound?1sentences?4txt?$AA@	; `string'
PUBLIC	??_C@_0CG@HMGILMJN@Too?5many?5sentences?5in?5sentences?4@ ; `string'
PUBLIC	??_C@_0CE@OLECIHDE@Sentence?5?$CFs?5longer?5than?5?$CFd?5lette@ ; `string'
PUBLIC	??_C@_0CM@HHCLKDCI@Too?5many?5sentence?5groups?5in?5sent@ ; `string'
PUBLIC	??_C@_0CE@LFNOEBKB@Unable?5to?5find?5?$CFs?5in?5sentences?4t@ ; `string'
PUBLIC	??_C@_0L@BFLOMJEF@suitvolume?$AA@		; `string'
PUBLIC	??_C@_0BD@EJFPBDDL@data?1materials?4txt?$AA@	; `string'
PUBLIC	??_C@_02CBLDBPFN@?1?1?$AA@			; `string'
PUBLIC	??_C@_0O@MDKCAHNO@monster_alice?$AA@		; `string'
PUBLIC	??_C@_0BD@NGLEFHDP@hits?1concrete1?4wav?$AA@	; `string'
PUBLIC	??_C@_0BD@FACACFJB@hits?1concrete2?4wav?$AA@	; `string'
PUBLIC	??_C@_0BD@JLHMPGDE@hits?1concrete3?4wav?$AA@	; `string'
PUBLIC	??_C@_0BD@IGHJMGIM@hits?1concrete4?4wav?$AA@	; `string'
PUBLIC	??_C@_0BA@NFNLDODK@hits?1metal1?4wav?$AA@	; `string'
PUBLIC	??_C@_0BA@FDEPEMJE@hits?1metal2?4wav?$AA@	; `string'
PUBLIC	??_C@_0BA@JIBDJPDB@hits?1metal3?4wav?$AA@	; `string'
PUBLIC	??_C@_0BA@IFBGKPIJ@hits?1metal4?4wav?$AA@	; `string'
PUBLIC	??_C@_0P@BCDMGIBN@hits?1dirt1?4wav?$AA@		; `string'
PUBLIC	??_C@_0P@JEKIBKLD@hits?1dirt2?4wav?$AA@		; `string'
PUBLIC	??_C@_0P@FPPEMJBG@hits?1dirt3?4wav?$AA@		; `string'
PUBLIC	??_C@_0BF@JKJLEGDL@footsteps?1slosh1?4wav?$AA@	; `string'
PUBLIC	??_C@_0BF@NHFDOHDA@footsteps?1slosh3?4wav?$AA@	; `string'
PUBLIC	??_C@_0BF@BMAPDEJF@footsteps?1slosh2?4wav?$AA@	; `string'
PUBLIC	??_C@_0BF@MKFGNHII@footsteps?1slosh4?4wav?$AA@	; `string'
PUBLIC	??_C@_0P@CNNPJDEI@hits?1wood1?4wav?$AA@		; `string'
PUBLIC	??_C@_0P@KLELOBOG@hits?1wood2?4wav?$AA@		; `string'
PUBLIC	??_C@_0P@GABHDCED@hits?1wood3?4wav?$AA@		; `string'
PUBLIC	??_C@_0P@HNBCACPL@hits?1wood4?4wav?$AA@		; `string'
PUBLIC	??_C@_0BA@ICDOJADL@hits?1glass1?4wav?$AA@	; `string'
PUBLIC	??_C@_0BA@EKKOCJF@hits?1glass2?4wav?$AA@	; `string'
PUBLIC	??_C@_0BA@MPPGDBDA@hits?1glass3?4wav?$AA@	; `string'
PUBLIC	??_C@_0BA@NCPDABII@hits?1glass4?4wav?$AA@	; `string'
PUBLIC	??_C@_0BJ@GMGLIKCL@weapons?1cbar_hitbod1?4wav?$AA@ ; `string'
PUBLIC	??_C@_0BJ@OKPPPIIF@weapons?1cbar_hitbod2?4wav?$AA@ ; `string'
PUBLIC	??_C@_0BJ@CBKDCLCA@weapons?1cbar_hitbod3?4wav?$AA@ ; `string'
PUBLIC	??_C@_0BI@EOPFENC@weapons?1bullet_hit1?4wav?$AA@ ; `string'
PUBLIC	??_C@_0BI@ICHLCGHM@weapons?1bullet_hit2?4wav?$AA@ ; `string'
PUBLIC	??_C@_0BH@CNLHGOLI@weapons?1cbar_miss1?4wav?$AA@ ; `string'
PUBLIC	??_C@_0P@NGDPBEAP@func_breakable?$AA@		; `string'
PUBLIC	??_C@_0BD@GGFGALIC@buttons?1spark5?4wav?$AA@	; `string'
PUBLIC	??_C@_0BD@OAMCHJCM@buttons?1spark6?4wav?$AA@	; `string'
PUBLIC	??_C@_0O@DKJMLFCB@hits?1ric1?4wav?$AA@		; `string'
PUBLIC	??_C@_0O@LMAIMHIP@hits?1ric2?4wav?$AA@		; `string'
PUBLIC	??_C@_0O@HHFEBECK@hits?1ric3?4wav?$AA@		; `string'
PUBLIC	??_C@_0O@GKFBCEJC@hits?1ric4?4wav?$AA@		; `string'
PUBLIC	??_C@_0O@KBANPHDH@hits?1ric5?4wav?$AA@		; `string'
PUBLIC	??_7CSpeaker@@6B@				; CSpeaker::`vftable'
PUBLIC	??_7?$CEntityFactory@VCSpeaker@@@@6B@		; CEntityFactory<CSpeaker>::`vftable'
PUBLIC	??_C@_07BHDDMEGH@speaker?$AA@			; `string'
PUBLIC	?g_DataMapHolder@CSpeaker_DataDescInit@@3PAUdatamap_s@@A ; CSpeaker_DataDescInit::g_DataMapHolder
PUBLIC	??_C@_0N@PONONMAE@SpeakerThink?$AA@		; `string'
PUBLIC	??_C@_0DA@IIMJMCCG@SPEAKER?5with?5no?5Level?1Sentence?$CB?5@ ; `string'
PUBLIC	??_C@_0BI@LCJLIMMK@?$CGCSpeaker?3?3SpeakerThink?$AA@ ; `string'
PUBLIC	??_C@_0BF@CAJOKBGD@?$CGCSpeaker?3?3ToggleUse?$AA@ ; `string'
PUBLIC	??_C@_05GBFACMPL@C1A0_?$AA@			; `string'
PUBLIC	??_C@_05GAJCEGMM@C1A1_?$AA@			; `string'
PUBLIC	??_C@_05GCNEPIJF@C1A2_?$AA@			; `string'
PUBLIC	??_C@_05GDBGJCKC@C1A3_?$AA@			; `string'
PUBLIC	??_C@_05GGFJIECH@C1A4_?$AA@			; `string'
PUBLIC	??_C@_05CHDCDMBM@C2A1_?$AA@			; `string'
PUBLIC	??_C@_05CFHEICEF@C2A2_?$AA@			; `string'
PUBLIC	??_C@_05CELGOIHC@C2A3_?$AA@			; `string'
PUBLIC	??_C@_05CBPJPOPH@C2A4_?$AA@			; `string'
PUBLIC	??_C@_05CADLJEMA@C2A5_?$AA@			; `string'
PUBLIC	??_C@_05BKFCBFKM@C3A1_?$AA@			; `string'
PUBLIC	??_C@_05BIBEKLPF@C3A2_?$AA@			; `string'
PUBLIC	??_C@_0DN@IIPINGFH@Level?5Design?5Error?$CB?6SPEAKER?5has?5@ ; `string'
PUBLIC	??_7CAmbientMusic@@6B@				; CAmbientMusic::`vftable'
PUBLIC	??_7?$CEntityFactory@VCAmbientMusic@@@@6B@	; CEntityFactory<CAmbientMusic>::`vftable'
PUBLIC	??_C@_0O@DCFFCPNJ@ambient_music?$AA@		; `string'
PUBLIC	??_C@_0BA@BFHGNAMB@m_iszIntroTrack?$AA@		; `string'
PUBLIC	??_C@_0P@EOMCAGLL@m_iszMainTrack?$AA@		; `string'
PUBLIC	??_C@_08BPPHHMFC@fadetime?$AA@			; `string'
PUBLIC	??_C@_0BB@FNHLBFJP@music?5?$CC?$CFs?$CC?5?$CC?$CFs?$CC?6?$AA@ ; `string'
PUBLIC	??_C@_0M@DKCMEMFI@music?5?$CC?$CFs?$CC?6?$AA@	; `string'
PUBLIC	??_C@_06JLDPCOLD@music?6?$AA@			; `string'
PUBLIC	??_C@_1JC@EMNIBBBG@?$AAd?$AA?3?$AA?2?$AA?$CB?$AAd?$AAi?$AAf?$AAf?$AAu?$AAs?$AAi?$AAo?$AAn?$AA?5?$AA2?$AA0?$AA2?$AA0?$AA?2?$AAs?$AAo?$AAu?$AAr?$AAc?$AAe?$AA?5?$AAc?$AAo?$AAd?$AAe?$AA?5?$AA2@ ; `string'
PUBLIC	??_C@_1IK@DGJDJNN@?$AA?$CI?$AAB?$AAa?$AAs?$AAe?$AA?$CI?$AA?$CJ?$AA?5?$AA?$DN?$AA?$DN?$AA?5?$AAN?$AAU?$AAL?$AAL?$AA?$CJ?$AA?5?$AA?$HM?$AA?$HM?$AA?5?$AA?$CI?$AA?$CG?$AAs?$AAr?$AAc?$AA?5?$AA?$DM?$AA?5?$AAB?$AAa?$AAs?$AAe@ ; `string'
PUBLIC	??_C@_1JE@CIIIAKCN@?$AAd?$AA?3?$AA?2?$AA?$CB?$AAd?$AAi?$AAf?$AAf?$AAu?$AAs?$AAi?$AAo?$AAn?$AA?5?$AA2?$AA0?$AA2?$AA0?$AA?2?$AAs?$AAo?$AAu?$AAr?$AAc?$AAe?$AA?5?$AAc?$AAo?$AAd?$AAe?$AA?5?$AA2@ ; `string'
PUBLIC	??_C@_1BO@FOOHAONO@?$AAn?$AAG?$AAr?$AAo?$AAw?$AAS?$AAi?$AAz?$AAe?$AA?5?$AA?$DO?$AA?$DN?$AA?5?$AA0?$AA?$AA@ ; `string'
PUBLIC	??_C@_1BM@PFNFCCHH@?$AA?$CB?$AAI?$AAs?$AAR?$AAe?$AAa?$AAd?$AAO?$AAn?$AAl?$AAy?$AA?$CI?$AA?$CJ?$AA?$AA@ ; `string'
PUBLIC	??_C@_1BM@CKILBAKK@?$AAI?$AAs?$AAI?$AAd?$AAx?$AAV?$AAa?$AAl?$AAi?$AAd?$AA?$CI?$AAi?$AA?$CJ?$AA?$AA@ ; `string'
PUBLIC	??_C@_1FA@BPFBJKPF@?$AA?$CI?$AAe?$AAl?$AAe?$AAm?$AA?5?$AA?$DN?$AA?$DN?$AA?5?$AAC?$AAo?$AAu?$AAn?$AAt?$AA?$CI?$AA?$CJ?$AA?$CJ?$AA?5?$AA?$HM?$AA?$HM?$AA?5?$AAI?$AAs?$AAV?$AAa?$AAl?$AAi?$AAd?$AAI?$AAn?$AAd?$AAe@ ; `string'
PUBLIC	??_C@_1GM@CDMJDFPA@?$AAI?$AAs?$AAV?$AAa?$AAl?$AAi?$AAd?$AAI?$AAn?$AAd?$AAe?$AAx?$AA?$CI?$AAe?$AAl?$AAe?$AAm?$AA?$CJ?$AA?5?$AA?$HM?$AA?$HM?$AA?5?$AA?$CI?$AA?5?$AAm?$AA_?$AAS?$AAi?$AAz?$AAe?$AA?5?$AA?$DN@ ; `string'
PUBLIC	??_C@_1BA@PKCLMAEA@?$AAn?$AAu?$AAm?$AA?5?$AA?$DO?$AA?5?$AA0?$AA?$AA@ ; `string'
PUBLIC	??_C@_13COJANIEC@?$AA0?$AA?$AA@			; `string'
PUBLIC	??_C@_1BE@OPPFELHC@?$AAm?$AA_?$AAp?$AAM?$AAe?$AAm?$AAo?$AAr?$AAy?$AA?$AA@ ; `string'
PUBLIC	??_R4CBaseEntity@@6B@				; CBaseEntity::`RTTI Complete Object Locator'
PUBLIC	??_R0?AVCBaseEntity@@@8				; CBaseEntity `RTTI Type Descriptor'
PUBLIC	??_R3CBaseEntity@@8				; CBaseEntity::`RTTI Class Hierarchy Descriptor'
PUBLIC	??_R2CBaseEntity@@8				; CBaseEntity::`RTTI Base Class Array'
PUBLIC	??_R1A@?0A@EA@CBaseEntity@@8			; CBaseEntity::`RTTI Base Class Descriptor at (0,-1,0,64)'
PUBLIC	??_R4IEntityFactory@@6B@			; IEntityFactory::`RTTI Complete Object Locator'
PUBLIC	??_R0?AVIEntityFactory@@@8			; IEntityFactory `RTTI Type Descriptor'
PUBLIC	??_R3IEntityFactory@@8				; IEntityFactory::`RTTI Class Hierarchy Descriptor'
PUBLIC	??_R2IEntityFactory@@8				; IEntityFactory::`RTTI Base Class Array'
PUBLIC	??_R1A@?0A@EA@IEntityFactory@@8			; IEntityFactory::`RTTI Base Class Descriptor at (0,-1,0,64)'
PUBLIC	??_R4CBasePlayer@@6B@				; CBasePlayer::`RTTI Complete Object Locator'
PUBLIC	??_R0?AVCBasePlayer@@@8				; CBasePlayer `RTTI Type Descriptor'
PUBLIC	??_R3CBasePlayer@@8				; CBasePlayer::`RTTI Class Hierarchy Descriptor'
PUBLIC	??_R2CBasePlayer@@8				; CBasePlayer::`RTTI Base Class Array'
PUBLIC	??_R1A@?0A@EA@CBasePlayer@@8			; CBasePlayer::`RTTI Base Class Descriptor at (0,-1,0,64)'
PUBLIC	??_R1A@?0A@EA@CBaseMonster@@8			; CBaseMonster::`RTTI Base Class Descriptor at (0,-1,0,64)'
PUBLIC	??_R0?AVCBaseMonster@@@8			; CBaseMonster `RTTI Type Descriptor'
PUBLIC	??_R3CBaseMonster@@8				; CBaseMonster::`RTTI Class Hierarchy Descriptor'
PUBLIC	??_R2CBaseMonster@@8				; CBaseMonster::`RTTI Base Class Array'
PUBLIC	??_R1A@?0A@EA@CBaseToggle@@8			; CBaseToggle::`RTTI Base Class Descriptor at (0,-1,0,64)'
PUBLIC	??_R0?AVCBaseToggle@@@8				; CBaseToggle `RTTI Type Descriptor'
PUBLIC	??_R3CBaseToggle@@8				; CBaseToggle::`RTTI Class Hierarchy Descriptor'
PUBLIC	??_R2CBaseToggle@@8				; CBaseToggle::`RTTI Base Class Array'
PUBLIC	??_R1A@?0A@EA@CBaseAnimating@@8			; CBaseAnimating::`RTTI Base Class Descriptor at (0,-1,0,64)'
PUBLIC	??_R0?AVCBaseAnimating@@@8			; CBaseAnimating `RTTI Type Descriptor'
PUBLIC	??_R3CBaseAnimating@@8				; CBaseAnimating::`RTTI Class Hierarchy Descriptor'
PUBLIC	??_R2CBaseAnimating@@8				; CBaseAnimating::`RTTI Base Class Array'
PUBLIC	??_R1A@?0A@EA@CBaseDelay@@8			; CBaseDelay::`RTTI Base Class Descriptor at (0,-1,0,64)'
PUBLIC	??_R0?AVCBaseDelay@@@8				; CBaseDelay `RTTI Type Descriptor'
PUBLIC	??_R3CBaseDelay@@8				; CBaseDelay::`RTTI Class Hierarchy Descriptor'
PUBLIC	??_R2CBaseDelay@@8				; CBaseDelay::`RTTI Base Class Array'
PUBLIC	??_R4CBaseMonster@@6B@				; CBaseMonster::`RTTI Complete Object Locator'
PUBLIC	??_R4CPointEntity@@6B@				; CPointEntity::`RTTI Complete Object Locator'
PUBLIC	??_R0?AVCPointEntity@@@8			; CPointEntity `RTTI Type Descriptor'
PUBLIC	??_R3CPointEntity@@8				; CPointEntity::`RTTI Class Hierarchy Descriptor'
PUBLIC	??_R2CPointEntity@@8				; CPointEntity::`RTTI Base Class Array'
PUBLIC	??_R1A@?0A@EA@CPointEntity@@8			; CPointEntity::`RTTI Base Class Descriptor at (0,-1,0,64)'
PUBLIC	??_R4CBaseDelay@@6B@				; CBaseDelay::`RTTI Complete Object Locator'
PUBLIC	??_R4CBaseAnimating@@6B@			; CBaseAnimating::`RTTI Complete Object Locator'
PUBLIC	??_R4CBaseToggle@@6B@				; CBaseToggle::`RTTI Complete Object Locator'
PUBLIC	??_R4CAmbientGeneric@@6B@			; CAmbientGeneric::`RTTI Complete Object Locator'
PUBLIC	??_R0?AVCAmbientGeneric@@@8			; CAmbientGeneric `RTTI Type Descriptor'
PUBLIC	??_R3CAmbientGeneric@@8				; CAmbientGeneric::`RTTI Class Hierarchy Descriptor'
PUBLIC	??_R2CAmbientGeneric@@8				; CAmbientGeneric::`RTTI Base Class Array'
PUBLIC	??_R1A@?0A@EA@CAmbientGeneric@@8		; CAmbientGeneric::`RTTI Base Class Descriptor at (0,-1,0,64)'
PUBLIC	??_R4?$CEntityFactory@VCAmbientGeneric@@@@6B@	; CEntityFactory<CAmbientGeneric>::`RTTI Complete Object Locator'
PUBLIC	??_R0?AV?$CEntityFactory@VCAmbientGeneric@@@@@8	; CEntityFactory<CAmbientGeneric> `RTTI Type Descriptor'
PUBLIC	??_R3?$CEntityFactory@VCAmbientGeneric@@@@8	; CEntityFactory<CAmbientGeneric>::`RTTI Class Hierarchy Descriptor'
PUBLIC	??_R2?$CEntityFactory@VCAmbientGeneric@@@@8	; CEntityFactory<CAmbientGeneric>::`RTTI Base Class Array'
PUBLIC	??_R1A@?0A@EA@?$CEntityFactory@VCAmbientGeneric@@@@8 ; CEntityFactory<CAmbientGeneric>::`RTTI Base Class Descriptor at (0,-1,0,64)'
PUBLIC	??_R4CEnvSound@@6B@				; CEnvSound::`RTTI Complete Object Locator'
PUBLIC	??_R0?AVCEnvSound@@@8				; CEnvSound `RTTI Type Descriptor'
PUBLIC	??_R3CEnvSound@@8				; CEnvSound::`RTTI Class Hierarchy Descriptor'
PUBLIC	??_R2CEnvSound@@8				; CEnvSound::`RTTI Base Class Array'
PUBLIC	??_R1A@?0A@EA@CEnvSound@@8			; CEnvSound::`RTTI Base Class Descriptor at (0,-1,0,64)'
PUBLIC	??_R4?$CEntityFactory@VCEnvSound@@@@6B@		; CEntityFactory<CEnvSound>::`RTTI Complete Object Locator'
PUBLIC	??_R0?AV?$CEntityFactory@VCEnvSound@@@@@8	; CEntityFactory<CEnvSound> `RTTI Type Descriptor'
PUBLIC	??_R3?$CEntityFactory@VCEnvSound@@@@8		; CEntityFactory<CEnvSound>::`RTTI Class Hierarchy Descriptor'
PUBLIC	??_R2?$CEntityFactory@VCEnvSound@@@@8		; CEntityFactory<CEnvSound>::`RTTI Base Class Array'
PUBLIC	??_R1A@?0A@EA@?$CEntityFactory@VCEnvSound@@@@8	; CEntityFactory<CEnvSound>::`RTTI Base Class Descriptor at (0,-1,0,64)'
PUBLIC	??_R4CTriggerSound@@6B@				; CTriggerSound::`RTTI Complete Object Locator'
PUBLIC	??_R0?AVCTriggerSound@@@8			; CTriggerSound `RTTI Type Descriptor'
PUBLIC	??_R3CTriggerSound@@8				; CTriggerSound::`RTTI Class Hierarchy Descriptor'
PUBLIC	??_R2CTriggerSound@@8				; CTriggerSound::`RTTI Base Class Array'
PUBLIC	??_R1A@?0A@EA@CTriggerSound@@8			; CTriggerSound::`RTTI Base Class Descriptor at (0,-1,0,64)'
PUBLIC	??_R4?$CEntityFactory@VCTriggerSound@@@@6B@	; CEntityFactory<CTriggerSound>::`RTTI Complete Object Locator'
PUBLIC	??_R0?AV?$CEntityFactory@VCTriggerSound@@@@@8	; CEntityFactory<CTriggerSound> `RTTI Type Descriptor'
PUBLIC	??_R3?$CEntityFactory@VCTriggerSound@@@@8	; CEntityFactory<CTriggerSound>::`RTTI Class Hierarchy Descriptor'
PUBLIC	??_R2?$CEntityFactory@VCTriggerSound@@@@8	; CEntityFactory<CTriggerSound>::`RTTI Base Class Array'
PUBLIC	??_R1A@?0A@EA@?$CEntityFactory@VCTriggerSound@@@@8 ; CEntityFactory<CTriggerSound>::`RTTI Base Class Descriptor at (0,-1,0,64)'
PUBLIC	??_R4CSpeaker@@6B@				; CSpeaker::`RTTI Complete Object Locator'
PUBLIC	??_R0?AVCSpeaker@@@8				; CSpeaker `RTTI Type Descriptor'
PUBLIC	??_R3CSpeaker@@8				; CSpeaker::`RTTI Class Hierarchy Descriptor'
PUBLIC	??_R2CSpeaker@@8				; CSpeaker::`RTTI Base Class Array'
PUBLIC	??_R1A@?0A@EA@CSpeaker@@8			; CSpeaker::`RTTI Base Class Descriptor at (0,-1,0,64)'
PUBLIC	??_R4?$CEntityFactory@VCSpeaker@@@@6B@		; CEntityFactory<CSpeaker>::`RTTI Complete Object Locator'
PUBLIC	??_R0?AV?$CEntityFactory@VCSpeaker@@@@@8	; CEntityFactory<CSpeaker> `RTTI Type Descriptor'
PUBLIC	??_R3?$CEntityFactory@VCSpeaker@@@@8		; CEntityFactory<CSpeaker>::`RTTI Class Hierarchy Descriptor'
PUBLIC	??_R2?$CEntityFactory@VCSpeaker@@@@8		; CEntityFactory<CSpeaker>::`RTTI Base Class Array'
PUBLIC	??_R1A@?0A@EA@?$CEntityFactory@VCSpeaker@@@@8	; CEntityFactory<CSpeaker>::`RTTI Base Class Descriptor at (0,-1,0,64)'
PUBLIC	??_R4CAmbientMusic@@6B@				; CAmbientMusic::`RTTI Complete Object Locator'
PUBLIC	??_R0?AVCAmbientMusic@@@8			; CAmbientMusic `RTTI Type Descriptor'
PUBLIC	??_R3CAmbientMusic@@8				; CAmbientMusic::`RTTI Class Hierarchy Descriptor'
PUBLIC	??_R2CAmbientMusic@@8				; CAmbientMusic::`RTTI Base Class Array'
PUBLIC	??_R1A@?0A@EA@CAmbientMusic@@8			; CAmbientMusic::`RTTI Base Class Descriptor at (0,-1,0,64)'
PUBLIC	??_R4?$CEntityFactory@VCAmbientMusic@@@@6B@	; CEntityFactory<CAmbientMusic>::`RTTI Complete Object Locator'
PUBLIC	??_R0?AV?$CEntityFactory@VCAmbientMusic@@@@@8	; CEntityFactory<CAmbientMusic> `RTTI Type Descriptor'
PUBLIC	??_R3?$CEntityFactory@VCAmbientMusic@@@@8	; CEntityFactory<CAmbientMusic>::`RTTI Class Hierarchy Descriptor'
PUBLIC	??_R2?$CEntityFactory@VCAmbientMusic@@@@8	; CEntityFactory<CAmbientMusic>::`RTTI Base Class Array'
PUBLIC	??_R1A@?0A@EA@?$CEntityFactory@VCAmbientMusic@@@@8 ; CEntityFactory<CAmbientMusic>::`RTTI Base Class Descriptor at (0,-1,0,64)'
PUBLIC	__real@00000000
PUBLIC	__real@0000000000000000
PUBLIC	__real@3c23d70a
PUBLIC	__real@3dcccccd
PUBLIC	__real@3e4ccccd
PUBLIC	__real@3e800000
PUBLIC	__real@3e99999a
PUBLIC	__real@3f000000
PUBLIC	__real@3f19999a
PUBLIC	__real@3f333333
PUBLIC	__real@3f400000
PUBLIC	__real@3f4ccccd
PUBLIC	__real@3f59999a
PUBLIC	__real@3f666666
PUBLIC	__real@3f800000
PUBLIC	__real@3f847ae147ae147b
PUBLIC	__real@3f8ccccd
PUBLIC	__real@3fa00000
PUBLIC	__real@3fa999999999999a
PUBLIC	__real@3fb999999999999a
PUBLIC	__real@3fd0000000000000
PUBLIC	__real@3fe0000000000000
PUBLIC	__real@3fe8000000000000
PUBLIC	__real@3ff0000000000000
PUBLIC	__real@3ff8000000000000
PUBLIC	__real@40000000
PUBLIC	__real@4000000000000000
PUBLIC	__real@40400000
PUBLIC	__real@40a00000
PUBLIC	__real@40c00000
PUBLIC	__real@41200000
PUBLIC	__real@41700000
PUBLIC	__real@41f00000
PUBLIC	__real@43070000
PUBLIC	__real@437f0000
PUBLIC	__real@44440000
PUBLIC	__real@461c4000
EXTRN	__purecall:PROC
EXTRN	??3@YAXPAXI@Z:PROC				; operator delete
EXTRN	??_U@YAPAXI@Z:PROC				; operator new[]
EXTRN	_atexit:PROC
EXTRN	___report_rangecheckfailure:PROC
EXTRN	__Init_thread_header:PROC
EXTRN	__Init_thread_abort:PROC
EXTRN	__Init_thread_footer:PROC
EXTRN	_isalpha:PROC
EXTRN	_isdigit:PROC
EXTRN	_isspace:PROC
EXTRN	_toupper:PROC
EXTRN	_memcpy:PROC
EXTRN	_memmove:PROC
EXTRN	_memset:PROC
EXTRN	_strstr:PROC
EXTRN	_strcat:PROC
EXTRN	_strcmp:PROC
EXTRN	_strcpy:PROC
EXTRN	_strlen:PROC
EXTRN	_stricmp:PROC
EXTRN	_strnicmp:PROC
EXTRN	___stdio_common_vsprintf:PROC
EXTRN	_free:PROC
EXTRN	_malloc:PROC
EXTRN	_realloc:PROC
EXTRN	_abs:PROC
EXTRN	_atof:PROC
EXTRN	_atoi:PROC
EXTRN	_sqrt:PROC
EXTRN	??0matrix4x4@@QAE@XZ:PROC			; matrix4x4::matrix4x4
EXTRN	?Q_atoi@@YAHPBD@Z:PROC				; Q_atoi
EXTRN	?Q_atof@@YAMPBD@Z:PROC				; Q_atof
EXTRN	?Q_strncmp@@YAHPBD0H@Z:PROC			; Q_strncmp
EXTRN	__wassert:PROC
EXTRN	?UTIL_Remove@@YAXPAVCBaseEntity@@@Z:PROC	; UTIL_Remove
EXTRN	?EntityFactoryDictionary@@YAPAVIEntityFactoryDictionary@@XZ:PROC ; EntityFactoryDictionary
EXTRN	?DBG_EntOfVars@@YAPAUedict_s@@PBUentvars_s@@@Z:PROC ; DBG_EntOfVars
EXTRN	?UTIL_PlayerByIndex@@YAPAVCBaseEntity@@H@Z:PROC	; UTIL_PlayerByIndex
EXTRN	?UTIL_EmitAmbientSound@@YAXPAUedict_s@@ABVVector@@PBDMMHH@Z:PROC ; UTIL_EmitAmbientSound
EXTRN	?UTIL_TraceLine@@YAXABVVector@@0W4IGNORE_MONSTERS@@PAUedict_s@@PAUgametrace_s@@@Z:PROC ; UTIL_TraceLine
EXTRN	?UTIL_GetGlobalTrace@@YA?AUgametrace_s@@XZ:PROC	; UTIL_GetGlobalTrace
EXTRN	?UTIL_PointContents@@YAHABVVector@@@Z:PROC	; UTIL_PointContents
EXTRN	?UTIL_Sparks@@YAXABVVector@@@Z:PROC		; UTIL_Sparks
EXTRN	?UTIL_Ricochet@@YAXABVVector@@M@Z:PROC		; UTIL_Ricochet
EXTRN	?UTIL_GetModelType@@YA?AW4modtype_t@@H@Z:PROC	; UTIL_GetModelType
EXTRN	?UTIL_FunctionToName@@YAPBDPAUdatamap_s@@PAX@Z:PROC ; UTIL_FunctionToName
EXTRN	??0CMeshDesc@@QAE@XZ:PROC			; CMeshDesc::CMeshDesc
EXTRN	??1CMeshDesc@@QAE@XZ:PROC			; CMeshDesc::~CMeshDesc
EXTRN	?GetDataDescMap@CBaseEntity@@UAEPAUdatamap_s@@XZ:PROC ; CBaseEntity::GetDataDescMap
EXTRN	?GetAbsOrigin@CBaseEntity@@QBEABVVector@@XZ:PROC ; CBaseEntity::GetAbsOrigin
EXTRN	?GetAbsVelocity@CBaseEntity@@QBEABVVector@@XZ:PROC ; CBaseEntity::GetAbsVelocity
EXTRN	?ShouldToggle@CBaseEntity@@QAEHW4USE_TYPE@@@Z:PROC ; CBaseEntity::ShouldToggle
EXTRN	?Save@CBaseEntity@@UAEHAAVCSave@@@Z:PROC	; CBaseEntity::Save
EXTRN	?Restore@CBaseEntity@@UAEHAAVCRestore@@@Z:PROC	; CBaseEntity::Restore
EXTRN	?SetObjectCollisionBox@CBaseEntity@@UAEXXZ:PROC	; CBaseEntity::SetObjectCollisionBox
EXTRN	?SetNextThink@CBaseEntity@@UAEXM@Z:PROC		; CBaseEntity::SetNextThink
EXTRN	?TraceAttack@CBaseEntity@@UAEXPAUentvars_s@@MVVector@@PAUgametrace_s@@H@Z:PROC ; CBaseEntity::TraceAttack
EXTRN	?TakeDamage@CBaseEntity@@UAEHPAUentvars_s@@0MH@Z:PROC ; CBaseEntity::TakeDamage
EXTRN	?TakeHealth@CBaseEntity@@UAEHMH@Z:PROC		; CBaseEntity::TakeHealth
EXTRN	?TakeArmor@CBaseEntity@@UAEHMH@Z:PROC		; CBaseEntity::TakeArmor
EXTRN	?Killed@CBaseEntity@@UAEXPAUentvars_s@@H@Z:PROC	; CBaseEntity::Killed
EXTRN	?TraceBleed@CBaseEntity@@UAEXMVVector@@PAUgametrace_s@@H@Z:PROC ; CBaseEntity::TraceBleed
EXTRN	?DamageDecal@CBaseEntity@@UAEHH@Z:PROC		; CBaseEntity::DamageDecal
EXTRN	?IsInWorld@CBaseEntity@@UAEHH@Z:PROC		; CBaseEntity::IsInWorld
EXTRN	?GetNextTarget@CBaseEntity@@UAEPAV1@XZ:PROC	; CBaseEntity::GetNextTarget
EXTRN	?SUB_Remove@CBaseEntity@@QAEXXZ:PROC		; CBaseEntity::SUB_Remove
EXTRN	?FVisible@CBaseEntity@@UAEHPAV1@@Z:PROC		; CBaseEntity::FVisible
EXTRN	?FVisible@CBaseEntity@@UAEHABVVector@@@Z:PROC	; CBaseEntity::FVisible
EXTRN	?ShouldCollide@CBaseEntity@@UAEHPAV1@@Z:PROC	; CBaseEntity::ShouldCollide
EXTRN	?ClearEffects@CBaseEntity@@UAEXXZ:PROC		; CBaseEntity::ClearEffects
EXTRN	?Spawn@CPointEntity@@UAEXXZ:PROC		; CPointEntity::Spawn
EXTRN	?KeyValue@CBaseDelay@@UAEXPAUKeyValueData_s@@@Z:PROC ; CBaseDelay::KeyValue
EXTRN	?IsLockedByMaster@CBaseDelay@@QAEHPAVCBaseEntity@@@Z:PROC ; CBaseDelay::IsLockedByMaster
EXTRN	?SUB_UseTargets@CBaseDelay@@QAEXPAVCBaseEntity@@W4USE_TYPE@@MH@Z:PROC ; CBaseDelay::SUB_UseTargets
EXTRN	?GetDataDescMap@CBaseDelay@@UAEPAUdatamap_s@@XZ:PROC ; CBaseDelay::GetDataDescMap
EXTRN	?GetDataDescMap@CBaseAnimating@@UAEPAUdatamap_s@@XZ:PROC ; CBaseAnimating::GetDataDescMap
EXTRN	?KeyValue@CBaseToggle@@UAEXPAUKeyValueData_s@@@Z:PROC ; CBaseToggle::KeyValue
EXTRN	?Restore@CBaseToggle@@UAEHAAVCRestore@@@Z:PROC	; CBaseToggle::Restore
EXTRN	?GetDataDescMap@CBaseToggle@@UAEPAUdatamap_s@@XZ:PROC ; CBaseToggle::GetDataDescMap
EXTRN	?GetState@CBaseToggle@@UAE?AW4STATE@@XZ:PROC	; CBaseToggle::GetState
EXTRN	?MoveDone@CBaseToggle@@UAEXXZ:PROC		; CBaseToggle::MoveDone
EXTRN	?GetDataDescMap@CBaseMonster@@UAEPAUdatamap_s@@XZ:PROC ; CBaseMonster::GetDataDescMap
EXTRN	?KeyValue@CBaseMonster@@UAEXPAUKeyValueData_s@@@Z:PROC ; CBaseMonster::KeyValue
EXTRN	?Restore@CBaseMonster@@UAEHAAVCRestore@@@Z:PROC	; CBaseMonster::Restore
EXTRN	?Look@CBaseMonster@@UAEXH@Z:PROC		; CBaseMonster::Look
EXTRN	?RunAI@CBaseMonster@@UAEXXZ:PROC		; CBaseMonster::RunAI
EXTRN	?ShouldFadeOnDeath@CBaseMonster@@UAEHXZ:PROC	; CBaseMonster::ShouldFadeOnDeath
EXTRN	?ChangeYaw@CBaseMonster@@UAEMH@Z:PROC		; CBaseMonster::ChangeYaw
EXTRN	?MonsterThink@CBaseMonster@@UAEXXZ:PROC		; CBaseMonster::MonsterThink
EXTRN	?IRelationship@CBaseMonster@@UAEHPAVCBaseEntity@@@Z:PROC ; CBaseMonster::IRelationship
EXTRN	?MonsterInit@CBaseMonster@@UAEXXZ:PROC		; CBaseMonster::MonsterInit
EXTRN	?MonsterInitDead@CBaseMonster@@UAEXXZ:PROC	; CBaseMonster::MonsterInitDead
EXTRN	?BecomeDead@CBaseMonster@@UAEXXZ:PROC		; CBaseMonster::BecomeDead
EXTRN	?StartMonster@CBaseMonster@@UAEXXZ:PROC		; CBaseMonster::StartMonster
EXTRN	?BestVisibleEnemy@CBaseMonster@@UAEPAVCBaseEntity@@XZ:PROC ; CBaseMonster::BestVisibleEnemy
EXTRN	?FInViewCone@CBaseMonster@@UAEHPAVCBaseEntity@@M@Z:PROC ; CBaseMonster::FInViewCone
EXTRN	?FInViewCone@CBaseMonster@@UAEHPAVVector@@@Z:PROC ; CBaseMonster::FInViewCone
EXTRN	?HandleAnimEvent@CBaseMonster@@UAEXPAUMonsterEvent_t@@@Z:PROC ; CBaseMonster::HandleAnimEvent
EXTRN	?CheckLocalMove@CBaseMonster@@UAEHABVVector@@0PAVCBaseEntity@@PAM@Z:PROC ; CBaseMonster::CheckLocalMove
EXTRN	?Move@CBaseMonster@@UAEXM@Z:PROC		; CBaseMonster::Move
EXTRN	?MoveExecute@CBaseMonster@@UAEXPAVCBaseEntity@@ABVVector@@M@Z:PROC ; CBaseMonster::MoveExecute
EXTRN	?ShouldAdvanceRoute@CBaseMonster@@UAEHM@Z:PROC	; CBaseMonster::ShouldAdvanceRoute
EXTRN	?CheckRangeAttack1@CBaseMonster@@UAEHMM@Z:PROC	; CBaseMonster::CheckRangeAttack1
EXTRN	?CheckRangeAttack2@CBaseMonster@@UAEHMM@Z:PROC	; CBaseMonster::CheckRangeAttack2
EXTRN	?CheckMeleeAttack1@CBaseMonster@@UAEHMM@Z:PROC	; CBaseMonster::CheckMeleeAttack1
EXTRN	?CheckMeleeAttack2@CBaseMonster@@UAEHMM@Z:PROC	; CBaseMonster::CheckMeleeAttack2
EXTRN	?ScheduleFromName@CBaseMonster@@UAEPAUSchedule_t@@PBD@Z:PROC ; CBaseMonster::ScheduleFromName
EXTRN	?StartTask@CBaseMonster@@UAEXPAUTask_t@@@Z:PROC	; CBaseMonster::StartTask
EXTRN	?RunTask@CBaseMonster@@UAEXPAUTask_t@@@Z:PROC	; CBaseMonster::RunTask
EXTRN	?GetScheduleOfType@CBaseMonster@@UAEPAUSchedule_t@@H@Z:PROC ; CBaseMonster::GetScheduleOfType
EXTRN	?GetSchedule@CBaseMonster@@UAEPAUSchedule_t@@XZ:PROC ; CBaseMonster::GetSchedule
EXTRN	?CanPlaySequence@CBaseMonster@@UAEHHH@Z:PROC	; CBaseMonster::CanPlaySequence
EXTRN	?PlaySentence@CBaseMonster@@UAEXPBDMMMH@Z:PROC	; CBaseMonster::PlaySentence
EXTRN	?PlayScriptedSentence@CBaseMonster@@UAEXPBDMMMHPAVCBaseEntity@@H@Z:PROC ; CBaseMonster::PlayScriptedSentence
EXTRN	?SentenceStop@CBaseMonster@@UAEXXZ:PROC		; CBaseMonster::SentenceStop
EXTRN	?GetIdealState@CBaseMonster@@UAE?AW4MONSTERSTATE@@XZ:PROC ; CBaseMonster::GetIdealState
EXTRN	?SetActivity@CBaseMonster@@UAEXW4Activity@@@Z:PROC ; CBaseMonster::SetActivity
EXTRN	?ReportAIState@CBaseMonster@@UAEXXZ:PROC	; CBaseMonster::ReportAIState
EXTRN	?CheckEnemy@CBaseMonster@@UAEHPAVCBaseEntity@@@Z:PROC ; CBaseMonster::CheckEnemy
EXTRN	?FTriangulate@CBaseMonster@@UAEHABVVector@@0MPAVCBaseEntity@@PAV2@@Z:PROC ; CBaseMonster::FTriangulate
EXTRN	?BuildNearestRoute@CBaseMonster@@UAEHVVector@@0MM@Z:PROC ; CBaseMonster::BuildNearestRoute
EXTRN	?FindCover@CBaseMonster@@UAEHVVector@@0MM@Z:PROC ; CBaseMonster::FindCover
EXTRN	?FindRunAway@CBaseMonster@@UAEHVVector@@MM@Z:PROC ; CBaseMonster::FindRunAway
EXTRN	?FCanCheckAttacks@CBaseMonster@@UAEHXZ:PROC	; CBaseMonster::FCanCheckAttacks
EXTRN	?IgnoreConditions@CBaseMonster@@UAEHXZ:PROC	; CBaseMonster::IgnoreConditions
EXTRN	?FValidateHintType@CBaseMonster@@UAEHF@Z:PROC	; CBaseMonster::FValidateHintType
EXTRN	?FCanActiveIdle@CBaseMonster@@UAEHXZ:PROC	; CBaseMonster::FCanActiveIdle
EXTRN	?ISoundMask@CBaseMonster@@UAEHXZ:PROC		; CBaseMonster::ISoundMask
EXTRN	?PBestSound@CBaseMonster@@UAEPAVCSound@@XZ:PROC	; CBaseMonster::PBestSound
EXTRN	?PBestScent@CBaseMonster@@UAEPAVCSound@@XZ:PROC	; CBaseMonster::PBestScent
EXTRN	?FBecomeProne@CBaseMonster@@UAEHXZ:PROC		; CBaseMonster::FBecomeProne
EXTRN	?BarnacleVictimBitten@CBaseMonster@@UAEXPAUentvars_s@@@Z:PROC ; CBaseMonster::BarnacleVictimBitten
EXTRN	?BarnacleVictimReleased@CBaseMonster@@UAEXXZ:PROC ; CBaseMonster::BarnacleVictimReleased
EXTRN	?TraceAttack@CBaseMonster@@UAEXPAUentvars_s@@MVVector@@PAUgametrace_s@@H@Z:PROC ; CBaseMonster::TraceAttack
EXTRN	?GetDeathActivity@CBaseMonster@@UAE?AW4Activity@@XZ:PROC ; CBaseMonster::GetDeathActivity
EXTRN	?Killed@CBaseMonster@@UAEXPAUentvars_s@@H@Z:PROC ; CBaseMonster::Killed
EXTRN	?GibMonster@CBaseMonster@@UAEXXZ:PROC		; CBaseMonster::GibMonster
EXTRN	?DamageDecal@CBaseMonster@@UAEHH@Z:PROC		; CBaseMonster::DamageDecal
EXTRN	?HasHumanGibs@CBaseMonster@@UAEHXZ:PROC		; CBaseMonster::HasHumanGibs
EXTRN	?HasAlienGibs@CBaseMonster@@UAEHXZ:PROC		; CBaseMonster::HasAlienGibs
EXTRN	?FadeMonster@CBaseMonster@@UAEXXZ:PROC		; CBaseMonster::FadeMonster
EXTRN	?GetGunPosition@CBaseMonster@@UAE?AVVector@@XZ:PROC ; CBaseMonster::GetGunPosition
EXTRN	?TakeHealth@CBaseMonster@@UAEHMH@Z:PROC		; CBaseMonster::TakeHealth
EXTRN	?TakeDamage@CBaseMonster@@UAEHPAUentvars_s@@0MH@Z:PROC ; CBaseMonster::TakeDamage
EXTRN	?StepSound@CBaseMonster@@UAEXXZ:PROC		; CBaseMonster::StepSound
EXTRN	?ClearEffects@CBaseMonster@@UAEXXZ:PROC		; CBaseMonster::ClearEffects
EXTRN	?Spawn@CBasePlayer@@UAEXXZ:PROC			; CBasePlayer::Spawn
EXTRN	?Jump@CBasePlayer@@UAEXXZ:PROC			; CBasePlayer::Jump
EXTRN	?Duck@CBasePlayer@@UAEXXZ:PROC			; CBasePlayer::Duck
EXTRN	?PreThink@CBasePlayer@@UAEXXZ:PROC		; CBasePlayer::PreThink
EXTRN	?PostThink@CBasePlayer@@UAEXXZ:PROC		; CBasePlayer::PostThink
EXTRN	?GetGunPosition@CBasePlayer@@UAE?AVVector@@XZ:PROC ; CBasePlayer::GetGunPosition
EXTRN	?TakeHealth@CBasePlayer@@UAEHMH@Z:PROC		; CBasePlayer::TakeHealth
EXTRN	?TraceAttack@CBasePlayer@@UAEXPAUentvars_s@@MVVector@@PAUgametrace_s@@H@Z:PROC ; CBasePlayer::TraceAttack
EXTRN	?TakeDamage@CBasePlayer@@UAEHPAUentvars_s@@0MH@Z:PROC ; CBasePlayer::TakeDamage
EXTRN	?Killed@CBasePlayer@@UAEXPAUentvars_s@@H@Z:PROC	; CBasePlayer::Killed
EXTRN	?GibMonster@CBasePlayer@@UAEXXZ:PROC		; CBasePlayer::GibMonster
EXTRN	?TeamID@CBasePlayer@@UAEPBDXZ:PROC		; CBasePlayer::TeamID
EXTRN	?Restore@CBasePlayer@@UAEHAAVCRestore@@@Z:PROC	; CBasePlayer::Restore
EXTRN	?UpdateClientData@CBasePlayer@@UAEXXZ:PROC	; CBasePlayer::UpdateClientData
EXTRN	?GetDataDescMap@CBasePlayer@@UAEPAUdatamap_s@@XZ:PROC ; CBasePlayer::GetDataDescMap
EXTRN	?Precache@CBasePlayer@@UAEXXZ:PROC		; CBasePlayer::Precache
EXTRN	?DeathSound@CBasePlayer@@UAEXXZ:PROC		; CBasePlayer::DeathSound
EXTRN	?TransferReset@CBasePlayer@@UAEXXZ:PROC		; CBasePlayer::TransferReset
EXTRN	?Classify@CBasePlayer@@UAEHXZ:PROC		; CBasePlayer::Classify
EXTRN	?ImpulseCommands@CBasePlayer@@UAEXXZ:PROC	; CBasePlayer::ImpulseCommands
EXTRN	?AddPoints@CBasePlayer@@UAEXHH@Z:PROC		; CBasePlayer::AddPoints
EXTRN	?AddPointsToTeam@CBasePlayer@@UAEXHH@Z:PROC	; CBasePlayer::AddPointsToTeam
EXTRN	?AddPlayerItem@CBasePlayer@@UAEHPAVCBasePlayerItem@@@Z:PROC ; CBasePlayer::AddPlayerItem
EXTRN	?RemovePlayerItem@CBasePlayer@@UAEHPAVCBasePlayerItem@@@Z:PROC ; CBasePlayer::RemovePlayerItem
EXTRN	?GiveAmmo@CBasePlayer@@UAEHHPADH@Z:PROC		; CBasePlayer::GiveAmmo
EXTRN	?FBecomeProne@CBasePlayer@@UAEHXZ:PROC		; CBasePlayer::FBecomeProne
EXTRN	?BarnacleVictimBitten@CBasePlayer@@UAEXPAUentvars_s@@@Z:PROC ; CBasePlayer::BarnacleVictimBitten
EXTRN	?BarnacleVictimReleased@CBasePlayer@@UAEXXZ:PROC ; CBasePlayer::BarnacleVictimReleased
EXTRN	?Illumination@CBasePlayer@@UAEHXZ:PROC		; CBasePlayer::Illumination
EXTRN	?CheckTutorMessage@CBasePlayer@@UAEXH@Z:PROC	; CBasePlayer::CheckTutorMessage
EXTRN	@__security_check_cookie@4:PROC
EXTRN	___CxxFrameHandler3:PROC
EXTRN	__Init_thread_epoch:DWORD
EXTRN	?g_vecZero@@3VVector@@B:BYTE			; g_vecZero
EXTRN	?g_engfuncs@@3Uenginefuncs_s@@A:BYTE		; g_engfuncs
EXTRN	??_7type_info@@6B@:QWORD			; type_info::`vftable'
EXTRN	?gpGlobals@@3PAUglobalvars_t@@A:DWORD		; gpGlobals
EXTRN	?m_DataMap@CBaseEntity@@2Udatamap_s@@A:BYTE	; CBaseEntity::m_DataMap
EXTRN	?gmsgTempEnt@@3HA:DWORD				; gmsgTempEnt
EXTRN	?gmsgMusicFade@@3HA:DWORD			; gmsgMusicFade
EXTRN	?g_talkWaitTime@CTalkMonster@@2MA:DWORD		; CTalkMonster::g_talkWaitTime
EXTRN	?g_pGameRules@@3PAVCGameRules@@A:DWORD		; g_pGameRules
EXTRN	___security_cookie:DWORD
EXTRN	__fltused:DWORD
EXTRN	__tls_array:DWORD
EXTRN	__tls_index:DWORD
;	COMDAT ?_OptionsStorage@?1??__local_stdio_printf_options@@9@4_KA
_BSS	SEGMENT
?_OptionsStorage@?1??__local_stdio_printf_options@@9@4_KA DQ 01H DUP (?) ; `__local_stdio_printf_options'::`2'::_OptionsStorage
_BSS	ENDS
_BSS	SEGMENT
?ambient_generic@@3V?$CEntityFactory@VCAmbientGeneric@@@@A DD 01H DUP (?) ; ambient_generic
?g_DataMapHolder@CAmbientGeneric_DataDescInit@@3PAUdatamap_s@@A DD 01H DUP (?) ; CAmbientGeneric_DataDescInit::g_DataMapHolder
?nameHolder@?1???$DataMapInit@VCAmbientGeneric@@@@YAPAUdatamap_s@@PAVCAmbientGeneric@@@Z@4VCDatadescGeneratedNameHolder@@A DB 01cH DUP (?) ; `DataMapInit<CAmbientGeneric>'::`2'::nameHolder
?$TSS0@?1???$DataMapInit@VCAmbientGeneric@@@@YAPAUdatamap_s@@PAVCAmbientGeneric@@@Z@4HA DD 01H DUP (?) ; `DataMapInit<CAmbientGeneric>'::`2'::$TSS0
?$TSS1@?1???$DataMapInit@VCAmbientGeneric@@@@YAPAUdatamap_s@@PAVCAmbientGeneric@@@Z@4HA DD 01H DUP (?) ; `DataMapInit<CAmbientGeneric>'::`2'::$TSS1
?env_sound@@3V?$CEntityFactory@VCEnvSound@@@@A DD 01H DUP (?) ; env_sound
?g_DataMapHolder@CEnvSound_DataDescInit@@3PAUdatamap_s@@A DD 01H DUP (?) ; CEnvSound_DataDescInit::g_DataMapHolder
?nameHolder@?1???$DataMapInit@VCEnvSound@@@@YAPAUdatamap_s@@PAVCEnvSound@@@Z@4VCDatadescGeneratedNameHolder@@A DB 01cH DUP (?) ; `DataMapInit<CEnvSound>'::`2'::nameHolder
?$TSS0@?1???$DataMapInit@VCEnvSound@@@@YAPAUdatamap_s@@PAVCEnvSound@@@Z@4HA DD 01H DUP (?) ; `DataMapInit<CEnvSound>'::`2'::$TSS0
?trigger_sound@@3V?$CEntityFactory@VCTriggerSound@@@@A DD 01H DUP (?) ; trigger_sound
?speaker@@3V?$CEntityFactory@VCSpeaker@@@@A DD 01H DUP (?) ; speaker
?g_DataMapHolder@CSpeaker_DataDescInit@@3PAUdatamap_s@@A DD 01H DUP (?) ; CSpeaker_DataDescInit::g_DataMapHolder
?nameHolder@?1???$DataMapInit@VCSpeaker@@@@YAPAUdatamap_s@@PAVCSpeaker@@@Z@4VCDatadescGeneratedNameHolder@@A DB 01cH DUP (?) ; `DataMapInit<CSpeaker>'::`2'::nameHolder
?$TSS0@?1???$DataMapInit@VCSpeaker@@@@YAPAUdatamap_s@@PAVCSpeaker@@@Z@4HA DD 01H DUP (?) ; `DataMapInit<CSpeaker>'::`2'::$TSS0
?$TSS1@?1???$DataMapInit@VCSpeaker@@@@YAPAUdatamap_s@@PAVCSpeaker@@@Z@4HA DD 01H DUP (?) ; `DataMapInit<CSpeaker>'::`2'::$TSS1
?ambient_music@@3V?$CEntityFactory@VCAmbientMusic@@@@A DD 01H DUP (?) ; ambient_music
_BSS	ENDS
CRT$XCU	SEGMENT
?ambient_generic$initializer$@@3P6AXXZA DD FLAT:??__Eambient_generic@@YAXXZ ; ambient_generic$initializer$
CRT$XCU	ENDS
;	COMDAT __real@461c4000
CONST	SEGMENT
__real@461c4000 DD 0461c4000r			; 10000
CONST	ENDS
;	COMDAT __real@44440000
CONST	SEGMENT
__real@44440000 DD 044440000r			; 784
CONST	ENDS
;	COMDAT __real@437f0000
CONST	SEGMENT
__real@437f0000 DD 0437f0000r			; 255
CONST	ENDS
;	COMDAT __real@43070000
CONST	SEGMENT
__real@43070000 DD 043070000r			; 135
CONST	ENDS
;	COMDAT __real@41f00000
CONST	SEGMENT
__real@41f00000 DD 041f00000r			; 30
CONST	ENDS
;	COMDAT __real@41700000
CONST	SEGMENT
__real@41700000 DD 041700000r			; 15
CONST	ENDS
;	COMDAT __real@41200000
CONST	SEGMENT
__real@41200000 DD 041200000r			; 10
CONST	ENDS
;	COMDAT __real@40c00000
CONST	SEGMENT
__real@40c00000 DD 040c00000r			; 6
CONST	ENDS
;	COMDAT __real@40a00000
CONST	SEGMENT
__real@40a00000 DD 040a00000r			; 5
CONST	ENDS
;	COMDAT __real@40400000
CONST	SEGMENT
__real@40400000 DD 040400000r			; 3
CONST	ENDS
;	COMDAT __real@4000000000000000
CONST	SEGMENT
__real@4000000000000000 DQ 04000000000000000r	; 2
CONST	ENDS
;	COMDAT __real@40000000
CONST	SEGMENT
__real@40000000 DD 040000000r			; 2
CONST	ENDS
;	COMDAT __real@3ff8000000000000
CONST	SEGMENT
__real@3ff8000000000000 DQ 03ff8000000000000r	; 1.5
CONST	ENDS
;	COMDAT __real@3ff0000000000000
CONST	SEGMENT
__real@3ff0000000000000 DQ 03ff0000000000000r	; 1
CONST	ENDS
;	COMDAT __real@3fe8000000000000
CONST	SEGMENT
__real@3fe8000000000000 DQ 03fe8000000000000r	; 0.75
CONST	ENDS
;	COMDAT __real@3fe0000000000000
CONST	SEGMENT
__real@3fe0000000000000 DQ 03fe0000000000000r	; 0.5
CONST	ENDS
;	COMDAT __real@3fd0000000000000
CONST	SEGMENT
__real@3fd0000000000000 DQ 03fd0000000000000r	; 0.25
CONST	ENDS
;	COMDAT __real@3fb999999999999a
CONST	SEGMENT
__real@3fb999999999999a DQ 03fb999999999999ar	; 0.1
CONST	ENDS
;	COMDAT __real@3fa999999999999a
CONST	SEGMENT
__real@3fa999999999999a DQ 03fa999999999999ar	; 0.05
CONST	ENDS
;	COMDAT __real@3fa00000
CONST	SEGMENT
__real@3fa00000 DD 03fa00000r			; 1.25
CONST	ENDS
;	COMDAT __real@3f8ccccd
CONST	SEGMENT
__real@3f8ccccd DD 03f8ccccdr			; 1.1
CONST	ENDS
;	COMDAT __real@3f847ae147ae147b
CONST	SEGMENT
__real@3f847ae147ae147b DQ 03f847ae147ae147br	; 0.01
CONST	ENDS
;	COMDAT __real@3f800000
CONST	SEGMENT
__real@3f800000 DD 03f800000r			; 1
CONST	ENDS
;	COMDAT __real@3f666666
CONST	SEGMENT
__real@3f666666 DD 03f666666r			; 0.9
CONST	ENDS
;	COMDAT __real@3f59999a
CONST	SEGMENT
__real@3f59999a DD 03f59999ar			; 0.85
CONST	ENDS
;	COMDAT __real@3f4ccccd
CONST	SEGMENT
__real@3f4ccccd DD 03f4ccccdr			; 0.8
CONST	ENDS
;	COMDAT __real@3f400000
CONST	SEGMENT
__real@3f400000 DD 03f400000r			; 0.75
CONST	ENDS
;	COMDAT __real@3f333333
CONST	SEGMENT
__real@3f333333 DD 03f333333r			; 0.7
CONST	ENDS
;	COMDAT __real@3f19999a
CONST	SEGMENT
__real@3f19999a DD 03f19999ar			; 0.6
CONST	ENDS
;	COMDAT __real@3f000000
CONST	SEGMENT
__real@3f000000 DD 03f000000r			; 0.5
CONST	ENDS
;	COMDAT __real@3e99999a
CONST	SEGMENT
__real@3e99999a DD 03e99999ar			; 0.3
CONST	ENDS
;	COMDAT __real@3e800000
CONST	SEGMENT
__real@3e800000 DD 03e800000r			; 0.25
CONST	ENDS
;	COMDAT __real@3e4ccccd
CONST	SEGMENT
__real@3e4ccccd DD 03e4ccccdr			; 0.2
CONST	ENDS
;	COMDAT __real@3dcccccd
CONST	SEGMENT
__real@3dcccccd DD 03dcccccdr			; 0.1
CONST	ENDS
;	COMDAT __real@3c23d70a
CONST	SEGMENT
__real@3c23d70a DD 03c23d70ar			; 0.01
CONST	ENDS
;	COMDAT __real@0000000000000000
CONST	SEGMENT
__real@0000000000000000 DQ 00000000000000000r	; 0
CONST	ENDS
;	COMDAT __real@00000000
CONST	SEGMENT
__real@00000000 DD 000000000r			; 0
CONST	ENDS
;	COMDAT ??_R1A@?0A@EA@?$CEntityFactory@VCAmbientMusic@@@@8
rdata$r	SEGMENT
??_R1A@?0A@EA@?$CEntityFactory@VCAmbientMusic@@@@8 DD FLAT:??_R0?AV?$CEntityFactory@VCAmbientMusic@@@@@8 ; CEntityFactory<CAmbientMusic>::`RTTI Base Class Descriptor at (0,-1,0,64)'
	DD	01H
	DD	00H
	DD	0ffffffffH
	DD	00H
	DD	040H
	DD	FLAT:??_R3?$CEntityFactory@VCAmbientMusic@@@@8
rdata$r	ENDS
;	COMDAT ??_R2?$CEntityFactory@VCAmbientMusic@@@@8
rdata$r	SEGMENT
??_R2?$CEntityFactory@VCAmbientMusic@@@@8 DD FLAT:??_R1A@?0A@EA@?$CEntityFactory@VCAmbientMusic@@@@8 ; CEntityFactory<CAmbientMusic>::`RTTI Base Class Array'
	DD	FLAT:??_R1A@?0A@EA@IEntityFactory@@8
rdata$r	ENDS
;	COMDAT ??_R3?$CEntityFactory@VCAmbientMusic@@@@8
rdata$r	SEGMENT
??_R3?$CEntityFactory@VCAmbientMusic@@@@8 DD 00H	; CEntityFactory<CAmbientMusic>::`RTTI Class Hierarchy Descriptor'
	DD	00H
	DD	02H
	DD	FLAT:??_R2?$CEntityFactory@VCAmbientMusic@@@@8
rdata$r	ENDS
;	COMDAT ??_R0?AV?$CEntityFactory@VCAmbientMusic@@@@@8
data$r	SEGMENT
??_R0?AV?$CEntityFactory@VCAmbientMusic@@@@@8 DD FLAT:??_7type_info@@6B@ ; CEntityFactory<CAmbientMusic> `RTTI Type Descriptor'
	DD	00H
	DB	'.?AV?$CEntityFactory@VCAmbientMusic@@@@', 00H
data$r	ENDS
;	COMDAT ??_R4?$CEntityFactory@VCAmbientMusic@@@@6B@
rdata$r	SEGMENT
??_R4?$CEntityFactory@VCAmbientMusic@@@@6B@ DD 00H	; CEntityFactory<CAmbientMusic>::`RTTI Complete Object Locator'
	DD	00H
	DD	00H
	DD	FLAT:??_R0?AV?$CEntityFactory@VCAmbientMusic@@@@@8
	DD	FLAT:??_R3?$CEntityFactory@VCAmbientMusic@@@@8
rdata$r	ENDS
;	COMDAT ??_R1A@?0A@EA@CAmbientMusic@@8
rdata$r	SEGMENT
??_R1A@?0A@EA@CAmbientMusic@@8 DD FLAT:??_R0?AVCAmbientMusic@@@8 ; CAmbientMusic::`RTTI Base Class Descriptor at (0,-1,0,64)'
	DD	02H
	DD	00H
	DD	0ffffffffH
	DD	00H
	DD	040H
	DD	FLAT:??_R3CAmbientMusic@@8
rdata$r	ENDS
;	COMDAT ??_R2CAmbientMusic@@8
rdata$r	SEGMENT
??_R2CAmbientMusic@@8 DD FLAT:??_R1A@?0A@EA@CAmbientMusic@@8 ; CAmbientMusic::`RTTI Base Class Array'
	DD	FLAT:??_R1A@?0A@EA@CBaseDelay@@8
	DD	FLAT:??_R1A@?0A@EA@CBaseEntity@@8
rdata$r	ENDS
;	COMDAT ??_R3CAmbientMusic@@8
rdata$r	SEGMENT
??_R3CAmbientMusic@@8 DD 00H				; CAmbientMusic::`RTTI Class Hierarchy Descriptor'
	DD	00H
	DD	03H
	DD	FLAT:??_R2CAmbientMusic@@8
rdata$r	ENDS
;	COMDAT ??_R0?AVCAmbientMusic@@@8
data$r	SEGMENT
??_R0?AVCAmbientMusic@@@8 DD FLAT:??_7type_info@@6B@	; CAmbientMusic `RTTI Type Descriptor'
	DD	00H
	DB	'.?AVCAmbientMusic@@', 00H
data$r	ENDS
;	COMDAT ??_R4CAmbientMusic@@6B@
rdata$r	SEGMENT
??_R4CAmbientMusic@@6B@ DD 00H				; CAmbientMusic::`RTTI Complete Object Locator'
	DD	00H
	DD	00H
	DD	FLAT:??_R0?AVCAmbientMusic@@@8
	DD	FLAT:??_R3CAmbientMusic@@8
rdata$r	ENDS
;	COMDAT ??_R1A@?0A@EA@?$CEntityFactory@VCSpeaker@@@@8
rdata$r	SEGMENT
??_R1A@?0A@EA@?$CEntityFactory@VCSpeaker@@@@8 DD FLAT:??_R0?AV?$CEntityFactory@VCSpeaker@@@@@8 ; CEntityFactory<CSpeaker>::`RTTI Base Class Descriptor at (0,-1,0,64)'
	DD	01H
	DD	00H
	DD	0ffffffffH
	DD	00H
	DD	040H
	DD	FLAT:??_R3?$CEntityFactory@VCSpeaker@@@@8
rdata$r	ENDS
;	COMDAT ??_R2?$CEntityFactory@VCSpeaker@@@@8
rdata$r	SEGMENT
??_R2?$CEntityFactory@VCSpeaker@@@@8 DD FLAT:??_R1A@?0A@EA@?$CEntityFactory@VCSpeaker@@@@8 ; CEntityFactory<CSpeaker>::`RTTI Base Class Array'
	DD	FLAT:??_R1A@?0A@EA@IEntityFactory@@8
rdata$r	ENDS
;	COMDAT ??_R3?$CEntityFactory@VCSpeaker@@@@8
rdata$r	SEGMENT
??_R3?$CEntityFactory@VCSpeaker@@@@8 DD 00H		; CEntityFactory<CSpeaker>::`RTTI Class Hierarchy Descriptor'
	DD	00H
	DD	02H
	DD	FLAT:??_R2?$CEntityFactory@VCSpeaker@@@@8
rdata$r	ENDS
;	COMDAT ??_R0?AV?$CEntityFactory@VCSpeaker@@@@@8
data$r	SEGMENT
??_R0?AV?$CEntityFactory@VCSpeaker@@@@@8 DD FLAT:??_7type_info@@6B@ ; CEntityFactory<CSpeaker> `RTTI Type Descriptor'
	DD	00H
	DB	'.?AV?$CEntityFactory@VCSpeaker@@@@', 00H
data$r	ENDS
;	COMDAT ??_R4?$CEntityFactory@VCSpeaker@@@@6B@
rdata$r	SEGMENT
??_R4?$CEntityFactory@VCSpeaker@@@@6B@ DD 00H		; CEntityFactory<CSpeaker>::`RTTI Complete Object Locator'
	DD	00H
	DD	00H
	DD	FLAT:??_R0?AV?$CEntityFactory@VCSpeaker@@@@@8
	DD	FLAT:??_R3?$CEntityFactory@VCSpeaker@@@@8
rdata$r	ENDS
;	COMDAT ??_R1A@?0A@EA@CSpeaker@@8
rdata$r	SEGMENT
??_R1A@?0A@EA@CSpeaker@@8 DD FLAT:??_R0?AVCSpeaker@@@8	; CSpeaker::`RTTI Base Class Descriptor at (0,-1,0,64)'
	DD	01H
	DD	00H
	DD	0ffffffffH
	DD	00H
	DD	040H
	DD	FLAT:??_R3CSpeaker@@8
rdata$r	ENDS
;	COMDAT ??_R2CSpeaker@@8
rdata$r	SEGMENT
??_R2CSpeaker@@8 DD FLAT:??_R1A@?0A@EA@CSpeaker@@8	; CSpeaker::`RTTI Base Class Array'
	DD	FLAT:??_R1A@?0A@EA@CBaseEntity@@8
rdata$r	ENDS
;	COMDAT ??_R3CSpeaker@@8
rdata$r	SEGMENT
??_R3CSpeaker@@8 DD 00H					; CSpeaker::`RTTI Class Hierarchy Descriptor'
	DD	00H
	DD	02H
	DD	FLAT:??_R2CSpeaker@@8
rdata$r	ENDS
;	COMDAT ??_R0?AVCSpeaker@@@8
data$r	SEGMENT
??_R0?AVCSpeaker@@@8 DD FLAT:??_7type_info@@6B@		; CSpeaker `RTTI Type Descriptor'
	DD	00H
	DB	'.?AVCSpeaker@@', 00H
data$r	ENDS
;	COMDAT ??_R4CSpeaker@@6B@
rdata$r	SEGMENT
??_R4CSpeaker@@6B@ DD 00H				; CSpeaker::`RTTI Complete Object Locator'
	DD	00H
	DD	00H
	DD	FLAT:??_R0?AVCSpeaker@@@8
	DD	FLAT:??_R3CSpeaker@@8
rdata$r	ENDS
;	COMDAT ??_R1A@?0A@EA@?$CEntityFactory@VCTriggerSound@@@@8
rdata$r	SEGMENT
??_R1A@?0A@EA@?$CEntityFactory@VCTriggerSound@@@@8 DD FLAT:??_R0?AV?$CEntityFactory@VCTriggerSound@@@@@8 ; CEntityFactory<CTriggerSound>::`RTTI Base Class Descriptor at (0,-1,0,64)'
	DD	01H
	DD	00H
	DD	0ffffffffH
	DD	00H
	DD	040H
	DD	FLAT:??_R3?$CEntityFactory@VCTriggerSound@@@@8
rdata$r	ENDS
;	COMDAT ??_R2?$CEntityFactory@VCTriggerSound@@@@8
rdata$r	SEGMENT
??_R2?$CEntityFactory@VCTriggerSound@@@@8 DD FLAT:??_R1A@?0A@EA@?$CEntityFactory@VCTriggerSound@@@@8 ; CEntityFactory<CTriggerSound>::`RTTI Base Class Array'
	DD	FLAT:??_R1A@?0A@EA@IEntityFactory@@8
rdata$r	ENDS
;	COMDAT ??_R3?$CEntityFactory@VCTriggerSound@@@@8
rdata$r	SEGMENT
??_R3?$CEntityFactory@VCTriggerSound@@@@8 DD 00H	; CEntityFactory<CTriggerSound>::`RTTI Class Hierarchy Descriptor'
	DD	00H
	DD	02H
	DD	FLAT:??_R2?$CEntityFactory@VCTriggerSound@@@@8
rdata$r	ENDS
;	COMDAT ??_R0?AV?$CEntityFactory@VCTriggerSound@@@@@8
data$r	SEGMENT
??_R0?AV?$CEntityFactory@VCTriggerSound@@@@@8 DD FLAT:??_7type_info@@6B@ ; CEntityFactory<CTriggerSound> `RTTI Type Descriptor'
	DD	00H
	DB	'.?AV?$CEntityFactory@VCTriggerSound@@@@', 00H
data$r	ENDS
;	COMDAT ??_R4?$CEntityFactory@VCTriggerSound@@@@6B@
rdata$r	SEGMENT
??_R4?$CEntityFactory@VCTriggerSound@@@@6B@ DD 00H	; CEntityFactory<CTriggerSound>::`RTTI Complete Object Locator'
	DD	00H
	DD	00H
	DD	FLAT:??_R0?AV?$CEntityFactory@VCTriggerSound@@@@@8
	DD	FLAT:??_R3?$CEntityFactory@VCTriggerSound@@@@8
rdata$r	ENDS
;	COMDAT ??_R1A@?0A@EA@CTriggerSound@@8
rdata$r	SEGMENT
??_R1A@?0A@EA@CTriggerSound@@8 DD FLAT:??_R0?AVCTriggerSound@@@8 ; CTriggerSound::`RTTI Base Class Descriptor at (0,-1,0,64)'
	DD	02H
	DD	00H
	DD	0ffffffffH
	DD	00H
	DD	040H
	DD	FLAT:??_R3CTriggerSound@@8
rdata$r	ENDS
;	COMDAT ??_R2CTriggerSound@@8
rdata$r	SEGMENT
??_R2CTriggerSound@@8 DD FLAT:??_R1A@?0A@EA@CTriggerSound@@8 ; CTriggerSound::`RTTI Base Class Array'
	DD	FLAT:??_R1A@?0A@EA@CBaseDelay@@8
	DD	FLAT:??_R1A@?0A@EA@CBaseEntity@@8
rdata$r	ENDS
;	COMDAT ??_R3CTriggerSound@@8
rdata$r	SEGMENT
??_R3CTriggerSound@@8 DD 00H				; CTriggerSound::`RTTI Class Hierarchy Descriptor'
	DD	00H
	DD	03H
	DD	FLAT:??_R2CTriggerSound@@8
rdata$r	ENDS
;	COMDAT ??_R0?AVCTriggerSound@@@8
data$r	SEGMENT
??_R0?AVCTriggerSound@@@8 DD FLAT:??_7type_info@@6B@	; CTriggerSound `RTTI Type Descriptor'
	DD	00H
	DB	'.?AVCTriggerSound@@', 00H
data$r	ENDS
;	COMDAT ??_R4CTriggerSound@@6B@
rdata$r	SEGMENT
??_R4CTriggerSound@@6B@ DD 00H				; CTriggerSound::`RTTI Complete Object Locator'
	DD	00H
	DD	00H
	DD	FLAT:??_R0?AVCTriggerSound@@@8
	DD	FLAT:??_R3CTriggerSound@@8
rdata$r	ENDS
;	COMDAT ??_R1A@?0A@EA@?$CEntityFactory@VCEnvSound@@@@8
rdata$r	SEGMENT
??_R1A@?0A@EA@?$CEntityFactory@VCEnvSound@@@@8 DD FLAT:??_R0?AV?$CEntityFactory@VCEnvSound@@@@@8 ; CEntityFactory<CEnvSound>::`RTTI Base Class Descriptor at (0,-1,0,64)'
	DD	01H
	DD	00H
	DD	0ffffffffH
	DD	00H
	DD	040H
	DD	FLAT:??_R3?$CEntityFactory@VCEnvSound@@@@8
rdata$r	ENDS
;	COMDAT ??_R2?$CEntityFactory@VCEnvSound@@@@8
rdata$r	SEGMENT
??_R2?$CEntityFactory@VCEnvSound@@@@8 DD FLAT:??_R1A@?0A@EA@?$CEntityFactory@VCEnvSound@@@@8 ; CEntityFactory<CEnvSound>::`RTTI Base Class Array'
	DD	FLAT:??_R1A@?0A@EA@IEntityFactory@@8
rdata$r	ENDS
;	COMDAT ??_R3?$CEntityFactory@VCEnvSound@@@@8
rdata$r	SEGMENT
??_R3?$CEntityFactory@VCEnvSound@@@@8 DD 00H		; CEntityFactory<CEnvSound>::`RTTI Class Hierarchy Descriptor'
	DD	00H
	DD	02H
	DD	FLAT:??_R2?$CEntityFactory@VCEnvSound@@@@8
rdata$r	ENDS
;	COMDAT ??_R0?AV?$CEntityFactory@VCEnvSound@@@@@8
data$r	SEGMENT
??_R0?AV?$CEntityFactory@VCEnvSound@@@@@8 DD FLAT:??_7type_info@@6B@ ; CEntityFactory<CEnvSound> `RTTI Type Descriptor'
	DD	00H
	DB	'.?AV?$CEntityFactory@VCEnvSound@@@@', 00H
data$r	ENDS
;	COMDAT ??_R4?$CEntityFactory@VCEnvSound@@@@6B@
rdata$r	SEGMENT
??_R4?$CEntityFactory@VCEnvSound@@@@6B@ DD 00H		; CEntityFactory<CEnvSound>::`RTTI Complete Object Locator'
	DD	00H
	DD	00H
	DD	FLAT:??_R0?AV?$CEntityFactory@VCEnvSound@@@@@8
	DD	FLAT:??_R3?$CEntityFactory@VCEnvSound@@@@8
rdata$r	ENDS
;	COMDAT ??_R1A@?0A@EA@CEnvSound@@8
rdata$r	SEGMENT
??_R1A@?0A@EA@CEnvSound@@8 DD FLAT:??_R0?AVCEnvSound@@@8 ; CEnvSound::`RTTI Base Class Descriptor at (0,-1,0,64)'
	DD	02H
	DD	00H
	DD	0ffffffffH
	DD	00H
	DD	040H
	DD	FLAT:??_R3CEnvSound@@8
rdata$r	ENDS
;	COMDAT ??_R2CEnvSound@@8
rdata$r	SEGMENT
??_R2CEnvSound@@8 DD FLAT:??_R1A@?0A@EA@CEnvSound@@8	; CEnvSound::`RTTI Base Class Array'
	DD	FLAT:??_R1A@?0A@EA@CPointEntity@@8
	DD	FLAT:??_R1A@?0A@EA@CBaseEntity@@8
rdata$r	ENDS
;	COMDAT ??_R3CEnvSound@@8
rdata$r	SEGMENT
??_R3CEnvSound@@8 DD 00H				; CEnvSound::`RTTI Class Hierarchy Descriptor'
	DD	00H
	DD	03H
	DD	FLAT:??_R2CEnvSound@@8
rdata$r	ENDS
;	COMDAT ??_R0?AVCEnvSound@@@8
data$r	SEGMENT
??_R0?AVCEnvSound@@@8 DD FLAT:??_7type_info@@6B@	; CEnvSound `RTTI Type Descriptor'
	DD	00H
	DB	'.?AVCEnvSound@@', 00H
data$r	ENDS
;	COMDAT ??_R4CEnvSound@@6B@
rdata$r	SEGMENT
??_R4CEnvSound@@6B@ DD 00H				; CEnvSound::`RTTI Complete Object Locator'
	DD	00H
	DD	00H
	DD	FLAT:??_R0?AVCEnvSound@@@8
	DD	FLAT:??_R3CEnvSound@@8
rdata$r	ENDS
;	COMDAT ??_R1A@?0A@EA@?$CEntityFactory@VCAmbientGeneric@@@@8
rdata$r	SEGMENT
??_R1A@?0A@EA@?$CEntityFactory@VCAmbientGeneric@@@@8 DD FLAT:??_R0?AV?$CEntityFactory@VCAmbientGeneric@@@@@8 ; CEntityFactory<CAmbientGeneric>::`RTTI Base Class Descriptor at (0,-1,0,64)'
	DD	01H
	DD	00H
	DD	0ffffffffH
	DD	00H
	DD	040H
	DD	FLAT:??_R3?$CEntityFactory@VCAmbientGeneric@@@@8
rdata$r	ENDS
;	COMDAT ??_R2?$CEntityFactory@VCAmbientGeneric@@@@8
rdata$r	SEGMENT
??_R2?$CEntityFactory@VCAmbientGeneric@@@@8 DD FLAT:??_R1A@?0A@EA@?$CEntityFactory@VCAmbientGeneric@@@@8 ; CEntityFactory<CAmbientGeneric>::`RTTI Base Class Array'
	DD	FLAT:??_R1A@?0A@EA@IEntityFactory@@8
rdata$r	ENDS
;	COMDAT ??_R3?$CEntityFactory@VCAmbientGeneric@@@@8
rdata$r	SEGMENT
??_R3?$CEntityFactory@VCAmbientGeneric@@@@8 DD 00H	; CEntityFactory<CAmbientGeneric>::`RTTI Class Hierarchy Descriptor'
	DD	00H
	DD	02H
	DD	FLAT:??_R2?$CEntityFactory@VCAmbientGeneric@@@@8
rdata$r	ENDS
;	COMDAT ??_R0?AV?$CEntityFactory@VCAmbientGeneric@@@@@8
data$r	SEGMENT
??_R0?AV?$CEntityFactory@VCAmbientGeneric@@@@@8 DD FLAT:??_7type_info@@6B@ ; CEntityFactory<CAmbientGeneric> `RTTI Type Descriptor'
	DD	00H
	DB	'.?AV?$CEntityFactory@VCAmbientGeneric@@@@', 00H
data$r	ENDS
;	COMDAT ??_R4?$CEntityFactory@VCAmbientGeneric@@@@6B@
rdata$r	SEGMENT
??_R4?$CEntityFactory@VCAmbientGeneric@@@@6B@ DD 00H	; CEntityFactory<CAmbientGeneric>::`RTTI Complete Object Locator'
	DD	00H
	DD	00H
	DD	FLAT:??_R0?AV?$CEntityFactory@VCAmbientGeneric@@@@@8
	DD	FLAT:??_R3?$CEntityFactory@VCAmbientGeneric@@@@8
rdata$r	ENDS
;	COMDAT ??_R1A@?0A@EA@CAmbientGeneric@@8
rdata$r	SEGMENT
??_R1A@?0A@EA@CAmbientGeneric@@8 DD FLAT:??_R0?AVCAmbientGeneric@@@8 ; CAmbientGeneric::`RTTI Base Class Descriptor at (0,-1,0,64)'
	DD	01H
	DD	00H
	DD	0ffffffffH
	DD	00H
	DD	040H
	DD	FLAT:??_R3CAmbientGeneric@@8
rdata$r	ENDS
;	COMDAT ??_R2CAmbientGeneric@@8
rdata$r	SEGMENT
??_R2CAmbientGeneric@@8 DD FLAT:??_R1A@?0A@EA@CAmbientGeneric@@8 ; CAmbientGeneric::`RTTI Base Class Array'
	DD	FLAT:??_R1A@?0A@EA@CBaseEntity@@8
rdata$r	ENDS
;	COMDAT ??_R3CAmbientGeneric@@8
rdata$r	SEGMENT
??_R3CAmbientGeneric@@8 DD 00H				; CAmbientGeneric::`RTTI Class Hierarchy Descriptor'
	DD	00H
	DD	02H
	DD	FLAT:??_R2CAmbientGeneric@@8
rdata$r	ENDS
;	COMDAT ??_R0?AVCAmbientGeneric@@@8
data$r	SEGMENT
??_R0?AVCAmbientGeneric@@@8 DD FLAT:??_7type_info@@6B@	; CAmbientGeneric `RTTI Type Descriptor'
	DD	00H
	DB	'.?AVCAmbientGeneric@@', 00H
data$r	ENDS
;	COMDAT ??_R4CAmbientGeneric@@6B@
rdata$r	SEGMENT
??_R4CAmbientGeneric@@6B@ DD 00H			; CAmbientGeneric::`RTTI Complete Object Locator'
	DD	00H
	DD	00H
	DD	FLAT:??_R0?AVCAmbientGeneric@@@8
	DD	FLAT:??_R3CAmbientGeneric@@8
rdata$r	ENDS
;	COMDAT ??_R4CBaseToggle@@6B@
rdata$r	SEGMENT
??_R4CBaseToggle@@6B@ DD 00H				; CBaseToggle::`RTTI Complete Object Locator'
	DD	00H
	DD	00H
	DD	FLAT:??_R0?AVCBaseToggle@@@8
	DD	FLAT:??_R3CBaseToggle@@8
rdata$r	ENDS
;	COMDAT ??_R4CBaseAnimating@@6B@
rdata$r	SEGMENT
??_R4CBaseAnimating@@6B@ DD 00H				; CBaseAnimating::`RTTI Complete Object Locator'
	DD	00H
	DD	00H
	DD	FLAT:??_R0?AVCBaseAnimating@@@8
	DD	FLAT:??_R3CBaseAnimating@@8
rdata$r	ENDS
;	COMDAT ??_R4CBaseDelay@@6B@
rdata$r	SEGMENT
??_R4CBaseDelay@@6B@ DD 00H				; CBaseDelay::`RTTI Complete Object Locator'
	DD	00H
	DD	00H
	DD	FLAT:??_R0?AVCBaseDelay@@@8
	DD	FLAT:??_R3CBaseDelay@@8
rdata$r	ENDS
;	COMDAT ??_R1A@?0A@EA@CPointEntity@@8
rdata$r	SEGMENT
??_R1A@?0A@EA@CPointEntity@@8 DD FLAT:??_R0?AVCPointEntity@@@8 ; CPointEntity::`RTTI Base Class Descriptor at (0,-1,0,64)'
	DD	01H
	DD	00H
	DD	0ffffffffH
	DD	00H
	DD	040H
	DD	FLAT:??_R3CPointEntity@@8
rdata$r	ENDS
;	COMDAT ??_R2CPointEntity@@8
rdata$r	SEGMENT
??_R2CPointEntity@@8 DD FLAT:??_R1A@?0A@EA@CPointEntity@@8 ; CPointEntity::`RTTI Base Class Array'
	DD	FLAT:??_R1A@?0A@EA@CBaseEntity@@8
rdata$r	ENDS
;	COMDAT ??_R3CPointEntity@@8
rdata$r	SEGMENT
??_R3CPointEntity@@8 DD 00H				; CPointEntity::`RTTI Class Hierarchy Descriptor'
	DD	00H
	DD	02H
	DD	FLAT:??_R2CPointEntity@@8
rdata$r	ENDS
;	COMDAT ??_R0?AVCPointEntity@@@8
data$r	SEGMENT
??_R0?AVCPointEntity@@@8 DD FLAT:??_7type_info@@6B@	; CPointEntity `RTTI Type Descriptor'
	DD	00H
	DB	'.?AVCPointEntity@@', 00H
data$r	ENDS
;	COMDAT ??_R4CPointEntity@@6B@
rdata$r	SEGMENT
??_R4CPointEntity@@6B@ DD 00H				; CPointEntity::`RTTI Complete Object Locator'
	DD	00H
	DD	00H
	DD	FLAT:??_R0?AVCPointEntity@@@8
	DD	FLAT:??_R3CPointEntity@@8
rdata$r	ENDS
;	COMDAT ??_R4CBaseMonster@@6B@
rdata$r	SEGMENT
??_R4CBaseMonster@@6B@ DD 00H				; CBaseMonster::`RTTI Complete Object Locator'
	DD	00H
	DD	00H
	DD	FLAT:??_R0?AVCBaseMonster@@@8
	DD	FLAT:??_R3CBaseMonster@@8
rdata$r	ENDS
;	COMDAT ??_R2CBaseDelay@@8
rdata$r	SEGMENT
??_R2CBaseDelay@@8 DD FLAT:??_R1A@?0A@EA@CBaseDelay@@8	; CBaseDelay::`RTTI Base Class Array'
	DD	FLAT:??_R1A@?0A@EA@CBaseEntity@@8
rdata$r	ENDS
;	COMDAT ??_R3CBaseDelay@@8
rdata$r	SEGMENT
??_R3CBaseDelay@@8 DD 00H				; CBaseDelay::`RTTI Class Hierarchy Descriptor'
	DD	00H
	DD	02H
	DD	FLAT:??_R2CBaseDelay@@8
rdata$r	ENDS
;	COMDAT ??_R0?AVCBaseDelay@@@8
data$r	SEGMENT
??_R0?AVCBaseDelay@@@8 DD FLAT:??_7type_info@@6B@	; CBaseDelay `RTTI Type Descriptor'
	DD	00H
	DB	'.?AVCBaseDelay@@', 00H
data$r	ENDS
;	COMDAT ??_R1A@?0A@EA@CBaseDelay@@8
rdata$r	SEGMENT
??_R1A@?0A@EA@CBaseDelay@@8 DD FLAT:??_R0?AVCBaseDelay@@@8 ; CBaseDelay::`RTTI Base Class Descriptor at (0,-1,0,64)'
	DD	01H
	DD	00H
	DD	0ffffffffH
	DD	00H
	DD	040H
	DD	FLAT:??_R3CBaseDelay@@8
rdata$r	ENDS
;	COMDAT ??_R2CBaseAnimating@@8
rdata$r	SEGMENT
??_R2CBaseAnimating@@8 DD FLAT:??_R1A@?0A@EA@CBaseAnimating@@8 ; CBaseAnimating::`RTTI Base Class Array'
	DD	FLAT:??_R1A@?0A@EA@CBaseDelay@@8
	DD	FLAT:??_R1A@?0A@EA@CBaseEntity@@8
rdata$r	ENDS
;	COMDAT ??_R3CBaseAnimating@@8
rdata$r	SEGMENT
??_R3CBaseAnimating@@8 DD 00H				; CBaseAnimating::`RTTI Class Hierarchy Descriptor'
	DD	00H
	DD	03H
	DD	FLAT:??_R2CBaseAnimating@@8
rdata$r	ENDS
;	COMDAT ??_R0?AVCBaseAnimating@@@8
data$r	SEGMENT
??_R0?AVCBaseAnimating@@@8 DD FLAT:??_7type_info@@6B@	; CBaseAnimating `RTTI Type Descriptor'
	DD	00H
	DB	'.?AVCBaseAnimating@@', 00H
data$r	ENDS
;	COMDAT ??_R1A@?0A@EA@CBaseAnimating@@8
rdata$r	SEGMENT
??_R1A@?0A@EA@CBaseAnimating@@8 DD FLAT:??_R0?AVCBaseAnimating@@@8 ; CBaseAnimating::`RTTI Base Class Descriptor at (0,-1,0,64)'
	DD	02H
	DD	00H
	DD	0ffffffffH
	DD	00H
	DD	040H
	DD	FLAT:??_R3CBaseAnimating@@8
rdata$r	ENDS
;	COMDAT ??_R2CBaseToggle@@8
rdata$r	SEGMENT
??_R2CBaseToggle@@8 DD FLAT:??_R1A@?0A@EA@CBaseToggle@@8 ; CBaseToggle::`RTTI Base Class Array'
	DD	FLAT:??_R1A@?0A@EA@CBaseAnimating@@8
	DD	FLAT:??_R1A@?0A@EA@CBaseDelay@@8
	DD	FLAT:??_R1A@?0A@EA@CBaseEntity@@8
rdata$r	ENDS
;	COMDAT ??_R3CBaseToggle@@8
rdata$r	SEGMENT
??_R3CBaseToggle@@8 DD 00H				; CBaseToggle::`RTTI Class Hierarchy Descriptor'
	DD	00H
	DD	04H
	DD	FLAT:??_R2CBaseToggle@@8
rdata$r	ENDS
;	COMDAT ??_R0?AVCBaseToggle@@@8
data$r	SEGMENT
??_R0?AVCBaseToggle@@@8 DD FLAT:??_7type_info@@6B@	; CBaseToggle `RTTI Type Descriptor'
	DD	00H
	DB	'.?AVCBaseToggle@@', 00H
data$r	ENDS
;	COMDAT ??_R1A@?0A@EA@CBaseToggle@@8
rdata$r	SEGMENT
??_R1A@?0A@EA@CBaseToggle@@8 DD FLAT:??_R0?AVCBaseToggle@@@8 ; CBaseToggle::`RTTI Base Class Descriptor at (0,-1,0,64)'
	DD	03H
	DD	00H
	DD	0ffffffffH
	DD	00H
	DD	040H
	DD	FLAT:??_R3CBaseToggle@@8
rdata$r	ENDS
;	COMDAT ??_R2CBaseMonster@@8
rdata$r	SEGMENT
??_R2CBaseMonster@@8 DD FLAT:??_R1A@?0A@EA@CBaseMonster@@8 ; CBaseMonster::`RTTI Base Class Array'
	DD	FLAT:??_R1A@?0A@EA@CBaseToggle@@8
	DD	FLAT:??_R1A@?0A@EA@CBaseAnimating@@8
	DD	FLAT:??_R1A@?0A@EA@CBaseDelay@@8
	DD	FLAT:??_R1A@?0A@EA@CBaseEntity@@8
rdata$r	ENDS
;	COMDAT ??_R3CBaseMonster@@8
rdata$r	SEGMENT
??_R3CBaseMonster@@8 DD 00H				; CBaseMonster::`RTTI Class Hierarchy Descriptor'
	DD	00H
	DD	05H
	DD	FLAT:??_R2CBaseMonster@@8
rdata$r	ENDS
;	COMDAT ??_R0?AVCBaseMonster@@@8
data$r	SEGMENT
??_R0?AVCBaseMonster@@@8 DD FLAT:??_7type_info@@6B@	; CBaseMonster `RTTI Type Descriptor'
	DD	00H
	DB	'.?AVCBaseMonster@@', 00H
data$r	ENDS
;	COMDAT ??_R1A@?0A@EA@CBaseMonster@@8
rdata$r	SEGMENT
??_R1A@?0A@EA@CBaseMonster@@8 DD FLAT:??_R0?AVCBaseMonster@@@8 ; CBaseMonster::`RTTI Base Class Descriptor at (0,-1,0,64)'
	DD	04H
	DD	00H
	DD	0ffffffffH
	DD	00H
	DD	040H
	DD	FLAT:??_R3CBaseMonster@@8
rdata$r	ENDS
;	COMDAT ??_R1A@?0A@EA@CBasePlayer@@8
rdata$r	SEGMENT
??_R1A@?0A@EA@CBasePlayer@@8 DD FLAT:??_R0?AVCBasePlayer@@@8 ; CBasePlayer::`RTTI Base Class Descriptor at (0,-1,0,64)'
	DD	05H
	DD	00H
	DD	0ffffffffH
	DD	00H
	DD	040H
	DD	FLAT:??_R3CBasePlayer@@8
rdata$r	ENDS
;	COMDAT ??_R2CBasePlayer@@8
rdata$r	SEGMENT
??_R2CBasePlayer@@8 DD FLAT:??_R1A@?0A@EA@CBasePlayer@@8 ; CBasePlayer::`RTTI Base Class Array'
	DD	FLAT:??_R1A@?0A@EA@CBaseMonster@@8
	DD	FLAT:??_R1A@?0A@EA@CBaseToggle@@8
	DD	FLAT:??_R1A@?0A@EA@CBaseAnimating@@8
	DD	FLAT:??_R1A@?0A@EA@CBaseDelay@@8
	DD	FLAT:??_R1A@?0A@EA@CBaseEntity@@8
rdata$r	ENDS
;	COMDAT ??_R3CBasePlayer@@8
rdata$r	SEGMENT
??_R3CBasePlayer@@8 DD 00H				; CBasePlayer::`RTTI Class Hierarchy Descriptor'
	DD	00H
	DD	06H
	DD	FLAT:??_R2CBasePlayer@@8
rdata$r	ENDS
;	COMDAT ??_R0?AVCBasePlayer@@@8
data$r	SEGMENT
??_R0?AVCBasePlayer@@@8 DD FLAT:??_7type_info@@6B@	; CBasePlayer `RTTI Type Descriptor'
	DD	00H
	DB	'.?AVCBasePlayer@@', 00H
data$r	ENDS
;	COMDAT ??_R4CBasePlayer@@6B@
rdata$r	SEGMENT
??_R4CBasePlayer@@6B@ DD 00H				; CBasePlayer::`RTTI Complete Object Locator'
	DD	00H
	DD	00H
	DD	FLAT:??_R0?AVCBasePlayer@@@8
	DD	FLAT:??_R3CBasePlayer@@8
rdata$r	ENDS
;	COMDAT ??_R1A@?0A@EA@IEntityFactory@@8
rdata$r	SEGMENT
??_R1A@?0A@EA@IEntityFactory@@8 DD FLAT:??_R0?AVIEntityFactory@@@8 ; IEntityFactory::`RTTI Base Class Descriptor at (0,-1,0,64)'
	DD	00H
	DD	00H
	DD	0ffffffffH
	DD	00H
	DD	040H
	DD	FLAT:??_R3IEntityFactory@@8
rdata$r	ENDS
;	COMDAT ??_R2IEntityFactory@@8
rdata$r	SEGMENT
??_R2IEntityFactory@@8 DD FLAT:??_R1A@?0A@EA@IEntityFactory@@8 ; IEntityFactory::`RTTI Base Class Array'
rdata$r	ENDS
;	COMDAT ??_R3IEntityFactory@@8
rdata$r	SEGMENT
??_R3IEntityFactory@@8 DD 00H				; IEntityFactory::`RTTI Class Hierarchy Descriptor'
	DD	00H
	DD	01H
	DD	FLAT:??_R2IEntityFactory@@8
rdata$r	ENDS
;	COMDAT ??_R0?AVIEntityFactory@@@8
data$r	SEGMENT
??_R0?AVIEntityFactory@@@8 DD FLAT:??_7type_info@@6B@	; IEntityFactory `RTTI Type Descriptor'
	DD	00H
	DB	'.?AVIEntityFactory@@', 00H
data$r	ENDS
;	COMDAT ??_R4IEntityFactory@@6B@
rdata$r	SEGMENT
??_R4IEntityFactory@@6B@ DD 00H				; IEntityFactory::`RTTI Complete Object Locator'
	DD	00H
	DD	00H
	DD	FLAT:??_R0?AVIEntityFactory@@@8
	DD	FLAT:??_R3IEntityFactory@@8
rdata$r	ENDS
;	COMDAT ??_R1A@?0A@EA@CBaseEntity@@8
rdata$r	SEGMENT
??_R1A@?0A@EA@CBaseEntity@@8 DD FLAT:??_R0?AVCBaseEntity@@@8 ; CBaseEntity::`RTTI Base Class Descriptor at (0,-1,0,64)'
	DD	00H
	DD	00H
	DD	0ffffffffH
	DD	00H
	DD	040H
	DD	FLAT:??_R3CBaseEntity@@8
rdata$r	ENDS
;	COMDAT ??_R2CBaseEntity@@8
rdata$r	SEGMENT
??_R2CBaseEntity@@8 DD FLAT:??_R1A@?0A@EA@CBaseEntity@@8 ; CBaseEntity::`RTTI Base Class Array'
rdata$r	ENDS
;	COMDAT ??_R3CBaseEntity@@8
rdata$r	SEGMENT
??_R3CBaseEntity@@8 DD 00H				; CBaseEntity::`RTTI Class Hierarchy Descriptor'
	DD	00H
	DD	01H
	DD	FLAT:??_R2CBaseEntity@@8
rdata$r	ENDS
;	COMDAT ??_R0?AVCBaseEntity@@@8
data$r	SEGMENT
??_R0?AVCBaseEntity@@@8 DD FLAT:??_7type_info@@6B@	; CBaseEntity `RTTI Type Descriptor'
	DD	00H
	DB	'.?AVCBaseEntity@@', 00H
data$r	ENDS
;	COMDAT ??_R4CBaseEntity@@6B@
rdata$r	SEGMENT
??_R4CBaseEntity@@6B@ DD 00H				; CBaseEntity::`RTTI Complete Object Locator'
	DD	00H
	DD	00H
	DD	FLAT:??_R0?AVCBaseEntity@@@8
	DD	FLAT:??_R3CBaseEntity@@8
rdata$r	ENDS
;	COMDAT ??_C@_1BE@OPPFELHC@?$AAm?$AA_?$AAp?$AAM?$AAe?$AAm?$AAo?$AAr?$AAy?$AA?$AA@
CONST	SEGMENT
??_C@_1BE@OPPFELHC@?$AAm?$AA_?$AAp?$AAM?$AAe?$AAm?$AAo?$AAr?$AAy?$AA?$AA@ DB 'm'
	DB	00H, '_', 00H, 'p', 00H, 'M', 00H, 'e', 00H, 'm', 00H, 'o', 00H
	DB	'r', 00H, 'y', 00H, 00H, 00H			; `string'
CONST	ENDS
;	COMDAT ??_C@_13COJANIEC@?$AA0?$AA?$AA@
CONST	SEGMENT
??_C@_13COJANIEC@?$AA0?$AA?$AA@ DB '0', 00H, 00H, 00H	; `string'
CONST	ENDS
;	COMDAT ??_C@_1BA@PKCLMAEA@?$AAn?$AAu?$AAm?$AA?5?$AA?$DO?$AA?5?$AA0?$AA?$AA@
CONST	SEGMENT
??_C@_1BA@PKCLMAEA@?$AAn?$AAu?$AAm?$AA?5?$AA?$DO?$AA?5?$AA0?$AA?$AA@ DB 'n'
	DB	00H, 'u', 00H, 'm', 00H, ' ', 00H, '>', 00H, ' ', 00H, '0', 00H
	DB	00H, 00H					; `string'
CONST	ENDS
;	COMDAT ??_C@_1GM@CDMJDFPA@?$AAI?$AAs?$AAV?$AAa?$AAl?$AAi?$AAd?$AAI?$AAn?$AAd?$AAe?$AAx?$AA?$CI?$AAe?$AAl?$AAe?$AAm?$AA?$CJ?$AA?5?$AA?$HM?$AA?$HM?$AA?5?$AA?$CI?$AA?5?$AAm?$AA_?$AAS?$AAi?$AAz?$AAe?$AA?5?$AA?$DN@
CONST	SEGMENT
??_C@_1GM@CDMJDFPA@?$AAI?$AAs?$AAV?$AAa?$AAl?$AAi?$AAd?$AAI?$AAn?$AAd?$AAe?$AAx?$AA?$CI?$AAe?$AAl?$AAe?$AAm?$AA?$CJ?$AA?5?$AA?$HM?$AA?$HM?$AA?5?$AA?$CI?$AA?5?$AAm?$AA_?$AAS?$AAi?$AAz?$AAe?$AA?5?$AA?$DN@ DB 'I'
	DB	00H, 's', 00H, 'V', 00H, 'a', 00H, 'l', 00H, 'i', 00H, 'd', 00H
	DB	'I', 00H, 'n', 00H, 'd', 00H, 'e', 00H, 'x', 00H, '(', 00H, 'e'
	DB	00H, 'l', 00H, 'e', 00H, 'm', 00H, ')', 00H, ' ', 00H, '|', 00H
	DB	'|', 00H, ' ', 00H, '(', 00H, ' ', 00H, 'm', 00H, '_', 00H, 'S'
	DB	00H, 'i', 00H, 'z', 00H, 'e', 00H, ' ', 00H, '=', 00H, '=', 00H
	DB	' ', 00H, '0', 00H, ' ', 00H, ')', 00H, ' ', 00H, '|', 00H, '|'
	DB	00H, ' ', 00H, '(', 00H, ' ', 00H, 'n', 00H, 'u', 00H, 'm', 00H
	DB	' ', 00H, '=', 00H, '=', 00H, ' ', 00H, '0', 00H, ' ', 00H, ')'
	DB	00H, 00H, 00H				; `string'
CONST	ENDS
;	COMDAT ??_C@_1FA@BPFBJKPF@?$AA?$CI?$AAe?$AAl?$AAe?$AAm?$AA?5?$AA?$DN?$AA?$DN?$AA?5?$AAC?$AAo?$AAu?$AAn?$AAt?$AA?$CI?$AA?$CJ?$AA?$CJ?$AA?5?$AA?$HM?$AA?$HM?$AA?5?$AAI?$AAs?$AAV?$AAa?$AAl?$AAi?$AAd?$AAI?$AAn?$AAd?$AAe@
CONST	SEGMENT
??_C@_1FA@BPFBJKPF@?$AA?$CI?$AAe?$AAl?$AAe?$AAm?$AA?5?$AA?$DN?$AA?$DN?$AA?5?$AAC?$AAo?$AAu?$AAn?$AAt?$AA?$CI?$AA?$CJ?$AA?$CJ?$AA?5?$AA?$HM?$AA?$HM?$AA?5?$AAI?$AAs?$AAV?$AAa?$AAl?$AAi?$AAd?$AAI?$AAn?$AAd?$AAe@ DB '('
	DB	00H, 'e', 00H, 'l', 00H, 'e', 00H, 'm', 00H, ' ', 00H, '=', 00H
	DB	'=', 00H, ' ', 00H, 'C', 00H, 'o', 00H, 'u', 00H, 'n', 00H, 't'
	DB	00H, '(', 00H, ')', 00H, ')', 00H, ' ', 00H, '|', 00H, '|', 00H
	DB	' ', 00H, 'I', 00H, 's', 00H, 'V', 00H, 'a', 00H, 'l', 00H, 'i'
	DB	00H, 'd', 00H, 'I', 00H, 'n', 00H, 'd', 00H, 'e', 00H, 'x', 00H
	DB	'(', 00H, 'e', 00H, 'l', 00H, 'e', 00H, 'm', 00H, ')', 00H, 00H
	DB	00H						; `string'
CONST	ENDS
;	COMDAT ??_C@_1BM@CKILBAKK@?$AAI?$AAs?$AAI?$AAd?$AAx?$AAV?$AAa?$AAl?$AAi?$AAd?$AA?$CI?$AAi?$AA?$CJ?$AA?$AA@
CONST	SEGMENT
??_C@_1BM@CKILBAKK@?$AAI?$AAs?$AAI?$AAd?$AAx?$AAV?$AAa?$AAl?$AAi?$AAd?$AA?$CI?$AAi?$AA?$CJ?$AA?$AA@ DB 'I'
	DB	00H, 's', 00H, 'I', 00H, 'd', 00H, 'x', 00H, 'V', 00H, 'a', 00H
	DB	'l', 00H, 'i', 00H, 'd', 00H, '(', 00H, 'i', 00H, ')', 00H, 00H
	DB	00H						; `string'
CONST	ENDS
;	COMDAT ??_C@_1BM@PFNFCCHH@?$AA?$CB?$AAI?$AAs?$AAR?$AAe?$AAa?$AAd?$AAO?$AAn?$AAl?$AAy?$AA?$CI?$AA?$CJ?$AA?$AA@
CONST	SEGMENT
??_C@_1BM@PFNFCCHH@?$AA?$CB?$AAI?$AAs?$AAR?$AAe?$AAa?$AAd?$AAO?$AAn?$AAl?$AAy?$AA?$CI?$AA?$CJ?$AA?$AA@ DB '!'
	DB	00H, 'I', 00H, 's', 00H, 'R', 00H, 'e', 00H, 'a', 00H, 'd', 00H
	DB	'O', 00H, 'n', 00H, 'l', 00H, 'y', 00H, '(', 00H, ')', 00H, 00H
	DB	00H						; `string'
CONST	ENDS
;	COMDAT ??_C@_1BO@FOOHAONO@?$AAn?$AAG?$AAr?$AAo?$AAw?$AAS?$AAi?$AAz?$AAe?$AA?5?$AA?$DO?$AA?$DN?$AA?5?$AA0?$AA?$AA@
CONST	SEGMENT
??_C@_1BO@FOOHAONO@?$AAn?$AAG?$AAr?$AAo?$AAw?$AAS?$AAi?$AAz?$AAe?$AA?5?$AA?$DO?$AA?$DN?$AA?5?$AA0?$AA?$AA@ DB 'n'
	DB	00H, 'G', 00H, 'r', 00H, 'o', 00H, 'w', 00H, 'S', 00H, 'i', 00H
	DB	'z', 00H, 'e', 00H, ' ', 00H, '>', 00H, '=', 00H, ' ', 00H, '0'
	DB	00H, 00H, 00H				; `string'
CONST	ENDS
;	COMDAT ??_C@_1JE@CIIIAKCN@?$AAd?$AA?3?$AA?2?$AA?$CB?$AAd?$AAi?$AAf?$AAf?$AAu?$AAs?$AAi?$AAo?$AAn?$AA?5?$AA2?$AA0?$AA2?$AA0?$AA?2?$AAs?$AAo?$AAu?$AAr?$AAc?$AAe?$AA?5?$AAc?$AAo?$AAd?$AAe?$AA?5?$AA2@
CONST	SEGMENT
??_C@_1JE@CIIIAKCN@?$AAd?$AA?3?$AA?2?$AA?$CB?$AAd?$AAi?$AAf?$AAf?$AAu?$AAs?$AAi?$AAo?$AAn?$AA?5?$AA2?$AA0?$AA2?$AA0?$AA?2?$AAs?$AAo?$AAu?$AAr?$AAc?$AAe?$AA?5?$AAc?$AAo?$AAd?$AAe?$AA?5?$AA2@ DB 'd'
	DB	00H, ':', 00H, '\', 00H, '!', 00H, 'd', 00H, 'i', 00H, 'f', 00H
	DB	'f', 00H, 'u', 00H, 's', 00H, 'i', 00H, 'o', 00H, 'n', 00H, ' '
	DB	00H, '2', 00H, '0', 00H, '2', 00H, '0', 00H, '\', 00H, 's', 00H
	DB	'o', 00H, 'u', 00H, 'r', 00H, 'c', 00H, 'e', 00H, ' ', 00H, 'c'
	DB	00H, 'o', 00H, 'd', 00H, 'e', 00H, ' ', 00H, '2', 00H, '0', 00H
	DB	'2', 00H, '2', 00H, '\', 00H, 'c', 00H, 'l', 00H, 'i', 00H, 'e'
	DB	00H, 'n', 00H, 't', 00H, '-', 00H, 's', 00H, 'e', 00H, 'r', 00H
	DB	'v', 00H, 'e', 00H, 'r', 00H, '\', 00H, 'g', 00H, 'a', 00H, 'm'
	DB	00H, 'e', 00H, '_', 00H, 's', 00H, 'h', 00H, 'a', 00H, 'r', 00H
	DB	'e', 00H, 'd', 00H, '\', 00H, 'u', 00H, 't', 00H, 'l', 00H, 'm'
	DB	00H, 'e', 00H, 'm', 00H, 'o', 00H, 'r', 00H, 'y', 00H, '.', 00H
	DB	'h', 00H, 00H, 00H				; `string'
CONST	ENDS
;	COMDAT ??_C@_1IK@DGJDJNN@?$AA?$CI?$AAB?$AAa?$AAs?$AAe?$AA?$CI?$AA?$CJ?$AA?5?$AA?$DN?$AA?$DN?$AA?5?$AAN?$AAU?$AAL?$AAL?$AA?$CJ?$AA?5?$AA?$HM?$AA?$HM?$AA?5?$AA?$CI?$AA?$CG?$AAs?$AAr?$AAc?$AA?5?$AA?$DM?$AA?5?$AAB?$AAa?$AAs?$AAe@
CONST	SEGMENT
??_C@_1IK@DGJDJNN@?$AA?$CI?$AAB?$AAa?$AAs?$AAe?$AA?$CI?$AA?$CJ?$AA?5?$AA?$DN?$AA?$DN?$AA?5?$AAN?$AAU?$AAL?$AAL?$AA?$CJ?$AA?5?$AA?$HM?$AA?$HM?$AA?5?$AA?$CI?$AA?$CG?$AAs?$AAr?$AAc?$AA?5?$AA?$DM?$AA?5?$AAB?$AAa?$AAs?$AAe@ DB '('
	DB	00H, 'B', 00H, 'a', 00H, 's', 00H, 'e', 00H, '(', 00H, ')', 00H
	DB	' ', 00H, '=', 00H, '=', 00H, ' ', 00H, 'N', 00H, 'U', 00H, 'L'
	DB	00H, 'L', 00H, ')', 00H, ' ', 00H, '|', 00H, '|', 00H, ' ', 00H
	DB	'(', 00H, '&', 00H, 's', 00H, 'r', 00H, 'c', 00H, ' ', 00H, '<'
	DB	00H, ' ', 00H, 'B', 00H, 'a', 00H, 's', 00H, 'e', 00H, '(', 00H
	DB	')', 00H, ')', 00H, ' ', 00H, '|', 00H, '|', 00H, ' ', 00H, '('
	DB	00H, '&', 00H, 's', 00H, 'r', 00H, 'c', 00H, ' ', 00H, '>', 00H
	DB	'=', 00H, ' ', 00H, '(', 00H, 'B', 00H, 'a', 00H, 's', 00H, 'e'
	DB	00H, '(', 00H, ')', 00H, ' ', 00H, '+', 00H, ' ', 00H, 'C', 00H
	DB	'o', 00H, 'u', 00H, 'n', 00H, 't', 00H, '(', 00H, ')', 00H, ')'
	DB	00H, ' ', 00H, ')', 00H, 00H, 00H		; `string'
CONST	ENDS
;	COMDAT ??_C@_1JC@EMNIBBBG@?$AAd?$AA?3?$AA?2?$AA?$CB?$AAd?$AAi?$AAf?$AAf?$AAu?$AAs?$AAi?$AAo?$AAn?$AA?5?$AA2?$AA0?$AA2?$AA0?$AA?2?$AAs?$AAo?$AAu?$AAr?$AAc?$AAe?$AA?5?$AAc?$AAo?$AAd?$AAe?$AA?5?$AA2@
CONST	SEGMENT
??_C@_1JC@EMNIBBBG@?$AAd?$AA?3?$AA?2?$AA?$CB?$AAd?$AAi?$AAf?$AAf?$AAu?$AAs?$AAi?$AAo?$AAn?$AA?5?$AA2?$AA0?$AA2?$AA0?$AA?2?$AAs?$AAo?$AAu?$AAr?$AAc?$AAe?$AA?5?$AAc?$AAo?$AAd?$AAe?$AA?5?$AA2@ DB 'd'
	DB	00H, ':', 00H, '\', 00H, '!', 00H, 'd', 00H, 'i', 00H, 'f', 00H
	DB	'f', 00H, 'u', 00H, 's', 00H, 'i', 00H, 'o', 00H, 'n', 00H, ' '
	DB	00H, '2', 00H, '0', 00H, '2', 00H, '0', 00H, '\', 00H, 's', 00H
	DB	'o', 00H, 'u', 00H, 'r', 00H, 'c', 00H, 'e', 00H, ' ', 00H, 'c'
	DB	00H, 'o', 00H, 'd', 00H, 'e', 00H, ' ', 00H, '2', 00H, '0', 00H
	DB	'2', 00H, '2', 00H, '\', 00H, 'c', 00H, 'l', 00H, 'i', 00H, 'e'
	DB	00H, 'n', 00H, 't', 00H, '-', 00H, 's', 00H, 'e', 00H, 'r', 00H
	DB	'v', 00H, 'e', 00H, 'r', 00H, '\', 00H, 'g', 00H, 'a', 00H, 'm'
	DB	00H, 'e', 00H, '_', 00H, 's', 00H, 'h', 00H, 'a', 00H, 'r', 00H
	DB	'e', 00H, 'd', 00H, '\', 00H, 'u', 00H, 't', 00H, 'l', 00H, 'a'
	DB	00H, 'r', 00H, 'r', 00H, 'a', 00H, 'y', 00H, '.', 00H, 'h', 00H
	DB	00H, 00H					; `string'
CONST	ENDS
;	COMDAT ??_C@_06JLDPCOLD@music?6?$AA@
CONST	SEGMENT
??_C@_06JLDPCOLD@music?6?$AA@ DB 'music', 0aH, 00H	; `string'
CONST	ENDS
;	COMDAT ??_C@_0M@DKCMEMFI@music?5?$CC?$CFs?$CC?6?$AA@
CONST	SEGMENT
??_C@_0M@DKCMEMFI@music?5?$CC?$CFs?$CC?6?$AA@ DB 'music "%s"', 0aH, 00H ; `string'
CONST	ENDS
;	COMDAT ??_C@_0BB@FNHLBFJP@music?5?$CC?$CFs?$CC?5?$CC?$CFs?$CC?6?$AA@
CONST	SEGMENT
??_C@_0BB@FNHLBFJP@music?5?$CC?$CFs?$CC?5?$CC?$CFs?$CC?6?$AA@ DB 'music "'
	DB	'%s" "%s"', 0aH, 00H				; `string'
CONST	ENDS
;	COMDAT ??_C@_08BPPHHMFC@fadetime?$AA@
CONST	SEGMENT
??_C@_08BPPHHMFC@fadetime?$AA@ DB 'fadetime', 00H	; `string'
CONST	ENDS
;	COMDAT ??_C@_0P@EOMCAGLL@m_iszMainTrack?$AA@
CONST	SEGMENT
??_C@_0P@EOMCAGLL@m_iszMainTrack?$AA@ DB 'm_iszMainTrack', 00H ; `string'
CONST	ENDS
;	COMDAT ??_C@_0BA@BFHGNAMB@m_iszIntroTrack?$AA@
CONST	SEGMENT
??_C@_0BA@BFHGNAMB@m_iszIntroTrack?$AA@ DB 'm_iszIntroTrack', 00H ; `string'
CONST	ENDS
;	COMDAT ??_C@_0O@DCFFCPNJ@ambient_music?$AA@
CONST	SEGMENT
??_C@_0O@DCFFCPNJ@ambient_music?$AA@ DB 'ambient_music', 00H ; `string'
CONST	ENDS
;	COMDAT ??_7?$CEntityFactory@VCAmbientMusic@@@@6B@
CONST	SEGMENT
??_7?$CEntityFactory@VCAmbientMusic@@@@6B@ DD FLAT:??_R4?$CEntityFactory@VCAmbientMusic@@@@6B@ ; CEntityFactory<CAmbientMusic>::`vftable'
	DD	FLAT:?Create@?$CEntityFactory@VCAmbientMusic@@@@UAEPAVCBaseEntity@@PBDPAUentvars_s@@@Z
	DD	FLAT:?Destroy@?$CEntityFactory@VCAmbientMusic@@@@UAEXPAVCBaseEntity@@@Z
	DD	FLAT:?GetEntitySize@?$CEntityFactory@VCAmbientMusic@@@@UAEIXZ
CONST	ENDS
;	COMDAT ??_7CAmbientMusic@@6B@
CONST	SEGMENT
??_7CAmbientMusic@@6B@ DD FLAT:??_R4CAmbientMusic@@6B@	; CAmbientMusic::`vftable'
	DD	FLAT:?GetDataDescMap@CBaseDelay@@UAEPAUdatamap_s@@XZ
	DD	FLAT:?Spawn@CAmbientMusic@@UAEXXZ
	DD	FLAT:?Precache@CBaseEntity@@UAEXXZ
	DD	FLAT:?KeyValue@CAmbientMusic@@UAEXPAUKeyValueData_s@@@Z
	DD	FLAT:?Save@CBaseEntity@@UAEHAAVCSave@@@Z
	DD	FLAT:?Restore@CBaseEntity@@UAEHAAVCRestore@@@Z
	DD	FLAT:?ObjectCaps@CBaseEntity@@UAEHXZ
	DD	FLAT:?Activate@CBaseEntity@@UAEXXZ
	DD	FLAT:?OnChangeLevel@CBaseEntity@@UAEXXZ
	DD	FLAT:?OnTeleport@CBaseEntity@@UAEXXZ
	DD	FLAT:?PortalSleep@CBaseEntity@@UAEXM@Z
	DD	FLAT:?StartMessage@CAmbientMusic@@UAEXPAVCBasePlayer@@@Z
	DD	FLAT:?GetPosition@CBaseEntity@@UAEMXZ
	DD	FLAT:?OnChangeParent@CBaseEntity@@UAEXXZ
	DD	FLAT:?OnClearParent@CBaseEntity@@UAEXXZ
	DD	FLAT:?OnRemove@CBaseEntity@@UAEXXZ
	DD	FLAT:?SetObjectCollisionBox@CBaseEntity@@UAEXXZ
	DD	FLAT:?Classify@CBaseEntity@@UAEHXZ
	DD	FLAT:?DeathNotice@CBaseEntity@@UAEXPAUentvars_s@@@Z
	DD	FLAT:?IsRigidBody@CBaseEntity@@UAEHXZ
	DD	FLAT:?SetNextThink@CBaseEntity@@UAEXM@Z
	DD	FLAT:?GetState@CBaseEntity@@UAE?AW4STATE@@PAV1@@Z
	DD	FLAT:?GetState@CAmbientMusic@@UAE?AW4STATE@@XZ
	DD	FLAT:?TraceAttack@CBaseEntity@@UAEXPAUentvars_s@@MVVector@@PAUgametrace_s@@H@Z
	DD	FLAT:?TakeDamage@CBaseEntity@@UAEHPAUentvars_s@@0MH@Z
	DD	FLAT:?TakeHealth@CBaseEntity@@UAEHMH@Z
	DD	FLAT:?TakeArmor@CBaseEntity@@UAEHMH@Z
	DD	FLAT:?Killed@CBaseEntity@@UAEXPAUentvars_s@@H@Z
	DD	FLAT:?BloodColor@CBaseEntity@@UAEHXZ
	DD	FLAT:?TraceBleed@CBaseEntity@@UAEXMVVector@@PAUgametrace_s@@H@Z
	DD	FLAT:?IsTriggered@CBaseEntity@@UAEHPAV1@@Z
	DD	FLAT:?MyMonsterPointer@CBaseEntity@@UAEPAVCBaseMonster@@XZ
	DD	FLAT:?MySquadMonsterPointer@CBaseEntity@@UAEPAVCSquadMonster@@XZ
	DD	FLAT:?GetToggleState@CBaseEntity@@UAEHXZ
	DD	FLAT:?AddPoints@CBaseEntity@@UAEXHH@Z
	DD	FLAT:?AddPointsToTeam@CBaseEntity@@UAEXHH@Z
	DD	FLAT:?AddPlayerItem@CBaseEntity@@UAEHPAVCBasePlayerItem@@@Z
	DD	FLAT:?RemovePlayerItem@CBaseEntity@@UAEHPAVCBasePlayerItem@@@Z
	DD	FLAT:?GiveAmmo@CBaseEntity@@UAEHHPADH@Z
	DD	FLAT:?GetDelay@CBaseEntity@@UAEMXZ
	DD	FLAT:?IsMoving@CBaseEntity@@UAEHXZ
	DD	FLAT:?OverrideReset@CBaseEntity@@UAEXXZ
	DD	FLAT:?TransferReset@CBaseEntity@@UAEXXZ
	DD	FLAT:?DamageDecal@CBaseEntity@@UAEHH@Z
	DD	FLAT:?SetToggleState@CBaseEntity@@UAEXH@Z
	DD	FLAT:?StartSneaking@CBaseEntity@@UAEXXZ
	DD	FLAT:?StopSneaking@CBaseEntity@@UAEXXZ
	DD	FLAT:?OnControls@CBaseEntity@@UAEHPAV1@@Z
	DD	FLAT:?IsSneaking@CBaseEntity@@UAEHXZ
	DD	FLAT:?IsAlive@CBaseEntity@@UAEHXZ
	DD	FLAT:?IsBSPModel@CBaseEntity@@UAEHXZ
	DD	FLAT:?IsCustomModel@CBaseEntity@@UAEHXZ
	DD	FLAT:?ReflectGauss@CBaseEntity@@UAEHXZ
	DD	FLAT:?HasTarget@CBaseEntity@@UAEHH@Z
	DD	FLAT:?IsInWorld@CBaseEntity@@UAEHH@Z
	DD	FLAT:?IsPlayer@CBaseEntity@@UAEHXZ
	DD	FLAT:?IsNetClient@CBaseEntity@@UAEHXZ
	DD	FLAT:?IsMonster@CBaseEntity@@UAEHXZ
	DD	FLAT:?IsPushable@CBaseEntity@@UAEHXZ
	DD	FLAT:?IsProjectile@CBaseEntity@@UAEHXZ
	DD	FLAT:?IsFuncScreen@CBaseEntity@@UAEHXZ
	DD	FLAT:?IsPortal@CBaseEntity@@UAEHXZ
	DD	FLAT:?IsTank@CBaseEntity@@UAEHXZ
	DD	FLAT:?IsMover@CBaseEntity@@UAEHXZ
	DD	FLAT:?IsBreakable@CBaseEntity@@UAEHXZ
	DD	FLAT:?TeamID@CBaseEntity@@UAEPBDXZ
	DD	FLAT:?AddSpawnFlags@CBaseEntity@@UAEXH@Z
	DD	FLAT:?HasSpawnFlags@CBaseEntity@@UBE_NH@Z
	DD	FLAT:?SetFadeDistance@CBaseEntity@@UAEXH@Z
	DD	FLAT:?SetFlag@CBaseEntity@@UAEXH@Z
	DD	FLAT:?HasFlag@CBaseEntity@@UBE_NH@Z
	DD	FLAT:?RemoveFlag@CBaseEntity@@UAEXH@Z
	DD	FLAT:?SetNullModel@CBaseEntity@@UAEXXZ
	DD	FLAT:?OnPickupObject@CBaseEntity@@UAEXXZ
	DD	FLAT:?OnDropObject@CBaseEntity@@UAEXXZ
	DD	FLAT:?GetNextTarget@CBaseEntity@@UAEPAV1@XZ
	DD	FLAT:?Think@CAmbientMusic@@UAEXXZ
	DD	FLAT:?Use@CAmbientMusic@@UAEXPAVCBaseEntity@@0W4USE_TYPE@@M@Z
	DD	FLAT:?Touch@CBaseEntity@@UAEXPAV1@@Z
	DD	FLAT:?Blocked@CBaseEntity@@UAEXPAV1@@Z
	DD	FLAT:?MoveDone@CBaseEntity@@UAEXXZ
	DD	FLAT:?Respawn@CBaseEntity@@UAEPAV1@XZ
	DD	FLAT:?UpdateOwner@CBaseEntity@@UAEXXZ
	DD	FLAT:?FBecomeProne@CBaseEntity@@UAEHXZ
	DD	FLAT:?Center@CBaseEntity@@UAE?AVVector@@XZ
	DD	FLAT:?EyePosition@CBaseEntity@@UAE?AVVector@@XZ
	DD	FLAT:?EarPosition@CBaseEntity@@UAE?AVVector@@XZ
	DD	FLAT:?BodyTarget@CBaseEntity@@UAE?AVVector@@ABV2@@Z
	DD	FLAT:?IsPointSized@CBaseEntity@@UBEHXZ
	DD	FLAT:?Illumination@CBaseEntity@@UAEHXZ
	DD	FLAT:?FVisible@CBaseEntity@@UAEHABVVector@@@Z
	DD	FLAT:?FVisible@CBaseEntity@@UAEHPAV1@@Z
	DD	FLAT:?ShouldCollide@CBaseEntity@@UAEHPAV1@@Z
	DD	FLAT:?ClearEffects@CBaseEntity@@UAEXXZ
CONST	ENDS
;	COMDAT ??_C@_0DN@IIPINGFH@Level?5Design?5Error?$CB?6SPEAKER?5has?5@
CONST	SEGMENT
??_C@_0DN@IIPINGFH@Level?5Design?5Error?$CB?6SPEAKER?5has?5@ DB 'Level De'
	DB	'sign Error!', 0aH, 'SPEAKER has bad sentence group name: %s', 0aH
	DB	00H						; `string'
CONST	ENDS
;	COMDAT ??_C@_05BIBEKLPF@C3A2_?$AA@
CONST	SEGMENT
??_C@_05BIBEKLPF@C3A2_?$AA@ DB 'C3A2_', 00H		; `string'
CONST	ENDS
;	COMDAT ??_C@_05BKFCBFKM@C3A1_?$AA@
CONST	SEGMENT
??_C@_05BKFCBFKM@C3A1_?$AA@ DB 'C3A1_', 00H		; `string'
CONST	ENDS
;	COMDAT ??_C@_05CADLJEMA@C2A5_?$AA@
CONST	SEGMENT
??_C@_05CADLJEMA@C2A5_?$AA@ DB 'C2A5_', 00H		; `string'
CONST	ENDS
;	COMDAT ??_C@_05CBPJPOPH@C2A4_?$AA@
CONST	SEGMENT
??_C@_05CBPJPOPH@C2A4_?$AA@ DB 'C2A4_', 00H		; `string'
CONST	ENDS
;	COMDAT ??_C@_05CELGOIHC@C2A3_?$AA@
CONST	SEGMENT
??_C@_05CELGOIHC@C2A3_?$AA@ DB 'C2A3_', 00H		; `string'
CONST	ENDS
;	COMDAT ??_C@_05CFHEICEF@C2A2_?$AA@
CONST	SEGMENT
??_C@_05CFHEICEF@C2A2_?$AA@ DB 'C2A2_', 00H		; `string'
CONST	ENDS
;	COMDAT ??_C@_05CHDCDMBM@C2A1_?$AA@
CONST	SEGMENT
??_C@_05CHDCDMBM@C2A1_?$AA@ DB 'C2A1_', 00H		; `string'
CONST	ENDS
;	COMDAT ??_C@_05GGFJIECH@C1A4_?$AA@
CONST	SEGMENT
??_C@_05GGFJIECH@C1A4_?$AA@ DB 'C1A4_', 00H		; `string'
CONST	ENDS
;	COMDAT ??_C@_05GDBGJCKC@C1A3_?$AA@
CONST	SEGMENT
??_C@_05GDBGJCKC@C1A3_?$AA@ DB 'C1A3_', 00H		; `string'
CONST	ENDS
;	COMDAT ??_C@_05GCNEPIJF@C1A2_?$AA@
CONST	SEGMENT
??_C@_05GCNEPIJF@C1A2_?$AA@ DB 'C1A2_', 00H		; `string'
CONST	ENDS
;	COMDAT ??_C@_05GAJCEGMM@C1A1_?$AA@
CONST	SEGMENT
??_C@_05GAJCEGMM@C1A1_?$AA@ DB 'C1A1_', 00H		; `string'
CONST	ENDS
;	COMDAT ??_C@_05GBFACMPL@C1A0_?$AA@
CONST	SEGMENT
??_C@_05GBFACMPL@C1A0_?$AA@ DB 'C1A0_', 00H		; `string'
CONST	ENDS
;	COMDAT ??_C@_0BF@CAJOKBGD@?$CGCSpeaker?3?3ToggleUse?$AA@
CONST	SEGMENT
??_C@_0BF@CAJOKBGD@?$CGCSpeaker?3?3ToggleUse?$AA@ DB '&CSpeaker::ToggleUs'
	DB	'e', 00H					; `string'
CONST	ENDS
;	COMDAT ??_C@_0BI@LCJLIMMK@?$CGCSpeaker?3?3SpeakerThink?$AA@
CONST	SEGMENT
??_C@_0BI@LCJLIMMK@?$CGCSpeaker?3?3SpeakerThink?$AA@ DB '&CSpeaker::Speak'
	DB	'erThink', 00H				; `string'
CONST	ENDS
;	COMDAT ??_C@_0DA@IIMJMCCG@SPEAKER?5with?5no?5Level?1Sentence?$CB?5@
CONST	SEGMENT
??_C@_0DA@IIMJMCCG@SPEAKER?5with?5no?5Level?1Sentence?$CB?5@ DB 'SPEAKER '
	DB	'with no Level/Sentence! at: %f, %f, %f', 0aH, 00H ; `string'
CONST	ENDS
;	COMDAT ??_C@_0N@PONONMAE@SpeakerThink?$AA@
CONST	SEGMENT
??_C@_0N@PONONMAE@SpeakerThink?$AA@ DB 'SpeakerThink', 00H ; `string'
CONST	ENDS
;	COMDAT ??_C@_07BHDDMEGH@speaker?$AA@
CONST	SEGMENT
??_C@_07BHDDMEGH@speaker?$AA@ DB 'speaker', 00H		; `string'
CONST	ENDS
;	COMDAT ??_7?$CEntityFactory@VCSpeaker@@@@6B@
CONST	SEGMENT
??_7?$CEntityFactory@VCSpeaker@@@@6B@ DD FLAT:??_R4?$CEntityFactory@VCSpeaker@@@@6B@ ; CEntityFactory<CSpeaker>::`vftable'
	DD	FLAT:?Create@?$CEntityFactory@VCSpeaker@@@@UAEPAVCBaseEntity@@PBDPAUentvars_s@@@Z
	DD	FLAT:?Destroy@?$CEntityFactory@VCSpeaker@@@@UAEXPAVCBaseEntity@@@Z
	DD	FLAT:?GetEntitySize@?$CEntityFactory@VCSpeaker@@@@UAEIXZ
CONST	ENDS
;	COMDAT ??_7CSpeaker@@6B@
CONST	SEGMENT
??_7CSpeaker@@6B@ DD FLAT:??_R4CSpeaker@@6B@		; CSpeaker::`vftable'
	DD	FLAT:?GetDataDescMap@CSpeaker@@UAEPAUdatamap_s@@XZ
	DD	FLAT:?Spawn@CSpeaker@@UAEXXZ
	DD	FLAT:?Precache@CSpeaker@@UAEXXZ
	DD	FLAT:?KeyValue@CSpeaker@@UAEXPAUKeyValueData_s@@@Z
	DD	FLAT:?Save@CBaseEntity@@UAEHAAVCSave@@@Z
	DD	FLAT:?Restore@CBaseEntity@@UAEHAAVCRestore@@@Z
	DD	FLAT:?ObjectCaps@CSpeaker@@UAEHXZ
	DD	FLAT:?Activate@CBaseEntity@@UAEXXZ
	DD	FLAT:?OnChangeLevel@CBaseEntity@@UAEXXZ
	DD	FLAT:?OnTeleport@CBaseEntity@@UAEXXZ
	DD	FLAT:?PortalSleep@CBaseEntity@@UAEXM@Z
	DD	FLAT:?StartMessage@CBaseEntity@@UAEXPAVCBasePlayer@@@Z
	DD	FLAT:?GetPosition@CBaseEntity@@UAEMXZ
	DD	FLAT:?OnChangeParent@CBaseEntity@@UAEXXZ
	DD	FLAT:?OnClearParent@CBaseEntity@@UAEXXZ
	DD	FLAT:?OnRemove@CBaseEntity@@UAEXXZ
	DD	FLAT:?SetObjectCollisionBox@CBaseEntity@@UAEXXZ
	DD	FLAT:?Classify@CBaseEntity@@UAEHXZ
	DD	FLAT:?DeathNotice@CBaseEntity@@UAEXPAUentvars_s@@@Z
	DD	FLAT:?IsRigidBody@CBaseEntity@@UAEHXZ
	DD	FLAT:?SetNextThink@CBaseEntity@@UAEXM@Z
	DD	FLAT:?GetState@CBaseEntity@@UAE?AW4STATE@@PAV1@@Z
	DD	FLAT:?GetState@CBaseEntity@@UAE?AW4STATE@@XZ
	DD	FLAT:?TraceAttack@CBaseEntity@@UAEXPAUentvars_s@@MVVector@@PAUgametrace_s@@H@Z
	DD	FLAT:?TakeDamage@CBaseEntity@@UAEHPAUentvars_s@@0MH@Z
	DD	FLAT:?TakeHealth@CBaseEntity@@UAEHMH@Z
	DD	FLAT:?TakeArmor@CBaseEntity@@UAEHMH@Z
	DD	FLAT:?Killed@CBaseEntity@@UAEXPAUentvars_s@@H@Z
	DD	FLAT:?BloodColor@CBaseEntity@@UAEHXZ
	DD	FLAT:?TraceBleed@CBaseEntity@@UAEXMVVector@@PAUgametrace_s@@H@Z
	DD	FLAT:?IsTriggered@CBaseEntity@@UAEHPAV1@@Z
	DD	FLAT:?MyMonsterPointer@CBaseEntity@@UAEPAVCBaseMonster@@XZ
	DD	FLAT:?MySquadMonsterPointer@CBaseEntity@@UAEPAVCSquadMonster@@XZ
	DD	FLAT:?GetToggleState@CBaseEntity@@UAEHXZ
	DD	FLAT:?AddPoints@CBaseEntity@@UAEXHH@Z
	DD	FLAT:?AddPointsToTeam@CBaseEntity@@UAEXHH@Z
	DD	FLAT:?AddPlayerItem@CBaseEntity@@UAEHPAVCBasePlayerItem@@@Z
	DD	FLAT:?RemovePlayerItem@CBaseEntity@@UAEHPAVCBasePlayerItem@@@Z
	DD	FLAT:?GiveAmmo@CBaseEntity@@UAEHHPADH@Z
	DD	FLAT:?GetDelay@CBaseEntity@@UAEMXZ
	DD	FLAT:?IsMoving@CBaseEntity@@UAEHXZ
	DD	FLAT:?OverrideReset@CBaseEntity@@UAEXXZ
	DD	FLAT:?TransferReset@CBaseEntity@@UAEXXZ
	DD	FLAT:?DamageDecal@CBaseEntity@@UAEHH@Z
	DD	FLAT:?SetToggleState@CBaseEntity@@UAEXH@Z
	DD	FLAT:?StartSneaking@CBaseEntity@@UAEXXZ
	DD	FLAT:?StopSneaking@CBaseEntity@@UAEXXZ
	DD	FLAT:?OnControls@CBaseEntity@@UAEHPAV1@@Z
	DD	FLAT:?IsSneaking@CBaseEntity@@UAEHXZ
	DD	FLAT:?IsAlive@CBaseEntity@@UAEHXZ
	DD	FLAT:?IsBSPModel@CBaseEntity@@UAEHXZ
	DD	FLAT:?IsCustomModel@CBaseEntity@@UAEHXZ
	DD	FLAT:?ReflectGauss@CBaseEntity@@UAEHXZ
	DD	FLAT:?HasTarget@CBaseEntity@@UAEHH@Z
	DD	FLAT:?IsInWorld@CBaseEntity@@UAEHH@Z
	DD	FLAT:?IsPlayer@CBaseEntity@@UAEHXZ
	DD	FLAT:?IsNetClient@CBaseEntity@@UAEHXZ
	DD	FLAT:?IsMonster@CBaseEntity@@UAEHXZ
	DD	FLAT:?IsPushable@CBaseEntity@@UAEHXZ
	DD	FLAT:?IsProjectile@CBaseEntity@@UAEHXZ
	DD	FLAT:?IsFuncScreen@CBaseEntity@@UAEHXZ
	DD	FLAT:?IsPortal@CBaseEntity@@UAEHXZ
	DD	FLAT:?IsTank@CBaseEntity@@UAEHXZ
	DD	FLAT:?IsMover@CBaseEntity@@UAEHXZ
	DD	FLAT:?IsBreakable@CBaseEntity@@UAEHXZ
	DD	FLAT:?TeamID@CBaseEntity@@UAEPBDXZ
	DD	FLAT:?AddSpawnFlags@CBaseEntity@@UAEXH@Z
	DD	FLAT:?HasSpawnFlags@CBaseEntity@@UBE_NH@Z
	DD	FLAT:?SetFadeDistance@CBaseEntity@@UAEXH@Z
	DD	FLAT:?SetFlag@CBaseEntity@@UAEXH@Z
	DD	FLAT:?HasFlag@CBaseEntity@@UBE_NH@Z
	DD	FLAT:?RemoveFlag@CBaseEntity@@UAEXH@Z
	DD	FLAT:?SetNullModel@CBaseEntity@@UAEXXZ
	DD	FLAT:?OnPickupObject@CBaseEntity@@UAEXXZ
	DD	FLAT:?OnDropObject@CBaseEntity@@UAEXXZ
	DD	FLAT:?GetNextTarget@CBaseEntity@@UAEPAV1@XZ
	DD	FLAT:?Think@CBaseEntity@@UAEXXZ
	DD	FLAT:?Use@CBaseEntity@@UAEXPAV1@0W4USE_TYPE@@M@Z
	DD	FLAT:?Touch@CBaseEntity@@UAEXPAV1@@Z
	DD	FLAT:?Blocked@CBaseEntity@@UAEXPAV1@@Z
	DD	FLAT:?MoveDone@CBaseEntity@@UAEXXZ
	DD	FLAT:?Respawn@CBaseEntity@@UAEPAV1@XZ
	DD	FLAT:?UpdateOwner@CBaseEntity@@UAEXXZ
	DD	FLAT:?FBecomeProne@CBaseEntity@@UAEHXZ
	DD	FLAT:?Center@CBaseEntity@@UAE?AVVector@@XZ
	DD	FLAT:?EyePosition@CBaseEntity@@UAE?AVVector@@XZ
	DD	FLAT:?EarPosition@CBaseEntity@@UAE?AVVector@@XZ
	DD	FLAT:?BodyTarget@CBaseEntity@@UAE?AVVector@@ABV2@@Z
	DD	FLAT:?IsPointSized@CBaseEntity@@UBEHXZ
	DD	FLAT:?Illumination@CBaseEntity@@UAEHXZ
	DD	FLAT:?FVisible@CBaseEntity@@UAEHABVVector@@@Z
	DD	FLAT:?FVisible@CBaseEntity@@UAEHPAV1@@Z
	DD	FLAT:?ShouldCollide@CBaseEntity@@UAEHPAV1@@Z
	DD	FLAT:?ClearEffects@CBaseEntity@@UAEXXZ
CONST	ENDS
;	COMDAT ??_C@_0O@KBANPHDH@hits?1ric5?4wav?$AA@
CONST	SEGMENT
??_C@_0O@KBANPHDH@hits?1ric5?4wav?$AA@ DB 'hits/ric5.wav', 00H ; `string'
CONST	ENDS
;	COMDAT ??_C@_0O@GKFBCEJC@hits?1ric4?4wav?$AA@
CONST	SEGMENT
??_C@_0O@GKFBCEJC@hits?1ric4?4wav?$AA@ DB 'hits/ric4.wav', 00H ; `string'
CONST	ENDS
;	COMDAT ??_C@_0O@HHFEBECK@hits?1ric3?4wav?$AA@
CONST	SEGMENT
??_C@_0O@HHFEBECK@hits?1ric3?4wav?$AA@ DB 'hits/ric3.wav', 00H ; `string'
CONST	ENDS
;	COMDAT ??_C@_0O@LMAIMHIP@hits?1ric2?4wav?$AA@
CONST	SEGMENT
??_C@_0O@LMAIMHIP@hits?1ric2?4wav?$AA@ DB 'hits/ric2.wav', 00H ; `string'
CONST	ENDS
;	COMDAT ??_C@_0O@DKJMLFCB@hits?1ric1?4wav?$AA@
CONST	SEGMENT
??_C@_0O@DKJMLFCB@hits?1ric1?4wav?$AA@ DB 'hits/ric1.wav', 00H ; `string'
CONST	ENDS
;	COMDAT ??_C@_0BD@OAMCHJCM@buttons?1spark6?4wav?$AA@
CONST	SEGMENT
??_C@_0BD@OAMCHJCM@buttons?1spark6?4wav?$AA@ DB 'buttons/spark6.wav', 00H ; `string'
CONST	ENDS
;	COMDAT ??_C@_0BD@GGFGALIC@buttons?1spark5?4wav?$AA@
CONST	SEGMENT
??_C@_0BD@GGFGALIC@buttons?1spark5?4wav?$AA@ DB 'buttons/spark5.wav', 00H ; `string'
CONST	ENDS
;	COMDAT ??_C@_0P@NGDPBEAP@func_breakable?$AA@
CONST	SEGMENT
??_C@_0P@NGDPBEAP@func_breakable?$AA@ DB 'func_breakable', 00H ; `string'
CONST	ENDS
;	COMDAT ??_C@_0BH@CNLHGOLI@weapons?1cbar_miss1?4wav?$AA@
CONST	SEGMENT
??_C@_0BH@CNLHGOLI@weapons?1cbar_miss1?4wav?$AA@ DB 'weapons/cbar_miss1.w'
	DB	'av', 00H					; `string'
CONST	ENDS
;	COMDAT ??_C@_0BI@ICHLCGHM@weapons?1bullet_hit2?4wav?$AA@
CONST	SEGMENT
??_C@_0BI@ICHLCGHM@weapons?1bullet_hit2?4wav?$AA@ DB 'weapons/bullet_hit2'
	DB	'.wav', 00H					; `string'
CONST	ENDS
;	COMDAT ??_C@_0BI@EOPFENC@weapons?1bullet_hit1?4wav?$AA@
CONST	SEGMENT
??_C@_0BI@EOPFENC@weapons?1bullet_hit1?4wav?$AA@ DB 'weapons/bullet_hit1.'
	DB	'wav', 00H					; `string'
CONST	ENDS
;	COMDAT ??_C@_0BJ@CBKDCLCA@weapons?1cbar_hitbod3?4wav?$AA@
CONST	SEGMENT
??_C@_0BJ@CBKDCLCA@weapons?1cbar_hitbod3?4wav?$AA@ DB 'weapons/cbar_hitbo'
	DB	'd3.wav', 00H				; `string'
CONST	ENDS
;	COMDAT ??_C@_0BJ@OKPPPIIF@weapons?1cbar_hitbod2?4wav?$AA@
CONST	SEGMENT
??_C@_0BJ@OKPPPIIF@weapons?1cbar_hitbod2?4wav?$AA@ DB 'weapons/cbar_hitbo'
	DB	'd2.wav', 00H				; `string'
CONST	ENDS
;	COMDAT ??_C@_0BJ@GMGLIKCL@weapons?1cbar_hitbod1?4wav?$AA@
CONST	SEGMENT
??_C@_0BJ@GMGLIKCL@weapons?1cbar_hitbod1?4wav?$AA@ DB 'weapons/cbar_hitbo'
	DB	'd1.wav', 00H				; `string'
CONST	ENDS
;	COMDAT ??_C@_0BA@NCPDABII@hits?1glass4?4wav?$AA@
CONST	SEGMENT
??_C@_0BA@NCPDABII@hits?1glass4?4wav?$AA@ DB 'hits/glass4.wav', 00H ; `string'
CONST	ENDS
;	COMDAT ??_C@_0BA@MPPGDBDA@hits?1glass3?4wav?$AA@
CONST	SEGMENT
??_C@_0BA@MPPGDBDA@hits?1glass3?4wav?$AA@ DB 'hits/glass3.wav', 00H ; `string'
CONST	ENDS
;	COMDAT ??_C@_0BA@EKKOCJF@hits?1glass2?4wav?$AA@
CONST	SEGMENT
??_C@_0BA@EKKOCJF@hits?1glass2?4wav?$AA@ DB 'hits/glass2.wav', 00H ; `string'
CONST	ENDS
;	COMDAT ??_C@_0BA@ICDOJADL@hits?1glass1?4wav?$AA@
CONST	SEGMENT
??_C@_0BA@ICDOJADL@hits?1glass1?4wav?$AA@ DB 'hits/glass1.wav', 00H ; `string'
CONST	ENDS
;	COMDAT ??_C@_0P@HNBCACPL@hits?1wood4?4wav?$AA@
CONST	SEGMENT
??_C@_0P@HNBCACPL@hits?1wood4?4wav?$AA@ DB 'hits/wood4.wav', 00H ; `string'
CONST	ENDS
;	COMDAT ??_C@_0P@GABHDCED@hits?1wood3?4wav?$AA@
CONST	SEGMENT
??_C@_0P@GABHDCED@hits?1wood3?4wav?$AA@ DB 'hits/wood3.wav', 00H ; `string'
CONST	ENDS
;	COMDAT ??_C@_0P@KLELOBOG@hits?1wood2?4wav?$AA@
CONST	SEGMENT
??_C@_0P@KLELOBOG@hits?1wood2?4wav?$AA@ DB 'hits/wood2.wav', 00H ; `string'
CONST	ENDS
;	COMDAT ??_C@_0P@CNNPJDEI@hits?1wood1?4wav?$AA@
CONST	SEGMENT
??_C@_0P@CNNPJDEI@hits?1wood1?4wav?$AA@ DB 'hits/wood1.wav', 00H ; `string'
CONST	ENDS
;	COMDAT ??_C@_0BF@MKFGNHII@footsteps?1slosh4?4wav?$AA@
CONST	SEGMENT
??_C@_0BF@MKFGNHII@footsteps?1slosh4?4wav?$AA@ DB 'footsteps/slosh4.wav', 00H ; `string'
CONST	ENDS
;	COMDAT ??_C@_0BF@BMAPDEJF@footsteps?1slosh2?4wav?$AA@
CONST	SEGMENT
??_C@_0BF@BMAPDEJF@footsteps?1slosh2?4wav?$AA@ DB 'footsteps/slosh2.wav', 00H ; `string'
CONST	ENDS
;	COMDAT ??_C@_0BF@NHFDOHDA@footsteps?1slosh3?4wav?$AA@
CONST	SEGMENT
??_C@_0BF@NHFDOHDA@footsteps?1slosh3?4wav?$AA@ DB 'footsteps/slosh3.wav', 00H ; `string'
CONST	ENDS
;	COMDAT ??_C@_0BF@JKJLEGDL@footsteps?1slosh1?4wav?$AA@
CONST	SEGMENT
??_C@_0BF@JKJLEGDL@footsteps?1slosh1?4wav?$AA@ DB 'footsteps/slosh1.wav', 00H ; `string'
CONST	ENDS
;	COMDAT ??_C@_0P@FPPEMJBG@hits?1dirt3?4wav?$AA@
CONST	SEGMENT
??_C@_0P@FPPEMJBG@hits?1dirt3?4wav?$AA@ DB 'hits/dirt3.wav', 00H ; `string'
CONST	ENDS
;	COMDAT ??_C@_0P@JEKIBKLD@hits?1dirt2?4wav?$AA@
CONST	SEGMENT
??_C@_0P@JEKIBKLD@hits?1dirt2?4wav?$AA@ DB 'hits/dirt2.wav', 00H ; `string'
CONST	ENDS
;	COMDAT ??_C@_0P@BCDMGIBN@hits?1dirt1?4wav?$AA@
CONST	SEGMENT
??_C@_0P@BCDMGIBN@hits?1dirt1?4wav?$AA@ DB 'hits/dirt1.wav', 00H ; `string'
CONST	ENDS
;	COMDAT ??_C@_0BA@IFBGKPIJ@hits?1metal4?4wav?$AA@
CONST	SEGMENT
??_C@_0BA@IFBGKPIJ@hits?1metal4?4wav?$AA@ DB 'hits/metal4.wav', 00H ; `string'
CONST	ENDS
;	COMDAT ??_C@_0BA@JIBDJPDB@hits?1metal3?4wav?$AA@
CONST	SEGMENT
??_C@_0BA@JIBDJPDB@hits?1metal3?4wav?$AA@ DB 'hits/metal3.wav', 00H ; `string'
CONST	ENDS
;	COMDAT ??_C@_0BA@FDEPEMJE@hits?1metal2?4wav?$AA@
CONST	SEGMENT
??_C@_0BA@FDEPEMJE@hits?1metal2?4wav?$AA@ DB 'hits/metal2.wav', 00H ; `string'
CONST	ENDS
;	COMDAT ??_C@_0BA@NFNLDODK@hits?1metal1?4wav?$AA@
CONST	SEGMENT
??_C@_0BA@NFNLDODK@hits?1metal1?4wav?$AA@ DB 'hits/metal1.wav', 00H ; `string'
CONST	ENDS
;	COMDAT ??_C@_0BD@IGHJMGIM@hits?1concrete4?4wav?$AA@
CONST	SEGMENT
??_C@_0BD@IGHJMGIM@hits?1concrete4?4wav?$AA@ DB 'hits/concrete4.wav', 00H ; `string'
CONST	ENDS
;	COMDAT ??_C@_0BD@JLHMPGDE@hits?1concrete3?4wav?$AA@
CONST	SEGMENT
??_C@_0BD@JLHMPGDE@hits?1concrete3?4wav?$AA@ DB 'hits/concrete3.wav', 00H ; `string'
CONST	ENDS
;	COMDAT ??_C@_0BD@FACACFJB@hits?1concrete2?4wav?$AA@
CONST	SEGMENT
??_C@_0BD@FACACFJB@hits?1concrete2?4wav?$AA@ DB 'hits/concrete2.wav', 00H ; `string'
CONST	ENDS
;	COMDAT ??_C@_0BD@NGLEFHDP@hits?1concrete1?4wav?$AA@
CONST	SEGMENT
??_C@_0BD@NGLEFHDP@hits?1concrete1?4wav?$AA@ DB 'hits/concrete1.wav', 00H ; `string'
CONST	ENDS
;	COMDAT ??_C@_0O@MDKCAHNO@monster_alice?$AA@
CONST	SEGMENT
??_C@_0O@MDKCAHNO@monster_alice?$AA@ DB 'monster_alice', 00H ; `string'
CONST	ENDS
;	COMDAT ??_C@_02CBLDBPFN@?1?1?$AA@
CONST	SEGMENT
??_C@_02CBLDBPFN@?1?1?$AA@ DB '//', 00H			; `string'
CONST	ENDS
;	COMDAT ??_C@_0BD@EJFPBDDL@data?1materials?4txt?$AA@
CONST	SEGMENT
??_C@_0BD@EJFPBDDL@data?1materials?4txt?$AA@ DB 'data/materials.txt', 00H ; `string'
CONST	ENDS
;	COMDAT ??_C@_0L@BFLOMJEF@suitvolume?$AA@
CONST	SEGMENT
??_C@_0L@BFLOMJEF@suitvolume?$AA@ DB 'suitvolume', 00H	; `string'
CONST	ENDS
;	COMDAT ??_C@_0CE@LFNOEBKB@Unable?5to?5find?5?$CFs?5in?5sentences?4t@
CONST	SEGMENT
??_C@_0CE@LFNOEBKB@Unable?5to?5find?5?$CFs?5in?5sentences?4t@ DB 'Unable '
	DB	'to find %s in sentences.txt', 0aH, 00H	; `string'
CONST	ENDS
;	COMDAT ??_C@_0CM@HHCLKDCI@Too?5many?5sentence?5groups?5in?5sent@
CONST	SEGMENT
??_C@_0CM@HHCLKDCI@Too?5many?5sentence?5groups?5in?5sent@ DB 'Too many se'
	DB	'ntence groups in sentences.txt!', 0aH, 00H	; `string'
CONST	ENDS
;	COMDAT ??_C@_0CE@OLECIHDE@Sentence?5?$CFs?5longer?5than?5?$CFd?5lette@
CONST	SEGMENT
??_C@_0CE@OLECIHDE@Sentence?5?$CFs?5longer?5than?5?$CFd?5lette@ DB 'Sente'
	DB	'nce %s longer than %d letters', 0aH, 00H	; `string'
CONST	ENDS
;	COMDAT ??_C@_0CG@HMGILMJN@Too?5many?5sentences?5in?5sentences?4@
CONST	SEGMENT
??_C@_0CG@HMGILMJN@Too?5many?5sentences?5in?5sentences?4@ DB 'Too many se'
	DB	'ntences in sentences.txt!', 0aH, 00H	; `string'
CONST	ENDS
;	COMDAT ??_C@_0BE@LOFIHEDB@sound?1sentences?4txt?$AA@
CONST	SEGMENT
??_C@_0BE@LOFIHEDB@sound?1sentences?4txt?$AA@ DB 'sound/sentences.txt', 00H ; `string'
CONST	ENDS
;	COMDAT ??_C@_0BL@PDIDECJC@No?5such?5sentence?5group?5?$CFs?6?$AA@
CONST	SEGMENT
??_C@_0BL@PDIDECJC@No?5such?5sentence?5group?5?$CFs?6?$AA@ DB 'No such se'
	DB	'ntence group %s', 0aH, 00H			; `string'
CONST	ENDS
;	COMDAT ??_C@_02DPKJAMEF@?$CFd?$AA@
CONST	SEGMENT
??_C@_02DPKJAMEF@?$CFd?$AA@ DB '%d', 00H		; `string'
CONST	ENDS
;	COMDAT ??_C@_01DCLJPIOD@?$CB?$AA@
CONST	SEGMENT
??_C@_01DCLJPIOD@?$CB?$AA@ DB '!', 00H			; `string'
CONST	ENDS
;	COMDAT ??_C@_0O@FMPBPFAO@trigger_sound?$AA@
CONST	SEGMENT
??_C@_0O@FMPBPFAO@trigger_sound?$AA@ DB 'trigger_sound', 00H ; `string'
CONST	ENDS
;	COMDAT ??_7?$CEntityFactory@VCTriggerSound@@@@6B@
CONST	SEGMENT
??_7?$CEntityFactory@VCTriggerSound@@@@6B@ DD FLAT:??_R4?$CEntityFactory@VCTriggerSound@@@@6B@ ; CEntityFactory<CTriggerSound>::`vftable'
	DD	FLAT:?Create@?$CEntityFactory@VCTriggerSound@@@@UAEPAVCBaseEntity@@PBDPAUentvars_s@@@Z
	DD	FLAT:?Destroy@?$CEntityFactory@VCTriggerSound@@@@UAEXPAVCBaseEntity@@@Z
	DD	FLAT:?GetEntitySize@?$CEntityFactory@VCTriggerSound@@@@UAEIXZ
CONST	ENDS
;	COMDAT ??_7CTriggerSound@@6B@
CONST	SEGMENT
??_7CTriggerSound@@6B@ DD FLAT:??_R4CTriggerSound@@6B@	; CTriggerSound::`vftable'
	DD	FLAT:?GetDataDescMap@CBaseDelay@@UAEPAUdatamap_s@@XZ
	DD	FLAT:?Spawn@CTriggerSound@@UAEXXZ
	DD	FLAT:?Precache@CBaseEntity@@UAEXXZ
	DD	FLAT:?KeyValue@CTriggerSound@@UAEXPAUKeyValueData_s@@@Z
	DD	FLAT:?Save@CBaseEntity@@UAEHAAVCSave@@@Z
	DD	FLAT:?Restore@CBaseEntity@@UAEHAAVCRestore@@@Z
	DD	FLAT:?ObjectCaps@CTriggerSound@@UAEHXZ
	DD	FLAT:?Activate@CBaseEntity@@UAEXXZ
	DD	FLAT:?OnChangeLevel@CBaseEntity@@UAEXXZ
	DD	FLAT:?OnTeleport@CBaseEntity@@UAEXXZ
	DD	FLAT:?PortalSleep@CBaseEntity@@UAEXM@Z
	DD	FLAT:?StartMessage@CBaseEntity@@UAEXPAVCBasePlayer@@@Z
	DD	FLAT:?GetPosition@CBaseEntity@@UAEMXZ
	DD	FLAT:?OnChangeParent@CBaseEntity@@UAEXXZ
	DD	FLAT:?OnClearParent@CBaseEntity@@UAEXXZ
	DD	FLAT:?OnRemove@CBaseEntity@@UAEXXZ
	DD	FLAT:?SetObjectCollisionBox@CBaseEntity@@UAEXXZ
	DD	FLAT:?Classify@CBaseEntity@@UAEHXZ
	DD	FLAT:?DeathNotice@CBaseEntity@@UAEXPAUentvars_s@@@Z
	DD	FLAT:?IsRigidBody@CBaseEntity@@UAEHXZ
	DD	FLAT:?SetNextThink@CBaseEntity@@UAEXM@Z
	DD	FLAT:?GetState@CBaseEntity@@UAE?AW4STATE@@PAV1@@Z
	DD	FLAT:?GetState@CBaseDelay@@UAE?AW4STATE@@XZ
	DD	FLAT:?TraceAttack@CBaseEntity@@UAEXPAUentvars_s@@MVVector@@PAUgametrace_s@@H@Z
	DD	FLAT:?TakeDamage@CBaseEntity@@UAEHPAUentvars_s@@0MH@Z
	DD	FLAT:?TakeHealth@CBaseEntity@@UAEHMH@Z
	DD	FLAT:?TakeArmor@CBaseEntity@@UAEHMH@Z
	DD	FLAT:?Killed@CBaseEntity@@UAEXPAUentvars_s@@H@Z
	DD	FLAT:?BloodColor@CBaseEntity@@UAEHXZ
	DD	FLAT:?TraceBleed@CBaseEntity@@UAEXMVVector@@PAUgametrace_s@@H@Z
	DD	FLAT:?IsTriggered@CBaseEntity@@UAEHPAV1@@Z
	DD	FLAT:?MyMonsterPointer@CBaseEntity@@UAEPAVCBaseMonster@@XZ
	DD	FLAT:?MySquadMonsterPointer@CBaseEntity@@UAEPAVCSquadMonster@@XZ
	DD	FLAT:?GetToggleState@CBaseEntity@@UAEHXZ
	DD	FLAT:?AddPoints@CBaseEntity@@UAEXHH@Z
	DD	FLAT:?AddPointsToTeam@CBaseEntity@@UAEXHH@Z
	DD	FLAT:?AddPlayerItem@CBaseEntity@@UAEHPAVCBasePlayerItem@@@Z
	DD	FLAT:?RemovePlayerItem@CBaseEntity@@UAEHPAVCBasePlayerItem@@@Z
	DD	FLAT:?GiveAmmo@CBaseEntity@@UAEHHPADH@Z
	DD	FLAT:?GetDelay@CBaseEntity@@UAEMXZ
	DD	FLAT:?IsMoving@CBaseEntity@@UAEHXZ
	DD	FLAT:?OverrideReset@CBaseEntity@@UAEXXZ
	DD	FLAT:?TransferReset@CBaseEntity@@UAEXXZ
	DD	FLAT:?DamageDecal@CBaseEntity@@UAEHH@Z
	DD	FLAT:?SetToggleState@CBaseEntity@@UAEXH@Z
	DD	FLAT:?StartSneaking@CBaseEntity@@UAEXXZ
	DD	FLAT:?StopSneaking@CBaseEntity@@UAEXXZ
	DD	FLAT:?OnControls@CBaseEntity@@UAEHPAV1@@Z
	DD	FLAT:?IsSneaking@CBaseEntity@@UAEHXZ
	DD	FLAT:?IsAlive@CBaseEntity@@UAEHXZ
	DD	FLAT:?IsBSPModel@CBaseEntity@@UAEHXZ
	DD	FLAT:?IsCustomModel@CBaseEntity@@UAEHXZ
	DD	FLAT:?ReflectGauss@CBaseEntity@@UAEHXZ
	DD	FLAT:?HasTarget@CBaseEntity@@UAEHH@Z
	DD	FLAT:?IsInWorld@CBaseEntity@@UAEHH@Z
	DD	FLAT:?IsPlayer@CBaseEntity@@UAEHXZ
	DD	FLAT:?IsNetClient@CBaseEntity@@UAEHXZ
	DD	FLAT:?IsMonster@CBaseEntity@@UAEHXZ
	DD	FLAT:?IsPushable@CBaseEntity@@UAEHXZ
	DD	FLAT:?IsProjectile@CBaseEntity@@UAEHXZ
	DD	FLAT:?IsFuncScreen@CBaseEntity@@UAEHXZ
	DD	FLAT:?IsPortal@CBaseEntity@@UAEHXZ
	DD	FLAT:?IsTank@CBaseEntity@@UAEHXZ
	DD	FLAT:?IsMover@CBaseEntity@@UAEHXZ
	DD	FLAT:?IsBreakable@CBaseEntity@@UAEHXZ
	DD	FLAT:?TeamID@CBaseEntity@@UAEPBDXZ
	DD	FLAT:?AddSpawnFlags@CBaseEntity@@UAEXH@Z
	DD	FLAT:?HasSpawnFlags@CBaseEntity@@UBE_NH@Z
	DD	FLAT:?SetFadeDistance@CBaseEntity@@UAEXH@Z
	DD	FLAT:?SetFlag@CBaseEntity@@UAEXH@Z
	DD	FLAT:?HasFlag@CBaseEntity@@UBE_NH@Z
	DD	FLAT:?RemoveFlag@CBaseEntity@@UAEXH@Z
	DD	FLAT:?SetNullModel@CBaseEntity@@UAEXXZ
	DD	FLAT:?OnPickupObject@CBaseEntity@@UAEXXZ
	DD	FLAT:?OnDropObject@CBaseEntity@@UAEXXZ
	DD	FLAT:?GetNextTarget@CBaseEntity@@UAEPAV1@XZ
	DD	FLAT:?Think@CBaseEntity@@UAEXXZ
	DD	FLAT:?Use@CBaseEntity@@UAEXPAV1@0W4USE_TYPE@@M@Z
	DD	FLAT:?Touch@CTriggerSound@@UAEXPAVCBaseEntity@@@Z
	DD	FLAT:?Blocked@CBaseEntity@@UAEXPAV1@@Z
	DD	FLAT:?MoveDone@CBaseEntity@@UAEXXZ
	DD	FLAT:?Respawn@CBaseEntity@@UAEPAV1@XZ
	DD	FLAT:?UpdateOwner@CBaseEntity@@UAEXXZ
	DD	FLAT:?FBecomeProne@CBaseEntity@@UAEHXZ
	DD	FLAT:?Center@CBaseEntity@@UAE?AVVector@@XZ
	DD	FLAT:?EyePosition@CBaseEntity@@UAE?AVVector@@XZ
	DD	FLAT:?EarPosition@CBaseEntity@@UAE?AVVector@@XZ
	DD	FLAT:?BodyTarget@CBaseEntity@@UAE?AVVector@@ABV2@@Z
	DD	FLAT:?IsPointSized@CBaseEntity@@UBEHXZ
	DD	FLAT:?Illumination@CBaseEntity@@UAEHXZ
	DD	FLAT:?FVisible@CBaseEntity@@UAEHABVVector@@@Z
	DD	FLAT:?FVisible@CBaseEntity@@UAEHPAV1@@Z
	DD	FLAT:?ShouldCollide@CBaseEntity@@UAEHPAV1@@Z
	DD	FLAT:?ClearEffects@CBaseEntity@@UAEXXZ
CONST	ENDS
;	COMDAT ??_C@_09IJFFIEBG@env_sound?$AA@
CONST	SEGMENT
??_C@_09IJFFIEBG@env_sound?$AA@ DB 'env_sound', 00H	; `string'
CONST	ENDS
;	COMDAT ??_7?$CEntityFactory@VCEnvSound@@@@6B@
CONST	SEGMENT
??_7?$CEntityFactory@VCEnvSound@@@@6B@ DD FLAT:??_R4?$CEntityFactory@VCEnvSound@@@@6B@ ; CEntityFactory<CEnvSound>::`vftable'
	DD	FLAT:?Create@?$CEntityFactory@VCEnvSound@@@@UAEPAVCBaseEntity@@PBDPAUentvars_s@@@Z
	DD	FLAT:?Destroy@?$CEntityFactory@VCEnvSound@@@@UAEXPAVCBaseEntity@@@Z
	DD	FLAT:?GetEntitySize@?$CEntityFactory@VCEnvSound@@@@UAEIXZ
CONST	ENDS
;	COMDAT ??_7CEnvSound@@6B@
CONST	SEGMENT
??_7CEnvSound@@6B@ DD FLAT:??_R4CEnvSound@@6B@		; CEnvSound::`vftable'
	DD	FLAT:?GetDataDescMap@CEnvSound@@UAEPAUdatamap_s@@XZ
	DD	FLAT:?Spawn@CEnvSound@@UAEXXZ
	DD	FLAT:?Precache@CBaseEntity@@UAEXXZ
	DD	FLAT:?KeyValue@CEnvSound@@UAEXPAUKeyValueData_s@@@Z
	DD	FLAT:?Save@CBaseEntity@@UAEHAAVCSave@@@Z
	DD	FLAT:?Restore@CBaseEntity@@UAEHAAVCRestore@@@Z
	DD	FLAT:?ObjectCaps@CPointEntity@@UAEHXZ
	DD	FLAT:?Activate@CBaseEntity@@UAEXXZ
	DD	FLAT:?OnChangeLevel@CBaseEntity@@UAEXXZ
	DD	FLAT:?OnTeleport@CBaseEntity@@UAEXXZ
	DD	FLAT:?PortalSleep@CBaseEntity@@UAEXM@Z
	DD	FLAT:?StartMessage@CBaseEntity@@UAEXPAVCBasePlayer@@@Z
	DD	FLAT:?GetPosition@CBaseEntity@@UAEMXZ
	DD	FLAT:?OnChangeParent@CBaseEntity@@UAEXXZ
	DD	FLAT:?OnClearParent@CBaseEntity@@UAEXXZ
	DD	FLAT:?OnRemove@CBaseEntity@@UAEXXZ
	DD	FLAT:?SetObjectCollisionBox@CBaseEntity@@UAEXXZ
	DD	FLAT:?Classify@CBaseEntity@@UAEHXZ
	DD	FLAT:?DeathNotice@CBaseEntity@@UAEXPAUentvars_s@@@Z
	DD	FLAT:?IsRigidBody@CBaseEntity@@UAEHXZ
	DD	FLAT:?SetNextThink@CBaseEntity@@UAEXM@Z
	DD	FLAT:?GetState@CBaseEntity@@UAE?AW4STATE@@PAV1@@Z
	DD	FLAT:?GetState@CBaseEntity@@UAE?AW4STATE@@XZ
	DD	FLAT:?TraceAttack@CBaseEntity@@UAEXPAUentvars_s@@MVVector@@PAUgametrace_s@@H@Z
	DD	FLAT:?TakeDamage@CBaseEntity@@UAEHPAUentvars_s@@0MH@Z
	DD	FLAT:?TakeHealth@CBaseEntity@@UAEHMH@Z
	DD	FLAT:?TakeArmor@CBaseEntity@@UAEHMH@Z
	DD	FLAT:?Killed@CBaseEntity@@UAEXPAUentvars_s@@H@Z
	DD	FLAT:?BloodColor@CBaseEntity@@UAEHXZ
	DD	FLAT:?TraceBleed@CBaseEntity@@UAEXMVVector@@PAUgametrace_s@@H@Z
	DD	FLAT:?IsTriggered@CBaseEntity@@UAEHPAV1@@Z
	DD	FLAT:?MyMonsterPointer@CBaseEntity@@UAEPAVCBaseMonster@@XZ
	DD	FLAT:?MySquadMonsterPointer@CBaseEntity@@UAEPAVCSquadMonster@@XZ
	DD	FLAT:?GetToggleState@CBaseEntity@@UAEHXZ
	DD	FLAT:?AddPoints@CBaseEntity@@UAEXHH@Z
	DD	FLAT:?AddPointsToTeam@CBaseEntity@@UAEXHH@Z
	DD	FLAT:?AddPlayerItem@CBaseEntity@@UAEHPAVCBasePlayerItem@@@Z
	DD	FLAT:?RemovePlayerItem@CBaseEntity@@UAEHPAVCBasePlayerItem@@@Z
	DD	FLAT:?GiveAmmo@CBaseEntity@@UAEHHPADH@Z
	DD	FLAT:?GetDelay@CBaseEntity@@UAEMXZ
	DD	FLAT:?IsMoving@CBaseEntity@@UAEHXZ
	DD	FLAT:?OverrideReset@CBaseEntity@@UAEXXZ
	DD	FLAT:?TransferReset@CBaseEntity@@UAEXXZ
	DD	FLAT:?DamageDecal@CBaseEntity@@UAEHH@Z
	DD	FLAT:?SetToggleState@CBaseEntity@@UAEXH@Z
	DD	FLAT:?StartSneaking@CBaseEntity@@UAEXXZ
	DD	FLAT:?StopSneaking@CBaseEntity@@UAEXXZ
	DD	FLAT:?OnControls@CBaseEntity@@UAEHPAV1@@Z
	DD	FLAT:?IsSneaking@CBaseEntity@@UAEHXZ
	DD	FLAT:?IsAlive@CBaseEntity@@UAEHXZ
	DD	FLAT:?IsBSPModel@CBaseEntity@@UAEHXZ
	DD	FLAT:?IsCustomModel@CBaseEntity@@UAEHXZ
	DD	FLAT:?ReflectGauss@CBaseEntity@@UAEHXZ
	DD	FLAT:?HasTarget@CBaseEntity@@UAEHH@Z
	DD	FLAT:?IsInWorld@CBaseEntity@@UAEHH@Z
	DD	FLAT:?IsPlayer@CBaseEntity@@UAEHXZ
	DD	FLAT:?IsNetClient@CBaseEntity@@UAEHXZ
	DD	FLAT:?IsMonster@CBaseEntity@@UAEHXZ
	DD	FLAT:?IsPushable@CBaseEntity@@UAEHXZ
	DD	FLAT:?IsProjectile@CBaseEntity@@UAEHXZ
	DD	FLAT:?IsFuncScreen@CBaseEntity@@UAEHXZ
	DD	FLAT:?IsPortal@CBaseEntity@@UAEHXZ
	DD	FLAT:?IsTank@CBaseEntity@@UAEHXZ
	DD	FLAT:?IsMover@CBaseEntity@@UAEHXZ
	DD	FLAT:?IsBreakable@CBaseEntity@@UAEHXZ
	DD	FLAT:?TeamID@CBaseEntity@@UAEPBDXZ
	DD	FLAT:?AddSpawnFlags@CBaseEntity@@UAEXH@Z
	DD	FLAT:?HasSpawnFlags@CBaseEntity@@UBE_NH@Z
	DD	FLAT:?SetFadeDistance@CBaseEntity@@UAEXH@Z
	DD	FLAT:?SetFlag@CBaseEntity@@UAEXH@Z
	DD	FLAT:?HasFlag@CBaseEntity@@UBE_NH@Z
	DD	FLAT:?RemoveFlag@CBaseEntity@@UAEXH@Z
	DD	FLAT:?SetNullModel@CBaseEntity@@UAEXXZ
	DD	FLAT:?OnPickupObject@CBaseEntity@@UAEXXZ
	DD	FLAT:?OnDropObject@CBaseEntity@@UAEXXZ
	DD	FLAT:?GetNextTarget@CBaseEntity@@UAEPAV1@XZ
	DD	FLAT:?Think@CEnvSound@@UAEXXZ
	DD	FLAT:?Use@CBaseEntity@@UAEXPAV1@0W4USE_TYPE@@M@Z
	DD	FLAT:?Touch@CBaseEntity@@UAEXPAV1@@Z
	DD	FLAT:?Blocked@CBaseEntity@@UAEXPAV1@@Z
	DD	FLAT:?MoveDone@CBaseEntity@@UAEXXZ
	DD	FLAT:?Respawn@CBaseEntity@@UAEPAV1@XZ
	DD	FLAT:?UpdateOwner@CBaseEntity@@UAEXXZ
	DD	FLAT:?FBecomeProne@CBaseEntity@@UAEHXZ
	DD	FLAT:?Center@CBaseEntity@@UAE?AVVector@@XZ
	DD	FLAT:?EyePosition@CBaseEntity@@UAE?AVVector@@XZ
	DD	FLAT:?EarPosition@CBaseEntity@@UAE?AVVector@@XZ
	DD	FLAT:?BodyTarget@CBaseEntity@@UAE?AVVector@@ABV2@@Z
	DD	FLAT:?IsPointSized@CBaseEntity@@UBEHXZ
	DD	FLAT:?Illumination@CBaseEntity@@UAEHXZ
	DD	FLAT:?FVisible@CBaseEntity@@UAEHABVVector@@@Z
	DD	FLAT:?FVisible@CBaseEntity@@UAEHPAV1@@Z
	DD	FLAT:?ShouldCollide@CBaseEntity@@UAEHPAV1@@Z
	DD	FLAT:?ClearEffects@CBaseEntity@@UAEXXZ
CONST	ENDS
;	COMDAT ??_C@_07CAMFAGPI@cspinup?$AA@
CONST	SEGMENT
??_C@_07CAMFAGPI@cspinup?$AA@ DB 'cspinup', 00H		; `string'
CONST	ENDS
;	COMDAT ??_C@_09EKPKCPJP@lfomodvol?$AA@
CONST	SEGMENT
??_C@_09EKPKCPJP@lfomodvol?$AA@ DB 'lfomodvol', 00H	; `string'
CONST	ENDS
;	COMDAT ??_C@_0M@HGAJBMGN@lfomodpitch?$AA@
CONST	SEGMENT
??_C@_0M@HGAJBMGN@lfomodpitch?$AA@ DB 'lfomodpitch', 00H ; `string'
CONST	ENDS
;	COMDAT ??_C@_07EHKHCNJF@lforate?$AA@
CONST	SEGMENT
??_C@_07EHKHCNJF@lforate?$AA@ DB 'lforate', 00H		; `string'
CONST	ENDS
;	COMDAT ??_C@_07FKEDAPJJ@lfotype?$AA@
CONST	SEGMENT
??_C@_07FKEDAPJJ@lfotype?$AA@ DB 'lfotype', 00H		; `string'
CONST	ENDS
;	COMDAT ??_C@_07BJADIKJG@fadeout?$AA@
CONST	SEGMENT
??_C@_07BJADIKJG@fadeout?$AA@ DB 'fadeout', 00H		; `string'
CONST	ENDS
;	COMDAT ??_C@_06JFGPOFJL@fadein?$AA@
CONST	SEGMENT
??_C@_06JFGPOFJL@fadein?$AA@ DB 'fadein', 00H		; `string'
CONST	ENDS
;	COMDAT ??_C@_08MBMKGMEC@volstart?$AA@
CONST	SEGMENT
??_C@_08MBMKGMEC@volstart?$AA@ DB 'volstart', 00H	; `string'
CONST	ENDS
;	COMDAT ??_C@_08PFGPOMOJ@spindown?$AA@
CONST	SEGMENT
??_C@_08PFGPOMOJ@spindown?$AA@ DB 'spindown', 00H	; `string'
CONST	ENDS
;	COMDAT ??_C@_06IGOPKBLH@spinup?$AA@
CONST	SEGMENT
??_C@_06IGOPKBLH@spinup?$AA@ DB 'spinup', 00H		; `string'
CONST	ENDS
;	COMDAT ??_C@_0L@BCICKNJD@pitchstart?$AA@
CONST	SEGMENT
??_C@_0L@BCICKNJD@pitchstart?$AA@ DB 'pitchstart', 00H	; `string'
CONST	ENDS
;	COMDAT ??_C@_05NCNFOFLM@pitch?$AA@
CONST	SEGMENT
??_C@_05NCNFOFLM@pitch?$AA@ DB 'pitch', 00H		; `string'
CONST	ENDS
;	COMDAT ??_C@_0BM@DBCGHFMO@?$CGCAmbientGeneric?3?3RampThink?$AA@
CONST	SEGMENT
??_C@_0BM@DBCGHFMO@?$CGCAmbientGeneric?3?3RampThink?$AA@ DB '&CAmbientGen'
	DB	'eric::RampThink', 00H			; `string'
CONST	ENDS
;	COMDAT ??_C@_0BP@KHIOGCIN@?$CGCAmbientGeneric?3?3ReInitialize?$AA@
CONST	SEGMENT
??_C@_0BP@KHIOGCIN@?$CGCAmbientGeneric?3?3ReInitialize?$AA@ DB '&CAmbient'
	DB	'Generic::ReInitialize', 00H			; `string'
CONST	ENDS
;	COMDAT ??_C@_0CE@DGMMICMH@?$CGCAmbientGeneric?3?3StartDynamicSo@
CONST	SEGMENT
??_C@_0CE@DGMMICMH@?$CGCAmbientGeneric?3?3StartDynamicSo@ DB '&CAmbientGe'
	DB	'neric::StartDynamicSound', 00H		; `string'
CONST	ENDS
;	COMDAT ??_C@_0BM@OHHKHLFG@?$CGCAmbientGeneric?3?3ToggleUse?$AA@
CONST	SEGMENT
??_C@_0BM@OHHKHLFG@?$CGCAmbientGeneric?3?3ToggleUse?$AA@ DB '&CAmbientGen'
	DB	'eric::ToggleUse', 00H			; `string'
CONST	ENDS
;	COMDAT ??_C@_0BO@MMKAKBAC@EMPTY?5AMBIENT?5AT?3?5?$CFf?0?5?$CFf?0?5?$CFf?6?$AA@
CONST	SEGMENT
??_C@_0BO@MMKAKBAC@EMPTY?5AMBIENT?5AT?3?5?$CFf?0?5?$CFf?0?5?$CFf?6?$AA@ DB 'E'
	DB	'MPTY AMBIENT AT: %f, %f, %f', 0aH, 00H	; `string'
CONST	ENDS
;	COMDAT ??_C@_0N@BFNLBOAL@ReInitialize?$AA@
CONST	SEGMENT
??_C@_0N@BFNLBOAL@ReInitialize?$AA@ DB 'ReInitialize', 00H ; `string'
CONST	ENDS
;	COMDAT ??_C@_0BC@JFAHPILA@StartDynamicSound?$AA@
CONST	SEGMENT
??_C@_0BC@JFAHPILA@StartDynamicSound?$AA@ DB 'StartDynamicSound', 00H ; `string'
CONST	ENDS
;	COMDAT ??_C@_09CHGFKFGA@ToggleUse?$AA@
CONST	SEGMENT
??_C@_09CHGFKFGA@ToggleUse?$AA@ DB 'ToggleUse', 00H	; `string'
CONST	ENDS
;	COMDAT ??_C@_09PBDJKLPI@RampThink?$AA@
CONST	SEGMENT
??_C@_09PBDJKLPI@RampThink?$AA@ DB 'RampThink', 00H	; `string'
CONST	ENDS
;	COMDAT ??_C@_0BA@JGPOPFCJ@ambient_generic?$AA@
CONST	SEGMENT
??_C@_0BA@JGPOPFCJ@ambient_generic?$AA@ DB 'ambient_generic', 00H ; `string'
CONST	ENDS
;	COMDAT ??_7?$CEntityFactory@VCAmbientGeneric@@@@6B@
CONST	SEGMENT
??_7?$CEntityFactory@VCAmbientGeneric@@@@6B@ DD FLAT:??_R4?$CEntityFactory@VCAmbientGeneric@@@@6B@ ; CEntityFactory<CAmbientGeneric>::`vftable'
	DD	FLAT:?Create@?$CEntityFactory@VCAmbientGeneric@@@@UAEPAVCBaseEntity@@PBDPAUentvars_s@@@Z
	DD	FLAT:?Destroy@?$CEntityFactory@VCAmbientGeneric@@@@UAEXPAVCBaseEntity@@@Z
	DD	FLAT:?GetEntitySize@?$CEntityFactory@VCAmbientGeneric@@@@UAEIXZ
CONST	ENDS
;	COMDAT ??_7CAmbientGeneric@@6B@
CONST	SEGMENT
??_7CAmbientGeneric@@6B@ DD FLAT:??_R4CAmbientGeneric@@6B@ ; CAmbientGeneric::`vftable'
	DD	FLAT:?GetDataDescMap@CAmbientGeneric@@UAEPAUdatamap_s@@XZ
	DD	FLAT:?Spawn@CAmbientGeneric@@UAEXXZ
	DD	FLAT:?Precache@CAmbientGeneric@@UAEXXZ
	DD	FLAT:?KeyValue@CAmbientGeneric@@UAEXPAUKeyValueData_s@@@Z
	DD	FLAT:?Save@CBaseEntity@@UAEHAAVCSave@@@Z
	DD	FLAT:?Restore@CBaseEntity@@UAEHAAVCRestore@@@Z
	DD	FLAT:?ObjectCaps@CAmbientGeneric@@UAEHXZ
	DD	FLAT:?Activate@CBaseEntity@@UAEXXZ
	DD	FLAT:?OnChangeLevel@CBaseEntity@@UAEXXZ
	DD	FLAT:?OnTeleport@CBaseEntity@@UAEXXZ
	DD	FLAT:?PortalSleep@CBaseEntity@@UAEXM@Z
	DD	FLAT:?StartMessage@CBaseEntity@@UAEXPAVCBasePlayer@@@Z
	DD	FLAT:?GetPosition@CBaseEntity@@UAEMXZ
	DD	FLAT:?OnChangeParent@CBaseEntity@@UAEXXZ
	DD	FLAT:?OnClearParent@CBaseEntity@@UAEXXZ
	DD	FLAT:?OnRemove@CBaseEntity@@UAEXXZ
	DD	FLAT:?SetObjectCollisionBox@CBaseEntity@@UAEXXZ
	DD	FLAT:?Classify@CBaseEntity@@UAEHXZ
	DD	FLAT:?DeathNotice@CBaseEntity@@UAEXPAUentvars_s@@@Z
	DD	FLAT:?IsRigidBody@CBaseEntity@@UAEHXZ
	DD	FLAT:?SetNextThink@CBaseEntity@@UAEXM@Z
	DD	FLAT:?GetState@CBaseEntity@@UAE?AW4STATE@@PAV1@@Z
	DD	FLAT:?GetState@CBaseEntity@@UAE?AW4STATE@@XZ
	DD	FLAT:?TraceAttack@CBaseEntity@@UAEXPAUentvars_s@@MVVector@@PAUgametrace_s@@H@Z
	DD	FLAT:?TakeDamage@CBaseEntity@@UAEHPAUentvars_s@@0MH@Z
	DD	FLAT:?TakeHealth@CBaseEntity@@UAEHMH@Z
	DD	FLAT:?TakeArmor@CBaseEntity@@UAEHMH@Z
	DD	FLAT:?Killed@CBaseEntity@@UAEXPAUentvars_s@@H@Z
	DD	FLAT:?BloodColor@CBaseEntity@@UAEHXZ
	DD	FLAT:?TraceBleed@CBaseEntity@@UAEXMVVector@@PAUgametrace_s@@H@Z
	DD	FLAT:?IsTriggered@CBaseEntity@@UAEHPAV1@@Z
	DD	FLAT:?MyMonsterPointer@CBaseEntity@@UAEPAVCBaseMonster@@XZ
	DD	FLAT:?MySquadMonsterPointer@CBaseEntity@@UAEPAVCSquadMonster@@XZ
	DD	FLAT:?GetToggleState@CBaseEntity@@UAEHXZ
	DD	FLAT:?AddPoints@CBaseEntity@@UAEXHH@Z
	DD	FLAT:?AddPointsToTeam@CBaseEntity@@UAEXHH@Z
	DD	FLAT:?AddPlayerItem@CBaseEntity@@UAEHPAVCBasePlayerItem@@@Z
	DD	FLAT:?RemovePlayerItem@CBaseEntity@@UAEHPAVCBasePlayerItem@@@Z
	DD	FLAT:?GiveAmmo@CBaseEntity@@UAEHHPADH@Z
	DD	FLAT:?GetDelay@CBaseEntity@@UAEMXZ
	DD	FLAT:?IsMoving@CBaseEntity@@UAEHXZ
	DD	FLAT:?OverrideReset@CBaseEntity@@UAEXXZ
	DD	FLAT:?TransferReset@CBaseEntity@@UAEXXZ
	DD	FLAT:?DamageDecal@CBaseEntity@@UAEHH@Z
	DD	FLAT:?SetToggleState@CBaseEntity@@UAEXH@Z
	DD	FLAT:?StartSneaking@CBaseEntity@@UAEXXZ
	DD	FLAT:?StopSneaking@CBaseEntity@@UAEXXZ
	DD	FLAT:?OnControls@CBaseEntity@@UAEHPAV1@@Z
	DD	FLAT:?IsSneaking@CBaseEntity@@UAEHXZ
	DD	FLAT:?IsAlive@CBaseEntity@@UAEHXZ
	DD	FLAT:?IsBSPModel@CBaseEntity@@UAEHXZ
	DD	FLAT:?IsCustomModel@CBaseEntity@@UAEHXZ
	DD	FLAT:?ReflectGauss@CBaseEntity@@UAEHXZ
	DD	FLAT:?HasTarget@CBaseEntity@@UAEHH@Z
	DD	FLAT:?IsInWorld@CBaseEntity@@UAEHH@Z
	DD	FLAT:?IsPlayer@CBaseEntity@@UAEHXZ
	DD	FLAT:?IsNetClient@CBaseEntity@@UAEHXZ
	DD	FLAT:?IsMonster@CBaseEntity@@UAEHXZ
	DD	FLAT:?IsPushable@CBaseEntity@@UAEHXZ
	DD	FLAT:?IsProjectile@CBaseEntity@@UAEHXZ
	DD	FLAT:?IsFuncScreen@CBaseEntity@@UAEHXZ
	DD	FLAT:?IsPortal@CBaseEntity@@UAEHXZ
	DD	FLAT:?IsTank@CBaseEntity@@UAEHXZ
	DD	FLAT:?IsMover@CBaseEntity@@UAEHXZ
	DD	FLAT:?IsBreakable@CBaseEntity@@UAEHXZ
	DD	FLAT:?TeamID@CBaseEntity@@UAEPBDXZ
	DD	FLAT:?AddSpawnFlags@CBaseEntity@@UAEXH@Z
	DD	FLAT:?HasSpawnFlags@CBaseEntity@@UBE_NH@Z
	DD	FLAT:?SetFadeDistance@CBaseEntity@@UAEXH@Z
	DD	FLAT:?SetFlag@CBaseEntity@@UAEXH@Z
	DD	FLAT:?HasFlag@CBaseEntity@@UBE_NH@Z
	DD	FLAT:?RemoveFlag@CBaseEntity@@UAEXH@Z
	DD	FLAT:?SetNullModel@CBaseEntity@@UAEXXZ
	DD	FLAT:?OnPickupObject@CBaseEntity@@UAEXXZ
	DD	FLAT:?OnDropObject@CBaseEntity@@UAEXXZ
	DD	FLAT:?GetNextTarget@CBaseEntity@@UAEPAV1@XZ
	DD	FLAT:?Think@CBaseEntity@@UAEXXZ
	DD	FLAT:?Use@CBaseEntity@@UAEXPAV1@0W4USE_TYPE@@M@Z
	DD	FLAT:?Touch@CBaseEntity@@UAEXPAV1@@Z
	DD	FLAT:?Blocked@CBaseEntity@@UAEXPAV1@@Z
	DD	FLAT:?MoveDone@CBaseEntity@@UAEXXZ
	DD	FLAT:?Respawn@CBaseEntity@@UAEPAV1@XZ
	DD	FLAT:?UpdateOwner@CBaseEntity@@UAEXXZ
	DD	FLAT:?FBecomeProne@CBaseEntity@@UAEHXZ
	DD	FLAT:?Center@CBaseEntity@@UAE?AVVector@@XZ
	DD	FLAT:?EyePosition@CBaseEntity@@UAE?AVVector@@XZ
	DD	FLAT:?EarPosition@CBaseEntity@@UAE?AVVector@@XZ
	DD	FLAT:?BodyTarget@CBaseEntity@@UAE?AVVector@@ABV2@@Z
	DD	FLAT:?IsPointSized@CBaseEntity@@UBEHXZ
	DD	FLAT:?Illumination@CBaseEntity@@UAEHXZ
	DD	FLAT:?FVisible@CBaseEntity@@UAEHABVVector@@@Z
	DD	FLAT:?FVisible@CBaseEntity@@UAEHPAV1@@Z
	DD	FLAT:?ShouldCollide@CBaseEntity@@UAEHPAV1@@Z
	DD	FLAT:?ClearEffects@CAmbientGeneric@@UAEXXZ
CONST	ENDS
;	COMDAT ??_7CBasePlayer@@6B@
CONST	SEGMENT
??_7CBasePlayer@@6B@ DD FLAT:??_R4CBasePlayer@@6B@	; CBasePlayer::`vftable'
	DD	FLAT:?GetDataDescMap@CBasePlayer@@UAEPAUdatamap_s@@XZ
	DD	FLAT:?Spawn@CBasePlayer@@UAEXXZ
	DD	FLAT:?Precache@CBasePlayer@@UAEXXZ
	DD	FLAT:?KeyValue@CBaseMonster@@UAEXPAUKeyValueData_s@@@Z
	DD	FLAT:?Save@CBaseEntity@@UAEHAAVCSave@@@Z
	DD	FLAT:?Restore@CBasePlayer@@UAEHAAVCRestore@@@Z
	DD	FLAT:?ObjectCaps@CBasePlayer@@UAEHXZ
	DD	FLAT:?Activate@CBaseEntity@@UAEXXZ
	DD	FLAT:?OnChangeLevel@CBaseEntity@@UAEXXZ
	DD	FLAT:?OnTeleport@CBaseEntity@@UAEXXZ
	DD	FLAT:?PortalSleep@CBaseEntity@@UAEXM@Z
	DD	FLAT:?StartMessage@CBaseEntity@@UAEXPAVCBasePlayer@@@Z
	DD	FLAT:?GetPosition@CBaseEntity@@UAEMXZ
	DD	FLAT:?OnChangeParent@CBaseEntity@@UAEXXZ
	DD	FLAT:?OnClearParent@CBaseEntity@@UAEXXZ
	DD	FLAT:?OnRemove@CBaseEntity@@UAEXXZ
	DD	FLAT:?SetObjectCollisionBox@CBaseEntity@@UAEXXZ
	DD	FLAT:?Classify@CBasePlayer@@UAEHXZ
	DD	FLAT:?DeathNotice@CBaseEntity@@UAEXPAUentvars_s@@@Z
	DD	FLAT:?IsRigidBody@CBaseEntity@@UAEHXZ
	DD	FLAT:?SetNextThink@CBaseEntity@@UAEXM@Z
	DD	FLAT:?GetState@CBaseEntity@@UAE?AW4STATE@@PAV1@@Z
	DD	FLAT:?GetState@CBaseToggle@@UAE?AW4STATE@@XZ
	DD	FLAT:?TraceAttack@CBasePlayer@@UAEXPAUentvars_s@@MVVector@@PAUgametrace_s@@H@Z
	DD	FLAT:?TakeDamage@CBasePlayer@@UAEHPAUentvars_s@@0MH@Z
	DD	FLAT:?TakeHealth@CBasePlayer@@UAEHMH@Z
	DD	FLAT:?TakeArmor@CBaseEntity@@UAEHMH@Z
	DD	FLAT:?Killed@CBasePlayer@@UAEXPAUentvars_s@@H@Z
	DD	FLAT:?BloodColor@CBaseMonster@@UAEHXZ
	DD	FLAT:?TraceBleed@CBaseEntity@@UAEXMVVector@@PAUgametrace_s@@H@Z
	DD	FLAT:?IsTriggered@CBaseEntity@@UAEHPAV1@@Z
	DD	FLAT:?MyMonsterPointer@CBaseMonster@@UAEPAV1@XZ
	DD	FLAT:?MySquadMonsterPointer@CBaseEntity@@UAEPAVCSquadMonster@@XZ
	DD	FLAT:?GetToggleState@CBaseToggle@@UAEHXZ
	DD	FLAT:?AddPoints@CBasePlayer@@UAEXHH@Z
	DD	FLAT:?AddPointsToTeam@CBasePlayer@@UAEXHH@Z
	DD	FLAT:?AddPlayerItem@CBasePlayer@@UAEHPAVCBasePlayerItem@@@Z
	DD	FLAT:?RemovePlayerItem@CBasePlayer@@UAEHPAVCBasePlayerItem@@@Z
	DD	FLAT:?GiveAmmo@CBasePlayer@@UAEHHPADH@Z
	DD	FLAT:?GetDelay@CBaseToggle@@UAEMXZ
	DD	FLAT:?IsMoving@CBaseMonster@@UAEHXZ
	DD	FLAT:?OverrideReset@CBaseEntity@@UAEXXZ
	DD	FLAT:?TransferReset@CBasePlayer@@UAEXXZ
	DD	FLAT:?DamageDecal@CBaseMonster@@UAEHH@Z
	DD	FLAT:?SetToggleState@CBaseEntity@@UAEXH@Z
	DD	FLAT:?StartSneaking@CBasePlayer@@UAEXXZ
	DD	FLAT:?StopSneaking@CBasePlayer@@UAEXXZ
	DD	FLAT:?OnControls@CBaseEntity@@UAEHPAV1@@Z
	DD	FLAT:?IsSneaking@CBasePlayer@@UAEHXZ
	DD	FLAT:?IsAlive@CBasePlayer@@UAEHXZ
	DD	FLAT:?IsBSPModel@CBaseEntity@@UAEHXZ
	DD	FLAT:?IsCustomModel@CBaseEntity@@UAEHXZ
	DD	FLAT:?ReflectGauss@CBaseEntity@@UAEHXZ
	DD	FLAT:?HasTarget@CBaseEntity@@UAEHH@Z
	DD	FLAT:?IsInWorld@CBaseEntity@@UAEHH@Z
	DD	FLAT:?IsPlayer@CBasePlayer@@UAEHXZ
	DD	FLAT:?IsNetClient@CBasePlayer@@UAEHXZ
	DD	FLAT:?IsMonster@CBaseEntity@@UAEHXZ
	DD	FLAT:?IsPushable@CBaseEntity@@UAEHXZ
	DD	FLAT:?IsProjectile@CBaseEntity@@UAEHXZ
	DD	FLAT:?IsFuncScreen@CBaseEntity@@UAEHXZ
	DD	FLAT:?IsPortal@CBaseEntity@@UAEHXZ
	DD	FLAT:?IsTank@CBaseEntity@@UAEHXZ
	DD	FLAT:?IsMover@CBaseEntity@@UAEHXZ
	DD	FLAT:?IsBreakable@CBaseEntity@@UAEHXZ
	DD	FLAT:?TeamID@CBasePlayer@@UAEPBDXZ
	DD	FLAT:?AddSpawnFlags@CBaseEntity@@UAEXH@Z
	DD	FLAT:?HasSpawnFlags@CBaseEntity@@UBE_NH@Z
	DD	FLAT:?SetFadeDistance@CBaseEntity@@UAEXH@Z
	DD	FLAT:?SetFlag@CBaseEntity@@UAEXH@Z
	DD	FLAT:?HasFlag@CBaseEntity@@UBE_NH@Z
	DD	FLAT:?RemoveFlag@CBaseEntity@@UAEXH@Z
	DD	FLAT:?SetNullModel@CBaseEntity@@UAEXXZ
	DD	FLAT:?OnPickupObject@CBaseEntity@@UAEXXZ
	DD	FLAT:?OnDropObject@CBaseEntity@@UAEXXZ
	DD	FLAT:?GetNextTarget@CBaseEntity@@UAEPAV1@XZ
	DD	FLAT:?Think@CBaseEntity@@UAEXXZ
	DD	FLAT:?Use@CBaseEntity@@UAEXPAV1@0W4USE_TYPE@@M@Z
	DD	FLAT:?Touch@CBaseEntity@@UAEXPAV1@@Z
	DD	FLAT:?Blocked@CBaseEntity@@UAEXPAV1@@Z
	DD	FLAT:?MoveDone@CBaseToggle@@UAEXXZ
	DD	FLAT:?Respawn@CBaseEntity@@UAEPAV1@XZ
	DD	FLAT:?UpdateOwner@CBaseEntity@@UAEXXZ
	DD	FLAT:?FBecomeProne@CBasePlayer@@UAEHXZ
	DD	FLAT:?Center@CBaseEntity@@UAE?AVVector@@XZ
	DD	FLAT:?EyePosition@CBaseEntity@@UAE?AVVector@@XZ
	DD	FLAT:?EarPosition@CBaseEntity@@UAE?AVVector@@XZ
	DD	FLAT:?BodyTarget@CBasePlayer@@UAE?AVVector@@ABV2@@Z
	DD	FLAT:?IsPointSized@CBaseEntity@@UBEHXZ
	DD	FLAT:?Illumination@CBasePlayer@@UAEHXZ
	DD	FLAT:?FVisible@CBaseEntity@@UAEHABVVector@@@Z
	DD	FLAT:?FVisible@CBaseEntity@@UAEHPAV1@@Z
	DD	FLAT:?ShouldCollide@CBaseEntity@@UAEHPAV1@@Z
	DD	FLAT:?ClearEffects@CBaseMonster@@UAEXXZ
	DD	FLAT:?HandleAnimEvent@CBaseMonster@@UAEXPAUMonsterEvent_t@@@Z
	DD	FLAT:?Look@CBaseMonster@@UAEXH@Z
	DD	FLAT:?RunAI@CBaseMonster@@UAEXXZ
	DD	FLAT:?ShouldFadeOnDeath@CBasePlayer@@UAEHXZ
	DD	FLAT:?ChangeYaw@CBaseMonster@@UAEMH@Z
	DD	FLAT:?MonsterThink@CBaseMonster@@UAEXXZ
	DD	FLAT:?IRelationship@CBaseMonster@@UAEHPAVCBaseEntity@@@Z
	DD	FLAT:?MonsterInit@CBaseMonster@@UAEXXZ
	DD	FLAT:?MonsterInitDead@CBaseMonster@@UAEXXZ
	DD	FLAT:?BecomeDead@CBaseMonster@@UAEXXZ
	DD	FLAT:?StartMonster@CBaseMonster@@UAEXXZ
	DD	FLAT:?BestVisibleEnemy@CBaseMonster@@UAEPAVCBaseEntity@@XZ
	DD	FLAT:?FInViewCone@CBaseMonster@@UAEHPAVVector@@@Z
	DD	FLAT:?FInViewCone@CBaseMonster@@UAEHPAVCBaseEntity@@M@Z
	DD	FLAT:?CheckLocalMove@CBaseMonster@@UAEHABVVector@@0PAVCBaseEntity@@PAM@Z
	DD	FLAT:?Move@CBaseMonster@@UAEXM@Z
	DD	FLAT:?MoveExecute@CBaseMonster@@UAEXPAVCBaseEntity@@ABVVector@@M@Z
	DD	FLAT:?ShouldAdvanceRoute@CBaseMonster@@UAEHM@Z
	DD	FLAT:?GetStoppedActivity@CBaseMonster@@UAE?AW4Activity@@XZ
	DD	FLAT:?Stop@CBaseMonster@@UAEXXZ
	DD	FLAT:?CheckRangeAttack1@CBaseMonster@@UAEHMM@Z
	DD	FLAT:?CheckRangeAttack2@CBaseMonster@@UAEHMM@Z
	DD	FLAT:?CheckMeleeAttack1@CBaseMonster@@UAEHMM@Z
	DD	FLAT:?CheckMeleeAttack2@CBaseMonster@@UAEHMM@Z
	DD	FLAT:?ScheduleFromName@CBaseMonster@@UAEPAUSchedule_t@@PBD@Z
	DD	FLAT:?StartTask@CBaseMonster@@UAEXPAUTask_t@@@Z
	DD	FLAT:?RunTask@CBaseMonster@@UAEXPAUTask_t@@@Z
	DD	FLAT:?GetScheduleOfType@CBaseMonster@@UAEPAUSchedule_t@@H@Z
	DD	FLAT:?GetSchedule@CBaseMonster@@UAEPAUSchedule_t@@XZ
	DD	FLAT:?ScheduleChange@CBaseMonster@@UAEXXZ
	DD	FLAT:?CanPlaySequence@CBaseMonster@@UAEHHH@Z
	DD	FLAT:?CanPlaySentence@CBaseMonster@@UAEHH@Z
	DD	FLAT:?PlaySentence@CBaseMonster@@UAEXPBDMMMH@Z
	DD	FLAT:?PlayScriptedSentence@CBaseMonster@@UAEXPBDMMMHPAVCBaseEntity@@H@Z
	DD	FLAT:?SentenceStop@CBaseMonster@@UAEXXZ
	DD	FLAT:?GetIdealState@CBaseMonster@@UAE?AW4MONSTERSTATE@@XZ
	DD	FLAT:?SetActivity@CBaseMonster@@UAEXW4Activity@@@Z
	DD	FLAT:?ReportAIState@CBaseMonster@@UAEXXZ
	DD	FLAT:?CheckEnemy@CBaseMonster@@UAEHPAVCBaseEntity@@@Z
	DD	FLAT:?FTriangulate@CBaseMonster@@UAEHABVVector@@0MPAVCBaseEntity@@PAV2@@Z
	DD	FLAT:?SetYawSpeed@CBaseMonster@@UAEXXZ
	DD	FLAT:?BuildNearestRoute@CBaseMonster@@UAEHVVector@@0MM@Z
	DD	FLAT:?FindCover@CBaseMonster@@UAEHVVector@@0MM@Z
	DD	FLAT:?FindRunAway@CBaseMonster@@UAEHVVector@@MM@Z
	DD	FLAT:?FValidateCover@CBaseMonster@@UAEHABVVector@@@Z
	DD	FLAT:?CoverRadius@CBaseMonster@@UAEMXZ
	DD	FLAT:?FCanCheckAttacks@CBaseMonster@@UAEHXZ
	DD	FLAT:?CheckAmmo@CBaseMonster@@UAEXXZ
	DD	FLAT:?IgnoreConditions@CBaseMonster@@UAEHXZ
	DD	FLAT:?FValidateHintType@CBaseMonster@@UAEHF@Z
	DD	FLAT:?FCanActiveIdle@CBaseMonster@@UAEHXZ
	DD	FLAT:?ISoundMask@CBaseMonster@@UAEHXZ
	DD	FLAT:?PBestSound@CBaseMonster@@UAEPAVCSound@@XZ
	DD	FLAT:?PBestScent@CBaseMonster@@UAEPAVCSound@@XZ
	DD	FLAT:?HearingSensitivity@CBaseMonster@@UAEMXZ
	DD	FLAT:?BarnacleVictimBitten@CBasePlayer@@UAEXPAUentvars_s@@@Z
	DD	FLAT:?BarnacleVictimReleased@CBasePlayer@@UAEXXZ
	DD	FLAT:?PrescheduleThink@CBaseMonster@@UAEXXZ
	DD	FLAT:?GetDeathActivity@CBaseMonster@@UAE?AW4Activity@@XZ
	DD	FLAT:?GibMonster@CBasePlayer@@UAEXXZ
	DD	FLAT:?HasHumanGibs@CBaseMonster@@UAEHXZ
	DD	FLAT:?HasAlienGibs@CBaseMonster@@UAEHXZ
	DD	FLAT:?FadeMonster@CBaseMonster@@UAEXXZ
	DD	FLAT:?GetGunPosition@CBasePlayer@@UAE?AVVector@@XZ
	DD	FLAT:?DeathSound@CBasePlayer@@UAEXXZ
	DD	FLAT:?AlertSound@CBaseMonster@@UAEXXZ
	DD	FLAT:?IdleSound@CBaseMonster@@UAEXXZ
	DD	FLAT:?PainSound@CBaseMonster@@UAEXXZ
	DD	FLAT:?StepSound@CBaseMonster@@UAEXXZ
	DD	FLAT:?StopFollowing@CBaseMonster@@UAEXH@Z
	DD	FLAT:?Jump@CBasePlayer@@UAEXXZ
	DD	FLAT:?Duck@CBasePlayer@@UAEXXZ
	DD	FLAT:?PreThink@CBasePlayer@@UAEXXZ
	DD	FLAT:?PostThink@CBasePlayer@@UAEXXZ
	DD	FLAT:?UpdateClientData@CBasePlayer@@UAEXXZ
	DD	FLAT:?ImpulseCommands@CBasePlayer@@UAEXXZ
	DD	FLAT:?CheckTutorMessage@CBasePlayer@@UAEXH@Z
CONST	ENDS
;	COMDAT ??_C@_0BJ@EIFNLFLK@?$CGCBaseEntity?3?3SUB_Remove?$AA@
CONST	SEGMENT
??_C@_0BJ@EIFNLFLK@?$CGCBaseEntity?3?3SUB_Remove?$AA@ DB '&CBaseEntity::S'
	DB	'UB_Remove', 00H				; `string'
CONST	ENDS
;	COMDAT ??_C@_0BB@EMJBJDBM@sprites?1null?4spr?$AA@
CONST	SEGMENT
??_C@_0BB@EMJBJDBM@sprites?1null?4spr?$AA@ DB 'sprites/null.spr', 00H ; `string'
CONST	ENDS
;	COMDAT ??_7CBaseMonster@@6B@
CONST	SEGMENT
??_7CBaseMonster@@6B@ DD FLAT:??_R4CBaseMonster@@6B@	; CBaseMonster::`vftable'
	DD	FLAT:?GetDataDescMap@CBaseMonster@@UAEPAUdatamap_s@@XZ
	DD	FLAT:?Spawn@CBaseEntity@@UAEXXZ
	DD	FLAT:?Precache@CBaseEntity@@UAEXXZ
	DD	FLAT:?KeyValue@CBaseMonster@@UAEXPAUKeyValueData_s@@@Z
	DD	FLAT:?Save@CBaseEntity@@UAEHAAVCSave@@@Z
	DD	FLAT:?Restore@CBaseMonster@@UAEHAAVCRestore@@@Z
	DD	FLAT:?ObjectCaps@CBaseEntity@@UAEHXZ
	DD	FLAT:?Activate@CBaseEntity@@UAEXXZ
	DD	FLAT:?OnChangeLevel@CBaseEntity@@UAEXXZ
	DD	FLAT:?OnTeleport@CBaseEntity@@UAEXXZ
	DD	FLAT:?PortalSleep@CBaseEntity@@UAEXM@Z
	DD	FLAT:?StartMessage@CBaseEntity@@UAEXPAVCBasePlayer@@@Z
	DD	FLAT:?GetPosition@CBaseEntity@@UAEMXZ
	DD	FLAT:?OnChangeParent@CBaseEntity@@UAEXXZ
	DD	FLAT:?OnClearParent@CBaseEntity@@UAEXXZ
	DD	FLAT:?OnRemove@CBaseEntity@@UAEXXZ
	DD	FLAT:?SetObjectCollisionBox@CBaseEntity@@UAEXXZ
	DD	FLAT:?Classify@CBaseMonster@@UAEHXZ
	DD	FLAT:?DeathNotice@CBaseEntity@@UAEXPAUentvars_s@@@Z
	DD	FLAT:?IsRigidBody@CBaseEntity@@UAEHXZ
	DD	FLAT:?SetNextThink@CBaseEntity@@UAEXM@Z
	DD	FLAT:?GetState@CBaseEntity@@UAE?AW4STATE@@PAV1@@Z
	DD	FLAT:?GetState@CBaseToggle@@UAE?AW4STATE@@XZ
	DD	FLAT:?TraceAttack@CBaseMonster@@UAEXPAUentvars_s@@MVVector@@PAUgametrace_s@@H@Z
	DD	FLAT:?TakeDamage@CBaseMonster@@UAEHPAUentvars_s@@0MH@Z
	DD	FLAT:?TakeHealth@CBaseMonster@@UAEHMH@Z
	DD	FLAT:?TakeArmor@CBaseEntity@@UAEHMH@Z
	DD	FLAT:?Killed@CBaseMonster@@UAEXPAUentvars_s@@H@Z
	DD	FLAT:?BloodColor@CBaseMonster@@UAEHXZ
	DD	FLAT:?TraceBleed@CBaseEntity@@UAEXMVVector@@PAUgametrace_s@@H@Z
	DD	FLAT:?IsTriggered@CBaseEntity@@UAEHPAV1@@Z
	DD	FLAT:?MyMonsterPointer@CBaseMonster@@UAEPAV1@XZ
	DD	FLAT:?MySquadMonsterPointer@CBaseEntity@@UAEPAVCSquadMonster@@XZ
	DD	FLAT:?GetToggleState@CBaseToggle@@UAEHXZ
	DD	FLAT:?AddPoints@CBaseEntity@@UAEXHH@Z
	DD	FLAT:?AddPointsToTeam@CBaseEntity@@UAEXHH@Z
	DD	FLAT:?AddPlayerItem@CBaseEntity@@UAEHPAVCBasePlayerItem@@@Z
	DD	FLAT:?RemovePlayerItem@CBaseEntity@@UAEHPAVCBasePlayerItem@@@Z
	DD	FLAT:?GiveAmmo@CBaseEntity@@UAEHHPADH@Z
	DD	FLAT:?GetDelay@CBaseToggle@@UAEMXZ
	DD	FLAT:?IsMoving@CBaseMonster@@UAEHXZ
	DD	FLAT:?OverrideReset@CBaseEntity@@UAEXXZ
	DD	FLAT:?TransferReset@CBaseEntity@@UAEXXZ
	DD	FLAT:?DamageDecal@CBaseMonster@@UAEHH@Z
	DD	FLAT:?SetToggleState@CBaseEntity@@UAEXH@Z
	DD	FLAT:?StartSneaking@CBaseEntity@@UAEXXZ
	DD	FLAT:?StopSneaking@CBaseEntity@@UAEXXZ
	DD	FLAT:?OnControls@CBaseEntity@@UAEHPAV1@@Z
	DD	FLAT:?IsSneaking@CBaseEntity@@UAEHXZ
	DD	FLAT:?IsAlive@CBaseMonster@@UAEHXZ
	DD	FLAT:?IsBSPModel@CBaseEntity@@UAEHXZ
	DD	FLAT:?IsCustomModel@CBaseEntity@@UAEHXZ
	DD	FLAT:?ReflectGauss@CBaseEntity@@UAEHXZ
	DD	FLAT:?HasTarget@CBaseEntity@@UAEHH@Z
	DD	FLAT:?IsInWorld@CBaseEntity@@UAEHH@Z
	DD	FLAT:?IsPlayer@CBaseEntity@@UAEHXZ
	DD	FLAT:?IsNetClient@CBaseEntity@@UAEHXZ
	DD	FLAT:?IsMonster@CBaseEntity@@UAEHXZ
	DD	FLAT:?IsPushable@CBaseEntity@@UAEHXZ
	DD	FLAT:?IsProjectile@CBaseEntity@@UAEHXZ
	DD	FLAT:?IsFuncScreen@CBaseEntity@@UAEHXZ
	DD	FLAT:?IsPortal@CBaseEntity@@UAEHXZ
	DD	FLAT:?IsTank@CBaseEntity@@UAEHXZ
	DD	FLAT:?IsMover@CBaseEntity@@UAEHXZ
	DD	FLAT:?IsBreakable@CBaseEntity@@UAEHXZ
	DD	FLAT:?TeamID@CBaseEntity@@UAEPBDXZ
	DD	FLAT:?AddSpawnFlags@CBaseEntity@@UAEXH@Z
	DD	FLAT:?HasSpawnFlags@CBaseEntity@@UBE_NH@Z
	DD	FLAT:?SetFadeDistance@CBaseEntity@@UAEXH@Z
	DD	FLAT:?SetFlag@CBaseEntity@@UAEXH@Z
	DD	FLAT:?HasFlag@CBaseEntity@@UBE_NH@Z
	DD	FLAT:?RemoveFlag@CBaseEntity@@UAEXH@Z
	DD	FLAT:?SetNullModel@CBaseEntity@@UAEXXZ
	DD	FLAT:?OnPickupObject@CBaseEntity@@UAEXXZ
	DD	FLAT:?OnDropObject@CBaseEntity@@UAEXXZ
	DD	FLAT:?GetNextTarget@CBaseEntity@@UAEPAV1@XZ
	DD	FLAT:?Think@CBaseEntity@@UAEXXZ
	DD	FLAT:?Use@CBaseEntity@@UAEXPAV1@0W4USE_TYPE@@M@Z
	DD	FLAT:?Touch@CBaseEntity@@UAEXPAV1@@Z
	DD	FLAT:?Blocked@CBaseEntity@@UAEXPAV1@@Z
	DD	FLAT:?MoveDone@CBaseToggle@@UAEXXZ
	DD	FLAT:?Respawn@CBaseEntity@@UAEPAV1@XZ
	DD	FLAT:?UpdateOwner@CBaseEntity@@UAEXXZ
	DD	FLAT:?FBecomeProne@CBaseMonster@@UAEHXZ
	DD	FLAT:?Center@CBaseEntity@@UAE?AVVector@@XZ
	DD	FLAT:?EyePosition@CBaseEntity@@UAE?AVVector@@XZ
	DD	FLAT:?EarPosition@CBaseEntity@@UAE?AVVector@@XZ
	DD	FLAT:?BodyTarget@CBaseMonster@@UAE?AVVector@@ABV2@@Z
	DD	FLAT:?IsPointSized@CBaseEntity@@UBEHXZ
	DD	FLAT:?Illumination@CBaseEntity@@UAEHXZ
	DD	FLAT:?FVisible@CBaseEntity@@UAEHABVVector@@@Z
	DD	FLAT:?FVisible@CBaseEntity@@UAEHPAV1@@Z
	DD	FLAT:?ShouldCollide@CBaseEntity@@UAEHPAV1@@Z
	DD	FLAT:?ClearEffects@CBaseMonster@@UAEXXZ
	DD	FLAT:?HandleAnimEvent@CBaseMonster@@UAEXPAUMonsterEvent_t@@@Z
	DD	FLAT:?Look@CBaseMonster@@UAEXH@Z
	DD	FLAT:?RunAI@CBaseMonster@@UAEXXZ
	DD	FLAT:?ShouldFadeOnDeath@CBaseMonster@@UAEHXZ
	DD	FLAT:?ChangeYaw@CBaseMonster@@UAEMH@Z
	DD	FLAT:?MonsterThink@CBaseMonster@@UAEXXZ
	DD	FLAT:?IRelationship@CBaseMonster@@UAEHPAVCBaseEntity@@@Z
	DD	FLAT:?MonsterInit@CBaseMonster@@UAEXXZ
	DD	FLAT:?MonsterInitDead@CBaseMonster@@UAEXXZ
	DD	FLAT:?BecomeDead@CBaseMonster@@UAEXXZ
	DD	FLAT:?StartMonster@CBaseMonster@@UAEXXZ
	DD	FLAT:?BestVisibleEnemy@CBaseMonster@@UAEPAVCBaseEntity@@XZ
	DD	FLAT:?FInViewCone@CBaseMonster@@UAEHPAVVector@@@Z
	DD	FLAT:?FInViewCone@CBaseMonster@@UAEHPAVCBaseEntity@@M@Z
	DD	FLAT:?CheckLocalMove@CBaseMonster@@UAEHABVVector@@0PAVCBaseEntity@@PAM@Z
	DD	FLAT:?Move@CBaseMonster@@UAEXM@Z
	DD	FLAT:?MoveExecute@CBaseMonster@@UAEXPAVCBaseEntity@@ABVVector@@M@Z
	DD	FLAT:?ShouldAdvanceRoute@CBaseMonster@@UAEHM@Z
	DD	FLAT:?GetStoppedActivity@CBaseMonster@@UAE?AW4Activity@@XZ
	DD	FLAT:?Stop@CBaseMonster@@UAEXXZ
	DD	FLAT:?CheckRangeAttack1@CBaseMonster@@UAEHMM@Z
	DD	FLAT:?CheckRangeAttack2@CBaseMonster@@UAEHMM@Z
	DD	FLAT:?CheckMeleeAttack1@CBaseMonster@@UAEHMM@Z
	DD	FLAT:?CheckMeleeAttack2@CBaseMonster@@UAEHMM@Z
	DD	FLAT:?ScheduleFromName@CBaseMonster@@UAEPAUSchedule_t@@PBD@Z
	DD	FLAT:?StartTask@CBaseMonster@@UAEXPAUTask_t@@@Z
	DD	FLAT:?RunTask@CBaseMonster@@UAEXPAUTask_t@@@Z
	DD	FLAT:?GetScheduleOfType@CBaseMonster@@UAEPAUSchedule_t@@H@Z
	DD	FLAT:?GetSchedule@CBaseMonster@@UAEPAUSchedule_t@@XZ
	DD	FLAT:?ScheduleChange@CBaseMonster@@UAEXXZ
	DD	FLAT:?CanPlaySequence@CBaseMonster@@UAEHHH@Z
	DD	FLAT:?CanPlaySentence@CBaseMonster@@UAEHH@Z
	DD	FLAT:?PlaySentence@CBaseMonster@@UAEXPBDMMMH@Z
	DD	FLAT:?PlayScriptedSentence@CBaseMonster@@UAEXPBDMMMHPAVCBaseEntity@@H@Z
	DD	FLAT:?SentenceStop@CBaseMonster@@UAEXXZ
	DD	FLAT:?GetIdealState@CBaseMonster@@UAE?AW4MONSTERSTATE@@XZ
	DD	FLAT:?SetActivity@CBaseMonster@@UAEXW4Activity@@@Z
	DD	FLAT:?ReportAIState@CBaseMonster@@UAEXXZ
	DD	FLAT:?CheckEnemy@CBaseMonster@@UAEHPAVCBaseEntity@@@Z
	DD	FLAT:?FTriangulate@CBaseMonster@@UAEHABVVector@@0MPAVCBaseEntity@@PAV2@@Z
	DD	FLAT:?SetYawSpeed@CBaseMonster@@UAEXXZ
	DD	FLAT:?BuildNearestRoute@CBaseMonster@@UAEHVVector@@0MM@Z
	DD	FLAT:?FindCover@CBaseMonster@@UAEHVVector@@0MM@Z
	DD	FLAT:?FindRunAway@CBaseMonster@@UAEHVVector@@MM@Z
	DD	FLAT:?FValidateCover@CBaseMonster@@UAEHABVVector@@@Z
	DD	FLAT:?CoverRadius@CBaseMonster@@UAEMXZ
	DD	FLAT:?FCanCheckAttacks@CBaseMonster@@UAEHXZ
	DD	FLAT:?CheckAmmo@CBaseMonster@@UAEXXZ
	DD	FLAT:?IgnoreConditions@CBaseMonster@@UAEHXZ
	DD	FLAT:?FValidateHintType@CBaseMonster@@UAEHF@Z
	DD	FLAT:?FCanActiveIdle@CBaseMonster@@UAEHXZ
	DD	FLAT:?ISoundMask@CBaseMonster@@UAEHXZ
	DD	FLAT:?PBestSound@CBaseMonster@@UAEPAVCSound@@XZ
	DD	FLAT:?PBestScent@CBaseMonster@@UAEPAVCSound@@XZ
	DD	FLAT:?HearingSensitivity@CBaseMonster@@UAEMXZ
	DD	FLAT:?BarnacleVictimBitten@CBaseMonster@@UAEXPAUentvars_s@@@Z
	DD	FLAT:?BarnacleVictimReleased@CBaseMonster@@UAEXXZ
	DD	FLAT:?PrescheduleThink@CBaseMonster@@UAEXXZ
	DD	FLAT:?GetDeathActivity@CBaseMonster@@UAE?AW4Activity@@XZ
	DD	FLAT:?GibMonster@CBaseMonster@@UAEXXZ
	DD	FLAT:?HasHumanGibs@CBaseMonster@@UAEHXZ
	DD	FLAT:?HasAlienGibs@CBaseMonster@@UAEHXZ
	DD	FLAT:?FadeMonster@CBaseMonster@@UAEXXZ
	DD	FLAT:?GetGunPosition@CBaseMonster@@UAE?AVVector@@XZ
	DD	FLAT:?DeathSound@CBaseMonster@@UAEXXZ
	DD	FLAT:?AlertSound@CBaseMonster@@UAEXXZ
	DD	FLAT:?IdleSound@CBaseMonster@@UAEXXZ
	DD	FLAT:?PainSound@CBaseMonster@@UAEXXZ
	DD	FLAT:?StepSound@CBaseMonster@@UAEXXZ
	DD	FLAT:?StopFollowing@CBaseMonster@@UAEXH@Z
CONST	ENDS
;	COMDAT ??_7CBaseToggle@@6B@
CONST	SEGMENT
??_7CBaseToggle@@6B@ DD FLAT:??_R4CBaseToggle@@6B@	; CBaseToggle::`vftable'
	DD	FLAT:?GetDataDescMap@CBaseToggle@@UAEPAUdatamap_s@@XZ
	DD	FLAT:?Spawn@CBaseEntity@@UAEXXZ
	DD	FLAT:?Precache@CBaseEntity@@UAEXXZ
	DD	FLAT:?KeyValue@CBaseToggle@@UAEXPAUKeyValueData_s@@@Z
	DD	FLAT:?Save@CBaseEntity@@UAEHAAVCSave@@@Z
	DD	FLAT:?Restore@CBaseToggle@@UAEHAAVCRestore@@@Z
	DD	FLAT:?ObjectCaps@CBaseEntity@@UAEHXZ
	DD	FLAT:?Activate@CBaseEntity@@UAEXXZ
	DD	FLAT:?OnChangeLevel@CBaseEntity@@UAEXXZ
	DD	FLAT:?OnTeleport@CBaseEntity@@UAEXXZ
	DD	FLAT:?PortalSleep@CBaseEntity@@UAEXM@Z
	DD	FLAT:?StartMessage@CBaseEntity@@UAEXPAVCBasePlayer@@@Z
	DD	FLAT:?GetPosition@CBaseEntity@@UAEMXZ
	DD	FLAT:?OnChangeParent@CBaseEntity@@UAEXXZ
	DD	FLAT:?OnClearParent@CBaseEntity@@UAEXXZ
	DD	FLAT:?OnRemove@CBaseEntity@@UAEXXZ
	DD	FLAT:?SetObjectCollisionBox@CBaseEntity@@UAEXXZ
	DD	FLAT:?Classify@CBaseEntity@@UAEHXZ
	DD	FLAT:?DeathNotice@CBaseEntity@@UAEXPAUentvars_s@@@Z
	DD	FLAT:?IsRigidBody@CBaseEntity@@UAEHXZ
	DD	FLAT:?SetNextThink@CBaseEntity@@UAEXM@Z
	DD	FLAT:?GetState@CBaseEntity@@UAE?AW4STATE@@PAV1@@Z
	DD	FLAT:?GetState@CBaseToggle@@UAE?AW4STATE@@XZ
	DD	FLAT:?TraceAttack@CBaseEntity@@UAEXPAUentvars_s@@MVVector@@PAUgametrace_s@@H@Z
	DD	FLAT:?TakeDamage@CBaseEntity@@UAEHPAUentvars_s@@0MH@Z
	DD	FLAT:?TakeHealth@CBaseEntity@@UAEHMH@Z
	DD	FLAT:?TakeArmor@CBaseEntity@@UAEHMH@Z
	DD	FLAT:?Killed@CBaseEntity@@UAEXPAUentvars_s@@H@Z
	DD	FLAT:?BloodColor@CBaseEntity@@UAEHXZ
	DD	FLAT:?TraceBleed@CBaseEntity@@UAEXMVVector@@PAUgametrace_s@@H@Z
	DD	FLAT:?IsTriggered@CBaseEntity@@UAEHPAV1@@Z
	DD	FLAT:?MyMonsterPointer@CBaseEntity@@UAEPAVCBaseMonster@@XZ
	DD	FLAT:?MySquadMonsterPointer@CBaseEntity@@UAEPAVCSquadMonster@@XZ
	DD	FLAT:?GetToggleState@CBaseToggle@@UAEHXZ
	DD	FLAT:?AddPoints@CBaseEntity@@UAEXHH@Z
	DD	FLAT:?AddPointsToTeam@CBaseEntity@@UAEXHH@Z
	DD	FLAT:?AddPlayerItem@CBaseEntity@@UAEHPAVCBasePlayerItem@@@Z
	DD	FLAT:?RemovePlayerItem@CBaseEntity@@UAEHPAVCBasePlayerItem@@@Z
	DD	FLAT:?GiveAmmo@CBaseEntity@@UAEHHPADH@Z
	DD	FLAT:?GetDelay@CBaseToggle@@UAEMXZ
	DD	FLAT:?IsMoving@CBaseEntity@@UAEHXZ
	DD	FLAT:?OverrideReset@CBaseEntity@@UAEXXZ
	DD	FLAT:?TransferReset@CBaseEntity@@UAEXXZ
	DD	FLAT:?DamageDecal@CBaseEntity@@UAEHH@Z
	DD	FLAT:?SetToggleState@CBaseEntity@@UAEXH@Z
	DD	FLAT:?StartSneaking@CBaseEntity@@UAEXXZ
	DD	FLAT:?StopSneaking@CBaseEntity@@UAEXXZ
	DD	FLAT:?OnControls@CBaseEntity@@UAEHPAV1@@Z
	DD	FLAT:?IsSneaking@CBaseEntity@@UAEHXZ
	DD	FLAT:?IsAlive@CBaseEntity@@UAEHXZ
	DD	FLAT:?IsBSPModel@CBaseEntity@@UAEHXZ
	DD	FLAT:?IsCustomModel@CBaseEntity@@UAEHXZ
	DD	FLAT:?ReflectGauss@CBaseEntity@@UAEHXZ
	DD	FLAT:?HasTarget@CBaseEntity@@UAEHH@Z
	DD	FLAT:?IsInWorld@CBaseEntity@@UAEHH@Z
	DD	FLAT:?IsPlayer@CBaseEntity@@UAEHXZ
	DD	FLAT:?IsNetClient@CBaseEntity@@UAEHXZ
	DD	FLAT:?IsMonster@CBaseEntity@@UAEHXZ
	DD	FLAT:?IsPushable@CBaseEntity@@UAEHXZ
	DD	FLAT:?IsProjectile@CBaseEntity@@UAEHXZ
	DD	FLAT:?IsFuncScreen@CBaseEntity@@UAEHXZ
	DD	FLAT:?IsPortal@CBaseEntity@@UAEHXZ
	DD	FLAT:?IsTank@CBaseEntity@@UAEHXZ
	DD	FLAT:?IsMover@CBaseEntity@@UAEHXZ
	DD	FLAT:?IsBreakable@CBaseEntity@@UAEHXZ
	DD	FLAT:?TeamID@CBaseEntity@@UAEPBDXZ
	DD	FLAT:?AddSpawnFlags@CBaseEntity@@UAEXH@Z
	DD	FLAT:?HasSpawnFlags@CBaseEntity@@UBE_NH@Z
	DD	FLAT:?SetFadeDistance@CBaseEntity@@UAEXH@Z
	DD	FLAT:?SetFlag@CBaseEntity@@UAEXH@Z
	DD	FLAT:?HasFlag@CBaseEntity@@UBE_NH@Z
	DD	FLAT:?RemoveFlag@CBaseEntity@@UAEXH@Z
	DD	FLAT:?SetNullModel@CBaseEntity@@UAEXXZ
	DD	FLAT:?OnPickupObject@CBaseEntity@@UAEXXZ
	DD	FLAT:?OnDropObject@CBaseEntity@@UAEXXZ
	DD	FLAT:?GetNextTarget@CBaseEntity@@UAEPAV1@XZ
	DD	FLAT:?Think@CBaseEntity@@UAEXXZ
	DD	FLAT:?Use@CBaseEntity@@UAEXPAV1@0W4USE_TYPE@@M@Z
	DD	FLAT:?Touch@CBaseEntity@@UAEXPAV1@@Z
	DD	FLAT:?Blocked@CBaseEntity@@UAEXPAV1@@Z
	DD	FLAT:?MoveDone@CBaseToggle@@UAEXXZ
	DD	FLAT:?Respawn@CBaseEntity@@UAEPAV1@XZ
	DD	FLAT:?UpdateOwner@CBaseEntity@@UAEXXZ
	DD	FLAT:?FBecomeProne@CBaseEntity@@UAEHXZ
	DD	FLAT:?Center@CBaseEntity@@UAE?AVVector@@XZ
	DD	FLAT:?EyePosition@CBaseEntity@@UAE?AVVector@@XZ
	DD	FLAT:?EarPosition@CBaseEntity@@UAE?AVVector@@XZ
	DD	FLAT:?BodyTarget@CBaseEntity@@UAE?AVVector@@ABV2@@Z
	DD	FLAT:?IsPointSized@CBaseEntity@@UBEHXZ
	DD	FLAT:?Illumination@CBaseEntity@@UAEHXZ
	DD	FLAT:?FVisible@CBaseEntity@@UAEHABVVector@@@Z
	DD	FLAT:?FVisible@CBaseEntity@@UAEHPAV1@@Z
	DD	FLAT:?ShouldCollide@CBaseEntity@@UAEHPAV1@@Z
	DD	FLAT:?ClearEffects@CBaseEntity@@UAEXXZ
	DD	FLAT:?HandleAnimEvent@CBaseAnimating@@UAEXPAUMonsterEvent_t@@@Z
CONST	ENDS
;	COMDAT ??_7CBaseAnimating@@6B@
CONST	SEGMENT
??_7CBaseAnimating@@6B@ DD FLAT:??_R4CBaseAnimating@@6B@ ; CBaseAnimating::`vftable'
	DD	FLAT:?GetDataDescMap@CBaseAnimating@@UAEPAUdatamap_s@@XZ
	DD	FLAT:?Spawn@CBaseEntity@@UAEXXZ
	DD	FLAT:?Precache@CBaseEntity@@UAEXXZ
	DD	FLAT:?KeyValue@CBaseDelay@@UAEXPAUKeyValueData_s@@@Z
	DD	FLAT:?Save@CBaseEntity@@UAEHAAVCSave@@@Z
	DD	FLAT:?Restore@CBaseEntity@@UAEHAAVCRestore@@@Z
	DD	FLAT:?ObjectCaps@CBaseEntity@@UAEHXZ
	DD	FLAT:?Activate@CBaseEntity@@UAEXXZ
	DD	FLAT:?OnChangeLevel@CBaseEntity@@UAEXXZ
	DD	FLAT:?OnTeleport@CBaseEntity@@UAEXXZ
	DD	FLAT:?PortalSleep@CBaseEntity@@UAEXM@Z
	DD	FLAT:?StartMessage@CBaseEntity@@UAEXPAVCBasePlayer@@@Z
	DD	FLAT:?GetPosition@CBaseEntity@@UAEMXZ
	DD	FLAT:?OnChangeParent@CBaseEntity@@UAEXXZ
	DD	FLAT:?OnClearParent@CBaseEntity@@UAEXXZ
	DD	FLAT:?OnRemove@CBaseEntity@@UAEXXZ
	DD	FLAT:?SetObjectCollisionBox@CBaseEntity@@UAEXXZ
	DD	FLAT:?Classify@CBaseEntity@@UAEHXZ
	DD	FLAT:?DeathNotice@CBaseEntity@@UAEXPAUentvars_s@@@Z
	DD	FLAT:?IsRigidBody@CBaseEntity@@UAEHXZ
	DD	FLAT:?SetNextThink@CBaseEntity@@UAEXM@Z
	DD	FLAT:?GetState@CBaseEntity@@UAE?AW4STATE@@PAV1@@Z
	DD	FLAT:?GetState@CBaseDelay@@UAE?AW4STATE@@XZ
	DD	FLAT:?TraceAttack@CBaseEntity@@UAEXPAUentvars_s@@MVVector@@PAUgametrace_s@@H@Z
	DD	FLAT:?TakeDamage@CBaseEntity@@UAEHPAUentvars_s@@0MH@Z
	DD	FLAT:?TakeHealth@CBaseEntity@@UAEHMH@Z
	DD	FLAT:?TakeArmor@CBaseEntity@@UAEHMH@Z
	DD	FLAT:?Killed@CBaseEntity@@UAEXPAUentvars_s@@H@Z
	DD	FLAT:?BloodColor@CBaseEntity@@UAEHXZ
	DD	FLAT:?TraceBleed@CBaseEntity@@UAEXMVVector@@PAUgametrace_s@@H@Z
	DD	FLAT:?IsTriggered@CBaseEntity@@UAEHPAV1@@Z
	DD	FLAT:?MyMonsterPointer@CBaseEntity@@UAEPAVCBaseMonster@@XZ
	DD	FLAT:?MySquadMonsterPointer@CBaseEntity@@UAEPAVCSquadMonster@@XZ
	DD	FLAT:?GetToggleState@CBaseEntity@@UAEHXZ
	DD	FLAT:?AddPoints@CBaseEntity@@UAEXHH@Z
	DD	FLAT:?AddPointsToTeam@CBaseEntity@@UAEXHH@Z
	DD	FLAT:?AddPlayerItem@CBaseEntity@@UAEHPAVCBasePlayerItem@@@Z
	DD	FLAT:?RemovePlayerItem@CBaseEntity@@UAEHPAVCBasePlayerItem@@@Z
	DD	FLAT:?GiveAmmo@CBaseEntity@@UAEHHPADH@Z
	DD	FLAT:?GetDelay@CBaseEntity@@UAEMXZ
	DD	FLAT:?IsMoving@CBaseEntity@@UAEHXZ
	DD	FLAT:?OverrideReset@CBaseEntity@@UAEXXZ
	DD	FLAT:?TransferReset@CBaseEntity@@UAEXXZ
	DD	FLAT:?DamageDecal@CBaseEntity@@UAEHH@Z
	DD	FLAT:?SetToggleState@CBaseEntity@@UAEXH@Z
	DD	FLAT:?StartSneaking@CBaseEntity@@UAEXXZ
	DD	FLAT:?StopSneaking@CBaseEntity@@UAEXXZ
	DD	FLAT:?OnControls@CBaseEntity@@UAEHPAV1@@Z
	DD	FLAT:?IsSneaking@CBaseEntity@@UAEHXZ
	DD	FLAT:?IsAlive@CBaseEntity@@UAEHXZ
	DD	FLAT:?IsBSPModel@CBaseEntity@@UAEHXZ
	DD	FLAT:?IsCustomModel@CBaseEntity@@UAEHXZ
	DD	FLAT:?ReflectGauss@CBaseEntity@@UAEHXZ
	DD	FLAT:?HasTarget@CBaseEntity@@UAEHH@Z
	DD	FLAT:?IsInWorld@CBaseEntity@@UAEHH@Z
	DD	FLAT:?IsPlayer@CBaseEntity@@UAEHXZ
	DD	FLAT:?IsNetClient@CBaseEntity@@UAEHXZ
	DD	FLAT:?IsMonster@CBaseEntity@@UAEHXZ
	DD	FLAT:?IsPushable@CBaseEntity@@UAEHXZ
	DD	FLAT:?IsProjectile@CBaseEntity@@UAEHXZ
	DD	FLAT:?IsFuncScreen@CBaseEntity@@UAEHXZ
	DD	FLAT:?IsPortal@CBaseEntity@@UAEHXZ
	DD	FLAT:?IsTank@CBaseEntity@@UAEHXZ
	DD	FLAT:?IsMover@CBaseEntity@@UAEHXZ
	DD	FLAT:?IsBreakable@CBaseEntity@@UAEHXZ
	DD	FLAT:?TeamID@CBaseEntity@@UAEPBDXZ
	DD	FLAT:?AddSpawnFlags@CBaseEntity@@UAEXH@Z
	DD	FLAT:?HasSpawnFlags@CBaseEntity@@UBE_NH@Z
	DD	FLAT:?SetFadeDistance@CBaseEntity@@UAEXH@Z
	DD	FLAT:?SetFlag@CBaseEntity@@UAEXH@Z
	DD	FLAT:?HasFlag@CBaseEntity@@UBE_NH@Z
	DD	FLAT:?RemoveFlag@CBaseEntity@@UAEXH@Z
	DD	FLAT:?SetNullModel@CBaseEntity@@UAEXXZ
	DD	FLAT:?OnPickupObject@CBaseEntity@@UAEXXZ
	DD	FLAT:?OnDropObject@CBaseEntity@@UAEXXZ
	DD	FLAT:?GetNextTarget@CBaseEntity@@UAEPAV1@XZ
	DD	FLAT:?Think@CBaseEntity@@UAEXXZ
	DD	FLAT:?Use@CBaseEntity@@UAEXPAV1@0W4USE_TYPE@@M@Z
	DD	FLAT:?Touch@CBaseEntity@@UAEXPAV1@@Z
	DD	FLAT:?Blocked@CBaseEntity@@UAEXPAV1@@Z
	DD	FLAT:?MoveDone@CBaseEntity@@UAEXXZ
	DD	FLAT:?Respawn@CBaseEntity@@UAEPAV1@XZ
	DD	FLAT:?UpdateOwner@CBaseEntity@@UAEXXZ
	DD	FLAT:?FBecomeProne@CBaseEntity@@UAEHXZ
	DD	FLAT:?Center@CBaseEntity@@UAE?AVVector@@XZ
	DD	FLAT:?EyePosition@CBaseEntity@@UAE?AVVector@@XZ
	DD	FLAT:?EarPosition@CBaseEntity@@UAE?AVVector@@XZ
	DD	FLAT:?BodyTarget@CBaseEntity@@UAE?AVVector@@ABV2@@Z
	DD	FLAT:?IsPointSized@CBaseEntity@@UBEHXZ
	DD	FLAT:?Illumination@CBaseEntity@@UAEHXZ
	DD	FLAT:?FVisible@CBaseEntity@@UAEHABVVector@@@Z
	DD	FLAT:?FVisible@CBaseEntity@@UAEHPAV1@@Z
	DD	FLAT:?ShouldCollide@CBaseEntity@@UAEHPAV1@@Z
	DD	FLAT:?ClearEffects@CBaseEntity@@UAEXXZ
	DD	FLAT:?HandleAnimEvent@CBaseAnimating@@UAEXPAUMonsterEvent_t@@@Z
CONST	ENDS
;	COMDAT ??_7CBaseDelay@@6B@
CONST	SEGMENT
??_7CBaseDelay@@6B@ DD FLAT:??_R4CBaseDelay@@6B@	; CBaseDelay::`vftable'
	DD	FLAT:?GetDataDescMap@CBaseDelay@@UAEPAUdatamap_s@@XZ
	DD	FLAT:?Spawn@CBaseEntity@@UAEXXZ
	DD	FLAT:?Precache@CBaseEntity@@UAEXXZ
	DD	FLAT:?KeyValue@CBaseDelay@@UAEXPAUKeyValueData_s@@@Z
	DD	FLAT:?Save@CBaseEntity@@UAEHAAVCSave@@@Z
	DD	FLAT:?Restore@CBaseEntity@@UAEHAAVCRestore@@@Z
	DD	FLAT:?ObjectCaps@CBaseEntity@@UAEHXZ
	DD	FLAT:?Activate@CBaseEntity@@UAEXXZ
	DD	FLAT:?OnChangeLevel@CBaseEntity@@UAEXXZ
	DD	FLAT:?OnTeleport@CBaseEntity@@UAEXXZ
	DD	FLAT:?PortalSleep@CBaseEntity@@UAEXM@Z
	DD	FLAT:?StartMessage@CBaseEntity@@UAEXPAVCBasePlayer@@@Z
	DD	FLAT:?GetPosition@CBaseEntity@@UAEMXZ
	DD	FLAT:?OnChangeParent@CBaseEntity@@UAEXXZ
	DD	FLAT:?OnClearParent@CBaseEntity@@UAEXXZ
	DD	FLAT:?OnRemove@CBaseEntity@@UAEXXZ
	DD	FLAT:?SetObjectCollisionBox@CBaseEntity@@UAEXXZ
	DD	FLAT:?Classify@CBaseEntity@@UAEHXZ
	DD	FLAT:?DeathNotice@CBaseEntity@@UAEXPAUentvars_s@@@Z
	DD	FLAT:?IsRigidBody@CBaseEntity@@UAEHXZ
	DD	FLAT:?SetNextThink@CBaseEntity@@UAEXM@Z
	DD	FLAT:?GetState@CBaseEntity@@UAE?AW4STATE@@PAV1@@Z
	DD	FLAT:?GetState@CBaseDelay@@UAE?AW4STATE@@XZ
	DD	FLAT:?TraceAttack@CBaseEntity@@UAEXPAUentvars_s@@MVVector@@PAUgametrace_s@@H@Z
	DD	FLAT:?TakeDamage@CBaseEntity@@UAEHPAUentvars_s@@0MH@Z
	DD	FLAT:?TakeHealth@CBaseEntity@@UAEHMH@Z
	DD	FLAT:?TakeArmor@CBaseEntity@@UAEHMH@Z
	DD	FLAT:?Killed@CBaseEntity@@UAEXPAUentvars_s@@H@Z
	DD	FLAT:?BloodColor@CBaseEntity@@UAEHXZ
	DD	FLAT:?TraceBleed@CBaseEntity@@UAEXMVVector@@PAUgametrace_s@@H@Z
	DD	FLAT:?IsTriggered@CBaseEntity@@UAEHPAV1@@Z
	DD	FLAT:?MyMonsterPointer@CBaseEntity@@UAEPAVCBaseMonster@@XZ
	DD	FLAT:?MySquadMonsterPointer@CBaseEntity@@UAEPAVCSquadMonster@@XZ
	DD	FLAT:?GetToggleState@CBaseEntity@@UAEHXZ
	DD	FLAT:?AddPoints@CBaseEntity@@UAEXHH@Z
	DD	FLAT:?AddPointsToTeam@CBaseEntity@@UAEXHH@Z
	DD	FLAT:?AddPlayerItem@CBaseEntity@@UAEHPAVCBasePlayerItem@@@Z
	DD	FLAT:?RemovePlayerItem@CBaseEntity@@UAEHPAVCBasePlayerItem@@@Z
	DD	FLAT:?GiveAmmo@CBaseEntity@@UAEHHPADH@Z
	DD	FLAT:?GetDelay@CBaseEntity@@UAEMXZ
	DD	FLAT:?IsMoving@CBaseEntity@@UAEHXZ
	DD	FLAT:?OverrideReset@CBaseEntity@@UAEXXZ
	DD	FLAT:?TransferReset@CBaseEntity@@UAEXXZ
	DD	FLAT:?DamageDecal@CBaseEntity@@UAEHH@Z
	DD	FLAT:?SetToggleState@CBaseEntity@@UAEXH@Z
	DD	FLAT:?StartSneaking@CBaseEntity@@UAEXXZ
	DD	FLAT:?StopSneaking@CBaseEntity@@UAEXXZ
	DD	FLAT:?OnControls@CBaseEntity@@UAEHPAV1@@Z
	DD	FLAT:?IsSneaking@CBaseEntity@@UAEHXZ
	DD	FLAT:?IsAlive@CBaseEntity@@UAEHXZ
	DD	FLAT:?IsBSPModel@CBaseEntity@@UAEHXZ
	DD	FLAT:?IsCustomModel@CBaseEntity@@UAEHXZ
	DD	FLAT:?ReflectGauss@CBaseEntity@@UAEHXZ
	DD	FLAT:?HasTarget@CBaseEntity@@UAEHH@Z
	DD	FLAT:?IsInWorld@CBaseEntity@@UAEHH@Z
	DD	FLAT:?IsPlayer@CBaseEntity@@UAEHXZ
	DD	FLAT:?IsNetClient@CBaseEntity@@UAEHXZ
	DD	FLAT:?IsMonster@CBaseEntity@@UAEHXZ
	DD	FLAT:?IsPushable@CBaseEntity@@UAEHXZ
	DD	FLAT:?IsProjectile@CBaseEntity@@UAEHXZ
	DD	FLAT:?IsFuncScreen@CBaseEntity@@UAEHXZ
	DD	FLAT:?IsPortal@CBaseEntity@@UAEHXZ
	DD	FLAT:?IsTank@CBaseEntity@@UAEHXZ
	DD	FLAT:?IsMover@CBaseEntity@@UAEHXZ
	DD	FLAT:?IsBreakable@CBaseEntity@@UAEHXZ
	DD	FLAT:?TeamID@CBaseEntity@@UAEPBDXZ
	DD	FLAT:?AddSpawnFlags@CBaseEntity@@UAEXH@Z
	DD	FLAT:?HasSpawnFlags@CBaseEntity@@UBE_NH@Z
	DD	FLAT:?SetFadeDistance@CBaseEntity@@UAEXH@Z
	DD	FLAT:?SetFlag@CBaseEntity@@UAEXH@Z
	DD	FLAT:?HasFlag@CBaseEntity@@UBE_NH@Z
	DD	FLAT:?RemoveFlag@CBaseEntity@@UAEXH@Z
	DD	FLAT:?SetNullModel@CBaseEntity@@UAEXXZ
	DD	FLAT:?OnPickupObject@CBaseEntity@@UAEXXZ
	DD	FLAT:?OnDropObject@CBaseEntity@@UAEXXZ
	DD	FLAT:?GetNextTarget@CBaseEntity@@UAEPAV1@XZ
	DD	FLAT:?Think@CBaseEntity@@UAEXXZ
	DD	FLAT:?Use@CBaseEntity@@UAEXPAV1@0W4USE_TYPE@@M@Z
	DD	FLAT:?Touch@CBaseEntity@@UAEXPAV1@@Z
	DD	FLAT:?Blocked@CBaseEntity@@UAEXPAV1@@Z
	DD	FLAT:?MoveDone@CBaseEntity@@UAEXXZ
	DD	FLAT:?Respawn@CBaseEntity@@UAEPAV1@XZ
	DD	FLAT:?UpdateOwner@CBaseEntity@@UAEXXZ
	DD	FLAT:?FBecomeProne@CBaseEntity@@UAEHXZ
	DD	FLAT:?Center@CBaseEntity@@UAE?AVVector@@XZ
	DD	FLAT:?EyePosition@CBaseEntity@@UAE?AVVector@@XZ
	DD	FLAT:?EarPosition@CBaseEntity@@UAE?AVVector@@XZ
	DD	FLAT:?BodyTarget@CBaseEntity@@UAE?AVVector@@ABV2@@Z
	DD	FLAT:?IsPointSized@CBaseEntity@@UBEHXZ
	DD	FLAT:?Illumination@CBaseEntity@@UAEHXZ
	DD	FLAT:?FVisible@CBaseEntity@@UAEHABVVector@@@Z
	DD	FLAT:?FVisible@CBaseEntity@@UAEHPAV1@@Z
	DD	FLAT:?ShouldCollide@CBaseEntity@@UAEHPAV1@@Z
	DD	FLAT:?ClearEffects@CBaseEntity@@UAEXXZ
CONST	ENDS
;	COMDAT ??_7CPointEntity@@6B@
CONST	SEGMENT
??_7CPointEntity@@6B@ DD FLAT:??_R4CPointEntity@@6B@	; CPointEntity::`vftable'
	DD	FLAT:?GetDataDescMap@CBaseEntity@@UAEPAUdatamap_s@@XZ
	DD	FLAT:?Spawn@CPointEntity@@UAEXXZ
	DD	FLAT:?Precache@CBaseEntity@@UAEXXZ
	DD	FLAT:?KeyValue@CBaseEntity@@UAEXPAUKeyValueData_s@@@Z
	DD	FLAT:?Save@CBaseEntity@@UAEHAAVCSave@@@Z
	DD	FLAT:?Restore@CBaseEntity@@UAEHAAVCRestore@@@Z
	DD	FLAT:?ObjectCaps@CPointEntity@@UAEHXZ
	DD	FLAT:?Activate@CBaseEntity@@UAEXXZ
	DD	FLAT:?OnChangeLevel@CBaseEntity@@UAEXXZ
	DD	FLAT:?OnTeleport@CBaseEntity@@UAEXXZ
	DD	FLAT:?PortalSleep@CBaseEntity@@UAEXM@Z
	DD	FLAT:?StartMessage@CBaseEntity@@UAEXPAVCBasePlayer@@@Z
	DD	FLAT:?GetPosition@CBaseEntity@@UAEMXZ
	DD	FLAT:?OnChangeParent@CBaseEntity@@UAEXXZ
	DD	FLAT:?OnClearParent@CBaseEntity@@UAEXXZ
	DD	FLAT:?OnRemove@CBaseEntity@@UAEXXZ
	DD	FLAT:?SetObjectCollisionBox@CBaseEntity@@UAEXXZ
	DD	FLAT:?Classify@CBaseEntity@@UAEHXZ
	DD	FLAT:?DeathNotice@CBaseEntity@@UAEXPAUentvars_s@@@Z
	DD	FLAT:?IsRigidBody@CBaseEntity@@UAEHXZ
	DD	FLAT:?SetNextThink@CBaseEntity@@UAEXM@Z
	DD	FLAT:?GetState@CBaseEntity@@UAE?AW4STATE@@PAV1@@Z
	DD	FLAT:?GetState@CBaseEntity@@UAE?AW4STATE@@XZ
	DD	FLAT:?TraceAttack@CBaseEntity@@UAEXPAUentvars_s@@MVVector@@PAUgametrace_s@@H@Z
	DD	FLAT:?TakeDamage@CBaseEntity@@UAEHPAUentvars_s@@0MH@Z
	DD	FLAT:?TakeHealth@CBaseEntity@@UAEHMH@Z
	DD	FLAT:?TakeArmor@CBaseEntity@@UAEHMH@Z
	DD	FLAT:?Killed@CBaseEntity@@UAEXPAUentvars_s@@H@Z
	DD	FLAT:?BloodColor@CBaseEntity@@UAEHXZ
	DD	FLAT:?TraceBleed@CBaseEntity@@UAEXMVVector@@PAUgametrace_s@@H@Z
	DD	FLAT:?IsTriggered@CBaseEntity@@UAEHPAV1@@Z
	DD	FLAT:?MyMonsterPointer@CBaseEntity@@UAEPAVCBaseMonster@@XZ
	DD	FLAT:?MySquadMonsterPointer@CBaseEntity@@UAEPAVCSquadMonster@@XZ
	DD	FLAT:?GetToggleState@CBaseEntity@@UAEHXZ
	DD	FLAT:?AddPoints@CBaseEntity@@UAEXHH@Z
	DD	FLAT:?AddPointsToTeam@CBaseEntity@@UAEXHH@Z
	DD	FLAT:?AddPlayerItem@CBaseEntity@@UAEHPAVCBasePlayerItem@@@Z
	DD	FLAT:?RemovePlayerItem@CBaseEntity@@UAEHPAVCBasePlayerItem@@@Z
	DD	FLAT:?GiveAmmo@CBaseEntity@@UAEHHPADH@Z
	DD	FLAT:?GetDelay@CBaseEntity@@UAEMXZ
	DD	FLAT:?IsMoving@CBaseEntity@@UAEHXZ
	DD	FLAT:?OverrideReset@CBaseEntity@@UAEXXZ
	DD	FLAT:?TransferReset@CBaseEntity@@UAEXXZ
	DD	FLAT:?DamageDecal@CBaseEntity@@UAEHH@Z
	DD	FLAT:?SetToggleState@CBaseEntity@@UAEXH@Z
	DD	FLAT:?StartSneaking@CBaseEntity@@UAEXXZ
	DD	FLAT:?StopSneaking@CBaseEntity@@UAEXXZ
	DD	FLAT:?OnControls@CBaseEntity@@UAEHPAV1@@Z
	DD	FLAT:?IsSneaking@CBaseEntity@@UAEHXZ
	DD	FLAT:?IsAlive@CBaseEntity@@UAEHXZ
	DD	FLAT:?IsBSPModel@CBaseEntity@@UAEHXZ
	DD	FLAT:?IsCustomModel@CBaseEntity@@UAEHXZ
	DD	FLAT:?ReflectGauss@CBaseEntity@@UAEHXZ
	DD	FLAT:?HasTarget@CBaseEntity@@UAEHH@Z
	DD	FLAT:?IsInWorld@CBaseEntity@@UAEHH@Z
	DD	FLAT:?IsPlayer@CBaseEntity@@UAEHXZ
	DD	FLAT:?IsNetClient@CBaseEntity@@UAEHXZ
	DD	FLAT:?IsMonster@CBaseEntity@@UAEHXZ
	DD	FLAT:?IsPushable@CBaseEntity@@UAEHXZ
	DD	FLAT:?IsProjectile@CBaseEntity@@UAEHXZ
	DD	FLAT:?IsFuncScreen@CBaseEntity@@UAEHXZ
	DD	FLAT:?IsPortal@CBaseEntity@@UAEHXZ
	DD	FLAT:?IsTank@CBaseEntity@@UAEHXZ
	DD	FLAT:?IsMover@CBaseEntity@@UAEHXZ
	DD	FLAT:?IsBreakable@CBaseEntity@@UAEHXZ
	DD	FLAT:?TeamID@CBaseEntity@@UAEPBDXZ
	DD	FLAT:?AddSpawnFlags@CBaseEntity@@UAEXH@Z
	DD	FLAT:?HasSpawnFlags@CBaseEntity@@UBE_NH@Z
	DD	FLAT:?SetFadeDistance@CBaseEntity@@UAEXH@Z
	DD	FLAT:?SetFlag@CBaseEntity@@UAEXH@Z
	DD	FLAT:?HasFlag@CBaseEntity@@UBE_NH@Z
	DD	FLAT:?RemoveFlag@CBaseEntity@@UAEXH@Z
	DD	FLAT:?SetNullModel@CBaseEntity@@UAEXXZ
	DD	FLAT:?OnPickupObject@CBaseEntity@@UAEXXZ
	DD	FLAT:?OnDropObject@CBaseEntity@@UAEXXZ
	DD	FLAT:?GetNextTarget@CBaseEntity@@UAEPAV1@XZ
	DD	FLAT:?Think@CBaseEntity@@UAEXXZ
	DD	FLAT:?Use@CBaseEntity@@UAEXPAV1@0W4USE_TYPE@@M@Z
	DD	FLAT:?Touch@CBaseEntity@@UAEXPAV1@@Z
	DD	FLAT:?Blocked@CBaseEntity@@UAEXPAV1@@Z
	DD	FLAT:?MoveDone@CBaseEntity@@UAEXXZ
	DD	FLAT:?Respawn@CBaseEntity@@UAEPAV1@XZ
	DD	FLAT:?UpdateOwner@CBaseEntity@@UAEXXZ
	DD	FLAT:?FBecomeProne@CBaseEntity@@UAEHXZ
	DD	FLAT:?Center@CBaseEntity@@UAE?AVVector@@XZ
	DD	FLAT:?EyePosition@CBaseEntity@@UAE?AVVector@@XZ
	DD	FLAT:?EarPosition@CBaseEntity@@UAE?AVVector@@XZ
	DD	FLAT:?BodyTarget@CBaseEntity@@UAE?AVVector@@ABV2@@Z
	DD	FLAT:?IsPointSized@CBaseEntity@@UBEHXZ
	DD	FLAT:?Illumination@CBaseEntity@@UAEHXZ
	DD	FLAT:?FVisible@CBaseEntity@@UAEHABVVector@@@Z
	DD	FLAT:?FVisible@CBaseEntity@@UAEHPAV1@@Z
	DD	FLAT:?ShouldCollide@CBaseEntity@@UAEHPAV1@@Z
	DD	FLAT:?ClearEffects@CBaseEntity@@UAEXXZ
CONST	ENDS
;	COMDAT ??_C@_0CH@HELFJPDL@FUNCTION?5NOT?5IN?5TABLE?$CB?3?5?$CFs?3?$CFs?5?$CI?$CF@
CONST	SEGMENT
??_C@_0CH@HELFJPDL@FUNCTION?5NOT?5IN?5TABLE?$CB?3?5?$CFs?3?$CFs?5?$CI?$CF@ DB 'F'
	DB	'UNCTION NOT IN TABLE!: %s:%s (%08lx)', 0aH, 00H ; `string'
CONST	ENDS
;	COMDAT ??_C@_0L@JIJDCONP@customname?$AA@
CONST	SEGMENT
??_C@_0L@JIJDCONP@customname?$AA@ DB 'customname', 00H	; `string'
CONST	ENDS
;	COMDAT ??_C@_0N@JILDNHAP@vlight_cache?$AA@
CONST	SEGMENT
??_C@_0N@JILDNHAP@vlight_cache?$AA@ DB 'vlight_cache', 00H ; `string'
CONST	ENDS
;	COMDAT ??_C@_0L@IKCANML@reflection?$AA@
CONST	SEGMENT
??_C@_0L@IKCANML@reflection?$AA@ DB 'reflection', 00H	; `string'
CONST	ENDS
;	COMDAT ??_C@_05IAKJCFIM@style?$AA@
CONST	SEGMENT
??_C@_05IAKJCFIM@style?$AA@ DB 'style', 00H		; `string'
CONST	ENDS
;	COMDAT ??_C@_0M@EAELDHJO@parentflags?$AA@
CONST	SEGMENT
??_C@_0M@EAELDHJO@parentflags?$AA@ DB 'parentflags', 00H ; `string'
CONST	ENDS
;	COMDAT ??_C@_08JJJAOBDI@movewith?$AA@
CONST	SEGMENT
??_C@_08JJJAOBDI@movewith?$AA@ DB 'movewith', 00H	; `string'
CONST	ENDS
;	COMDAT ??_C@_06MLKDMCBD@parent?$AA@
CONST	SEGMENT
??_C@_06MLKDMCBD@parent?$AA@ DB 'parent', 00H		; `string'
CONST	ENDS
;	COMDAT ??_7CBaseEntity@@6B@
CONST	SEGMENT
??_7CBaseEntity@@6B@ DD FLAT:??_R4CBaseEntity@@6B@	; CBaseEntity::`vftable'
	DD	FLAT:?GetDataDescMap@CBaseEntity@@UAEPAUdatamap_s@@XZ
	DD	FLAT:?Spawn@CBaseEntity@@UAEXXZ
	DD	FLAT:?Precache@CBaseEntity@@UAEXXZ
	DD	FLAT:?KeyValue@CBaseEntity@@UAEXPAUKeyValueData_s@@@Z
	DD	FLAT:?Save@CBaseEntity@@UAEHAAVCSave@@@Z
	DD	FLAT:?Restore@CBaseEntity@@UAEHAAVCRestore@@@Z
	DD	FLAT:?ObjectCaps@CBaseEntity@@UAEHXZ
	DD	FLAT:?Activate@CBaseEntity@@UAEXXZ
	DD	FLAT:?OnChangeLevel@CBaseEntity@@UAEXXZ
	DD	FLAT:?OnTeleport@CBaseEntity@@UAEXXZ
	DD	FLAT:?PortalSleep@CBaseEntity@@UAEXM@Z
	DD	FLAT:?StartMessage@CBaseEntity@@UAEXPAVCBasePlayer@@@Z
	DD	FLAT:?GetPosition@CBaseEntity@@UAEMXZ
	DD	FLAT:?OnChangeParent@CBaseEntity@@UAEXXZ
	DD	FLAT:?OnClearParent@CBaseEntity@@UAEXXZ
	DD	FLAT:?OnRemove@CBaseEntity@@UAEXXZ
	DD	FLAT:?SetObjectCollisionBox@CBaseEntity@@UAEXXZ
	DD	FLAT:?Classify@CBaseEntity@@UAEHXZ
	DD	FLAT:?DeathNotice@CBaseEntity@@UAEXPAUentvars_s@@@Z
	DD	FLAT:?IsRigidBody@CBaseEntity@@UAEHXZ
	DD	FLAT:?SetNextThink@CBaseEntity@@UAEXM@Z
	DD	FLAT:?GetState@CBaseEntity@@UAE?AW4STATE@@PAV1@@Z
	DD	FLAT:?GetState@CBaseEntity@@UAE?AW4STATE@@XZ
	DD	FLAT:?TraceAttack@CBaseEntity@@UAEXPAUentvars_s@@MVVector@@PAUgametrace_s@@H@Z
	DD	FLAT:?TakeDamage@CBaseEntity@@UAEHPAUentvars_s@@0MH@Z
	DD	FLAT:?TakeHealth@CBaseEntity@@UAEHMH@Z
	DD	FLAT:?TakeArmor@CBaseEntity@@UAEHMH@Z
	DD	FLAT:?Killed@CBaseEntity@@UAEXPAUentvars_s@@H@Z
	DD	FLAT:?BloodColor@CBaseEntity@@UAEHXZ
	DD	FLAT:?TraceBleed@CBaseEntity@@UAEXMVVector@@PAUgametrace_s@@H@Z
	DD	FLAT:?IsTriggered@CBaseEntity@@UAEHPAV1@@Z
	DD	FLAT:?MyMonsterPointer@CBaseEntity@@UAEPAVCBaseMonster@@XZ
	DD	FLAT:?MySquadMonsterPointer@CBaseEntity@@UAEPAVCSquadMonster@@XZ
	DD	FLAT:?GetToggleState@CBaseEntity@@UAEHXZ
	DD	FLAT:?AddPoints@CBaseEntity@@UAEXHH@Z
	DD	FLAT:?AddPointsToTeam@CBaseEntity@@UAEXHH@Z
	DD	FLAT:?AddPlayerItem@CBaseEntity@@UAEHPAVCBasePlayerItem@@@Z
	DD	FLAT:?RemovePlayerItem@CBaseEntity@@UAEHPAVCBasePlayerItem@@@Z
	DD	FLAT:?GiveAmmo@CBaseEntity@@UAEHHPADH@Z
	DD	FLAT:?GetDelay@CBaseEntity@@UAEMXZ
	DD	FLAT:?IsMoving@CBaseEntity@@UAEHXZ
	DD	FLAT:?OverrideReset@CBaseEntity@@UAEXXZ
	DD	FLAT:?TransferReset@CBaseEntity@@UAEXXZ
	DD	FLAT:?DamageDecal@CBaseEntity@@UAEHH@Z
	DD	FLAT:?SetToggleState@CBaseEntity@@UAEXH@Z
	DD	FLAT:?StartSneaking@CBaseEntity@@UAEXXZ
	DD	FLAT:?StopSneaking@CBaseEntity@@UAEXXZ
	DD	FLAT:?OnControls@CBaseEntity@@UAEHPAV1@@Z
	DD	FLAT:?IsSneaking@CBaseEntity@@UAEHXZ
	DD	FLAT:?IsAlive@CBaseEntity@@UAEHXZ
	DD	FLAT:?IsBSPModel@CBaseEntity@@UAEHXZ
	DD	FLAT:?IsCustomModel@CBaseEntity@@UAEHXZ
	DD	FLAT:?ReflectGauss@CBaseEntity@@UAEHXZ
	DD	FLAT:?HasTarget@CBaseEntity@@UAEHH@Z
	DD	FLAT:?IsInWorld@CBaseEntity@@UAEHH@Z
	DD	FLAT:?IsPlayer@CBaseEntity@@UAEHXZ
	DD	FLAT:?IsNetClient@CBaseEntity@@UAEHXZ
	DD	FLAT:?IsMonster@CBaseEntity@@UAEHXZ
	DD	FLAT:?IsPushable@CBaseEntity@@UAEHXZ
	DD	FLAT:?IsProjectile@CBaseEntity@@UAEHXZ
	DD	FLAT:?IsFuncScreen@CBaseEntity@@UAEHXZ
	DD	FLAT:?IsPortal@CBaseEntity@@UAEHXZ
	DD	FLAT:?IsTank@CBaseEntity@@UAEHXZ
	DD	FLAT:?IsMover@CBaseEntity@@UAEHXZ
	DD	FLAT:?IsBreakable@CBaseEntity@@UAEHXZ
	DD	FLAT:?TeamID@CBaseEntity@@UAEPBDXZ
	DD	FLAT:?AddSpawnFlags@CBaseEntity@@UAEXH@Z
	DD	FLAT:?HasSpawnFlags@CBaseEntity@@UBE_NH@Z
	DD	FLAT:?SetFadeDistance@CBaseEntity@@UAEXH@Z
	DD	FLAT:?SetFlag@CBaseEntity@@UAEXH@Z
	DD	FLAT:?HasFlag@CBaseEntity@@UBE_NH@Z
	DD	FLAT:?RemoveFlag@CBaseEntity@@UAEXH@Z
	DD	FLAT:?SetNullModel@CBaseEntity@@UAEXXZ
	DD	FLAT:?OnPickupObject@CBaseEntity@@UAEXXZ
	DD	FLAT:?OnDropObject@CBaseEntity@@UAEXXZ
	DD	FLAT:?GetNextTarget@CBaseEntity@@UAEPAV1@XZ
	DD	FLAT:?Think@CBaseEntity@@UAEXXZ
	DD	FLAT:?Use@CBaseEntity@@UAEXPAV1@0W4USE_TYPE@@M@Z
	DD	FLAT:?Touch@CBaseEntity@@UAEXPAV1@@Z
	DD	FLAT:?Blocked@CBaseEntity@@UAEXPAV1@@Z
	DD	FLAT:?MoveDone@CBaseEntity@@UAEXXZ
	DD	FLAT:?Respawn@CBaseEntity@@UAEPAV1@XZ
	DD	FLAT:?UpdateOwner@CBaseEntity@@UAEXXZ
	DD	FLAT:?FBecomeProne@CBaseEntity@@UAEHXZ
	DD	FLAT:?Center@CBaseEntity@@UAE?AVVector@@XZ
	DD	FLAT:?EyePosition@CBaseEntity@@UAE?AVVector@@XZ
	DD	FLAT:?EarPosition@CBaseEntity@@UAE?AVVector@@XZ
	DD	FLAT:?BodyTarget@CBaseEntity@@UAE?AVVector@@ABV2@@Z
	DD	FLAT:?IsPointSized@CBaseEntity@@UBEHXZ
	DD	FLAT:?Illumination@CBaseEntity@@UAEHXZ
	DD	FLAT:?FVisible@CBaseEntity@@UAEHABVVector@@@Z
	DD	FLAT:?FVisible@CBaseEntity@@UAEHPAV1@@Z
	DD	FLAT:?ShouldCollide@CBaseEntity@@UAEHPAV1@@Z
	DD	FLAT:?ClearEffects@CBaseEntity@@UAEXXZ
CONST	ENDS
;	COMDAT ??_C@_0BF@DOONGEFO@Bad?5pev?5in?5OFFSET?$CI?$CJ?6?$AA@
CONST	SEGMENT
??_C@_0BF@DOONGEFO@Bad?5pev?5in?5OFFSET?$CI?$CJ?6?$AA@ DB 'Bad pev in OFF'
	DB	'SET()', 0aH, 00H				; `string'
CONST	ENDS
;	COMDAT ??_C@_0BF@CPEPILID@Bad?5ent?5in?5OFFSET?$CI?$CJ?6?$AA@
CONST	SEGMENT
??_C@_0BF@CPEPILID@Bad?5ent?5in?5OFFSET?$CI?$CJ?6?$AA@ DB 'Bad ent in OFF'
	DB	'SET()', 0aH, 00H				; `string'
CONST	ENDS
;	COMDAT ??_7IEntityFactory@@6B@
CONST	SEGMENT
??_7IEntityFactory@@6B@ DD FLAT:??_R4IEntityFactory@@6B@ ; IEntityFactory::`vftable'
	DD	FLAT:__purecall
	DD	FLAT:__purecall
	DD	FLAT:__purecall
CONST	ENDS
;	COMDAT ??_C@_04EFCDBJNL@?$CFs?3?3?$AA@
CONST	SEGMENT
??_C@_04EFCDBJNL@?$CFs?3?3?$AA@ DB '%s::', 00H		; `string'
CONST	ENDS
;	COMDAT ??_C@_00CNPNBAHC@?$AA@
CONST	SEGMENT
??_C@_00CNPNBAHC@?$AA@ DB 00H				; `string'
CONST	ENDS
;	COMDAT xdata$x
xdata$x	SEGMENT
__unwindtable$??$GetClassPtr@VCAmbientGeneric@@@@YAPAVCAmbientGeneric@@PAV0@PBD@Z DD 0ffffffffH
	DD	FLAT:__unwindfunclet$??$GetClassPtr@VCAmbientGeneric@@@@YAPAVCAmbientGeneric@@PAV0@PBD@Z$0
__ehfuncinfo$??$GetClassPtr@VCAmbientGeneric@@@@YAPAVCAmbientGeneric@@PAV0@PBD@Z DD 019930522H
	DD	01H
	DD	FLAT:__unwindtable$??$GetClassPtr@VCAmbientGeneric@@@@YAPAVCAmbientGeneric@@PAV0@PBD@Z
	DD	2 DUP(00H)
	DD	2 DUP(00H)
	DD	00H
	DD	01H
xdata$x	ENDS
;	COMDAT xdata$x
xdata$x	SEGMENT
__unwindtable$??$GetClassPtr@VCEnvSound@@@@YAPAVCEnvSound@@PAV0@PBD@Z DD 0ffffffffH
	DD	FLAT:__unwindfunclet$??$GetClassPtr@VCEnvSound@@@@YAPAVCEnvSound@@PAV0@PBD@Z$0
__ehfuncinfo$??$GetClassPtr@VCEnvSound@@@@YAPAVCEnvSound@@PAV0@PBD@Z DD 019930522H
	DD	01H
	DD	FLAT:__unwindtable$??$GetClassPtr@VCEnvSound@@@@YAPAVCEnvSound@@PAV0@PBD@Z
	DD	2 DUP(00H)
	DD	2 DUP(00H)
	DD	00H
	DD	01H
xdata$x	ENDS
;	COMDAT xdata$x
xdata$x	SEGMENT
__unwindtable$??$GetClassPtr@VCTriggerSound@@@@YAPAVCTriggerSound@@PAV0@PBD@Z DD 0ffffffffH
	DD	FLAT:__unwindfunclet$??$GetClassPtr@VCTriggerSound@@@@YAPAVCTriggerSound@@PAV0@PBD@Z$0
__ehfuncinfo$??$GetClassPtr@VCTriggerSound@@@@YAPAVCTriggerSound@@PAV0@PBD@Z DD 019930522H
	DD	01H
	DD	FLAT:__unwindtable$??$GetClassPtr@VCTriggerSound@@@@YAPAVCTriggerSound@@PAV0@PBD@Z
	DD	2 DUP(00H)
	DD	2 DUP(00H)
	DD	00H
	DD	01H
xdata$x	ENDS
;	COMDAT xdata$x
xdata$x	SEGMENT
__unwindtable$??$GetClassPtr@VCSpeaker@@@@YAPAVCSpeaker@@PAV0@PBD@Z DD 0ffffffffH
	DD	FLAT:__unwindfunclet$??$GetClassPtr@VCSpeaker@@@@YAPAVCSpeaker@@PAV0@PBD@Z$0
__ehfuncinfo$??$GetClassPtr@VCSpeaker@@@@YAPAVCSpeaker@@PAV0@PBD@Z DD 019930522H
	DD	01H
	DD	FLAT:__unwindtable$??$GetClassPtr@VCSpeaker@@@@YAPAVCSpeaker@@PAV0@PBD@Z
	DD	2 DUP(00H)
	DD	2 DUP(00H)
	DD	00H
	DD	01H
xdata$x	ENDS
;	COMDAT xdata$x
xdata$x	SEGMENT
__unwindtable$??$GetClassPtr@VCAmbientMusic@@@@YAPAVCAmbientMusic@@PAV0@PBD@Z DD 0ffffffffH
	DD	FLAT:__unwindfunclet$??$GetClassPtr@VCAmbientMusic@@@@YAPAVCAmbientMusic@@PAV0@PBD@Z$0
__ehfuncinfo$??$GetClassPtr@VCAmbientMusic@@@@YAPAVCAmbientMusic@@PAV0@PBD@Z DD 019930522H
	DD	01H
	DD	FLAT:__unwindtable$??$GetClassPtr@VCAmbientMusic@@@@YAPAVCAmbientMusic@@PAV0@PBD@Z
	DD	2 DUP(00H)
	DD	2 DUP(00H)
	DD	00H
	DD	01H
xdata$x	ENDS
;	COMDAT xdata$x
xdata$x	SEGMENT
__unwindtable$??$DataMapInit@VCSpeaker@@@@YAPAUdatamap_s@@PAVCSpeaker@@@Z DD 0ffffffffH
	DD	FLAT:__unwindfunclet$??$DataMapInit@VCSpeaker@@@@YAPAUdatamap_s@@PAVCSpeaker@@@Z$0
	DD	0ffffffffH
	DD	FLAT:__unwindfunclet$??$DataMapInit@VCSpeaker@@@@YAPAUdatamap_s@@PAVCSpeaker@@@Z$1
__ehfuncinfo$??$DataMapInit@VCSpeaker@@@@YAPAUdatamap_s@@PAVCSpeaker@@@Z DD 019930522H
	DD	02H
	DD	FLAT:__unwindtable$??$DataMapInit@VCSpeaker@@@@YAPAUdatamap_s@@PAVCSpeaker@@@Z
	DD	2 DUP(00H)
	DD	2 DUP(00H)
	DD	00H
	DD	01H
xdata$x	ENDS
;	COMDAT xdata$x
xdata$x	SEGMENT
__unwindtable$??$GetClassPtr@VCBasePlayer@@@@YAPAVCBasePlayer@@PAV0@@Z DD 0ffffffffH
	DD	FLAT:__unwindfunclet$??$GetClassPtr@VCBasePlayer@@@@YAPAVCBasePlayer@@PAV0@@Z$0
__ehfuncinfo$??$GetClassPtr@VCBasePlayer@@@@YAPAVCBasePlayer@@PAV0@@Z DD 019930522H
	DD	01H
	DD	FLAT:__unwindtable$??$GetClassPtr@VCBasePlayer@@@@YAPAVCBasePlayer@@PAV0@@Z
	DD	2 DUP(00H)
	DD	2 DUP(00H)
	DD	00H
	DD	01H
xdata$x	ENDS
;	COMDAT xdata$x
xdata$x	SEGMENT
__unwindtable$??$GetClassPtr@VCEnvSound@@@@YAPAVCEnvSound@@PAV0@@Z DD 0ffffffffH
	DD	FLAT:__unwindfunclet$??$GetClassPtr@VCEnvSound@@@@YAPAVCEnvSound@@PAV0@@Z$0
__ehfuncinfo$??$GetClassPtr@VCEnvSound@@@@YAPAVCEnvSound@@PAV0@@Z DD 019930522H
	DD	01H
	DD	FLAT:__unwindtable$??$GetClassPtr@VCEnvSound@@@@YAPAVCEnvSound@@PAV0@@Z
	DD	2 DUP(00H)
	DD	2 DUP(00H)
	DD	00H
	DD	01H
xdata$x	ENDS
;	COMDAT xdata$x
xdata$x	SEGMENT
__unwindtable$??$DataMapInit@VCEnvSound@@@@YAPAUdatamap_s@@PAVCEnvSound@@@Z DD 0ffffffffH
	DD	FLAT:__unwindfunclet$??$DataMapInit@VCEnvSound@@@@YAPAUdatamap_s@@PAVCEnvSound@@@Z$0
__ehfuncinfo$??$DataMapInit@VCEnvSound@@@@YAPAUdatamap_s@@PAVCEnvSound@@@Z DD 019930522H
	DD	01H
	DD	FLAT:__unwindtable$??$DataMapInit@VCEnvSound@@@@YAPAUdatamap_s@@PAVCEnvSound@@@Z
	DD	2 DUP(00H)
	DD	2 DUP(00H)
	DD	00H
	DD	01H
xdata$x	ENDS
;	COMDAT xdata$x
xdata$x	SEGMENT
__unwindtable$??$DataMapInit@VCAmbientGeneric@@@@YAPAUdatamap_s@@PAVCAmbientGeneric@@@Z DD 0ffffffffH
	DD	FLAT:__unwindfunclet$??$DataMapInit@VCAmbientGeneric@@@@YAPAUdatamap_s@@PAVCAmbientGeneric@@@Z$0
	DD	0ffffffffH
	DD	FLAT:__unwindfunclet$??$DataMapInit@VCAmbientGeneric@@@@YAPAUdatamap_s@@PAVCAmbientGeneric@@@Z$1
__ehfuncinfo$??$DataMapInit@VCAmbientGeneric@@@@YAPAUdatamap_s@@PAVCAmbientGeneric@@@Z DD 019930522H
	DD	02H
	DD	FLAT:__unwindtable$??$DataMapInit@VCAmbientGeneric@@@@YAPAUdatamap_s@@PAVCAmbientGeneric@@@Z
	DD	2 DUP(00H)
	DD	2 DUP(00H)
	DD	00H
	DD	01H
xdata$x	ENDS
;	COMDAT xdata$x
xdata$x	SEGMENT
__unwindtable$??0CBasePlayer@@QAE@XZ DD 0ffffffffH
	DD	FLAT:__unwindfunclet$??0CBasePlayer@@QAE@XZ$0
__ehfuncinfo$??0CBasePlayer@@QAE@XZ DD 019930522H
	DD	01H
	DD	FLAT:__unwindtable$??0CBasePlayer@@QAE@XZ
	DD	2 DUP(00H)
	DD	2 DUP(00H)
	DD	00H
	DD	01H
xdata$x	ENDS
;	COMDAT xdata$x
xdata$x	SEGMENT
__unwindtable$??0CBaseMonster@@QAE@XZ DD 0ffffffffH
	DD	FLAT:__unwindfunclet$??0CBaseMonster@@QAE@XZ$0
__ehfuncinfo$??0CBaseMonster@@QAE@XZ DD 019930522H
	DD	01H
	DD	FLAT:__unwindtable$??0CBaseMonster@@QAE@XZ
	DD	2 DUP(00H)
	DD	2 DUP(00H)
	DD	00H
	DD	01H
xdata$x	ENDS
;	COMDAT xdata$x
xdata$x	SEGMENT
__unwindtable$??0CBaseToggle@@QAE@XZ DD 0ffffffffH
	DD	FLAT:__unwindfunclet$??0CBaseToggle@@QAE@XZ$0
__ehfuncinfo$??0CBaseToggle@@QAE@XZ DD 019930522H
	DD	01H
	DD	FLAT:__unwindtable$??0CBaseToggle@@QAE@XZ
	DD	2 DUP(00H)
	DD	2 DUP(00H)
	DD	00H
	DD	01H
xdata$x	ENDS
;	COMDAT xdata$x
xdata$x	SEGMENT
__unwindtable$??0CBaseEntity@@QAE@XZ DD 0ffffffffH
	DD	FLAT:__unwindfunclet$??0CBaseEntity@@QAE@XZ$0
__ehfuncinfo$??0CBaseEntity@@QAE@XZ DD 019930522H
	DD	01H
	DD	FLAT:__unwindtable$??0CBaseEntity@@QAE@XZ
	DD	2 DUP(00H)
	DD	2 DUP(00H)
	DD	00H
	DD	01H
xdata$x	ENDS
;	COMDAT xdata$x
xdata$x	SEGMENT
__ehfuncinfo$??1?$CUtlMemory@PADH@@QAE@XZ DD 019930522H
	DD	00H
	DD	00H
	DD	2 DUP(00H)
	DD	2 DUP(00H)
	DD	00H
	DD	05H
xdata$x	ENDS
;	COMDAT xdata$x
xdata$x	SEGMENT
__ehfuncinfo$??1?$CUtlArray@PADV?$CUtlMemory@PADH@@@@QAE@XZ DD 019930522H
	DD	00H
	DD	00H
	DD	2 DUP(00H)
	DD	2 DUP(00H)
	DD	00H
	DD	05H
xdata$x	ENDS
;	COMDAT xdata$x
xdata$x	SEGMENT
__unwindtable$??0?$CUtlArray@PADV?$CUtlMemory@PADH@@@@QAE@HH@Z DD 0ffffffffH
	DD	FLAT:__unwindfunclet$??0?$CUtlArray@PADV?$CUtlMemory@PADH@@@@QAE@HH@Z$0
__ehfuncinfo$??0?$CUtlArray@PADV?$CUtlMemory@PADH@@@@QAE@HH@Z DD 019930522H
	DD	01H
	DD	FLAT:__unwindtable$??0?$CUtlArray@PADV?$CUtlMemory@PADH@@@@QAE@HH@Z
	DD	2 DUP(00H)
	DD	2 DUP(00H)
	DD	00H
	DD	01H
xdata$x	ENDS
;	COMDAT xdata$x
xdata$x	SEGMENT
__ehfuncinfo$??1CDatadescGeneratedNameHolder@@QAE@XZ DD 019930522H
	DD	00H
	DD	00H
	DD	2 DUP(00H)
	DD	2 DUP(00H)
	DD	00H
	DD	05H
xdata$x	ENDS
CRT$XCU	SEGMENT
?g_DataMapHolder$initializer$@CAmbientGeneric_DataDescInit@@3P6AXXZA DD FLAT:??__Eg_DataMapHolder@CAmbientGeneric_DataDescInit@@YAXXZ ; CAmbientGeneric_DataDescInit::g_DataMapHolder$initializer$
CRT$XCU	ENDS
CRT$XCU	SEGMENT
?env_sound$initializer$@@3P6AXXZA DD FLAT:??__Eenv_sound@@YAXXZ ; env_sound$initializer$
CRT$XCU	ENDS
CRT$XCU	SEGMENT
?g_DataMapHolder$initializer$@CEnvSound_DataDescInit@@3P6AXXZA DD FLAT:??__Eg_DataMapHolder@CEnvSound_DataDescInit@@YAXXZ ; CEnvSound_DataDescInit::g_DataMapHolder$initializer$
CRT$XCU	ENDS
CRT$XCU	SEGMENT
?trigger_sound$initializer$@@3P6AXXZA DD FLAT:??__Etrigger_sound@@YAXXZ ; trigger_sound$initializer$
CRT$XCU	ENDS
CRT$XCU	SEGMENT
?speaker$initializer$@@3P6AXXZA DD FLAT:??__Espeaker@@YAXXZ ; speaker$initializer$
CRT$XCU	ENDS
CRT$XCU	SEGMENT
?g_DataMapHolder$initializer$@CSpeaker_DataDescInit@@3P6AXXZA DD FLAT:??__Eg_DataMapHolder@CSpeaker_DataDescInit@@YAXXZ ; CSpeaker_DataDescInit::g_DataMapHolder$initializer$
CRT$XCU	ENDS
CRT$XCU	SEGMENT
?ambient_music$initializer$@@3P6AXXZA DD FLAT:??__Eambient_music@@YAXXZ ; ambient_music$initializer$
CRT$XCU	ENDS
; Function compile flags: /Odtp /ZI
; File d:\!diffusion 2020\source code 2022\client-server\game_shared\utlmemory.h
;	COMDAT ??$Destruct@PAD@@YAXPAPAD@Z
_TEXT	SEGMENT
_pMemory$ = 8						; size = 4
??$Destruct@PAD@@YAXPAPAD@Z PROC			; Destruct<char *>, COMDAT

; 49   : {

	push	ebp
	mov	ebp, esp
	sub	esp, 64					; 00000040H
	push	ebx
	push	esi
	push	edi

; 50   : 	pMemory->~T();
; 51   : 
; 52   : #ifdef _DEBUG
; 53   : 	memset( pMemory, 0xDD, sizeof(T) );

	push	4
	push	221					; 000000ddH
	mov	eax, DWORD PTR _pMemory$[ebp]
	push	eax
	call	_memset
	add	esp, 12					; 0000000cH

; 54   : #endif
; 55   : }

	pop	edi
	pop	esi
	pop	ebx
	mov	esp, ebp
	pop	ebp
	ret	0
??$Destruct@PAD@@YAXPAPAD@Z ENDP			; Destruct<char *>
_TEXT	ENDS
; Function compile flags: /Odtp /ZI
; File d:\!diffusion 2020\source code 2022\client-server\game_shared\utlmemory.h
;	COMDAT ??$CopyConstruct@PAD@@YAXPAPADABQAD@Z
_TEXT	SEGMENT
tv71 = -72						; size = 4
$T1 = -68						; size = 4
_pMemory$ = 8						; size = 4
_src$ = 12						; size = 4
??$CopyConstruct@PAD@@YAXPAPADABQAD@Z PROC		; CopyConstruct<char *>, COMDAT

; 43   : {

	push	ebp
	mov	ebp, esp
	sub	esp, 72					; 00000048H
	push	ebx
	push	esi
	push	edi

; 44   : 	new( pMemory ) T(src);

	mov	eax, DWORD PTR _pMemory$[ebp]
	push	eax
	push	4
	call	??2@YAPAXIPAX@Z				; operator new
	add	esp, 8
	mov	DWORD PTR $T1[ebp], eax
	cmp	DWORD PTR $T1[ebp], 0
	je	SHORT $LN3@CopyConstr
	mov	ecx, DWORD PTR $T1[ebp]
	mov	edx, DWORD PTR _src$[ebp]
	mov	eax, DWORD PTR [edx]
	mov	DWORD PTR [ecx], eax
	mov	ecx, DWORD PTR $T1[ebp]
	mov	DWORD PTR tv71[ebp], ecx
	jmp	SHORT $LN1@CopyConstr
$LN3@CopyConstr:
	mov	DWORD PTR tv71[ebp], 0
$LN1@CopyConstr:

; 45   : }

	pop	edi
	pop	esi
	pop	ebx
	mov	esp, ebp
	pop	ebp
	ret	0
??$CopyConstruct@PAD@@YAXPAPADABQAD@Z ENDP		; CopyConstruct<char *>
_TEXT	ENDS
; Function compile flags: /Odtp /ZI
; File d:\!diffusion 2020\source code 2022\client-server\server\cbase.h
;	COMDAT ??$GetClassPtr@VCAmbientGeneric@@@@YAPAVCAmbientGeneric@@PAV0@PBD@Z
_TEXT	SEGMENT
tv85 = -92						; size = 4
$T2 = -88						; size = 4
$T3 = -84						; size = 4
_pev$ = -16						; size = 4
__$EHRec$ = -12						; size = 12
_newEnt$ = 8						; size = 4
_className$ = 12					; size = 4
??$GetClassPtr@VCAmbientGeneric@@@@YAPAVCAmbientGeneric@@PAV0@PBD@Z PROC ; GetClassPtr<CAmbientGeneric>, COMDAT

; 1146 : {

	push	ebp
	mov	ebp, esp
	push	-1
	push	__ehhandler$??$GetClassPtr@VCAmbientGeneric@@@@YAPAVCAmbientGeneric@@PAV0@PBD@Z
	mov	eax, DWORD PTR fs:0
	push	eax
	sub	esp, 80					; 00000050H
	push	ebx
	push	esi
	push	edi
	mov	eax, DWORD PTR ___security_cookie
	xor	eax, ebp
	push	eax
	lea	eax, DWORD PTR __$EHRec$[ebp]
	mov	DWORD PTR fs:0, eax

; 1147 : 	entvars_t *pev = (entvars_t *)newEnt;

	mov	eax, DWORD PTR _newEnt$[ebp]
	mov	DWORD PTR _pev$[ebp], eax

; 1148 : 
; 1149 : 	// allocate entity if necessary
; 1150 : 	if (pev == NULL)

	cmp	DWORD PTR _pev$[ebp], 0
	jne	SHORT $LN2@GetClassPt

; 1151 : 		pev = VARS(CREATE_ENTITY());

	call	DWORD PTR ?g_engfuncs@@3Uenginefuncs_s@@A+84
	push	eax
	call	?VARS@@YAPAUentvars_s@@PAUedict_s@@@Z	; VARS
	add	esp, 4
	mov	DWORD PTR _pev$[ebp], eax
$LN2@GetClassPt:

; 1152 : 
; 1153 : 	// get the private data
; 1154 : 	newEnt = (T *)GET_PRIVATE(ENT(pev));

	mov	eax, DWORD PTR _pev$[ebp]
	push	eax
	call	?ENT@@YAPAUedict_s@@PBUentvars_s@@@Z	; ENT
	add	esp, 4
	push	eax
	call	?GET_PRIVATE@@YAPAXPAUedict_s@@@Z	; GET_PRIVATE
	add	esp, 4
	mov	DWORD PTR _newEnt$[ebp], eax

; 1155 : 
; 1156 : 	if (newEnt == NULL) 

	cmp	DWORD PTR _newEnt$[ebp], 0
	jne	SHORT $LN3@GetClassPt

; 1157 : 	{
; 1158 : 		// allocate private data 
; 1159 : 		newEnt = new(pev) T;

	mov	eax, DWORD PTR _pev$[ebp]
	push	eax
	push	1924					; 00000784H
	call	??2CBaseEntity@@SAPAXIPAUentvars_s@@@Z	; CBaseEntity::operator new
	add	esp, 8
	mov	DWORD PTR $T2[ebp], eax
	mov	DWORD PTR __$EHRec$[ebp+8], 0
	cmp	DWORD PTR $T2[ebp], 0
	je	SHORT $LN5@GetClassPt
	mov	ecx, DWORD PTR $T2[ebp]
	call	??0CAmbientGeneric@@QAE@XZ
	mov	DWORD PTR tv85[ebp], eax
	jmp	SHORT $LN6@GetClassPt
$LN5@GetClassPt:
	mov	DWORD PTR tv85[ebp], 0
$LN6@GetClassPt:
	mov	ecx, DWORD PTR tv85[ebp]
	mov	DWORD PTR $T3[ebp], ecx
	mov	DWORD PTR __$EHRec$[ebp+8], -1
	mov	edx, DWORD PTR $T3[ebp]
	mov	DWORD PTR _newEnt$[ebp], edx

; 1160 : 		newEnt->pev = pev;

	mov	eax, DWORD PTR _newEnt$[ebp]
	mov	ecx, DWORD PTR _pev$[ebp]
	mov	DWORD PTR [eax+4], ecx
$LN3@GetClassPt:

; 1161 : 	}
; 1162 : 	newEnt->SetClassname( className );

	mov	eax, DWORD PTR _className$[ebp]
	push	eax
	mov	ecx, DWORD PTR _newEnt$[ebp]
	call	?SetClassname@CBaseEntity@@QAEXPBD@Z	; CBaseEntity::SetClassname

; 1163 : 
; 1164 : 	return newEnt;

	mov	eax, DWORD PTR _newEnt$[ebp]

; 1165 : }

	mov	ecx, DWORD PTR __$EHRec$[ebp]
	mov	DWORD PTR fs:0, ecx
	pop	ecx
	pop	edi
	pop	esi
	pop	ebx
	mov	esp, ebp
	pop	ebp
	ret	0
_TEXT	ENDS
;	COMDAT text$x
text$x	SEGMENT
__unwindfunclet$??$GetClassPtr@VCAmbientGeneric@@@@YAPAVCAmbientGeneric@@PAV0@PBD@Z$0:
	mov	eax, DWORD PTR _pev$[ebp]
	push	eax
	mov	eax, DWORD PTR $T2[ebp]
	push	eax
	call	??3CBaseEntity@@SAXPAXPAUentvars_s@@@Z	; CBaseEntity::operator delete
	add	esp, 8
	ret	0
__ehhandler$??$GetClassPtr@VCAmbientGeneric@@@@YAPAVCAmbientGeneric@@PAV0@PBD@Z:
	mov	edx, DWORD PTR [esp+8]
	lea	eax, DWORD PTR [edx+12]
	mov	ecx, DWORD PTR [edx-96]
	xor	ecx, eax
	call	@__security_check_cookie@4
	mov	eax, OFFSET __ehfuncinfo$??$GetClassPtr@VCAmbientGeneric@@@@YAPAVCAmbientGeneric@@PAV0@PBD@Z
	jmp	___CxxFrameHandler3
text$x	ENDS
??$GetClassPtr@VCAmbientGeneric@@@@YAPAVCAmbientGeneric@@PAV0@PBD@Z ENDP ; GetClassPtr<CAmbientGeneric>
; Function compile flags: /Odtp /ZI
; File d:\!diffusion 2020\source code 2022\client-server\server\cbase.h
;	COMDAT ??$GetClassPtr@VCEnvSound@@@@YAPAVCEnvSound@@PAV0@PBD@Z
_TEXT	SEGMENT
tv85 = -92						; size = 4
$T2 = -88						; size = 4
$T3 = -84						; size = 4
_pev$ = -16						; size = 4
__$EHRec$ = -12						; size = 12
_newEnt$ = 8						; size = 4
_className$ = 12					; size = 4
??$GetClassPtr@VCEnvSound@@@@YAPAVCEnvSound@@PAV0@PBD@Z PROC ; GetClassPtr<CEnvSound>, COMDAT

; 1146 : {

	push	ebp
	mov	ebp, esp
	push	-1
	push	__ehhandler$??$GetClassPtr@VCEnvSound@@@@YAPAVCEnvSound@@PAV0@PBD@Z
	mov	eax, DWORD PTR fs:0
	push	eax
	sub	esp, 80					; 00000050H
	push	ebx
	push	esi
	push	edi
	mov	eax, DWORD PTR ___security_cookie
	xor	eax, ebp
	push	eax
	lea	eax, DWORD PTR __$EHRec$[ebp]
	mov	DWORD PTR fs:0, eax

; 1147 : 	entvars_t *pev = (entvars_t *)newEnt;

	mov	eax, DWORD PTR _newEnt$[ebp]
	mov	DWORD PTR _pev$[ebp], eax

; 1148 : 
; 1149 : 	// allocate entity if necessary
; 1150 : 	if (pev == NULL)

	cmp	DWORD PTR _pev$[ebp], 0
	jne	SHORT $LN2@GetClassPt

; 1151 : 		pev = VARS(CREATE_ENTITY());

	call	DWORD PTR ?g_engfuncs@@3Uenginefuncs_s@@A+84
	push	eax
	call	?VARS@@YAPAUentvars_s@@PAUedict_s@@@Z	; VARS
	add	esp, 4
	mov	DWORD PTR _pev$[ebp], eax
$LN2@GetClassPt:

; 1152 : 
; 1153 : 	// get the private data
; 1154 : 	newEnt = (T *)GET_PRIVATE(ENT(pev));

	mov	eax, DWORD PTR _pev$[ebp]
	push	eax
	call	?ENT@@YAPAUedict_s@@PBUentvars_s@@@Z	; ENT
	add	esp, 4
	push	eax
	call	?GET_PRIVATE@@YAPAXPAUedict_s@@@Z	; GET_PRIVATE
	add	esp, 4
	mov	DWORD PTR _newEnt$[ebp], eax

; 1155 : 
; 1156 : 	if (newEnt == NULL) 

	cmp	DWORD PTR _newEnt$[ebp], 0
	jne	SHORT $LN3@GetClassPt

; 1157 : 	{
; 1158 : 		// allocate private data 
; 1159 : 		newEnt = new(pev) T;

	mov	eax, DWORD PTR _pev$[ebp]
	push	eax
	push	1812					; 00000714H
	call	??2CBaseEntity@@SAPAXIPAUentvars_s@@@Z	; CBaseEntity::operator new
	add	esp, 8
	mov	DWORD PTR $T2[ebp], eax
	mov	DWORD PTR __$EHRec$[ebp+8], 0
	cmp	DWORD PTR $T2[ebp], 0
	je	SHORT $LN5@GetClassPt
	mov	ecx, DWORD PTR $T2[ebp]
	call	??0CEnvSound@@QAE@XZ
	mov	DWORD PTR tv85[ebp], eax
	jmp	SHORT $LN6@GetClassPt
$LN5@GetClassPt:
	mov	DWORD PTR tv85[ebp], 0
$LN6@GetClassPt:
	mov	ecx, DWORD PTR tv85[ebp]
	mov	DWORD PTR $T3[ebp], ecx
	mov	DWORD PTR __$EHRec$[ebp+8], -1
	mov	edx, DWORD PTR $T3[ebp]
	mov	DWORD PTR _newEnt$[ebp], edx

; 1160 : 		newEnt->pev = pev;

	mov	eax, DWORD PTR _newEnt$[ebp]
	mov	ecx, DWORD PTR _pev$[ebp]
	mov	DWORD PTR [eax+4], ecx
$LN3@GetClassPt:

; 1161 : 	}
; 1162 : 	newEnt->SetClassname( className );

	mov	eax, DWORD PTR _className$[ebp]
	push	eax
	mov	ecx, DWORD PTR _newEnt$[ebp]
	call	?SetClassname@CBaseEntity@@QAEXPBD@Z	; CBaseEntity::SetClassname

; 1163 : 
; 1164 : 	return newEnt;

	mov	eax, DWORD PTR _newEnt$[ebp]

; 1165 : }

	mov	ecx, DWORD PTR __$EHRec$[ebp]
	mov	DWORD PTR fs:0, ecx
	pop	ecx
	pop	edi
	pop	esi
	pop	ebx
	mov	esp, ebp
	pop	ebp
	ret	0
_TEXT	ENDS
;	COMDAT text$x
text$x	SEGMENT
__unwindfunclet$??$GetClassPtr@VCEnvSound@@@@YAPAVCEnvSound@@PAV0@PBD@Z$0:
	mov	eax, DWORD PTR _pev$[ebp]
	push	eax
	mov	eax, DWORD PTR $T2[ebp]
	push	eax
	call	??3CBaseEntity@@SAXPAXPAUentvars_s@@@Z	; CBaseEntity::operator delete
	add	esp, 8
	ret	0
__ehhandler$??$GetClassPtr@VCEnvSound@@@@YAPAVCEnvSound@@PAV0@PBD@Z:
	mov	edx, DWORD PTR [esp+8]
	lea	eax, DWORD PTR [edx+12]
	mov	ecx, DWORD PTR [edx-96]
	xor	ecx, eax
	call	@__security_check_cookie@4
	mov	eax, OFFSET __ehfuncinfo$??$GetClassPtr@VCEnvSound@@@@YAPAVCEnvSound@@PAV0@PBD@Z
	jmp	___CxxFrameHandler3
text$x	ENDS
??$GetClassPtr@VCEnvSound@@@@YAPAVCEnvSound@@PAV0@PBD@Z ENDP ; GetClassPtr<CEnvSound>
; Function compile flags: /Odtp /ZI
; File d:\!diffusion 2020\source code 2022\client-server\server\cbase.h
;	COMDAT ??$GetClassPtr@VCTriggerSound@@@@YAPAVCTriggerSound@@PAV0@PBD@Z
_TEXT	SEGMENT
tv85 = -92						; size = 4
$T2 = -88						; size = 4
$T3 = -84						; size = 4
_pev$ = -16						; size = 4
__$EHRec$ = -12						; size = 12
_newEnt$ = 8						; size = 4
_className$ = 12					; size = 4
??$GetClassPtr@VCTriggerSound@@@@YAPAVCTriggerSound@@PAV0@PBD@Z PROC ; GetClassPtr<CTriggerSound>, COMDAT

; 1146 : {

	push	ebp
	mov	ebp, esp
	push	-1
	push	__ehhandler$??$GetClassPtr@VCTriggerSound@@@@YAPAVCTriggerSound@@PAV0@PBD@Z
	mov	eax, DWORD PTR fs:0
	push	eax
	sub	esp, 80					; 00000050H
	push	ebx
	push	esi
	push	edi
	mov	eax, DWORD PTR ___security_cookie
	xor	eax, ebp
	push	eax
	lea	eax, DWORD PTR __$EHRec$[ebp]
	mov	DWORD PTR fs:0, eax

; 1147 : 	entvars_t *pev = (entvars_t *)newEnt;

	mov	eax, DWORD PTR _newEnt$[ebp]
	mov	DWORD PTR _pev$[ebp], eax

; 1148 : 
; 1149 : 	// allocate entity if necessary
; 1150 : 	if (pev == NULL)

	cmp	DWORD PTR _pev$[ebp], 0
	jne	SHORT $LN2@GetClassPt

; 1151 : 		pev = VARS(CREATE_ENTITY());

	call	DWORD PTR ?g_engfuncs@@3Uenginefuncs_s@@A+84
	push	eax
	call	?VARS@@YAPAUentvars_s@@PAUedict_s@@@Z	; VARS
	add	esp, 4
	mov	DWORD PTR _pev$[ebp], eax
$LN2@GetClassPt:

; 1152 : 
; 1153 : 	// get the private data
; 1154 : 	newEnt = (T *)GET_PRIVATE(ENT(pev));

	mov	eax, DWORD PTR _pev$[ebp]
	push	eax
	call	?ENT@@YAPAUedict_s@@PBUentvars_s@@@Z	; ENT
	add	esp, 4
	push	eax
	call	?GET_PRIVATE@@YAPAXPAUedict_s@@@Z	; GET_PRIVATE
	add	esp, 4
	mov	DWORD PTR _newEnt$[ebp], eax

; 1155 : 
; 1156 : 	if (newEnt == NULL) 

	cmp	DWORD PTR _newEnt$[ebp], 0
	jne	SHORT $LN3@GetClassPt

; 1157 : 	{
; 1158 : 		// allocate private data 
; 1159 : 		newEnt = new(pev) T;

	mov	eax, DWORD PTR _pev$[ebp]
	push	eax
	push	1832					; 00000728H
	call	??2CBaseEntity@@SAPAXIPAUentvars_s@@@Z	; CBaseEntity::operator new
	add	esp, 8
	mov	DWORD PTR $T2[ebp], eax
	mov	DWORD PTR __$EHRec$[ebp+8], 0
	cmp	DWORD PTR $T2[ebp], 0
	je	SHORT $LN5@GetClassPt
	mov	ecx, DWORD PTR $T2[ebp]
	call	??0CTriggerSound@@QAE@XZ
	mov	DWORD PTR tv85[ebp], eax
	jmp	SHORT $LN6@GetClassPt
$LN5@GetClassPt:
	mov	DWORD PTR tv85[ebp], 0
$LN6@GetClassPt:
	mov	ecx, DWORD PTR tv85[ebp]
	mov	DWORD PTR $T3[ebp], ecx
	mov	DWORD PTR __$EHRec$[ebp+8], -1
	mov	edx, DWORD PTR $T3[ebp]
	mov	DWORD PTR _newEnt$[ebp], edx

; 1160 : 		newEnt->pev = pev;

	mov	eax, DWORD PTR _newEnt$[ebp]
	mov	ecx, DWORD PTR _pev$[ebp]
	mov	DWORD PTR [eax+4], ecx
$LN3@GetClassPt:

; 1161 : 	}
; 1162 : 	newEnt->SetClassname( className );

	mov	eax, DWORD PTR _className$[ebp]
	push	eax
	mov	ecx, DWORD PTR _newEnt$[ebp]
	call	?SetClassname@CBaseEntity@@QAEXPBD@Z	; CBaseEntity::SetClassname

; 1163 : 
; 1164 : 	return newEnt;

	mov	eax, DWORD PTR _newEnt$[ebp]

; 1165 : }

	mov	ecx, DWORD PTR __$EHRec$[ebp]
	mov	DWORD PTR fs:0, ecx
	pop	ecx
	pop	edi
	pop	esi
	pop	ebx
	mov	esp, ebp
	pop	ebp
	ret	0
_TEXT	ENDS
;	COMDAT text$x
text$x	SEGMENT
__unwindfunclet$??$GetClassPtr@VCTriggerSound@@@@YAPAVCTriggerSound@@PAV0@PBD@Z$0:
	mov	eax, DWORD PTR _pev$[ebp]
	push	eax
	mov	eax, DWORD PTR $T2[ebp]
	push	eax
	call	??3CBaseEntity@@SAXPAXPAUentvars_s@@@Z	; CBaseEntity::operator delete
	add	esp, 8
	ret	0
__ehhandler$??$GetClassPtr@VCTriggerSound@@@@YAPAVCTriggerSound@@PAV0@PBD@Z:
	mov	edx, DWORD PTR [esp+8]
	lea	eax, DWORD PTR [edx+12]
	mov	ecx, DWORD PTR [edx-96]
	xor	ecx, eax
	call	@__security_check_cookie@4
	mov	eax, OFFSET __ehfuncinfo$??$GetClassPtr@VCTriggerSound@@@@YAPAVCTriggerSound@@PAV0@PBD@Z
	jmp	___CxxFrameHandler3
text$x	ENDS
??$GetClassPtr@VCTriggerSound@@@@YAPAVCTriggerSound@@PAV0@PBD@Z ENDP ; GetClassPtr<CTriggerSound>
; Function compile flags: /Odtp /ZI
; File d:\!diffusion 2020\source code 2022\client-server\server\cbase.h
;	COMDAT ??$GetClassPtr@VCSpeaker@@@@YAPAVCSpeaker@@PAV0@PBD@Z
_TEXT	SEGMENT
tv85 = -92						; size = 4
$T2 = -88						; size = 4
$T3 = -84						; size = 4
_pev$ = -16						; size = 4
__$EHRec$ = -12						; size = 12
_newEnt$ = 8						; size = 4
_className$ = 12					; size = 4
??$GetClassPtr@VCSpeaker@@@@YAPAVCSpeaker@@PAV0@PBD@Z PROC ; GetClassPtr<CSpeaker>, COMDAT

; 1146 : {

	push	ebp
	mov	ebp, esp
	push	-1
	push	__ehhandler$??$GetClassPtr@VCSpeaker@@@@YAPAVCSpeaker@@PAV0@PBD@Z
	mov	eax, DWORD PTR fs:0
	push	eax
	sub	esp, 80					; 00000050H
	push	ebx
	push	esi
	push	edi
	mov	eax, DWORD PTR ___security_cookie
	xor	eax, ebp
	push	eax
	lea	eax, DWORD PTR __$EHRec$[ebp]
	mov	DWORD PTR fs:0, eax

; 1147 : 	entvars_t *pev = (entvars_t *)newEnt;

	mov	eax, DWORD PTR _newEnt$[ebp]
	mov	DWORD PTR _pev$[ebp], eax

; 1148 : 
; 1149 : 	// allocate entity if necessary
; 1150 : 	if (pev == NULL)

	cmp	DWORD PTR _pev$[ebp], 0
	jne	SHORT $LN2@GetClassPt

; 1151 : 		pev = VARS(CREATE_ENTITY());

	call	DWORD PTR ?g_engfuncs@@3Uenginefuncs_s@@A+84
	push	eax
	call	?VARS@@YAPAUentvars_s@@PAUedict_s@@@Z	; VARS
	add	esp, 4
	mov	DWORD PTR _pev$[ebp], eax
$LN2@GetClassPt:

; 1152 : 
; 1153 : 	// get the private data
; 1154 : 	newEnt = (T *)GET_PRIVATE(ENT(pev));

	mov	eax, DWORD PTR _pev$[ebp]
	push	eax
	call	?ENT@@YAPAUedict_s@@PBUentvars_s@@@Z	; ENT
	add	esp, 4
	push	eax
	call	?GET_PRIVATE@@YAPAXPAUedict_s@@@Z	; GET_PRIVATE
	add	esp, 4
	mov	DWORD PTR _newEnt$[ebp], eax

; 1155 : 
; 1156 : 	if (newEnt == NULL) 

	cmp	DWORD PTR _newEnt$[ebp], 0
	jne	SHORT $LN3@GetClassPt

; 1157 : 	{
; 1158 : 		// allocate private data 
; 1159 : 		newEnt = new(pev) T;

	mov	eax, DWORD PTR _pev$[ebp]
	push	eax
	push	1808					; 00000710H
	call	??2CBaseEntity@@SAPAXIPAUentvars_s@@@Z	; CBaseEntity::operator new
	add	esp, 8
	mov	DWORD PTR $T2[ebp], eax
	mov	DWORD PTR __$EHRec$[ebp+8], 0
	cmp	DWORD PTR $T2[ebp], 0
	je	SHORT $LN5@GetClassPt
	mov	ecx, DWORD PTR $T2[ebp]
	call	??0CSpeaker@@QAE@XZ
	mov	DWORD PTR tv85[ebp], eax
	jmp	SHORT $LN6@GetClassPt
$LN5@GetClassPt:
	mov	DWORD PTR tv85[ebp], 0
$LN6@GetClassPt:
	mov	ecx, DWORD PTR tv85[ebp]
	mov	DWORD PTR $T3[ebp], ecx
	mov	DWORD PTR __$EHRec$[ebp+8], -1
	mov	edx, DWORD PTR $T3[ebp]
	mov	DWORD PTR _newEnt$[ebp], edx

; 1160 : 		newEnt->pev = pev;

	mov	eax, DWORD PTR _newEnt$[ebp]
	mov	ecx, DWORD PTR _pev$[ebp]
	mov	DWORD PTR [eax+4], ecx
$LN3@GetClassPt:

; 1161 : 	}
; 1162 : 	newEnt->SetClassname( className );

	mov	eax, DWORD PTR _className$[ebp]
	push	eax
	mov	ecx, DWORD PTR _newEnt$[ebp]
	call	?SetClassname@CBaseEntity@@QAEXPBD@Z	; CBaseEntity::SetClassname

; 1163 : 
; 1164 : 	return newEnt;

	mov	eax, DWORD PTR _newEnt$[ebp]

; 1165 : }

	mov	ecx, DWORD PTR __$EHRec$[ebp]
	mov	DWORD PTR fs:0, ecx
	pop	ecx
	pop	edi
	pop	esi
	pop	ebx
	mov	esp, ebp
	pop	ebp
	ret	0
_TEXT	ENDS
;	COMDAT text$x
text$x	SEGMENT
__unwindfunclet$??$GetClassPtr@VCSpeaker@@@@YAPAVCSpeaker@@PAV0@PBD@Z$0:
	mov	eax, DWORD PTR _pev$[ebp]
	push	eax
	mov	eax, DWORD PTR $T2[ebp]
	push	eax
	call	??3CBaseEntity@@SAXPAXPAUentvars_s@@@Z	; CBaseEntity::operator delete
	add	esp, 8
	ret	0
__ehhandler$??$GetClassPtr@VCSpeaker@@@@YAPAVCSpeaker@@PAV0@PBD@Z:
	mov	edx, DWORD PTR [esp+8]
	lea	eax, DWORD PTR [edx+12]
	mov	ecx, DWORD PTR [edx-96]
	xor	ecx, eax
	call	@__security_check_cookie@4
	mov	eax, OFFSET __ehfuncinfo$??$GetClassPtr@VCSpeaker@@@@YAPAVCSpeaker@@PAV0@PBD@Z
	jmp	___CxxFrameHandler3
text$x	ENDS
??$GetClassPtr@VCSpeaker@@@@YAPAVCSpeaker@@PAV0@PBD@Z ENDP ; GetClassPtr<CSpeaker>
; Function compile flags: /Odtp /ZI
; File d:\!diffusion 2020\source code 2022\client-server\server\cbase.h
;	COMDAT ??$GetClassPtr@VCAmbientMusic@@@@YAPAVCAmbientMusic@@PAV0@PBD@Z
_TEXT	SEGMENT
tv85 = -92						; size = 4
$T2 = -88						; size = 4
$T3 = -84						; size = 4
_pev$ = -16						; size = 4
__$EHRec$ = -12						; size = 12
_newEnt$ = 8						; size = 4
_className$ = 12					; size = 4
??$GetClassPtr@VCAmbientMusic@@@@YAPAVCAmbientMusic@@PAV0@PBD@Z PROC ; GetClassPtr<CAmbientMusic>, COMDAT

; 1146 : {

	push	ebp
	mov	ebp, esp
	push	-1
	push	__ehhandler$??$GetClassPtr@VCAmbientMusic@@@@YAPAVCAmbientMusic@@PAV0@PBD@Z
	mov	eax, DWORD PTR fs:0
	push	eax
	sub	esp, 80					; 00000050H
	push	ebx
	push	esi
	push	edi
	mov	eax, DWORD PTR ___security_cookie
	xor	eax, ebp
	push	eax
	lea	eax, DWORD PTR __$EHRec$[ebp]
	mov	DWORD PTR fs:0, eax

; 1147 : 	entvars_t *pev = (entvars_t *)newEnt;

	mov	eax, DWORD PTR _newEnt$[ebp]
	mov	DWORD PTR _pev$[ebp], eax

; 1148 : 
; 1149 : 	// allocate entity if necessary
; 1150 : 	if (pev == NULL)

	cmp	DWORD PTR _pev$[ebp], 0
	jne	SHORT $LN2@GetClassPt

; 1151 : 		pev = VARS(CREATE_ENTITY());

	call	DWORD PTR ?g_engfuncs@@3Uenginefuncs_s@@A+84
	push	eax
	call	?VARS@@YAPAUentvars_s@@PAUedict_s@@@Z	; VARS
	add	esp, 4
	mov	DWORD PTR _pev$[ebp], eax
$LN2@GetClassPt:

; 1152 : 
; 1153 : 	// get the private data
; 1154 : 	newEnt = (T *)GET_PRIVATE(ENT(pev));

	mov	eax, DWORD PTR _pev$[ebp]
	push	eax
	call	?ENT@@YAPAUedict_s@@PBUentvars_s@@@Z	; ENT
	add	esp, 4
	push	eax
	call	?GET_PRIVATE@@YAPAXPAUedict_s@@@Z	; GET_PRIVATE
	add	esp, 4
	mov	DWORD PTR _newEnt$[ebp], eax

; 1155 : 
; 1156 : 	if (newEnt == NULL) 

	cmp	DWORD PTR _newEnt$[ebp], 0
	jne	SHORT $LN3@GetClassPt

; 1157 : 	{
; 1158 : 		// allocate private data 
; 1159 : 		newEnt = new(pev) T;

	mov	eax, DWORD PTR _pev$[ebp]
	push	eax
	push	1832					; 00000728H
	call	??2CBaseEntity@@SAPAXIPAUentvars_s@@@Z	; CBaseEntity::operator new
	add	esp, 8
	mov	DWORD PTR $T2[ebp], eax
	mov	DWORD PTR __$EHRec$[ebp+8], 0
	cmp	DWORD PTR $T2[ebp], 0
	je	SHORT $LN5@GetClassPt
	mov	ecx, DWORD PTR $T2[ebp]
	call	??0CAmbientMusic@@QAE@XZ
	mov	DWORD PTR tv85[ebp], eax
	jmp	SHORT $LN6@GetClassPt
$LN5@GetClassPt:
	mov	DWORD PTR tv85[ebp], 0
$LN6@GetClassPt:
	mov	ecx, DWORD PTR tv85[ebp]
	mov	DWORD PTR $T3[ebp], ecx
	mov	DWORD PTR __$EHRec$[ebp+8], -1
	mov	edx, DWORD PTR $T3[ebp]
	mov	DWORD PTR _newEnt$[ebp], edx

; 1160 : 		newEnt->pev = pev;

	mov	eax, DWORD PTR _newEnt$[ebp]
	mov	ecx, DWORD PTR _pev$[ebp]
	mov	DWORD PTR [eax+4], ecx
$LN3@GetClassPt:

; 1161 : 	}
; 1162 : 	newEnt->SetClassname( className );

	mov	eax, DWORD PTR _className$[ebp]
	push	eax
	mov	ecx, DWORD PTR _newEnt$[ebp]
	call	?SetClassname@CBaseEntity@@QAEXPBD@Z	; CBaseEntity::SetClassname

; 1163 : 
; 1164 : 	return newEnt;

	mov	eax, DWORD PTR _newEnt$[ebp]

; 1165 : }

	mov	ecx, DWORD PTR __$EHRec$[ebp]
	mov	DWORD PTR fs:0, ecx
	pop	ecx
	pop	edi
	pop	esi
	pop	ebx
	mov	esp, ebp
	pop	ebp
	ret	0
_TEXT	ENDS
;	COMDAT text$x
text$x	SEGMENT
__unwindfunclet$??$GetClassPtr@VCAmbientMusic@@@@YAPAVCAmbientMusic@@PAV0@PBD@Z$0:
	mov	eax, DWORD PTR _pev$[ebp]
	push	eax
	mov	eax, DWORD PTR $T2[ebp]
	push	eax
	call	??3CBaseEntity@@SAXPAXPAUentvars_s@@@Z	; CBaseEntity::operator delete
	add	esp, 8
	ret	0
__ehhandler$??$GetClassPtr@VCAmbientMusic@@@@YAPAVCAmbientMusic@@PAV0@PBD@Z:
	mov	edx, DWORD PTR [esp+8]
	lea	eax, DWORD PTR [edx+12]
	mov	ecx, DWORD PTR [edx-96]
	xor	ecx, eax
	call	@__security_check_cookie@4
	mov	eax, OFFSET __ehfuncinfo$??$GetClassPtr@VCAmbientMusic@@@@YAPAVCAmbientMusic@@PAV0@PBD@Z
	jmp	___CxxFrameHandler3
text$x	ENDS
??$GetClassPtr@VCAmbientMusic@@@@YAPAVCAmbientMusic@@PAV0@PBD@Z ENDP ; GetClassPtr<CAmbientMusic>
; Function compile flags: /Odtp /ZI
; File d:\!diffusion 2020\source code 2022\client-server\server\sound.cpp
;	COMDAT ??__Eambient_music@@YAXXZ
text$di	SEGMENT
??__Eambient_music@@YAXXZ PROC				; `dynamic initializer for 'ambient_music'', COMDAT

; 2333 : LINK_ENTITY_TO_CLASS( ambient_music, CAmbientMusic );

	push	ebp
	mov	ebp, esp
	sub	esp, 64					; 00000040H
	push	ebx
	push	esi
	push	edi
	push	OFFSET ??_C@_0O@DCFFCPNJ@ambient_music?$AA@
	mov	ecx, OFFSET ?ambient_music@@3V?$CEntityFactory@VCAmbientMusic@@@@A
	call	??0?$CEntityFactory@VCAmbientMusic@@@@QAE@PBD@Z ; CEntityFactory<CAmbientMusic>::CEntityFactory<CAmbientMusic>
	pop	edi
	pop	esi
	pop	ebx
	mov	esp, ebp
	pop	ebp
	ret	0
??__Eambient_music@@YAXXZ ENDP				; `dynamic initializer for 'ambient_music''
text$di	ENDS
; Function compile flags: /Odtp /ZI
; File d:\!diffusion 2020\source code 2022\client-server\server\util.h
;	COMDAT ?GetEntitySize@?$CEntityFactory@VCAmbientMusic@@@@UAEIXZ
_TEXT	SEGMENT
_this$ = -4						; size = 4
?GetEntitySize@?$CEntityFactory@VCAmbientMusic@@@@UAEIXZ PROC ; CEntityFactory<CAmbientMusic>::GetEntitySize, COMDAT
; _this$ = ecx

; 103  : 	{

	push	ebp
	mov	ebp, esp
	sub	esp, 68					; 00000044H
	push	ebx
	push	esi
	push	edi
	mov	DWORD PTR _this$[ebp], ecx

; 104  : 		return sizeof(T);

	mov	eax, 1832				; 00000728H

; 105  : 	}

	pop	edi
	pop	esi
	pop	ebx
	mov	esp, ebp
	pop	ebp
	ret	0
?GetEntitySize@?$CEntityFactory@VCAmbientMusic@@@@UAEIXZ ENDP ; CEntityFactory<CAmbientMusic>::GetEntitySize
_TEXT	ENDS
; Function compile flags: /Odtp /ZI
; File d:\!diffusion 2020\source code 2022\client-server\server\util.h
;	COMDAT ?Destroy@?$CEntityFactory@VCAmbientMusic@@@@UAEXPAVCBaseEntity@@@Z
_TEXT	SEGMENT
_this$ = -4						; size = 4
_pEntity$ = 8						; size = 4
?Destroy@?$CEntityFactory@VCAmbientMusic@@@@UAEXPAVCBaseEntity@@@Z PROC ; CEntityFactory<CAmbientMusic>::Destroy, COMDAT
; _this$ = ecx

; 98   : 	{

	push	ebp
	mov	ebp, esp
	sub	esp, 68					; 00000044H
	push	ebx
	push	esi
	push	edi
	mov	DWORD PTR _this$[ebp], ecx

; 99   : 		UTIL_Remove( pEntity );

	mov	eax, DWORD PTR _pEntity$[ebp]
	push	eax
	call	?UTIL_Remove@@YAXPAVCBaseEntity@@@Z	; UTIL_Remove
	add	esp, 4

; 100  : 	}

	pop	edi
	pop	esi
	pop	ebx
	mov	esp, ebp
	pop	ebp
	ret	4
?Destroy@?$CEntityFactory@VCAmbientMusic@@@@UAEXPAVCBaseEntity@@@Z ENDP ; CEntityFactory<CAmbientMusic>::Destroy
_TEXT	ENDS
; Function compile flags: /Odtp /ZI
; File d:\!diffusion 2020\source code 2022\client-server\server\util.h
;	COMDAT ?Create@?$CEntityFactory@VCAmbientMusic@@@@UAEPAVCBaseEntity@@PBDPAUentvars_s@@@Z
_TEXT	SEGMENT
_pEnt$ = -8						; size = 4
_this$ = -4						; size = 4
_pClassName$ = 8					; size = 4
_pev$ = 12						; size = 4
?Create@?$CEntityFactory@VCAmbientMusic@@@@UAEPAVCBaseEntity@@PBDPAUentvars_s@@@Z PROC ; CEntityFactory<CAmbientMusic>::Create, COMDAT
; _this$ = ecx

; 92   : 	{

	push	ebp
	mov	ebp, esp
	sub	esp, 72					; 00000048H
	push	ebx
	push	esi
	push	edi
	mov	DWORD PTR _this$[ebp], ecx

; 93   : 		T* pEnt = GetClassPtr((T*)pev, pClassName);

	mov	eax, DWORD PTR _pClassName$[ebp]
	push	eax
	mov	ecx, DWORD PTR _pev$[ebp]
	push	ecx
	call	??$GetClassPtr@VCAmbientMusic@@@@YAPAVCAmbientMusic@@PAV0@PBD@Z ; GetClassPtr<CAmbientMusic>
	add	esp, 8
	mov	DWORD PTR _pEnt$[ebp], eax

; 94   : 		return pEnt;

	mov	eax, DWORD PTR _pEnt$[ebp]

; 95   : 	}

	pop	edi
	pop	esi
	pop	ebx
	mov	esp, ebp
	pop	ebp
	ret	8
?Create@?$CEntityFactory@VCAmbientMusic@@@@UAEPAVCBaseEntity@@PBDPAUentvars_s@@@Z ENDP ; CEntityFactory<CAmbientMusic>::Create
_TEXT	ENDS
; Function compile flags: /Odtp /ZI
; File d:\!diffusion 2020\source code 2022\client-server\server\util.h
;	COMDAT ??0?$CEntityFactory@VCAmbientMusic@@@@QAE@PBD@Z
_TEXT	SEGMENT
tv76 = -72						; size = 4
_this$ = -4						; size = 4
_pClassName$ = 8					; size = 4
??0?$CEntityFactory@VCAmbientMusic@@@@QAE@PBD@Z PROC	; CEntityFactory<CAmbientMusic>::CEntityFactory<CAmbientMusic>, COMDAT
; _this$ = ecx

; 86   : 	CEntityFactory( const char *pClassName )

	push	ebp
	mov	ebp, esp
	sub	esp, 72					; 00000048H
	push	ebx
	push	esi
	push	edi
	mov	DWORD PTR _this$[ebp], ecx

; 87   : 	{

	mov	ecx, DWORD PTR _this$[ebp]
	call	??0IEntityFactory@@QAE@XZ
	mov	eax, DWORD PTR _this$[ebp]
	mov	DWORD PTR [eax], OFFSET ??_7?$CEntityFactory@VCAmbientMusic@@@@6B@

; 88   : 		EntityFactoryDictionary()->InstallFactory( this, pClassName );

	call	?EntityFactoryDictionary@@YAPAVIEntityFactoryDictionary@@XZ ; EntityFactoryDictionary
	mov	DWORD PTR tv76[ebp], eax
	mov	eax, DWORD PTR _pClassName$[ebp]
	push	eax
	mov	ecx, DWORD PTR _this$[ebp]
	push	ecx
	mov	edx, DWORD PTR tv76[ebp]
	mov	eax, DWORD PTR [edx]
	mov	ecx, DWORD PTR tv76[ebp]
	mov	edx, DWORD PTR [eax]
	call	edx

; 89   : 	}

	mov	eax, DWORD PTR _this$[ebp]
	pop	edi
	pop	esi
	pop	ebx
	mov	esp, ebp
	pop	ebp
	ret	4
??0?$CEntityFactory@VCAmbientMusic@@@@QAE@PBD@Z ENDP	; CEntityFactory<CAmbientMusic>::CEntityFactory<CAmbientMusic>
_TEXT	ENDS
; Function compile flags: /Odtp /ZI
;	COMDAT ??0CAmbientMusic@@QAE@XZ
_TEXT	SEGMENT
_this$ = -4						; size = 4
??0CAmbientMusic@@QAE@XZ PROC				; CAmbientMusic::CAmbientMusic, COMDAT
; _this$ = ecx
	push	ebp
	mov	ebp, esp
	sub	esp, 68					; 00000044H
	push	ebx
	push	esi
	push	edi
	mov	DWORD PTR _this$[ebp], ecx
	mov	ecx, DWORD PTR _this$[ebp]
	call	??0CBaseDelay@@QAE@XZ
	mov	eax, DWORD PTR _this$[ebp]
	mov	DWORD PTR [eax], OFFSET ??_7CAmbientMusic@@6B@
	mov	eax, DWORD PTR _this$[ebp]
	pop	edi
	pop	esi
	pop	ebx
	mov	esp, ebp
	pop	ebp
	ret	0
??0CAmbientMusic@@QAE@XZ ENDP				; CAmbientMusic::CAmbientMusic
_TEXT	ENDS
; Function compile flags: /Odtp /ZI
; File d:\!diffusion 2020\source code 2022\client-server\server\sound.cpp
;	COMDAT ?Think@CAmbientMusic@@UAEXXZ
_TEXT	SEGMENT
tv82 = -92						; size = 4
tv81 = -88						; size = 4
_pPlayer$1 = -20					; size = 4
_i$2 = -16						; size = 4
_f$ = -12						; size = 4
_elapsed$ = -8						; size = 4
_this$ = -4						; size = 4
?Think@CAmbientMusic@@UAEXXZ PROC			; CAmbientMusic::Think, COMDAT
; _this$ = ecx

; 2420 : {

	push	ebp
	mov	ebp, esp
	sub	esp, 92					; 0000005cH
	push	ebx
	push	esi
	push	edi
	mov	DWORD PTR _this$[ebp], ecx

; 2421 : 	float elapsed = gpGlobals->time - pev->dmgtime;

	mov	eax, DWORD PTR _this$[ebp]
	mov	ecx, DWORD PTR [eax+4]
	mov	edx, DWORD PTR ?gpGlobals@@3PAUglobalvars_t@@A ; gpGlobals
	movss	xmm0, DWORD PTR [edx]
	subss	xmm0, DWORD PTR [ecx+484]
	movss	DWORD PTR _elapsed$[ebp], xmm0

; 2422 : 	float f = elapsed / pev->frags;

	mov	eax, DWORD PTR _this$[ebp]
	mov	ecx, DWORD PTR [eax+4]
	movss	xmm0, DWORD PTR _elapsed$[ebp]
	divss	xmm0, DWORD PTR [ecx+356]
	movss	DWORD PTR _f$[ebp], xmm0

; 2423 : 	f = bound( 0.0f, f, 1.0f );

	movss	xmm0, DWORD PTR _f$[ebp]
	comiss	xmm0, DWORD PTR __real@00000000
	jb	SHORT $LN10@Think
	movss	xmm0, DWORD PTR __real@3f800000
	comiss	xmm0, DWORD PTR _f$[ebp]
	jbe	SHORT $LN8@Think
	movss	xmm0, DWORD PTR _f$[ebp]
	movss	DWORD PTR tv81[ebp], xmm0
	jmp	SHORT $LN9@Think
$LN8@Think:
	movss	xmm0, DWORD PTR __real@3f800000
	movss	DWORD PTR tv81[ebp], xmm0
$LN9@Think:
	movss	xmm0, DWORD PTR tv81[ebp]
	movss	DWORD PTR tv82[ebp], xmm0
	jmp	SHORT $LN11@Think
$LN10@Think:
	xorps	xmm0, xmm0
	movss	DWORD PTR tv82[ebp], xmm0
$LN11@Think:
	movss	xmm0, DWORD PTR tv82[ebp]
	movss	DWORD PTR _f$[ebp], xmm0

; 2424 : 
; 2425 : 	MESSAGE_BEGIN( MSG_ALL, gmsgMusicFade );

	push	0
	push	0
	mov	eax, DWORD PTR ?gmsgMusicFade@@3HA	; gmsgMusicFade
	push	eax
	push	2
	call	?MESSAGE_BEGIN@@YAXHHPBMPAUedict_s@@@Z	; MESSAGE_BEGIN
	add	esp, 16					; 00000010H

; 2426 : 		WRITE_SHORT( f * 10000 );

	movss	xmm0, DWORD PTR _f$[ebp]
	mulss	xmm0, DWORD PTR __real@461c4000
	cvttss2si eax, xmm0
	push	eax
	call	DWORD PTR ?g_engfuncs@@3Uenginefuncs_s@@A+200
	add	esp, 4

; 2427 : 	MESSAGE_END();

	call	DWORD PTR ?g_engfuncs@@3Uenginefuncs_s@@A+188

; 2428 : 
; 2429 : 	if( f == 1.0f )	// hit 100% fade

	movss	xmm0, DWORD PTR _f$[ebp]
	ucomiss	xmm0, DWORD PTR __real@3f800000
	lahf
	test	ah, 68					; 00000044H
	jp	SHORT $LN5@Think

; 2430 : 	{
; 2431 : 		// send stop to all the clients
; 2432 : 		for( int i = 1; i <= gpGlobals->maxClients; i++ )

	mov	DWORD PTR _i$2[ebp], 1
	jmp	SHORT $LN4@Think
$LN2@Think:
	mov	eax, DWORD PTR _i$2[ebp]
	add	eax, 1
	mov	DWORD PTR _i$2[ebp], eax
$LN4@Think:
	mov	eax, DWORD PTR ?gpGlobals@@3PAUglobalvars_t@@A ; gpGlobals
	mov	ecx, DWORD PTR _i$2[ebp]
	cmp	ecx, DWORD PTR [eax+144]
	jg	SHORT $LN3@Think

; 2433 : 		{
; 2434 : 			CBasePlayer *pPlayer = (CBasePlayer *)UTIL_PlayerByIndex( i );

	mov	eax, DWORD PTR _i$2[ebp]
	push	eax
	call	?UTIL_PlayerByIndex@@YAPAVCBaseEntity@@H@Z ; UTIL_PlayerByIndex
	add	esp, 4
	mov	DWORD PTR _pPlayer$1[ebp], eax

; 2435 : 			if( pPlayer ) CLIENT_COMMAND( pPlayer->edict(), "music\n" );

	cmp	DWORD PTR _pPlayer$1[ebp], 0
	je	SHORT $LN6@Think
	push	OFFSET ??_C@_06JLDPCOLD@music?6?$AA@
	mov	ecx, DWORD PTR _pPlayer$1[ebp]
	call	?edict@CBaseEntity@@QAEPAUedict_s@@XZ	; CBaseEntity::edict
	push	eax
	call	DWORD PTR ?g_engfuncs@@3Uenginefuncs_s@@A+164
	add	esp, 8
$LN6@Think:

; 2436 : 		}

	jmp	SHORT $LN2@Think
$LN3@Think:

; 2437 : 
; 2438 : 		ClearBits( pev->spawnflags, SF_START_ON );

	mov	eax, DWORD PTR _this$[ebp]
	mov	ecx, DWORD PTR [eax+4]
	mov	edx, DWORD PTR [ecx+416]
	and	edx, -2					; fffffffeH
	mov	eax, DWORD PTR _this$[ebp]
	mov	ecx, DWORD PTR [eax+4]
	mov	DWORD PTR [ecx+416], edx

; 2439 : 		pev->dmgtime = 0.0f;

	mov	eax, DWORD PTR _this$[ebp]
	mov	ecx, DWORD PTR [eax+4]
	xorps	xmm0, xmm0
	movss	DWORD PTR [ecx+484], xmm0

; 2440 : 		return;

	jmp	SHORT $LN1@Think
$LN5@Think:

; 2441 : 	}
; 2442 : 
; 2443 : 	SetNextThink( 0.01 );

	push	ecx
	movss	xmm0, DWORD PTR __real@3c23d70a
	movss	DWORD PTR [esp], xmm0
	mov	eax, DWORD PTR _this$[ebp]
	mov	edx, DWORD PTR [eax]
	mov	ecx, DWORD PTR _this$[ebp]
	mov	eax, DWORD PTR [edx+80]
	call	eax
$LN1@Think:

; 2444 : }

	pop	edi
	pop	esi
	pop	ebx
	mov	esp, ebp
	pop	ebp
	ret	0
?Think@CAmbientMusic@@UAEXXZ ENDP			; CAmbientMusic::Think
_TEXT	ENDS
; Function compile flags: /Odtp /ZI
; File d:\!diffusion 2020\source code 2022\client-server\server\sound.cpp
;	COMDAT ?Spawn@CAmbientMusic@@UAEXXZ
_TEXT	SEGMENT
_this$ = -4						; size = 4
?Spawn@CAmbientMusic@@UAEXXZ PROC			; CAmbientMusic::Spawn, COMDAT
; _this$ = ecx

; 2357 : {

	push	ebp
	mov	ebp, esp
	sub	esp, 68					; 00000044H
	push	ebx
	push	esi
	push	edi
	mov	DWORD PTR _this$[ebp], ecx

; 2358 : 	// check for possible errors
; 2359 : 	if( !pev->message && pev->netname )

	mov	eax, DWORD PTR _this$[ebp]
	mov	ecx, DWORD PTR [eax+4]
	cmp	DWORD PTR [ecx+468], 0
	jne	SHORT $LN1@Spawn
	mov	eax, DWORD PTR _this$[ebp]
	mov	ecx, DWORD PTR [eax+4]
	cmp	DWORD PTR [ecx+464], 0
	je	SHORT $LN1@Spawn

; 2360 :           {
; 2361 : 		pev->message = pev->netname;

	mov	eax, DWORD PTR _this$[ebp]
	mov	ecx, DWORD PTR [eax+4]
	mov	edx, DWORD PTR _this$[ebp]
	mov	eax, DWORD PTR [edx+4]
	mov	ecx, DWORD PTR [ecx+464]
	mov	DWORD PTR [eax+468], ecx

; 2362 : 		pev->netname = 0;

	mov	eax, DWORD PTR _this$[ebp]
	mov	ecx, DWORD PTR [eax+4]
	mov	DWORD PTR [ecx+464], 0
$LN1@Spawn:

; 2363 : 	}
; 2364 : }

	pop	edi
	pop	esi
	pop	ebx
	mov	esp, ebp
	pop	ebp
	ret	0
?Spawn@CAmbientMusic@@UAEXXZ ENDP			; CAmbientMusic::Spawn
_TEXT	ENDS
; Function compile flags: /Odtp /ZI
; File d:\!diffusion 2020\source code 2022\client-server\server\sound.cpp
;	COMDAT ?KeyValue@CAmbientMusic@@UAEXPAUKeyValueData_s@@@Z
_TEXT	SEGMENT
_this$ = -4						; size = 4
_pkvd$ = 8						; size = 4
?KeyValue@CAmbientMusic@@UAEXPAUKeyValueData_s@@@Z PROC	; CAmbientMusic::KeyValue, COMDAT
; _this$ = ecx

; 2336 : {

	push	ebp
	mov	ebp, esp
	sub	esp, 68					; 00000044H
	push	ebx
	push	esi
	push	edi
	mov	DWORD PTR _this$[ebp], ecx

; 2337 : 	if (FStrEq(pkvd->szKeyName, "m_iszIntroTrack"))

	push	OFFSET ??_C@_0BA@BFHGNAMB@m_iszIntroTrack?$AA@
	mov	eax, DWORD PTR _pkvd$[ebp]
	mov	ecx, DWORD PTR [eax+4]
	push	ecx
	call	?FStrEq@@YAHPBD0@Z			; FStrEq
	add	esp, 8
	test	eax, eax
	je	SHORT $LN2@KeyValue

; 2338 : 	{
; 2339 : 		pev->netname = ALLOC_STRING(pkvd->szValue);

	mov	eax, DWORD PTR _pkvd$[ebp]
	mov	ecx, DWORD PTR [eax+8]
	push	ecx
	call	DWORD PTR ?g_engfuncs@@3Uenginefuncs_s@@A+268
	add	esp, 4
	mov	edx, DWORD PTR _this$[ebp]
	mov	ecx, DWORD PTR [edx+4]
	mov	DWORD PTR [ecx+464], eax

; 2340 : 		pkvd->fHandled = TRUE;

	mov	eax, DWORD PTR _pkvd$[ebp]
	mov	DWORD PTR [eax+12], 1
	jmp	$LN7@KeyValue
$LN2@KeyValue:

; 2341 : 	}
; 2342 : 	else if (FStrEq(pkvd->szKeyName, "m_iszMainTrack"))

	push	OFFSET ??_C@_0P@EOMCAGLL@m_iszMainTrack?$AA@
	mov	eax, DWORD PTR _pkvd$[ebp]
	mov	ecx, DWORD PTR [eax+4]
	push	ecx
	call	?FStrEq@@YAHPBD0@Z			; FStrEq
	add	esp, 8
	test	eax, eax
	je	SHORT $LN4@KeyValue

; 2343 : 	{
; 2344 : 		pev->message = ALLOC_STRING( pkvd->szValue );

	mov	eax, DWORD PTR _pkvd$[ebp]
	mov	ecx, DWORD PTR [eax+8]
	push	ecx
	call	DWORD PTR ?g_engfuncs@@3Uenginefuncs_s@@A+268
	add	esp, 4
	mov	edx, DWORD PTR _this$[ebp]
	mov	ecx, DWORD PTR [edx+4]
	mov	DWORD PTR [ecx+468], eax

; 2345 : 		pkvd->fHandled = TRUE;

	mov	eax, DWORD PTR _pkvd$[ebp]
	mov	DWORD PTR [eax+12], 1
	jmp	SHORT $LN7@KeyValue
$LN4@KeyValue:

; 2346 : 	}
; 2347 : 	else if (FStrEq(pkvd->szKeyName, "fadetime"))

	push	OFFSET ??_C@_08BPPHHMFC@fadetime?$AA@
	mov	eax, DWORD PTR _pkvd$[ebp]
	mov	ecx, DWORD PTR [eax+4]
	push	ecx
	call	?FStrEq@@YAHPBD0@Z			; FStrEq
	add	esp, 8
	test	eax, eax
	je	SHORT $LN6@KeyValue

; 2348 : 	{
; 2349 : 		pev->frags = atoi(pkvd->szValue);

	mov	eax, DWORD PTR _pkvd$[ebp]
	mov	ecx, DWORD PTR [eax+8]
	push	ecx
	call	_atoi
	add	esp, 4
	cvtsi2ss xmm0, eax
	mov	edx, DWORD PTR _this$[ebp]
	mov	eax, DWORD PTR [edx+4]
	movss	DWORD PTR [eax+356], xmm0

; 2350 : 		pkvd->fHandled = TRUE;

	mov	eax, DWORD PTR _pkvd$[ebp]
	mov	DWORD PTR [eax+12], 1

; 2351 : 	}
; 2352 : 	else

	jmp	SHORT $LN7@KeyValue
$LN6@KeyValue:

; 2353 : 		BaseClass::KeyValue( pkvd );

	mov	eax, DWORD PTR _pkvd$[ebp]
	push	eax
	mov	ecx, DWORD PTR _this$[ebp]
	call	?KeyValue@CBaseDelay@@UAEXPAUKeyValueData_s@@@Z ; CBaseDelay::KeyValue
$LN7@KeyValue:

; 2354 : }

	pop	edi
	pop	esi
	pop	ebx
	mov	esp, ebp
	pop	ebp
	ret	4
?KeyValue@CAmbientMusic@@UAEXPAUKeyValueData_s@@@Z ENDP	; CAmbientMusic::KeyValue
_TEXT	ENDS
; Function compile flags: /Odtp /ZI
; File d:\!diffusion 2020\source code 2022\client-server\server\sound.cpp
;	COMDAT ?StartMessage@CAmbientMusic@@UAEXPAVCBasePlayer@@@Z
_TEXT	SEGMENT
_this$ = -4						; size = 4
_pPlayer$ = 8						; size = 4
?StartMessage@CAmbientMusic@@UAEXPAVCBasePlayer@@@Z PROC ; CAmbientMusic::StartMessage, COMDAT
; _this$ = ecx

; 2367 : {

	push	ebp
	mov	ebp, esp
	sub	esp, 68					; 00000044H
	push	ebx
	push	esi
	push	edi
	mov	DWORD PTR _this$[ebp], ecx

; 2368 : 	if( pev->button ) return; // fire once at spawn

	mov	eax, DWORD PTR _this$[ebp]
	mov	ecx, DWORD PTR [eax+4]
	cmp	DWORD PTR [ecx+384], 0
	je	SHORT $LN2@StartMessa
	jmp	SHORT $LN1@StartMessa
$LN2@StartMessa:

; 2369 : 
; 2370 : 	if( FBitSet( pev->spawnflags, SF_START_ON ))

	mov	eax, DWORD PTR _this$[ebp]
	mov	ecx, DWORD PTR [eax+4]
	mov	edx, DWORD PTR [ecx+416]
	and	edx, 1
	je	SHORT $LN3@StartMessa

; 2371 : 		PlayStream( pPlayer, true );

	push	1
	mov	eax, DWORD PTR _pPlayer$[ebp]
	push	eax
	mov	ecx, DWORD PTR _this$[ebp]
	call	?PlayStream@CAmbientMusic@@QAEXPAVCBasePlayer@@_N@Z ; CAmbientMusic::PlayStream
$LN3@StartMessa:

; 2372 : 	pev->button = true;

	mov	eax, DWORD PTR _this$[ebp]
	mov	ecx, DWORD PTR [eax+4]
	mov	DWORD PTR [ecx+384], 1
$LN1@StartMessa:

; 2373 : }

	pop	edi
	pop	esi
	pop	ebx
	mov	esp, ebp
	pop	ebp
	ret	4
?StartMessage@CAmbientMusic@@UAEXPAVCBasePlayer@@@Z ENDP ; CAmbientMusic::StartMessage
_TEXT	ENDS
; Function compile flags: /Odtp /ZI
; File d:\!diffusion 2020\source code 2022\client-server\server\sound.cpp
;	COMDAT ?PlayStream@CAmbientMusic@@QAEXPAVCBasePlayer@@_N@Z
_TEXT	SEGMENT
_this$ = -4						; size = 4
_pPlayer$ = 8						; size = 4
_bPlay$ = 12						; size = 1
?PlayStream@CAmbientMusic@@QAEXPAVCBasePlayer@@_N@Z PROC ; CAmbientMusic::PlayStream, COMDAT
; _this$ = ecx

; 2376 : {

	push	ebp
	mov	ebp, esp
	sub	esp, 68					; 00000044H
	push	ebx
	push	esi
	push	edi
	mov	DWORD PTR _this$[ebp], ecx

; 2377 : 	if( !pPlayer ) return; // not spawned?

	cmp	DWORD PTR _pPlayer$[ebp], 0
	jne	SHORT $LN2@PlayStream
	jmp	$LN1@PlayStream
$LN2@PlayStream:

; 2378 : 
; 2379 : 	if( bPlay )

	movzx	eax, BYTE PTR _bPlay$[ebp]
	test	eax, eax
	je	$LN3@PlayStream

; 2380 : 	{
; 2381 : 		if( pev->netname && pev->message )

	mov	eax, DWORD PTR _this$[ebp]
	mov	ecx, DWORD PTR [eax+4]
	cmp	DWORD PTR [ecx+464], 0
	je	SHORT $LN5@PlayStream
	mov	eax, DWORD PTR _this$[ebp]
	mov	ecx, DWORD PTR [eax+4]
	cmp	DWORD PTR [ecx+468], 0
	je	SHORT $LN5@PlayStream

; 2382 : 			CLIENT_COMMAND( pPlayer->edict(), "music \"%s\" \"%s\"\n", GetNetname(), GetMessage());	// intro + loop

	mov	ecx, DWORD PTR _this$[ebp]
	call	?GetMessageA@CBaseEntity@@QAEPBDXZ	; CBaseEntity::GetMessageA
	push	eax
	mov	ecx, DWORD PTR _this$[ebp]
	call	?GetNetname@CBaseEntity@@QAEPBDXZ	; CBaseEntity::GetNetname
	push	eax
	push	OFFSET ??_C@_0BB@FNHLBFJP@music?5?$CC?$CFs?$CC?5?$CC?$CFs?$CC?6?$AA@
	mov	ecx, DWORD PTR _pPlayer$[ebp]
	call	?edict@CBaseEntity@@QAEPAUedict_s@@XZ	; CBaseEntity::edict
	push	eax
	call	DWORD PTR ?g_engfuncs@@3Uenginefuncs_s@@A+164
	add	esp, 16					; 00000010H
	jmp	SHORT $LN8@PlayStream
$LN5@PlayStream:

; 2383 : 		else if( FBitSet( pev->spawnflags, SF_LOOP ))

	mov	eax, DWORD PTR _this$[ebp]
	mov	ecx, DWORD PTR [eax+4]
	mov	edx, DWORD PTR [ecx+416]
	and	edx, 2
	je	SHORT $LN7@PlayStream

; 2384 : 			CLIENT_COMMAND( pPlayer->edict(), "music \"%s\" \"%s\"\n", GetMessage(), GetMessage());	// loop

	mov	ecx, DWORD PTR _this$[ebp]
	call	?GetMessageA@CBaseEntity@@QAEPBDXZ	; CBaseEntity::GetMessageA
	push	eax
	mov	ecx, DWORD PTR _this$[ebp]
	call	?GetMessageA@CBaseEntity@@QAEPBDXZ	; CBaseEntity::GetMessageA
	push	eax
	push	OFFSET ??_C@_0BB@FNHLBFJP@music?5?$CC?$CFs?$CC?5?$CC?$CFs?$CC?6?$AA@
	mov	ecx, DWORD PTR _pPlayer$[ebp]
	call	?edict@CBaseEntity@@QAEPAUedict_s@@XZ	; CBaseEntity::edict
	push	eax
	call	DWORD PTR ?g_engfuncs@@3Uenginefuncs_s@@A+164
	add	esp, 16					; 00000010H

; 2385 : 		else

	jmp	SHORT $LN8@PlayStream
$LN7@PlayStream:

; 2386 : 			CLIENT_COMMAND( pPlayer->edict(), "music \"%s\"\n", GetMessage());			// one pass

	mov	ecx, DWORD PTR _this$[ebp]
	call	?GetMessageA@CBaseEntity@@QAEPBDXZ	; CBaseEntity::GetMessageA
	push	eax
	push	OFFSET ??_C@_0M@DKCMEMFI@music?5?$CC?$CFs?$CC?6?$AA@
	mov	ecx, DWORD PTR _pPlayer$[ebp]
	call	?edict@CBaseEntity@@QAEPAUedict_s@@XZ	; CBaseEntity::edict
	push	eax
	call	DWORD PTR ?g_engfuncs@@3Uenginefuncs_s@@A+164
	add	esp, 12					; 0000000cH
$LN8@PlayStream:
	jmp	SHORT $LN10@PlayStream
$LN3@PlayStream:

; 2387 : 	}
; 2388 : 	else if( pev->frags )

	mov	eax, DWORD PTR _this$[ebp]
	mov	ecx, DWORD PTR [eax+4]
	movss	xmm0, DWORD PTR [ecx+356]
	ucomiss	xmm0, DWORD PTR __real@00000000
	lahf
	test	ah, 68					; 00000044H
	jnp	SHORT $LN9@PlayStream

; 2389 : 	{
; 2390 : 		// run fading out like in Paranoia
; 2391 : 		pev->dmgtime = gpGlobals->time;

	mov	eax, DWORD PTR _this$[ebp]
	mov	ecx, DWORD PTR [eax+4]
	mov	edx, DWORD PTR ?gpGlobals@@3PAUglobalvars_t@@A ; gpGlobals
	mov	eax, DWORD PTR [edx]
	mov	DWORD PTR [ecx+484], eax

; 2392 : 		SetNextThink( 0.01 );

	push	ecx
	movss	xmm0, DWORD PTR __real@3c23d70a
	movss	DWORD PTR [esp], xmm0
	mov	eax, DWORD PTR _this$[ebp]
	mov	edx, DWORD PTR [eax]
	mov	ecx, DWORD PTR _this$[ebp]
	mov	eax, DWORD PTR [edx+80]
	call	eax

; 2393 : 	}
; 2394 : 	else

	jmp	SHORT $LN10@PlayStream
$LN9@PlayStream:

; 2395 : 	{
; 2396 : 		CLIENT_COMMAND( pPlayer->edict(), "music\n" );						// stop

	push	OFFSET ??_C@_06JLDPCOLD@music?6?$AA@
	mov	ecx, DWORD PTR _pPlayer$[ebp]
	call	?edict@CBaseEntity@@QAEPAUedict_s@@XZ	; CBaseEntity::edict
	push	eax
	call	DWORD PTR ?g_engfuncs@@3Uenginefuncs_s@@A+164
	add	esp, 8
$LN10@PlayStream:
$LN1@PlayStream:

; 2397 : 	}
; 2398 : }

	pop	edi
	pop	esi
	pop	ebx
	mov	esp, ebp
	pop	ebp
	ret	8
?PlayStream@CAmbientMusic@@QAEXPAVCBasePlayer@@_N@Z ENDP ; CAmbientMusic::PlayStream
_TEXT	ENDS
; Function compile flags: /Odtp /ZI
; File d:\!diffusion 2020\source code 2022\client-server\server\sound.cpp
;	COMDAT ?Use@CAmbientMusic@@UAEXPAVCBaseEntity@@0W4USE_TYPE@@M@Z
_TEXT	SEGMENT
tv129 = -77						; size = 1
_pPlayer$1 = -12					; size = 4
_i$2 = -8						; size = 4
_this$ = -4						; size = 4
_pActivator$ = 8					; size = 4
_pCaller$ = 12						; size = 4
_useType$ = 16						; size = 4
_value$ = 20						; size = 4
?Use@CAmbientMusic@@UAEXPAVCBaseEntity@@0W4USE_TYPE@@M@Z PROC ; CAmbientMusic::Use, COMDAT
; _this$ = ecx

; 2401 : {

	push	ebp
	mov	ebp, esp
	sub	esp, 80					; 00000050H
	push	ebx
	push	esi
	push	edi
	mov	DWORD PTR _this$[ebp], ecx

; 2402 : 	if( !ShouldToggle( useType ))

	mov	eax, DWORD PTR _useType$[ebp]
	push	eax
	mov	ecx, DWORD PTR _this$[ebp]
	call	?ShouldToggle@CBaseEntity@@QAEHW4USE_TYPE@@@Z ; CBaseEntity::ShouldToggle
	test	eax, eax
	jne	SHORT $LN5@Use

; 2403 : 		return;

	jmp	$LN1@Use
$LN5@Use:

; 2404 : 
; 2405 : 	if( pev->dmgtime ) return; // soundtrack is fading out	

	mov	eax, DWORD PTR _this$[ebp]
	mov	ecx, DWORD PTR [eax+4]
	movss	xmm0, DWORD PTR [ecx+484]
	ucomiss	xmm0, DWORD PTR __real@00000000
	lahf
	test	ah, 68					; 00000044H
	jnp	SHORT $LN6@Use
	jmp	$LN1@Use
$LN6@Use:

; 2406 : 
; 2407 : 	// send to all the clients
; 2408 : 	for( int i = 1; i <= gpGlobals->maxClients; i++ )

	mov	DWORD PTR _i$2[ebp], 1
	jmp	SHORT $LN4@Use
$LN2@Use:
	mov	eax, DWORD PTR _i$2[ebp]
	add	eax, 1
	mov	DWORD PTR _i$2[ebp], eax
$LN4@Use:
	mov	eax, DWORD PTR ?gpGlobals@@3PAUglobalvars_t@@A ; gpGlobals
	mov	ecx, DWORD PTR _i$2[ebp]
	cmp	ecx, DWORD PTR [eax+144]
	jg	SHORT $LN3@Use

; 2409 : 	{
; 2410 : 		CBasePlayer *pPlayer = (CBasePlayer *)UTIL_PlayerByIndex( i );

	mov	eax, DWORD PTR _i$2[ebp]
	push	eax
	call	?UTIL_PlayerByIndex@@YAPAVCBaseEntity@@H@Z ; UTIL_PlayerByIndex
	add	esp, 4
	mov	DWORD PTR _pPlayer$1[ebp], eax

; 2411 : 		PlayStream( pPlayer, !FBitSet( pev->spawnflags, SF_START_ON ));

	mov	eax, DWORD PTR _this$[ebp]
	mov	ecx, DWORD PTR [eax+4]
	mov	edx, DWORD PTR [ecx+416]
	and	edx, 1
	jne	SHORT $LN10@Use
	mov	BYTE PTR tv129[ebp], 1
	jmp	SHORT $LN11@Use
$LN10@Use:
	mov	BYTE PTR tv129[ebp], 0
$LN11@Use:
	movzx	eax, BYTE PTR tv129[ebp]
	push	eax
	mov	ecx, DWORD PTR _pPlayer$1[ebp]
	push	ecx
	mov	ecx, DWORD PTR _this$[ebp]
	call	?PlayStream@CAmbientMusic@@QAEXPAVCBasePlayer@@_N@Z ; CAmbientMusic::PlayStream

; 2412 : 	}

	jmp	SHORT $LN2@Use
$LN3@Use:

; 2413 : 
; 2414 : 	if( FBitSet( pev->spawnflags, SF_START_ON ))

	mov	eax, DWORD PTR _this$[ebp]
	mov	ecx, DWORD PTR [eax+4]
	mov	edx, DWORD PTR [ecx+416]
	and	edx, 1
	je	SHORT $LN7@Use

; 2415 : 		ClearBits( pev->spawnflags, SF_START_ON );

	mov	eax, DWORD PTR _this$[ebp]
	mov	ecx, DWORD PTR [eax+4]
	mov	edx, DWORD PTR [ecx+416]
	and	edx, -2					; fffffffeH
	mov	eax, DWORD PTR _this$[ebp]
	mov	ecx, DWORD PTR [eax+4]
	mov	DWORD PTR [ecx+416], edx
	jmp	SHORT $LN8@Use
$LN7@Use:

; 2416 : 	else SetBits( pev->spawnflags, SF_START_ON );

	mov	eax, DWORD PTR _this$[ebp]
	mov	ecx, DWORD PTR [eax+4]
	mov	edx, DWORD PTR [ecx+416]
	or	edx, 1
	mov	eax, DWORD PTR _this$[ebp]
	mov	ecx, DWORD PTR [eax+4]
	mov	DWORD PTR [ecx+416], edx
$LN8@Use:
$LN1@Use:

; 2417 : }

	pop	edi
	pop	esi
	pop	ebx
	mov	esp, ebp
	pop	ebp
	ret	16					; 00000010H
?Use@CAmbientMusic@@UAEXPAVCBaseEntity@@0W4USE_TYPE@@M@Z ENDP ; CAmbientMusic::Use
_TEXT	ENDS
; Function compile flags: /Odtp /ZI
; File d:\!diffusion 2020\source code 2022\client-server\server\sound.cpp
;	COMDAT ?GetState@CAmbientMusic@@UAE?AW4STATE@@XZ
_TEXT	SEGMENT
tv72 = -72						; size = 4
_this$ = -4						; size = 4
?GetState@CAmbientMusic@@UAE?AW4STATE@@XZ PROC		; CAmbientMusic::GetState, COMDAT
; _this$ = ecx

; 2324 : 	virtual STATE GetState( void ) { return FBitSet( pev->spawnflags, SF_START_ON ) ? STATE_ON : STATE_OFF; }

	push	ebp
	mov	ebp, esp
	sub	esp, 72					; 00000048H
	push	ebx
	push	esi
	push	edi
	mov	DWORD PTR _this$[ebp], ecx
	mov	eax, DWORD PTR _this$[ebp]
	mov	ecx, DWORD PTR [eax+4]
	mov	edx, DWORD PTR [ecx+416]
	and	edx, 1
	je	SHORT $LN3@GetState
	mov	DWORD PTR tv72[ebp], 1
	jmp	SHORT $LN4@GetState
$LN3@GetState:
	mov	DWORD PTR tv72[ebp], 0
$LN4@GetState:
	mov	eax, DWORD PTR tv72[ebp]
	pop	edi
	pop	esi
	pop	ebx
	mov	esp, ebp
	pop	ebp
	ret	0
?GetState@CAmbientMusic@@UAE?AW4STATE@@XZ ENDP		; CAmbientMusic::GetState
_TEXT	ENDS
; Function compile flags: /Odtp /ZI
;	COMDAT ??__FnameHolder@?1???$DataMapInit@VCSpeaker@@@@YAPAUdatamap_s@@PAVCSpeaker@@@Z@YAXXZ
text$yd	SEGMENT
??__FnameHolder@?1???$DataMapInit@VCSpeaker@@@@YAPAUdatamap_s@@PAVCSpeaker@@@Z@YAXXZ PROC ; `DataMapInit<CSpeaker>'::`2'::`dynamic atexit destructor for 'nameHolder'', COMDAT
	push	ebp
	mov	ebp, esp
	sub	esp, 64					; 00000040H
	push	ebx
	push	esi
	push	edi
	mov	ecx, OFFSET ?nameHolder@?1???$DataMapInit@VCSpeaker@@@@YAPAUdatamap_s@@PAVCSpeaker@@@Z@4VCDatadescGeneratedNameHolder@@A
	call	??1CDatadescGeneratedNameHolder@@QAE@XZ	; CDatadescGeneratedNameHolder::~CDatadescGeneratedNameHolder
	pop	edi
	pop	esi
	pop	ebx
	mov	esp, ebp
	pop	ebp
	ret	0
??__FnameHolder@?1???$DataMapInit@VCSpeaker@@@@YAPAUdatamap_s@@PAVCSpeaker@@@Z@YAXXZ ENDP ; `DataMapInit<CSpeaker>'::`2'::`dynamic atexit destructor for 'nameHolder''
text$yd	ENDS
; Function compile flags: /Odtp /ZI
; File d:\!diffusion 2020\source code 2022\client-server\server\sound.cpp
;	COMDAT ??__Eg_DataMapHolder@CSpeaker_DataDescInit@@YAXXZ
text$di	SEGMENT
??__Eg_DataMapHolder@CSpeaker_DataDescInit@@YAXXZ PROC	; CSpeaker_DataDescInit::`dynamic initializer for 'g_DataMapHolder'', COMDAT

; 2146 : BEGIN_DATADESC( CSpeaker )

	push	ebp
	mov	ebp, esp
	sub	esp, 64					; 00000040H
	push	ebx
	push	esi
	push	edi
	push	0
	call	??$DataMapInit@VCSpeaker@@@@YAPAUdatamap_s@@PAVCSpeaker@@@Z ; DataMapInit<CSpeaker>
	add	esp, 4
	mov	DWORD PTR ?g_DataMapHolder@CSpeaker_DataDescInit@@3PAUdatamap_s@@A, eax ; CSpeaker_DataDescInit::g_DataMapHolder
	pop	edi
	pop	esi
	pop	ebx
	mov	esp, ebp
	pop	ebp
	ret	0
??__Eg_DataMapHolder@CSpeaker_DataDescInit@@YAXXZ ENDP	; CSpeaker_DataDescInit::`dynamic initializer for 'g_DataMapHolder''
text$di	ENDS
; Function compile flags: /Odtp /ZI
; File d:\!diffusion 2020\source code 2022\client-server\server\sound.cpp
;	COMDAT ??$DataMapInit@VCSpeaker@@@@YAPAUdatamap_s@@PAVCSpeaker@@@Z
_TEXT	SEGMENT
__$EHRec$ = -12						; size = 12
___formal$ = 8						; size = 4
??$DataMapInit@VCSpeaker@@@@YAPAUdatamap_s@@PAVCSpeaker@@@Z PROC ; DataMapInit<CSpeaker>, COMDAT

; 2146 : BEGIN_DATADESC( CSpeaker )

	push	ebp
	mov	ebp, esp
	push	-1
	push	__ehhandler$??$DataMapInit@VCSpeaker@@@@YAPAUdatamap_s@@PAVCSpeaker@@@Z
	mov	eax, DWORD PTR fs:0
	push	eax
	sub	esp, 64					; 00000040H
	push	ebx
	push	esi
	push	edi
	mov	eax, DWORD PTR ___security_cookie
	xor	eax, ebp
	push	eax
	lea	eax, DWORD PTR __$EHRec$[ebp]
	mov	DWORD PTR fs:0, eax
	mov	eax, DWORD PTR __tls_index
	mov	ecx, DWORD PTR fs:__tls_array
	mov	edx, DWORD PTR [ecx+eax*4]
	mov	eax, DWORD PTR ?$TSS0@?1???$DataMapInit@VCSpeaker@@@@YAPAUdatamap_s@@PAVCSpeaker@@@Z@4HA
	cmp	eax, DWORD PTR __Init_thread_epoch[edx]
	jle	SHORT $LN2@DataMapIni
	push	OFFSET ?$TSS0@?1???$DataMapInit@VCSpeaker@@@@YAPAUdatamap_s@@PAVCSpeaker@@@Z@4HA
	call	__Init_thread_header
	add	esp, 4
	cmp	DWORD PTR ?$TSS0@?1???$DataMapInit@VCSpeaker@@@@YAPAUdatamap_s@@PAVCSpeaker@@@Z@4HA, -1
	jne	SHORT $LN2@DataMapIni
	mov	DWORD PTR __$EHRec$[ebp+8], 0
	push	OFFSET ??_C@_08IKHBFCDE@CSpeaker?$AA@
	mov	ecx, OFFSET ?nameHolder@?1???$DataMapInit@VCSpeaker@@@@YAPAUdatamap_s@@PAVCSpeaker@@@Z@4VCDatadescGeneratedNameHolder@@A
	call	??0CDatadescGeneratedNameHolder@@QAE@PBD@Z ; CDatadescGeneratedNameHolder::CDatadescGeneratedNameHolder
	push	OFFSET ??__FnameHolder@?1???$DataMapInit@VCSpeaker@@@@YAPAUdatamap_s@@PAVCSpeaker@@@Z@YAXXZ ; `DataMapInit<CSpeaker>'::`2'::`dynamic atexit destructor for 'nameHolder''
	call	_atexit
	add	esp, 4
	mov	DWORD PTR __$EHRec$[ebp+8], -1
	push	OFFSET ?$TSS0@?1???$DataMapInit@VCSpeaker@@@@YAPAUdatamap_s@@PAVCSpeaker@@@Z@4HA
	call	__Init_thread_footer
	add	esp, 4
$LN2@DataMapIni:

; 2150 : END_DATADESC()

	call	?GetBaseMap@CSpeaker@@SAPAUdatamap_s@@XZ ; CSpeaker::GetBaseMap
	mov	DWORD PTR ?m_DataMap@CSpeaker@@2Udatamap_s@@A+12, eax

; 2146 : BEGIN_DATADESC( CSpeaker )

	mov	eax, DWORD PTR __tls_index
	mov	ecx, DWORD PTR fs:__tls_array
	mov	edx, DWORD PTR [ecx+eax*4]
	mov	eax, DWORD PTR ?$TSS1@?1???$DataMapInit@VCSpeaker@@@@YAPAUdatamap_s@@PAVCSpeaker@@@Z@4HA
	cmp	eax, DWORD PTR __Init_thread_epoch[edx]
	jle	$LN3@DataMapIni
	push	OFFSET ?$TSS1@?1???$DataMapInit@VCSpeaker@@@@YAPAUdatamap_s@@PAVCSpeaker@@@Z@4HA
	call	__Init_thread_header
	add	esp, 4
	cmp	DWORD PTR ?$TSS1@?1???$DataMapInit@VCSpeaker@@@@YAPAUdatamap_s@@PAVCSpeaker@@@Z@4HA, -1
	jne	$LN3@DataMapIni
	mov	DWORD PTR __$EHRec$[ebp+8], 1

; 2147 : 	DEFINE_KEYFIELD( m_preset, FIELD_INTEGER, "preset" ),
; 2148 : 	DEFINE_FUNCTION( SpeakerThink ),

	push	OFFSET ??_C@_0N@PONONMAE@SpeakerThink?$AA@
	mov	ecx, OFFSET ?nameHolder@?1???$DataMapInit@VCSpeaker@@@@YAPAUdatamap_s@@PAVCSpeaker@@@Z@4VCDatadescGeneratedNameHolder@@A
	call	?GenerateName@CDatadescGeneratedNameHolder@@QAEPBDPBD@Z ; CDatadescGeneratedNameHolder::GenerateName
	mov	DWORD PTR ?dataDesc@?1???$DataMapInit@VCSpeaker@@@@YAPAUdatamap_s@@PAVCSpeaker@@@Z@4PAUtypedescription_s@@A+52, eax
	mov	DWORD PTR ?dataDesc@?1???$DataMapInit@VCSpeaker@@@@YAPAUdatamap_s@@PAVCSpeaker@@@Z@4PAUtypedescription_s@@A+56, 0
	mov	eax, 1
	mov	WORD PTR ?dataDesc@?1???$DataMapInit@VCSpeaker@@@@YAPAUdatamap_s@@PAVCSpeaker@@@Z@4PAUtypedescription_s@@A+60, ax
	mov	eax, 8
	mov	WORD PTR ?dataDesc@?1???$DataMapInit@VCSpeaker@@@@YAPAUdatamap_s@@PAVCSpeaker@@@Z@4PAUtypedescription_s@@A+62, ax
	mov	DWORD PTR ?dataDesc@?1???$DataMapInit@VCSpeaker@@@@YAPAUdatamap_s@@PAVCSpeaker@@@Z@4PAUtypedescription_s@@A+64, 0
	mov	DWORD PTR ?dataDesc@?1???$DataMapInit@VCSpeaker@@@@YAPAUdatamap_s@@PAVCSpeaker@@@Z@4PAUtypedescription_s@@A+68, OFFSET ?SpeakerThink@CSpeaker@@QAEXXZ ; CSpeaker::SpeakerThink

; 2149 : 	DEFINE_FUNCTION( ToggleUse ),

	mov	DWORD PTR ?dataDesc@?1???$DataMapInit@VCSpeaker@@@@YAPAUdatamap_s@@PAVCSpeaker@@@Z@4PAUtypedescription_s@@A+72, 18 ; 00000012H
	push	OFFSET ??_C@_09CHGFKFGA@ToggleUse?$AA@
	mov	ecx, OFFSET ?nameHolder@?1???$DataMapInit@VCSpeaker@@@@YAPAUdatamap_s@@PAVCSpeaker@@@Z@4VCDatadescGeneratedNameHolder@@A
	call	?GenerateName@CDatadescGeneratedNameHolder@@QAEPBDPBD@Z ; CDatadescGeneratedNameHolder::GenerateName
	mov	DWORD PTR ?dataDesc@?1???$DataMapInit@VCSpeaker@@@@YAPAUdatamap_s@@PAVCSpeaker@@@Z@4PAUtypedescription_s@@A+76, eax
	mov	DWORD PTR ?dataDesc@?1???$DataMapInit@VCSpeaker@@@@YAPAUdatamap_s@@PAVCSpeaker@@@Z@4PAUtypedescription_s@@A+80, 0
	mov	eax, 1
	mov	WORD PTR ?dataDesc@?1???$DataMapInit@VCSpeaker@@@@YAPAUdatamap_s@@PAVCSpeaker@@@Z@4PAUtypedescription_s@@A+84, ax
	mov	eax, 8
	mov	WORD PTR ?dataDesc@?1???$DataMapInit@VCSpeaker@@@@YAPAUdatamap_s@@PAVCSpeaker@@@Z@4PAUtypedescription_s@@A+86, ax
	mov	DWORD PTR ?dataDesc@?1???$DataMapInit@VCSpeaker@@@@YAPAUdatamap_s@@PAVCSpeaker@@@Z@4PAUtypedescription_s@@A+88, 0
	mov	DWORD PTR ?dataDesc@?1???$DataMapInit@VCSpeaker@@@@YAPAUdatamap_s@@PAVCSpeaker@@@Z@4PAUtypedescription_s@@A+92, OFFSET ?ToggleUse@CSpeaker@@QAEXPAVCBaseEntity@@0W4USE_TYPE@@M@Z ; CSpeaker::ToggleUse
	mov	DWORD PTR __$EHRec$[ebp+8], -1
	push	OFFSET ?$TSS1@?1???$DataMapInit@VCSpeaker@@@@YAPAUdatamap_s@@PAVCSpeaker@@@Z@4HA
	call	__Init_thread_footer
	add	esp, 4
$LN3@DataMapIni:

; 2150 : END_DATADESC()

	mov	eax, 1
	test	eax, eax
	je	SHORT $LN4@DataMapIni
	mov	DWORD PTR ?m_DataMap@CSpeaker@@2Udatamap_s@@A+4, 3
	mov	eax, 24					; 00000018H
	shl	eax, 0
	add	eax, OFFSET ?dataDesc@?1???$DataMapInit@VCSpeaker@@@@YAPAUdatamap_s@@PAVCSpeaker@@@Z@4PAUtypedescription_s@@A
	mov	DWORD PTR ?m_DataMap@CSpeaker@@2Udatamap_s@@A, eax
	jmp	SHORT $LN5@DataMapIni
$LN4@DataMapIni:
	mov	DWORD PTR ?m_DataMap@CSpeaker@@2Udatamap_s@@A+4, 1
	mov	DWORD PTR ?m_DataMap@CSpeaker@@2Udatamap_s@@A, OFFSET ?dataDesc@?1???$DataMapInit@VCSpeaker@@@@YAPAUdatamap_s@@PAVCSpeaker@@@Z@4PAUtypedescription_s@@A
$LN5@DataMapIni:
	mov	eax, OFFSET ?m_DataMap@CSpeaker@@2Udatamap_s@@A ; CSpeaker::m_DataMap
	mov	ecx, DWORD PTR __$EHRec$[ebp]
	mov	DWORD PTR fs:0, ecx
	pop	ecx
	pop	edi
	pop	esi
	pop	ebx
	mov	esp, ebp
	pop	ebp
	ret	0
_TEXT	ENDS
;	COMDAT text$x
text$x	SEGMENT
__unwindfunclet$??$DataMapInit@VCSpeaker@@@@YAPAUdatamap_s@@PAVCSpeaker@@@Z$0:
	push	OFFSET ?$TSS0@?1???$DataMapInit@VCSpeaker@@@@YAPAUdatamap_s@@PAVCSpeaker@@@Z@4HA
	call	__Init_thread_abort
	pop	ecx
	ret	0
__unwindfunclet$??$DataMapInit@VCSpeaker@@@@YAPAUdatamap_s@@PAVCSpeaker@@@Z$1:
	push	OFFSET ?$TSS1@?1???$DataMapInit@VCSpeaker@@@@YAPAUdatamap_s@@PAVCSpeaker@@@Z@4HA
	call	__Init_thread_abort
	pop	ecx
	ret	0
__ehhandler$??$DataMapInit@VCSpeaker@@@@YAPAUdatamap_s@@PAVCSpeaker@@@Z:
	mov	edx, DWORD PTR [esp+8]
	lea	eax, DWORD PTR [edx+12]
	mov	ecx, DWORD PTR [edx-80]
	xor	ecx, eax
	call	@__security_check_cookie@4
	mov	eax, OFFSET __ehfuncinfo$??$DataMapInit@VCSpeaker@@@@YAPAUdatamap_s@@PAVCSpeaker@@@Z
	jmp	___CxxFrameHandler3
text$x	ENDS
??$DataMapInit@VCSpeaker@@@@YAPAUdatamap_s@@PAVCSpeaker@@@Z ENDP ; DataMapInit<CSpeaker>
; Function compile flags: /Odtp /ZI
; File d:\!diffusion 2020\source code 2022\client-server\server\sound.cpp
;	COMDAT ??__Espeaker@@YAXXZ
text$di	SEGMENT
??__Espeaker@@YAXXZ PROC				; `dynamic initializer for 'speaker'', COMDAT

; 2144 : LINK_ENTITY_TO_CLASS( speaker, CSpeaker );

	push	ebp
	mov	ebp, esp
	sub	esp, 64					; 00000040H
	push	ebx
	push	esi
	push	edi
	push	OFFSET ??_C@_07BHDDMEGH@speaker?$AA@
	mov	ecx, OFFSET ?speaker@@3V?$CEntityFactory@VCSpeaker@@@@A
	call	??0?$CEntityFactory@VCSpeaker@@@@QAE@PBD@Z ; CEntityFactory<CSpeaker>::CEntityFactory<CSpeaker>
	pop	edi
	pop	esi
	pop	ebx
	mov	esp, ebp
	pop	ebp
	ret	0
??__Espeaker@@YAXXZ ENDP				; `dynamic initializer for 'speaker''
text$di	ENDS
; Function compile flags: /Odtp /ZI
; File d:\!diffusion 2020\source code 2022\client-server\server\util.h
;	COMDAT ?GetEntitySize@?$CEntityFactory@VCSpeaker@@@@UAEIXZ
_TEXT	SEGMENT
_this$ = -4						; size = 4
?GetEntitySize@?$CEntityFactory@VCSpeaker@@@@UAEIXZ PROC ; CEntityFactory<CSpeaker>::GetEntitySize, COMDAT
; _this$ = ecx

; 103  : 	{

	push	ebp
	mov	ebp, esp
	sub	esp, 68					; 00000044H
	push	ebx
	push	esi
	push	edi
	mov	DWORD PTR _this$[ebp], ecx

; 104  : 		return sizeof(T);

	mov	eax, 1808				; 00000710H

; 105  : 	}

	pop	edi
	pop	esi
	pop	ebx
	mov	esp, ebp
	pop	ebp
	ret	0
?GetEntitySize@?$CEntityFactory@VCSpeaker@@@@UAEIXZ ENDP ; CEntityFactory<CSpeaker>::GetEntitySize
_TEXT	ENDS
; Function compile flags: /Odtp /ZI
; File d:\!diffusion 2020\source code 2022\client-server\server\util.h
;	COMDAT ?Destroy@?$CEntityFactory@VCSpeaker@@@@UAEXPAVCBaseEntity@@@Z
_TEXT	SEGMENT
_this$ = -4						; size = 4
_pEntity$ = 8						; size = 4
?Destroy@?$CEntityFactory@VCSpeaker@@@@UAEXPAVCBaseEntity@@@Z PROC ; CEntityFactory<CSpeaker>::Destroy, COMDAT
; _this$ = ecx

; 98   : 	{

	push	ebp
	mov	ebp, esp
	sub	esp, 68					; 00000044H
	push	ebx
	push	esi
	push	edi
	mov	DWORD PTR _this$[ebp], ecx

; 99   : 		UTIL_Remove( pEntity );

	mov	eax, DWORD PTR _pEntity$[ebp]
	push	eax
	call	?UTIL_Remove@@YAXPAVCBaseEntity@@@Z	; UTIL_Remove
	add	esp, 4

; 100  : 	}

	pop	edi
	pop	esi
	pop	ebx
	mov	esp, ebp
	pop	ebp
	ret	4
?Destroy@?$CEntityFactory@VCSpeaker@@@@UAEXPAVCBaseEntity@@@Z ENDP ; CEntityFactory<CSpeaker>::Destroy
_TEXT	ENDS
; Function compile flags: /Odtp /ZI
; File d:\!diffusion 2020\source code 2022\client-server\server\util.h
;	COMDAT ?Create@?$CEntityFactory@VCSpeaker@@@@UAEPAVCBaseEntity@@PBDPAUentvars_s@@@Z
_TEXT	SEGMENT
_pEnt$ = -8						; size = 4
_this$ = -4						; size = 4
_pClassName$ = 8					; size = 4
_pev$ = 12						; size = 4
?Create@?$CEntityFactory@VCSpeaker@@@@UAEPAVCBaseEntity@@PBDPAUentvars_s@@@Z PROC ; CEntityFactory<CSpeaker>::Create, COMDAT
; _this$ = ecx

; 92   : 	{

	push	ebp
	mov	ebp, esp
	sub	esp, 72					; 00000048H
	push	ebx
	push	esi
	push	edi
	mov	DWORD PTR _this$[ebp], ecx

; 93   : 		T* pEnt = GetClassPtr((T*)pev, pClassName);

	mov	eax, DWORD PTR _pClassName$[ebp]
	push	eax
	mov	ecx, DWORD PTR _pev$[ebp]
	push	ecx
	call	??$GetClassPtr@VCSpeaker@@@@YAPAVCSpeaker@@PAV0@PBD@Z ; GetClassPtr<CSpeaker>
	add	esp, 8
	mov	DWORD PTR _pEnt$[ebp], eax

; 94   : 		return pEnt;

	mov	eax, DWORD PTR _pEnt$[ebp]

; 95   : 	}

	pop	edi
	pop	esi
	pop	ebx
	mov	esp, ebp
	pop	ebp
	ret	8
?Create@?$CEntityFactory@VCSpeaker@@@@UAEPAVCBaseEntity@@PBDPAUentvars_s@@@Z ENDP ; CEntityFactory<CSpeaker>::Create
_TEXT	ENDS
; Function compile flags: /Odtp /ZI
; File d:\!diffusion 2020\source code 2022\client-server\server\util.h
;	COMDAT ??0?$CEntityFactory@VCSpeaker@@@@QAE@PBD@Z
_TEXT	SEGMENT
tv76 = -72						; size = 4
_this$ = -4						; size = 4
_pClassName$ = 8					; size = 4
??0?$CEntityFactory@VCSpeaker@@@@QAE@PBD@Z PROC		; CEntityFactory<CSpeaker>::CEntityFactory<CSpeaker>, COMDAT
; _this$ = ecx

; 86   : 	CEntityFactory( const char *pClassName )

	push	ebp
	mov	ebp, esp
	sub	esp, 72					; 00000048H
	push	ebx
	push	esi
	push	edi
	mov	DWORD PTR _this$[ebp], ecx

; 87   : 	{

	mov	ecx, DWORD PTR _this$[ebp]
	call	??0IEntityFactory@@QAE@XZ
	mov	eax, DWORD PTR _this$[ebp]
	mov	DWORD PTR [eax], OFFSET ??_7?$CEntityFactory@VCSpeaker@@@@6B@

; 88   : 		EntityFactoryDictionary()->InstallFactory( this, pClassName );

	call	?EntityFactoryDictionary@@YAPAVIEntityFactoryDictionary@@XZ ; EntityFactoryDictionary
	mov	DWORD PTR tv76[ebp], eax
	mov	eax, DWORD PTR _pClassName$[ebp]
	push	eax
	mov	ecx, DWORD PTR _this$[ebp]
	push	ecx
	mov	edx, DWORD PTR tv76[ebp]
	mov	eax, DWORD PTR [edx]
	mov	ecx, DWORD PTR tv76[ebp]
	mov	edx, DWORD PTR [eax]
	call	edx

; 89   : 	}

	mov	eax, DWORD PTR _this$[ebp]
	pop	edi
	pop	esi
	pop	ebx
	mov	esp, ebp
	pop	ebp
	ret	4
??0?$CEntityFactory@VCSpeaker@@@@QAE@PBD@Z ENDP		; CEntityFactory<CSpeaker>::CEntityFactory<CSpeaker>
_TEXT	ENDS
; Function compile flags: /Odtp /ZI
;	COMDAT ??0CSpeaker@@QAE@XZ
_TEXT	SEGMENT
_this$ = -4						; size = 4
??0CSpeaker@@QAE@XZ PROC				; CSpeaker::CSpeaker, COMDAT
; _this$ = ecx
	push	ebp
	mov	ebp, esp
	sub	esp, 68					; 00000044H
	push	ebx
	push	esi
	push	edi
	mov	DWORD PTR _this$[ebp], ecx
	mov	ecx, DWORD PTR _this$[ebp]
	call	??0CBaseEntity@@QAE@XZ
	mov	eax, DWORD PTR _this$[ebp]
	mov	DWORD PTR [eax], OFFSET ??_7CSpeaker@@6B@
	mov	eax, DWORD PTR _this$[ebp]
	pop	edi
	pop	esi
	pop	ebx
	mov	esp, ebp
	pop	ebp
	ret	0
??0CSpeaker@@QAE@XZ ENDP				; CSpeaker::CSpeaker
_TEXT	ENDS
; Function compile flags: /Odtp /ZI
; File d:\!diffusion 2020\source code 2022\client-server\server\sound.cpp
;	COMDAT ?ObjectCaps@CSpeaker@@UAEHXZ
_TEXT	SEGMENT
_this$ = -4						; size = 4
?ObjectCaps@CSpeaker@@UAEHXZ PROC			; CSpeaker::ObjectCaps, COMDAT
; _this$ = ecx

; 2139 : 	virtual int ObjectCaps( void ) { return (BaseClass :: ObjectCaps() & ~FCAP_ACROSS_TRANSITION); }

	push	ebp
	mov	ebp, esp
	sub	esp, 68					; 00000044H
	push	ebx
	push	esi
	push	edi
	mov	DWORD PTR _this$[ebp], ecx
	mov	ecx, DWORD PTR _this$[ebp]
	call	?ObjectCaps@CBaseEntity@@UAEHXZ		; CBaseEntity::ObjectCaps
	and	eax, -3					; fffffffdH
	pop	edi
	pop	esi
	pop	ebx
	mov	esp, ebp
	pop	ebp
	ret	0
?ObjectCaps@CSpeaker@@UAEHXZ ENDP			; CSpeaker::ObjectCaps
_TEXT	ENDS
; Function compile flags: /Odtp /ZI
; File d:\!diffusion 2020\source code 2022\client-server\server\sound.cpp
;	COMDAT ?GetDataDescMap@CSpeaker@@UAEPAUdatamap_s@@XZ
_TEXT	SEGMENT
_this$ = -4						; size = 4
?GetDataDescMap@CSpeaker@@UAEPAUdatamap_s@@XZ PROC	; CSpeaker::GetDataDescMap, COMDAT
; _this$ = ecx

; 2146 : BEGIN_DATADESC( CSpeaker )

	push	ebp
	mov	ebp, esp
	sub	esp, 68					; 00000044H
	push	ebx
	push	esi
	push	edi
	mov	DWORD PTR _this$[ebp], ecx
	mov	eax, OFFSET ?m_DataMap@CSpeaker@@2Udatamap_s@@A ; CSpeaker::m_DataMap
	pop	edi
	pop	esi
	pop	ebx
	mov	esp, ebp
	pop	ebp
	ret	0
?GetDataDescMap@CSpeaker@@UAEPAUdatamap_s@@XZ ENDP	; CSpeaker::GetDataDescMap
_TEXT	ENDS
; Function compile flags: /Odtp /ZI
; File d:\!diffusion 2020\source code 2022\client-server\server\sound.cpp
;	COMDAT ?GetBaseMap@CSpeaker@@SAPAUdatamap_s@@XZ
_TEXT	SEGMENT
_pResult$ = -4						; size = 4
?GetBaseMap@CSpeaker@@SAPAUdatamap_s@@XZ PROC		; CSpeaker::GetBaseMap, COMDAT

; 2146 : BEGIN_DATADESC( CSpeaker )

	push	ebp
	mov	ebp, esp
	sub	esp, 68					; 00000044H
	push	ebx
	push	esi
	push	edi
	lea	eax, DWORD PTR _pResult$[ebp]
	push	eax
	push	0
	call	??$DataMapAccess@VCBaseEntity@@@@YAXPAVCBaseEntity@@PAPAUdatamap_s@@@Z ; DataMapAccess<CBaseEntity>
	add	esp, 8
	mov	eax, DWORD PTR _pResult$[ebp]
	pop	edi
	pop	esi
	pop	ebx
	mov	esp, ebp
	pop	ebp
	ret	0
?GetBaseMap@CSpeaker@@SAPAUdatamap_s@@XZ ENDP		; CSpeaker::GetBaseMap
_TEXT	ENDS
; Function compile flags: /Odtp /ZI
; File d:\!diffusion 2020\source code 2022\client-server\server\sound.cpp
;	COMDAT ?SpeakerThink@CSpeaker@@QAEXXZ
_TEXT	SEGMENT
tv251 = -92						; size = 4
tv208 = -92						; size = 4
tv88 = -92						; size = 4
_pitch$ = -24						; size = 4
_flags$ = -20						; size = 4
_flattenuation$ = -16					; size = 4
_flvolume$ = -12					; size = 4
_szSoundFile$ = -8					; size = 4
_this$ = -4						; size = 4
?SpeakerThink@CSpeaker@@QAEXXZ PROC			; CSpeaker::SpeakerThink, COMDAT
; _this$ = ecx

; 2191 : {

	push	ebp
	mov	ebp, esp
	sub	esp, 92					; 0000005cH
	push	ebx
	push	esi
	push	edi
	mov	DWORD PTR _this$[ebp], ecx

; 2192 : 	char* szSoundFile;
; 2193 : 	float flvolume = pev->health * 0.1;

	mov	eax, DWORD PTR _this$[ebp]
	mov	ecx, DWORD PTR [eax+4]
	cvtss2sd xmm0, DWORD PTR [ecx+352]
	mulsd	xmm0, QWORD PTR __real@3fb999999999999a
	cvtsd2ss xmm0, xmm0
	movss	DWORD PTR _flvolume$[ebp], xmm0

; 2194 : 	float flattenuation = 0.3;

	movss	xmm0, DWORD PTR __real@3e99999a
	movss	DWORD PTR _flattenuation$[ebp], xmm0

; 2195 : 	int flags = 0;

	mov	DWORD PTR _flags$[ebp], 0

; 2196 : 	int pitch = 100;

	mov	DWORD PTR _pitch$[ebp], 100		; 00000064H

; 2197 : 
; 2198 : 
; 2199 : 	// Wait for the talkmonster to finish first.
; 2200 : 	if (gpGlobals->time <= CTalkMonster::g_talkWaitTime)

	mov	eax, DWORD PTR ?gpGlobals@@3PAUglobalvars_t@@A ; gpGlobals
	movss	xmm0, DWORD PTR ?g_talkWaitTime@CTalkMonster@@2MA
	comiss	xmm0, DWORD PTR [eax]
	jb	SHORT $LN4@SpeakerThi

; 2201 : 	{
; 2202 : 		pev->nextthink = CTalkMonster::g_talkWaitTime + RANDOM_FLOAT( 5, 10 );

	push	ecx
	movss	xmm0, DWORD PTR __real@41200000
	movss	DWORD PTR [esp], xmm0
	push	ecx
	movss	xmm0, DWORD PTR __real@40a00000
	movss	DWORD PTR [esp], xmm0
	call	DWORD PTR ?g_engfuncs@@3Uenginefuncs_s@@A+364
	add	esp, 8
	fstp	DWORD PTR tv208[ebp]
	movss	xmm0, DWORD PTR tv208[ebp]
	addss	xmm0, DWORD PTR ?g_talkWaitTime@CTalkMonster@@2MA
	mov	eax, DWORD PTR _this$[ebp]
	mov	ecx, DWORD PTR [eax+4]
	movss	DWORD PTR [ecx+260], xmm0

; 2203 : 		return;

	jmp	$LN1@SpeakerThi
$LN4@SpeakerThi:

; 2204 : 	}
; 2205 : 	
; 2206 : 	if (m_preset)

	mov	eax, DWORD PTR _this$[ebp]
	cmp	DWORD PTR [eax+1804], 0
	je	$LN5@SpeakerThi

; 2207 : 	{
; 2208 : 		// go lookup preset text, assign szSoundFile
; 2209 : 		switch (m_preset)

	mov	eax, DWORD PTR _this$[ebp]
	mov	ecx, DWORD PTR [eax+1804]
	mov	DWORD PTR tv88[ebp], ecx
	mov	edx, DWORD PTR tv88[ebp]
	sub	edx, 1
	mov	DWORD PTR tv88[ebp], edx
	cmp	DWORD PTR tv88[ebp], 11			; 0000000bH
	ja	SHORT $LN19@SpeakerThi
	mov	eax, DWORD PTR tv88[ebp]
	jmp	DWORD PTR $LN24@SpeakerThi[eax*4]
$LN7@SpeakerThi:

; 2210 : 		{
; 2211 : 		case 1: szSoundFile =  "C1A0_"; break;

	mov	DWORD PTR _szSoundFile$[ebp], OFFSET ??_C@_05GBFACMPL@C1A0_?$AA@
	jmp	SHORT $LN2@SpeakerThi
$LN8@SpeakerThi:

; 2212 : 		case 2: szSoundFile =  "C1A1_"; break;

	mov	DWORD PTR _szSoundFile$[ebp], OFFSET ??_C@_05GAJCEGMM@C1A1_?$AA@
	jmp	SHORT $LN2@SpeakerThi
$LN9@SpeakerThi:

; 2213 : 		case 3: szSoundFile =  "C1A2_"; break;

	mov	DWORD PTR _szSoundFile$[ebp], OFFSET ??_C@_05GCNEPIJF@C1A2_?$AA@
	jmp	SHORT $LN2@SpeakerThi
$LN10@SpeakerThi:

; 2214 : 		case 4: szSoundFile =  "C1A3_"; break;

	mov	DWORD PTR _szSoundFile$[ebp], OFFSET ??_C@_05GDBGJCKC@C1A3_?$AA@
	jmp	SHORT $LN2@SpeakerThi
$LN11@SpeakerThi:

; 2215 : 		case 5: szSoundFile =  "C1A4_"; break; 

	mov	DWORD PTR _szSoundFile$[ebp], OFFSET ??_C@_05GGFJIECH@C1A4_?$AA@
	jmp	SHORT $LN2@SpeakerThi
$LN12@SpeakerThi:

; 2216 : 		case 6: szSoundFile =  "C2A1_"; break;

	mov	DWORD PTR _szSoundFile$[ebp], OFFSET ??_C@_05CHDCDMBM@C2A1_?$AA@
	jmp	SHORT $LN2@SpeakerThi
$LN13@SpeakerThi:

; 2217 : 		case 7: szSoundFile =  "C2A2_"; break;

	mov	DWORD PTR _szSoundFile$[ebp], OFFSET ??_C@_05CFHEICEF@C2A2_?$AA@
	jmp	SHORT $LN2@SpeakerThi
$LN14@SpeakerThi:

; 2218 : 		case 8: szSoundFile =  "C2A3_"; break;

	mov	DWORD PTR _szSoundFile$[ebp], OFFSET ??_C@_05CELGOIHC@C2A3_?$AA@
	jmp	SHORT $LN2@SpeakerThi
$LN15@SpeakerThi:

; 2219 : 		case 9: szSoundFile =  "C2A4_"; break;

	mov	DWORD PTR _szSoundFile$[ebp], OFFSET ??_C@_05CBPJPOPH@C2A4_?$AA@
	jmp	SHORT $LN2@SpeakerThi
$LN16@SpeakerThi:

; 2220 : 		case 10: szSoundFile = "C2A5_"; break;

	mov	DWORD PTR _szSoundFile$[ebp], OFFSET ??_C@_05CADLJEMA@C2A5_?$AA@
	jmp	SHORT $LN2@SpeakerThi
$LN17@SpeakerThi:

; 2221 : 		case 11: szSoundFile = "C3A1_"; break;

	mov	DWORD PTR _szSoundFile$[ebp], OFFSET ??_C@_05BKFCBFKM@C3A1_?$AA@
	jmp	SHORT $LN2@SpeakerThi
$LN18@SpeakerThi:

; 2222 : 		case 12: szSoundFile = "C3A2_"; break;

	mov	DWORD PTR _szSoundFile$[ebp], OFFSET ??_C@_05BIBEKLPF@C3A2_?$AA@
	jmp	SHORT $LN2@SpeakerThi
$LN19@SpeakerThi:

; 2223 : 		default: szSoundFile = ""; break;

	mov	DWORD PTR _szSoundFile$[ebp], OFFSET ??_C@_00CNPNBAHC@?$AA@
$LN2@SpeakerThi:

; 2224 : 		}
; 2225 : 	} else

	jmp	SHORT $LN6@SpeakerThi
$LN5@SpeakerThi:

; 2226 : 		szSoundFile = (char*) STRING(pev->message);

	mov	eax, DWORD PTR _this$[ebp]
	mov	ecx, DWORD PTR [eax+4]
	mov	edx, DWORD PTR [ecx+468]
	push	edx
	call	DWORD PTR ?g_engfuncs@@3Uenginefuncs_s@@A+264
	add	esp, 4
	mov	DWORD PTR _szSoundFile$[ebp], eax
$LN6@SpeakerThi:

; 2227 : 	
; 2228 : 	if (szSoundFile[0] == '!')

	mov	eax, 1
	imul	ecx, eax, 0
	mov	edx, DWORD PTR _szSoundFile$[ebp]
	movsx	eax, BYTE PTR [edx+ecx]
	cmp	eax, 33					; 00000021H
	jne	SHORT $LN20@SpeakerThi

; 2229 : 	{
; 2230 : 		// play single sentence, one shot
; 2231 : 		UTIL_EmitAmbientSound( edict(), GetAbsOrigin(), szSoundFile, flvolume, flattenuation, flags, pitch );

	mov	eax, DWORD PTR _pitch$[ebp]
	push	eax
	mov	ecx, DWORD PTR _flags$[ebp]
	push	ecx
	push	ecx
	movss	xmm0, DWORD PTR _flattenuation$[ebp]
	movss	DWORD PTR [esp], xmm0
	push	ecx
	movss	xmm0, DWORD PTR _flvolume$[ebp]
	movss	DWORD PTR [esp], xmm0
	mov	edx, DWORD PTR _szSoundFile$[ebp]
	push	edx
	mov	ecx, DWORD PTR _this$[ebp]
	call	?GetAbsOrigin@CBaseEntity@@QBEABVVector@@XZ ; CBaseEntity::GetAbsOrigin
	push	eax
	mov	ecx, DWORD PTR _this$[ebp]
	call	?edict@CBaseEntity@@QAEPAUedict_s@@XZ	; CBaseEntity::edict
	push	eax
	call	?UTIL_EmitAmbientSound@@YAXPAUedict_s@@ABVVector@@PBDMMHH@Z ; UTIL_EmitAmbientSound
	add	esp, 28					; 0000001cH

; 2232 : 
; 2233 : 		// shut off and reset
; 2234 : 		pev->nextthink = 0.0;

	mov	eax, DWORD PTR _this$[ebp]
	mov	ecx, DWORD PTR [eax+4]
	xorps	xmm0, xmm0
	movss	DWORD PTR [ecx+260], xmm0

; 2235 : 	}
; 2236 : 	else

	jmp	$LN21@SpeakerThi
$LN20@SpeakerThi:

; 2237 : 	{
; 2238 : 		// make random announcement from sentence group
; 2239 : 
; 2240 : 		if (SENTENCEG_PlayRndSz(ENT(pev), szSoundFile, flvolume, flattenuation, flags, pitch) < 0)

	mov	eax, DWORD PTR _pitch$[ebp]
	push	eax
	mov	ecx, DWORD PTR _flags$[ebp]
	push	ecx
	push	ecx
	movss	xmm0, DWORD PTR _flattenuation$[ebp]
	movss	DWORD PTR [esp], xmm0
	push	ecx
	movss	xmm0, DWORD PTR _flvolume$[ebp]
	movss	DWORD PTR [esp], xmm0
	mov	edx, DWORD PTR _szSoundFile$[ebp]
	push	edx
	mov	eax, DWORD PTR _this$[ebp]
	mov	ecx, DWORD PTR [eax+4]
	push	ecx
	call	?ENT@@YAPAUedict_s@@PBUentvars_s@@@Z	; ENT
	add	esp, 4
	push	eax
	call	?SENTENCEG_PlayRndSz@@YAHPAUedict_s@@PBDMMHH@Z ; SENTENCEG_PlayRndSz
	add	esp, 24					; 00000018H
	test	eax, eax
	jge	SHORT $LN22@SpeakerThi

; 2241 : 			ALERT(at_console, "Level Design Error!\nSPEAKER has bad sentence group name: %s\n",szSoundFile); 

	mov	eax, DWORD PTR _szSoundFile$[ebp]
	push	eax
	push	OFFSET ??_C@_0DN@IIPINGFH@Level?5Design?5Error?$CB?6SPEAKER?5has?5@
	push	1
	call	DWORD PTR ?g_engfuncs@@3Uenginefuncs_s@@A+244
	add	esp, 12					; 0000000cH
$LN22@SpeakerThi:

; 2242 : 
; 2243 : 		// set next announcement time for random 5 to 10 minute delay
; 2244 : 		pev->nextthink = gpGlobals->time + 

	push	ecx
	movss	xmm0, DWORD PTR __real@43070000
	movss	DWORD PTR [esp], xmm0
	push	ecx
	movss	xmm0, DWORD PTR __real@41700000
	movss	DWORD PTR [esp], xmm0
	call	DWORD PTR ?g_engfuncs@@3Uenginefuncs_s@@A+364
	add	esp, 8
	fstp	DWORD PTR tv251[ebp]
	mov	eax, DWORD PTR ?gpGlobals@@3PAUglobalvars_t@@A ; gpGlobals
	movss	xmm0, DWORD PTR tv251[ebp]
	addss	xmm0, DWORD PTR [eax]
	mov	ecx, DWORD PTR _this$[ebp]
	mov	edx, DWORD PTR [ecx+4]
	movss	DWORD PTR [edx+260], xmm0

; 2245 : 						RANDOM_FLOAT(ANNOUNCE_MINUTES_MIN * 60.0, ANNOUNCE_MINUTES_MAX * 60.0);
; 2246 : 
; 2247 : 		CTalkMonster::g_talkWaitTime = gpGlobals->time + 5;		// time delay until it's ok to speak: used so that two NPCs don't talk at once

	mov	eax, DWORD PTR ?gpGlobals@@3PAUglobalvars_t@@A ; gpGlobals
	movss	xmm0, DWORD PTR [eax]
	addss	xmm0, DWORD PTR __real@40a00000
	movss	DWORD PTR ?g_talkWaitTime@CTalkMonster@@2MA, xmm0
$LN21@SpeakerThi:
$LN1@SpeakerThi:

; 2248 : 	}
; 2249 : 
; 2250 : 	return;
; 2251 : }

	pop	edi
	pop	esi
	pop	ebx
	mov	esp, ebp
	pop	ebp
	ret	0
	npad	1
$LN24@SpeakerThi:
	DD	$LN7@SpeakerThi
	DD	$LN8@SpeakerThi
	DD	$LN9@SpeakerThi
	DD	$LN10@SpeakerThi
	DD	$LN11@SpeakerThi
	DD	$LN12@SpeakerThi
	DD	$LN13@SpeakerThi
	DD	$LN14@SpeakerThi
	DD	$LN15@SpeakerThi
	DD	$LN16@SpeakerThi
	DD	$LN17@SpeakerThi
	DD	$LN18@SpeakerThi
?SpeakerThink@CSpeaker@@QAEXXZ ENDP			; CSpeaker::SpeakerThink
_TEXT	ENDS
; Function compile flags: /Odtp /ZI
; File d:\!diffusion 2020\source code 2022\client-server\server\sound.cpp
;	COMDAT ?ToggleUse@CSpeaker@@QAEXPAVCBaseEntity@@0W4USE_TYPE@@M@Z
_TEXT	SEGMENT
tv72 = -76						; size = 4
_fActive$ = -8						; size = 4
_this$ = -4						; size = 4
_pActivator$ = 8					; size = 4
_pCaller$ = 12						; size = 4
_useType$ = 16						; size = 4
_value$ = 20						; size = 4
?ToggleUse@CSpeaker@@QAEXPAVCBaseEntity@@0W4USE_TYPE@@M@Z PROC ; CSpeaker::ToggleUse, COMDAT
; _this$ = ecx

; 2258 : {

	push	ebp
	mov	ebp, esp
	sub	esp, 76					; 0000004cH
	push	ebx
	push	esi
	push	edi
	mov	DWORD PTR _this$[ebp], ecx

; 2259 : 	int fActive = (pev->nextthink > 0.0);

	mov	eax, DWORD PTR _this$[ebp]
	mov	ecx, DWORD PTR [eax+4]
	cvtss2sd xmm0, DWORD PTR [ecx+260]
	comisd	xmm0, QWORD PTR __real@0000000000000000
	jbe	SHORT $LN11@ToggleUse
	mov	DWORD PTR tv72[ebp], 1
	jmp	SHORT $LN12@ToggleUse
$LN11@ToggleUse:
	mov	DWORD PTR tv72[ebp], 0
$LN12@ToggleUse:
	mov	edx, DWORD PTR tv72[ebp]
	mov	DWORD PTR _fActive$[ebp], edx

; 2260 : 
; 2261 : 	// fActive is TRUE only if an announcement is pending
; 2262 : 	
; 2263 : 	if ( useType != USE_TOGGLE )

	cmp	DWORD PTR _useType$[ebp], 3
	je	SHORT $LN3@ToggleUse

; 2264 : 	{
; 2265 : 		// ignore if we're just turning something on that's already on, or
; 2266 : 		// turning something off that's already off.
; 2267 : 		if ( (fActive && useType == USE_ON) || (!fActive && useType == USE_OFF) )

	cmp	DWORD PTR _fActive$[ebp], 0
	je	SHORT $LN5@ToggleUse
	cmp	DWORD PTR _useType$[ebp], 1
	je	SHORT $LN4@ToggleUse
$LN5@ToggleUse:
	cmp	DWORD PTR _fActive$[ebp], 0
	jne	SHORT $LN3@ToggleUse
	cmp	DWORD PTR _useType$[ebp], 0
	jne	SHORT $LN3@ToggleUse
$LN4@ToggleUse:

; 2268 : 			return;

	jmp	$LN1@ToggleUse
$LN3@ToggleUse:

; 2269 : 	}
; 2270 : 
; 2271 : 	if ( useType == USE_ON )

	cmp	DWORD PTR _useType$[ebp], 1
	jne	SHORT $LN6@ToggleUse

; 2272 : 	{
; 2273 : 		// turn on announcements
; 2274 : 		pev->nextthink = gpGlobals->time + 0.1;

	mov	eax, DWORD PTR ?gpGlobals@@3PAUglobalvars_t@@A ; gpGlobals
	cvtss2sd xmm0, DWORD PTR [eax]
	addsd	xmm0, QWORD PTR __real@3fb999999999999a
	cvtsd2ss xmm0, xmm0
	mov	ecx, DWORD PTR _this$[ebp]
	mov	edx, DWORD PTR [ecx+4]
	movss	DWORD PTR [edx+260], xmm0

; 2275 : 		return;

	jmp	SHORT $LN1@ToggleUse
$LN6@ToggleUse:

; 2276 : 	}
; 2277 : 
; 2278 : 	if ( useType == USE_OFF )

	cmp	DWORD PTR _useType$[ebp], 0
	jne	SHORT $LN7@ToggleUse

; 2279 : 	{
; 2280 : 		// turn off announcements
; 2281 : 		pev->nextthink = 0.0;

	mov	eax, DWORD PTR _this$[ebp]
	mov	ecx, DWORD PTR [eax+4]
	xorps	xmm0, xmm0
	movss	DWORD PTR [ecx+260], xmm0

; 2282 : 		return;

	jmp	SHORT $LN1@ToggleUse
$LN7@ToggleUse:

; 2283 : 	
; 2284 : 	}
; 2285 : 
; 2286 : 	// Toggle announcements
; 2287 : 
; 2288 : 	
; 2289 : 	if ( fActive )

	cmp	DWORD PTR _fActive$[ebp], 0
	je	SHORT $LN8@ToggleUse

; 2290 : 	{
; 2291 : 		// turn off announcements
; 2292 : 		pev->nextthink = 0.0;

	mov	eax, DWORD PTR _this$[ebp]
	mov	ecx, DWORD PTR [eax+4]
	xorps	xmm0, xmm0
	movss	DWORD PTR [ecx+260], xmm0

; 2293 : 	}
; 2294 : 	else 

	jmp	SHORT $LN9@ToggleUse
$LN8@ToggleUse:

; 2295 : 	{
; 2296 : 		// turn on announcements
; 2297 : 		pev->nextthink = gpGlobals->time + 0.1;

	mov	eax, DWORD PTR ?gpGlobals@@3PAUglobalvars_t@@A ; gpGlobals
	cvtss2sd xmm0, DWORD PTR [eax]
	addsd	xmm0, QWORD PTR __real@3fb999999999999a
	cvtsd2ss xmm0, xmm0
	mov	ecx, DWORD PTR _this$[ebp]
	mov	edx, DWORD PTR [ecx+4]
	movss	DWORD PTR [edx+260], xmm0
$LN9@ToggleUse:
$LN1@ToggleUse:

; 2298 : 	} 
; 2299 : }

	pop	edi
	pop	esi
	pop	ebx
	mov	esp, ebp
	pop	ebp
	ret	16					; 00000010H
?ToggleUse@CSpeaker@@QAEXPAVCBaseEntity@@0W4USE_TYPE@@M@Z ENDP ; CSpeaker::ToggleUse
_TEXT	ENDS
; Function compile flags: /Odtp /ZI
; File d:\!diffusion 2020\source code 2022\client-server\server\sound.cpp
;	COMDAT ?Precache@CSpeaker@@UAEXXZ
_TEXT	SEGMENT
tv94 = -72						; size = 4
_this$ = -4						; size = 4
?Precache@CSpeaker@@UAEXXZ PROC				; CSpeaker::Precache, COMDAT
; _this$ = ecx

; 2185 : {

	push	ebp
	mov	ebp, esp
	sub	esp, 72					; 00000048H
	push	ebx
	push	esi
	push	edi
	mov	DWORD PTR _this$[ebp], ecx

; 2186 : 	if ( !FBitSet (pev->spawnflags, SPEAKER_START_SILENT ) )

	mov	eax, DWORD PTR _this$[ebp]
	mov	ecx, DWORD PTR [eax+4]
	mov	edx, DWORD PTR [ecx+416]
	and	edx, 1
	jne	SHORT $LN2@Precache

; 2187 : 		// set first announcement time for random n second
; 2188 : 		pev->nextthink = gpGlobals->time + RANDOM_FLOAT(5.0, 15.0);

	push	ecx
	movss	xmm0, DWORD PTR __real@41700000
	movss	DWORD PTR [esp], xmm0
	push	ecx
	movss	xmm0, DWORD PTR __real@40a00000
	movss	DWORD PTR [esp], xmm0
	call	DWORD PTR ?g_engfuncs@@3Uenginefuncs_s@@A+364
	add	esp, 8
	fstp	DWORD PTR tv94[ebp]
	mov	eax, DWORD PTR ?gpGlobals@@3PAUglobalvars_t@@A ; gpGlobals
	movss	xmm0, DWORD PTR tv94[ebp]
	addss	xmm0, DWORD PTR [eax]
	mov	ecx, DWORD PTR _this$[ebp]
	mov	edx, DWORD PTR [ecx+4]
	movss	DWORD PTR [edx+260], xmm0
$LN2@Precache:

; 2189 : }

	pop	edi
	pop	esi
	pop	ebx
	mov	esp, ebp
	pop	ebp
	ret	0
?Precache@CSpeaker@@UAEXXZ ENDP				; CSpeaker::Precache
_TEXT	ENDS
; Function compile flags: /Odtp /ZI
; File d:\!diffusion 2020\source code 2022\client-server\server\sound.cpp
;	COMDAT ?Spawn@CSpeaker@@UAEXXZ
_TEXT	SEGMENT
_vecOrigin$1 = -20					; size = 12
_szSoundFile$ = -8					; size = 4
_this$ = -4						; size = 4
?Spawn@CSpeaker@@UAEXXZ PROC				; CSpeaker::Spawn, COMDAT
; _this$ = ecx

; 2156 : {

	push	ebp
	mov	ebp, esp
	sub	esp, 84					; 00000054H
	push	ebx
	push	esi
	push	edi
	mov	DWORD PTR _this$[ebp], ecx

; 2157 : 	char* szSoundFile = (char*) STRING(pev->message);

	mov	eax, DWORD PTR _this$[ebp]
	mov	ecx, DWORD PTR [eax+4]
	mov	edx, DWORD PTR [ecx+468]
	push	edx
	call	DWORD PTR ?g_engfuncs@@3Uenginefuncs_s@@A+264
	add	esp, 4
	mov	DWORD PTR _szSoundFile$[ebp], eax

; 2158 : 
; 2159 : 	if ( !m_preset && (FStringNull( pev->message ) || strlen( szSoundFile ) < 1 ))

	mov	eax, DWORD PTR _this$[ebp]
	cmp	DWORD PTR [eax+1804], 0
	jne	$LN2@Spawn
	mov	eax, DWORD PTR _this$[ebp]
	mov	ecx, DWORD PTR [eax+4]
	mov	edx, DWORD PTR [ecx+468]
	push	edx
	call	?FStringNull@@YAHH@Z			; FStringNull
	add	esp, 4
	test	eax, eax
	jne	SHORT $LN3@Spawn
	mov	eax, DWORD PTR _szSoundFile$[ebp]
	push	eax
	call	_strlen
	add	esp, 4
	cmp	eax, 1
	jae	SHORT $LN2@Spawn
$LN3@Spawn:

; 2160 : 	{
; 2161 : 		Vector vecOrigin = GetAbsOrigin();

	mov	ecx, DWORD PTR _this$[ebp]
	call	?GetAbsOrigin@CBaseEntity@@QBEABVVector@@XZ ; CBaseEntity::GetAbsOrigin
	push	eax
	lea	ecx, DWORD PTR _vecOrigin$1[ebp]
	call	??0Vector@@QAE@ABV0@@Z			; Vector::Vector

; 2162 : 		ALERT( at_error, "SPEAKER with no Level/Sentence! at: %f, %f, %f\n", vecOrigin.x, vecOrigin.y, vecOrigin.z );

	cvtss2sd xmm0, DWORD PTR _vecOrigin$1[ebp+8]
	sub	esp, 8
	movsd	QWORD PTR [esp], xmm0
	cvtss2sd xmm0, DWORD PTR _vecOrigin$1[ebp+4]
	sub	esp, 8
	movsd	QWORD PTR [esp], xmm0
	cvtss2sd xmm0, DWORD PTR _vecOrigin$1[ebp]
	sub	esp, 8
	movsd	QWORD PTR [esp], xmm0
	push	OFFSET ??_C@_0DA@IIMJMCCG@SPEAKER?5with?5no?5Level?1Sentence?$CB?5@
	push	4
	call	DWORD PTR ?g_engfuncs@@3Uenginefuncs_s@@A+244
	add	esp, 32					; 00000020H

; 2163 : 		SetNextThink( 0.1 );

	push	ecx
	movss	xmm0, DWORD PTR __real@3dcccccd
	movss	DWORD PTR [esp], xmm0
	mov	eax, DWORD PTR _this$[ebp]
	mov	edx, DWORD PTR [eax]
	mov	ecx, DWORD PTR _this$[ebp]
	mov	eax, DWORD PTR [edx+80]
	call	eax

; 2164 : 		SetThink( &CBaseEntity::SUB_Remove );

	push	OFFSET ??_C@_0BJ@EIFNLFLK@?$CGCBaseEntity?3?3SUB_Remove?$AA@
	push	OFFSET ?SUB_Remove@CBaseEntity@@QAEXXZ	; CBaseEntity::SUB_Remove
	mov	ecx, DWORD PTR _this$[ebp]
	call	?ThinkSet@CBaseEntity@@QAEP81@AEXXZP81@AEXXZPAD@Z ; CBaseEntity::ThinkSet

; 2165 : 		return;

	jmp	SHORT $LN1@Spawn
$LN2@Spawn:

; 2166 : 	}
; 2167 : 
; 2168 : 	pev->solid = SOLID_NOT;

	mov	eax, DWORD PTR _this$[ebp]
	mov	ecx, DWORD PTR [eax+4]
	mov	DWORD PTR [ecx+268], 0

; 2169 : 	pev->movetype = MOVETYPE_NONE;

	mov	eax, DWORD PTR _this$[ebp]
	mov	ecx, DWORD PTR [eax+4]
	mov	DWORD PTR [ecx+264], 0

; 2170 : 
; 2171 : 	SetThink( &CSpeaker::SpeakerThink );

	push	OFFSET ??_C@_0BI@LCJLIMMK@?$CGCSpeaker?3?3SpeakerThink?$AA@
	push	OFFSET ?SpeakerThink@CSpeaker@@QAEXXZ	; CSpeaker::SpeakerThink
	mov	ecx, DWORD PTR _this$[ebp]
	call	?ThinkSet@CBaseEntity@@QAEP81@AEXXZP81@AEXXZPAD@Z ; CBaseEntity::ThinkSet

; 2172 : 	pev->nextthink = 0.0;

	mov	eax, DWORD PTR _this$[ebp]
	mov	ecx, DWORD PTR [eax+4]
	xorps	xmm0, xmm0
	movss	DWORD PTR [ecx+260], xmm0

; 2173 : 
; 2174 : 	// allow on/off switching via 'use' function.
; 2175 : 
; 2176 : 	SetUse ( &CSpeaker::ToggleUse );

	push	OFFSET ??_C@_0BF@CAJOKBGD@?$CGCSpeaker?3?3ToggleUse?$AA@
	push	OFFSET ?ToggleUse@CSpeaker@@QAEXPAVCBaseEntity@@0W4USE_TYPE@@M@Z ; CSpeaker::ToggleUse
	mov	ecx, DWORD PTR _this$[ebp]
	call	?UseSet@CBaseEntity@@QAEP81@AEXPAV1@0W4USE_TYPE@@M@ZP81@AEX001M@ZPAD@Z ; CBaseEntity::UseSet

; 2177 : 
; 2178 : 	Precache( );

	mov	eax, DWORD PTR _this$[ebp]
	mov	edx, DWORD PTR [eax]
	mov	ecx, DWORD PTR _this$[ebp]
	mov	eax, DWORD PTR [edx+8]
	call	eax
$LN1@Spawn:

; 2179 : }

	pop	edi
	pop	esi
	pop	ebx
	mov	esp, ebp
	pop	ebp
	ret	0
?Spawn@CSpeaker@@UAEXXZ ENDP				; CSpeaker::Spawn
_TEXT	ENDS
; Function compile flags: /Odtp /ZI
; File d:\!diffusion 2020\source code 2022\client-server\server\sound.cpp
;	COMDAT ?KeyValue@CSpeaker@@UAEXPAUKeyValueData_s@@@Z
_TEXT	SEGMENT
_this$ = -4						; size = 4
_pkvd$ = 8						; size = 4
?KeyValue@CSpeaker@@UAEXPAUKeyValueData_s@@@Z PROC	; CSpeaker::KeyValue, COMDAT
; _this$ = ecx

; 2305 : {

	push	ebp
	mov	ebp, esp
	sub	esp, 68					; 00000044H
	push	ebx
	push	esi
	push	edi
	mov	DWORD PTR _this$[ebp], ecx

; 2306 : 	
; 2307 : 	// preset
; 2308 : 	if (FStrEq(pkvd->szKeyName, "preset"))

	push	OFFSET ??_C@_06OFAGBOBG@preset?$AA@
	mov	eax, DWORD PTR _pkvd$[ebp]
	mov	ecx, DWORD PTR [eax+4]
	push	ecx
	call	?FStrEq@@YAHPBD0@Z			; FStrEq
	add	esp, 8
	test	eax, eax
	je	SHORT $LN2@KeyValue

; 2309 : 	{
; 2310 : 		m_preset = atoi(pkvd->szValue);

	mov	eax, DWORD PTR _pkvd$[ebp]
	mov	ecx, DWORD PTR [eax+8]
	push	ecx
	call	_atoi
	add	esp, 4
	mov	edx, DWORD PTR _this$[ebp]
	mov	DWORD PTR [edx+1804], eax

; 2311 : 		pkvd->fHandled = TRUE;

	mov	eax, DWORD PTR _pkvd$[ebp]
	mov	DWORD PTR [eax+12], 1

; 2312 : 	}
; 2313 : 	else

	jmp	SHORT $LN1@KeyValue
$LN2@KeyValue:

; 2314 : 		BaseClass::KeyValue( pkvd );

	mov	eax, DWORD PTR _pkvd$[ebp]
	push	eax
	mov	ecx, DWORD PTR _this$[ebp]
	call	?KeyValue@CBaseEntity@@UAEXPAUKeyValueData_s@@@Z ; CBaseEntity::KeyValue
$LN1@KeyValue:

; 2315 : }

	pop	edi
	pop	esi
	pop	ebx
	mov	esp, ebp
	pop	ebp
	ret	4
?KeyValue@CSpeaker@@UAEXPAUKeyValueData_s@@@Z ENDP	; CSpeaker::KeyValue
_TEXT	ENDS
; Function compile flags: /Odtp /ZI
; File d:\!diffusion 2020\source code 2022\client-server\server\sound.cpp
;	COMDAT ??__Etrigger_sound@@YAXXZ
text$di	SEGMENT
??__Etrigger_sound@@YAXXZ PROC				; `dynamic initializer for 'trigger_sound'', COMDAT

; 1076 : LINK_ENTITY_TO_CLASS( trigger_sound, CTriggerSound );

	push	ebp
	mov	ebp, esp
	sub	esp, 64					; 00000040H
	push	ebx
	push	esi
	push	edi
	push	OFFSET ??_C@_0O@FMPBPFAO@trigger_sound?$AA@
	mov	ecx, OFFSET ?trigger_sound@@3V?$CEntityFactory@VCTriggerSound@@@@A
	call	??0?$CEntityFactory@VCTriggerSound@@@@QAE@PBD@Z ; CEntityFactory<CTriggerSound>::CEntityFactory<CTriggerSound>
	pop	edi
	pop	esi
	pop	ebx
	mov	esp, ebp
	pop	ebp
	ret	0
??__Etrigger_sound@@YAXXZ ENDP				; `dynamic initializer for 'trigger_sound''
text$di	ENDS
; Function compile flags: /Odtp /ZI
; File d:\!diffusion 2020\source code 2022\client-server\server\util.h
;	COMDAT ?GetEntitySize@?$CEntityFactory@VCTriggerSound@@@@UAEIXZ
_TEXT	SEGMENT
_this$ = -4						; size = 4
?GetEntitySize@?$CEntityFactory@VCTriggerSound@@@@UAEIXZ PROC ; CEntityFactory<CTriggerSound>::GetEntitySize, COMDAT
; _this$ = ecx

; 103  : 	{

	push	ebp
	mov	ebp, esp
	sub	esp, 68					; 00000044H
	push	ebx
	push	esi
	push	edi
	mov	DWORD PTR _this$[ebp], ecx

; 104  : 		return sizeof(T);

	mov	eax, 1832				; 00000728H

; 105  : 	}

	pop	edi
	pop	esi
	pop	ebx
	mov	esp, ebp
	pop	ebp
	ret	0
?GetEntitySize@?$CEntityFactory@VCTriggerSound@@@@UAEIXZ ENDP ; CEntityFactory<CTriggerSound>::GetEntitySize
_TEXT	ENDS
; Function compile flags: /Odtp /ZI
; File d:\!diffusion 2020\source code 2022\client-server\server\util.h
;	COMDAT ?Destroy@?$CEntityFactory@VCTriggerSound@@@@UAEXPAVCBaseEntity@@@Z
_TEXT	SEGMENT
_this$ = -4						; size = 4
_pEntity$ = 8						; size = 4
?Destroy@?$CEntityFactory@VCTriggerSound@@@@UAEXPAVCBaseEntity@@@Z PROC ; CEntityFactory<CTriggerSound>::Destroy, COMDAT
; _this$ = ecx

; 98   : 	{

	push	ebp
	mov	ebp, esp
	sub	esp, 68					; 00000044H
	push	ebx
	push	esi
	push	edi
	mov	DWORD PTR _this$[ebp], ecx

; 99   : 		UTIL_Remove( pEntity );

	mov	eax, DWORD PTR _pEntity$[ebp]
	push	eax
	call	?UTIL_Remove@@YAXPAVCBaseEntity@@@Z	; UTIL_Remove
	add	esp, 4

; 100  : 	}

	pop	edi
	pop	esi
	pop	ebx
	mov	esp, ebp
	pop	ebp
	ret	4
?Destroy@?$CEntityFactory@VCTriggerSound@@@@UAEXPAVCBaseEntity@@@Z ENDP ; CEntityFactory<CTriggerSound>::Destroy
_TEXT	ENDS
; Function compile flags: /Odtp /ZI
; File d:\!diffusion 2020\source code 2022\client-server\server\util.h
;	COMDAT ?Create@?$CEntityFactory@VCTriggerSound@@@@UAEPAVCBaseEntity@@PBDPAUentvars_s@@@Z
_TEXT	SEGMENT
_pEnt$ = -8						; size = 4
_this$ = -4						; size = 4
_pClassName$ = 8					; size = 4
_pev$ = 12						; size = 4
?Create@?$CEntityFactory@VCTriggerSound@@@@UAEPAVCBaseEntity@@PBDPAUentvars_s@@@Z PROC ; CEntityFactory<CTriggerSound>::Create, COMDAT
; _this$ = ecx

; 92   : 	{

	push	ebp
	mov	ebp, esp
	sub	esp, 72					; 00000048H
	push	ebx
	push	esi
	push	edi
	mov	DWORD PTR _this$[ebp], ecx

; 93   : 		T* pEnt = GetClassPtr((T*)pev, pClassName);

	mov	eax, DWORD PTR _pClassName$[ebp]
	push	eax
	mov	ecx, DWORD PTR _pev$[ebp]
	push	ecx
	call	??$GetClassPtr@VCTriggerSound@@@@YAPAVCTriggerSound@@PAV0@PBD@Z ; GetClassPtr<CTriggerSound>
	add	esp, 8
	mov	DWORD PTR _pEnt$[ebp], eax

; 94   : 		return pEnt;

	mov	eax, DWORD PTR _pEnt$[ebp]

; 95   : 	}

	pop	edi
	pop	esi
	pop	ebx
	mov	esp, ebp
	pop	ebp
	ret	8
?Create@?$CEntityFactory@VCTriggerSound@@@@UAEPAVCBaseEntity@@PBDPAUentvars_s@@@Z ENDP ; CEntityFactory<CTriggerSound>::Create
_TEXT	ENDS
; Function compile flags: /Odtp /ZI
; File d:\!diffusion 2020\source code 2022\client-server\server\util.h
;	COMDAT ??0?$CEntityFactory@VCTriggerSound@@@@QAE@PBD@Z
_TEXT	SEGMENT
tv76 = -72						; size = 4
_this$ = -4						; size = 4
_pClassName$ = 8					; size = 4
??0?$CEntityFactory@VCTriggerSound@@@@QAE@PBD@Z PROC	; CEntityFactory<CTriggerSound>::CEntityFactory<CTriggerSound>, COMDAT
; _this$ = ecx

; 86   : 	CEntityFactory( const char *pClassName )

	push	ebp
	mov	ebp, esp
	sub	esp, 72					; 00000048H
	push	ebx
	push	esi
	push	edi
	mov	DWORD PTR _this$[ebp], ecx

; 87   : 	{

	mov	ecx, DWORD PTR _this$[ebp]
	call	??0IEntityFactory@@QAE@XZ
	mov	eax, DWORD PTR _this$[ebp]
	mov	DWORD PTR [eax], OFFSET ??_7?$CEntityFactory@VCTriggerSound@@@@6B@

; 88   : 		EntityFactoryDictionary()->InstallFactory( this, pClassName );

	call	?EntityFactoryDictionary@@YAPAVIEntityFactoryDictionary@@XZ ; EntityFactoryDictionary
	mov	DWORD PTR tv76[ebp], eax
	mov	eax, DWORD PTR _pClassName$[ebp]
	push	eax
	mov	ecx, DWORD PTR _this$[ebp]
	push	ecx
	mov	edx, DWORD PTR tv76[ebp]
	mov	eax, DWORD PTR [edx]
	mov	ecx, DWORD PTR tv76[ebp]
	mov	edx, DWORD PTR [eax]
	call	edx

; 89   : 	}

	mov	eax, DWORD PTR _this$[ebp]
	pop	edi
	pop	esi
	pop	ebx
	mov	esp, ebp
	pop	ebp
	ret	4
??0?$CEntityFactory@VCTriggerSound@@@@QAE@PBD@Z ENDP	; CEntityFactory<CTriggerSound>::CEntityFactory<CTriggerSound>
_TEXT	ENDS
; Function compile flags: /Odtp /ZI
;	COMDAT ??0CTriggerSound@@QAE@XZ
_TEXT	SEGMENT
_this$ = -4						; size = 4
??0CTriggerSound@@QAE@XZ PROC				; CTriggerSound::CTriggerSound, COMDAT
; _this$ = ecx
	push	ebp
	mov	ebp, esp
	sub	esp, 68					; 00000044H
	push	ebx
	push	esi
	push	edi
	mov	DWORD PTR _this$[ebp], ecx
	mov	ecx, DWORD PTR _this$[ebp]
	call	??0CBaseDelay@@QAE@XZ
	mov	eax, DWORD PTR _this$[ebp]
	mov	DWORD PTR [eax], OFFSET ??_7CTriggerSound@@6B@
	mov	eax, DWORD PTR _this$[ebp]
	pop	edi
	pop	esi
	pop	ebx
	mov	esp, ebp
	pop	ebp
	ret	0
??0CTriggerSound@@QAE@XZ ENDP				; CTriggerSound::CTriggerSound
_TEXT	ENDS
; Function compile flags: /Odtp /ZI
; File d:\!diffusion 2020\source code 2022\client-server\server\sound.cpp
;	COMDAT ?ObjectCaps@CTriggerSound@@UAEHXZ
_TEXT	SEGMENT
_this$ = -4						; size = 4
?ObjectCaps@CTriggerSound@@UAEHXZ PROC			; CTriggerSound::ObjectCaps, COMDAT
; _this$ = ecx

; 1073 : 	virtual int ObjectCaps( void ) { return BaseClass :: ObjectCaps() & ~FCAP_ACROSS_TRANSITION; }

	push	ebp
	mov	ebp, esp
	sub	esp, 68					; 00000044H
	push	ebx
	push	esi
	push	edi
	mov	DWORD PTR _this$[ebp], ecx
	mov	ecx, DWORD PTR _this$[ebp]
	call	?ObjectCaps@CBaseEntity@@UAEHXZ		; CBaseEntity::ObjectCaps
	and	eax, -3					; fffffffdH
	pop	edi
	pop	esi
	pop	ebx
	mov	esp, ebp
	pop	ebp
	ret	0
?ObjectCaps@CTriggerSound@@UAEHXZ ENDP			; CTriggerSound::ObjectCaps
_TEXT	ENDS
; Function compile flags: /Odtp /ZI
; File d:\!diffusion 2020\source code 2022\client-server\server\sound.cpp
;	COMDAT ?Touch@CTriggerSound@@UAEXPAVCBaseEntity@@@Z
_TEXT	SEGMENT
_pPlayer$1 = -8						; size = 4
_this$ = -4						; size = 4
_pOther$ = 8						; size = 4
?Touch@CTriggerSound@@UAEXPAVCBaseEntity@@@Z PROC	; CTriggerSound::Touch, COMDAT
; _this$ = ecx

; 1090 : {

	push	ebp
	mov	ebp, esp
	sub	esp, 72					; 00000048H
	push	ebx
	push	esi
	push	edi
	mov	DWORD PTR _this$[ebp], ecx

; 1091 : 	if (IsLockedByMaster( pOther ))

	mov	eax, DWORD PTR _pOther$[ebp]
	push	eax
	mov	ecx, DWORD PTR _this$[ebp]
	call	?IsLockedByMaster@CBaseDelay@@QAEHPAVCBaseEntity@@@Z ; CBaseDelay::IsLockedByMaster
	test	eax, eax
	je	SHORT $LN2@Touch

; 1092 : 		return;

	jmp	$LN1@Touch
$LN2@Touch:

; 1093 : 
; 1094 : 	if (pOther->IsPlayer())

	mov	eax, DWORD PTR _pOther$[ebp]
	mov	edx, DWORD PTR [eax]
	mov	ecx, DWORD PTR _pOther$[ebp]
	mov	eax, DWORD PTR [edx+220]
	call	eax
	test	eax, eax
	je	$LN4@Touch

; 1095 : 	{
; 1096 : 		CBasePlayer *pPlayer = (CBasePlayer*)pOther;

	mov	eax, DWORD PTR _pOther$[ebp]
	mov	DWORD PTR _pPlayer$1[ebp], eax

; 1097 : 		if (pPlayer->m_pentSndLast != this->edict())

	mov	ecx, DWORD PTR _this$[ebp]
	call	?edict@CBaseEntity@@QAEPAUedict_s@@XZ	; CBaseEntity::edict
	mov	ecx, DWORD PTR _pPlayer$1[ebp]
	cmp	DWORD PTR [ecx+2540], eax
	je	SHORT $LN4@Touch

; 1098 : 		{
; 1099 : 			pPlayer->m_pentSndLast = ENT(pev);

	mov	eax, DWORD PTR _this$[ebp]
	mov	ecx, DWORD PTR [eax+4]
	push	ecx
	call	?ENT@@YAPAUedict_s@@PBUentvars_s@@@Z	; ENT
	add	esp, 4
	mov	edx, DWORD PTR _pPlayer$1[ebp]
	mov	DWORD PTR [edx+2540], eax

; 1100 : 			pPlayer->m_flSndRoomtype = pev->frags;

	mov	eax, DWORD PTR _this$[ebp]
	mov	ecx, DWORD PTR [eax+4]
	mov	edx, DWORD PTR _pPlayer$1[ebp]
	mov	eax, DWORD PTR [ecx+356]
	mov	DWORD PTR [edx+2548], eax

; 1101 : 			pPlayer->m_iSndRoomtype = (short)pev->frags;

	mov	eax, DWORD PTR _this$[ebp]
	mov	ecx, DWORD PTR [eax+4]
	cvttss2si edx, DWORD PTR [ecx+356]
	movsx	eax, dx
	mov	ecx, DWORD PTR _pPlayer$1[ebp]
	mov	DWORD PTR [ecx+4308], eax

; 1102 : 			pPlayer->m_flSndRange = 0;

	mov	eax, DWORD PTR _pPlayer$1[ebp]
	xorps	xmm0, xmm0
	movss	DWORD PTR [eax+2544], xmm0

; 1103 : 
; 1104 : 			SUB_UseTargets(pPlayer, USE_TOGGLE, 0);

	push	0
	push	ecx
	xorps	xmm0, xmm0
	movss	DWORD PTR [esp], xmm0
	push	3
	mov	eax, DWORD PTR _pPlayer$1[ebp]
	push	eax
	mov	ecx, DWORD PTR _this$[ebp]
	call	?SUB_UseTargets@CBaseDelay@@QAEXPAVCBaseEntity@@W4USE_TYPE@@MH@Z ; CBaseDelay::SUB_UseTargets
$LN4@Touch:
$LN1@Touch:

; 1105 : 		}
; 1106 : 	}
; 1107 : }

	pop	edi
	pop	esi
	pop	ebx
	mov	esp, ebp
	pop	ebp
	ret	4
?Touch@CTriggerSound@@UAEXPAVCBaseEntity@@@Z ENDP	; CTriggerSound::Touch
_TEXT	ENDS
; Function compile flags: /Odtp /ZI
; File d:\!diffusion 2020\source code 2022\client-server\server\sound.cpp
;	COMDAT ?Spawn@CTriggerSound@@UAEXXZ
_TEXT	SEGMENT
_this$ = -4						; size = 4
?Spawn@CTriggerSound@@UAEXXZ PROC			; CTriggerSound::Spawn, COMDAT
; _this$ = ecx

; 1110 : {

	push	ebp
	mov	ebp, esp
	sub	esp, 68					; 00000044H
	push	ebx
	push	esi
	push	edi
	mov	DWORD PTR _this$[ebp], ecx

; 1111 : 	pev->solid = SOLID_TRIGGER;

	mov	eax, DWORD PTR _this$[ebp]
	mov	ecx, DWORD PTR [eax+4]
	mov	DWORD PTR [ecx+268], 1

; 1112 : 	pev->movetype = MOVETYPE_NONE;

	mov	eax, DWORD PTR _this$[ebp]
	mov	ecx, DWORD PTR [eax+4]
	mov	DWORD PTR [ecx+264], 0

; 1113 : 	SET_MODEL(ENT(pev), STRING(pev->model));    // set size and link into world

	mov	eax, DWORD PTR _this$[ebp]
	mov	ecx, DWORD PTR [eax+4]
	mov	edx, DWORD PTR [ecx+184]
	push	edx
	call	DWORD PTR ?g_engfuncs@@3Uenginefuncs_s@@A+264
	add	esp, 4
	push	eax
	mov	eax, DWORD PTR _this$[ebp]
	mov	ecx, DWORD PTR [eax+4]
	push	ecx
	call	?ENT@@YAPAUedict_s@@PBUentvars_s@@@Z	; ENT
	add	esp, 4
	push	eax
	call	DWORD PTR ?g_engfuncs@@3Uenginefuncs_s@@A+8
	add	esp, 8

; 1114 : 	SetBits( pev->effects, EF_NODRAW );

	mov	eax, DWORD PTR _this$[ebp]
	mov	ecx, DWORD PTR [eax+4]
	mov	edx, DWORD PTR [ecx+280]
	or	edx, 128				; 00000080H
	mov	eax, DWORD PTR _this$[ebp]
	mov	ecx, DWORD PTR [eax+4]
	mov	DWORD PTR [ecx+280], edx

; 1115 : }

	pop	edi
	pop	esi
	pop	ebx
	mov	esp, ebp
	pop	ebp
	ret	0
?Spawn@CTriggerSound@@UAEXXZ ENDP			; CTriggerSound::Spawn
_TEXT	ENDS
; Function compile flags: /Odtp /ZI
; File d:\!diffusion 2020\source code 2022\client-server\server\sound.cpp
;	COMDAT ?KeyValue@CTriggerSound@@UAEXPAUKeyValueData_s@@@Z
_TEXT	SEGMENT
tv94 = -72						; size = 4
_this$ = -4						; size = 4
_pkvd$ = 8						; size = 4
?KeyValue@CTriggerSound@@UAEXPAUKeyValueData_s@@@Z PROC	; CTriggerSound::KeyValue, COMDAT
; _this$ = ecx

; 1079 : {

	push	ebp
	mov	ebp, esp
	sub	esp, 72					; 00000048H
	push	ebx
	push	esi
	push	edi
	mov	DWORD PTR _this$[ebp], ecx

; 1080 : 	if (FStrEq(pkvd->szKeyName, "roomtype"))

	push	OFFSET ??_C@_08FBOCMMDG@roomtype?$AA@
	mov	eax, DWORD PTR _pkvd$[ebp]
	mov	ecx, DWORD PTR [eax+4]
	push	ecx
	call	?FStrEq@@YAHPBD0@Z			; FStrEq
	add	esp, 8
	test	eax, eax
	je	SHORT $LN2@KeyValue

; 1081 : 	{
; 1082 : 		pev->frags = atof(pkvd->szValue);

	mov	eax, DWORD PTR _pkvd$[ebp]
	mov	ecx, DWORD PTR [eax+8]
	push	ecx
	call	_atof
	add	esp, 4
	fstp	DWORD PTR tv94[ebp]
	fld	DWORD PTR tv94[ebp]
	mov	edx, DWORD PTR _this$[ebp]
	mov	eax, DWORD PTR [edx+4]
	fstp	DWORD PTR [eax+356]

; 1083 : 		pkvd->fHandled = TRUE;

	mov	eax, DWORD PTR _pkvd$[ebp]
	mov	DWORD PTR [eax+12], 1

; 1084 : 	}
; 1085 : 	else

	jmp	SHORT $LN3@KeyValue
$LN2@KeyValue:

; 1086 : 		CBaseDelay::KeyValue( pkvd );

	mov	eax, DWORD PTR _pkvd$[ebp]
	push	eax
	mov	ecx, DWORD PTR _this$[ebp]
	call	?KeyValue@CBaseDelay@@UAEXPAUKeyValueData_s@@@Z ; CBaseDelay::KeyValue
$LN3@KeyValue:

; 1087 : }

	pop	edi
	pop	esi
	pop	ebx
	mov	esp, ebp
	pop	ebp
	ret	4
?KeyValue@CTriggerSound@@UAEXPAUKeyValueData_s@@@Z ENDP	; CTriggerSound::KeyValue
_TEXT	ENDS
; Function compile flags: /Odtp /ZI
; File d:\!diffusion 2020\source code 2022\client-server\server\cbase.h
;	COMDAT ??$GetClassPtr@VCBasePlayer@@@@YAPAVCBasePlayer@@PAV0@@Z
_TEXT	SEGMENT
tv85 = -92						; size = 4
$T2 = -88						; size = 4
$T3 = -84						; size = 4
_pev$ = -16						; size = 4
__$EHRec$ = -12						; size = 12
_a$ = 8							; size = 4
??$GetClassPtr@VCBasePlayer@@@@YAPAVCBasePlayer@@PAV0@@Z PROC ; GetClassPtr<CBasePlayer>, COMDAT

; 1126 : {

	push	ebp
	mov	ebp, esp
	push	-1
	push	__ehhandler$??$GetClassPtr@VCBasePlayer@@@@YAPAVCBasePlayer@@PAV0@@Z
	mov	eax, DWORD PTR fs:0
	push	eax
	sub	esp, 80					; 00000050H
	push	ebx
	push	esi
	push	edi
	mov	eax, DWORD PTR ___security_cookie
	xor	eax, ebp
	push	eax
	lea	eax, DWORD PTR __$EHRec$[ebp]
	mov	DWORD PTR fs:0, eax

; 1127 : 	entvars_t *pev = (entvars_t *)a;

	mov	eax, DWORD PTR _a$[ebp]
	mov	DWORD PTR _pev$[ebp], eax

; 1128 : 
; 1129 : 	// allocate entity if necessary
; 1130 : 	if (pev == NULL)

	cmp	DWORD PTR _pev$[ebp], 0
	jne	SHORT $LN2@GetClassPt

; 1131 : 		pev = VARS(CREATE_ENTITY());

	call	DWORD PTR ?g_engfuncs@@3Uenginefuncs_s@@A+84
	push	eax
	call	?VARS@@YAPAUentvars_s@@PAUedict_s@@@Z	; VARS
	add	esp, 4
	mov	DWORD PTR _pev$[ebp], eax
$LN2@GetClassPt:

; 1132 : 
; 1133 : 	// get the private data
; 1134 : 	a = (T *)GET_PRIVATE(ENT(pev));

	mov	eax, DWORD PTR _pev$[ebp]
	push	eax
	call	?ENT@@YAPAUedict_s@@PBUentvars_s@@@Z	; ENT
	add	esp, 4
	push	eax
	call	?GET_PRIVATE@@YAPAXPAUedict_s@@@Z	; GET_PRIVATE
	add	esp, 4
	mov	DWORD PTR _a$[ebp], eax

; 1135 : 
; 1136 : 	if (a == NULL) 

	cmp	DWORD PTR _a$[ebp], 0
	jne	SHORT $LN3@GetClassPt

; 1137 : 	{
; 1138 : 		// allocate private data 
; 1139 : 		a = new(pev) T;

	mov	eax, DWORD PTR _pev$[ebp]
	push	eax
	push	5040					; 000013b0H
	call	??2CBaseEntity@@SAPAXIPAUentvars_s@@@Z	; CBaseEntity::operator new
	add	esp, 8
	mov	DWORD PTR $T2[ebp], eax
	mov	DWORD PTR __$EHRec$[ebp+8], 0
	cmp	DWORD PTR $T2[ebp], 0
	je	SHORT $LN5@GetClassPt
	mov	ecx, DWORD PTR $T2[ebp]
	call	??0CBasePlayer@@QAE@XZ
	mov	DWORD PTR tv85[ebp], eax
	jmp	SHORT $LN6@GetClassPt
$LN5@GetClassPt:
	mov	DWORD PTR tv85[ebp], 0
$LN6@GetClassPt:
	mov	ecx, DWORD PTR tv85[ebp]
	mov	DWORD PTR $T3[ebp], ecx
	mov	DWORD PTR __$EHRec$[ebp+8], -1
	mov	edx, DWORD PTR $T3[ebp]
	mov	DWORD PTR _a$[ebp], edx

; 1140 : 		a->pev = pev;

	mov	eax, DWORD PTR _a$[ebp]
	mov	ecx, DWORD PTR _pev$[ebp]
	mov	DWORD PTR [eax+4], ecx
$LN3@GetClassPt:

; 1141 : 	}
; 1142 : 	return a;

	mov	eax, DWORD PTR _a$[ebp]

; 1143 : }

	mov	ecx, DWORD PTR __$EHRec$[ebp]
	mov	DWORD PTR fs:0, ecx
	pop	ecx
	pop	edi
	pop	esi
	pop	ebx
	mov	esp, ebp
	pop	ebp
	ret	0
_TEXT	ENDS
;	COMDAT text$x
text$x	SEGMENT
__unwindfunclet$??$GetClassPtr@VCBasePlayer@@@@YAPAVCBasePlayer@@PAV0@@Z$0:
	mov	eax, DWORD PTR _pev$[ebp]
	push	eax
	mov	eax, DWORD PTR $T2[ebp]
	push	eax
	call	??3CBaseEntity@@SAXPAXPAUentvars_s@@@Z	; CBaseEntity::operator delete
	add	esp, 8
	ret	0
__ehhandler$??$GetClassPtr@VCBasePlayer@@@@YAPAVCBasePlayer@@PAV0@@Z:
	mov	edx, DWORD PTR [esp+8]
	lea	eax, DWORD PTR [edx+12]
	mov	ecx, DWORD PTR [edx-96]
	xor	ecx, eax
	call	@__security_check_cookie@4
	mov	eax, OFFSET __ehfuncinfo$??$GetClassPtr@VCBasePlayer@@@@YAPAVCBasePlayer@@PAV0@@Z
	jmp	___CxxFrameHandler3
text$x	ENDS
??$GetClassPtr@VCBasePlayer@@@@YAPAVCBasePlayer@@PAV0@@Z ENDP ; GetClassPtr<CBasePlayer>
; Function compile flags: /Odtp /ZI
; File d:\!diffusion 2020\source code 2022\client-server\server\cbase.h
;	COMDAT ??$GetClassPtr@VCEnvSound@@@@YAPAVCEnvSound@@PAV0@@Z
_TEXT	SEGMENT
tv85 = -92						; size = 4
$T2 = -88						; size = 4
$T3 = -84						; size = 4
_pev$ = -16						; size = 4
__$EHRec$ = -12						; size = 12
_a$ = 8							; size = 4
??$GetClassPtr@VCEnvSound@@@@YAPAVCEnvSound@@PAV0@@Z PROC ; GetClassPtr<CEnvSound>, COMDAT

; 1126 : {

	push	ebp
	mov	ebp, esp
	push	-1
	push	__ehhandler$??$GetClassPtr@VCEnvSound@@@@YAPAVCEnvSound@@PAV0@@Z
	mov	eax, DWORD PTR fs:0
	push	eax
	sub	esp, 80					; 00000050H
	push	ebx
	push	esi
	push	edi
	mov	eax, DWORD PTR ___security_cookie
	xor	eax, ebp
	push	eax
	lea	eax, DWORD PTR __$EHRec$[ebp]
	mov	DWORD PTR fs:0, eax

; 1127 : 	entvars_t *pev = (entvars_t *)a;

	mov	eax, DWORD PTR _a$[ebp]
	mov	DWORD PTR _pev$[ebp], eax

; 1128 : 
; 1129 : 	// allocate entity if necessary
; 1130 : 	if (pev == NULL)

	cmp	DWORD PTR _pev$[ebp], 0
	jne	SHORT $LN2@GetClassPt

; 1131 : 		pev = VARS(CREATE_ENTITY());

	call	DWORD PTR ?g_engfuncs@@3Uenginefuncs_s@@A+84
	push	eax
	call	?VARS@@YAPAUentvars_s@@PAUedict_s@@@Z	; VARS
	add	esp, 4
	mov	DWORD PTR _pev$[ebp], eax
$LN2@GetClassPt:

; 1132 : 
; 1133 : 	// get the private data
; 1134 : 	a = (T *)GET_PRIVATE(ENT(pev));

	mov	eax, DWORD PTR _pev$[ebp]
	push	eax
	call	?ENT@@YAPAUedict_s@@PBUentvars_s@@@Z	; ENT
	add	esp, 4
	push	eax
	call	?GET_PRIVATE@@YAPAXPAUedict_s@@@Z	; GET_PRIVATE
	add	esp, 4
	mov	DWORD PTR _a$[ebp], eax

; 1135 : 
; 1136 : 	if (a == NULL) 

	cmp	DWORD PTR _a$[ebp], 0
	jne	SHORT $LN3@GetClassPt

; 1137 : 	{
; 1138 : 		// allocate private data 
; 1139 : 		a = new(pev) T;

	mov	eax, DWORD PTR _pev$[ebp]
	push	eax
	push	1812					; 00000714H
	call	??2CBaseEntity@@SAPAXIPAUentvars_s@@@Z	; CBaseEntity::operator new
	add	esp, 8
	mov	DWORD PTR $T2[ebp], eax
	mov	DWORD PTR __$EHRec$[ebp+8], 0
	cmp	DWORD PTR $T2[ebp], 0
	je	SHORT $LN5@GetClassPt
	mov	ecx, DWORD PTR $T2[ebp]
	call	??0CEnvSound@@QAE@XZ
	mov	DWORD PTR tv85[ebp], eax
	jmp	SHORT $LN6@GetClassPt
$LN5@GetClassPt:
	mov	DWORD PTR tv85[ebp], 0
$LN6@GetClassPt:
	mov	ecx, DWORD PTR tv85[ebp]
	mov	DWORD PTR $T3[ebp], ecx
	mov	DWORD PTR __$EHRec$[ebp+8], -1
	mov	edx, DWORD PTR $T3[ebp]
	mov	DWORD PTR _a$[ebp], edx

; 1140 : 		a->pev = pev;

	mov	eax, DWORD PTR _a$[ebp]
	mov	ecx, DWORD PTR _pev$[ebp]
	mov	DWORD PTR [eax+4], ecx
$LN3@GetClassPt:

; 1141 : 	}
; 1142 : 	return a;

	mov	eax, DWORD PTR _a$[ebp]

; 1143 : }

	mov	ecx, DWORD PTR __$EHRec$[ebp]
	mov	DWORD PTR fs:0, ecx
	pop	ecx
	pop	edi
	pop	esi
	pop	ebx
	mov	esp, ebp
	pop	ebp
	ret	0
_TEXT	ENDS
;	COMDAT text$x
text$x	SEGMENT
__unwindfunclet$??$GetClassPtr@VCEnvSound@@@@YAPAVCEnvSound@@PAV0@@Z$0:
	mov	eax, DWORD PTR _pev$[ebp]
	push	eax
	mov	eax, DWORD PTR $T2[ebp]
	push	eax
	call	??3CBaseEntity@@SAXPAXPAUentvars_s@@@Z	; CBaseEntity::operator delete
	add	esp, 8
	ret	0
__ehhandler$??$GetClassPtr@VCEnvSound@@@@YAPAVCEnvSound@@PAV0@@Z:
	mov	edx, DWORD PTR [esp+8]
	lea	eax, DWORD PTR [edx+12]
	mov	ecx, DWORD PTR [edx-96]
	xor	ecx, eax
	call	@__security_check_cookie@4
	mov	eax, OFFSET __ehfuncinfo$??$GetClassPtr@VCEnvSound@@@@YAPAVCEnvSound@@PAV0@@Z
	jmp	___CxxFrameHandler3
text$x	ENDS
??$GetClassPtr@VCEnvSound@@@@YAPAVCEnvSound@@PAV0@@Z ENDP ; GetClassPtr<CEnvSound>
; Function compile flags: /Odtp /ZI
; File d:\!diffusion 2020\source code 2022\client-server\server\sound.cpp
;	COMDAT ?FEnvSoundInRange@@YAHPAVCBaseEntity@@0PAM@Z
_TEXT	SEGMENT
$T1 = -176						; size = 12
_tr$ = -100						; size = 56
_flRange$ = -44						; size = 4
_vecRange$ = -40					; size = 12
_vecSpot2$ = -28					; size = 12
_vecSpot1$ = -16					; size = 12
_pSound$ = -4						; size = 4
_pSource$ = 8						; size = 4
_pTarget$ = 12						; size = 4
_pflRange$ = 16						; size = 4
?FEnvSoundInRange@@YAHPAVCBaseEntity@@0PAM@Z PROC	; FEnvSoundInRange, COMDAT

; 919  : {

	push	ebp
	mov	ebp, esp
	sub	esp, 176				; 000000b0H
	push	ebx
	push	esi
	push	edi

; 920  : 	CEnvSound *pSound = GetClassPtr( (CEnvSound *)pSource->pev );

	mov	eax, DWORD PTR _pSource$[ebp]
	mov	ecx, DWORD PTR [eax+4]
	push	ecx
	call	??$GetClassPtr@VCEnvSound@@@@YAPAVCEnvSound@@PAV0@@Z ; GetClassPtr<CEnvSound>
	add	esp, 4
	mov	DWORD PTR _pSound$[ebp], eax

; 921  : 
; 922  : 	Vector vecSpot1 = pSource->EyePosition();

	lea	eax, DWORD PTR _vecSpot1$[ebp]
	push	eax
	mov	ecx, DWORD PTR _pSource$[ebp]
	mov	edx, DWORD PTR [ecx]
	mov	ecx, DWORD PTR _pSource$[ebp]
	mov	eax, DWORD PTR [edx+340]
	call	eax

; 923  : 	Vector vecSpot2 = pTarget->EyePosition();

	lea	eax, DWORD PTR _vecSpot2$[ebp]
	push	eax
	mov	ecx, DWORD PTR _pTarget$[ebp]
	mov	edx, DWORD PTR [ecx]
	mov	ecx, DWORD PTR _pTarget$[ebp]
	mov	eax, DWORD PTR [edx+340]
	call	eax

; 924  : 	Vector vecRange;

	lea	ecx, DWORD PTR _vecRange$[ebp]
	call	??0Vector@@QAE@XZ			; Vector::Vector

; 925  : 	float flRange;
; 926  : 	TraceResult tr;

	lea	ecx, DWORD PTR _tr$[ebp]
	call	??0gametrace_s@@QAE@XZ

; 927  : 
; 928  : 	UTIL_TraceLine( vecSpot1, vecSpot2, ignore_monsters, pSource->edict(), &tr );

	lea	eax, DWORD PTR _tr$[ebp]
	push	eax
	mov	ecx, DWORD PTR _pSource$[ebp]
	call	?edict@CBaseEntity@@QAEPAUedict_s@@XZ	; CBaseEntity::edict
	push	eax
	push	1
	lea	ecx, DWORD PTR _vecSpot2$[ebp]
	push	ecx
	lea	edx, DWORD PTR _vecSpot1$[ebp]
	push	edx
	call	?UTIL_TraceLine@@YAXABVVector@@0W4IGNORE_MONSTERS@@PAUedict_s@@PAUgametrace_s@@@Z ; UTIL_TraceLine
	add	esp, 20					; 00000014H

; 929  : 	
; 930  : 	// check if line of sight crosses water boundary, or is blocked
; 931  : 
; 932  : 	if ((tr.fInOpen && tr.fInWater) || tr.flFraction != 1)

	cmp	DWORD PTR _tr$[ebp+8], 0
	je	SHORT $LN4@FEnvSoundI
	cmp	DWORD PTR _tr$[ebp+12], 0
	jne	SHORT $LN3@FEnvSoundI
$LN4@FEnvSoundI:
	movss	xmm0, DWORD PTR _tr$[ebp+16]
	ucomiss	xmm0, DWORD PTR __real@3f800000
	lahf
	test	ah, 68					; 00000044H
	jnp	SHORT $LN2@FEnvSoundI
$LN3@FEnvSoundI:

; 933  : 		return FALSE;

	xor	eax, eax
	jmp	SHORT $LN1@FEnvSoundI
$LN2@FEnvSoundI:

; 934  : 
; 935  : 	// calc range from sound entity to player
; 936  : 
; 937  : 	vecRange = tr.vecEndPos - vecSpot1;

	lea	eax, DWORD PTR _vecSpot1$[ebp]
	push	eax
	lea	ecx, DWORD PTR $T1[ebp]
	push	ecx
	lea	ecx, DWORD PTR _tr$[ebp+20]
	call	??GVector@@QBE?AV0@ABV0@@Z		; Vector::operator-
	mov	edx, DWORD PTR [eax]
	mov	DWORD PTR _vecRange$[ebp], edx
	mov	ecx, DWORD PTR [eax+4]
	mov	DWORD PTR _vecRange$[ebp+4], ecx
	mov	edx, DWORD PTR [eax+8]
	mov	DWORD PTR _vecRange$[ebp+8], edx

; 938  : 	flRange = vecRange.Length();

	lea	ecx, DWORD PTR _vecRange$[ebp]
	call	?Length@Vector@@QBEMXZ			; Vector::Length
	fstp	DWORD PTR _flRange$[ebp]

; 939  : 
; 940  : 	if (pSound->m_flRadius < flRange)		

	mov	eax, DWORD PTR _pSound$[ebp]
	movss	xmm0, DWORD PTR _flRange$[ebp]
	comiss	xmm0, DWORD PTR [eax+1804]
	jbe	SHORT $LN5@FEnvSoundI

; 941  : 		return FALSE;

	xor	eax, eax
	jmp	SHORT $LN1@FEnvSoundI
$LN5@FEnvSoundI:

; 942  : 	
; 943  : 	if (pflRange)

	cmp	DWORD PTR _pflRange$[ebp], 0
	je	SHORT $LN6@FEnvSoundI

; 944  : 		*pflRange = flRange;

	mov	eax, DWORD PTR _pflRange$[ebp]
	movss	xmm0, DWORD PTR _flRange$[ebp]
	movss	DWORD PTR [eax], xmm0
$LN6@FEnvSoundI:

; 945  : 
; 946  : 	return TRUE;

	mov	eax, 1
$LN1@FEnvSoundI:

; 947  : }

	pop	edi
	pop	esi
	pop	ebx
	mov	esp, ebp
	pop	ebp
	ret	0
?FEnvSoundInRange@@YAHPAVCBaseEntity@@0PAM@Z ENDP	; FEnvSoundInRange
_TEXT	ENDS
; Function compile flags: /Odtp /ZI
;	COMDAT ??__FnameHolder@?1???$DataMapInit@VCEnvSound@@@@YAPAUdatamap_s@@PAVCEnvSound@@@Z@YAXXZ
text$yd	SEGMENT
??__FnameHolder@?1???$DataMapInit@VCEnvSound@@@@YAPAUdatamap_s@@PAVCEnvSound@@@Z@YAXXZ PROC ; `DataMapInit<CEnvSound>'::`2'::`dynamic atexit destructor for 'nameHolder'', COMDAT
	push	ebp
	mov	ebp, esp
	sub	esp, 64					; 00000040H
	push	ebx
	push	esi
	push	edi
	mov	ecx, OFFSET ?nameHolder@?1???$DataMapInit@VCEnvSound@@@@YAPAUdatamap_s@@PAVCEnvSound@@@Z@4VCDatadescGeneratedNameHolder@@A
	call	??1CDatadescGeneratedNameHolder@@QAE@XZ	; CDatadescGeneratedNameHolder::~CDatadescGeneratedNameHolder
	pop	edi
	pop	esi
	pop	ebx
	mov	esp, ebp
	pop	ebp
	ret	0
??__FnameHolder@?1???$DataMapInit@VCEnvSound@@@@YAPAUdatamap_s@@PAVCEnvSound@@@Z@YAXXZ ENDP ; `DataMapInit<CEnvSound>'::`2'::`dynamic atexit destructor for 'nameHolder''
text$yd	ENDS
; Function compile flags: /Odtp /ZI
; File d:\!diffusion 2020\source code 2022\client-server\server\sound.cpp
;	COMDAT ??__Eg_DataMapHolder@CEnvSound_DataDescInit@@YAXXZ
text$di	SEGMENT
??__Eg_DataMapHolder@CEnvSound_DataDescInit@@YAXXZ PROC	; CEnvSound_DataDescInit::`dynamic initializer for 'g_DataMapHolder'', COMDAT

; 894  : BEGIN_DATADESC( CEnvSound )

	push	ebp
	mov	ebp, esp
	sub	esp, 64					; 00000040H
	push	ebx
	push	esi
	push	edi
	push	0
	call	??$DataMapInit@VCEnvSound@@@@YAPAUdatamap_s@@PAVCEnvSound@@@Z ; DataMapInit<CEnvSound>
	add	esp, 4
	mov	DWORD PTR ?g_DataMapHolder@CEnvSound_DataDescInit@@3PAUdatamap_s@@A, eax ; CEnvSound_DataDescInit::g_DataMapHolder
	pop	edi
	pop	esi
	pop	ebx
	mov	esp, ebp
	pop	ebp
	ret	0
??__Eg_DataMapHolder@CEnvSound_DataDescInit@@YAXXZ ENDP	; CEnvSound_DataDescInit::`dynamic initializer for 'g_DataMapHolder''
text$di	ENDS
; Function compile flags: /Odtp /ZI
; File d:\!diffusion 2020\source code 2022\client-server\server\sound.cpp
;	COMDAT ??$DataMapInit@VCEnvSound@@@@YAPAUdatamap_s@@PAVCEnvSound@@@Z
_TEXT	SEGMENT
__$EHRec$ = -12						; size = 12
___formal$ = 8						; size = 4
??$DataMapInit@VCEnvSound@@@@YAPAUdatamap_s@@PAVCEnvSound@@@Z PROC ; DataMapInit<CEnvSound>, COMDAT

; 894  : BEGIN_DATADESC( CEnvSound )

	push	ebp
	mov	ebp, esp
	push	-1
	push	__ehhandler$??$DataMapInit@VCEnvSound@@@@YAPAUdatamap_s@@PAVCEnvSound@@@Z
	mov	eax, DWORD PTR fs:0
	push	eax
	sub	esp, 64					; 00000040H
	push	ebx
	push	esi
	push	edi
	mov	eax, DWORD PTR ___security_cookie
	xor	eax, ebp
	push	eax
	lea	eax, DWORD PTR __$EHRec$[ebp]
	mov	DWORD PTR fs:0, eax
	mov	eax, DWORD PTR __tls_index
	mov	ecx, DWORD PTR fs:__tls_array
	mov	edx, DWORD PTR [ecx+eax*4]
	mov	eax, DWORD PTR ?$TSS0@?1???$DataMapInit@VCEnvSound@@@@YAPAUdatamap_s@@PAVCEnvSound@@@Z@4HA
	cmp	eax, DWORD PTR __Init_thread_epoch[edx]
	jle	SHORT $LN2@DataMapIni
	push	OFFSET ?$TSS0@?1???$DataMapInit@VCEnvSound@@@@YAPAUdatamap_s@@PAVCEnvSound@@@Z@4HA
	call	__Init_thread_header
	add	esp, 4
	cmp	DWORD PTR ?$TSS0@?1???$DataMapInit@VCEnvSound@@@@YAPAUdatamap_s@@PAVCEnvSound@@@Z@4HA, -1
	jne	SHORT $LN2@DataMapIni
	mov	DWORD PTR __$EHRec$[ebp+8], 0
	push	OFFSET ??_C@_09DJGFLIBI@CEnvSound?$AA@
	mov	ecx, OFFSET ?nameHolder@?1???$DataMapInit@VCEnvSound@@@@YAPAUdatamap_s@@PAVCEnvSound@@@Z@4VCDatadescGeneratedNameHolder@@A
	call	??0CDatadescGeneratedNameHolder@@QAE@PBD@Z ; CDatadescGeneratedNameHolder::CDatadescGeneratedNameHolder
	push	OFFSET ??__FnameHolder@?1???$DataMapInit@VCEnvSound@@@@YAPAUdatamap_s@@PAVCEnvSound@@@Z@YAXXZ ; `DataMapInit<CEnvSound>'::`2'::`dynamic atexit destructor for 'nameHolder''
	call	_atexit
	add	esp, 4
	mov	DWORD PTR __$EHRec$[ebp+8], -1
	push	OFFSET ?$TSS0@?1???$DataMapInit@VCEnvSound@@@@YAPAUdatamap_s@@PAVCEnvSound@@@Z@4HA
	call	__Init_thread_footer
	add	esp, 4
$LN2@DataMapIni:

; 895  : 	DEFINE_KEYFIELD( m_flRadius, FIELD_FLOAT, "radius" ),
; 896  : 	DEFINE_KEYFIELD( m_flRoomtype, FIELD_FLOAT, "roomtype" ),
; 897  : END_DATADESC()

	call	?GetBaseMap@CEnvSound@@SAPAUdatamap_s@@XZ ; CEnvSound::GetBaseMap
	mov	DWORD PTR ?m_DataMap@CEnvSound@@2Udatamap_s@@A+12, eax
	mov	eax, 1
	test	eax, eax
	je	SHORT $LN3@DataMapIni
	mov	DWORD PTR ?m_DataMap@CEnvSound@@2Udatamap_s@@A+4, 2
	mov	eax, 24					; 00000018H
	shl	eax, 0
	add	eax, OFFSET ?dataDesc@?1???$DataMapInit@VCEnvSound@@@@YAPAUdatamap_s@@PAVCEnvSound@@@Z@4PAUtypedescription_s@@A
	mov	DWORD PTR ?m_DataMap@CEnvSound@@2Udatamap_s@@A, eax
	jmp	SHORT $LN4@DataMapIni
$LN3@DataMapIni:
	mov	DWORD PTR ?m_DataMap@CEnvSound@@2Udatamap_s@@A+4, 1
	mov	DWORD PTR ?m_DataMap@CEnvSound@@2Udatamap_s@@A, OFFSET ?dataDesc@?1???$DataMapInit@VCEnvSound@@@@YAPAUdatamap_s@@PAVCEnvSound@@@Z@4PAUtypedescription_s@@A
$LN4@DataMapIni:
	mov	eax, OFFSET ?m_DataMap@CEnvSound@@2Udatamap_s@@A ; CEnvSound::m_DataMap
	mov	ecx, DWORD PTR __$EHRec$[ebp]
	mov	DWORD PTR fs:0, ecx
	pop	ecx
	pop	edi
	pop	esi
	pop	ebx
	mov	esp, ebp
	pop	ebp
	ret	0
_TEXT	ENDS
;	COMDAT text$x
text$x	SEGMENT
__unwindfunclet$??$DataMapInit@VCEnvSound@@@@YAPAUdatamap_s@@PAVCEnvSound@@@Z$0:
	push	OFFSET ?$TSS0@?1???$DataMapInit@VCEnvSound@@@@YAPAUdatamap_s@@PAVCEnvSound@@@Z@4HA
	call	__Init_thread_abort
	pop	ecx
	ret	0
__ehhandler$??$DataMapInit@VCEnvSound@@@@YAPAUdatamap_s@@PAVCEnvSound@@@Z:
	mov	edx, DWORD PTR [esp+8]
	lea	eax, DWORD PTR [edx+12]
	mov	ecx, DWORD PTR [edx-80]
	xor	ecx, eax
	call	@__security_check_cookie@4
	mov	eax, OFFSET __ehfuncinfo$??$DataMapInit@VCEnvSound@@@@YAPAUdatamap_s@@PAVCEnvSound@@@Z
	jmp	___CxxFrameHandler3
text$x	ENDS
??$DataMapInit@VCEnvSound@@@@YAPAUdatamap_s@@PAVCEnvSound@@@Z ENDP ; DataMapInit<CEnvSound>
; Function compile flags: /Odtp /ZI
; File d:\!diffusion 2020\source code 2022\client-server\common\datamap.h
;	COMDAT ??$DataMapAccess@VCPointEntity@@@@YAXPAVCPointEntity@@PAPAUdatamap_s@@@Z
_TEXT	SEGMENT
_ignored$ = 8						; size = 4
_p$ = 12						; size = 4
??$DataMapAccess@VCPointEntity@@@@YAXPAVCPointEntity@@PAPAUdatamap_s@@@Z PROC ; DataMapAccess<CPointEntity>, COMDAT

; 184  : {

	push	ebp
	mov	ebp, esp
	sub	esp, 64					; 00000040H
	push	ebx
	push	esi
	push	edi

; 185  : 	*p = &T::m_DataMap;

	mov	eax, DWORD PTR _p$[ebp]
	mov	DWORD PTR [eax], OFFSET ?m_DataMap@CBaseEntity@@2Udatamap_s@@A ; CBaseEntity::m_DataMap

; 186  : }

	pop	edi
	pop	esi
	pop	ebx
	mov	esp, ebp
	pop	ebp
	ret	0
??$DataMapAccess@VCPointEntity@@@@YAXPAVCPointEntity@@PAPAUdatamap_s@@@Z ENDP ; DataMapAccess<CPointEntity>
_TEXT	ENDS
; Function compile flags: /Odtp /ZI
; File d:\!diffusion 2020\source code 2022\client-server\server\sound.cpp
;	COMDAT ??__Eenv_sound@@YAXXZ
text$di	SEGMENT
??__Eenv_sound@@YAXXZ PROC				; `dynamic initializer for 'env_sound'', COMDAT

; 892  : LINK_ENTITY_TO_CLASS( env_sound, CEnvSound );

	push	ebp
	mov	ebp, esp
	sub	esp, 64					; 00000040H
	push	ebx
	push	esi
	push	edi
	push	OFFSET ??_C@_09IJFFIEBG@env_sound?$AA@
	mov	ecx, OFFSET ?env_sound@@3V?$CEntityFactory@VCEnvSound@@@@A
	call	??0?$CEntityFactory@VCEnvSound@@@@QAE@PBD@Z ; CEntityFactory<CEnvSound>::CEntityFactory<CEnvSound>
	pop	edi
	pop	esi
	pop	ebx
	mov	esp, ebp
	pop	ebp
	ret	0
??__Eenv_sound@@YAXXZ ENDP				; `dynamic initializer for 'env_sound''
text$di	ENDS
; Function compile flags: /Odtp /ZI
; File d:\!diffusion 2020\source code 2022\client-server\server\util.h
;	COMDAT ?GetEntitySize@?$CEntityFactory@VCEnvSound@@@@UAEIXZ
_TEXT	SEGMENT
_this$ = -4						; size = 4
?GetEntitySize@?$CEntityFactory@VCEnvSound@@@@UAEIXZ PROC ; CEntityFactory<CEnvSound>::GetEntitySize, COMDAT
; _this$ = ecx

; 103  : 	{

	push	ebp
	mov	ebp, esp
	sub	esp, 68					; 00000044H
	push	ebx
	push	esi
	push	edi
	mov	DWORD PTR _this$[ebp], ecx

; 104  : 		return sizeof(T);

	mov	eax, 1812				; 00000714H

; 105  : 	}

	pop	edi
	pop	esi
	pop	ebx
	mov	esp, ebp
	pop	ebp
	ret	0
?GetEntitySize@?$CEntityFactory@VCEnvSound@@@@UAEIXZ ENDP ; CEntityFactory<CEnvSound>::GetEntitySize
_TEXT	ENDS
; Function compile flags: /Odtp /ZI
; File d:\!diffusion 2020\source code 2022\client-server\server\util.h
;	COMDAT ?Destroy@?$CEntityFactory@VCEnvSound@@@@UAEXPAVCBaseEntity@@@Z
_TEXT	SEGMENT
_this$ = -4						; size = 4
_pEntity$ = 8						; size = 4
?Destroy@?$CEntityFactory@VCEnvSound@@@@UAEXPAVCBaseEntity@@@Z PROC ; CEntityFactory<CEnvSound>::Destroy, COMDAT
; _this$ = ecx

; 98   : 	{

	push	ebp
	mov	ebp, esp
	sub	esp, 68					; 00000044H
	push	ebx
	push	esi
	push	edi
	mov	DWORD PTR _this$[ebp], ecx

; 99   : 		UTIL_Remove( pEntity );

	mov	eax, DWORD PTR _pEntity$[ebp]
	push	eax
	call	?UTIL_Remove@@YAXPAVCBaseEntity@@@Z	; UTIL_Remove
	add	esp, 4

; 100  : 	}

	pop	edi
	pop	esi
	pop	ebx
	mov	esp, ebp
	pop	ebp
	ret	4
?Destroy@?$CEntityFactory@VCEnvSound@@@@UAEXPAVCBaseEntity@@@Z ENDP ; CEntityFactory<CEnvSound>::Destroy
_TEXT	ENDS
; Function compile flags: /Odtp /ZI
; File d:\!diffusion 2020\source code 2022\client-server\server\util.h
;	COMDAT ?Create@?$CEntityFactory@VCEnvSound@@@@UAEPAVCBaseEntity@@PBDPAUentvars_s@@@Z
_TEXT	SEGMENT
_pEnt$ = -8						; size = 4
_this$ = -4						; size = 4
_pClassName$ = 8					; size = 4
_pev$ = 12						; size = 4
?Create@?$CEntityFactory@VCEnvSound@@@@UAEPAVCBaseEntity@@PBDPAUentvars_s@@@Z PROC ; CEntityFactory<CEnvSound>::Create, COMDAT
; _this$ = ecx

; 92   : 	{

	push	ebp
	mov	ebp, esp
	sub	esp, 72					; 00000048H
	push	ebx
	push	esi
	push	edi
	mov	DWORD PTR _this$[ebp], ecx

; 93   : 		T* pEnt = GetClassPtr((T*)pev, pClassName);

	mov	eax, DWORD PTR _pClassName$[ebp]
	push	eax
	mov	ecx, DWORD PTR _pev$[ebp]
	push	ecx
	call	??$GetClassPtr@VCEnvSound@@@@YAPAVCEnvSound@@PAV0@PBD@Z ; GetClassPtr<CEnvSound>
	add	esp, 8
	mov	DWORD PTR _pEnt$[ebp], eax

; 94   : 		return pEnt;

	mov	eax, DWORD PTR _pEnt$[ebp]

; 95   : 	}

	pop	edi
	pop	esi
	pop	ebx
	mov	esp, ebp
	pop	ebp
	ret	8
?Create@?$CEntityFactory@VCEnvSound@@@@UAEPAVCBaseEntity@@PBDPAUentvars_s@@@Z ENDP ; CEntityFactory<CEnvSound>::Create
_TEXT	ENDS
; Function compile flags: /Odtp /ZI
; File d:\!diffusion 2020\source code 2022\client-server\server\util.h
;	COMDAT ??0?$CEntityFactory@VCEnvSound@@@@QAE@PBD@Z
_TEXT	SEGMENT
tv76 = -72						; size = 4
_this$ = -4						; size = 4
_pClassName$ = 8					; size = 4
??0?$CEntityFactory@VCEnvSound@@@@QAE@PBD@Z PROC	; CEntityFactory<CEnvSound>::CEntityFactory<CEnvSound>, COMDAT
; _this$ = ecx

; 86   : 	CEntityFactory( const char *pClassName )

	push	ebp
	mov	ebp, esp
	sub	esp, 72					; 00000048H
	push	ebx
	push	esi
	push	edi
	mov	DWORD PTR _this$[ebp], ecx

; 87   : 	{

	mov	ecx, DWORD PTR _this$[ebp]
	call	??0IEntityFactory@@QAE@XZ
	mov	eax, DWORD PTR _this$[ebp]
	mov	DWORD PTR [eax], OFFSET ??_7?$CEntityFactory@VCEnvSound@@@@6B@

; 88   : 		EntityFactoryDictionary()->InstallFactory( this, pClassName );

	call	?EntityFactoryDictionary@@YAPAVIEntityFactoryDictionary@@XZ ; EntityFactoryDictionary
	mov	DWORD PTR tv76[ebp], eax
	mov	eax, DWORD PTR _pClassName$[ebp]
	push	eax
	mov	ecx, DWORD PTR _this$[ebp]
	push	ecx
	mov	edx, DWORD PTR tv76[ebp]
	mov	eax, DWORD PTR [edx]
	mov	ecx, DWORD PTR tv76[ebp]
	mov	edx, DWORD PTR [eax]
	call	edx

; 89   : 	}

	mov	eax, DWORD PTR _this$[ebp]
	pop	edi
	pop	esi
	pop	ebx
	mov	esp, ebp
	pop	ebp
	ret	4
??0?$CEntityFactory@VCEnvSound@@@@QAE@PBD@Z ENDP	; CEntityFactory<CEnvSound>::CEntityFactory<CEnvSound>
_TEXT	ENDS
; Function compile flags: /Odtp /ZI
;	COMDAT ??0CEnvSound@@QAE@XZ
_TEXT	SEGMENT
_this$ = -4						; size = 4
??0CEnvSound@@QAE@XZ PROC				; CEnvSound::CEnvSound, COMDAT
; _this$ = ecx
	push	ebp
	mov	ebp, esp
	sub	esp, 68					; 00000044H
	push	ebx
	push	esi
	push	edi
	mov	DWORD PTR _this$[ebp], ecx
	mov	ecx, DWORD PTR _this$[ebp]
	call	??0CPointEntity@@QAE@XZ
	mov	eax, DWORD PTR _this$[ebp]
	mov	DWORD PTR [eax], OFFSET ??_7CEnvSound@@6B@
	mov	eax, DWORD PTR _this$[ebp]
	pop	edi
	pop	esi
	pop	ebx
	mov	esp, ebp
	pop	ebp
	ret	0
??0CEnvSound@@QAE@XZ ENDP				; CEnvSound::CEnvSound
_TEXT	ENDS
; Function compile flags: /Odtp /ZI
; File d:\!diffusion 2020\source code 2022\client-server\server\sound.cpp
;	COMDAT ?GetDataDescMap@CEnvSound@@UAEPAUdatamap_s@@XZ
_TEXT	SEGMENT
_this$ = -4						; size = 4
?GetDataDescMap@CEnvSound@@UAEPAUdatamap_s@@XZ PROC	; CEnvSound::GetDataDescMap, COMDAT
; _this$ = ecx

; 894  : BEGIN_DATADESC( CEnvSound )

	push	ebp
	mov	ebp, esp
	sub	esp, 68					; 00000044H
	push	ebx
	push	esi
	push	edi
	mov	DWORD PTR _this$[ebp], ecx
	mov	eax, OFFSET ?m_DataMap@CEnvSound@@2Udatamap_s@@A ; CEnvSound::m_DataMap
	pop	edi
	pop	esi
	pop	ebx
	mov	esp, ebp
	pop	ebp
	ret	0
?GetDataDescMap@CEnvSound@@UAEPAUdatamap_s@@XZ ENDP	; CEnvSound::GetDataDescMap
_TEXT	ENDS
; Function compile flags: /Odtp /ZI
; File d:\!diffusion 2020\source code 2022\client-server\server\sound.cpp
;	COMDAT ?GetBaseMap@CEnvSound@@SAPAUdatamap_s@@XZ
_TEXT	SEGMENT
_pResult$ = -4						; size = 4
?GetBaseMap@CEnvSound@@SAPAUdatamap_s@@XZ PROC		; CEnvSound::GetBaseMap, COMDAT

; 894  : BEGIN_DATADESC( CEnvSound )

	push	ebp
	mov	ebp, esp
	sub	esp, 68					; 00000044H
	push	ebx
	push	esi
	push	edi
	lea	eax, DWORD PTR _pResult$[ebp]
	push	eax
	push	0
	call	??$DataMapAccess@VCPointEntity@@@@YAXPAVCPointEntity@@PAPAUdatamap_s@@@Z ; DataMapAccess<CPointEntity>
	add	esp, 8
	mov	eax, DWORD PTR _pResult$[ebp]
	pop	edi
	pop	esi
	pop	ebx
	mov	esp, ebp
	pop	ebp
	ret	0
?GetBaseMap@CEnvSound@@SAPAUdatamap_s@@XZ ENDP		; CEnvSound::GetBaseMap
_TEXT	ENDS
; Function compile flags: /Odtp /ZI
; File d:\!diffusion 2020\source code 2022\client-server\server\sound.cpp
;	COMDAT ?Think@CEnvSound@@UAEXXZ
_TEXT	SEGMENT
_flRange$ = -16						; size = 4
_pPlayer$ = -12						; size = 4
_pentPlayer$ = -8					; size = 4
_this$ = -4						; size = 4
?Think@CEnvSound@@UAEXXZ PROC				; CEnvSound::Think, COMDAT
; _this$ = ecx

; 959  : {

	push	ebp
	mov	ebp, esp
	sub	esp, 80					; 00000050H
	push	ebx
	push	esi
	push	edi
	mov	DWORD PTR _this$[ebp], ecx

; 960  : 	// get pointer to client if visible; FIND_CLIENT_IN_PVS will
; 961  : 	// cycle through visible clients on consecutive calls.
; 962  : 
; 963  : 	edict_t *pentPlayer = FIND_CLIENT_IN_PVS(edict());

	mov	ecx, DWORD PTR _this$[ebp]
	call	?edict@CBaseEntity@@QAEPAUedict_s@@XZ	; CBaseEntity::edict
	push	eax
	call	DWORD PTR ?g_engfuncs@@3Uenginefuncs_s@@A+68
	add	esp, 4
	mov	DWORD PTR _pentPlayer$[ebp], eax

; 964  : 	CBasePlayer *pPlayer = NULL;

	mov	DWORD PTR _pPlayer$[ebp], 0

; 965  : 
; 966  : 	if (FNullEnt(pentPlayer))

	mov	eax, DWORD PTR _pentPlayer$[ebp]
	push	eax
	call	?FNullEnt@@YAHPBUedict_s@@@Z		; FNullEnt
	add	esp, 4
	test	eax, eax
	je	SHORT $LN2@Think

; 967  : 		goto env_sound_Think_slow; // no player in pvs of sound entity, slow it down

	jmp	$LN3@Think
	jmp	$env_sound_Think_slow$16
$LN2@Think:

; 968  :  
; 969  : 	pPlayer = GetClassPtr( (CBasePlayer *)VARS(pentPlayer));

	mov	eax, DWORD PTR _pentPlayer$[ebp]
	push	eax
	call	?VARS@@YAPAUentvars_s@@PAUedict_s@@@Z	; VARS
	add	esp, 4
	push	eax
	call	??$GetClassPtr@VCBasePlayer@@@@YAPAVCBasePlayer@@PAV0@@Z ; GetClassPtr<CBasePlayer>
	add	esp, 4
	mov	DWORD PTR _pPlayer$[ebp], eax

; 970  : 	float flRange;
; 971  : 
; 972  : 	// check to see if this is the sound entity that is 
; 973  : 	// currently affecting this player
; 974  : 
; 975  : 	if(!FNullEnt(pPlayer->m_pentSndLast) && (pPlayer->m_pentSndLast == ENT(pev))) {

	mov	eax, DWORD PTR _pPlayer$[ebp]
	mov	ecx, DWORD PTR [eax+2540]
	push	ecx
	call	?FNullEnt@@YAHPBUedict_s@@@Z		; FNullEnt
	add	esp, 4
	test	eax, eax
	jne	$LN6@Think
	mov	eax, DWORD PTR _this$[ebp]
	mov	ecx, DWORD PTR [eax+4]
	push	ecx
	call	?ENT@@YAPAUedict_s@@PBUentvars_s@@@Z	; ENT
	add	esp, 4
	mov	edx, DWORD PTR _pPlayer$[ebp]
	cmp	DWORD PTR [edx+2540], eax
	jne	$LN6@Think

; 976  : 
; 977  : 		// this is the entity currently affecting player, check
; 978  : 		// for validity
; 979  : 
; 980  : 		if (pPlayer->m_flSndRoomtype != 0 && pPlayer->m_flSndRange != 0) {

	mov	eax, DWORD PTR _pPlayer$[ebp]
	movss	xmm0, DWORD PTR [eax+2548]
	ucomiss	xmm0, DWORD PTR __real@00000000
	lahf
	test	ah, 68					; 00000044H
	jnp	SHORT $LN5@Think
	mov	eax, DWORD PTR _pPlayer$[ebp]
	movss	xmm0, DWORD PTR [eax+2544]
	ucomiss	xmm0, DWORD PTR __real@00000000
	lahf
	test	ah, 68					; 00000044H
	jnp	SHORT $LN5@Think

; 981  : 		
; 982  : 			// we're looking at a valid sound entity affecting
; 983  : 			// player, make sure it's still valid, update range
; 984  : 
; 985  : 			if (FEnvSoundInRange( this, pPlayer, &flRange ))

	lea	eax, DWORD PTR _flRange$[ebp]
	push	eax
	mov	ecx, DWORD PTR _pPlayer$[ebp]
	push	ecx
	mov	edx, DWORD PTR _this$[ebp]
	push	edx
	call	?FEnvSoundInRange@@YAHPAVCBaseEntity@@0PAM@Z ; FEnvSoundInRange
	add	esp, 12					; 0000000cH
	test	eax, eax
	je	SHORT $LN7@Think

; 986  : 			{
; 987  : 				pPlayer->m_flSndRange = flRange;

	mov	eax, DWORD PTR _pPlayer$[ebp]
	movss	xmm0, DWORD PTR _flRange$[ebp]
	movss	DWORD PTR [eax+2544], xmm0

; 988  : 				goto env_sound_Think_fast;

	jmp	$LN9@Think
	jmp	$env_sound_Think_fast$17

; 989  : 			}
; 990  : 			else

	jmp	SHORT $LN8@Think
$LN7@Think:

; 991  : 			{
; 992  : 				
; 993  : 				// current sound entity affecting player is no longer valid,
; 994  : 				// flag this state by clearing room_type and range.
; 995  : 				// NOTE: we do not actually change the player's room_type
; 996  : 				// NOTE: until we have a new valid room_type to change it to.
; 997  : 
; 998  : 				pPlayer->m_flSndRange = 0;

	mov	eax, DWORD PTR _pPlayer$[ebp]
	xorps	xmm0, xmm0
	movss	DWORD PTR [eax+2544], xmm0

; 999  : 				pPlayer->m_flSndRoomtype = 0;

	mov	eax, DWORD PTR _pPlayer$[ebp]
	xorps	xmm0, xmm0
	movss	DWORD PTR [eax+2548], xmm0

; 1000 : 				goto env_sound_Think_slow;

	jmp	$LN10@Think
	jmp	$env_sound_Think_slow$16
$LN8@Think:

; 1001 : 			}
; 1002 : 		} else {

	jmp	SHORT $LN6@Think
$LN5@Think:

; 1003 : 			// entity is affecting player but is out of range,
; 1004 : 			// wait passively for another entity to usurp it...
; 1005 : 			goto env_sound_Think_slow;

	jmp	$LN11@Think
	jmp	$env_sound_Think_slow$16
$LN6@Think:

; 1006 : 		}
; 1007 : 	}
; 1008 : 
; 1009 : 	// if we got this far, we're looking at an entity that is contending
; 1010 : 	// for current player sound. the closest entity to player wins.
; 1011 : 
; 1012 : 	if (FEnvSoundInRange( this, pPlayer, &flRange)) 

	lea	eax, DWORD PTR _flRange$[ebp]
	push	eax
	mov	ecx, DWORD PTR _pPlayer$[ebp]
	push	ecx
	mov	edx, DWORD PTR _this$[ebp]
	push	edx
	call	?FEnvSoundInRange@@YAHPAVCBaseEntity@@0PAM@Z ; FEnvSoundInRange
	add	esp, 12					; 0000000cH
	test	eax, eax
	je	SHORT $LN13@Think

; 1013 : 	{
; 1014 : 		if (flRange < pPlayer->m_flSndRange || pPlayer->m_flSndRange == 0) 

	mov	eax, DWORD PTR _pPlayer$[ebp]
	movss	xmm0, DWORD PTR [eax+2544]
	comiss	xmm0, DWORD PTR _flRange$[ebp]
	ja	SHORT $LN14@Think
	mov	eax, DWORD PTR _pPlayer$[ebp]
	movss	xmm0, DWORD PTR [eax+2544]
	ucomiss	xmm0, DWORD PTR __real@00000000
	lahf
	test	ah, 68					; 00000044H
	jp	SHORT $LN13@Think
$LN14@Think:

; 1015 : 		{
; 1016 : 			// new entity is closer to player, so it wins.
; 1017 : 			pPlayer->m_pentSndLast = ENT(pev);

	mov	eax, DWORD PTR _this$[ebp]
	mov	ecx, DWORD PTR [eax+4]
	push	ecx
	call	?ENT@@YAPAUedict_s@@PBUentvars_s@@@Z	; ENT
	add	esp, 4
	mov	edx, DWORD PTR _pPlayer$[ebp]
	mov	DWORD PTR [edx+2540], eax

; 1018 : 			pPlayer->m_flSndRoomtype = m_flRoomtype;

	mov	eax, DWORD PTR _pPlayer$[ebp]
	mov	ecx, DWORD PTR _this$[ebp]
	mov	edx, DWORD PTR [ecx+1808]
	mov	DWORD PTR [eax+2548], edx

; 1019 : 			pPlayer->m_flSndRange = flRange;

	mov	eax, DWORD PTR _pPlayer$[ebp]
	movss	xmm0, DWORD PTR _flRange$[ebp]
	movss	DWORD PTR [eax+2544], xmm0

; 1020 : 			
; 1021 : 			// send room_type command to player's server.
; 1022 : 			// this should be a rare event - once per change of room_type
; 1023 : 			// only!
; 1024 : 			pPlayer->m_iSndRoomtype = (short)m_flRoomtype;

	mov	eax, DWORD PTR _this$[ebp]
	cvttss2si ecx, DWORD PTR [eax+1808]
	movsx	edx, cx
	mov	eax, DWORD PTR _pPlayer$[ebp]
	mov	DWORD PTR [eax+4308], edx
$LN13@Think:
$LN9@Think:
$env_sound_Think_fast$17:

; 1025 : 
; 1026 : 			//CLIENT_COMMAND(pentPlayer, "room_type %f", m_flRoomtype);
; 1027 : 			
; 1028 : 			//MESSAGE_BEGIN( MSG_ONE, SVC_ROOMTYPE, NULL, pentPlayer );		// use the magic #1 for "one client"
; 1029 : 			//	WRITE_SHORT( (short)m_flRoomtype );					// sequence number
; 1030 : 			//MESSAGE_END();
; 1031 : 
; 1032 : 			// crank up nextthink rate for new active sound entity
; 1033 : 			// by falling through to think_fast...
; 1034 : 		}
; 1035 : 		// player is not closer to the contending sound entity,
; 1036 : 		// just fall through to think_fast. this effectively
; 1037 : 		// cranks up the think_rate of entities near the player.
; 1038 : 	} 
; 1039 : 
; 1040 : 	// player is in pvs of sound entity, but either not visible or
; 1041 : 	// not in range. do nothing, fall through to think_fast...
; 1042 : 
; 1043 : env_sound_Think_fast:
; 1044 : 	pev->nextthink = gpGlobals->time + 0.25;

	mov	eax, DWORD PTR ?gpGlobals@@3PAUglobalvars_t@@A ; gpGlobals
	cvtss2sd xmm0, DWORD PTR [eax]
	addsd	xmm0, QWORD PTR __real@3fd0000000000000
	cvtsd2ss xmm0, xmm0
	mov	ecx, DWORD PTR _this$[ebp]
	mov	edx, DWORD PTR [ecx+4]
	movss	DWORD PTR [edx+260], xmm0

; 1045 : 	return;

	jmp	SHORT $LN1@Think
$LN3@Think:
$LN10@Think:
$LN11@Think:
$env_sound_Think_slow$16:

; 1046 : 
; 1047 : env_sound_Think_slow:
; 1048 : 	pev->nextthink = gpGlobals->time + 0.75;

	mov	eax, DWORD PTR ?gpGlobals@@3PAUglobalvars_t@@A ; gpGlobals
	cvtss2sd xmm0, DWORD PTR [eax]
	addsd	xmm0, QWORD PTR __real@3fe8000000000000
	cvtsd2ss xmm0, xmm0
	mov	ecx, DWORD PTR _this$[ebp]
	mov	edx, DWORD PTR [ecx+4]
	movss	DWORD PTR [edx+260], xmm0
$LN1@Think:

; 1049 : 	return;
; 1050 : }

	pop	edi
	pop	esi
	pop	ebx
	mov	esp, ebp
	pop	ebp
	ret	0
?Think@CEnvSound@@UAEXXZ ENDP				; CEnvSound::Think
_TEXT	ENDS
; Function compile flags: /Odtp /ZI
; File d:\!diffusion 2020\source code 2022\client-server\server\sound.cpp
;	COMDAT ?Spawn@CEnvSound@@UAEXXZ
_TEXT	SEGMENT
tv83 = -72						; size = 4
_this$ = -4						; size = 4
?Spawn@CEnvSound@@UAEXXZ PROC				; CEnvSound::Spawn, COMDAT
; _this$ = ecx

; 1058 : {

	push	ebp
	mov	ebp, esp
	sub	esp, 72					; 00000048H
	push	ebx
	push	esi
	push	edi
	mov	DWORD PTR _this$[ebp], ecx

; 1059 : 	// spread think times
; 1060 : 	pev->nextthink = gpGlobals->time + RANDOM_FLOAT(0.0, 0.5); 

	push	ecx
	movss	xmm0, DWORD PTR __real@3f000000
	movss	DWORD PTR [esp], xmm0
	push	ecx
	xorps	xmm0, xmm0
	movss	DWORD PTR [esp], xmm0
	call	DWORD PTR ?g_engfuncs@@3Uenginefuncs_s@@A+364
	add	esp, 8
	fstp	DWORD PTR tv83[ebp]
	mov	eax, DWORD PTR ?gpGlobals@@3PAUglobalvars_t@@A ; gpGlobals
	movss	xmm0, DWORD PTR tv83[ebp]
	addss	xmm0, DWORD PTR [eax]
	mov	ecx, DWORD PTR _this$[ebp]
	mov	edx, DWORD PTR [ecx+4]
	movss	DWORD PTR [edx+260], xmm0

; 1061 : }

	pop	edi
	pop	esi
	pop	ebx
	mov	esp, ebp
	pop	ebp
	ret	0
?Spawn@CEnvSound@@UAEXXZ ENDP				; CEnvSound::Spawn
_TEXT	ENDS
; Function compile flags: /Odtp /ZI
; File d:\!diffusion 2020\source code 2022\client-server\server\sound.cpp
;	COMDAT ?KeyValue@CEnvSound@@UAEXPAUKeyValueData_s@@@Z
_TEXT	SEGMENT
_this$ = -4						; size = 4
_pkvd$ = 8						; size = 4
?KeyValue@CEnvSound@@UAEXPAUKeyValueData_s@@@Z PROC	; CEnvSound::KeyValue, COMDAT
; _this$ = ecx

; 900  : {

	push	ebp
	mov	ebp, esp
	sub	esp, 68					; 00000044H
	push	ebx
	push	esi
	push	edi
	mov	DWORD PTR _this$[ebp], ecx

; 901  : 	
; 902  : 	if (FStrEq(pkvd->szKeyName, "radius"))

	push	OFFSET ??_C@_06KGHINEPG@radius?$AA@
	mov	eax, DWORD PTR _pkvd$[ebp]
	mov	ecx, DWORD PTR [eax+4]
	push	ecx
	call	?FStrEq@@YAHPBD0@Z			; FStrEq
	add	esp, 8
	test	eax, eax
	je	SHORT $LN2@KeyValue

; 903  : 	{
; 904  : 		m_flRadius = atof(pkvd->szValue);

	mov	eax, DWORD PTR _pkvd$[ebp]
	mov	ecx, DWORD PTR [eax+8]
	push	ecx
	call	_atof
	add	esp, 4
	mov	edx, DWORD PTR _this$[ebp]
	fstp	DWORD PTR [edx+1804]

; 905  : 		pkvd->fHandled = TRUE;

	mov	eax, DWORD PTR _pkvd$[ebp]
	mov	DWORD PTR [eax+12], 1
$LN2@KeyValue:

; 906  : 	}
; 907  : 	if (FStrEq(pkvd->szKeyName, "roomtype"))

	push	OFFSET ??_C@_08FBOCMMDG@roomtype?$AA@
	mov	eax, DWORD PTR _pkvd$[ebp]
	mov	ecx, DWORD PTR [eax+4]
	push	ecx
	call	?FStrEq@@YAHPBD0@Z			; FStrEq
	add	esp, 8
	test	eax, eax
	je	SHORT $LN3@KeyValue

; 908  : 	{
; 909  : 		m_flRoomtype = atof(pkvd->szValue);

	mov	eax, DWORD PTR _pkvd$[ebp]
	mov	ecx, DWORD PTR [eax+8]
	push	ecx
	call	_atof
	add	esp, 4
	mov	edx, DWORD PTR _this$[ebp]
	fstp	DWORD PTR [edx+1808]

; 910  : 		pkvd->fHandled = TRUE;

	mov	eax, DWORD PTR _pkvd$[ebp]
	mov	DWORD PTR [eax+12], 1
$LN3@KeyValue:

; 911  : 	}
; 912  : }

	pop	edi
	pop	esi
	pop	ebx
	mov	esp, ebp
	pop	ebp
	ret	4
?KeyValue@CEnvSound@@UAEXPAUKeyValueData_s@@@Z ENDP	; CEnvSound::KeyValue
_TEXT	ENDS
; Function compile flags: /Odtp /ZI
;	COMDAT ??__FnameHolder@?1???$DataMapInit@VCAmbientGeneric@@@@YAPAUdatamap_s@@PAVCAmbientGeneric@@@Z@YAXXZ
text$yd	SEGMENT
??__FnameHolder@?1???$DataMapInit@VCAmbientGeneric@@@@YAPAUdatamap_s@@PAVCAmbientGeneric@@@Z@YAXXZ PROC ; `DataMapInit<CAmbientGeneric>'::`2'::`dynamic atexit destructor for 'nameHolder'', COMDAT
	push	ebp
	mov	ebp, esp
	sub	esp, 64					; 00000040H
	push	ebx
	push	esi
	push	edi
	mov	ecx, OFFSET ?nameHolder@?1???$DataMapInit@VCAmbientGeneric@@@@YAPAUdatamap_s@@PAVCAmbientGeneric@@@Z@4VCDatadescGeneratedNameHolder@@A
	call	??1CDatadescGeneratedNameHolder@@QAE@XZ	; CDatadescGeneratedNameHolder::~CDatadescGeneratedNameHolder
	pop	edi
	pop	esi
	pop	ebx
	mov	esp, ebp
	pop	ebp
	ret	0
??__FnameHolder@?1???$DataMapInit@VCAmbientGeneric@@@@YAPAUdatamap_s@@PAVCAmbientGeneric@@@Z@YAXXZ ENDP ; `DataMapInit<CAmbientGeneric>'::`2'::`dynamic atexit destructor for 'nameHolder''
text$yd	ENDS
; Function compile flags: /Odtp /ZI
; File d:\!diffusion 2020\source code 2022\client-server\server\sound.cpp
;	COMDAT ??__Eg_DataMapHolder@CAmbientGeneric_DataDescInit@@YAXXZ
text$di	SEGMENT
??__Eg_DataMapHolder@CAmbientGeneric_DataDescInit@@YAXXZ PROC ; CAmbientGeneric_DataDescInit::`dynamic initializer for 'g_DataMapHolder'', COMDAT

; 147  : BEGIN_DATADESC( CAmbientGeneric )

	push	ebp
	mov	ebp, esp
	sub	esp, 64					; 00000040H
	push	ebx
	push	esi
	push	edi
	push	0
	call	??$DataMapInit@VCAmbientGeneric@@@@YAPAUdatamap_s@@PAVCAmbientGeneric@@@Z ; DataMapInit<CAmbientGeneric>
	add	esp, 4
	mov	DWORD PTR ?g_DataMapHolder@CAmbientGeneric_DataDescInit@@3PAUdatamap_s@@A, eax ; CAmbientGeneric_DataDescInit::g_DataMapHolder
	pop	edi
	pop	esi
	pop	ebx
	mov	esp, ebp
	pop	ebp
	ret	0
??__Eg_DataMapHolder@CAmbientGeneric_DataDescInit@@YAXXZ ENDP ; CAmbientGeneric_DataDescInit::`dynamic initializer for 'g_DataMapHolder''
text$di	ENDS
; Function compile flags: /Odtp /ZI
; File d:\!diffusion 2020\source code 2022\client-server\server\sound.cpp
;	COMDAT ??$DataMapInit@VCAmbientGeneric@@@@YAPAUdatamap_s@@PAVCAmbientGeneric@@@Z
_TEXT	SEGMENT
__$EHRec$ = -12						; size = 12
___formal$ = 8						; size = 4
??$DataMapInit@VCAmbientGeneric@@@@YAPAUdatamap_s@@PAVCAmbientGeneric@@@Z PROC ; DataMapInit<CAmbientGeneric>, COMDAT

; 147  : BEGIN_DATADESC( CAmbientGeneric )

	push	ebp
	mov	ebp, esp
	push	-1
	push	__ehhandler$??$DataMapInit@VCAmbientGeneric@@@@YAPAUdatamap_s@@PAVCAmbientGeneric@@@Z
	mov	eax, DWORD PTR fs:0
	push	eax
	sub	esp, 64					; 00000040H
	push	ebx
	push	esi
	push	edi
	mov	eax, DWORD PTR ___security_cookie
	xor	eax, ebp
	push	eax
	lea	eax, DWORD PTR __$EHRec$[ebp]
	mov	DWORD PTR fs:0, eax
	mov	eax, DWORD PTR __tls_index
	mov	ecx, DWORD PTR fs:__tls_array
	mov	edx, DWORD PTR [ecx+eax*4]
	mov	eax, DWORD PTR ?$TSS0@?1???$DataMapInit@VCAmbientGeneric@@@@YAPAUdatamap_s@@PAVCAmbientGeneric@@@Z@4HA
	cmp	eax, DWORD PTR __Init_thread_epoch[edx]
	jle	SHORT $LN2@DataMapIni
	push	OFFSET ?$TSS0@?1???$DataMapInit@VCAmbientGeneric@@@@YAPAUdatamap_s@@PAVCAmbientGeneric@@@Z@4HA
	call	__Init_thread_header
	add	esp, 4
	cmp	DWORD PTR ?$TSS0@?1???$DataMapInit@VCAmbientGeneric@@@@YAPAUdatamap_s@@PAVCAmbientGeneric@@@Z@4HA, -1
	jne	SHORT $LN2@DataMapIni
	mov	DWORD PTR __$EHRec$[ebp+8], 0
	push	OFFSET ??_C@_0BA@JFHJJCNE@CAmbientGeneric?$AA@
	mov	ecx, OFFSET ?nameHolder@?1???$DataMapInit@VCAmbientGeneric@@@@YAPAUdatamap_s@@PAVCAmbientGeneric@@@Z@4VCDatadescGeneratedNameHolder@@A
	call	??0CDatadescGeneratedNameHolder@@QAE@PBD@Z ; CDatadescGeneratedNameHolder::CDatadescGeneratedNameHolder
	push	OFFSET ??__FnameHolder@?1???$DataMapInit@VCAmbientGeneric@@@@YAPAUdatamap_s@@PAVCAmbientGeneric@@@Z@YAXXZ ; `DataMapInit<CAmbientGeneric>'::`2'::`dynamic atexit destructor for 'nameHolder''
	call	_atexit
	add	esp, 4
	mov	DWORD PTR __$EHRec$[ebp+8], -1
	push	OFFSET ?$TSS0@?1???$DataMapInit@VCAmbientGeneric@@@@YAPAUdatamap_s@@PAVCAmbientGeneric@@@Z@4HA
	call	__Init_thread_footer
	add	esp, 4
$LN2@DataMapIni:

; 162  : END_DATADESC()

	call	?GetBaseMap@CAmbientGeneric@@SAPAUdatamap_s@@XZ ; CAmbientGeneric::GetBaseMap
	mov	DWORD PTR ?m_DataMap@CAmbientGeneric@@2Udatamap_s@@A+12, eax

; 147  : BEGIN_DATADESC( CAmbientGeneric )

	mov	eax, DWORD PTR __tls_index
	mov	ecx, DWORD PTR fs:__tls_array
	mov	edx, DWORD PTR [ecx+eax*4]
	mov	eax, DWORD PTR ?$TSS1@?1???$DataMapInit@VCAmbientGeneric@@@@YAPAUdatamap_s@@PAVCAmbientGeneric@@@Z@4HA
	cmp	eax, DWORD PTR __Init_thread_epoch[edx]
	jle	$LN3@DataMapIni
	push	OFFSET ?$TSS1@?1???$DataMapInit@VCAmbientGeneric@@@@YAPAUdatamap_s@@PAVCAmbientGeneric@@@Z@4HA
	call	__Init_thread_header
	add	esp, 4
	cmp	DWORD PTR ?$TSS1@?1???$DataMapInit@VCAmbientGeneric@@@@YAPAUdatamap_s@@PAVCAmbientGeneric@@@Z@4HA, -1
	jne	$LN3@DataMapIni
	mov	DWORD PTR __$EHRec$[ebp+8], 1

; 148  : 	DEFINE_KEYFIELD( m_flAttenuation, FIELD_FLOAT, "attenuation" ),
; 149  : 	DEFINE_FIELD( m_fActive, FIELD_BOOLEAN ),
; 150  : 	DEFINE_FIELD( m_fLooping, FIELD_BOOLEAN ),
; 151  : 
; 152  : 	// HACKHACK - This is not really in the spirit of the save/restore design, but save this
; 153  : 	// out as a binary data block.  If the dynpitchvol_t is changed, old saved games will NOT
; 154  : 	// load these correctly, so bump the save/restore version if you change the size of the struct
; 155  : 	// The right way to do this is to split the input parms (read in keyvalue) into members and re-init this
; 156  : 	// struct in Precache(), but it's unlikely that the struct will change, so it's not worth the time right now.
; 157  : 	DEFINE_ARRAY( m_dpv, FIELD_CHARACTER, sizeof(dynpitchvol_t) ),
; 158  : 	DEFINE_FUNCTION( RampThink ),

	push	OFFSET ??_C@_09PBDJKLPI@RampThink?$AA@
	mov	ecx, OFFSET ?nameHolder@?1???$DataMapInit@VCAmbientGeneric@@@@YAPAUdatamap_s@@PAVCAmbientGeneric@@@Z@4VCDatadescGeneratedNameHolder@@A
	call	?GenerateName@CDatadescGeneratedNameHolder@@QAEPBDPBD@Z ; CDatadescGeneratedNameHolder::GenerateName
	mov	DWORD PTR ?dataDesc@?1???$DataMapInit@VCAmbientGeneric@@@@YAPAUdatamap_s@@PAVCAmbientGeneric@@@Z@4PAUtypedescription_s@@A+124, eax
	mov	DWORD PTR ?dataDesc@?1???$DataMapInit@VCAmbientGeneric@@@@YAPAUdatamap_s@@PAVCAmbientGeneric@@@Z@4PAUtypedescription_s@@A+128, 0
	mov	eax, 1
	mov	WORD PTR ?dataDesc@?1???$DataMapInit@VCAmbientGeneric@@@@YAPAUdatamap_s@@PAVCAmbientGeneric@@@Z@4PAUtypedescription_s@@A+132, ax
	mov	eax, 8
	mov	WORD PTR ?dataDesc@?1???$DataMapInit@VCAmbientGeneric@@@@YAPAUdatamap_s@@PAVCAmbientGeneric@@@Z@4PAUtypedescription_s@@A+134, ax
	mov	DWORD PTR ?dataDesc@?1???$DataMapInit@VCAmbientGeneric@@@@YAPAUdatamap_s@@PAVCAmbientGeneric@@@Z@4PAUtypedescription_s@@A+136, 0
	mov	DWORD PTR ?dataDesc@?1???$DataMapInit@VCAmbientGeneric@@@@YAPAUdatamap_s@@PAVCAmbientGeneric@@@Z@4PAUtypedescription_s@@A+140, OFFSET ?RampThink@CAmbientGeneric@@QAEXXZ ; CAmbientGeneric::RampThink

; 159  : 	DEFINE_FUNCTION( ToggleUse ),

	mov	DWORD PTR ?dataDesc@?1???$DataMapInit@VCAmbientGeneric@@@@YAPAUdatamap_s@@PAVCAmbientGeneric@@@Z@4PAUtypedescription_s@@A+144, 18 ; 00000012H
	push	OFFSET ??_C@_09CHGFKFGA@ToggleUse?$AA@
	mov	ecx, OFFSET ?nameHolder@?1???$DataMapInit@VCAmbientGeneric@@@@YAPAUdatamap_s@@PAVCAmbientGeneric@@@Z@4VCDatadescGeneratedNameHolder@@A
	call	?GenerateName@CDatadescGeneratedNameHolder@@QAEPBDPBD@Z ; CDatadescGeneratedNameHolder::GenerateName
	mov	DWORD PTR ?dataDesc@?1???$DataMapInit@VCAmbientGeneric@@@@YAPAUdatamap_s@@PAVCAmbientGeneric@@@Z@4PAUtypedescription_s@@A+148, eax
	mov	DWORD PTR ?dataDesc@?1???$DataMapInit@VCAmbientGeneric@@@@YAPAUdatamap_s@@PAVCAmbientGeneric@@@Z@4PAUtypedescription_s@@A+152, 0
	mov	eax, 1
	mov	WORD PTR ?dataDesc@?1???$DataMapInit@VCAmbientGeneric@@@@YAPAUdatamap_s@@PAVCAmbientGeneric@@@Z@4PAUtypedescription_s@@A+156, ax
	mov	eax, 8
	mov	WORD PTR ?dataDesc@?1???$DataMapInit@VCAmbientGeneric@@@@YAPAUdatamap_s@@PAVCAmbientGeneric@@@Z@4PAUtypedescription_s@@A+158, ax
	mov	DWORD PTR ?dataDesc@?1???$DataMapInit@VCAmbientGeneric@@@@YAPAUdatamap_s@@PAVCAmbientGeneric@@@Z@4PAUtypedescription_s@@A+160, 0
	mov	DWORD PTR ?dataDesc@?1???$DataMapInit@VCAmbientGeneric@@@@YAPAUdatamap_s@@PAVCAmbientGeneric@@@Z@4PAUtypedescription_s@@A+164, OFFSET ?ToggleUse@CAmbientGeneric@@QAEXPAVCBaseEntity@@0W4USE_TYPE@@M@Z ; CAmbientGeneric::ToggleUse

; 160  : 	DEFINE_FUNCTION( StartDynamicSound ),

	mov	DWORD PTR ?dataDesc@?1???$DataMapInit@VCAmbientGeneric@@@@YAPAUdatamap_s@@PAVCAmbientGeneric@@@Z@4PAUtypedescription_s@@A+168, 18 ; 00000012H
	push	OFFSET ??_C@_0BC@JFAHPILA@StartDynamicSound?$AA@
	mov	ecx, OFFSET ?nameHolder@?1???$DataMapInit@VCAmbientGeneric@@@@YAPAUdatamap_s@@PAVCAmbientGeneric@@@Z@4VCDatadescGeneratedNameHolder@@A
	call	?GenerateName@CDatadescGeneratedNameHolder@@QAEPBDPBD@Z ; CDatadescGeneratedNameHolder::GenerateName
	mov	DWORD PTR ?dataDesc@?1???$DataMapInit@VCAmbientGeneric@@@@YAPAUdatamap_s@@PAVCAmbientGeneric@@@Z@4PAUtypedescription_s@@A+172, eax
	mov	DWORD PTR ?dataDesc@?1???$DataMapInit@VCAmbientGeneric@@@@YAPAUdatamap_s@@PAVCAmbientGeneric@@@Z@4PAUtypedescription_s@@A+176, 0
	mov	eax, 1
	mov	WORD PTR ?dataDesc@?1???$DataMapInit@VCAmbientGeneric@@@@YAPAUdatamap_s@@PAVCAmbientGeneric@@@Z@4PAUtypedescription_s@@A+180, ax
	mov	eax, 8
	mov	WORD PTR ?dataDesc@?1???$DataMapInit@VCAmbientGeneric@@@@YAPAUdatamap_s@@PAVCAmbientGeneric@@@Z@4PAUtypedescription_s@@A+182, ax
	mov	DWORD PTR ?dataDesc@?1???$DataMapInit@VCAmbientGeneric@@@@YAPAUdatamap_s@@PAVCAmbientGeneric@@@Z@4PAUtypedescription_s@@A+184, 0
	mov	DWORD PTR ?dataDesc@?1???$DataMapInit@VCAmbientGeneric@@@@YAPAUdatamap_s@@PAVCAmbientGeneric@@@Z@4PAUtypedescription_s@@A+188, OFFSET ?StartDynamicSound@CAmbientGeneric@@QAEXXZ ; CAmbientGeneric::StartDynamicSound

; 161  : 	DEFINE_FUNCTION( ReInitialize ),

	mov	DWORD PTR ?dataDesc@?1???$DataMapInit@VCAmbientGeneric@@@@YAPAUdatamap_s@@PAVCAmbientGeneric@@@Z@4PAUtypedescription_s@@A+192, 18 ; 00000012H
	push	OFFSET ??_C@_0N@BFNLBOAL@ReInitialize?$AA@
	mov	ecx, OFFSET ?nameHolder@?1???$DataMapInit@VCAmbientGeneric@@@@YAPAUdatamap_s@@PAVCAmbientGeneric@@@Z@4VCDatadescGeneratedNameHolder@@A
	call	?GenerateName@CDatadescGeneratedNameHolder@@QAEPBDPBD@Z ; CDatadescGeneratedNameHolder::GenerateName
	mov	DWORD PTR ?dataDesc@?1???$DataMapInit@VCAmbientGeneric@@@@YAPAUdatamap_s@@PAVCAmbientGeneric@@@Z@4PAUtypedescription_s@@A+196, eax
	mov	DWORD PTR ?dataDesc@?1???$DataMapInit@VCAmbientGeneric@@@@YAPAUdatamap_s@@PAVCAmbientGeneric@@@Z@4PAUtypedescription_s@@A+200, 0
	mov	eax, 1
	mov	WORD PTR ?dataDesc@?1???$DataMapInit@VCAmbientGeneric@@@@YAPAUdatamap_s@@PAVCAmbientGeneric@@@Z@4PAUtypedescription_s@@A+204, ax
	mov	eax, 8
	mov	WORD PTR ?dataDesc@?1???$DataMapInit@VCAmbientGeneric@@@@YAPAUdatamap_s@@PAVCAmbientGeneric@@@Z@4PAUtypedescription_s@@A+206, ax
	mov	DWORD PTR ?dataDesc@?1???$DataMapInit@VCAmbientGeneric@@@@YAPAUdatamap_s@@PAVCAmbientGeneric@@@Z@4PAUtypedescription_s@@A+208, 0
	mov	DWORD PTR ?dataDesc@?1???$DataMapInit@VCAmbientGeneric@@@@YAPAUdatamap_s@@PAVCAmbientGeneric@@@Z@4PAUtypedescription_s@@A+212, OFFSET ?ReInitialize@CAmbientGeneric@@QAEXXZ ; CAmbientGeneric::ReInitialize
	mov	DWORD PTR __$EHRec$[ebp+8], -1
	push	OFFSET ?$TSS1@?1???$DataMapInit@VCAmbientGeneric@@@@YAPAUdatamap_s@@PAVCAmbientGeneric@@@Z@4HA
	call	__Init_thread_footer
	add	esp, 4
$LN3@DataMapIni:

; 162  : END_DATADESC()

	mov	eax, 1
	test	eax, eax
	je	SHORT $LN4@DataMapIni
	mov	DWORD PTR ?m_DataMap@CAmbientGeneric@@2Udatamap_s@@A+4, 8
	mov	eax, 24					; 00000018H
	shl	eax, 0
	add	eax, OFFSET ?dataDesc@?1???$DataMapInit@VCAmbientGeneric@@@@YAPAUdatamap_s@@PAVCAmbientGeneric@@@Z@4PAUtypedescription_s@@A
	mov	DWORD PTR ?m_DataMap@CAmbientGeneric@@2Udatamap_s@@A, eax
	jmp	SHORT $LN5@DataMapIni
$LN4@DataMapIni:
	mov	DWORD PTR ?m_DataMap@CAmbientGeneric@@2Udatamap_s@@A+4, 1
	mov	DWORD PTR ?m_DataMap@CAmbientGeneric@@2Udatamap_s@@A, OFFSET ?dataDesc@?1???$DataMapInit@VCAmbientGeneric@@@@YAPAUdatamap_s@@PAVCAmbientGeneric@@@Z@4PAUtypedescription_s@@A
$LN5@DataMapIni:
	mov	eax, OFFSET ?m_DataMap@CAmbientGeneric@@2Udatamap_s@@A ; CAmbientGeneric::m_DataMap
	mov	ecx, DWORD PTR __$EHRec$[ebp]
	mov	DWORD PTR fs:0, ecx
	pop	ecx
	pop	edi
	pop	esi
	pop	ebx
	mov	esp, ebp
	pop	ebp
	ret	0
_TEXT	ENDS
;	COMDAT text$x
text$x	SEGMENT
__unwindfunclet$??$DataMapInit@VCAmbientGeneric@@@@YAPAUdatamap_s@@PAVCAmbientGeneric@@@Z$0:
	push	OFFSET ?$TSS0@?1???$DataMapInit@VCAmbientGeneric@@@@YAPAUdatamap_s@@PAVCAmbientGeneric@@@Z@4HA
	call	__Init_thread_abort
	pop	ecx
	ret	0
__unwindfunclet$??$DataMapInit@VCAmbientGeneric@@@@YAPAUdatamap_s@@PAVCAmbientGeneric@@@Z$1:
	push	OFFSET ?$TSS1@?1???$DataMapInit@VCAmbientGeneric@@@@YAPAUdatamap_s@@PAVCAmbientGeneric@@@Z@4HA
	call	__Init_thread_abort
	pop	ecx
	ret	0
__ehhandler$??$DataMapInit@VCAmbientGeneric@@@@YAPAUdatamap_s@@PAVCAmbientGeneric@@@Z:
	mov	edx, DWORD PTR [esp+8]
	lea	eax, DWORD PTR [edx+12]
	mov	ecx, DWORD PTR [edx-80]
	xor	ecx, eax
	call	@__security_check_cookie@4
	mov	eax, OFFSET __ehfuncinfo$??$DataMapInit@VCAmbientGeneric@@@@YAPAUdatamap_s@@PAVCAmbientGeneric@@@Z
	jmp	___CxxFrameHandler3
text$x	ENDS
??$DataMapInit@VCAmbientGeneric@@@@YAPAUdatamap_s@@PAVCAmbientGeneric@@@Z ENDP ; DataMapInit<CAmbientGeneric>
; Function compile flags: /Odtp /ZI
; File d:\!diffusion 2020\source code 2022\client-server\common\datamap.h
;	COMDAT ??$DataMapAccess@VCBaseEntity@@@@YAXPAVCBaseEntity@@PAPAUdatamap_s@@@Z
_TEXT	SEGMENT
_ignored$ = 8						; size = 4
_p$ = 12						; size = 4
??$DataMapAccess@VCBaseEntity@@@@YAXPAVCBaseEntity@@PAPAUdatamap_s@@@Z PROC ; DataMapAccess<CBaseEntity>, COMDAT

; 184  : {

	push	ebp
	mov	ebp, esp
	sub	esp, 64					; 00000040H
	push	ebx
	push	esi
	push	edi

; 185  : 	*p = &T::m_DataMap;

	mov	eax, DWORD PTR _p$[ebp]
	mov	DWORD PTR [eax], OFFSET ?m_DataMap@CBaseEntity@@2Udatamap_s@@A ; CBaseEntity::m_DataMap

; 186  : }

	pop	edi
	pop	esi
	pop	ebx
	mov	esp, ebp
	pop	ebp
	ret	0
??$DataMapAccess@VCBaseEntity@@@@YAXPAVCBaseEntity@@PAPAUdatamap_s@@@Z ENDP ; DataMapAccess<CBaseEntity>
_TEXT	ENDS
; Function compile flags: /Odtp /ZI
; File d:\!diffusion 2020\source code 2022\client-server\server\sound.cpp
;	COMDAT ??__Eambient_generic@@YAXXZ
text$di	SEGMENT
??__Eambient_generic@@YAXXZ PROC			; `dynamic initializer for 'ambient_generic'', COMDAT

; 145  : LINK_ENTITY_TO_CLASS( ambient_generic, CAmbientGeneric );

	push	ebp
	mov	ebp, esp
	sub	esp, 64					; 00000040H
	push	ebx
	push	esi
	push	edi
	push	OFFSET ??_C@_0BA@JGPOPFCJ@ambient_generic?$AA@
	mov	ecx, OFFSET ?ambient_generic@@3V?$CEntityFactory@VCAmbientGeneric@@@@A
	call	??0?$CEntityFactory@VCAmbientGeneric@@@@QAE@PBD@Z ; CEntityFactory<CAmbientGeneric>::CEntityFactory<CAmbientGeneric>
	pop	edi
	pop	esi
	pop	ebx
	mov	esp, ebp
	pop	ebp
	ret	0
??__Eambient_generic@@YAXXZ ENDP			; `dynamic initializer for 'ambient_generic''
text$di	ENDS
; Function compile flags: /Odtp /ZI
; File d:\!diffusion 2020\source code 2022\client-server\server\util.h
;	COMDAT ?GetEntitySize@?$CEntityFactory@VCAmbientGeneric@@@@UAEIXZ
_TEXT	SEGMENT
_this$ = -4						; size = 4
?GetEntitySize@?$CEntityFactory@VCAmbientGeneric@@@@UAEIXZ PROC ; CEntityFactory<CAmbientGeneric>::GetEntitySize, COMDAT
; _this$ = ecx

; 103  : 	{

	push	ebp
	mov	ebp, esp
	sub	esp, 68					; 00000044H
	push	ebx
	push	esi
	push	edi
	mov	DWORD PTR _this$[ebp], ecx

; 104  : 		return sizeof(T);

	mov	eax, 1924				; 00000784H

; 105  : 	}

	pop	edi
	pop	esi
	pop	ebx
	mov	esp, ebp
	pop	ebp
	ret	0
?GetEntitySize@?$CEntityFactory@VCAmbientGeneric@@@@UAEIXZ ENDP ; CEntityFactory<CAmbientGeneric>::GetEntitySize
_TEXT	ENDS
; Function compile flags: /Odtp /ZI
; File d:\!diffusion 2020\source code 2022\client-server\server\util.h
;	COMDAT ?Destroy@?$CEntityFactory@VCAmbientGeneric@@@@UAEXPAVCBaseEntity@@@Z
_TEXT	SEGMENT
_this$ = -4						; size = 4
_pEntity$ = 8						; size = 4
?Destroy@?$CEntityFactory@VCAmbientGeneric@@@@UAEXPAVCBaseEntity@@@Z PROC ; CEntityFactory<CAmbientGeneric>::Destroy, COMDAT
; _this$ = ecx

; 98   : 	{

	push	ebp
	mov	ebp, esp
	sub	esp, 68					; 00000044H
	push	ebx
	push	esi
	push	edi
	mov	DWORD PTR _this$[ebp], ecx

; 99   : 		UTIL_Remove( pEntity );

	mov	eax, DWORD PTR _pEntity$[ebp]
	push	eax
	call	?UTIL_Remove@@YAXPAVCBaseEntity@@@Z	; UTIL_Remove
	add	esp, 4

; 100  : 	}

	pop	edi
	pop	esi
	pop	ebx
	mov	esp, ebp
	pop	ebp
	ret	4
?Destroy@?$CEntityFactory@VCAmbientGeneric@@@@UAEXPAVCBaseEntity@@@Z ENDP ; CEntityFactory<CAmbientGeneric>::Destroy
_TEXT	ENDS
; Function compile flags: /Odtp /ZI
; File d:\!diffusion 2020\source code 2022\client-server\server\util.h
;	COMDAT ?Create@?$CEntityFactory@VCAmbientGeneric@@@@UAEPAVCBaseEntity@@PBDPAUentvars_s@@@Z
_TEXT	SEGMENT
_pEnt$ = -8						; size = 4
_this$ = -4						; size = 4
_pClassName$ = 8					; size = 4
_pev$ = 12						; size = 4
?Create@?$CEntityFactory@VCAmbientGeneric@@@@UAEPAVCBaseEntity@@PBDPAUentvars_s@@@Z PROC ; CEntityFactory<CAmbientGeneric>::Create, COMDAT
; _this$ = ecx

; 92   : 	{

	push	ebp
	mov	ebp, esp
	sub	esp, 72					; 00000048H
	push	ebx
	push	esi
	push	edi
	mov	DWORD PTR _this$[ebp], ecx

; 93   : 		T* pEnt = GetClassPtr((T*)pev, pClassName);

	mov	eax, DWORD PTR _pClassName$[ebp]
	push	eax
	mov	ecx, DWORD PTR _pev$[ebp]
	push	ecx
	call	??$GetClassPtr@VCAmbientGeneric@@@@YAPAVCAmbientGeneric@@PAV0@PBD@Z ; GetClassPtr<CAmbientGeneric>
	add	esp, 8
	mov	DWORD PTR _pEnt$[ebp], eax

; 94   : 		return pEnt;

	mov	eax, DWORD PTR _pEnt$[ebp]

; 95   : 	}

	pop	edi
	pop	esi
	pop	ebx
	mov	esp, ebp
	pop	ebp
	ret	8
?Create@?$CEntityFactory@VCAmbientGeneric@@@@UAEPAVCBaseEntity@@PBDPAUentvars_s@@@Z ENDP ; CEntityFactory<CAmbientGeneric>::Create
_TEXT	ENDS
; Function compile flags: /Odtp /ZI
; File d:\!diffusion 2020\source code 2022\client-server\server\util.h
;	COMDAT ??0?$CEntityFactory@VCAmbientGeneric@@@@QAE@PBD@Z
_TEXT	SEGMENT
tv76 = -72						; size = 4
_this$ = -4						; size = 4
_pClassName$ = 8					; size = 4
??0?$CEntityFactory@VCAmbientGeneric@@@@QAE@PBD@Z PROC	; CEntityFactory<CAmbientGeneric>::CEntityFactory<CAmbientGeneric>, COMDAT
; _this$ = ecx

; 86   : 	CEntityFactory( const char *pClassName )

	push	ebp
	mov	ebp, esp
	sub	esp, 72					; 00000048H
	push	ebx
	push	esi
	push	edi
	mov	DWORD PTR _this$[ebp], ecx

; 87   : 	{

	mov	ecx, DWORD PTR _this$[ebp]
	call	??0IEntityFactory@@QAE@XZ
	mov	eax, DWORD PTR _this$[ebp]
	mov	DWORD PTR [eax], OFFSET ??_7?$CEntityFactory@VCAmbientGeneric@@@@6B@

; 88   : 		EntityFactoryDictionary()->InstallFactory( this, pClassName );

	call	?EntityFactoryDictionary@@YAPAVIEntityFactoryDictionary@@XZ ; EntityFactoryDictionary
	mov	DWORD PTR tv76[ebp], eax
	mov	eax, DWORD PTR _pClassName$[ebp]
	push	eax
	mov	ecx, DWORD PTR _this$[ebp]
	push	ecx
	mov	edx, DWORD PTR tv76[ebp]
	mov	eax, DWORD PTR [edx]
	mov	ecx, DWORD PTR tv76[ebp]
	mov	edx, DWORD PTR [eax]
	call	edx

; 89   : 	}

	mov	eax, DWORD PTR _this$[ebp]
	pop	edi
	pop	esi
	pop	ebx
	mov	esp, ebp
	pop	ebp
	ret	4
??0?$CEntityFactory@VCAmbientGeneric@@@@QAE@PBD@Z ENDP	; CEntityFactory<CAmbientGeneric>::CEntityFactory<CAmbientGeneric>
_TEXT	ENDS
; Function compile flags: /Odtp /ZI
;	COMDAT ??0CAmbientGeneric@@QAE@XZ
_TEXT	SEGMENT
_this$ = -4						; size = 4
??0CAmbientGeneric@@QAE@XZ PROC				; CAmbientGeneric::CAmbientGeneric, COMDAT
; _this$ = ecx
	push	ebp
	mov	ebp, esp
	sub	esp, 68					; 00000044H
	push	ebx
	push	esi
	push	edi
	mov	DWORD PTR _this$[ebp], ecx
	mov	ecx, DWORD PTR _this$[ebp]
	call	??0CBaseEntity@@QAE@XZ
	mov	eax, DWORD PTR _this$[ebp]
	mov	DWORD PTR [eax], OFFSET ??_7CAmbientGeneric@@6B@
	mov	eax, DWORD PTR _this$[ebp]
	pop	edi
	pop	esi
	pop	ebx
	mov	esp, ebp
	pop	ebp
	ret	0
??0CAmbientGeneric@@QAE@XZ ENDP				; CAmbientGeneric::CAmbientGeneric
_TEXT	ENDS
; Function compile flags: /Odtp /ZI
; File d:\!diffusion 2020\source code 2022\client-server\server\sound.cpp
;	COMDAT ?ObjectCaps@CAmbientGeneric@@UAEHXZ
_TEXT	SEGMENT
_this$ = -4						; size = 4
?ObjectCaps@CAmbientGeneric@@UAEHXZ PROC		; CAmbientGeneric::ObjectCaps, COMDAT
; _this$ = ecx

; 133  : 	virtual int ObjectCaps( void ) { return (BaseClass :: ObjectCaps() & ~FCAP_ACROSS_TRANSITION); }

	push	ebp
	mov	ebp, esp
	sub	esp, 68					; 00000044H
	push	ebx
	push	esi
	push	edi
	mov	DWORD PTR _this$[ebp], ecx
	mov	ecx, DWORD PTR _this$[ebp]
	call	?ObjectCaps@CBaseEntity@@UAEHXZ		; CBaseEntity::ObjectCaps
	and	eax, -3					; fffffffdH
	pop	edi
	pop	esi
	pop	ebx
	mov	esp, ebp
	pop	ebp
	ret	0
?ObjectCaps@CAmbientGeneric@@UAEHXZ ENDP		; CAmbientGeneric::ObjectCaps
_TEXT	ENDS
; Function compile flags: /Odtp /ZI
; File d:\!diffusion 2020\source code 2022\client-server\server\sound.cpp
;	COMDAT ?GetDataDescMap@CAmbientGeneric@@UAEPAUdatamap_s@@XZ
_TEXT	SEGMENT
_this$ = -4						; size = 4
?GetDataDescMap@CAmbientGeneric@@UAEPAUdatamap_s@@XZ PROC ; CAmbientGeneric::GetDataDescMap, COMDAT
; _this$ = ecx

; 147  : BEGIN_DATADESC( CAmbientGeneric )

	push	ebp
	mov	ebp, esp
	sub	esp, 68					; 00000044H
	push	ebx
	push	esi
	push	edi
	mov	DWORD PTR _this$[ebp], ecx
	mov	eax, OFFSET ?m_DataMap@CAmbientGeneric@@2Udatamap_s@@A ; CAmbientGeneric::m_DataMap
	pop	edi
	pop	esi
	pop	ebx
	mov	esp, ebp
	pop	ebp
	ret	0
?GetDataDescMap@CAmbientGeneric@@UAEPAUdatamap_s@@XZ ENDP ; CAmbientGeneric::GetDataDescMap
_TEXT	ENDS
; Function compile flags: /Odtp /ZI
; File d:\!diffusion 2020\source code 2022\client-server\server\sound.cpp
;	COMDAT ?GetBaseMap@CAmbientGeneric@@SAPAUdatamap_s@@XZ
_TEXT	SEGMENT
_pResult$ = -4						; size = 4
?GetBaseMap@CAmbientGeneric@@SAPAUdatamap_s@@XZ PROC	; CAmbientGeneric::GetBaseMap, COMDAT

; 147  : BEGIN_DATADESC( CAmbientGeneric )

	push	ebp
	mov	ebp, esp
	sub	esp, 68					; 00000044H
	push	ebx
	push	esi
	push	edi
	lea	eax, DWORD PTR _pResult$[ebp]
	push	eax
	push	0
	call	??$DataMapAccess@VCBaseEntity@@@@YAXPAVCBaseEntity@@PAPAUdatamap_s@@@Z ; DataMapAccess<CBaseEntity>
	add	esp, 8
	mov	eax, DWORD PTR _pResult$[ebp]
	pop	edi
	pop	esi
	pop	ebx
	mov	esp, ebp
	pop	ebp
	ret	0
?GetBaseMap@CAmbientGeneric@@SAPAUdatamap_s@@XZ ENDP	; CAmbientGeneric::GetBaseMap
_TEXT	ENDS
; Function compile flags: /Odtp /ZI
; File d:\!diffusion 2020\source code 2022\client-server\server\sound.cpp
;	COMDAT ?ClearEffects@CAmbientGeneric@@UAEXXZ
_TEXT	SEGMENT
_this$ = -4						; size = 4
?ClearEffects@CAmbientGeneric@@UAEXXZ PROC		; CAmbientGeneric::ClearEffects, COMDAT
; _this$ = ecx

; 284  : {

	push	ebp
	mov	ebp, esp
	sub	esp, 68					; 00000044H
	push	ebx
	push	esi
	push	edi
	mov	DWORD PTR _this$[ebp], ecx

; 285  : //	Use( this, this, USE_OFF, 0 );
; 286  : }

	pop	edi
	pop	esi
	pop	ebx
	mov	esp, ebp
	pop	ebp
	ret	0
?ClearEffects@CAmbientGeneric@@UAEXXZ ENDP		; CAmbientGeneric::ClearEffects
_TEXT	ENDS
; Function compile flags: /Odtp /ZI
; File d:\!diffusion 2020\source code 2022\client-server\server\sound.cpp
;	COMDAT ?ReInitialize@CAmbientGeneric@@QAEXXZ
_TEXT	SEGMENT
_szSoundFile$ = -8					; size = 4
_this$ = -4						; size = 4
?ReInitialize@CAmbientGeneric@@QAEXXZ PROC		; CAmbientGeneric::ReInitialize, COMDAT
; _this$ = ecx

; 265  : {

	push	ebp
	mov	ebp, esp
	sub	esp, 72					; 00000048H
	push	ebx
	push	esi
	push	edi
	mov	DWORD PTR _this$[ebp], ecx

; 266  : 	char *szSoundFile = (char *)STRING( pev->message );

	mov	eax, DWORD PTR _this$[ebp]
	mov	ecx, DWORD PTR [eax+4]
	mov	edx, DWORD PTR [ecx+468]
	push	edx
	call	DWORD PTR ?g_engfuncs@@3Uenginefuncs_s@@A+264
	add	esp, 4
	mov	DWORD PTR _szSoundFile$[ebp], eax

; 267  : 	UTIL_EmitAmbientSound( edict(), GetAbsOrigin(), szSoundFile, (m_dpv.vol * 0.01), m_flAttenuation, SND_SPAWNING, m_dpv.pitch );

	mov	eax, DWORD PTR _this$[ebp]
	mov	ecx, DWORD PTR [eax+1868]
	push	ecx
	push	256					; 00000100H
	mov	edx, DWORD PTR _this$[ebp]
	push	ecx
	movss	xmm0, DWORD PTR [edx+1804]
	movss	DWORD PTR [esp], xmm0
	mov	eax, DWORD PTR _this$[ebp]
	cvtsi2sd xmm0, DWORD PTR [eax+1884]
	mulsd	xmm0, QWORD PTR __real@3f847ae147ae147b
	cvtsd2ss xmm0, xmm0
	push	ecx
	movss	DWORD PTR [esp], xmm0
	mov	ecx, DWORD PTR _szSoundFile$[ebp]
	push	ecx
	mov	ecx, DWORD PTR _this$[ebp]
	call	?GetAbsOrigin@CBaseEntity@@QBEABVVector@@XZ ; CBaseEntity::GetAbsOrigin
	push	eax
	mov	ecx, DWORD PTR _this$[ebp]
	call	?edict@CBaseEntity@@QAEPAUedict_s@@XZ	; CBaseEntity::edict
	push	eax
	call	?UTIL_EmitAmbientSound@@YAXPAUedict_s@@ABVVector@@PBDMMHH@Z ; UTIL_EmitAmbientSound
	add	esp, 28					; 0000001cH

; 268  : 	SetThink( &CAmbientGeneric::RampThink );

	push	OFFSET ??_C@_0BM@DBCGHFMO@?$CGCAmbientGeneric?3?3RampThink?$AA@
	push	OFFSET ?RampThink@CAmbientGeneric@@QAEXXZ ; CAmbientGeneric::RampThink
	mov	ecx, DWORD PTR _this$[ebp]
	call	?ThinkSet@CBaseEntity@@QAEP81@AEXXZP81@AEXXZPAD@Z ; CBaseEntity::ThinkSet

; 269  : 	SetNextThink( 0 );

	push	ecx
	xorps	xmm0, xmm0
	movss	DWORD PTR [esp], xmm0
	mov	eax, DWORD PTR _this$[ebp]
	mov	edx, DWORD PTR [eax]
	mov	ecx, DWORD PTR _this$[ebp]
	mov	eax, DWORD PTR [edx+80]
	call	eax

; 270  : }

	pop	edi
	pop	esi
	pop	ebx
	mov	esp, ebp
	pop	ebp
	ret	0
?ReInitialize@CAmbientGeneric@@QAEXXZ ENDP		; CAmbientGeneric::ReInitialize
_TEXT	ENDS
; Function compile flags: /Odtp /ZI
; File d:\!diffusion 2020\source code 2022\client-server\server\sound.cpp
;	COMDAT ?InitModulationParms@CAmbientGeneric@@QAEXXZ
_TEXT	SEGMENT
_pitchinc$ = -8						; size = 4
_this$ = -4						; size = 4
?InitModulationParms@CAmbientGeneric@@QAEXXZ PROC	; CAmbientGeneric::InitModulationParms, COMDAT
; _this$ = ecx

; 501  : {

	push	ebp
	mov	ebp, esp
	sub	esp, 72					; 00000048H
	push	ebx
	push	esi
	push	edi
	mov	DWORD PTR _this$[ebp], ecx

; 502  : 	int pitchinc;
; 503  : 
; 504  : 	m_dpv.volrun = pev->health * 10;	// 0 - 100

	mov	eax, DWORD PTR _this$[ebp]
	mov	ecx, DWORD PTR [eax+4]
	movss	xmm0, DWORD PTR [ecx+352]
	mulss	xmm0, DWORD PTR __real@41200000
	cvttss2si edx, xmm0
	mov	eax, DWORD PTR _this$[ebp]
	mov	DWORD PTR [eax+1828], edx

; 505  : 	if (m_dpv.volrun > 100) m_dpv.volrun = 100;

	mov	eax, DWORD PTR _this$[ebp]
	cmp	DWORD PTR [eax+1828], 100		; 00000064H
	jle	SHORT $LN2@InitModula
	mov	eax, DWORD PTR _this$[ebp]
	mov	DWORD PTR [eax+1828], 100		; 00000064H
$LN2@InitModula:

; 506  : 	if (m_dpv.volrun < 0) m_dpv.volrun = 0;

	mov	eax, DWORD PTR _this$[ebp]
	cmp	DWORD PTR [eax+1828], 0
	jge	SHORT $LN3@InitModula
	mov	eax, DWORD PTR _this$[ebp]
	mov	DWORD PTR [eax+1828], 0
$LN3@InitModula:

; 507  : 
; 508  : 	// get presets
; 509  : 	if (m_dpv.preset != 0 && m_dpv.preset <= CDPVPRESETMAX)

	mov	eax, DWORD PTR _this$[ebp]
	cmp	DWORD PTR [eax+1808], 0
	je	$LN4@InitModula
	mov	eax, DWORD PTR _this$[ebp]
	cmp	DWORD PTR [eax+1808], 27		; 0000001bH
	jg	$LN4@InitModula

; 510  : 	{
; 511  : 		// load preset values
; 512  : 		m_dpv = rgdpvpreset[m_dpv.preset - 1];

	mov	eax, DWORD PTR _this$[ebp]
	mov	ecx, DWORD PTR [eax+1808]
	sub	ecx, 1
	imul	esi, ecx, 100
	add	esi, OFFSET ?rgdpvpreset@@3PAUdynpitchvol@@A ; rgdpvpreset
	mov	edi, DWORD PTR _this$[ebp]
	add	edi, 1808				; 00000710H
	mov	ecx, 25					; 00000019H
	rep movsd

; 513  : 
; 514  : 		// fixup preset values, just like
; 515  : 		// fixups in KeyValue routine.
; 516  : 		if (m_dpv.spindown > 0)

	mov	eax, DWORD PTR _this$[ebp]
	cmp	DWORD PTR [eax+1824], 0
	jle	SHORT $LN5@InitModula

; 517  : 			m_dpv.spindown = (101 - m_dpv.spindown) * 64;

	mov	eax, DWORD PTR _this$[ebp]
	mov	ecx, 101				; 00000065H
	sub	ecx, DWORD PTR [eax+1824]
	shl	ecx, 6
	mov	edx, DWORD PTR _this$[ebp]
	mov	DWORD PTR [edx+1824], ecx
$LN5@InitModula:

; 518  : 		if (m_dpv.spinup > 0)

	mov	eax, DWORD PTR _this$[ebp]
	cmp	DWORD PTR [eax+1820], 0
	jle	SHORT $LN6@InitModula

; 519  : 			m_dpv.spinup = (101 - m_dpv.spinup) * 64;

	mov	eax, DWORD PTR _this$[ebp]
	mov	ecx, 101				; 00000065H
	sub	ecx, DWORD PTR [eax+1820]
	shl	ecx, 6
	mov	edx, DWORD PTR _this$[ebp]
	mov	DWORD PTR [edx+1820], ecx
$LN6@InitModula:

; 520  : 
; 521  : 		m_dpv.volstart *= 10;

	mov	eax, DWORD PTR _this$[ebp]
	imul	ecx, DWORD PTR [eax+1832], 10
	mov	edx, DWORD PTR _this$[ebp]
	mov	DWORD PTR [edx+1832], ecx

; 522  : 		m_dpv.volrun *= 10;

	mov	eax, DWORD PTR _this$[ebp]
	imul	ecx, DWORD PTR [eax+1828], 10
	mov	edx, DWORD PTR _this$[ebp]
	mov	DWORD PTR [edx+1828], ecx

; 523  : 
; 524  : 		if (m_dpv.fadein > 0)

	mov	eax, DWORD PTR _this$[ebp]
	cmp	DWORD PTR [eax+1836], 0
	jle	SHORT $LN7@InitModula

; 525  : 			m_dpv.fadein = (101 - m_dpv.fadein) * 64;

	mov	eax, DWORD PTR _this$[ebp]
	mov	ecx, 101				; 00000065H
	sub	ecx, DWORD PTR [eax+1836]
	shl	ecx, 6
	mov	edx, DWORD PTR _this$[ebp]
	mov	DWORD PTR [edx+1836], ecx
$LN7@InitModula:

; 526  : 		if (m_dpv.fadeout > 0)

	mov	eax, DWORD PTR _this$[ebp]
	cmp	DWORD PTR [eax+1840], 0
	jle	SHORT $LN8@InitModula

; 527  : 			m_dpv.fadeout = (101 - m_dpv.fadeout) * 64;

	mov	eax, DWORD PTR _this$[ebp]
	mov	ecx, 101				; 00000065H
	sub	ecx, DWORD PTR [eax+1840]
	shl	ecx, 6
	mov	edx, DWORD PTR _this$[ebp]
	mov	DWORD PTR [edx+1840], ecx
$LN8@InitModula:

; 528  : 
; 529  : 		m_dpv.lforate *= 256;

	mov	eax, DWORD PTR _this$[ebp]
	mov	ecx, DWORD PTR [eax+1848]
	shl	ecx, 8
	mov	edx, DWORD PTR _this$[ebp]
	mov	DWORD PTR [edx+1848], ecx

; 530  : 
; 531  : 		m_dpv.fadeinsav = m_dpv.fadein;

	mov	eax, DWORD PTR _this$[ebp]
	mov	ecx, DWORD PTR _this$[ebp]
	mov	edx, DWORD PTR [ecx+1836]
	mov	DWORD PTR [eax+1888], edx

; 532  : 		m_dpv.fadeoutsav = m_dpv.fadeout;

	mov	eax, DWORD PTR _this$[ebp]
	mov	ecx, DWORD PTR _this$[ebp]
	mov	edx, DWORD PTR [ecx+1840]
	mov	DWORD PTR [eax+1892], edx

; 533  : 		m_dpv.spinupsav = m_dpv.spinup;

	mov	eax, DWORD PTR _this$[ebp]
	mov	ecx, DWORD PTR _this$[ebp]
	mov	edx, DWORD PTR [ecx+1820]
	mov	DWORD PTR [eax+1872], edx

; 534  : 		m_dpv.spindownsav = m_dpv.spindown;

	mov	eax, DWORD PTR _this$[ebp]
	mov	ecx, DWORD PTR _this$[ebp]
	mov	edx, DWORD PTR [ecx+1824]
	mov	DWORD PTR [eax+1876], edx
$LN4@InitModula:

; 535  : 	}
; 536  : 
; 537  : 	m_dpv.fadein = m_dpv.fadeinsav;

	mov	eax, DWORD PTR _this$[ebp]
	mov	ecx, DWORD PTR _this$[ebp]
	mov	edx, DWORD PTR [ecx+1888]
	mov	DWORD PTR [eax+1836], edx

; 538  : 	m_dpv.fadeout = 0; 

	mov	eax, DWORD PTR _this$[ebp]
	mov	DWORD PTR [eax+1840], 0

; 539  : 	
; 540  : 	if (m_dpv.fadein)

	mov	eax, DWORD PTR _this$[ebp]
	cmp	DWORD PTR [eax+1836], 0
	je	SHORT $LN9@InitModula

; 541  : 		m_dpv.vol = m_dpv.volstart;

	mov	eax, DWORD PTR _this$[ebp]
	mov	ecx, DWORD PTR _this$[ebp]
	mov	edx, DWORD PTR [ecx+1832]
	mov	DWORD PTR [eax+1884], edx

; 542  : 	else

	jmp	SHORT $LN10@InitModula
$LN9@InitModula:

; 543  : 		m_dpv.vol = m_dpv.volrun;

	mov	eax, DWORD PTR _this$[ebp]
	mov	ecx, DWORD PTR _this$[ebp]
	mov	edx, DWORD PTR [ecx+1828]
	mov	DWORD PTR [eax+1884], edx
$LN10@InitModula:

; 544  : 
; 545  : 	m_dpv.spinup = m_dpv.spinupsav;

	mov	eax, DWORD PTR _this$[ebp]
	mov	ecx, DWORD PTR _this$[ebp]
	mov	edx, DWORD PTR [ecx+1872]
	mov	DWORD PTR [eax+1820], edx

; 546  : 	m_dpv.spindown = 0; 

	mov	eax, DWORD PTR _this$[ebp]
	mov	DWORD PTR [eax+1824], 0

; 547  : 
; 548  : 	if (m_dpv.spinup)

	mov	eax, DWORD PTR _this$[ebp]
	cmp	DWORD PTR [eax+1820], 0
	je	SHORT $LN11@InitModula

; 549  : 		m_dpv.pitch = m_dpv.pitchstart;

	mov	eax, DWORD PTR _this$[ebp]
	mov	ecx, DWORD PTR _this$[ebp]
	mov	edx, DWORD PTR [ecx+1816]
	mov	DWORD PTR [eax+1868], edx

; 550  : 	else

	jmp	SHORT $LN12@InitModula
$LN11@InitModula:

; 551  : 		m_dpv.pitch = m_dpv.pitchrun;

	mov	eax, DWORD PTR _this$[ebp]
	mov	ecx, DWORD PTR _this$[ebp]
	mov	edx, DWORD PTR [ecx+1812]
	mov	DWORD PTR [eax+1868], edx
$LN12@InitModula:

; 552  : 
; 553  : 	if (m_dpv.pitch == 0)

	mov	eax, DWORD PTR _this$[ebp]
	cmp	DWORD PTR [eax+1868], 0
	jne	SHORT $LN13@InitModula

; 554  : 		m_dpv.pitch = PITCH_NORM;

	mov	eax, DWORD PTR _this$[ebp]
	mov	DWORD PTR [eax+1868], 100		; 00000064H
$LN13@InitModula:

; 555  : 
; 556  : 	m_dpv.pitchfrac = m_dpv.pitch << 8;

	mov	eax, DWORD PTR _this$[ebp]
	mov	ecx, DWORD PTR [eax+1868]
	shl	ecx, 8
	mov	edx, DWORD PTR _this$[ebp]
	mov	DWORD PTR [edx+1880], ecx

; 557  : 	m_dpv.volfrac = m_dpv.vol << 8;

	mov	eax, DWORD PTR _this$[ebp]
	mov	ecx, DWORD PTR [eax+1884]
	shl	ecx, 8
	mov	edx, DWORD PTR _this$[ebp]
	mov	DWORD PTR [edx+1896], ecx

; 558  : 
; 559  : 	m_dpv.lfofrac = 0;

	mov	eax, DWORD PTR _this$[ebp]
	mov	DWORD PTR [eax+1900], 0

; 560  : 	m_dpv.lforate = abs(m_dpv.lforate);

	mov	eax, DWORD PTR _this$[ebp]
	mov	ecx, DWORD PTR [eax+1848]
	push	ecx
	call	_abs
	add	esp, 4
	mov	edx, DWORD PTR _this$[ebp]
	mov	DWORD PTR [edx+1848], eax

; 561  : 
; 562  : 	m_dpv.cspincount = 1;

	mov	eax, DWORD PTR _this$[ebp]
	mov	DWORD PTR [eax+1864], 1

; 563  : 	
; 564  : 	if (m_dpv.cspinup) 

	mov	eax, DWORD PTR _this$[ebp]
	cmp	DWORD PTR [eax+1860], 0
	je	SHORT $LN15@InitModula

; 565  : 	{
; 566  : 		pitchinc = (255 - m_dpv.pitchstart) / m_dpv.cspinup;

	mov	eax, DWORD PTR _this$[ebp]
	mov	ecx, 255				; 000000ffH
	sub	ecx, DWORD PTR [eax+1816]
	mov	esi, DWORD PTR _this$[ebp]
	mov	eax, ecx
	cdq
	idiv	DWORD PTR [esi+1860]
	mov	DWORD PTR _pitchinc$[ebp], eax

; 567  : 
; 568  : 		m_dpv.pitchrun = m_dpv.pitchstart + pitchinc;

	mov	eax, DWORD PTR _this$[ebp]
	mov	ecx, DWORD PTR [eax+1816]
	add	ecx, DWORD PTR _pitchinc$[ebp]
	mov	edx, DWORD PTR _this$[ebp]
	mov	DWORD PTR [edx+1812], ecx

; 569  : 		if (m_dpv.pitchrun > 255) m_dpv.pitchrun = 255;

	mov	eax, DWORD PTR _this$[ebp]
	cmp	DWORD PTR [eax+1812], 255		; 000000ffH
	jle	SHORT $LN15@InitModula
	mov	eax, DWORD PTR _this$[ebp]
	mov	DWORD PTR [eax+1812], 255		; 000000ffH
$LN15@InitModula:

; 570  : 	}
; 571  : 
; 572  : 	if ((m_dpv.spinupsav || m_dpv.spindownsav || (m_dpv.lfotype && m_dpv.lfomodpitch))
; 573  : 		&& (m_dpv.pitch == PITCH_NORM))

	mov	eax, DWORD PTR _this$[ebp]
	cmp	DWORD PTR [eax+1872], 0
	jne	SHORT $LN17@InitModula
	mov	eax, DWORD PTR _this$[ebp]
	cmp	DWORD PTR [eax+1876], 0
	jne	SHORT $LN17@InitModula
	mov	eax, DWORD PTR _this$[ebp]
	cmp	DWORD PTR [eax+1844], 0
	je	SHORT $LN16@InitModula
	mov	eax, DWORD PTR _this$[ebp]
	cmp	DWORD PTR [eax+1852], 0
	je	SHORT $LN16@InitModula
$LN17@InitModula:
	mov	eax, DWORD PTR _this$[ebp]
	cmp	DWORD PTR [eax+1868], 100		; 00000064H
	jne	SHORT $LN16@InitModula

; 574  : 		m_dpv.pitch = PITCH_NORM + 1; // must never send 'no pitch' as first pitch

	mov	eax, DWORD PTR _this$[ebp]
	mov	DWORD PTR [eax+1868], 101		; 00000065H
$LN16@InitModula:

; 575  : 									  // if we intend to pitch shift later!
; 576  : }

	pop	edi
	pop	esi
	pop	ebx
	mov	esp, ebp
	pop	ebp
	ret	0
?InitModulationParms@CAmbientGeneric@@QAEXXZ ENDP	; CAmbientGeneric::InitModulationParms
_TEXT	ENDS
; Function compile flags: /Odtp /ZI
; File d:\!diffusion 2020\source code 2022\client-server\server\sound.cpp
;	COMDAT ?StartDynamicSound@CAmbientGeneric@@QAEXXZ
_TEXT	SEGMENT
_szSoundFile$ = -8					; size = 4
_this$ = -4						; size = 4
?StartDynamicSound@CAmbientGeneric@@QAEXXZ PROC		; CAmbientGeneric::StartDynamicSound, COMDAT
; _this$ = ecx

; 273  : {

	push	ebp
	mov	ebp, esp
	sub	esp, 72					; 00000048H
	push	ebx
	push	esi
	push	edi
	mov	DWORD PTR _this$[ebp], ecx

; 274  : 	char* szSoundFile = (char*) STRING(pev->message);

	mov	eax, DWORD PTR _this$[ebp]
	mov	ecx, DWORD PTR [eax+4]
	mov	edx, DWORD PTR [ecx+468]
	push	edx
	call	DWORD PTR ?g_engfuncs@@3Uenginefuncs_s@@A+264
	add	esp, 4
	mov	DWORD PTR _szSoundFile$[ebp], eax

; 275  : 
; 276  : 	if( m_fSpawning )

	mov	eax, DWORD PTR _this$[ebp]
	cmp	DWORD PTR [eax+1916], 0
	je	SHORT $LN2@StartDynam

; 277  : 		EMIT_SOUND_DYN( edict(), CHAN_ITEM, szSoundFile,	(m_dpv.vol * 0.01), m_flAttenuation, SND_SPAWNING, m_dpv.pitch);

	mov	eax, DWORD PTR _this$[ebp]
	mov	ecx, DWORD PTR [eax+1868]
	push	ecx
	push	256					; 00000100H
	mov	edx, DWORD PTR _this$[ebp]
	push	ecx
	movss	xmm0, DWORD PTR [edx+1804]
	movss	DWORD PTR [esp], xmm0
	mov	eax, DWORD PTR _this$[ebp]
	cvtsi2sd xmm0, DWORD PTR [eax+1884]
	mulsd	xmm0, QWORD PTR __real@3f847ae147ae147b
	cvtsd2ss xmm0, xmm0
	push	ecx
	movss	DWORD PTR [esp], xmm0
	mov	ecx, DWORD PTR _szSoundFile$[ebp]
	push	ecx
	push	3
	mov	ecx, DWORD PTR _this$[ebp]
	call	?edict@CBaseEntity@@QAEPAUedict_s@@XZ	; CBaseEntity::edict
	push	eax
	call	?EMIT_SOUND_DYN@@YAXPAUedict_s@@HPBDMMHH@Z ; EMIT_SOUND_DYN
	add	esp, 28					; 0000001cH
$LN2@StartDynam:

; 278  : 
; 279  : 	SetThink(&CAmbientGeneric::RampThink );

	push	OFFSET ??_C@_0BM@DBCGHFMO@?$CGCAmbientGeneric?3?3RampThink?$AA@
	push	OFFSET ?RampThink@CAmbientGeneric@@QAEXXZ ; CAmbientGeneric::RampThink
	mov	ecx, DWORD PTR _this$[ebp]
	call	?ThinkSet@CBaseEntity@@QAEP81@AEXXZP81@AEXXZPAD@Z ; CBaseEntity::ThinkSet

; 280  : 	SetNextThink( 0 );

	push	ecx
	xorps	xmm0, xmm0
	movss	DWORD PTR [esp], xmm0
	mov	eax, DWORD PTR _this$[ebp]
	mov	edx, DWORD PTR [eax]
	mov	ecx, DWORD PTR _this$[ebp]
	mov	eax, DWORD PTR [edx+80]
	call	eax

; 281  : }

	pop	edi
	pop	esi
	pop	ebx
	mov	esp, ebp
	pop	ebp
	ret	0
?StartDynamicSound@CAmbientGeneric@@QAEXXZ ENDP		; CAmbientGeneric::StartDynamicSound
_TEXT	ENDS
; Function compile flags: /Odtp /ZI
; File d:\!diffusion 2020\source code 2022\client-server\server\sound.cpp
;	COMDAT ?RampThink@CAmbientGeneric@@QAEXXZ
_TEXT	SEGMENT
tv399 = -100						; size = 4
tv382 = -100						; size = 4
tv352 = -100						; size = 4
tv308 = -100						; size = 4
tv214 = -100						; size = 4
_pos$1 = -32						; size = 4
_prev$ = -28						; size = 4
_fChanged$ = -24					; size = 4
_flags$ = -20						; size = 4
_vol$ = -16						; size = 4
_pitch$ = -12						; size = 4
_szSoundFile$ = -8					; size = 4
_this$ = -4						; size = 4
?RampThink@CAmbientGeneric@@QAEXXZ PROC			; CAmbientGeneric::RampThink, COMDAT
; _this$ = ecx

; 294  : {

	push	ebp
	mov	ebp, esp
	sub	esp, 100				; 00000064H
	push	ebx
	push	esi
	push	edi
	mov	DWORD PTR _this$[ebp], ecx

; 295  : 	char* szSoundFile = (char*) STRING(pev->message);

	mov	eax, DWORD PTR _this$[ebp]
	mov	ecx, DWORD PTR [eax+4]
	mov	edx, DWORD PTR [ecx+468]
	push	edx
	call	DWORD PTR ?g_engfuncs@@3Uenginefuncs_s@@A+264
	add	esp, 4
	mov	DWORD PTR _szSoundFile$[ebp], eax

; 296  : 	int pitch = m_dpv.pitch; 

	mov	eax, DWORD PTR _this$[ebp]
	mov	ecx, DWORD PTR [eax+1868]
	mov	DWORD PTR _pitch$[ebp], ecx

; 297  : 	int vol = m_dpv.vol;

	mov	eax, DWORD PTR _this$[ebp]
	mov	ecx, DWORD PTR [eax+1884]
	mov	DWORD PTR _vol$[ebp], ecx

; 298  : 	int flags = 0;

	mov	DWORD PTR _flags$[ebp], 0

; 299  : 	int fChanged = 0;		// FALSE if pitch and vol remain unchanged this round

	mov	DWORD PTR _fChanged$[ebp], 0

; 300  : 	int	prev;
; 301  : 	
; 302  : 	if (!m_dpv.spinup && !m_dpv.spindown && !m_dpv.fadein && !m_dpv.fadeout && !m_dpv.lfotype)

	mov	eax, DWORD PTR _this$[ebp]
	cmp	DWORD PTR [eax+1820], 0
	jne	SHORT $LN4@RampThink
	mov	eax, DWORD PTR _this$[ebp]
	cmp	DWORD PTR [eax+1824], 0
	jne	SHORT $LN4@RampThink
	mov	eax, DWORD PTR _this$[ebp]
	cmp	DWORD PTR [eax+1836], 0
	jne	SHORT $LN4@RampThink
	mov	eax, DWORD PTR _this$[ebp]
	cmp	DWORD PTR [eax+1840], 0
	jne	SHORT $LN4@RampThink
	mov	eax, DWORD PTR _this$[ebp]
	cmp	DWORD PTR [eax+1844], 0
	jne	SHORT $LN4@RampThink

; 303  : 		return;						// no ramps or lfo, stop thinking

	jmp	$LN1@RampThink
$LN4@RampThink:

; 304  : 
; 305  : 	// ==============
; 306  : 	// pitch envelope
; 307  : 	// ==============
; 308  : 	if (m_dpv.spinup || m_dpv.spindown)

	mov	eax, DWORD PTR _this$[ebp]
	cmp	DWORD PTR [eax+1820], 0
	jne	SHORT $LN6@RampThink
	mov	eax, DWORD PTR _this$[ebp]
	cmp	DWORD PTR [eax+1824], 0
	je	$LN5@RampThink
$LN6@RampThink:

; 309  : 	{
; 310  : 		prev = m_dpv.pitchfrac >> 8;

	mov	eax, DWORD PTR _this$[ebp]
	mov	ecx, DWORD PTR [eax+1880]
	sar	ecx, 8
	mov	DWORD PTR _prev$[ebp], ecx

; 311  : 
; 312  : 		if (m_dpv.spinup > 0)

	mov	eax, DWORD PTR _this$[ebp]
	cmp	DWORD PTR [eax+1820], 0
	jle	SHORT $LN7@RampThink

; 313  : 			m_dpv.pitchfrac += m_dpv.spinup;

	mov	eax, DWORD PTR _this$[ebp]
	mov	ecx, DWORD PTR [eax+1880]
	mov	edx, DWORD PTR _this$[ebp]
	add	ecx, DWORD PTR [edx+1820]
	mov	eax, DWORD PTR _this$[ebp]
	mov	DWORD PTR [eax+1880], ecx
	jmp	SHORT $LN9@RampThink
$LN7@RampThink:

; 314  : 		else if (m_dpv.spindown > 0)

	mov	eax, DWORD PTR _this$[ebp]
	cmp	DWORD PTR [eax+1824], 0
	jle	SHORT $LN9@RampThink

; 315  : 			m_dpv.pitchfrac -= m_dpv.spindown;

	mov	eax, DWORD PTR _this$[ebp]
	mov	ecx, DWORD PTR _this$[ebp]
	mov	edx, DWORD PTR [eax+1880]
	sub	edx, DWORD PTR [ecx+1824]
	mov	eax, DWORD PTR _this$[ebp]
	mov	DWORD PTR [eax+1880], edx
$LN9@RampThink:

; 316  : 
; 317  : 		pitch = m_dpv.pitchfrac >> 8;

	mov	eax, DWORD PTR _this$[ebp]
	mov	ecx, DWORD PTR [eax+1880]
	sar	ecx, 8
	mov	DWORD PTR _pitch$[ebp], ecx

; 318  : 		
; 319  : 		if (pitch > m_dpv.pitchrun)

	mov	eax, DWORD PTR _this$[ebp]
	mov	ecx, DWORD PTR _pitch$[ebp]
	cmp	ecx, DWORD PTR [eax+1812]
	jle	SHORT $LN10@RampThink

; 320  : 		{
; 321  : 			pitch = m_dpv.pitchrun;

	mov	eax, DWORD PTR _this$[ebp]
	mov	ecx, DWORD PTR [eax+1812]
	mov	DWORD PTR _pitch$[ebp], ecx

; 322  : 			m_dpv.spinup = 0;				// done with ramp up

	mov	eax, DWORD PTR _this$[ebp]
	mov	DWORD PTR [eax+1820], 0
$LN10@RampThink:

; 323  : 		}
; 324  : 
; 325  : 		if (pitch < m_dpv.pitchstart)

	mov	eax, DWORD PTR _this$[ebp]
	mov	ecx, DWORD PTR _pitch$[ebp]
	cmp	ecx, DWORD PTR [eax+1816]
	jge	$LN11@RampThink

; 326  : 		{
; 327  : 			pitch = m_dpv.pitchstart;

	mov	eax, DWORD PTR _this$[ebp]
	mov	ecx, DWORD PTR [eax+1816]
	mov	DWORD PTR _pitch$[ebp], ecx

; 328  : 			m_dpv.spindown = 0;				// done with ramp down

	mov	eax, DWORD PTR _this$[ebp]
	mov	DWORD PTR [eax+1824], 0

; 329  : 
; 330  : 			if( m_hParent != NULL )

	mov	ecx, DWORD PTR _this$[ebp]
	add	ecx, 160				; 000000a0H
	call	??BEHANDLE@@QAEHXZ			; EHANDLE::operator int
	test	eax, eax
	je	SHORT $LN12@RampThink

; 331  : 			{
; 332  : 				EMIT_SOUND_DYN( edict(), CHAN_ITEM, szSoundFile,	0, 0, SND_STOP, 0 );

	push	0
	push	32					; 00000020H
	push	ecx
	xorps	xmm0, xmm0
	movss	DWORD PTR [esp], xmm0
	push	ecx
	xorps	xmm0, xmm0
	movss	DWORD PTR [esp], xmm0
	mov	eax, DWORD PTR _szSoundFile$[ebp]
	push	eax
	push	3
	mov	ecx, DWORD PTR _this$[ebp]
	call	?edict@CBaseEntity@@QAEPAUedict_s@@XZ	; CBaseEntity::edict
	push	eax
	call	?EMIT_SOUND_DYN@@YAXPAUedict_s@@HPBDMMHH@Z ; EMIT_SOUND_DYN
	add	esp, 28					; 0000001cH

; 333  : 			}
; 334  : 			else

	jmp	SHORT $LN13@RampThink
$LN12@RampThink:

; 335  : 			{
; 336  : 				// shut sound off
; 337  : 				UTIL_EmitAmbientSound( edict(), GetAbsOrigin(), szSoundFile, 0, 0, SND_STOP, 0 );

	push	0
	push	32					; 00000020H
	push	ecx
	xorps	xmm0, xmm0
	movss	DWORD PTR [esp], xmm0
	push	ecx
	xorps	xmm0, xmm0
	movss	DWORD PTR [esp], xmm0
	mov	eax, DWORD PTR _szSoundFile$[ebp]
	push	eax
	mov	ecx, DWORD PTR _this$[ebp]
	call	?GetAbsOrigin@CBaseEntity@@QBEABVVector@@XZ ; CBaseEntity::GetAbsOrigin
	push	eax
	mov	ecx, DWORD PTR _this$[ebp]
	call	?edict@CBaseEntity@@QAEPAUedict_s@@XZ	; CBaseEntity::edict
	push	eax
	call	?UTIL_EmitAmbientSound@@YAXPAUedict_s@@ABVVector@@PBDMMHH@Z ; UTIL_EmitAmbientSound
	add	esp, 28					; 0000001cH
$LN13@RampThink:

; 338  : 			}
; 339  : 
; 340  : 			// return without setting nextthink
; 341  : 			return;

	jmp	$LN1@RampThink
$LN11@RampThink:

; 342  : 		}
; 343  : 
; 344  : 		if (pitch > 255) pitch = 255;

	cmp	DWORD PTR _pitch$[ebp], 255		; 000000ffH
	jle	SHORT $LN14@RampThink
	mov	DWORD PTR _pitch$[ebp], 255		; 000000ffH
$LN14@RampThink:

; 345  : 		if (pitch < 1) pitch = 1;

	cmp	DWORD PTR _pitch$[ebp], 1
	jge	SHORT $LN15@RampThink
	mov	DWORD PTR _pitch$[ebp], 1
$LN15@RampThink:

; 346  : 
; 347  : 		m_dpv.pitch = pitch;

	mov	eax, DWORD PTR _this$[ebp]
	mov	ecx, DWORD PTR _pitch$[ebp]
	mov	DWORD PTR [eax+1868], ecx

; 348  : 
; 349  : 		fChanged |= (prev != pitch);

	mov	eax, DWORD PTR _prev$[ebp]
	cmp	eax, DWORD PTR _pitch$[ebp]
	je	SHORT $LN49@RampThink
	mov	DWORD PTR tv214[ebp], 1
	jmp	SHORT $LN50@RampThink
$LN49@RampThink:
	mov	DWORD PTR tv214[ebp], 0
$LN50@RampThink:
	mov	ecx, DWORD PTR _fChanged$[ebp]
	or	ecx, DWORD PTR tv214[ebp]
	mov	DWORD PTR _fChanged$[ebp], ecx

; 350  : 		flags |= SND_CHANGE_PITCH;

	mov	eax, DWORD PTR _flags$[ebp]
	or	eax, 128				; 00000080H
	mov	DWORD PTR _flags$[ebp], eax
$LN5@RampThink:

; 351  : 	}
; 352  : 
; 353  : 	// ==================
; 354  : 	// amplitude envelope
; 355  : 	// ==================
; 356  : 	if (m_dpv.fadein || m_dpv.fadeout)

	mov	eax, DWORD PTR _this$[ebp]
	cmp	DWORD PTR [eax+1836], 0
	jne	SHORT $LN17@RampThink
	mov	eax, DWORD PTR _this$[ebp]
	cmp	DWORD PTR [eax+1840], 0
	je	$LN16@RampThink
$LN17@RampThink:

; 357  : 	{
; 358  : 		prev = m_dpv.volfrac >> 8;

	mov	eax, DWORD PTR _this$[ebp]
	mov	ecx, DWORD PTR [eax+1896]
	sar	ecx, 8
	mov	DWORD PTR _prev$[ebp], ecx

; 359  : 
; 360  : 		if (m_dpv.fadein > 0)

	mov	eax, DWORD PTR _this$[ebp]
	cmp	DWORD PTR [eax+1836], 0
	jle	SHORT $LN18@RampThink

; 361  : 			m_dpv.volfrac += m_dpv.fadein;

	mov	eax, DWORD PTR _this$[ebp]
	mov	ecx, DWORD PTR [eax+1896]
	mov	edx, DWORD PTR _this$[ebp]
	add	ecx, DWORD PTR [edx+1836]
	mov	eax, DWORD PTR _this$[ebp]
	mov	DWORD PTR [eax+1896], ecx
	jmp	SHORT $LN20@RampThink
$LN18@RampThink:

; 362  : 		else if (m_dpv.fadeout > 0)

	mov	eax, DWORD PTR _this$[ebp]
	cmp	DWORD PTR [eax+1840], 0
	jle	SHORT $LN20@RampThink

; 363  : 			m_dpv.volfrac -= m_dpv.fadeout;

	mov	eax, DWORD PTR _this$[ebp]
	mov	ecx, DWORD PTR _this$[ebp]
	mov	edx, DWORD PTR [eax+1896]
	sub	edx, DWORD PTR [ecx+1840]
	mov	eax, DWORD PTR _this$[ebp]
	mov	DWORD PTR [eax+1896], edx
$LN20@RampThink:

; 364  : 
; 365  : 		vol = m_dpv.volfrac >> 8;

	mov	eax, DWORD PTR _this$[ebp]
	mov	ecx, DWORD PTR [eax+1896]
	sar	ecx, 8
	mov	DWORD PTR _vol$[ebp], ecx

; 366  : 
; 367  : 		if (vol > m_dpv.volrun)

	mov	eax, DWORD PTR _this$[ebp]
	mov	ecx, DWORD PTR _vol$[ebp]
	cmp	ecx, DWORD PTR [eax+1828]
	jle	SHORT $LN21@RampThink

; 368  : 		{
; 369  : 			vol = m_dpv.volrun;

	mov	eax, DWORD PTR _this$[ebp]
	mov	ecx, DWORD PTR [eax+1828]
	mov	DWORD PTR _vol$[ebp], ecx

; 370  : 			m_dpv.fadein = 0;				// done with ramp up

	mov	eax, DWORD PTR _this$[ebp]
	mov	DWORD PTR [eax+1836], 0
$LN21@RampThink:

; 371  : 		}
; 372  : 
; 373  : 		if (vol < m_dpv.volstart)

	mov	eax, DWORD PTR _this$[ebp]
	mov	ecx, DWORD PTR _vol$[ebp]
	cmp	ecx, DWORD PTR [eax+1832]
	jge	$LN22@RampThink

; 374  : 		{
; 375  : 			vol = m_dpv.volstart;

	mov	eax, DWORD PTR _this$[ebp]
	mov	ecx, DWORD PTR [eax+1832]
	mov	DWORD PTR _vol$[ebp], ecx

; 376  : 			m_dpv.fadeout = 0;				// done with ramp down

	mov	eax, DWORD PTR _this$[ebp]
	mov	DWORD PTR [eax+1840], 0

; 377  : 
; 378  : 			if( m_hParent != NULL )

	mov	ecx, DWORD PTR _this$[ebp]
	add	ecx, 160				; 000000a0H
	call	??BEHANDLE@@QAEHXZ			; EHANDLE::operator int
	test	eax, eax
	je	SHORT $LN23@RampThink

; 379  : 				EMIT_SOUND_DYN( edict(), CHAN_ITEM, szSoundFile,	0, 0, SND_STOP, 0 );

	push	0
	push	32					; 00000020H
	push	ecx
	xorps	xmm0, xmm0
	movss	DWORD PTR [esp], xmm0
	push	ecx
	xorps	xmm0, xmm0
	movss	DWORD PTR [esp], xmm0
	mov	eax, DWORD PTR _szSoundFile$[ebp]
	push	eax
	push	3
	mov	ecx, DWORD PTR _this$[ebp]
	call	?edict@CBaseEntity@@QAEPAUedict_s@@XZ	; CBaseEntity::edict
	push	eax
	call	?EMIT_SOUND_DYN@@YAXPAUedict_s@@HPBDMMHH@Z ; EMIT_SOUND_DYN
	add	esp, 28					; 0000001cH

; 380  : 			else

	jmp	SHORT $LN24@RampThink
$LN23@RampThink:

; 381  : 				// shut sound off
; 382  : 				UTIL_EmitAmbientSound( edict(), GetAbsOrigin(), szSoundFile, 0, 0, SND_STOP, 0 );

	push	0
	push	32					; 00000020H
	push	ecx
	xorps	xmm0, xmm0
	movss	DWORD PTR [esp], xmm0
	push	ecx
	xorps	xmm0, xmm0
	movss	DWORD PTR [esp], xmm0
	mov	eax, DWORD PTR _szSoundFile$[ebp]
	push	eax
	mov	ecx, DWORD PTR _this$[ebp]
	call	?GetAbsOrigin@CBaseEntity@@QBEABVVector@@XZ ; CBaseEntity::GetAbsOrigin
	push	eax
	mov	ecx, DWORD PTR _this$[ebp]
	call	?edict@CBaseEntity@@QAEPAUedict_s@@XZ	; CBaseEntity::edict
	push	eax
	call	?UTIL_EmitAmbientSound@@YAXPAUedict_s@@ABVVector@@PBDMMHH@Z ; UTIL_EmitAmbientSound
	add	esp, 28					; 0000001cH
$LN24@RampThink:

; 383  : 
; 384  : 			// return without setting nextthink
; 385  : 			return;

	jmp	$LN1@RampThink
$LN22@RampThink:

; 386  : 		}
; 387  : 
; 388  : 		if (vol > 100) vol = 100;

	cmp	DWORD PTR _vol$[ebp], 100		; 00000064H
	jle	SHORT $LN25@RampThink
	mov	DWORD PTR _vol$[ebp], 100		; 00000064H
$LN25@RampThink:

; 389  : 		if (vol < 1) vol = 1;

	cmp	DWORD PTR _vol$[ebp], 1
	jge	SHORT $LN26@RampThink
	mov	DWORD PTR _vol$[ebp], 1
$LN26@RampThink:

; 390  : 
; 391  : 		m_dpv.vol = vol;

	mov	eax, DWORD PTR _this$[ebp]
	mov	ecx, DWORD PTR _vol$[ebp]
	mov	DWORD PTR [eax+1884], ecx

; 392  : 
; 393  : 		fChanged |= (prev != vol);

	mov	eax, DWORD PTR _prev$[ebp]
	cmp	eax, DWORD PTR _vol$[ebp]
	je	SHORT $LN51@RampThink
	mov	DWORD PTR tv308[ebp], 1
	jmp	SHORT $LN52@RampThink
$LN51@RampThink:
	mov	DWORD PTR tv308[ebp], 0
$LN52@RampThink:
	mov	ecx, DWORD PTR _fChanged$[ebp]
	or	ecx, DWORD PTR tv308[ebp]
	mov	DWORD PTR _fChanged$[ebp], ecx

; 394  : 		flags |= SND_CHANGE_VOL;

	mov	eax, DWORD PTR _flags$[ebp]
	or	eax, 64					; 00000040H
	mov	DWORD PTR _flags$[ebp], eax
$LN16@RampThink:

; 395  : 	}
; 396  : 
; 397  : 	// ===================
; 398  : 	// pitch/amplitude LFO
; 399  : 	// ===================
; 400  : 	if (m_dpv.lfotype)

	mov	eax, DWORD PTR _this$[ebp]
	cmp	DWORD PTR [eax+1844], 0
	je	$LN41@RampThink

; 401  : 	{
; 402  : 		int pos;
; 403  : 
; 404  : 		if (m_dpv.lfofrac > 0x6fffffff)

	mov	eax, DWORD PTR _this$[ebp]
	cmp	DWORD PTR [eax+1900], 1879048191	; 6fffffffH
	jle	SHORT $LN28@RampThink

; 405  : 			m_dpv.lfofrac = 0;

	mov	eax, DWORD PTR _this$[ebp]
	mov	DWORD PTR [eax+1900], 0
$LN28@RampThink:

; 406  : 
; 407  : 		// update lfo, lfofrac/255 makes a triangle wave 0-255
; 408  : 		m_dpv.lfofrac += m_dpv.lforate;

	mov	eax, DWORD PTR _this$[ebp]
	mov	ecx, DWORD PTR [eax+1900]
	mov	edx, DWORD PTR _this$[ebp]
	add	ecx, DWORD PTR [edx+1848]
	mov	eax, DWORD PTR _this$[ebp]
	mov	DWORD PTR [eax+1900], ecx

; 409  : 		pos = m_dpv.lfofrac >> 8;

	mov	eax, DWORD PTR _this$[ebp]
	mov	ecx, DWORD PTR [eax+1900]
	sar	ecx, 8
	mov	DWORD PTR _pos$1[ebp], ecx

; 410  : 
; 411  : 		if (m_dpv.lfofrac < 0)

	mov	eax, DWORD PTR _this$[ebp]
	cmp	DWORD PTR [eax+1900], 0
	jge	SHORT $LN29@RampThink

; 412  : 		{
; 413  : 			m_dpv.lfofrac = 0;

	mov	eax, DWORD PTR _this$[ebp]
	mov	DWORD PTR [eax+1900], 0

; 414  : 			m_dpv.lforate = abs(m_dpv.lforate);

	mov	eax, DWORD PTR _this$[ebp]
	mov	ecx, DWORD PTR [eax+1848]
	push	ecx
	call	_abs
	add	esp, 4
	mov	edx, DWORD PTR _this$[ebp]
	mov	DWORD PTR [edx+1848], eax

; 415  : 			pos = 0;

	mov	DWORD PTR _pos$1[ebp], 0
	jmp	SHORT $LN31@RampThink
$LN29@RampThink:

; 416  : 		}
; 417  : 		else if (pos > 255)

	cmp	DWORD PTR _pos$1[ebp], 255		; 000000ffH
	jle	SHORT $LN31@RampThink

; 418  : 		{
; 419  : 			pos = 255;

	mov	DWORD PTR _pos$1[ebp], 255		; 000000ffH

; 420  : 			m_dpv.lfofrac = (255 << 8);

	mov	eax, DWORD PTR _this$[ebp]
	mov	DWORD PTR [eax+1900], 65280		; 0000ff00H

; 421  : 			m_dpv.lforate = -abs(m_dpv.lforate);

	mov	eax, DWORD PTR _this$[ebp]
	mov	ecx, DWORD PTR [eax+1848]
	push	ecx
	call	_abs
	add	esp, 4
	neg	eax
	mov	edx, DWORD PTR _this$[ebp]
	mov	DWORD PTR [edx+1848], eax
$LN31@RampThink:

; 422  : 		}
; 423  : 
; 424  : 		switch(m_dpv.lfotype)

	mov	eax, DWORD PTR _this$[ebp]
	mov	ecx, DWORD PTR [eax+1844]
	mov	DWORD PTR tv352[ebp], ecx
	cmp	DWORD PTR tv352[ebp], 1
	je	SHORT $LN32@RampThink
	cmp	DWORD PTR tv352[ebp], 3
	je	SHORT $LN35@RampThink
	jmp	SHORT $LN37@RampThink
$LN32@RampThink:

; 425  : 		{
; 426  : 		case LFO_SQUARE:
; 427  : 			if (pos < 128)

	cmp	DWORD PTR _pos$1[ebp], 128		; 00000080H
	jge	SHORT $LN33@RampThink

; 428  : 				m_dpv.lfomult = 255;

	mov	eax, DWORD PTR _this$[ebp]
	mov	DWORD PTR [eax+1904], 255		; 000000ffH

; 429  : 			else

	jmp	SHORT $LN34@RampThink
$LN33@RampThink:

; 430  : 				m_dpv.lfomult = 0;

	mov	eax, DWORD PTR _this$[ebp]
	mov	DWORD PTR [eax+1904], 0
$LN34@RampThink:

; 431  : 			
; 432  : 			break;

	jmp	SHORT $LN2@RampThink
$LN35@RampThink:

; 433  : 		case LFO_RANDOM:
; 434  : 			if (pos == 255)

	cmp	DWORD PTR _pos$1[ebp], 255		; 000000ffH
	jne	SHORT $LN36@RampThink

; 435  : 				m_dpv.lfomult = RANDOM_LONG(0, 255);

	push	255					; 000000ffH
	push	0
	call	DWORD PTR ?g_engfuncs@@3Uenginefuncs_s@@A+360
	add	esp, 8
	mov	ecx, DWORD PTR _this$[ebp]
	mov	DWORD PTR [ecx+1904], eax
$LN36@RampThink:

; 436  : 			break;

	jmp	SHORT $LN2@RampThink
$LN37@RampThink:

; 437  : 		case LFO_TRIANGLE:
; 438  : 		default: 
; 439  : 			m_dpv.lfomult = pos;

	mov	eax, DWORD PTR _this$[ebp]
	mov	ecx, DWORD PTR _pos$1[ebp]
	mov	DWORD PTR [eax+1904], ecx
$LN2@RampThink:

; 440  : 			break;
; 441  : 		}
; 442  : 
; 443  : 		if (m_dpv.lfomodpitch)

	mov	eax, DWORD PTR _this$[ebp]
	cmp	DWORD PTR [eax+1852], 0
	je	SHORT $LN38@RampThink

; 444  : 		{
; 445  : 			prev = pitch;

	mov	eax, DWORD PTR _pitch$[ebp]
	mov	DWORD PTR _prev$[ebp], eax

; 446  : 
; 447  : 			// pitch 0-255
; 448  : 			pitch += ((m_dpv.lfomult - 128) * m_dpv.lfomodpitch) / 100;

	mov	eax, DWORD PTR _this$[ebp]
	mov	eax, DWORD PTR [eax+1904]
	sub	eax, 128				; 00000080H
	mov	ecx, DWORD PTR _this$[ebp]
	imul	eax, DWORD PTR [ecx+1852]
	cdq
	mov	ecx, 100				; 00000064H
	idiv	ecx
	add	eax, DWORD PTR _pitch$[ebp]
	mov	DWORD PTR _pitch$[ebp], eax

; 449  : 
; 450  : 			if (pitch > 255) pitch = 255;

	cmp	DWORD PTR _pitch$[ebp], 255		; 000000ffH
	jle	SHORT $LN39@RampThink
	mov	DWORD PTR _pitch$[ebp], 255		; 000000ffH
$LN39@RampThink:

; 451  : 			if (pitch < 1) pitch = 1;

	cmp	DWORD PTR _pitch$[ebp], 1
	jge	SHORT $LN40@RampThink
	mov	DWORD PTR _pitch$[ebp], 1
$LN40@RampThink:

; 452  : 
; 453  : 			
; 454  : 			fChanged |= (prev != pitch);

	mov	eax, DWORD PTR _prev$[ebp]
	cmp	eax, DWORD PTR _pitch$[ebp]
	je	SHORT $LN53@RampThink
	mov	DWORD PTR tv382[ebp], 1
	jmp	SHORT $LN54@RampThink
$LN53@RampThink:
	mov	DWORD PTR tv382[ebp], 0
$LN54@RampThink:
	mov	ecx, DWORD PTR _fChanged$[ebp]
	or	ecx, DWORD PTR tv382[ebp]
	mov	DWORD PTR _fChanged$[ebp], ecx

; 455  : 			flags |= SND_CHANGE_PITCH;

	mov	eax, DWORD PTR _flags$[ebp]
	or	eax, 128				; 00000080H
	mov	DWORD PTR _flags$[ebp], eax
$LN38@RampThink:

; 456  : 		}
; 457  : 
; 458  : 		if (m_dpv.lfomodvol)

	mov	eax, DWORD PTR _this$[ebp]
	cmp	DWORD PTR [eax+1856], 0
	je	SHORT $LN41@RampThink

; 459  : 		{
; 460  : 			// vol 0-100
; 461  : 			prev = vol;

	mov	eax, DWORD PTR _vol$[ebp]
	mov	DWORD PTR _prev$[ebp], eax

; 462  : 
; 463  : 			vol += ((m_dpv.lfomult - 128) * m_dpv.lfomodvol) / 100;

	mov	eax, DWORD PTR _this$[ebp]
	mov	eax, DWORD PTR [eax+1904]
	sub	eax, 128				; 00000080H
	mov	ecx, DWORD PTR _this$[ebp]
	imul	eax, DWORD PTR [ecx+1856]
	cdq
	mov	ecx, 100				; 00000064H
	idiv	ecx
	add	eax, DWORD PTR _vol$[ebp]
	mov	DWORD PTR _vol$[ebp], eax

; 464  : 
; 465  : 			if (vol > 100) vol = 100;

	cmp	DWORD PTR _vol$[ebp], 100		; 00000064H
	jle	SHORT $LN42@RampThink
	mov	DWORD PTR _vol$[ebp], 100		; 00000064H
$LN42@RampThink:

; 466  : 			if (vol < 0) vol = 0;

	cmp	DWORD PTR _vol$[ebp], 0
	jge	SHORT $LN43@RampThink
	mov	DWORD PTR _vol$[ebp], 0
$LN43@RampThink:

; 467  : 			
; 468  : 			fChanged |= (prev != vol);

	mov	eax, DWORD PTR _prev$[ebp]
	cmp	eax, DWORD PTR _vol$[ebp]
	je	SHORT $LN55@RampThink
	mov	DWORD PTR tv399[ebp], 1
	jmp	SHORT $LN56@RampThink
$LN55@RampThink:
	mov	DWORD PTR tv399[ebp], 0
$LN56@RampThink:
	mov	ecx, DWORD PTR _fChanged$[ebp]
	or	ecx, DWORD PTR tv399[ebp]
	mov	DWORD PTR _fChanged$[ebp], ecx

; 469  : 			flags |= SND_CHANGE_VOL;

	mov	eax, DWORD PTR _flags$[ebp]
	or	eax, 64					; 00000040H
	mov	DWORD PTR _flags$[ebp], eax
$LN41@RampThink:

; 470  : 		}
; 471  : 
; 472  : 	}
; 473  : 
; 474  : 	// Send update to playing sound only if we actually changed
; 475  : 	// pitch or volume in this routine.
; 476  : 
; 477  : 	if (flags && fChanged) 

	cmp	DWORD PTR _flags$[ebp], 0
	je	$LN47@RampThink
	cmp	DWORD PTR _fChanged$[ebp], 0
	je	$LN47@RampThink

; 478  : 	{
; 479  : 		if (pitch == PITCH_NORM)

	cmp	DWORD PTR _pitch$[ebp], 100		; 00000064H
	jne	SHORT $LN45@RampThink

; 480  : 			pitch = PITCH_NORM + 1; // don't send 'no pitch' !

	mov	DWORD PTR _pitch$[ebp], 101		; 00000065H
$LN45@RampThink:

; 481  : 
; 482  : 		if( m_hParent != NULL )

	mov	ecx, DWORD PTR _this$[ebp]
	add	ecx, 160				; 000000a0H
	call	??BEHANDLE@@QAEHXZ			; EHANDLE::operator int
	test	eax, eax
	je	SHORT $LN46@RampThink

; 483  : 		{
; 484  : 			EMIT_SOUND_DYN( edict(), CHAN_ITEM, szSoundFile,	(vol * 0.01), m_flAttenuation, flags, pitch );

	mov	eax, DWORD PTR _pitch$[ebp]
	push	eax
	mov	ecx, DWORD PTR _flags$[ebp]
	push	ecx
	mov	edx, DWORD PTR _this$[ebp]
	push	ecx
	movss	xmm0, DWORD PTR [edx+1804]
	movss	DWORD PTR [esp], xmm0
	cvtsi2sd xmm0, DWORD PTR _vol$[ebp]
	mulsd	xmm0, QWORD PTR __real@3f847ae147ae147b
	cvtsd2ss xmm0, xmm0
	push	ecx
	movss	DWORD PTR [esp], xmm0
	mov	eax, DWORD PTR _szSoundFile$[ebp]
	push	eax
	push	3
	mov	ecx, DWORD PTR _this$[ebp]
	call	?edict@CBaseEntity@@QAEPAUedict_s@@XZ	; CBaseEntity::edict
	push	eax
	call	?EMIT_SOUND_DYN@@YAXPAUedict_s@@HPBDMMHH@Z ; EMIT_SOUND_DYN
	add	esp, 28					; 0000001cH

; 485  : 		}
; 486  : 		else

	jmp	SHORT $LN47@RampThink
$LN46@RampThink:

; 487  : 		{
; 488  : 			UTIL_EmitAmbientSound( edict(), GetAbsOrigin(), szSoundFile, (vol * 0.01), m_flAttenuation, flags, pitch );

	mov	eax, DWORD PTR _pitch$[ebp]
	push	eax
	mov	ecx, DWORD PTR _flags$[ebp]
	push	ecx
	mov	edx, DWORD PTR _this$[ebp]
	push	ecx
	movss	xmm0, DWORD PTR [edx+1804]
	movss	DWORD PTR [esp], xmm0
	cvtsi2sd xmm0, DWORD PTR _vol$[ebp]
	mulsd	xmm0, QWORD PTR __real@3f847ae147ae147b
	cvtsd2ss xmm0, xmm0
	push	ecx
	movss	DWORD PTR [esp], xmm0
	mov	eax, DWORD PTR _szSoundFile$[ebp]
	push	eax
	mov	ecx, DWORD PTR _this$[ebp]
	call	?GetAbsOrigin@CBaseEntity@@QBEABVVector@@XZ ; CBaseEntity::GetAbsOrigin
	push	eax
	mov	ecx, DWORD PTR _this$[ebp]
	call	?edict@CBaseEntity@@QAEPAUedict_s@@XZ	; CBaseEntity::edict
	push	eax
	call	?UTIL_EmitAmbientSound@@YAXPAUedict_s@@ABVVector@@PBDMMHH@Z ; UTIL_EmitAmbientSound
	add	esp, 28					; 0000001cH
$LN47@RampThink:

; 489  : 		}
; 490  : 	}
; 491  : 
; 492  : 	// update ramps at 5hz
; 493  : 	SetNextThink(0.2);

	push	ecx
	movss	xmm0, DWORD PTR __real@3e4ccccd
	movss	DWORD PTR [esp], xmm0
	mov	eax, DWORD PTR _this$[ebp]
	mov	edx, DWORD PTR [eax]
	mov	ecx, DWORD PTR _this$[ebp]
	mov	eax, DWORD PTR [edx+80]
	call	eax
$LN1@RampThink:

; 494  : 	return;
; 495  : }

	pop	edi
	pop	esi
	pop	ebx
	mov	esp, ebp
	pop	ebp
	ret	0
?RampThink@CAmbientGeneric@@QAEXXZ ENDP			; CAmbientGeneric::RampThink
_TEXT	ENDS
; Function compile flags: /Odtp /ZI
; File d:\!diffusion 2020\source code 2022\client-server\server\sound.cpp
;	COMDAT ?ToggleUse@CAmbientGeneric@@QAEXPAVCBaseEntity@@0W4USE_TYPE@@M@Z
_TEXT	SEGMENT
_pitchinc$1 = -16					; size = 4
_fraction$ = -12					; size = 4
_szSoundFile$ = -8					; size = 4
_this$ = -4						; size = 4
_pActivator$ = 8					; size = 4
_pCaller$ = 12						; size = 4
_useType$ = 16						; size = 4
_value$ = 20						; size = 4
?ToggleUse@CAmbientGeneric@@QAEXPAVCBaseEntity@@0W4USE_TYPE@@M@Z PROC ; CAmbientGeneric::ToggleUse, COMDAT
; _this$ = ecx

; 585  : {

	push	ebp
	mov	ebp, esp
	sub	esp, 80					; 00000050H
	push	ebx
	push	esi
	push	edi
	mov	DWORD PTR _this$[ebp], ecx

; 586  : 	char* szSoundFile = (char*) STRING(pev->message);

	mov	eax, DWORD PTR _this$[ebp]
	mov	ecx, DWORD PTR [eax+4]
	mov	edx, DWORD PTR [ecx+468]
	push	edx
	call	DWORD PTR ?g_engfuncs@@3Uenginefuncs_s@@A+264
	add	esp, 4
	mov	DWORD PTR _szSoundFile$[ebp], eax

; 587  : 	float fraction;
; 588  : 
; 589  : 	if ( useType != USE_TOGGLE )

	cmp	DWORD PTR _useType$[ebp], 3
	je	SHORT $LN3@ToggleUse

; 590  : 	{
; 591  : 		if ( (m_fActive && useType == USE_ON) || (!m_fActive && useType == USE_OFF) )

	mov	eax, DWORD PTR _this$[ebp]
	cmp	DWORD PTR [eax+1908], 0
	je	SHORT $LN5@ToggleUse
	cmp	DWORD PTR _useType$[ebp], 1
	je	SHORT $LN4@ToggleUse
$LN5@ToggleUse:
	mov	eax, DWORD PTR _this$[ebp]
	cmp	DWORD PTR [eax+1908], 0
	jne	SHORT $LN3@ToggleUse
	cmp	DWORD PTR _useType$[ebp], 0
	jne	SHORT $LN3@ToggleUse
$LN4@ToggleUse:

; 592  : 			return;

	jmp	$LN1@ToggleUse
$LN3@ToggleUse:

; 593  : 	}
; 594  : 	// Directly change pitch if arg passed. Only works if sound is already playing.
; 595  : 
; 596  : 	if (useType == USE_SET && m_fActive)		// Momentary buttons will pass down a float in here

	cmp	DWORD PTR _useType$[ebp], 2
	jne	$LN6@ToggleUse
	mov	eax, DWORD PTR _this$[ebp]
	cmp	DWORD PTR [eax+1908], 0
	je	$LN6@ToggleUse

; 597  : 	{
; 598  : 
; 599  : 		fraction = value;

	movss	xmm0, DWORD PTR _value$[ebp]
	movss	DWORD PTR _fraction$[ebp], xmm0

; 600  : 		
; 601  : 		if ( fraction > 1.0 )

	cvtss2sd xmm0, DWORD PTR _fraction$[ebp]
	comisd	xmm0, QWORD PTR __real@3ff0000000000000
	jbe	SHORT $LN7@ToggleUse

; 602  : 			fraction = 1.0;

	movss	xmm0, DWORD PTR __real@3f800000
	movss	DWORD PTR _fraction$[ebp], xmm0
$LN7@ToggleUse:

; 603  : 		if (fraction < 0.0)

	cvtss2sd xmm0, DWORD PTR _fraction$[ebp]
	xorps	xmm1, xmm1
	comisd	xmm1, xmm0
	jbe	SHORT $LN8@ToggleUse

; 604  : 			fraction = 0.01;

	movss	xmm0, DWORD PTR __real@3c23d70a
	movss	DWORD PTR _fraction$[ebp], xmm0
$LN8@ToggleUse:

; 605  : 
; 606  : 		m_dpv.pitch = fraction * 255;

	movss	xmm0, DWORD PTR _fraction$[ebp]
	mulss	xmm0, DWORD PTR __real@437f0000
	cvttss2si eax, xmm0
	mov	ecx, DWORD PTR _this$[ebp]
	mov	DWORD PTR [ecx+1868], eax

; 607  : 
; 608  : 		if( m_hParent != NULL )

	mov	ecx, DWORD PTR _this$[ebp]
	add	ecx, 160				; 000000a0H
	call	??BEHANDLE@@QAEHXZ			; EHANDLE::operator int
	test	eax, eax
	je	SHORT $LN9@ToggleUse

; 609  : 			EMIT_SOUND_DYN( edict(), CHAN_ITEM, szSoundFile, 0, 0, SND_CHANGE_PITCH, m_dpv.pitch );

	mov	eax, DWORD PTR _this$[ebp]
	mov	ecx, DWORD PTR [eax+1868]
	push	ecx
	push	128					; 00000080H
	push	ecx
	xorps	xmm0, xmm0
	movss	DWORD PTR [esp], xmm0
	push	ecx
	xorps	xmm0, xmm0
	movss	DWORD PTR [esp], xmm0
	mov	edx, DWORD PTR _szSoundFile$[ebp]
	push	edx
	push	3
	mov	ecx, DWORD PTR _this$[ebp]
	call	?edict@CBaseEntity@@QAEPAUedict_s@@XZ	; CBaseEntity::edict
	push	eax
	call	?EMIT_SOUND_DYN@@YAXPAUedict_s@@HPBDMMHH@Z ; EMIT_SOUND_DYN
	add	esp, 28					; 0000001cH

; 610  : 		else

	jmp	SHORT $LN10@ToggleUse
$LN9@ToggleUse:

; 611  : 			UTIL_EmitAmbientSound( edict(), GetAbsOrigin(), szSoundFile, 0, 0, SND_CHANGE_PITCH, m_dpv.pitch );

	mov	eax, DWORD PTR _this$[ebp]
	mov	ecx, DWORD PTR [eax+1868]
	push	ecx
	push	128					; 00000080H
	push	ecx
	xorps	xmm0, xmm0
	movss	DWORD PTR [esp], xmm0
	push	ecx
	xorps	xmm0, xmm0
	movss	DWORD PTR [esp], xmm0
	mov	edx, DWORD PTR _szSoundFile$[ebp]
	push	edx
	mov	ecx, DWORD PTR _this$[ebp]
	call	?GetAbsOrigin@CBaseEntity@@QBEABVVector@@XZ ; CBaseEntity::GetAbsOrigin
	push	eax
	mov	ecx, DWORD PTR _this$[ebp]
	call	?edict@CBaseEntity@@QAEPAUedict_s@@XZ	; CBaseEntity::edict
	push	eax
	call	?UTIL_EmitAmbientSound@@YAXPAUedict_s@@ABVVector@@PBDMMHH@Z ; UTIL_EmitAmbientSound
	add	esp, 28					; 0000001cH
$LN10@ToggleUse:

; 612  : 
; 613  : 		return;

	jmp	$LN1@ToggleUse
$LN6@ToggleUse:

; 614  : 	}
; 615  : 
; 616  : 	// Toggle
; 617  : 
; 618  : 	// m_fActive is TRUE only if a looping sound is playing.
; 619  : 
; 620  : 	SetThink( &CAmbientGeneric::RampThink );

	push	OFFSET ??_C@_0BM@DBCGHFMO@?$CGCAmbientGeneric?3?3RampThink?$AA@
	push	OFFSET ?RampThink@CAmbientGeneric@@QAEXXZ ; CAmbientGeneric::RampThink
	mov	ecx, DWORD PTR _this$[ebp]
	call	?ThinkSet@CBaseEntity@@QAEP81@AEXXZP81@AEXXZPAD@Z ; CBaseEntity::ThinkSet

; 621  : 	
; 622  : 	if ( m_fActive )

	mov	eax, DWORD PTR _this$[ebp]
	cmp	DWORD PTR [eax+1908], 0
	je	$LN11@ToggleUse

; 623  : 	{// turn sound off
; 624  : 
; 625  : 		if (m_dpv.cspinup)

	mov	eax, DWORD PTR _this$[ebp]
	cmp	DWORD PTR [eax+1860], 0
	je	$LN13@ToggleUse

; 626  : 		{
; 627  : 			// Don't actually shut off. Each toggle causes
; 628  : 			// incremental spinup to max pitch
; 629  : 
; 630  : 			if (m_dpv.cspincount <= m_dpv.cspinup)

	mov	eax, DWORD PTR _this$[ebp]
	mov	ecx, DWORD PTR _this$[ebp]
	mov	edx, DWORD PTR [eax+1864]
	cmp	edx, DWORD PTR [ecx+1860]
	jg	$LN15@ToggleUse

; 631  : 			{	
; 632  : 				int pitchinc;
; 633  : 
; 634  : 				// start a new spinup
; 635  : 				m_dpv.cspincount++;

	mov	eax, DWORD PTR _this$[ebp]
	mov	ecx, DWORD PTR [eax+1864]
	add	ecx, 1
	mov	edx, DWORD PTR _this$[ebp]
	mov	DWORD PTR [edx+1864], ecx

; 636  : 				
; 637  : 				pitchinc = (255 - m_dpv.pitchstart) / m_dpv.cspinup;

	mov	eax, DWORD PTR _this$[ebp]
	mov	ecx, 255				; 000000ffH
	sub	ecx, DWORD PTR [eax+1816]
	mov	esi, DWORD PTR _this$[ebp]
	mov	eax, ecx
	cdq
	idiv	DWORD PTR [esi+1860]
	mov	DWORD PTR _pitchinc$1[ebp], eax

; 638  : 
; 639  : 				m_dpv.spinup = m_dpv.spinupsav;

	mov	eax, DWORD PTR _this$[ebp]
	mov	ecx, DWORD PTR _this$[ebp]
	mov	edx, DWORD PTR [ecx+1872]
	mov	DWORD PTR [eax+1820], edx

; 640  : 				m_dpv.spindown = 0;

	mov	eax, DWORD PTR _this$[ebp]
	mov	DWORD PTR [eax+1824], 0

; 641  : 
; 642  : 				m_dpv.pitchrun = m_dpv.pitchstart + pitchinc * m_dpv.cspincount;

	mov	eax, DWORD PTR _this$[ebp]
	mov	ecx, DWORD PTR _pitchinc$1[ebp]
	imul	ecx, DWORD PTR [eax+1864]
	mov	edx, DWORD PTR _this$[ebp]
	add	ecx, DWORD PTR [edx+1816]
	mov	eax, DWORD PTR _this$[ebp]
	mov	DWORD PTR [eax+1812], ecx

; 643  : 				if (m_dpv.pitchrun > 255) m_dpv.pitchrun = 255;

	mov	eax, DWORD PTR _this$[ebp]
	cmp	DWORD PTR [eax+1812], 255		; 000000ffH
	jle	SHORT $LN16@ToggleUse
	mov	eax, DWORD PTR _this$[ebp]
	mov	DWORD PTR [eax+1812], 255		; 000000ffH
$LN16@ToggleUse:

; 644  : 
; 645  : 				SetNextThink(0.1);

	push	ecx
	movss	xmm0, DWORD PTR __real@3dcccccd
	movss	DWORD PTR [esp], xmm0
	mov	eax, DWORD PTR _this$[ebp]
	mov	edx, DWORD PTR [eax]
	mov	ecx, DWORD PTR _this$[ebp]
	mov	eax, DWORD PTR [edx+80]
	call	eax
$LN15@ToggleUse:

; 646  : 			}
; 647  : 			
; 648  : 		}
; 649  : 		else

	jmp	$LN21@ToggleUse
$LN13@ToggleUse:

; 650  : 		{
; 651  : 			m_fActive = FALSE;

	mov	eax, DWORD PTR _this$[ebp]
	mov	DWORD PTR [eax+1908], 0

; 652  : 			
; 653  : 			// HACKHACK - this makes the code in Precache() work properly after a save/restore
; 654  : 			pev->spawnflags |= AMBIENT_SOUND_START_SILENT;

	mov	eax, DWORD PTR _this$[ebp]
	mov	ecx, DWORD PTR [eax+4]
	mov	edx, DWORD PTR [ecx+416]
	or	edx, 16					; 00000010H
	mov	eax, DWORD PTR _this$[ebp]
	mov	ecx, DWORD PTR [eax+4]
	mov	DWORD PTR [ecx+416], edx

; 655  : 
; 656  : 			if( m_dpv.spindownsav || m_dpv.fadeoutsav )

	mov	eax, DWORD PTR _this$[ebp]
	cmp	DWORD PTR [eax+1876], 0
	jne	SHORT $LN19@ToggleUse
	mov	eax, DWORD PTR _this$[ebp]
	cmp	DWORD PTR [eax+1892], 0
	je	SHORT $LN17@ToggleUse
$LN19@ToggleUse:

; 657  : 			{
; 658  : 				// spin it down (or fade it) before shutoff if spindown is set
; 659  : 				m_dpv.spindown = m_dpv.spindownsav;

	mov	eax, DWORD PTR _this$[ebp]
	mov	ecx, DWORD PTR _this$[ebp]
	mov	edx, DWORD PTR [ecx+1876]
	mov	DWORD PTR [eax+1824], edx

; 660  : 				m_dpv.spinup = 0;

	mov	eax, DWORD PTR _this$[ebp]
	mov	DWORD PTR [eax+1820], 0

; 661  : 
; 662  : 				m_dpv.fadeout = m_dpv.fadeoutsav;

	mov	eax, DWORD PTR _this$[ebp]
	mov	ecx, DWORD PTR _this$[ebp]
	mov	edx, DWORD PTR [ecx+1892]
	mov	DWORD PTR [eax+1840], edx

; 663  : 				m_dpv.fadein = 0;

	mov	eax, DWORD PTR _this$[ebp]
	mov	DWORD PTR [eax+1836], 0

; 664  : 				pev->nextthink = gpGlobals->time + 0.1;

	mov	eax, DWORD PTR ?gpGlobals@@3PAUglobalvars_t@@A ; gpGlobals
	cvtss2sd xmm0, DWORD PTR [eax]
	addsd	xmm0, QWORD PTR __real@3fb999999999999a
	cvtsd2ss xmm0, xmm0
	mov	ecx, DWORD PTR _this$[ebp]
	mov	edx, DWORD PTR [ecx+4]
	movss	DWORD PTR [edx+260], xmm0

; 665  : 			}
; 666  : 			else

	jmp	SHORT $LN21@ToggleUse
$LN17@ToggleUse:

; 667  : 			{
; 668  : 				if( m_hParent != NULL )

	mov	ecx, DWORD PTR _this$[ebp]
	add	ecx, 160				; 000000a0H
	call	??BEHANDLE@@QAEHXZ			; EHANDLE::operator int
	test	eax, eax
	je	SHORT $LN20@ToggleUse

; 669  : 					EMIT_SOUND_DYN( edict(), CHAN_ITEM, szSoundFile,	0, 0, SND_STOP, 0 );

	push	0
	push	32					; 00000020H
	push	ecx
	xorps	xmm0, xmm0
	movss	DWORD PTR [esp], xmm0
	push	ecx
	xorps	xmm0, xmm0
	movss	DWORD PTR [esp], xmm0
	mov	eax, DWORD PTR _szSoundFile$[ebp]
	push	eax
	push	3
	mov	ecx, DWORD PTR _this$[ebp]
	call	?edict@CBaseEntity@@QAEPAUedict_s@@XZ	; CBaseEntity::edict
	push	eax
	call	?EMIT_SOUND_DYN@@YAXPAUedict_s@@HPBDMMHH@Z ; EMIT_SOUND_DYN
	add	esp, 28					; 0000001cH

; 670  : 				else

	jmp	SHORT $LN21@ToggleUse
$LN20@ToggleUse:

; 671  : 					// shut sound off
; 672  : 					UTIL_EmitAmbientSound( edict(), GetAbsOrigin(), szSoundFile, 0, 0, SND_STOP, 0 );

	push	0
	push	32					; 00000020H
	push	ecx
	xorps	xmm0, xmm0
	movss	DWORD PTR [esp], xmm0
	push	ecx
	xorps	xmm0, xmm0
	movss	DWORD PTR [esp], xmm0
	mov	eax, DWORD PTR _szSoundFile$[ebp]
	push	eax
	mov	ecx, DWORD PTR _this$[ebp]
	call	?GetAbsOrigin@CBaseEntity@@QBEABVVector@@XZ ; CBaseEntity::GetAbsOrigin
	push	eax
	mov	ecx, DWORD PTR _this$[ebp]
	call	?edict@CBaseEntity@@QAEPAUedict_s@@XZ	; CBaseEntity::edict
	push	eax
	call	?UTIL_EmitAmbientSound@@YAXPAUedict_s@@ABVVector@@PBDMMHH@Z ; UTIL_EmitAmbientSound
	add	esp, 28					; 0000001cH
$LN21@ToggleUse:

; 673  : 			}
; 674  : 		}
; 675  : 	}
; 676  : 	else 

	jmp	$LN12@ToggleUse
$LN11@ToggleUse:

; 677  : 	{
; 678  : 		// turn sound on
; 679  : 
; 680  : 		// only toggle if this is a looping sound.  If not looping, each
; 681  : 		// trigger will cause the sound to play.  If the sound is still
; 682  : 		// playing from a previous trigger press, it will be shut off
; 683  : 		// and then restarted.
; 684  : 
; 685  : 		if (m_fLooping)

	mov	eax, DWORD PTR _this$[ebp]
	cmp	DWORD PTR [eax+1912], 0
	je	SHORT $LN22@ToggleUse

; 686  : 			m_fActive = TRUE;

	mov	eax, DWORD PTR _this$[ebp]
	mov	DWORD PTR [eax+1908], 1

; 687  : 		else

	jmp	SHORT $LN25@ToggleUse
$LN22@ToggleUse:

; 688  : 		{
; 689  : 			// shut sound off now - may be interrupting a long non-looping sound
; 690  : 			if( m_hParent != NULL )

	mov	ecx, DWORD PTR _this$[ebp]
	add	ecx, 160				; 000000a0H
	call	??BEHANDLE@@QAEHXZ			; EHANDLE::operator int
	test	eax, eax
	je	SHORT $LN24@ToggleUse

; 691  : 				EMIT_SOUND_DYN( edict(), CHAN_ITEM, szSoundFile,	0, 0, SND_STOP, 0 );

	push	0
	push	32					; 00000020H
	push	ecx
	xorps	xmm0, xmm0
	movss	DWORD PTR [esp], xmm0
	push	ecx
	xorps	xmm0, xmm0
	movss	DWORD PTR [esp], xmm0
	mov	eax, DWORD PTR _szSoundFile$[ebp]
	push	eax
	push	3
	mov	ecx, DWORD PTR _this$[ebp]
	call	?edict@CBaseEntity@@QAEPAUedict_s@@XZ	; CBaseEntity::edict
	push	eax
	call	?EMIT_SOUND_DYN@@YAXPAUedict_s@@HPBDMMHH@Z ; EMIT_SOUND_DYN
	add	esp, 28					; 0000001cH

; 692  : 			else

	jmp	SHORT $LN25@ToggleUse
$LN24@ToggleUse:

; 693  : 				// shut sound off
; 694  : 				UTIL_EmitAmbientSound( edict(), GetAbsOrigin(), szSoundFile, 0, 0, SND_STOP, 0 );

	push	0
	push	32					; 00000020H
	push	ecx
	xorps	xmm0, xmm0
	movss	DWORD PTR [esp], xmm0
	push	ecx
	xorps	xmm0, xmm0
	movss	DWORD PTR [esp], xmm0
	mov	eax, DWORD PTR _szSoundFile$[ebp]
	push	eax
	mov	ecx, DWORD PTR _this$[ebp]
	call	?GetAbsOrigin@CBaseEntity@@QBEABVVector@@XZ ; CBaseEntity::GetAbsOrigin
	push	eax
	mov	ecx, DWORD PTR _this$[ebp]
	call	?edict@CBaseEntity@@QAEPAUedict_s@@XZ	; CBaseEntity::edict
	push	eax
	call	?UTIL_EmitAmbientSound@@YAXPAUedict_s@@ABVVector@@PBDMMHH@Z ; UTIL_EmitAmbientSound
	add	esp, 28					; 0000001cH
$LN25@ToggleUse:

; 695  : 		}	
; 696  : 
; 697  : 		// init all ramp params for startup
; 698  : 		InitModulationParms();

	mov	ecx, DWORD PTR _this$[ebp]
	call	?InitModulationParms@CAmbientGeneric@@QAEXXZ ; CAmbientGeneric::InitModulationParms

; 699  : 
; 700  : 		if( m_hParent != NULL )

	mov	ecx, DWORD PTR _this$[ebp]
	add	ecx, 160				; 000000a0H
	call	??BEHANDLE@@QAEHXZ			; EHANDLE::operator int
	test	eax, eax
	je	SHORT $LN26@ToggleUse

; 701  : 			EMIT_SOUND_DYN( edict(), CHAN_ITEM, szSoundFile, (m_dpv.vol * 0.01), m_flAttenuation, 0, m_dpv.pitch );

	mov	eax, DWORD PTR _this$[ebp]
	mov	ecx, DWORD PTR [eax+1868]
	push	ecx
	push	0
	mov	edx, DWORD PTR _this$[ebp]
	push	ecx
	movss	xmm0, DWORD PTR [edx+1804]
	movss	DWORD PTR [esp], xmm0
	mov	eax, DWORD PTR _this$[ebp]
	cvtsi2sd xmm0, DWORD PTR [eax+1884]
	mulsd	xmm0, QWORD PTR __real@3f847ae147ae147b
	cvtsd2ss xmm0, xmm0
	push	ecx
	movss	DWORD PTR [esp], xmm0
	mov	ecx, DWORD PTR _szSoundFile$[ebp]
	push	ecx
	push	3
	mov	ecx, DWORD PTR _this$[ebp]
	call	?edict@CBaseEntity@@QAEPAUedict_s@@XZ	; CBaseEntity::edict
	push	eax
	call	?EMIT_SOUND_DYN@@YAXPAUedict_s@@HPBDMMHH@Z ; EMIT_SOUND_DYN
	add	esp, 28					; 0000001cH

; 702  : 		else

	jmp	SHORT $LN27@ToggleUse
$LN26@ToggleUse:

; 703  : 			UTIL_EmitAmbientSound( edict(), GetAbsOrigin(), szSoundFile, (m_dpv.vol * 0.01), m_flAttenuation, 0, m_dpv.pitch );

	mov	eax, DWORD PTR _this$[ebp]
	mov	ecx, DWORD PTR [eax+1868]
	push	ecx
	push	0
	mov	edx, DWORD PTR _this$[ebp]
	push	ecx
	movss	xmm0, DWORD PTR [edx+1804]
	movss	DWORD PTR [esp], xmm0
	mov	eax, DWORD PTR _this$[ebp]
	cvtsi2sd xmm0, DWORD PTR [eax+1884]
	mulsd	xmm0, QWORD PTR __real@3f847ae147ae147b
	cvtsd2ss xmm0, xmm0
	push	ecx
	movss	DWORD PTR [esp], xmm0
	mov	ecx, DWORD PTR _szSoundFile$[ebp]
	push	ecx
	mov	ecx, DWORD PTR _this$[ebp]
	call	?GetAbsOrigin@CBaseEntity@@QBEABVVector@@XZ ; CBaseEntity::GetAbsOrigin
	push	eax
	mov	ecx, DWORD PTR _this$[ebp]
	call	?edict@CBaseEntity@@QAEPAUedict_s@@XZ	; CBaseEntity::edict
	push	eax
	call	?UTIL_EmitAmbientSound@@YAXPAUedict_s@@ABVVector@@PBDMMHH@Z ; UTIL_EmitAmbientSound
	add	esp, 28					; 0000001cH
$LN27@ToggleUse:

; 704  : 
; 705  : 		SetNextThink( 0.1 );

	push	ecx
	movss	xmm0, DWORD PTR __real@3dcccccd
	movss	DWORD PTR [esp], xmm0
	mov	eax, DWORD PTR _this$[ebp]
	mov	edx, DWORD PTR [eax]
	mov	ecx, DWORD PTR _this$[ebp]
	mov	eax, DWORD PTR [edx+80]
	call	eax
$LN12@ToggleUse:
$LN1@ToggleUse:

; 706  : 	} 
; 707  : }

	pop	edi
	pop	esi
	pop	ebx
	mov	esp, ebp
	pop	ebp
	ret	16					; 00000010H
?ToggleUse@CAmbientGeneric@@QAEXPAVCBaseEntity@@0W4USE_TYPE@@M@Z ENDP ; CAmbientGeneric::ToggleUse
_TEXT	ENDS
; Function compile flags: /Odtp /ZI
; File d:\!diffusion 2020\source code 2022\client-server\server\sound.cpp
;	COMDAT ?Precache@CAmbientGeneric@@UAEXXZ
_TEXT	SEGMENT
_szSoundFile$ = -8					; size = 4
_this$ = -4						; size = 4
?Precache@CAmbientGeneric@@UAEXXZ PROC			; CAmbientGeneric::Precache, COMDAT
; _this$ = ecx

; 230  : {

	push	ebp
	mov	ebp, esp
	sub	esp, 72					; 00000048H
	push	ebx
	push	esi
	push	edi
	mov	DWORD PTR _this$[ebp], ecx

; 231  : 	char* szSoundFile = (char*) STRING(pev->message);

	mov	eax, DWORD PTR _this$[ebp]
	mov	ecx, DWORD PTR [eax+4]
	mov	edx, DWORD PTR [ecx+468]
	push	edx
	call	DWORD PTR ?g_engfuncs@@3Uenginefuncs_s@@A+264
	add	esp, 4
	mov	DWORD PTR _szSoundFile$[ebp], eax

; 232  : 
; 233  : 	if ( !FStringNull( pev->message ) && strlen( szSoundFile ) > 1 )

	mov	eax, DWORD PTR _this$[ebp]
	mov	ecx, DWORD PTR [eax+4]
	mov	edx, DWORD PTR [ecx+468]
	push	edx
	call	?FStringNull@@YAHH@Z			; FStringNull
	add	esp, 4
	test	eax, eax
	jne	SHORT $LN3@Precache
	mov	eax, DWORD PTR _szSoundFile$[ebp]
	push	eax
	call	_strlen
	add	esp, 4
	cmp	eax, 1
	jbe	SHORT $LN3@Precache

; 234  : 	{
; 235  : 		if (*szSoundFile != '!')

	mov	eax, DWORD PTR _szSoundFile$[ebp]
	movsx	ecx, BYTE PTR [eax]
	cmp	ecx, 33					; 00000021H
	je	SHORT $LN3@Precache

; 236  : 			PRECACHE_SOUND(szSoundFile);

	mov	eax, DWORD PTR _szSoundFile$[ebp]
	push	eax
	call	DWORD PTR ?g_engfuncs@@3Uenginefuncs_s@@A+4
	add	esp, 4
$LN3@Precache:

; 237  : 	}
; 238  : 	// init all dynamic modulation parms
; 239  : 	InitModulationParms();

	mov	ecx, DWORD PTR _this$[ebp]
	call	?InitModulationParms@CAmbientGeneric@@QAEXXZ ; CAmbientGeneric::InitModulationParms

; 240  : 
; 241  : 	if ( !HasSpawnFlags(AMBIENT_SOUND_START_SILENT) )

	push	16					; 00000010H
	mov	eax, DWORD PTR _this$[ebp]
	mov	edx, DWORD PTR [eax]
	mov	ecx, DWORD PTR _this$[ebp]
	mov	eax, DWORD PTR [edx+268]
	call	eax
	movzx	ecx, al
	test	ecx, ecx
	jne	SHORT $LN5@Precache

; 242  : 	{
; 243  : 		// start the sound ASAP
; 244  : 		if (m_fLooping)

	mov	eax, DWORD PTR _this$[ebp]
	cmp	DWORD PTR [eax+1912], 0
	je	SHORT $LN5@Precache

; 245  : 			m_fActive = TRUE;

	mov	eax, DWORD PTR _this$[ebp]
	mov	DWORD PTR [eax+1908], 1
$LN5@Precache:

; 246  : 	}
; 247  : 
; 248  : 	if( m_fActive )

	mov	eax, DWORD PTR _this$[ebp]
	cmp	DWORD PTR [eax+1908], 0
	je	$LN6@Precache

; 249  : 	{
; 250  : 		if( m_hParent != NULL )

	mov	ecx, DWORD PTR _this$[ebp]
	add	ecx, 160				; 000000a0H
	call	??BEHANDLE@@QAEHXZ			; EHANDLE::operator int
	test	eax, eax
	je	SHORT $LN7@Precache

; 251  : 			SetThink( &CAmbientGeneric::StartDynamicSound );

	push	OFFSET ??_C@_0CE@DGMMICMH@?$CGCAmbientGeneric?3?3StartDynamicSo@
	push	OFFSET ?StartDynamicSound@CAmbientGeneric@@QAEXXZ ; CAmbientGeneric::StartDynamicSound
	mov	ecx, DWORD PTR _this$[ebp]
	call	?ThinkSet@CBaseEntity@@QAEP81@AEXXZP81@AEXXZPAD@Z ; CBaseEntity::ThinkSet

; 252  : 		else

	jmp	$LN10@Precache
$LN7@Precache:

; 253  : 		{
; 254  : 			if( g_pGameRules->IsMultiplayer() ) // diffusion - I had to do this. lmao!

	mov	eax, DWORD PTR ?g_pGameRules@@3PAVCGameRules@@A ; g_pGameRules
	mov	edx, DWORD PTR [eax]
	mov	ecx, DWORD PTR ?g_pGameRules@@3PAVCGameRules@@A ; g_pGameRules
	mov	eax, DWORD PTR [edx+24]
	call	eax
	test	eax, eax
	je	SHORT $LN9@Precache

; 255  : 				UTIL_EmitAmbientSound( edict(), GetAbsOrigin(), szSoundFile, (m_dpv.vol * 0.01), m_flAttenuation, SND_SPAWNING, m_dpv.pitch );

	mov	eax, DWORD PTR _this$[ebp]
	mov	ecx, DWORD PTR [eax+1868]
	push	ecx
	push	256					; 00000100H
	mov	edx, DWORD PTR _this$[ebp]
	push	ecx
	movss	xmm0, DWORD PTR [edx+1804]
	movss	DWORD PTR [esp], xmm0
	mov	eax, DWORD PTR _this$[ebp]
	cvtsi2sd xmm0, DWORD PTR [eax+1884]
	mulsd	xmm0, QWORD PTR __real@3f847ae147ae147b
	cvtsd2ss xmm0, xmm0
	push	ecx
	movss	DWORD PTR [esp], xmm0
	mov	ecx, DWORD PTR _szSoundFile$[ebp]
	push	ecx
	mov	ecx, DWORD PTR _this$[ebp]
	call	?GetAbsOrigin@CBaseEntity@@QBEABVVector@@XZ ; CBaseEntity::GetAbsOrigin
	push	eax
	mov	ecx, DWORD PTR _this$[ebp]
	call	?edict@CBaseEntity@@QAEPAUedict_s@@XZ	; CBaseEntity::edict
	push	eax
	call	?UTIL_EmitAmbientSound@@YAXPAUedict_s@@ABVVector@@PBDMMHH@Z ; UTIL_EmitAmbientSound
	add	esp, 28					; 0000001cH

; 256  : 			else

	jmp	SHORT $LN10@Precache
$LN9@Precache:

; 257  : 				SetThink( &CAmbientGeneric::ReInitialize );

	push	OFFSET ??_C@_0BP@KHIOGCIN@?$CGCAmbientGeneric?3?3ReInitialize?$AA@
	push	OFFSET ?ReInitialize@CAmbientGeneric@@QAEXXZ ; CAmbientGeneric::ReInitialize
	mov	ecx, DWORD PTR _this$[ebp]
	call	?ThinkSet@CBaseEntity@@QAEP81@AEXXZP81@AEXXZPAD@Z ; CBaseEntity::ThinkSet
$LN10@Precache:

; 258  : 		}
; 259  : 
; 260  : 		SetNextThink( RANDOM_FLOAT( 0.1, 1.0 ) ); // diffusion - don't start all sounds at the same time! sometimes it can crash on saverestore, if too many sounds.

	push	ecx
	movss	xmm0, DWORD PTR __real@3f800000
	movss	DWORD PTR [esp], xmm0
	push	ecx
	movss	xmm0, DWORD PTR __real@3dcccccd
	movss	DWORD PTR [esp], xmm0
	call	DWORD PTR ?g_engfuncs@@3Uenginefuncs_s@@A+364
	add	esp, 4
	fstp	DWORD PTR [esp]
	mov	eax, DWORD PTR _this$[ebp]
	mov	edx, DWORD PTR [eax]
	mov	ecx, DWORD PTR _this$[ebp]
	mov	eax, DWORD PTR [edx+80]
	call	eax
$LN6@Precache:

; 261  : 	}
; 262  : }

	pop	edi
	pop	esi
	pop	ebx
	mov	esp, ebp
	pop	ebp
	ret	0
?Precache@CAmbientGeneric@@UAEXXZ ENDP			; CAmbientGeneric::Precache
_TEXT	ENDS
; Function compile flags: /Odtp /ZI
; File d:\!diffusion 2020\source code 2022\client-server\server\sound.cpp
;	COMDAT ?Spawn@CAmbientGeneric@@UAEXXZ
_TEXT	SEGMENT
_vecOrigin$1 = -20					; size = 12
_szSoundFile$ = -8					; size = 4
_this$ = -4						; size = 4
?Spawn@CAmbientGeneric@@UAEXXZ PROC			; CAmbientGeneric::Spawn, COMDAT
; _this$ = ecx

; 168  : {

	push	ebp
	mov	ebp, esp
	sub	esp, 84					; 00000054H
	push	ebx
	push	esi
	push	edi
	mov	DWORD PTR _this$[ebp], ecx

; 169  : /*
; 170  : 		-1 : "Default"
; 171  : 		0  : "Everywhere"
; 172  : 		200 : "Small Radius"
; 173  : 		125 : "Medium Radius"
; 174  : 		80  : "Large Radius"
; 175  : */
; 176  : 	if( !m_flAttenuation )

	mov	eax, DWORD PTR _this$[ebp]
	movss	xmm0, DWORD PTR [eax+1804]
	ucomiss	xmm0, DWORD PTR __real@00000000
	lahf
	test	ah, 68					; 00000044H
	jp	$LN10@Spawn

; 177  : 	{
; 178  : 		if ( FBitSet ( pev->spawnflags, AMBIENT_SOUND_EVERYWHERE) )

	mov	eax, DWORD PTR _this$[ebp]
	mov	ecx, DWORD PTR [eax+4]
	mov	edx, DWORD PTR [ecx+416]
	and	edx, 1
	je	SHORT $LN3@Spawn

; 179  : 			m_flAttenuation = ATTN_NONE;

	mov	eax, DWORD PTR _this$[ebp]
	xorps	xmm0, xmm0
	movss	DWORD PTR [eax+1804], xmm0
	jmp	$LN10@Spawn
$LN3@Spawn:

; 180  : 		else if ( FBitSet ( pev->spawnflags, AMBIENT_SOUND_SMALLRADIUS) )

	mov	eax, DWORD PTR _this$[ebp]
	mov	ecx, DWORD PTR [eax+4]
	mov	edx, DWORD PTR [ecx+416]
	and	edx, 2
	je	SHORT $LN5@Spawn

; 181  : 			m_flAttenuation = ATTN_IDLE;

	mov	eax, DWORD PTR _this$[ebp]
	movss	xmm0, DWORD PTR __real@40000000
	movss	DWORD PTR [eax+1804], xmm0
	jmp	SHORT $LN10@Spawn
$LN5@Spawn:

; 182  : 		else if ( FBitSet ( pev->spawnflags, AMBIENT_SOUND_MEDIUMRADIUS) )

	mov	eax, DWORD PTR _this$[ebp]
	mov	ecx, DWORD PTR [eax+4]
	mov	edx, DWORD PTR [ecx+416]
	and	edx, 4
	je	SHORT $LN7@Spawn

; 183  : 			m_flAttenuation = ATTN_STATIC;

	mov	eax, DWORD PTR _this$[ebp]
	movss	xmm0, DWORD PTR __real@3fa00000
	movss	DWORD PTR [eax+1804], xmm0
	jmp	SHORT $LN10@Spawn
$LN7@Spawn:

; 184  : 		else if ( FBitSet ( pev->spawnflags, AMBIENT_SOUND_LARGERADIUS) )

	mov	eax, DWORD PTR _this$[ebp]
	mov	ecx, DWORD PTR [eax+4]
	mov	edx, DWORD PTR [ecx+416]
	and	edx, 8
	je	SHORT $LN9@Spawn

; 185  : 			m_flAttenuation = ATTN_NORM;

	mov	eax, DWORD PTR _this$[ebp]
	movss	xmm0, DWORD PTR __real@3f4ccccd
	movss	DWORD PTR [eax+1804], xmm0

; 186  : 		else 

	jmp	SHORT $LN10@Spawn
$LN9@Spawn:

; 187  : 			// if the designer didn't set a sound attenuation, default to one.
; 188  : 			m_flAttenuation = ATTN_STATIC;

	mov	eax, DWORD PTR _this$[ebp]
	movss	xmm0, DWORD PTR __real@3fa00000
	movss	DWORD PTR [eax+1804], xmm0
$LN10@Spawn:

; 189  : 	}
; 190  : 	
; 191  : 	char* szSoundFile = (char*) STRING(pev->message);

	mov	eax, DWORD PTR _this$[ebp]
	mov	ecx, DWORD PTR [eax+4]
	mov	edx, DWORD PTR [ecx+468]
	push	edx
	call	DWORD PTR ?g_engfuncs@@3Uenginefuncs_s@@A+264
	add	esp, 4
	mov	DWORD PTR _szSoundFile$[ebp], eax

; 192  : 
; 193  : 	if ( FStringNull( pev->message ) || strlen( szSoundFile ) < 1 )

	mov	eax, DWORD PTR _this$[ebp]
	mov	ecx, DWORD PTR [eax+4]
	mov	edx, DWORD PTR [ecx+468]
	push	edx
	call	?FStringNull@@YAHH@Z			; FStringNull
	add	esp, 4
	test	eax, eax
	jne	SHORT $LN12@Spawn
	mov	eax, DWORD PTR _szSoundFile$[ebp]
	push	eax
	call	_strlen
	add	esp, 4
	cmp	eax, 1
	jae	SHORT $LN11@Spawn
$LN12@Spawn:

; 194  : 	{
; 195  : 		Vector vecOrigin = GetAbsOrigin();

	mov	ecx, DWORD PTR _this$[ebp]
	call	?GetAbsOrigin@CBaseEntity@@QBEABVVector@@XZ ; CBaseEntity::GetAbsOrigin
	push	eax
	lea	ecx, DWORD PTR _vecOrigin$1[ebp]
	call	??0Vector@@QAE@ABV0@@Z			; Vector::Vector

; 196  : 		ALERT( at_error, "EMPTY AMBIENT AT: %f, %f, %f\n", vecOrigin.x, vecOrigin.y, vecOrigin.z );

	cvtss2sd xmm0, DWORD PTR _vecOrigin$1[ebp+8]
	sub	esp, 8
	movsd	QWORD PTR [esp], xmm0
	cvtss2sd xmm0, DWORD PTR _vecOrigin$1[ebp+4]
	sub	esp, 8
	movsd	QWORD PTR [esp], xmm0
	cvtss2sd xmm0, DWORD PTR _vecOrigin$1[ebp]
	sub	esp, 8
	movsd	QWORD PTR [esp], xmm0
	push	OFFSET ??_C@_0BO@MMKAKBAC@EMPTY?5AMBIENT?5AT?3?5?$CFf?0?5?$CFf?0?5?$CFf?6?$AA@
	push	4
	call	DWORD PTR ?g_engfuncs@@3Uenginefuncs_s@@A+244
	add	esp, 32					; 00000020H

; 197  : 		SetThink( &CBaseEntity::SUB_Remove );

	push	OFFSET ??_C@_0BJ@EIFNLFLK@?$CGCBaseEntity?3?3SUB_Remove?$AA@
	push	OFFSET ?SUB_Remove@CBaseEntity@@QAEXXZ	; CBaseEntity::SUB_Remove
	mov	ecx, DWORD PTR _this$[ebp]
	call	?ThinkSet@CBaseEntity@@QAEP81@AEXXZP81@AEXXZPAD@Z ; CBaseEntity::ThinkSet

; 198  : 		SetNextThink( 0.1 );

	push	ecx
	movss	xmm0, DWORD PTR __real@3dcccccd
	movss	DWORD PTR [esp], xmm0
	mov	eax, DWORD PTR _this$[ebp]
	mov	edx, DWORD PTR [eax]
	mov	ecx, DWORD PTR _this$[ebp]
	mov	eax, DWORD PTR [edx+80]
	call	eax

; 199  : 		return;

	jmp	$LN1@Spawn
$LN11@Spawn:

; 200  : 	}
; 201  : 
; 202  : 	pev->solid = SOLID_NOT;

	mov	eax, DWORD PTR _this$[ebp]
	mov	ecx, DWORD PTR [eax+4]
	mov	DWORD PTR [ecx+268], 0

; 203  : 	pev->movetype = MOVETYPE_NONE;

	mov	eax, DWORD PTR _this$[ebp]
	mov	ecx, DWORD PTR [eax+4]
	mov	DWORD PTR [ecx+264], 0

; 204  : 
; 205  : 	// if we have a parent...
; 206  : 	if( m_hParent != NULL )

	mov	ecx, DWORD PTR _this$[ebp]
	add	ecx, 160				; 000000a0H
	call	??BEHANDLE@@QAEHXZ			; EHANDLE::operator int
	test	eax, eax
	je	SHORT $LN13@Spawn

; 207  : 		SetNullModel(); // set the model to send entity to the client

	mov	eax, DWORD PTR _this$[ebp]
	mov	edx, DWORD PTR [eax]
	mov	ecx, DWORD PTR _this$[ebp]
	mov	eax, DWORD PTR [edx+288]
	call	eax
$LN13@Spawn:

; 208  : 	
; 209  : 	// Set up think function for dynamic modification 
; 210  : 	// of ambient sound's pitch or volume. Don't
; 211  : 	// start thinking yet.
; 212  : //	SetThink( &CAmbientGeneric::ReInitialize );
; 213  : //	DontThink();
; 214  : 
; 215  : 	// allow on/off switching via 'use' function.
; 216  : 	SetUse(&CAmbientGeneric::ToggleUse );

	push	OFFSET ??_C@_0BM@OHHKHLFG@?$CGCAmbientGeneric?3?3ToggleUse?$AA@
	push	OFFSET ?ToggleUse@CAmbientGeneric@@QAEXPAVCBaseEntity@@0W4USE_TYPE@@M@Z ; CAmbientGeneric::ToggleUse
	mov	ecx, DWORD PTR _this$[ebp]
	call	?UseSet@CBaseEntity@@QAEP81@AEXPAV1@0W4USE_TYPE@@M@ZP81@AEX001M@ZPAD@Z ; CBaseEntity::UseSet

; 217  : 
; 218  : 	m_fSpawning = TRUE;	

	mov	eax, DWORD PTR _this$[ebp]
	mov	DWORD PTR [eax+1916], 1

; 219  : 	m_fActive = FALSE;

	mov	eax, DWORD PTR _this$[ebp]
	mov	DWORD PTR [eax+1908], 0

; 220  : 
; 221  : 	if ( HasSpawnFlags(AMBIENT_SOUND_NOT_LOOPING) )

	push	32					; 00000020H
	mov	eax, DWORD PTR _this$[ebp]
	mov	edx, DWORD PTR [eax]
	mov	ecx, DWORD PTR _this$[ebp]
	mov	eax, DWORD PTR [edx+268]
	call	eax
	movzx	ecx, al
	test	ecx, ecx
	je	SHORT $LN14@Spawn

; 222  : 		m_fLooping = FALSE;

	mov	eax, DWORD PTR _this$[ebp]
	mov	DWORD PTR [eax+1912], 0

; 223  : 	else

	jmp	SHORT $LN15@Spawn
$LN14@Spawn:

; 224  : 		m_fLooping = TRUE;

	mov	eax, DWORD PTR _this$[ebp]
	mov	DWORD PTR [eax+1912], 1
$LN15@Spawn:

; 225  : 
; 226  : 	Precache( );

	mov	eax, DWORD PTR _this$[ebp]
	mov	edx, DWORD PTR [eax]
	mov	ecx, DWORD PTR _this$[ebp]
	mov	eax, DWORD PTR [edx+8]
	call	eax
$LN1@Spawn:

; 227  : }

	pop	edi
	pop	esi
	pop	ebx
	mov	esp, ebp
	pop	ebp
	ret	0
?Spawn@CAmbientGeneric@@UAEXXZ ENDP			; CAmbientGeneric::Spawn
_TEXT	ENDS
; Function compile flags: /Odtp /ZI
; File d:\!diffusion 2020\source code 2022\client-server\server\sound.cpp
;	COMDAT ?KeyValue@CAmbientGeneric@@UAEXPAUKeyValueData_s@@@Z
_TEXT	SEGMENT
_this$ = -4						; size = 4
_pkvd$ = 8						; size = 4
?KeyValue@CAmbientGeneric@@UAEXPAUKeyValueData_s@@@Z PROC ; CAmbientGeneric::KeyValue, COMDAT
; _this$ = ecx

; 713  : {

	push	ebp
	mov	ebp, esp
	sub	esp, 68					; 00000044H
	push	ebx
	push	esi
	push	edi
	mov	DWORD PTR _this$[ebp], ecx

; 714  : 	// NOTE: changing any of the modifiers in this code
; 715  : 	// NOTE: also requires changing InitModulationParms code.
; 716  : 
; 717  : 	// preset
; 718  : 	if (FStrEq(pkvd->szKeyName, "preset"))

	push	OFFSET ??_C@_06OFAGBOBG@preset?$AA@
	mov	eax, DWORD PTR _pkvd$[ebp]
	mov	ecx, DWORD PTR [eax+4]
	push	ecx
	call	?FStrEq@@YAHPBD0@Z			; FStrEq
	add	esp, 8
	test	eax, eax
	je	SHORT $LN2@KeyValue

; 719  : 	{
; 720  : 		m_dpv.preset = atoi(pkvd->szValue);

	mov	eax, DWORD PTR _pkvd$[ebp]
	mov	ecx, DWORD PTR [eax+8]
	push	ecx
	call	_atoi
	add	esp, 4
	mov	edx, DWORD PTR _this$[ebp]
	mov	DWORD PTR [edx+1808], eax

; 721  : 		pkvd->fHandled = TRUE;

	mov	eax, DWORD PTR _pkvd$[ebp]
	mov	DWORD PTR [eax+12], 1
	jmp	$LN56@KeyValue
$LN2@KeyValue:

; 722  : 	}
; 723  : 
; 724  : 	// pitchrun
; 725  : 	else if (FStrEq(pkvd->szKeyName, "pitch"))

	push	OFFSET ??_C@_05NCNFOFLM@pitch?$AA@
	mov	eax, DWORD PTR _pkvd$[ebp]
	mov	ecx, DWORD PTR [eax+4]
	push	ecx
	call	?FStrEq@@YAHPBD0@Z			; FStrEq
	add	esp, 8
	test	eax, eax
	je	SHORT $LN4@KeyValue

; 726  : 	{
; 727  : 		m_dpv.pitchrun = atoi(pkvd->szValue);

	mov	eax, DWORD PTR _pkvd$[ebp]
	mov	ecx, DWORD PTR [eax+8]
	push	ecx
	call	_atoi
	add	esp, 4
	mov	edx, DWORD PTR _this$[ebp]
	mov	DWORD PTR [edx+1812], eax

; 728  : 		pkvd->fHandled = TRUE;

	mov	eax, DWORD PTR _pkvd$[ebp]
	mov	DWORD PTR [eax+12], 1

; 729  : 		
; 730  : 		if (m_dpv.pitchrun > 255) m_dpv.pitchrun = 255;

	mov	eax, DWORD PTR _this$[ebp]
	cmp	DWORD PTR [eax+1812], 255		; 000000ffH
	jle	SHORT $LN6@KeyValue
	mov	eax, DWORD PTR _this$[ebp]
	mov	DWORD PTR [eax+1812], 255		; 000000ffH
$LN6@KeyValue:

; 731  : 		if (m_dpv.pitchrun < 0) m_dpv.pitchrun = 0;

	mov	eax, DWORD PTR _this$[ebp]
	cmp	DWORD PTR [eax+1812], 0
	jge	SHORT $LN7@KeyValue
	mov	eax, DWORD PTR _this$[ebp]
	mov	DWORD PTR [eax+1812], 0
$LN7@KeyValue:

; 732  : 	}		

	jmp	$LN56@KeyValue
$LN4@KeyValue:

; 733  : 
; 734  : 	// pitchstart
; 735  : 	else if (FStrEq(pkvd->szKeyName, "pitchstart"))

	push	OFFSET ??_C@_0L@BCICKNJD@pitchstart?$AA@
	mov	eax, DWORD PTR _pkvd$[ebp]
	mov	ecx, DWORD PTR [eax+4]
	push	ecx
	call	?FStrEq@@YAHPBD0@Z			; FStrEq
	add	esp, 8
	test	eax, eax
	je	SHORT $LN8@KeyValue

; 736  : 	{
; 737  : 		m_dpv.pitchstart = atoi(pkvd->szValue);

	mov	eax, DWORD PTR _pkvd$[ebp]
	mov	ecx, DWORD PTR [eax+8]
	push	ecx
	call	_atoi
	add	esp, 4
	mov	edx, DWORD PTR _this$[ebp]
	mov	DWORD PTR [edx+1816], eax

; 738  : 		pkvd->fHandled = TRUE;		

	mov	eax, DWORD PTR _pkvd$[ebp]
	mov	DWORD PTR [eax+12], 1

; 739  : 		
; 740  : 		if (m_dpv.pitchstart > 255) m_dpv.pitchstart = 255;

	mov	eax, DWORD PTR _this$[ebp]
	cmp	DWORD PTR [eax+1816], 255		; 000000ffH
	jle	SHORT $LN10@KeyValue
	mov	eax, DWORD PTR _this$[ebp]
	mov	DWORD PTR [eax+1816], 255		; 000000ffH
$LN10@KeyValue:

; 741  : 		if (m_dpv.pitchstart < 0) m_dpv.pitchstart = 0;

	mov	eax, DWORD PTR _this$[ebp]
	cmp	DWORD PTR [eax+1816], 0
	jge	SHORT $LN11@KeyValue
	mov	eax, DWORD PTR _this$[ebp]
	mov	DWORD PTR [eax+1816], 0
$LN11@KeyValue:

; 742  : 	}

	jmp	$LN56@KeyValue
$LN8@KeyValue:

; 743  : 
; 744  : 	// spinup
; 745  : 	else if (FStrEq(pkvd->szKeyName, "spinup"))

	push	OFFSET ??_C@_06IGOPKBLH@spinup?$AA@
	mov	eax, DWORD PTR _pkvd$[ebp]
	mov	ecx, DWORD PTR [eax+4]
	push	ecx
	call	?FStrEq@@YAHPBD0@Z			; FStrEq
	add	esp, 8
	test	eax, eax
	je	$LN12@KeyValue

; 746  : 	{
; 747  : 		m_dpv.spinup = atoi(pkvd->szValue);

	mov	eax, DWORD PTR _pkvd$[ebp]
	mov	ecx, DWORD PTR [eax+8]
	push	ecx
	call	_atoi
	add	esp, 4
	mov	edx, DWORD PTR _this$[ebp]
	mov	DWORD PTR [edx+1820], eax

; 748  : 		
; 749  : 		if (m_dpv.spinup > 100) m_dpv.spinup = 100;

	mov	eax, DWORD PTR _this$[ebp]
	cmp	DWORD PTR [eax+1820], 100		; 00000064H
	jle	SHORT $LN14@KeyValue
	mov	eax, DWORD PTR _this$[ebp]
	mov	DWORD PTR [eax+1820], 100		; 00000064H
$LN14@KeyValue:

; 750  : 		if (m_dpv.spinup < 0) m_dpv.spinup = 0;

	mov	eax, DWORD PTR _this$[ebp]
	cmp	DWORD PTR [eax+1820], 0
	jge	SHORT $LN15@KeyValue
	mov	eax, DWORD PTR _this$[ebp]
	mov	DWORD PTR [eax+1820], 0
$LN15@KeyValue:

; 751  : 
; 752  : 		if (m_dpv.spinup > 0)

	mov	eax, DWORD PTR _this$[ebp]
	cmp	DWORD PTR [eax+1820], 0
	jle	SHORT $LN16@KeyValue

; 753  : 			m_dpv.spinup = (101 - m_dpv.spinup) * 64;

	mov	eax, DWORD PTR _this$[ebp]
	mov	ecx, 101				; 00000065H
	sub	ecx, DWORD PTR [eax+1820]
	shl	ecx, 6
	mov	edx, DWORD PTR _this$[ebp]
	mov	DWORD PTR [edx+1820], ecx
$LN16@KeyValue:

; 754  : 		m_dpv.spinupsav = m_dpv.spinup;

	mov	eax, DWORD PTR _this$[ebp]
	mov	ecx, DWORD PTR _this$[ebp]
	mov	edx, DWORD PTR [ecx+1820]
	mov	DWORD PTR [eax+1872], edx

; 755  : 		pkvd->fHandled = TRUE;

	mov	eax, DWORD PTR _pkvd$[ebp]
	mov	DWORD PTR [eax+12], 1
	jmp	$LN56@KeyValue
$LN12@KeyValue:

; 756  : 	}		
; 757  : 
; 758  : 	// spindown
; 759  : 	else if (FStrEq(pkvd->szKeyName, "spindown"))

	push	OFFSET ??_C@_08PFGPOMOJ@spindown?$AA@
	mov	eax, DWORD PTR _pkvd$[ebp]
	mov	ecx, DWORD PTR [eax+4]
	push	ecx
	call	?FStrEq@@YAHPBD0@Z			; FStrEq
	add	esp, 8
	test	eax, eax
	je	$LN17@KeyValue

; 760  : 	{
; 761  : 		m_dpv.spindown = atoi(pkvd->szValue);

	mov	eax, DWORD PTR _pkvd$[ebp]
	mov	ecx, DWORD PTR [eax+8]
	push	ecx
	call	_atoi
	add	esp, 4
	mov	edx, DWORD PTR _this$[ebp]
	mov	DWORD PTR [edx+1824], eax

; 762  : 		
; 763  : 		if (m_dpv.spindown > 100) m_dpv.spindown = 100;

	mov	eax, DWORD PTR _this$[ebp]
	cmp	DWORD PTR [eax+1824], 100		; 00000064H
	jle	SHORT $LN19@KeyValue
	mov	eax, DWORD PTR _this$[ebp]
	mov	DWORD PTR [eax+1824], 100		; 00000064H
$LN19@KeyValue:

; 764  : 		if (m_dpv.spindown < 0) m_dpv.spindown = 0;

	mov	eax, DWORD PTR _this$[ebp]
	cmp	DWORD PTR [eax+1824], 0
	jge	SHORT $LN20@KeyValue
	mov	eax, DWORD PTR _this$[ebp]
	mov	DWORD PTR [eax+1824], 0
$LN20@KeyValue:

; 765  : 
; 766  : 		if (m_dpv.spindown > 0)

	mov	eax, DWORD PTR _this$[ebp]
	cmp	DWORD PTR [eax+1824], 0
	jle	SHORT $LN21@KeyValue

; 767  : 			m_dpv.spindown = (101 - m_dpv.spindown) * 64;

	mov	eax, DWORD PTR _this$[ebp]
	mov	ecx, 101				; 00000065H
	sub	ecx, DWORD PTR [eax+1824]
	shl	ecx, 6
	mov	edx, DWORD PTR _this$[ebp]
	mov	DWORD PTR [edx+1824], ecx
$LN21@KeyValue:

; 768  : 		m_dpv.spindownsav = m_dpv.spindown;

	mov	eax, DWORD PTR _this$[ebp]
	mov	ecx, DWORD PTR _this$[ebp]
	mov	edx, DWORD PTR [ecx+1824]
	mov	DWORD PTR [eax+1876], edx

; 769  : 		pkvd->fHandled = TRUE;

	mov	eax, DWORD PTR _pkvd$[ebp]
	mov	DWORD PTR [eax+12], 1
	jmp	$LN56@KeyValue
$LN17@KeyValue:

; 770  : 	}
; 771  : 
; 772  : 	// volstart
; 773  : 	else if (FStrEq(pkvd->szKeyName, "volstart"))

	push	OFFSET ??_C@_08MBMKGMEC@volstart?$AA@
	mov	eax, DWORD PTR _pkvd$[ebp]
	mov	ecx, DWORD PTR [eax+4]
	push	ecx
	call	?FStrEq@@YAHPBD0@Z			; FStrEq
	add	esp, 8
	test	eax, eax
	je	SHORT $LN22@KeyValue

; 774  : 	{
; 775  : 		m_dpv.volstart = atoi(pkvd->szValue);

	mov	eax, DWORD PTR _pkvd$[ebp]
	mov	ecx, DWORD PTR [eax+8]
	push	ecx
	call	_atoi
	add	esp, 4
	mov	edx, DWORD PTR _this$[ebp]
	mov	DWORD PTR [edx+1832], eax

; 776  : 
; 777  : 		if (m_dpv.volstart > 10) m_dpv.volstart = 10;

	mov	eax, DWORD PTR _this$[ebp]
	cmp	DWORD PTR [eax+1832], 10		; 0000000aH
	jle	SHORT $LN24@KeyValue
	mov	eax, DWORD PTR _this$[ebp]
	mov	DWORD PTR [eax+1832], 10		; 0000000aH
$LN24@KeyValue:

; 778  : 		if (m_dpv.volstart < 0) m_dpv.volstart = 0;

	mov	eax, DWORD PTR _this$[ebp]
	cmp	DWORD PTR [eax+1832], 0
	jge	SHORT $LN25@KeyValue
	mov	eax, DWORD PTR _this$[ebp]
	mov	DWORD PTR [eax+1832], 0
$LN25@KeyValue:

; 779  : 		
; 780  : 		m_dpv.volstart *= 10;	// 0 - 100

	mov	eax, DWORD PTR _this$[ebp]
	imul	ecx, DWORD PTR [eax+1832], 10
	mov	edx, DWORD PTR _this$[ebp]
	mov	DWORD PTR [edx+1832], ecx

; 781  : 
; 782  : 		pkvd->fHandled = TRUE;

	mov	eax, DWORD PTR _pkvd$[ebp]
	mov	DWORD PTR [eax+12], 1
	jmp	$LN56@KeyValue
$LN22@KeyValue:

; 783  : 	}
; 784  : 
; 785  : 	// fadein
; 786  : 	else if (FStrEq(pkvd->szKeyName, "fadein"))

	push	OFFSET ??_C@_06JFGPOFJL@fadein?$AA@
	mov	eax, DWORD PTR _pkvd$[ebp]
	mov	ecx, DWORD PTR [eax+4]
	push	ecx
	call	?FStrEq@@YAHPBD0@Z			; FStrEq
	add	esp, 8
	test	eax, eax
	je	$LN26@KeyValue

; 787  : 	{
; 788  : 		m_dpv.fadein = atoi(pkvd->szValue);

	mov	eax, DWORD PTR _pkvd$[ebp]
	mov	ecx, DWORD PTR [eax+8]
	push	ecx
	call	_atoi
	add	esp, 4
	mov	edx, DWORD PTR _this$[ebp]
	mov	DWORD PTR [edx+1836], eax

; 789  : 		
; 790  : 		if (m_dpv.fadein > 100) m_dpv.fadein = 100;

	mov	eax, DWORD PTR _this$[ebp]
	cmp	DWORD PTR [eax+1836], 100		; 00000064H
	jle	SHORT $LN28@KeyValue
	mov	eax, DWORD PTR _this$[ebp]
	mov	DWORD PTR [eax+1836], 100		; 00000064H
$LN28@KeyValue:

; 791  : 		if (m_dpv.fadein < 0) m_dpv.fadein = 0;

	mov	eax, DWORD PTR _this$[ebp]
	cmp	DWORD PTR [eax+1836], 0
	jge	SHORT $LN29@KeyValue
	mov	eax, DWORD PTR _this$[ebp]
	mov	DWORD PTR [eax+1836], 0
$LN29@KeyValue:

; 792  : 
; 793  : 		if (m_dpv.fadein > 0)

	mov	eax, DWORD PTR _this$[ebp]
	cmp	DWORD PTR [eax+1836], 0
	jle	SHORT $LN30@KeyValue

; 794  : 			m_dpv.fadein = (101 - m_dpv.fadein) * 64;

	mov	eax, DWORD PTR _this$[ebp]
	mov	ecx, 101				; 00000065H
	sub	ecx, DWORD PTR [eax+1836]
	shl	ecx, 6
	mov	edx, DWORD PTR _this$[ebp]
	mov	DWORD PTR [edx+1836], ecx
$LN30@KeyValue:

; 795  : 		m_dpv.fadeinsav = m_dpv.fadein;

	mov	eax, DWORD PTR _this$[ebp]
	mov	ecx, DWORD PTR _this$[ebp]
	mov	edx, DWORD PTR [ecx+1836]
	mov	DWORD PTR [eax+1888], edx

; 796  : 		pkvd->fHandled = TRUE;

	mov	eax, DWORD PTR _pkvd$[ebp]
	mov	DWORD PTR [eax+12], 1
	jmp	$LN56@KeyValue
$LN26@KeyValue:

; 797  : 	}
; 798  : 
; 799  : 	// fadeout
; 800  : 	else if (FStrEq(pkvd->szKeyName, "fadeout"))

	push	OFFSET ??_C@_07BJADIKJG@fadeout?$AA@
	mov	eax, DWORD PTR _pkvd$[ebp]
	mov	ecx, DWORD PTR [eax+4]
	push	ecx
	call	?FStrEq@@YAHPBD0@Z			; FStrEq
	add	esp, 8
	test	eax, eax
	je	$LN31@KeyValue

; 801  : 	{
; 802  : 		m_dpv.fadeout = atoi(pkvd->szValue);

	mov	eax, DWORD PTR _pkvd$[ebp]
	mov	ecx, DWORD PTR [eax+8]
	push	ecx
	call	_atoi
	add	esp, 4
	mov	edx, DWORD PTR _this$[ebp]
	mov	DWORD PTR [edx+1840], eax

; 803  : 		
; 804  : 		if (m_dpv.fadeout > 100) m_dpv.fadeout = 100;

	mov	eax, DWORD PTR _this$[ebp]
	cmp	DWORD PTR [eax+1840], 100		; 00000064H
	jle	SHORT $LN33@KeyValue
	mov	eax, DWORD PTR _this$[ebp]
	mov	DWORD PTR [eax+1840], 100		; 00000064H
$LN33@KeyValue:

; 805  : 		if (m_dpv.fadeout < 0) m_dpv.fadeout = 0;

	mov	eax, DWORD PTR _this$[ebp]
	cmp	DWORD PTR [eax+1840], 0
	jge	SHORT $LN34@KeyValue
	mov	eax, DWORD PTR _this$[ebp]
	mov	DWORD PTR [eax+1840], 0
$LN34@KeyValue:

; 806  : 
; 807  : 		if (m_dpv.fadeout > 0)

	mov	eax, DWORD PTR _this$[ebp]
	cmp	DWORD PTR [eax+1840], 0
	jle	SHORT $LN35@KeyValue

; 808  : 			m_dpv.fadeout = (101 - m_dpv.fadeout) * 64;

	mov	eax, DWORD PTR _this$[ebp]
	mov	ecx, 101				; 00000065H
	sub	ecx, DWORD PTR [eax+1840]
	shl	ecx, 6
	mov	edx, DWORD PTR _this$[ebp]
	mov	DWORD PTR [edx+1840], ecx
$LN35@KeyValue:

; 809  : 		m_dpv.fadeoutsav = m_dpv.fadeout;

	mov	eax, DWORD PTR _this$[ebp]
	mov	ecx, DWORD PTR _this$[ebp]
	mov	edx, DWORD PTR [ecx+1840]
	mov	DWORD PTR [eax+1892], edx

; 810  : 		pkvd->fHandled = TRUE;

	mov	eax, DWORD PTR _pkvd$[ebp]
	mov	DWORD PTR [eax+12], 1
	jmp	$LN56@KeyValue
$LN31@KeyValue:

; 811  : 	}
; 812  : 
; 813  : 	// lfotype
; 814  : 	else if (FStrEq(pkvd->szKeyName, "lfotype"))

	push	OFFSET ??_C@_07FKEDAPJJ@lfotype?$AA@
	mov	eax, DWORD PTR _pkvd$[ebp]
	mov	ecx, DWORD PTR [eax+4]
	push	ecx
	call	?FStrEq@@YAHPBD0@Z			; FStrEq
	add	esp, 8
	test	eax, eax
	je	SHORT $LN36@KeyValue

; 815  : 	{
; 816  : 		m_dpv.lfotype = atoi(pkvd->szValue);

	mov	eax, DWORD PTR _pkvd$[ebp]
	mov	ecx, DWORD PTR [eax+8]
	push	ecx
	call	_atoi
	add	esp, 4
	mov	edx, DWORD PTR _this$[ebp]
	mov	DWORD PTR [edx+1844], eax

; 817  : 		if (m_dpv.lfotype > 4) m_dpv.lfotype = LFO_TRIANGLE;

	mov	eax, DWORD PTR _this$[ebp]
	cmp	DWORD PTR [eax+1844], 4
	jle	SHORT $LN38@KeyValue
	mov	eax, DWORD PTR _this$[ebp]
	mov	DWORD PTR [eax+1844], 2
$LN38@KeyValue:

; 818  : 		pkvd->fHandled = TRUE;

	mov	eax, DWORD PTR _pkvd$[ebp]
	mov	DWORD PTR [eax+12], 1
	jmp	$LN56@KeyValue
$LN36@KeyValue:

; 819  : 	}
; 820  : 
; 821  : 	// lforate
; 822  : 	else if (FStrEq(pkvd->szKeyName, "lforate"))

	push	OFFSET ??_C@_07EHKHCNJF@lforate?$AA@
	mov	eax, DWORD PTR _pkvd$[ebp]
	mov	ecx, DWORD PTR [eax+4]
	push	ecx
	call	?FStrEq@@YAHPBD0@Z			; FStrEq
	add	esp, 8
	test	eax, eax
	je	SHORT $LN39@KeyValue

; 823  : 	{
; 824  : 		m_dpv.lforate = atoi(pkvd->szValue);

	mov	eax, DWORD PTR _pkvd$[ebp]
	mov	ecx, DWORD PTR [eax+8]
	push	ecx
	call	_atoi
	add	esp, 4
	mov	edx, DWORD PTR _this$[ebp]
	mov	DWORD PTR [edx+1848], eax

; 825  : 		
; 826  : 		if (m_dpv.lforate > 1000) m_dpv.lforate = 1000;

	mov	eax, DWORD PTR _this$[ebp]
	cmp	DWORD PTR [eax+1848], 1000		; 000003e8H
	jle	SHORT $LN41@KeyValue
	mov	eax, DWORD PTR _this$[ebp]
	mov	DWORD PTR [eax+1848], 1000		; 000003e8H
$LN41@KeyValue:

; 827  : 		if (m_dpv.lforate < 0) m_dpv.lforate = 0;

	mov	eax, DWORD PTR _this$[ebp]
	cmp	DWORD PTR [eax+1848], 0
	jge	SHORT $LN42@KeyValue
	mov	eax, DWORD PTR _this$[ebp]
	mov	DWORD PTR [eax+1848], 0
$LN42@KeyValue:

; 828  : 
; 829  : 		m_dpv.lforate *= 256;

	mov	eax, DWORD PTR _this$[ebp]
	mov	ecx, DWORD PTR [eax+1848]
	shl	ecx, 8
	mov	edx, DWORD PTR _this$[ebp]
	mov	DWORD PTR [edx+1848], ecx

; 830  : 
; 831  : 		pkvd->fHandled = TRUE;

	mov	eax, DWORD PTR _pkvd$[ebp]
	mov	DWORD PTR [eax+12], 1
	jmp	$LN56@KeyValue
$LN39@KeyValue:

; 832  : 	}
; 833  : 	// lfomodpitch
; 834  : 	else if (FStrEq(pkvd->szKeyName, "lfomodpitch"))

	push	OFFSET ??_C@_0M@HGAJBMGN@lfomodpitch?$AA@
	mov	eax, DWORD PTR _pkvd$[ebp]
	mov	ecx, DWORD PTR [eax+4]
	push	ecx
	call	?FStrEq@@YAHPBD0@Z			; FStrEq
	add	esp, 8
	test	eax, eax
	je	SHORT $LN43@KeyValue

; 835  : 	{
; 836  : 		m_dpv.lfomodpitch = atoi(pkvd->szValue);

	mov	eax, DWORD PTR _pkvd$[ebp]
	mov	ecx, DWORD PTR [eax+8]
	push	ecx
	call	_atoi
	add	esp, 4
	mov	edx, DWORD PTR _this$[ebp]
	mov	DWORD PTR [edx+1852], eax

; 837  : 		if (m_dpv.lfomodpitch > 100) m_dpv.lfomodpitch = 100;

	mov	eax, DWORD PTR _this$[ebp]
	cmp	DWORD PTR [eax+1852], 100		; 00000064H
	jle	SHORT $LN45@KeyValue
	mov	eax, DWORD PTR _this$[ebp]
	mov	DWORD PTR [eax+1852], 100		; 00000064H
$LN45@KeyValue:

; 838  : 		if (m_dpv.lfomodpitch < 0) m_dpv.lfomodpitch = 0;

	mov	eax, DWORD PTR _this$[ebp]
	cmp	DWORD PTR [eax+1852], 0
	jge	SHORT $LN46@KeyValue
	mov	eax, DWORD PTR _this$[ebp]
	mov	DWORD PTR [eax+1852], 0
$LN46@KeyValue:

; 839  : 		
; 840  : 
; 841  : 		pkvd->fHandled = TRUE;

	mov	eax, DWORD PTR _pkvd$[ebp]
	mov	DWORD PTR [eax+12], 1
	jmp	$LN56@KeyValue
$LN43@KeyValue:

; 842  : 	}
; 843  : 
; 844  : 	// lfomodvol
; 845  : 	else if (FStrEq(pkvd->szKeyName, "lfomodvol"))

	push	OFFSET ??_C@_09EKPKCPJP@lfomodvol?$AA@
	mov	eax, DWORD PTR _pkvd$[ebp]
	mov	ecx, DWORD PTR [eax+4]
	push	ecx
	call	?FStrEq@@YAHPBD0@Z			; FStrEq
	add	esp, 8
	test	eax, eax
	je	SHORT $LN47@KeyValue

; 846  : 	{
; 847  : 		m_dpv.lfomodvol = atoi(pkvd->szValue);

	mov	eax, DWORD PTR _pkvd$[ebp]
	mov	ecx, DWORD PTR [eax+8]
	push	ecx
	call	_atoi
	add	esp, 4
	mov	edx, DWORD PTR _this$[ebp]
	mov	DWORD PTR [edx+1856], eax

; 848  : 		if (m_dpv.lfomodvol > 100) m_dpv.lfomodvol = 100;

	mov	eax, DWORD PTR _this$[ebp]
	cmp	DWORD PTR [eax+1856], 100		; 00000064H
	jle	SHORT $LN49@KeyValue
	mov	eax, DWORD PTR _this$[ebp]
	mov	DWORD PTR [eax+1856], 100		; 00000064H
$LN49@KeyValue:

; 849  : 		if (m_dpv.lfomodvol < 0) m_dpv.lfomodvol = 0;

	mov	eax, DWORD PTR _this$[ebp]
	cmp	DWORD PTR [eax+1856], 0
	jge	SHORT $LN50@KeyValue
	mov	eax, DWORD PTR _this$[ebp]
	mov	DWORD PTR [eax+1856], 0
$LN50@KeyValue:

; 850  : 
; 851  : 		pkvd->fHandled = TRUE;

	mov	eax, DWORD PTR _pkvd$[ebp]
	mov	DWORD PTR [eax+12], 1
	jmp	$LN56@KeyValue
$LN47@KeyValue:

; 852  : 	}
; 853  : 
; 854  : 	// cspinup
; 855  : 	else if (FStrEq(pkvd->szKeyName, "cspinup"))

	push	OFFSET ??_C@_07CAMFAGPI@cspinup?$AA@
	mov	eax, DWORD PTR _pkvd$[ebp]
	mov	ecx, DWORD PTR [eax+4]
	push	ecx
	call	?FStrEq@@YAHPBD0@Z			; FStrEq
	add	esp, 8
	test	eax, eax
	je	SHORT $LN51@KeyValue

; 856  : 	{
; 857  : 		m_dpv.cspinup = atoi(pkvd->szValue);

	mov	eax, DWORD PTR _pkvd$[ebp]
	mov	ecx, DWORD PTR [eax+8]
	push	ecx
	call	_atoi
	add	esp, 4
	mov	edx, DWORD PTR _this$[ebp]
	mov	DWORD PTR [edx+1860], eax

; 858  : 		if (m_dpv.cspinup > 100) m_dpv.cspinup = 100;

	mov	eax, DWORD PTR _this$[ebp]
	cmp	DWORD PTR [eax+1860], 100		; 00000064H
	jle	SHORT $LN53@KeyValue
	mov	eax, DWORD PTR _this$[ebp]
	mov	DWORD PTR [eax+1860], 100		; 00000064H
$LN53@KeyValue:

; 859  : 		if (m_dpv.cspinup < 0) m_dpv.cspinup = 0;

	mov	eax, DWORD PTR _this$[ebp]
	cmp	DWORD PTR [eax+1860], 0
	jge	SHORT $LN54@KeyValue
	mov	eax, DWORD PTR _this$[ebp]
	mov	DWORD PTR [eax+1860], 0
$LN54@KeyValue:

; 860  : 
; 861  : 		pkvd->fHandled = TRUE;

	mov	eax, DWORD PTR _pkvd$[ebp]
	mov	DWORD PTR [eax+12], 1
	jmp	$LN56@KeyValue
$LN51@KeyValue:

; 862  : 	}
; 863  : 	else if (FStrEq(pkvd->szKeyName, "attenuation"))

	push	OFFSET ??_C@_0M@NKGAHMMH@attenuation?$AA@
	mov	eax, DWORD PTR _pkvd$[ebp]
	mov	ecx, DWORD PTR [eax+4]
	push	ecx
	call	?FStrEq@@YAHPBD0@Z			; FStrEq
	add	esp, 8
	test	eax, eax
	je	SHORT $LN55@KeyValue

; 864  : 	{
; 865  : 		m_flAttenuation = Q_atof(pkvd->szValue);

	mov	eax, DWORD PTR _pkvd$[ebp]
	mov	ecx, DWORD PTR [eax+8]
	push	ecx
	call	?Q_atof@@YAMPBD@Z			; Q_atof
	add	esp, 4
	mov	edx, DWORD PTR _this$[ebp]
	fstp	DWORD PTR [edx+1804]

; 866  : 		if (m_flAttenuation > 3) m_flAttenuation = 3;

	mov	eax, DWORD PTR _this$[ebp]
	movss	xmm0, DWORD PTR [eax+1804]
	comiss	xmm0, DWORD PTR __real@40400000
	jbe	SHORT $LN57@KeyValue
	mov	eax, DWORD PTR _this$[ebp]
	movss	xmm0, DWORD PTR __real@40400000
	movss	DWORD PTR [eax+1804], xmm0
$LN57@KeyValue:

; 867  : 		if (m_flAttenuation < 0) m_flAttenuation = 0;

	mov	eax, DWORD PTR _this$[ebp]
	xorps	xmm0, xmm0
	comiss	xmm0, DWORD PTR [eax+1804]
	jbe	SHORT $LN58@KeyValue
	mov	eax, DWORD PTR _this$[ebp]
	xorps	xmm0, xmm0
	movss	DWORD PTR [eax+1804], xmm0
$LN58@KeyValue:

; 868  : 		pkvd->fHandled = TRUE;

	mov	eax, DWORD PTR _pkvd$[ebp]
	mov	DWORD PTR [eax+12], 1

; 869  : 	}
; 870  : 	else

	jmp	SHORT $LN56@KeyValue
$LN55@KeyValue:

; 871  : 		CBaseEntity::KeyValue( pkvd );

	mov	eax, DWORD PTR _pkvd$[ebp]
	push	eax
	mov	ecx, DWORD PTR _this$[ebp]
	call	?KeyValue@CBaseEntity@@UAEXPAUKeyValueData_s@@@Z ; CBaseEntity::KeyValue
$LN56@KeyValue:

; 872  : }

	pop	edi
	pop	esi
	pop	ebx
	mov	esp, ebp
	pop	ebp
	ret	4
?KeyValue@CAmbientGeneric@@UAEXPAUKeyValueData_s@@@Z ENDP ; CAmbientGeneric::KeyValue
_TEXT	ENDS
; Function compile flags: /Odtp /ZI
; File d:\!diffusion 2020\source code 2022\client-server\server\sound.cpp
;	COMDAT ?memfgets@@YAPADPAEHAAHPADH@Z
_TEXT	SEGMENT
_size$1 = -16						; size = 4
_stop$ = -12						; size = 4
_last$ = -8						; size = 4
_i$ = -4						; size = 4
_pMemFile$ = 8						; size = 4
_fileSize$ = 12						; size = 4
_filePos$ = 16						; size = 4
_pBuffer$ = 20						; size = 4
_bufferSize$ = 24					; size = 4
?memfgets@@YAPADPAEHAAHPADH@Z PROC			; memfgets, COMDAT

; 1710 : {

	push	ebp
	mov	ebp, esp
	sub	esp, 80					; 00000050H
	push	ebx
	push	esi
	push	edi

; 1711 : 	// Bullet-proofing
; 1712 : 	if ( !pMemFile || !pBuffer )

	cmp	DWORD PTR _pMemFile$[ebp], 0
	je	SHORT $LN5@memfgets
	cmp	DWORD PTR _pBuffer$[ebp], 0
	jne	SHORT $LN4@memfgets
$LN5@memfgets:

; 1713 : 		return NULL;

	xor	eax, eax
	jmp	$LN1@memfgets
$LN4@memfgets:

; 1714 : 
; 1715 : 	if ( filePos >= fileSize )

	mov	eax, DWORD PTR _filePos$[ebp]
	mov	ecx, DWORD PTR [eax]
	cmp	ecx, DWORD PTR _fileSize$[ebp]
	jl	SHORT $LN6@memfgets

; 1716 : 		return NULL;

	xor	eax, eax
	jmp	$LN1@memfgets
$LN6@memfgets:

; 1717 : 
; 1718 : 	int i = filePos;

	mov	eax, DWORD PTR _filePos$[ebp]
	mov	ecx, DWORD PTR [eax]
	mov	DWORD PTR _i$[ebp], ecx

; 1719 : 	int last = fileSize;

	mov	eax, DWORD PTR _fileSize$[ebp]
	mov	DWORD PTR _last$[ebp], eax

; 1720 : 
; 1721 : 	// fgets always NULL terminates, so only read bufferSize-1 characters
; 1722 : 	if ( last - filePos > (bufferSize-1) )

	mov	eax, DWORD PTR _filePos$[ebp]
	mov	ecx, DWORD PTR _last$[ebp]
	sub	ecx, DWORD PTR [eax]
	mov	edx, DWORD PTR _bufferSize$[ebp]
	sub	edx, 1
	cmp	ecx, edx
	jle	SHORT $LN7@memfgets

; 1723 : 		last = filePos + (bufferSize-1);

	mov	eax, DWORD PTR _filePos$[ebp]
	mov	ecx, DWORD PTR [eax]
	mov	edx, DWORD PTR _bufferSize$[ebp]
	lea	eax, DWORD PTR [edx+ecx-1]
	mov	DWORD PTR _last$[ebp], eax
$LN7@memfgets:

; 1724 : 
; 1725 : 	int stop = 0;

	mov	DWORD PTR _stop$[ebp], 0
$LN2@memfgets:

; 1726 : 
; 1727 : 	// Stop at the next newline (inclusive) or end of buffer
; 1728 : 	while ( i < last && !stop )

	mov	eax, DWORD PTR _i$[ebp]
	cmp	eax, DWORD PTR _last$[ebp]
	jge	SHORT $LN3@memfgets
	cmp	DWORD PTR _stop$[ebp], 0
	jne	SHORT $LN3@memfgets

; 1729 : 	{
; 1730 : 		if ( pMemFile[i] == '\n' )

	mov	eax, DWORD PTR _pMemFile$[ebp]
	add	eax, DWORD PTR _i$[ebp]
	movzx	ecx, BYTE PTR [eax]
	cmp	ecx, 10					; 0000000aH
	jne	SHORT $LN8@memfgets

; 1731 : 			stop = 1;

	mov	DWORD PTR _stop$[ebp], 1
$LN8@memfgets:

; 1732 : 		i++;

	mov	eax, DWORD PTR _i$[ebp]
	add	eax, 1
	mov	DWORD PTR _i$[ebp], eax

; 1733 : 	}

	jmp	SHORT $LN2@memfgets
$LN3@memfgets:

; 1734 : 
; 1735 : 	// If we actually advanced the pointer, copy it over
; 1736 : 	if ( i != filePos )

	mov	eax, DWORD PTR _filePos$[ebp]
	mov	ecx, DWORD PTR _i$[ebp]
	cmp	ecx, DWORD PTR [eax]
	je	SHORT $LN9@memfgets

; 1737 : 	{
; 1738 : 		// We read in size bytes
; 1739 : 		int size = i - filePos;

	mov	eax, DWORD PTR _filePos$[ebp]
	mov	ecx, DWORD PTR _i$[ebp]
	sub	ecx, DWORD PTR [eax]
	mov	DWORD PTR _size$1[ebp], ecx

; 1740 : 		// copy it out
; 1741 : 		memcpy( pBuffer, pMemFile + filePos, sizeof(byte)*size );

	mov	eax, DWORD PTR _size$1[ebp]
	push	eax
	mov	ecx, DWORD PTR _filePos$[ebp]
	mov	edx, DWORD PTR _pMemFile$[ebp]
	add	edx, DWORD PTR [ecx]
	push	edx
	mov	eax, DWORD PTR _pBuffer$[ebp]
	push	eax
	call	_memcpy
	add	esp, 12					; 0000000cH

; 1742 : 		
; 1743 : 		// If the buffer isn't full, terminate (this is always true)
; 1744 : 		if ( size < bufferSize )

	mov	eax, DWORD PTR _size$1[ebp]
	cmp	eax, DWORD PTR _bufferSize$[ebp]
	jge	SHORT $LN10@memfgets

; 1745 : 			pBuffer[size] = 0;

	mov	eax, DWORD PTR _pBuffer$[ebp]
	add	eax, DWORD PTR _size$1[ebp]
	mov	BYTE PTR [eax], 0
$LN10@memfgets:

; 1746 : 
; 1747 : 		// Update file pointer
; 1748 : 		filePos = i;

	mov	eax, DWORD PTR _filePos$[ebp]
	mov	ecx, DWORD PTR _i$[ebp]
	mov	DWORD PTR [eax], ecx

; 1749 : 		return pBuffer;

	mov	eax, DWORD PTR _pBuffer$[ebp]
	jmp	SHORT $LN1@memfgets
$LN9@memfgets:

; 1750 : 	}
; 1751 : 
; 1752 : 	// No data read, bail
; 1753 : 	return NULL;

	xor	eax, eax
$LN1@memfgets:

; 1754 : }

	pop	edi
	pop	esi
	pop	ebx
	mov	esp, ebp
	pop	ebp
	ret	0
?memfgets@@YAPADPAEHAAHPADH@Z ENDP			; memfgets
_TEXT	ENDS
; Function compile flags: /Odtp /ZI
;	COMDAT ??0CBasePlayer@@QAE@XZ
_TEXT	SEGMENT
_this$ = -16						; size = 4
__$EHRec$ = -12						; size = 12
??0CBasePlayer@@QAE@XZ PROC				; CBasePlayer::CBasePlayer, COMDAT
; _this$ = ecx
	push	ebp
	mov	ebp, esp
	push	-1
	push	__ehhandler$??0CBasePlayer@@QAE@XZ
	mov	eax, DWORD PTR fs:0
	push	eax
	sub	esp, 68					; 00000044H
	push	ebx
	push	esi
	push	edi
	mov	eax, DWORD PTR ___security_cookie
	xor	eax, ebp
	push	eax
	lea	eax, DWORD PTR __$EHRec$[ebp]
	mov	DWORD PTR fs:0, eax
	mov	DWORD PTR _this$[ebp], ecx
	mov	ecx, DWORD PTR _this$[ebp]
	call	??0CBaseMonster@@QAE@XZ
	mov	DWORD PTR __$EHRec$[ebp+8], 0
	mov	eax, DWORD PTR _this$[ebp]
	mov	DWORD PTR [eax], OFFSET ??_7CBasePlayer@@6B@
	mov	ecx, DWORD PTR _this$[ebp]
	add	ecx, 3884				; 00000f2cH
	call	??0Vector@@QAE@XZ			; Vector::Vector
	mov	ecx, DWORD PTR _this$[ebp]
	add	ecx, 4316				; 000010dcH
	call	??0Vector@@QAE@XZ			; Vector::Vector
	mov	ecx, DWORD PTR _this$[ebp]
	add	ecx, 4432				; 00001150H
	call	??0Vector@@QAE@XZ			; Vector::Vector
	mov	ecx, DWORD PTR _this$[ebp]
	add	ecx, 4444				; 0000115cH
	call	??0Vector@@QAE@XZ			; Vector::Vector
	mov	ecx, DWORD PTR _this$[ebp]
	add	ecx, 4736				; 00001280H
	call	??0Vector@@QAE@XZ			; Vector::Vector
	mov	ecx, DWORD PTR _this$[ebp]
	add	ecx, 4748				; 0000128cH
	call	??0Vector@@QAE@XZ			; Vector::Vector
	mov	ecx, DWORD PTR _this$[ebp]
	add	ecx, 4784				; 000012b0H
	call	??0Vector@@QAE@XZ			; Vector::Vector
	mov	ecx, DWORD PTR _this$[ebp]
	add	ecx, 5008				; 00001390H
	call	??0Vector@@QAE@XZ			; Vector::Vector
	mov	DWORD PTR __$EHRec$[ebp+8], -1
	mov	eax, DWORD PTR _this$[ebp]
	mov	ecx, DWORD PTR __$EHRec$[ebp]
	mov	DWORD PTR fs:0, ecx
	pop	ecx
	pop	edi
	pop	esi
	pop	ebx
	mov	esp, ebp
	pop	ebp
	ret	0
_TEXT	ENDS
;	COMDAT text$x
text$x	SEGMENT
__unwindfunclet$??0CBasePlayer@@QAE@XZ$0:
	mov	ecx, DWORD PTR _this$[ebp]
	jmp	??1CBaseMonster@@QAE@XZ
__ehhandler$??0CBasePlayer@@QAE@XZ:
	mov	edx, DWORD PTR [esp+8]
	lea	eax, DWORD PTR [edx+12]
	mov	ecx, DWORD PTR [edx-84]
	xor	ecx, eax
	call	@__security_check_cookie@4
	mov	eax, OFFSET __ehfuncinfo$??0CBasePlayer@@QAE@XZ
	jmp	___CxxFrameHandler3
text$x	ENDS
??0CBasePlayer@@QAE@XZ ENDP				; CBasePlayer::CBasePlayer
; Function compile flags: /Odtp /ZI
; File d:\!diffusion 2020\source code 2022\client-server\server\player.h
;	COMDAT ?ObjectCaps@CBasePlayer@@UAEHXZ
_TEXT	SEGMENT
_this$ = -4						; size = 4
?ObjectCaps@CBasePlayer@@UAEHXZ PROC			; CBasePlayer::ObjectCaps, COMDAT
; _this$ = ecx

; 506  : 	virtual int	ObjectCaps( void ) { return CBaseMonster :: ObjectCaps() & ~FCAP_ACROSS_TRANSITION; }

	push	ebp
	mov	ebp, esp
	sub	esp, 68					; 00000044H
	push	ebx
	push	esi
	push	edi
	mov	DWORD PTR _this$[ebp], ecx
	mov	ecx, DWORD PTR _this$[ebp]
	call	?ObjectCaps@CBaseEntity@@UAEHXZ		; CBaseEntity::ObjectCaps
	and	eax, -3					; fffffffdH
	pop	edi
	pop	esi
	pop	ebx
	mov	esp, ebp
	pop	ebp
	ret	0
?ObjectCaps@CBasePlayer@@UAEHXZ ENDP			; CBasePlayer::ObjectCaps
_TEXT	ENDS
; Function compile flags: /Odtp /ZI
; File d:\!diffusion 2020\source code 2022\client-server\server\player.h
;	COMDAT ?IsNetClient@CBasePlayer@@UAEHXZ
_TEXT	SEGMENT
_this$ = -4						; size = 4
?IsNetClient@CBasePlayer@@UAEHXZ PROC			; CBasePlayer::IsNetClient, COMDAT
; _this$ = ecx

; 489  : 	virtual BOOL IsNetClient( void ) { return TRUE; }		// Bots should return FALSE for this, they can't receive NET messages

	push	ebp
	mov	ebp, esp
	sub	esp, 68					; 00000044H
	push	ebx
	push	esi
	push	edi
	mov	DWORD PTR _this$[ebp], ecx
	mov	eax, 1
	pop	edi
	pop	esi
	pop	ebx
	mov	esp, ebp
	pop	ebp
	ret	0
?IsNetClient@CBasePlayer@@UAEHXZ ENDP			; CBasePlayer::IsNetClient
_TEXT	ENDS
; Function compile flags: /Odtp /ZI
; File d:\!diffusion 2020\source code 2022\client-server\server\player.h
;	COMDAT ?IsPlayer@CBasePlayer@@UAEHXZ
_TEXT	SEGMENT
_this$ = -4						; size = 4
?IsPlayer@CBasePlayer@@UAEHXZ PROC			; CBasePlayer::IsPlayer, COMDAT
; _this$ = ecx

; 487  : 	virtual BOOL IsPlayer( void ) { return TRUE; }		// Spectators should return FALSE for this, they aren't "players" as far as game logic is concerned

	push	ebp
	mov	ebp, esp
	sub	esp, 68					; 00000044H
	push	ebx
	push	esi
	push	edi
	mov	DWORD PTR _this$[ebp], ecx
	mov	eax, 1
	pop	edi
	pop	esi
	pop	ebx
	mov	esp, ebp
	pop	ebp
	ret	0
?IsPlayer@CBasePlayer@@UAEHXZ ENDP			; CBasePlayer::IsPlayer
_TEXT	ENDS
; Function compile flags: /Odtp /ZI
; File d:\!diffusion 2020\source code 2022\client-server\server\player.h
;	COMDAT ?ShouldFadeOnDeath@CBasePlayer@@UAEHXZ
_TEXT	SEGMENT
_this$ = -4						; size = 4
?ShouldFadeOnDeath@CBasePlayer@@UAEHXZ PROC		; CBasePlayer::ShouldFadeOnDeath, COMDAT
; _this$ = ecx

; 486  : 	virtual BOOL ShouldFadeOnDeath( void ) { return FALSE; }

	push	ebp
	mov	ebp, esp
	sub	esp, 68					; 00000044H
	push	ebx
	push	esi
	push	edi
	mov	DWORD PTR _this$[ebp], ecx
	xor	eax, eax
	pop	edi
	pop	esi
	pop	ebx
	mov	esp, ebp
	pop	ebp
	ret	0
?ShouldFadeOnDeath@CBasePlayer@@UAEHXZ ENDP		; CBasePlayer::ShouldFadeOnDeath
_TEXT	ENDS
; Function compile flags: /Odtp /ZI
; File d:\!diffusion 2020\source code 2022\client-server\server\player.h
;	COMDAT ?IsAlive@CBasePlayer@@UAEHXZ
_TEXT	SEGMENT
tv78 = -72						; size = 4
_this$ = -4						; size = 4
?IsAlive@CBasePlayer@@UAEHXZ PROC			; CBasePlayer::IsAlive, COMDAT
; _this$ = ecx

; 485  : 	virtual BOOL IsAlive( void ) { return (pev->deadflag == DEAD_NO) && pev->health > 0; }

	push	ebp
	mov	ebp, esp
	sub	esp, 72					; 00000048H
	push	ebx
	push	esi
	push	edi
	mov	DWORD PTR _this$[ebp], ecx
	mov	eax, DWORD PTR _this$[ebp]
	mov	ecx, DWORD PTR [eax+4]
	cmp	DWORD PTR [ecx+368], 0
	jne	SHORT $LN3@IsAlive
	mov	edx, DWORD PTR _this$[ebp]
	mov	eax, DWORD PTR [edx+4]
	movss	xmm0, DWORD PTR [eax+352]
	comiss	xmm0, DWORD PTR __real@00000000
	jbe	SHORT $LN3@IsAlive
	mov	DWORD PTR tv78[ebp], 1
	jmp	SHORT $LN4@IsAlive
$LN3@IsAlive:
	mov	DWORD PTR tv78[ebp], 0
$LN4@IsAlive:
	mov	eax, DWORD PTR tv78[ebp]
	pop	edi
	pop	esi
	pop	ebx
	mov	esp, ebp
	pop	ebp
	ret	0
?IsAlive@CBasePlayer@@UAEHXZ ENDP			; CBasePlayer::IsAlive
_TEXT	ENDS
; Function compile flags: /Odtp /ZI
; File d:\!diffusion 2020\source code 2022\client-server\server\player.h
;	COMDAT ?IsSneaking@CBasePlayer@@UAEHXZ
_TEXT	SEGMENT
tv67 = -72						; size = 4
_this$ = -4						; size = 4
?IsSneaking@CBasePlayer@@UAEHXZ PROC			; CBasePlayer::IsSneaking, COMDAT
; _this$ = ecx

; 484  : 	virtual BOOL IsSneaking( void ) { return m_tSneaking <= gpGlobals->time; }

	push	ebp
	mov	ebp, esp
	sub	esp, 72					; 00000048H
	push	ebx
	push	esi
	push	edi
	mov	DWORD PTR _this$[ebp], ecx
	mov	eax, DWORD PTR ?gpGlobals@@3PAUglobalvars_t@@A ; gpGlobals
	mov	ecx, DWORD PTR _this$[ebp]
	movss	xmm0, DWORD PTR [eax]
	comiss	xmm0, DWORD PTR [ecx+3004]
	jb	SHORT $LN3@IsSneaking
	mov	DWORD PTR tv67[ebp], 1
	jmp	SHORT $LN4@IsSneaking
$LN3@IsSneaking:
	mov	DWORD PTR tv67[ebp], 0
$LN4@IsSneaking:
	mov	eax, DWORD PTR tv67[ebp]
	pop	edi
	pop	esi
	pop	ebx
	mov	esp, ebp
	pop	ebp
	ret	0
?IsSneaking@CBasePlayer@@UAEHXZ ENDP			; CBasePlayer::IsSneaking
_TEXT	ENDS
; Function compile flags: /Odtp /ZI
; File d:\!diffusion 2020\source code 2022\client-server\server\player.h
;	COMDAT ?StopSneaking@CBasePlayer@@UAEXXZ
_TEXT	SEGMENT
_this$ = -4						; size = 4
?StopSneaking@CBasePlayer@@UAEXXZ PROC			; CBasePlayer::StopSneaking, COMDAT
; _this$ = ecx

; 483  : 	virtual void StopSneaking( void ) { m_tSneaking = gpGlobals->time + 30; }

	push	ebp
	mov	ebp, esp
	sub	esp, 68					; 00000044H
	push	ebx
	push	esi
	push	edi
	mov	DWORD PTR _this$[ebp], ecx
	mov	eax, DWORD PTR ?gpGlobals@@3PAUglobalvars_t@@A ; gpGlobals
	movss	xmm0, DWORD PTR [eax]
	addss	xmm0, DWORD PTR __real@41f00000
	mov	ecx, DWORD PTR _this$[ebp]
	movss	DWORD PTR [ecx+3004], xmm0
	pop	edi
	pop	esi
	pop	ebx
	mov	esp, ebp
	pop	ebp
	ret	0
?StopSneaking@CBasePlayer@@UAEXXZ ENDP			; CBasePlayer::StopSneaking
_TEXT	ENDS
; Function compile flags: /Odtp /ZI
; File d:\!diffusion 2020\source code 2022\client-server\server\player.h
;	COMDAT ?StartSneaking@CBasePlayer@@UAEXXZ
_TEXT	SEGMENT
_this$ = -4						; size = 4
?StartSneaking@CBasePlayer@@UAEXXZ PROC			; CBasePlayer::StartSneaking, COMDAT
; _this$ = ecx

; 482  : 	virtual void StartSneaking( void ) { m_tSneaking = gpGlobals->time - 1; }

	push	ebp
	mov	ebp, esp
	sub	esp, 68					; 00000044H
	push	ebx
	push	esi
	push	edi
	mov	DWORD PTR _this$[ebp], ecx
	mov	eax, DWORD PTR ?gpGlobals@@3PAUglobalvars_t@@A ; gpGlobals
	movss	xmm0, DWORD PTR [eax]
	subss	xmm0, DWORD PTR __real@3f800000
	mov	ecx, DWORD PTR _this$[ebp]
	movss	DWORD PTR [ecx+3004], xmm0
	pop	edi
	pop	esi
	pop	ebx
	mov	esp, ebp
	pop	ebp
	ret	0
?StartSneaking@CBasePlayer@@UAEXXZ ENDP			; CBasePlayer::StartSneaking
_TEXT	ENDS
; Function compile flags: /Odtp /ZI
; File d:\!diffusion 2020\source code 2022\client-server\server\player.h
;	COMDAT ?BodyTarget@CBasePlayer@@UAE?AVVector@@ABV2@@Z
_TEXT	SEGMENT
$T1 = -92						; size = 12
$T2 = -80						; size = 12
_this$ = -4						; size = 4
___$ReturnUdt$ = 8					; size = 4
_posSrc$ = 12						; size = 4
?BodyTarget@CBasePlayer@@UAE?AVVector@@ABV2@@Z PROC	; CBasePlayer::BodyTarget, COMDAT
; _this$ = ecx

; 481  : 	virtual Vector BodyTarget( const Vector &posSrc ) { return Center( ) + pev->view_ofs * RANDOM_FLOAT( 0.5, 1.1 ); };		// position to shoot at

	push	ebp
	mov	ebp, esp
	sub	esp, 92					; 0000005cH
	push	ebx
	push	esi
	push	edi
	mov	DWORD PTR _this$[ebp], ecx
	push	ecx
	movss	xmm0, DWORD PTR __real@3f8ccccd
	movss	DWORD PTR [esp], xmm0
	push	ecx
	movss	xmm0, DWORD PTR __real@3f000000
	movss	DWORD PTR [esp], xmm0
	call	DWORD PTR ?g_engfuncs@@3Uenginefuncs_s@@A+364
	add	esp, 4
	fstp	DWORD PTR [esp]
	lea	eax, DWORD PTR $T1[ebp]
	push	eax
	mov	ecx, DWORD PTR _this$[ebp]
	mov	ecx, DWORD PTR [ecx+4]
	add	ecx, 372				; 00000174H
	call	??DVector@@QBE?AV0@M@Z			; Vector::operator*
	push	eax
	mov	edx, DWORD PTR ___$ReturnUdt$[ebp]
	push	edx
	lea	eax, DWORD PTR $T2[ebp]
	push	eax
	mov	ecx, DWORD PTR _this$[ebp]
	mov	edx, DWORD PTR [ecx]
	mov	ecx, DWORD PTR _this$[ebp]
	mov	eax, DWORD PTR [edx+336]
	call	eax
	mov	ecx, eax
	call	??HVector@@QBE?AV0@ABV0@@Z		; Vector::operator+
	mov	eax, DWORD PTR ___$ReturnUdt$[ebp]
	pop	edi
	pop	esi
	pop	ebx
	mov	esp, ebp
	pop	ebp
	ret	8
?BodyTarget@CBasePlayer@@UAE?AVVector@@ABV2@@Z ENDP	; CBasePlayer::BodyTarget
_TEXT	ENDS
; Function compile flags: /Odtp /ZI
;	COMDAT ??1CBaseMonster@@QAE@XZ
_TEXT	SEGMENT
_this$ = -4						; size = 4
??1CBaseMonster@@QAE@XZ PROC				; CBaseMonster::~CBaseMonster, COMDAT
; _this$ = ecx
	push	ebp
	mov	ebp, esp
	sub	esp, 68					; 00000044H
	push	ebx
	push	esi
	push	edi
	mov	DWORD PTR _this$[ebp], ecx
	mov	ecx, DWORD PTR _this$[ebp]
	call	??1CBaseToggle@@QAE@XZ
	pop	edi
	pop	esi
	pop	ebx
	mov	esp, ebp
	pop	ebp
	ret	0
??1CBaseMonster@@QAE@XZ ENDP				; CBaseMonster::~CBaseMonster
_TEXT	ENDS
; Function compile flags: /Odtp /ZI
;	COMDAT ??0CBaseMonster@@QAE@XZ
_TEXT	SEGMENT
_this$ = -16						; size = 4
__$EHRec$ = -12						; size = 12
??0CBaseMonster@@QAE@XZ PROC				; CBaseMonster::CBaseMonster, COMDAT
; _this$ = ecx
	push	ebp
	mov	ebp, esp
	push	-1
	push	__ehhandler$??0CBaseMonster@@QAE@XZ
	mov	eax, DWORD PTR fs:0
	push	eax
	sub	esp, 68					; 00000044H
	push	ebx
	push	esi
	push	edi
	mov	eax, DWORD PTR ___security_cookie
	xor	eax, ebp
	push	eax
	lea	eax, DWORD PTR __$EHRec$[ebp]
	mov	DWORD PTR fs:0, eax
	mov	DWORD PTR _this$[ebp], ecx
	mov	ecx, DWORD PTR _this$[ebp]
	call	??0CBaseToggle@@QAE@XZ
	mov	DWORD PTR __$EHRec$[ebp+8], 0
	mov	eax, DWORD PTR _this$[ebp]
	mov	DWORD PTR [eax], OFFSET ??_7CBaseMonster@@6B@
	push	OFFSET ??0Vector@@QAE@XZ		; Vector::Vector
	push	4
	push	12					; 0000000cH
	mov	eax, DWORD PTR _this$[ebp]
	add	eax, 2048				; 00000800H
	push	eax
	call	??_H@YGXPAXIIP6EPAX0@Z@Z
	push	OFFSET ??0WayPoint_t@@QAE@XZ
	push	8
	push	16					; 00000010H
	mov	eax, DWORD PTR _this$[ebp]
	add	eax, 2140				; 0000085cH
	push	eax
	call	??_H@YGXPAXIIP6EPAX0@Z@Z
	mov	ecx, DWORD PTR _this$[ebp]
	add	ecx, 2280				; 000008e8H
	call	??0Vector@@QAE@XZ			; Vector::Vector
	mov	ecx, DWORD PTR _this$[ebp]
	add	ecx, 2304				; 00000900H
	call	??0Vector@@QAE@XZ			; Vector::Vector
	mov	ecx, DWORD PTR _this$[ebp]
	add	ecx, 2328				; 00000918H
	call	??0Vector@@QAE@XZ			; Vector::Vector
	mov	ecx, DWORD PTR _this$[ebp]
	add	ecx, 2424				; 00000978H
	call	??0Vector@@QAE@XZ			; Vector::Vector
	mov	DWORD PTR __$EHRec$[ebp+8], -1
	mov	eax, DWORD PTR _this$[ebp]
	mov	ecx, DWORD PTR __$EHRec$[ebp]
	mov	DWORD PTR fs:0, ecx
	pop	ecx
	pop	edi
	pop	esi
	pop	ebx
	mov	esp, ebp
	pop	ebp
	ret	0
_TEXT	ENDS
;	COMDAT text$x
text$x	SEGMENT
__unwindfunclet$??0CBaseMonster@@QAE@XZ$0:
	mov	ecx, DWORD PTR _this$[ebp]
	jmp	??1CBaseToggle@@QAE@XZ
__ehhandler$??0CBaseMonster@@QAE@XZ:
	mov	edx, DWORD PTR [esp+8]
	lea	eax, DWORD PTR [edx+12]
	mov	ecx, DWORD PTR [edx-84]
	xor	ecx, eax
	call	@__security_check_cookie@4
	mov	eax, OFFSET __ehfuncinfo$??0CBaseMonster@@QAE@XZ
	jmp	___CxxFrameHandler3
text$x	ENDS
??0CBaseMonster@@QAE@XZ ENDP				; CBaseMonster::CBaseMonster
; Function compile flags: /Odtp /ZI
; File d:\!diffusion 2020\source code 2022\client-server\server\monsters\basemonster.h
;	COMDAT ?StopFollowing@CBaseMonster@@UAEXH@Z
_TEXT	SEGMENT
_this$ = -4						; size = 4
_clearSchedule$ = 8					; size = 4
?StopFollowing@CBaseMonster@@UAEXH@Z PROC		; CBaseMonster::StopFollowing, COMDAT
; _this$ = ecx

; 358  : 	virtual void StopFollowing( BOOL clearSchedule ) {}

	push	ebp
	mov	ebp, esp
	sub	esp, 68					; 00000044H
	push	ebx
	push	esi
	push	edi
	mov	DWORD PTR _this$[ebp], ecx
	pop	edi
	pop	esi
	pop	ebx
	mov	esp, ebp
	pop	ebp
	ret	4
?StopFollowing@CBaseMonster@@UAEXH@Z ENDP		; CBaseMonster::StopFollowing
_TEXT	ENDS
; Function compile flags: /Odtp /ZI
; File d:\!diffusion 2020\source code 2022\client-server\server\monsters\basemonster.h
;	COMDAT ?PainSound@CBaseMonster@@UAEXXZ
_TEXT	SEGMENT
_this$ = -4						; size = 4
?PainSound@CBaseMonster@@UAEXXZ PROC			; CBaseMonster::PainSound, COMDAT
; _this$ = ecx

; 355  : 	virtual void PainSound ( void ) { return; };

	push	ebp
	mov	ebp, esp
	sub	esp, 68					; 00000044H
	push	ebx
	push	esi
	push	edi
	mov	DWORD PTR _this$[ebp], ecx
	pop	edi
	pop	esi
	pop	ebx
	mov	esp, ebp
	pop	ebp
	ret	0
?PainSound@CBaseMonster@@UAEXXZ ENDP			; CBaseMonster::PainSound
_TEXT	ENDS
; Function compile flags: /Odtp /ZI
; File d:\!diffusion 2020\source code 2022\client-server\server\monsters\basemonster.h
;	COMDAT ?IdleSound@CBaseMonster@@UAEXXZ
_TEXT	SEGMENT
_this$ = -4						; size = 4
?IdleSound@CBaseMonster@@UAEXXZ PROC			; CBaseMonster::IdleSound, COMDAT
; _this$ = ecx

; 354  : 	virtual void IdleSound ( void ) { return; };

	push	ebp
	mov	ebp, esp
	sub	esp, 68					; 00000044H
	push	ebx
	push	esi
	push	edi
	mov	DWORD PTR _this$[ebp], ecx
	pop	edi
	pop	esi
	pop	ebx
	mov	esp, ebp
	pop	ebp
	ret	0
?IdleSound@CBaseMonster@@UAEXXZ ENDP			; CBaseMonster::IdleSound
_TEXT	ENDS
; Function compile flags: /Odtp /ZI
; File d:\!diffusion 2020\source code 2022\client-server\server\monsters\basemonster.h
;	COMDAT ?AlertSound@CBaseMonster@@UAEXXZ
_TEXT	SEGMENT
_this$ = -4						; size = 4
?AlertSound@CBaseMonster@@UAEXXZ PROC			; CBaseMonster::AlertSound, COMDAT
; _this$ = ecx

; 353  : 	virtual void AlertSound ( void ) { return; };

	push	ebp
	mov	ebp, esp
	sub	esp, 68					; 00000044H
	push	ebx
	push	esi
	push	edi
	mov	DWORD PTR _this$[ebp], ecx
	pop	edi
	pop	esi
	pop	ebx
	mov	esp, ebp
	pop	ebp
	ret	0
?AlertSound@CBaseMonster@@UAEXXZ ENDP			; CBaseMonster::AlertSound
_TEXT	ENDS
; Function compile flags: /Odtp /ZI
; File d:\!diffusion 2020\source code 2022\client-server\server\monsters\basemonster.h
;	COMDAT ?DeathSound@CBaseMonster@@UAEXXZ
_TEXT	SEGMENT
_this$ = -4						; size = 4
?DeathSound@CBaseMonster@@UAEXXZ PROC			; CBaseMonster::DeathSound, COMDAT
; _this$ = ecx

; 352  : 	virtual void DeathSound ( void ) { return; };

	push	ebp
	mov	ebp, esp
	sub	esp, 68					; 00000044H
	push	ebx
	push	esi
	push	edi
	mov	DWORD PTR _this$[ebp], ecx
	pop	edi
	pop	esi
	pop	ebx
	mov	esp, ebp
	pop	ebp
	ret	0
?DeathSound@CBaseMonster@@UAEXXZ ENDP			; CBaseMonster::DeathSound
_TEXT	ENDS
; Function compile flags: /Odtp /ZI
; File d:\!diffusion 2020\source code 2022\client-server\server\monsters\basemonster.h
;	COMDAT ?IsMoving@CBaseMonster@@UAEHXZ
_TEXT	SEGMENT
tv66 = -72						; size = 4
_this$ = -4						; size = 4
?IsMoving@CBaseMonster@@UAEHXZ PROC			; CBaseMonster::IsMoving, COMDAT
; _this$ = ecx

; 343  : 	virtual int		IsMoving( void ) { return m_movementGoal != MOVEGOAL_NONE; }

	push	ebp
	mov	ebp, esp
	sub	esp, 72					; 00000048H
	push	ebx
	push	esi
	push	edi
	mov	DWORD PTR _this$[ebp], ecx
	mov	eax, DWORD PTR _this$[ebp]
	cmp	DWORD PTR [eax+2268], 0
	je	SHORT $LN3@IsMoving
	mov	DWORD PTR tv66[ebp], 1
	jmp	SHORT $LN4@IsMoving
$LN3@IsMoving:
	mov	DWORD PTR tv66[ebp], 0
$LN4@IsMoving:
	mov	eax, DWORD PTR tv66[ebp]
	pop	edi
	pop	esi
	pop	ebx
	mov	esp, ebp
	pop	ebp
	ret	0
?IsMoving@CBaseMonster@@UAEHXZ ENDP			; CBaseMonster::IsMoving
_TEXT	ENDS
; Function compile flags: /Odtp /ZI
; File d:\!diffusion 2020\source code 2022\client-server\server\monsters\basemonster.h
;	COMDAT ?BodyTarget@CBaseMonster@@UAE?AVVector@@ABV2@@Z
_TEXT	SEGMENT
$T1 = -116						; size = 12
$T2 = -104						; size = 12
$T3 = -92						; size = 12
$T4 = -80						; size = 12
_this$ = -4						; size = 4
___$ReturnUdt$ = 8					; size = 4
_posSrc$ = 12						; size = 4
?BodyTarget@CBaseMonster@@UAE?AVVector@@ABV2@@Z PROC	; CBaseMonster::BodyTarget, COMDAT
; _this$ = ecx

; 333  : 	virtual Vector BodyTarget( const Vector &posSrc ) { return Center( ) * 0.75 + EyePosition() * 0.25; };		// position to shoot at

	push	ebp
	mov	ebp, esp
	sub	esp, 116				; 00000074H
	push	ebx
	push	esi
	push	edi
	mov	DWORD PTR _this$[ebp], ecx
	push	ecx
	movss	xmm0, DWORD PTR __real@3e800000
	movss	DWORD PTR [esp], xmm0
	lea	eax, DWORD PTR $T1[ebp]
	push	eax
	lea	ecx, DWORD PTR $T2[ebp]
	push	ecx
	mov	edx, DWORD PTR _this$[ebp]
	mov	eax, DWORD PTR [edx]
	mov	ecx, DWORD PTR _this$[ebp]
	mov	edx, DWORD PTR [eax+340]
	call	edx
	mov	ecx, eax
	call	??DVector@@QBE?AV0@M@Z			; Vector::operator*
	push	eax
	mov	eax, DWORD PTR ___$ReturnUdt$[ebp]
	push	eax
	push	ecx
	movss	xmm0, DWORD PTR __real@3f400000
	movss	DWORD PTR [esp], xmm0
	lea	ecx, DWORD PTR $T3[ebp]
	push	ecx
	lea	edx, DWORD PTR $T4[ebp]
	push	edx
	mov	eax, DWORD PTR _this$[ebp]
	mov	edx, DWORD PTR [eax]
	mov	ecx, DWORD PTR _this$[ebp]
	mov	eax, DWORD PTR [edx+336]
	call	eax
	mov	ecx, eax
	call	??DVector@@QBE?AV0@M@Z			; Vector::operator*
	mov	ecx, eax
	call	??HVector@@QBE?AV0@ABV0@@Z		; Vector::operator+
	mov	eax, DWORD PTR ___$ReturnUdt$[ebp]
	pop	edi
	pop	esi
	pop	ebx
	mov	esp, ebp
	pop	ebp
	ret	8
?BodyTarget@CBaseMonster@@UAE?AVVector@@ABV2@@Z ENDP	; CBaseMonster::BodyTarget
_TEXT	ENDS
; Function compile flags: /Odtp /ZI
; File d:\!diffusion 2020\source code 2022\client-server\server\monsters\basemonster.h
;	COMDAT ?PrescheduleThink@CBaseMonster@@UAEXXZ
_TEXT	SEGMENT
_this$ = -4						; size = 4
?PrescheduleThink@CBaseMonster@@UAEXXZ PROC		; CBaseMonster::PrescheduleThink, COMDAT
; _this$ = ecx

; 313  : 		virtual void PrescheduleThink( void ) { return; };

	push	ebp
	mov	ebp, esp
	sub	esp, 68					; 00000044H
	push	ebx
	push	esi
	push	edi
	mov	DWORD PTR _this$[ebp], ecx
	pop	edi
	pop	esi
	pop	ebx
	mov	esp, ebp
	pop	ebp
	ret	0
?PrescheduleThink@CBaseMonster@@UAEXXZ ENDP		; CBaseMonster::PrescheduleThink
_TEXT	ENDS
; Function compile flags: /Odtp /ZI
; File d:\!diffusion 2020\source code 2022\client-server\server\monsters\basemonster.h
;	COMDAT ?HearingSensitivity@CBaseMonster@@UAEMXZ
_TEXT	SEGMENT
_this$ = -4						; size = 4
?HearingSensitivity@CBaseMonster@@UAEMXZ PROC		; CBaseMonster::HearingSensitivity, COMDAT
; _this$ = ecx

; 293  : 		virtual float HearingSensitivity( void ) { return 1.0; };

	push	ebp
	mov	ebp, esp
	sub	esp, 68					; 00000044H
	push	ebx
	push	esi
	push	edi
	mov	DWORD PTR _this$[ebp], ecx
	fld1
	pop	edi
	pop	esi
	pop	ebx
	mov	esp, ebp
	pop	ebp
	ret	0
?HearingSensitivity@CBaseMonster@@UAEMXZ ENDP		; CBaseMonster::HearingSensitivity
_TEXT	ENDS
; Function compile flags: /Odtp /ZI
; File d:\!diffusion 2020\source code 2022\client-server\server\monsters\basemonster.h
;	COMDAT ?CheckAmmo@CBaseMonster@@UAEXXZ
_TEXT	SEGMENT
_this$ = -4						; size = 4
?CheckAmmo@CBaseMonster@@UAEXXZ PROC			; CBaseMonster::CheckAmmo, COMDAT
; _this$ = ecx

; 268  : 		virtual void CheckAmmo( void ) { return; };

	push	ebp
	mov	ebp, esp
	sub	esp, 68					; 00000044H
	push	ebx
	push	esi
	push	edi
	mov	DWORD PTR _this$[ebp], ecx
	pop	edi
	pop	esi
	pop	ebx
	mov	esp, ebp
	pop	ebp
	ret	0
?CheckAmmo@CBaseMonster@@UAEXXZ ENDP			; CBaseMonster::CheckAmmo
_TEXT	ENDS
; Function compile flags: /Odtp /ZI
; File d:\!diffusion 2020\source code 2022\client-server\server\monsters\basemonster.h
;	COMDAT ?CoverRadius@CBaseMonster@@UAEMXZ
_TEXT	SEGMENT
_this$ = -4						; size = 4
?CoverRadius@CBaseMonster@@UAEMXZ PROC			; CBaseMonster::CoverRadius, COMDAT
; _this$ = ecx

; 265  : 		virtual float CoverRadius( void ) { return 784; } // Default cover radius

	push	ebp
	mov	ebp, esp
	sub	esp, 68					; 00000044H
	push	ebx
	push	esi
	push	edi
	mov	DWORD PTR _this$[ebp], ecx
	fld	DWORD PTR __real@44440000
	pop	edi
	pop	esi
	pop	ebx
	mov	esp, ebp
	pop	ebp
	ret	0
?CoverRadius@CBaseMonster@@UAEMXZ ENDP			; CBaseMonster::CoverRadius
_TEXT	ENDS
; Function compile flags: /Odtp /ZI
; File d:\!diffusion 2020\source code 2022\client-server\server\monsters\basemonster.h
;	COMDAT ?FValidateCover@CBaseMonster@@UAEHABVVector@@@Z
_TEXT	SEGMENT
_this$ = -4						; size = 4
_vecCoverLocation$ = 8					; size = 4
?FValidateCover@CBaseMonster@@UAEHABVVector@@@Z PROC	; CBaseMonster::FValidateCover, COMDAT
; _this$ = ecx

; 264  : 		virtual BOOL FValidateCover ( const Vector &vecCoverLocation ) { return TRUE; };

	push	ebp
	mov	ebp, esp
	sub	esp, 68					; 00000044H
	push	ebx
	push	esi
	push	edi
	mov	DWORD PTR _this$[ebp], ecx
	mov	eax, 1
	pop	edi
	pop	esi
	pop	ebx
	mov	esp, ebp
	pop	ebp
	ret	4
?FValidateCover@CBaseMonster@@UAEHABVVector@@@Z ENDP	; CBaseMonster::FValidateCover
_TEXT	ENDS
; Function compile flags: /Odtp /ZI
; File d:\!diffusion 2020\source code 2022\client-server\server\monsters\basemonster.h
;	COMDAT ?SetYawSpeed@CBaseMonster@@UAEXXZ
_TEXT	SEGMENT
_this$ = -4						; size = 4
?SetYawSpeed@CBaseMonster@@UAEXXZ PROC			; CBaseMonster::SetYawSpeed, COMDAT
; _this$ = ecx

; 255  : 		virtual void SetYawSpeed ( void ) { return; };// allows different yaw_speeds for each activity

	push	ebp
	mov	ebp, esp
	sub	esp, 68					; 00000044H
	push	ebx
	push	esi
	push	edi
	mov	DWORD PTR _this$[ebp], ecx
	pop	edi
	pop	esi
	pop	ebx
	mov	esp, ebp
	pop	ebp
	ret	0
?SetYawSpeed@CBaseMonster@@UAEXXZ ENDP			; CBaseMonster::SetYawSpeed
_TEXT	ENDS
; Function compile flags: /Odtp /ZI
; File d:\!diffusion 2020\source code 2022\client-server\server\monsters\basemonster.h
;	COMDAT ?CanPlaySentence@CBaseMonster@@UAEHH@Z
_TEXT	SEGMENT
_this$ = -4						; size = 4
_fDisregardState$ = 8					; size = 4
?CanPlaySentence@CBaseMonster@@UAEHH@Z PROC		; CBaseMonster::CanPlaySentence, COMDAT
; _this$ = ecx

; 219  : 		virtual int CanPlaySentence( BOOL fDisregardState ) { return IsAlive(); }

	push	ebp
	mov	ebp, esp
	sub	esp, 68					; 00000044H
	push	ebx
	push	esi
	push	edi
	mov	DWORD PTR _this$[ebp], ecx
	mov	eax, DWORD PTR _this$[ebp]
	mov	edx, DWORD PTR [eax]
	mov	ecx, DWORD PTR _this$[ebp]
	mov	eax, DWORD PTR [edx+196]
	call	eax
	pop	edi
	pop	esi
	pop	ebx
	mov	esp, ebp
	pop	ebp
	ret	4
?CanPlaySentence@CBaseMonster@@UAEHH@Z ENDP		; CBaseMonster::CanPlaySentence
_TEXT	ENDS
; Function compile flags: /Odtp /ZI
; File d:\!diffusion 2020\source code 2022\client-server\server\monsters\basemonster.h
;	COMDAT ?ScheduleChange@CBaseMonster@@UAEXXZ
_TEXT	SEGMENT
_this$ = -4						; size = 4
?ScheduleChange@CBaseMonster@@UAEXXZ PROC		; CBaseMonster::ScheduleChange, COMDAT
; _this$ = ecx

; 216  : 		virtual void ScheduleChange( void ) {}

	push	ebp
	mov	ebp, esp
	sub	esp, 68					; 00000044H
	push	ebx
	push	esi
	push	edi
	mov	DWORD PTR _this$[ebp], ecx
	pop	edi
	pop	esi
	pop	ebx
	mov	esp, ebp
	pop	ebp
	ret	0
?ScheduleChange@CBaseMonster@@UAEXXZ ENDP		; CBaseMonster::ScheduleChange
_TEXT	ENDS
; Function compile flags: /Odtp /ZI
; File d:\!diffusion 2020\source code 2022\client-server\server\monsters\basemonster.h
;	COMDAT ?Stop@CBaseMonster@@UAEXXZ
_TEXT	SEGMENT
_this$ = -4						; size = 4
?Stop@CBaseMonster@@UAEXXZ PROC				; CBaseMonster::Stop, COMDAT
; _this$ = ecx

; 189  : 		virtual void Stop( void ) { m_IdealActivity = GetStoppedActivity(); }

	push	ebp
	mov	ebp, esp
	sub	esp, 68					; 00000044H
	push	ebx
	push	esi
	push	edi
	mov	DWORD PTR _this$[ebp], ecx
	mov	eax, DWORD PTR _this$[ebp]
	mov	edx, DWORD PTR [eax]
	mov	ecx, DWORD PTR _this$[ebp]
	mov	eax, DWORD PTR [edx+448]
	call	eax
	mov	ecx, DWORD PTR _this$[ebp]
	mov	DWORD PTR [ecx+2112], eax
	pop	edi
	pop	esi
	pop	ebx
	mov	esp, ebp
	pop	ebp
	ret	0
?Stop@CBaseMonster@@UAEXXZ ENDP				; CBaseMonster::Stop
_TEXT	ENDS
; Function compile flags: /Odtp /ZI
; File d:\!diffusion 2020\source code 2022\client-server\server\monsters\basemonster.h
;	COMDAT ?GetStoppedActivity@CBaseMonster@@UAE?AW4Activity@@XZ
_TEXT	SEGMENT
_this$ = -4						; size = 4
?GetStoppedActivity@CBaseMonster@@UAE?AW4Activity@@XZ PROC ; CBaseMonster::GetStoppedActivity, COMDAT
; _this$ = ecx

; 188  : 		virtual Activity GetStoppedActivity( void ) { return ACT_IDLE; }

	push	ebp
	mov	ebp, esp
	sub	esp, 68					; 00000044H
	push	ebx
	push	esi
	push	edi
	mov	DWORD PTR _this$[ebp], ecx
	mov	eax, 1
	pop	edi
	pop	esi
	pop	ebx
	mov	esp, ebp
	pop	ebp
	ret	0
?GetStoppedActivity@CBaseMonster@@UAE?AW4Activity@@XZ ENDP ; CBaseMonster::GetStoppedActivity
_TEXT	ENDS
; Function compile flags: /Odtp /ZI
; File d:\!diffusion 2020\source code 2022\client-server\server\monsters\basemonster.h
;	COMDAT ?IsAlive@CBaseMonster@@UAEHXZ
_TEXT	SEGMENT
tv71 = -72						; size = 4
_this$ = -4						; size = 4
?IsAlive@CBaseMonster@@UAEHXZ PROC			; CBaseMonster::IsAlive, COMDAT
; _this$ = ecx

; 150  : 	virtual BOOL	IsAlive( void ) { return (pev->deadflag != DEAD_DEAD); }

	push	ebp
	mov	ebp, esp
	sub	esp, 72					; 00000048H
	push	ebx
	push	esi
	push	edi
	mov	DWORD PTR _this$[ebp], ecx
	mov	eax, DWORD PTR _this$[ebp]
	mov	ecx, DWORD PTR [eax+4]
	cmp	DWORD PTR [ecx+368], 2
	je	SHORT $LN3@IsAlive
	mov	DWORD PTR tv71[ebp], 1
	jmp	SHORT $LN4@IsAlive
$LN3@IsAlive:
	mov	DWORD PTR tv71[ebp], 0
$LN4@IsAlive:
	mov	eax, DWORD PTR tv71[ebp]
	pop	edi
	pop	esi
	pop	ebx
	mov	esp, ebp
	pop	ebp
	ret	0
?IsAlive@CBaseMonster@@UAEHXZ ENDP			; CBaseMonster::IsAlive
_TEXT	ENDS
; Function compile flags: /Odtp /ZI
; File d:\!diffusion 2020\source code 2022\client-server\server\monsters\basemonster.h
;	COMDAT ?MyMonsterPointer@CBaseMonster@@UAEPAV1@XZ
_TEXT	SEGMENT
_this$ = -4						; size = 4
?MyMonsterPointer@CBaseMonster@@UAEPAV1@XZ PROC		; CBaseMonster::MyMonsterPointer, COMDAT
; _this$ = ecx

; 145  : 	virtual CBaseMonster *MyMonsterPointer( void ) { return this; }

	push	ebp
	mov	ebp, esp
	sub	esp, 68					; 00000044H
	push	ebx
	push	esi
	push	edi
	mov	DWORD PTR _this$[ebp], ecx
	mov	eax, DWORD PTR _this$[ebp]
	pop	edi
	pop	esi
	pop	ebx
	mov	esp, ebp
	pop	ebp
	ret	0
?MyMonsterPointer@CBaseMonster@@UAEPAV1@XZ ENDP		; CBaseMonster::MyMonsterPointer
_TEXT	ENDS
; Function compile flags: /Odtp /ZI
; File d:\!diffusion 2020\source code 2022\client-server\server\monsters\basemonster.h
;	COMDAT ?BloodColor@CBaseMonster@@UAEHXZ
_TEXT	SEGMENT
_this$ = -4						; size = 4
?BloodColor@CBaseMonster@@UAEHXZ PROC			; CBaseMonster::BloodColor, COMDAT
; _this$ = ecx

; 143  : 	virtual int	 BloodColor( void ) { return m_bloodColor; }

	push	ebp
	mov	ebp, esp
	sub	esp, 68					; 00000044H
	push	ebx
	push	esi
	push	edi
	mov	DWORD PTR _this$[ebp], ecx
	mov	eax, DWORD PTR _this$[ebp]
	mov	eax, DWORD PTR [eax+2368]
	pop	edi
	pop	esi
	pop	ebx
	mov	esp, ebp
	pop	ebp
	ret	0
?BloodColor@CBaseMonster@@UAEHXZ ENDP			; CBaseMonster::BloodColor
_TEXT	ENDS
; Function compile flags: /Odtp /ZI
; File d:\!diffusion 2020\source code 2022\client-server\server\monsters\basemonster.h
;	COMDAT ?Classify@CBaseMonster@@UAEHXZ
_TEXT	SEGMENT
tv67 = -72						; size = 4
_this$ = -4						; size = 4
?Classify@CBaseMonster@@UAEHXZ PROC			; CBaseMonster::Classify, COMDAT
; _this$ = ecx

; 141  : 	virtual int	Classify( void ) { return m_iClass ? m_iClass : CLASS_NONE; }

	push	ebp
	mov	ebp, esp
	sub	esp, 72					; 00000048H
	push	ebx
	push	esi
	push	edi
	mov	DWORD PTR _this$[ebp], ecx
	mov	eax, DWORD PTR _this$[ebp]
	cmp	DWORD PTR [eax+2464], 0
	je	SHORT $LN3@Classify
	mov	ecx, DWORD PTR _this$[ebp]
	mov	edx, DWORD PTR [ecx+2464]
	mov	DWORD PTR tv67[ebp], edx
	jmp	SHORT $LN4@Classify
$LN3@Classify:
	mov	DWORD PTR tv67[ebp], 0
$LN4@Classify:
	mov	eax, DWORD PTR tv67[ebp]
	pop	edi
	pop	esi
	pop	ebx
	mov	esp, ebp
	pop	ebp
	ret	0
?Classify@CBaseMonster@@UAEHXZ ENDP			; CBaseMonster::Classify
_TEXT	ENDS
; Function compile flags: /Odtp /ZI
;	COMDAT ??1CBaseToggle@@QAE@XZ
_TEXT	SEGMENT
_this$ = -4						; size = 4
??1CBaseToggle@@QAE@XZ PROC				; CBaseToggle::~CBaseToggle, COMDAT
; _this$ = ecx
	push	ebp
	mov	ebp, esp
	sub	esp, 68					; 00000044H
	push	ebx
	push	esi
	push	edi
	mov	DWORD PTR _this$[ebp], ecx
	mov	ecx, DWORD PTR _this$[ebp]
	call	??1CBaseAnimating@@QAE@XZ
	pop	edi
	pop	esi
	pop	ebx
	mov	esp, ebp
	pop	ebp
	ret	0
??1CBaseToggle@@QAE@XZ ENDP				; CBaseToggle::~CBaseToggle
_TEXT	ENDS
; Function compile flags: /Odtp /ZI
;	COMDAT ??0CBaseToggle@@QAE@XZ
_TEXT	SEGMENT
_this$ = -16						; size = 4
__$EHRec$ = -12						; size = 12
??0CBaseToggle@@QAE@XZ PROC				; CBaseToggle::CBaseToggle, COMDAT
; _this$ = ecx
	push	ebp
	mov	ebp, esp
	push	-1
	push	__ehhandler$??0CBaseToggle@@QAE@XZ
	mov	eax, DWORD PTR fs:0
	push	eax
	sub	esp, 68					; 00000044H
	push	ebx
	push	esi
	push	edi
	mov	eax, DWORD PTR ___security_cookie
	xor	eax, ebp
	push	eax
	lea	eax, DWORD PTR __$EHRec$[ebp]
	mov	DWORD PTR fs:0, eax
	mov	DWORD PTR _this$[ebp], ecx
	mov	ecx, DWORD PTR _this$[ebp]
	call	??0CBaseAnimating@@QAE@XZ
	mov	DWORD PTR __$EHRec$[ebp+8], 0
	mov	eax, DWORD PTR _this$[ebp]
	mov	DWORD PTR [eax], OFFSET ??_7CBaseToggle@@6B@
	mov	ecx, DWORD PTR _this$[ebp]
	add	ecx, 1880				; 00000758H
	call	??0Vector@@QAE@XZ			; Vector::Vector
	mov	ecx, DWORD PTR _this$[ebp]
	add	ecx, 1892				; 00000764H
	call	??0Vector@@QAE@XZ			; Vector::Vector
	mov	ecx, DWORD PTR _this$[ebp]
	add	ecx, 1904				; 00000770H
	call	??0Vector@@QAE@XZ			; Vector::Vector
	mov	ecx, DWORD PTR _this$[ebp]
	add	ecx, 1916				; 0000077cH
	call	??0Vector@@QAE@XZ			; Vector::Vector
	mov	ecx, DWORD PTR _this$[ebp]
	add	ecx, 1928				; 00000788H
	call	??0Vector@@QAE@XZ			; Vector::Vector
	mov	ecx, DWORD PTR _this$[ebp]
	add	ecx, 1952				; 000007a0H
	call	??0Vector@@QAE@XZ			; Vector::Vector
	mov	ecx, DWORD PTR _this$[ebp]
	add	ecx, 1964				; 000007acH
	call	??0Vector@@QAE@XZ			; Vector::Vector
	mov	ecx, DWORD PTR _this$[ebp]
	add	ecx, 1976				; 000007b8H
	call	??0Vector@@QAE@XZ			; Vector::Vector
	mov	DWORD PTR __$EHRec$[ebp+8], -1
	mov	eax, DWORD PTR _this$[ebp]
	mov	ecx, DWORD PTR __$EHRec$[ebp]
	mov	DWORD PTR fs:0, ecx
	pop	ecx
	pop	edi
	pop	esi
	pop	ebx
	mov	esp, ebp
	pop	ebp
	ret	0
_TEXT	ENDS
;	COMDAT text$x
text$x	SEGMENT
__unwindfunclet$??0CBaseToggle@@QAE@XZ$0:
	mov	ecx, DWORD PTR _this$[ebp]
	jmp	??1CBaseAnimating@@QAE@XZ
__ehhandler$??0CBaseToggle@@QAE@XZ:
	mov	edx, DWORD PTR [esp+8]
	lea	eax, DWORD PTR [edx+12]
	mov	ecx, DWORD PTR [edx-84]
	xor	ecx, eax
	call	@__security_check_cookie@4
	mov	eax, OFFSET __ehfuncinfo$??0CBaseToggle@@QAE@XZ
	jmp	___CxxFrameHandler3
text$x	ENDS
??0CBaseToggle@@QAE@XZ ENDP				; CBaseToggle::CBaseToggle
; Function compile flags: /Odtp /ZI
; File d:\!diffusion 2020\source code 2022\client-server\server\cbase.h
;	COMDAT ?GetDelay@CBaseToggle@@UAEMXZ
_TEXT	SEGMENT
_this$ = -4						; size = 4
?GetDelay@CBaseToggle@@UAEMXZ PROC			; CBaseToggle::GetDelay, COMDAT
; _this$ = ecx

; 1031 : 	virtual float GetDelay( void ) { return m_flWait; }

	push	ebp
	mov	ebp, esp
	sub	esp, 68					; 00000044H
	push	ebx
	push	esi
	push	edi
	mov	DWORD PTR _this$[ebp], ecx
	mov	eax, DWORD PTR _this$[ebp]
	fld	DWORD PTR [eax+1804]
	pop	edi
	pop	esi
	pop	ebx
	mov	esp, ebp
	pop	ebp
	ret	0
?GetDelay@CBaseToggle@@UAEMXZ ENDP			; CBaseToggle::GetDelay
_TEXT	ENDS
; Function compile flags: /Odtp /ZI
; File d:\!diffusion 2020\source code 2022\client-server\server\cbase.h
;	COMDAT ?GetToggleState@CBaseToggle@@UAEHXZ
_TEXT	SEGMENT
_this$ = -4						; size = 4
?GetToggleState@CBaseToggle@@UAEHXZ PROC		; CBaseToggle::GetToggleState, COMDAT
; _this$ = ecx

; 1030 : 	virtual int GetToggleState( void ) { return m_toggle_state; }

	push	ebp
	mov	ebp, esp
	sub	esp, 68					; 00000044H
	push	ebx
	push	esi
	push	edi
	mov	DWORD PTR _this$[ebp], ecx
	mov	eax, DWORD PTR _this$[ebp]
	mov	eax, DWORD PTR [eax+1856]
	pop	edi
	pop	esi
	pop	ebx
	mov	esp, ebp
	pop	ebp
	ret	0
?GetToggleState@CBaseToggle@@UAEHXZ ENDP		; CBaseToggle::GetToggleState
_TEXT	ENDS
; Function compile flags: /Odtp /ZI
;	COMDAT ??1CBaseAnimating@@QAE@XZ
_TEXT	SEGMENT
_this$ = -4						; size = 4
??1CBaseAnimating@@QAE@XZ PROC				; CBaseAnimating::~CBaseAnimating, COMDAT
; _this$ = ecx
	push	ebp
	mov	ebp, esp
	sub	esp, 68					; 00000044H
	push	ebx
	push	esi
	push	edi
	mov	DWORD PTR _this$[ebp], ecx
	mov	ecx, DWORD PTR _this$[ebp]
	call	??1CBaseDelay@@QAE@XZ
	pop	edi
	pop	esi
	pop	ebx
	mov	esp, ebp
	pop	ebp
	ret	0
??1CBaseAnimating@@QAE@XZ ENDP				; CBaseAnimating::~CBaseAnimating
_TEXT	ENDS
; Function compile flags: /Odtp /ZI
;	COMDAT ??0CBaseAnimating@@QAE@XZ
_TEXT	SEGMENT
_this$ = -4						; size = 4
??0CBaseAnimating@@QAE@XZ PROC				; CBaseAnimating::CBaseAnimating, COMDAT
; _this$ = ecx
	push	ebp
	mov	ebp, esp
	sub	esp, 68					; 00000044H
	push	ebx
	push	esi
	push	edi
	mov	DWORD PTR _this$[ebp], ecx
	mov	ecx, DWORD PTR _this$[ebp]
	call	??0CBaseDelay@@QAE@XZ
	mov	eax, DWORD PTR _this$[ebp]
	mov	DWORD PTR [eax], OFFSET ??_7CBaseAnimating@@6B@
	mov	eax, DWORD PTR _this$[ebp]
	pop	edi
	pop	esi
	pop	ebx
	mov	esp, ebp
	pop	ebp
	ret	0
??0CBaseAnimating@@QAE@XZ ENDP				; CBaseAnimating::CBaseAnimating
_TEXT	ENDS
; Function compile flags: /Odtp /ZI
; File d:\!diffusion 2020\source code 2022\client-server\server\cbase.h
;	COMDAT ?HandleAnimEvent@CBaseAnimating@@UAEXPAUMonsterEvent_t@@@Z
_TEXT	SEGMENT
_this$ = -4						; size = 4
_pEvent$ = 8						; size = 4
?HandleAnimEvent@CBaseAnimating@@UAEXPAUMonsterEvent_t@@@Z PROC ; CBaseAnimating::HandleAnimEvent, COMDAT
; _this$ = ecx

; 961  : 	virtual void HandleAnimEvent( MonsterEvent_t *pEvent ) { return; };

	push	ebp
	mov	ebp, esp
	sub	esp, 68					; 00000044H
	push	ebx
	push	esi
	push	edi
	mov	DWORD PTR _this$[ebp], ecx
	pop	edi
	pop	esi
	pop	ebx
	mov	esp, ebp
	pop	ebp
	ret	4
?HandleAnimEvent@CBaseAnimating@@UAEXPAUMonsterEvent_t@@@Z ENDP ; CBaseAnimating::HandleAnimEvent
_TEXT	ENDS
; Function compile flags: /Odtp /ZI
;	COMDAT ??1CBaseDelay@@QAE@XZ
_TEXT	SEGMENT
_this$ = -4						; size = 4
??1CBaseDelay@@QAE@XZ PROC				; CBaseDelay::~CBaseDelay, COMDAT
; _this$ = ecx
	push	ebp
	mov	ebp, esp
	sub	esp, 68					; 00000044H
	push	ebx
	push	esi
	push	edi
	mov	DWORD PTR _this$[ebp], ecx
	mov	ecx, DWORD PTR _this$[ebp]
	call	??1CBaseEntity@@QAE@XZ
	pop	edi
	pop	esi
	pop	ebx
	mov	esp, ebp
	pop	ebp
	ret	0
??1CBaseDelay@@QAE@XZ ENDP				; CBaseDelay::~CBaseDelay
_TEXT	ENDS
; Function compile flags: /Odtp /ZI
;	COMDAT ??0CBaseDelay@@QAE@XZ
_TEXT	SEGMENT
_this$ = -4						; size = 4
??0CBaseDelay@@QAE@XZ PROC				; CBaseDelay::CBaseDelay, COMDAT
; _this$ = ecx
	push	ebp
	mov	ebp, esp
	sub	esp, 68					; 00000044H
	push	ebx
	push	esi
	push	edi
	mov	DWORD PTR _this$[ebp], ecx
	mov	ecx, DWORD PTR _this$[ebp]
	call	??0CBaseEntity@@QAE@XZ
	mov	eax, DWORD PTR _this$[ebp]
	mov	DWORD PTR [eax], OFFSET ??_7CBaseDelay@@6B@
	mov	eax, DWORD PTR _this$[ebp]
	pop	edi
	pop	esi
	pop	ebx
	mov	esp, ebp
	pop	ebp
	ret	0
??0CBaseDelay@@QAE@XZ ENDP				; CBaseDelay::CBaseDelay
_TEXT	ENDS
; Function compile flags: /Odtp /ZI
; File d:\!diffusion 2020\source code 2022\client-server\server\cbase.h
;	COMDAT ?GetState@CBaseDelay@@UAE?AW4STATE@@XZ
_TEXT	SEGMENT
_this$ = -4						; size = 4
?GetState@CBaseDelay@@UAE?AW4STATE@@XZ PROC		; CBaseDelay::GetState, COMDAT
; _this$ = ecx

; 933  : 	virtual STATE GetState( void ) { return m_iState; };

	push	ebp
	mov	ebp, esp
	sub	esp, 68					; 00000044H
	push	ebx
	push	esi
	push	edi
	mov	DWORD PTR _this$[ebp], ecx
	mov	eax, DWORD PTR _this$[ebp]
	mov	eax, DWORD PTR [eax+1828]
	pop	edi
	pop	esi
	pop	ebx
	mov	esp, ebp
	pop	ebp
	ret	0
?GetState@CBaseDelay@@UAE?AW4STATE@@XZ ENDP		; CBaseDelay::GetState
_TEXT	ENDS
; Function compile flags: /Odtp /ZI
; File d:\!diffusion 2020\source code 2022\client-server\server\sound.cpp
;	COMDAT ?PlayLockSounds@@YAXPAUentvars_s@@PAUlocksounds@@HH@Z
_TEXT	SEGMENT
tv169 = -104						; size = 4
tv160 = -104						; size = 4
tv80 = -104						; size = 4
tv71 = -104						; size = 4
tv208 = -101						; size = 1
tv151 = -101						; size = 1
_iprev$1 = -36						; size = 4
_fvol$2 = -32						; size = 4
_fplaysentence$3 = -28					; size = 4
_fplaysound$4 = -24					; size = 4
_iprev$5 = -20						; size = 4
_fvol$6 = -16						; size = 4
_fplaysentence$7 = -12					; size = 4
_fplaysound$8 = -8					; size = 4
_flsoundwait$ = -4					; size = 4
_pev$ = 8						; size = 4
_pls$ = 12						; size = 4
_flocked$ = 16						; size = 4
_fbutton$ = 20						; size = 4
?PlayLockSounds@@YAXPAUentvars_s@@PAUlocksounds@@HH@Z PROC ; PlayLockSounds, COMDAT

; 1607 : {

	push	ebp
	mov	ebp, esp
	sub	esp, 104				; 00000068H
	push	ebx
	push	esi
	push	edi

; 1608 : 	// LOCKED SOUND
; 1609 : 	
; 1610 : 	// CONSIDER: consolidate the locksound_t struct (all entries are duplicates for lock/unlock)
; 1611 : 	// CONSIDER: and condense this code.
; 1612 : 	float flsoundwait;
; 1613 : 
; 1614 : 	if (fbutton)

	cmp	DWORD PTR _fbutton$[ebp], 0
	je	SHORT $LN2@PlayLockSo

; 1615 : 		flsoundwait = BUTTON_SOUNDWAIT;

	movss	xmm0, DWORD PTR __real@3f000000
	movss	DWORD PTR _flsoundwait$[ebp], xmm0

; 1616 : 	else

	jmp	SHORT $LN3@PlayLockSo
$LN2@PlayLockSo:

; 1617 : 		flsoundwait = DOOR_SOUNDWAIT;

	movss	xmm0, DWORD PTR __real@40400000
	movss	DWORD PTR _flsoundwait$[ebp], xmm0
$LN3@PlayLockSo:

; 1618 : 
; 1619 : 	if (flocked)

	cmp	DWORD PTR _flocked$[ebp], 0
	je	$LN4@PlayLockSo

; 1620 : 	{
; 1621 : 		int fplaysound = (pls->sLockedSound && gpGlobals->time > pls->flwaitSound);

	mov	eax, DWORD PTR _pls$[ebp]
	cmp	DWORD PTR [eax], 0
	je	SHORT $LN15@PlayLockSo
	mov	ecx, DWORD PTR ?gpGlobals@@3PAUglobalvars_t@@A ; gpGlobals
	mov	edx, DWORD PTR _pls$[ebp]
	movss	xmm0, DWORD PTR [ecx]
	comiss	xmm0, DWORD PTR [edx+24]
	jbe	SHORT $LN15@PlayLockSo
	mov	DWORD PTR tv71[ebp], 1
	jmp	SHORT $LN16@PlayLockSo
$LN15@PlayLockSo:
	mov	DWORD PTR tv71[ebp], 0
$LN16@PlayLockSo:
	mov	eax, DWORD PTR tv71[ebp]
	mov	DWORD PTR _fplaysound$8[ebp], eax

; 1622 : 		int fplaysentence = (pls->sLockedSentence && !pls->bEOFLocked && gpGlobals->time > pls->flwaitSentence);

	mov	eax, DWORD PTR _pls$[ebp]
	cmp	DWORD PTR [eax+4], 0
	je	SHORT $LN17@PlayLockSo
	mov	ecx, DWORD PTR _pls$[ebp]
	movzx	edx, BYTE PTR [ecx+32]
	test	edx, edx
	jne	SHORT $LN17@PlayLockSo
	mov	eax, DWORD PTR ?gpGlobals@@3PAUglobalvars_t@@A ; gpGlobals
	mov	ecx, DWORD PTR _pls$[ebp]
	movss	xmm0, DWORD PTR [eax]
	comiss	xmm0, DWORD PTR [ecx+28]
	jbe	SHORT $LN17@PlayLockSo
	mov	DWORD PTR tv80[ebp], 1
	jmp	SHORT $LN18@PlayLockSo
$LN17@PlayLockSo:
	mov	DWORD PTR tv80[ebp], 0
$LN18@PlayLockSo:
	mov	edx, DWORD PTR tv80[ebp]
	mov	DWORD PTR _fplaysentence$7[ebp], edx

; 1623 : 		float fvol;
; 1624 : 
; 1625 : 		if (fplaysound && fplaysentence)

	cmp	DWORD PTR _fplaysound$8[ebp], 0
	je	SHORT $LN6@PlayLockSo
	cmp	DWORD PTR _fplaysentence$7[ebp], 0
	je	SHORT $LN6@PlayLockSo

; 1626 : 			fvol = 0.25;

	movss	xmm0, DWORD PTR __real@3e800000
	movss	DWORD PTR _fvol$6[ebp], xmm0

; 1627 : 		else

	jmp	SHORT $LN7@PlayLockSo
$LN6@PlayLockSo:

; 1628 : 			fvol = 1.0;

	movss	xmm0, DWORD PTR __real@3f800000
	movss	DWORD PTR _fvol$6[ebp], xmm0
$LN7@PlayLockSo:

; 1629 : 
; 1630 : 		// if there is a locked sound, and we've debounced, play sound
; 1631 : 		if (fplaysound)

	cmp	DWORD PTR _fplaysound$8[ebp], 0
	je	SHORT $LN8@PlayLockSo

; 1632 : 		{
; 1633 : 			// play 'door locked' sound
; 1634 : 			EMIT_SOUND(ENT(pev), CHAN_ITEM, (char*)STRING(pls->sLockedSound), fvol, ATTN_NORM);

	push	ecx
	movss	xmm0, DWORD PTR __real@3f4ccccd
	movss	DWORD PTR [esp], xmm0
	push	ecx
	movss	xmm0, DWORD PTR _fvol$6[ebp]
	movss	DWORD PTR [esp], xmm0
	mov	eax, DWORD PTR _pls$[ebp]
	mov	ecx, DWORD PTR [eax]
	push	ecx
	call	DWORD PTR ?g_engfuncs@@3Uenginefuncs_s@@A+264
	add	esp, 4
	push	eax
	push	3
	mov	edx, DWORD PTR _pev$[ebp]
	push	edx
	call	?ENT@@YAPAUedict_s@@PBUentvars_s@@@Z	; ENT
	add	esp, 4
	push	eax
	call	?EMIT_SOUND@@YAXPAUedict_s@@HPBDMM@Z	; EMIT_SOUND
	add	esp, 20					; 00000014H

; 1635 : 			pls->flwaitSound = gpGlobals->time + flsoundwait;

	mov	eax, DWORD PTR ?gpGlobals@@3PAUglobalvars_t@@A ; gpGlobals
	movss	xmm0, DWORD PTR [eax]
	addss	xmm0, DWORD PTR _flsoundwait$[ebp]
	mov	ecx, DWORD PTR _pls$[ebp]
	movss	DWORD PTR [ecx+24], xmm0
$LN8@PlayLockSo:

; 1636 : 		}
; 1637 : 
; 1638 : 		// if there is a sentence, we've not played all in list, and we've debounced, play sound
; 1639 : 		if (fplaysentence)

	cmp	DWORD PTR _fplaysentence$7[ebp], 0
	je	$LN9@PlayLockSo

; 1640 : 		{
; 1641 : 			// play next 'door locked' sentence in group
; 1642 : 			int iprev = pls->iLockedSentence;

	mov	eax, DWORD PTR _pls$[ebp]
	mov	ecx, DWORD PTR [eax+16]
	mov	DWORD PTR _iprev$5[ebp], ecx

; 1643 : 			
; 1644 : 			pls->iLockedSentence = SENTENCEG_PlaySequentialSz(ENT(pev), STRING(pls->sLockedSentence), 

	push	0
	mov	eax, DWORD PTR _pls$[ebp]
	mov	ecx, DWORD PTR [eax+16]
	push	ecx
	push	100					; 00000064H
	push	0
	push	ecx
	movss	xmm0, DWORD PTR __real@3f4ccccd
	movss	DWORD PTR [esp], xmm0
	push	ecx
	movss	xmm0, DWORD PTR __real@3f59999a
	movss	DWORD PTR [esp], xmm0
	mov	edx, DWORD PTR _pls$[ebp]
	mov	eax, DWORD PTR [edx+4]
	push	eax
	call	DWORD PTR ?g_engfuncs@@3Uenginefuncs_s@@A+264
	add	esp, 4
	push	eax
	mov	ecx, DWORD PTR _pev$[ebp]
	push	ecx
	call	?ENT@@YAPAUedict_s@@PBUentvars_s@@@Z	; ENT
	add	esp, 4
	push	eax
	call	?SENTENCEG_PlaySequentialSz@@YAHPAUedict_s@@PBDMMHHHH@Z ; SENTENCEG_PlaySequentialSz
	add	esp, 32					; 00000020H
	mov	edx, DWORD PTR _pls$[ebp]
	mov	DWORD PTR [edx+16], eax

; 1645 : 					  0.85, ATTN_NORM, 0, 100, pls->iLockedSentence, FALSE);
; 1646 : 			pls->iUnlockedSentence = 0;

	mov	eax, DWORD PTR _pls$[ebp]
	mov	DWORD PTR [eax+20], 0

; 1647 : 
; 1648 : 			// make sure we don't keep calling last sentence in list
; 1649 : 			pls->bEOFLocked = (iprev == pls->iLockedSentence);

	mov	eax, DWORD PTR _pls$[ebp]
	mov	ecx, DWORD PTR _iprev$5[ebp]
	cmp	ecx, DWORD PTR [eax+16]
	jne	SHORT $LN19@PlayLockSo
	mov	BYTE PTR tv151[ebp], 1
	jmp	SHORT $LN20@PlayLockSo
$LN19@PlayLockSo:
	mov	BYTE PTR tv151[ebp], 0
$LN20@PlayLockSo:
	mov	edx, DWORD PTR _pls$[ebp]
	mov	al, BYTE PTR tv151[ebp]
	mov	BYTE PTR [edx+32], al

; 1650 : 		
; 1651 : 			pls->flwaitSentence = gpGlobals->time + DOOR_SENTENCEWAIT;

	mov	eax, DWORD PTR ?gpGlobals@@3PAUglobalvars_t@@A ; gpGlobals
	movss	xmm0, DWORD PTR [eax]
	addss	xmm0, DWORD PTR __real@40c00000
	mov	ecx, DWORD PTR _pls$[ebp]
	movss	DWORD PTR [ecx+28], xmm0
$LN9@PlayLockSo:

; 1652 : 		}
; 1653 : 	}
; 1654 : 	else

	jmp	$LN13@PlayLockSo
$LN4@PlayLockSo:

; 1655 : 	{
; 1656 : 		// UNLOCKED SOUND
; 1657 : 
; 1658 : 		int fplaysound = (pls->sUnlockedSound && gpGlobals->time > pls->flwaitSound);

	mov	eax, DWORD PTR _pls$[ebp]
	cmp	DWORD PTR [eax+8], 0
	je	SHORT $LN21@PlayLockSo
	mov	ecx, DWORD PTR ?gpGlobals@@3PAUglobalvars_t@@A ; gpGlobals
	mov	edx, DWORD PTR _pls$[ebp]
	movss	xmm0, DWORD PTR [ecx]
	comiss	xmm0, DWORD PTR [edx+24]
	jbe	SHORT $LN21@PlayLockSo
	mov	DWORD PTR tv160[ebp], 1
	jmp	SHORT $LN22@PlayLockSo
$LN21@PlayLockSo:
	mov	DWORD PTR tv160[ebp], 0
$LN22@PlayLockSo:
	mov	eax, DWORD PTR tv160[ebp]
	mov	DWORD PTR _fplaysound$4[ebp], eax

; 1659 : 		int fplaysentence = (pls->sUnlockedSentence && !pls->bEOFUnlocked && gpGlobals->time > pls->flwaitSentence);

	mov	eax, DWORD PTR _pls$[ebp]
	cmp	DWORD PTR [eax+12], 0
	je	SHORT $LN23@PlayLockSo
	mov	ecx, DWORD PTR _pls$[ebp]
	movzx	edx, BYTE PTR [ecx+33]
	test	edx, edx
	jne	SHORT $LN23@PlayLockSo
	mov	eax, DWORD PTR ?gpGlobals@@3PAUglobalvars_t@@A ; gpGlobals
	mov	ecx, DWORD PTR _pls$[ebp]
	movss	xmm0, DWORD PTR [eax]
	comiss	xmm0, DWORD PTR [ecx+28]
	jbe	SHORT $LN23@PlayLockSo
	mov	DWORD PTR tv169[ebp], 1
	jmp	SHORT $LN24@PlayLockSo
$LN23@PlayLockSo:
	mov	DWORD PTR tv169[ebp], 0
$LN24@PlayLockSo:
	mov	edx, DWORD PTR tv169[ebp]
	mov	DWORD PTR _fplaysentence$3[ebp], edx

; 1660 : 		float fvol;
; 1661 : 
; 1662 : 		// if playing both sentence and sound, lower sound volume so we hear sentence
; 1663 : 		if (fplaysound && fplaysentence)

	cmp	DWORD PTR _fplaysound$4[ebp], 0
	je	SHORT $LN10@PlayLockSo
	cmp	DWORD PTR _fplaysentence$3[ebp], 0
	je	SHORT $LN10@PlayLockSo

; 1664 : 			fvol = 0.25;

	movss	xmm0, DWORD PTR __real@3e800000
	movss	DWORD PTR _fvol$2[ebp], xmm0

; 1665 : 		else

	jmp	SHORT $LN11@PlayLockSo
$LN10@PlayLockSo:

; 1666 : 			fvol = 1.0;

	movss	xmm0, DWORD PTR __real@3f800000
	movss	DWORD PTR _fvol$2[ebp], xmm0
$LN11@PlayLockSo:

; 1667 : 
; 1668 : 		// play 'door unlocked' sound if set
; 1669 : 		if (fplaysound)

	cmp	DWORD PTR _fplaysound$4[ebp], 0
	je	SHORT $LN12@PlayLockSo

; 1670 : 		{
; 1671 : 			EMIT_SOUND(ENT(pev), CHAN_ITEM, (char*)STRING(pls->sUnlockedSound), fvol, ATTN_NORM);

	push	ecx
	movss	xmm0, DWORD PTR __real@3f4ccccd
	movss	DWORD PTR [esp], xmm0
	push	ecx
	movss	xmm0, DWORD PTR _fvol$2[ebp]
	movss	DWORD PTR [esp], xmm0
	mov	eax, DWORD PTR _pls$[ebp]
	mov	ecx, DWORD PTR [eax+8]
	push	ecx
	call	DWORD PTR ?g_engfuncs@@3Uenginefuncs_s@@A+264
	add	esp, 4
	push	eax
	push	3
	mov	edx, DWORD PTR _pev$[ebp]
	push	edx
	call	?ENT@@YAPAUedict_s@@PBUentvars_s@@@Z	; ENT
	add	esp, 4
	push	eax
	call	?EMIT_SOUND@@YAXPAUedict_s@@HPBDMM@Z	; EMIT_SOUND
	add	esp, 20					; 00000014H

; 1672 : 			pls->flwaitSound = gpGlobals->time + flsoundwait;

	mov	eax, DWORD PTR ?gpGlobals@@3PAUglobalvars_t@@A ; gpGlobals
	movss	xmm0, DWORD PTR [eax]
	addss	xmm0, DWORD PTR _flsoundwait$[ebp]
	mov	ecx, DWORD PTR _pls$[ebp]
	movss	DWORD PTR [ecx+24], xmm0
$LN12@PlayLockSo:

; 1673 : 		}
; 1674 : 
; 1675 : 		// play next 'door unlocked' sentence in group
; 1676 : 		if (fplaysentence)

	cmp	DWORD PTR _fplaysentence$3[ebp], 0
	je	$LN13@PlayLockSo

; 1677 : 		{
; 1678 : 			int iprev = pls->iUnlockedSentence;

	mov	eax, DWORD PTR _pls$[ebp]
	mov	ecx, DWORD PTR [eax+20]
	mov	DWORD PTR _iprev$1[ebp], ecx

; 1679 : 			
; 1680 : 			pls->iUnlockedSentence = SENTENCEG_PlaySequentialSz(ENT(pev), STRING(pls->sUnlockedSentence), 

	push	0
	mov	eax, DWORD PTR _pls$[ebp]
	mov	ecx, DWORD PTR [eax+20]
	push	ecx
	push	100					; 00000064H
	push	0
	push	ecx
	movss	xmm0, DWORD PTR __real@3f4ccccd
	movss	DWORD PTR [esp], xmm0
	push	ecx
	movss	xmm0, DWORD PTR __real@3f59999a
	movss	DWORD PTR [esp], xmm0
	mov	edx, DWORD PTR _pls$[ebp]
	mov	eax, DWORD PTR [edx+12]
	push	eax
	call	DWORD PTR ?g_engfuncs@@3Uenginefuncs_s@@A+264
	add	esp, 4
	push	eax
	mov	ecx, DWORD PTR _pev$[ebp]
	push	ecx
	call	?ENT@@YAPAUedict_s@@PBUentvars_s@@@Z	; ENT
	add	esp, 4
	push	eax
	call	?SENTENCEG_PlaySequentialSz@@YAHPAUedict_s@@PBDMMHHHH@Z ; SENTENCEG_PlaySequentialSz
	add	esp, 32					; 00000020H
	mov	edx, DWORD PTR _pls$[ebp]
	mov	DWORD PTR [edx+20], eax

; 1681 : 					  0.85, ATTN_NORM, 0, 100, pls->iUnlockedSentence, FALSE);
; 1682 : 			pls->iLockedSentence = 0;

	mov	eax, DWORD PTR _pls$[ebp]
	mov	DWORD PTR [eax+16], 0

; 1683 : 
; 1684 : 			// make sure we don't keep calling last sentence in list
; 1685 : 			pls->bEOFUnlocked = (iprev == pls->iUnlockedSentence);

	mov	eax, DWORD PTR _pls$[ebp]
	mov	ecx, DWORD PTR _iprev$1[ebp]
	cmp	ecx, DWORD PTR [eax+20]
	jne	SHORT $LN25@PlayLockSo
	mov	BYTE PTR tv208[ebp], 1
	jmp	SHORT $LN26@PlayLockSo
$LN25@PlayLockSo:
	mov	BYTE PTR tv208[ebp], 0
$LN26@PlayLockSo:
	mov	edx, DWORD PTR _pls$[ebp]
	mov	al, BYTE PTR tv208[ebp]
	mov	BYTE PTR [edx+33], al

; 1686 : 			pls->flwaitSentence = gpGlobals->time + DOOR_SENTENCEWAIT;

	mov	eax, DWORD PTR ?gpGlobals@@3PAUglobalvars_t@@A ; gpGlobals
	movss	xmm0, DWORD PTR [eax]
	addss	xmm0, DWORD PTR __real@40c00000
	mov	ecx, DWORD PTR _pls$[ebp]
	movss	DWORD PTR [ecx+28], xmm0
$LN13@PlayLockSo:

; 1687 : 		}
; 1688 : 	}
; 1689 : }

	pop	edi
	pop	esi
	pop	ebx
	mov	esp, ebp
	pop	ebp
	ret	0
?PlayLockSounds@@YAXPAUentvars_s@@PAUlocksounds@@HH@Z ENDP ; PlayLockSounds
_TEXT	ENDS
; Function compile flags: /Odtp /ZI
;	COMDAT ??0CPointEntity@@QAE@XZ
_TEXT	SEGMENT
_this$ = -4						; size = 4
??0CPointEntity@@QAE@XZ PROC				; CPointEntity::CPointEntity, COMDAT
; _this$ = ecx
	push	ebp
	mov	ebp, esp
	sub	esp, 68					; 00000044H
	push	ebx
	push	esi
	push	edi
	mov	DWORD PTR _this$[ebp], ecx
	mov	ecx, DWORD PTR _this$[ebp]
	call	??0CBaseEntity@@QAE@XZ
	mov	eax, DWORD PTR _this$[ebp]
	mov	DWORD PTR [eax], OFFSET ??_7CPointEntity@@6B@
	mov	eax, DWORD PTR _this$[ebp]
	pop	edi
	pop	esi
	pop	ebx
	mov	esp, ebp
	pop	ebp
	ret	0
??0CPointEntity@@QAE@XZ ENDP				; CPointEntity::CPointEntity
_TEXT	ENDS
; Function compile flags: /Odtp /ZI
; File d:\!diffusion 2020\source code 2022\client-server\server\cbase.h
;	COMDAT ?ObjectCaps@CPointEntity@@UAEHXZ
_TEXT	SEGMENT
_this$ = -4						; size = 4
?ObjectCaps@CPointEntity@@UAEHXZ PROC			; CPointEntity::ObjectCaps, COMDAT
; _this$ = ecx

; 889  : 	virtual int ObjectCaps( void ) { return CBaseEntity :: ObjectCaps() & ~FCAP_ACROSS_TRANSITION; }

	push	ebp
	mov	ebp, esp
	sub	esp, 68					; 00000044H
	push	ebx
	push	esi
	push	edi
	mov	DWORD PTR _this$[ebp], ecx
	mov	ecx, DWORD PTR _this$[ebp]
	call	?ObjectCaps@CBaseEntity@@UAEHXZ		; CBaseEntity::ObjectCaps
	and	eax, -3					; fffffffdH
	pop	edi
	pop	esi
	pop	ebx
	mov	esp, ebp
	pop	ebp
	ret	0
?ObjectCaps@CPointEntity@@UAEHXZ ENDP			; CPointEntity::ObjectCaps
_TEXT	ENDS
; Function compile flags: /Odtp /ZI
;	COMDAT ??1CBaseEntity@@QAE@XZ
_TEXT	SEGMENT
_this$ = -4						; size = 4
??1CBaseEntity@@QAE@XZ PROC				; CBaseEntity::~CBaseEntity, COMDAT
; _this$ = ecx
	push	ebp
	mov	ebp, esp
	sub	esp, 68					; 00000044H
	push	ebx
	push	esi
	push	edi
	mov	DWORD PTR _this$[ebp], ecx
	mov	ecx, DWORD PTR _this$[ebp]
	add	ecx, 260				; 00000104H
	call	??1CMeshDesc@@QAE@XZ			; CMeshDesc::~CMeshDesc
	pop	edi
	pop	esi
	pop	ebx
	mov	esp, ebp
	pop	ebp
	ret	0
??1CBaseEntity@@QAE@XZ ENDP				; CBaseEntity::~CBaseEntity
_TEXT	ENDS
; Function compile flags: /Odtp /ZI
;	COMDAT ??0CBaseEntity@@QAE@XZ
_TEXT	SEGMENT
_this$ = -16						; size = 4
__$EHRec$ = -12						; size = 12
??0CBaseEntity@@QAE@XZ PROC				; CBaseEntity::CBaseEntity, COMDAT
; _this$ = ecx
	push	ebp
	mov	ebp, esp
	push	-1
	push	__ehhandler$??0CBaseEntity@@QAE@XZ
	mov	eax, DWORD PTR fs:0
	push	eax
	sub	esp, 68					; 00000044H
	push	ebx
	push	esi
	push	edi
	mov	eax, DWORD PTR ___security_cookie
	xor	eax, ebp
	push	eax
	lea	eax, DWORD PTR __$EHRec$[ebp]
	mov	DWORD PTR fs:0, eax
	mov	DWORD PTR _this$[ebp], ecx
	mov	eax, DWORD PTR _this$[ebp]
	mov	DWORD PTR [eax], OFFSET ??_7CBaseEntity@@6B@
	mov	ecx, DWORD PTR _this$[ebp]
	add	ecx, 84					; 00000054H
	call	??0Vector@@QAE@XZ			; Vector::Vector
	mov	ecx, DWORD PTR _this$[ebp]
	add	ecx, 96					; 00000060H
	call	??0Vector@@QAE@XZ			; Vector::Vector
	mov	ecx, DWORD PTR _this$[ebp]
	add	ecx, 108				; 0000006cH
	call	??0Vector@@QAE@XZ			; Vector::Vector
	mov	ecx, DWORD PTR _this$[ebp]
	add	ecx, 120				; 00000078H
	call	??0Vector@@QAE@XZ			; Vector::Vector
	mov	ecx, DWORD PTR _this$[ebp]
	add	ecx, 132				; 00000084H
	call	??0Vector@@QAE@XZ			; Vector::Vector
	mov	ecx, DWORD PTR _this$[ebp]
	add	ecx, 144				; 00000090H
	call	??0Vector@@QAE@XZ			; Vector::Vector
	mov	ecx, DWORD PTR _this$[ebp]
	add	ecx, 192				; 000000c0H
	call	??0matrix4x4@@QAE@XZ			; matrix4x4::matrix4x4
	mov	ecx, DWORD PTR _this$[ebp]
	add	ecx, 260				; 00000104H
	call	??0CMeshDesc@@QAE@XZ			; CMeshDesc::CMeshDesc
	mov	DWORD PTR __$EHRec$[ebp+8], 0
	mov	ecx, DWORD PTR _this$[ebp]
	add	ecx, 1644				; 0000066cH
	call	??0Vector@@QAE@XZ			; Vector::Vector
	mov	DWORD PTR __$EHRec$[ebp+8], -1
	mov	eax, DWORD PTR _this$[ebp]
	mov	ecx, DWORD PTR __$EHRec$[ebp]
	mov	DWORD PTR fs:0, ecx
	pop	ecx
	pop	edi
	pop	esi
	pop	ebx
	mov	esp, ebp
	pop	ebp
	ret	0
_TEXT	ENDS
;	COMDAT text$x
text$x	SEGMENT
__unwindfunclet$??0CBaseEntity@@QAE@XZ$0:
	mov	ecx, DWORD PTR _this$[ebp]
	add	ecx, 260				; 00000104H
	jmp	??1CMeshDesc@@QAE@XZ			; CMeshDesc::~CMeshDesc
__ehhandler$??0CBaseEntity@@QAE@XZ:
	mov	edx, DWORD PTR [esp+8]
	lea	eax, DWORD PTR [edx+12]
	mov	ecx, DWORD PTR [edx-84]
	xor	ecx, eax
	call	@__security_check_cookie@4
	mov	eax, OFFSET __ehfuncinfo$??0CBaseEntity@@QAE@XZ
	jmp	___CxxFrameHandler3
text$x	ENDS
??0CBaseEntity@@QAE@XZ ENDP				; CBaseEntity::CBaseEntity
; Function compile flags: /Odtp /ZI
; File d:\!diffusion 2020\source code 2022\client-server\server\cbase.h
;	COMDAT ?Illumination@CBaseEntity@@UAEHXZ
_TEXT	SEGMENT
_this$ = -4						; size = 4
?Illumination@CBaseEntity@@UAEHXZ PROC			; CBaseEntity::Illumination, COMDAT
; _this$ = ecx

; 757  : 	virtual int Illumination( ) { return GETENTITYILLUM( ENT( pev ) ); };

	push	ebp
	mov	ebp, esp
	sub	esp, 68					; 00000044H
	push	ebx
	push	esi
	push	edi
	mov	DWORD PTR _this$[ebp], ecx
	mov	eax, DWORD PTR _this$[ebp]
	mov	ecx, DWORD PTR [eax+4]
	push	ecx
	call	?ENT@@YAPAUedict_s@@PBUentvars_s@@@Z	; ENT
	add	esp, 4
	push	eax
	call	DWORD PTR ?g_engfuncs@@3Uenginefuncs_s@@A+60
	add	esp, 4
	pop	edi
	pop	esi
	pop	ebx
	mov	esp, ebp
	pop	ebp
	ret	0
?Illumination@CBaseEntity@@UAEHXZ ENDP			; CBaseEntity::Illumination
_TEXT	ENDS
; Function compile flags: /Odtp /ZI
; File d:\!diffusion 2020\source code 2022\client-server\server\cbase.h
;	COMDAT ?IsPointSized@CBaseEntity@@UBEHXZ
_TEXT	SEGMENT
tv70 = -69						; size = 1
_this$ = -4						; size = 4
?IsPointSized@CBaseEntity@@UBEHXZ PROC			; CBaseEntity::IsPointSized, COMDAT
; _this$ = ecx

; 755  : 	virtual BOOL IsPointSized() const { return (pev->size == g_vecZero) ? true : false; }

	push	ebp
	mov	ebp, esp
	sub	esp, 72					; 00000048H
	push	ebx
	push	esi
	push	edi
	mov	DWORD PTR _this$[ebp], ecx
	push	OFFSET ?g_vecZero@@3VVector@@B		; g_vecZero
	mov	eax, DWORD PTR _this$[ebp]
	mov	ecx, DWORD PTR [eax+4]
	add	ecx, 244				; 000000f4H
	call	??8Vector@@QBEHABV0@@Z			; Vector::operator==
	test	eax, eax
	je	SHORT $LN3@IsPointSiz
	mov	BYTE PTR tv70[ebp], 1
	jmp	SHORT $LN4@IsPointSiz
$LN3@IsPointSiz:
	mov	BYTE PTR tv70[ebp], 0
$LN4@IsPointSiz:
	movzx	eax, BYTE PTR tv70[ebp]
	pop	edi
	pop	esi
	pop	ebx
	mov	esp, ebp
	pop	ebp
	ret	0
?IsPointSized@CBaseEntity@@UBEHXZ ENDP			; CBaseEntity::IsPointSized
_TEXT	ENDS
; Function compile flags: /Odtp /ZI
; File d:\!diffusion 2020\source code 2022\client-server\server\cbase.h
;	COMDAT ?BodyTarget@CBaseEntity@@UAE?AVVector@@ABV2@@Z
_TEXT	SEGMENT
_this$ = -4						; size = 4
___$ReturnUdt$ = 8					; size = 4
_posSrc$ = 12						; size = 4
?BodyTarget@CBaseEntity@@UAE?AVVector@@ABV2@@Z PROC	; CBaseEntity::BodyTarget, COMDAT
; _this$ = ecx

; 754  : 	virtual Vector BodyTarget( const Vector &posSrc ) { return Center( ); };		// position to shoot at

	push	ebp
	mov	ebp, esp
	sub	esp, 68					; 00000044H
	push	ebx
	push	esi
	push	edi
	mov	DWORD PTR _this$[ebp], ecx
	mov	eax, DWORD PTR ___$ReturnUdt$[ebp]
	push	eax
	mov	ecx, DWORD PTR _this$[ebp]
	mov	edx, DWORD PTR [ecx]
	mov	ecx, DWORD PTR _this$[ebp]
	mov	eax, DWORD PTR [edx+336]
	call	eax
	mov	eax, DWORD PTR ___$ReturnUdt$[ebp]
	pop	edi
	pop	esi
	pop	ebx
	mov	esp, ebp
	pop	ebp
	ret	8
?BodyTarget@CBaseEntity@@UAE?AVVector@@ABV2@@Z ENDP	; CBaseEntity::BodyTarget
_TEXT	ENDS
; Function compile flags: /Odtp /ZI
; File d:\!diffusion 2020\source code 2022\client-server\server\cbase.h
;	COMDAT ?EarPosition@CBaseEntity@@UAE?AVVector@@XZ
_TEXT	SEGMENT
_this$ = -4						; size = 4
___$ReturnUdt$ = 8					; size = 4
?EarPosition@CBaseEntity@@UAE?AVVector@@XZ PROC		; CBaseEntity::EarPosition, COMDAT
; _this$ = ecx

; 751  : 	{ 

	push	ebp
	mov	ebp, esp
	sub	esp, 68					; 00000044H
	push	ebx
	push	esi
	push	edi
	mov	DWORD PTR _this$[ebp], ecx

; 752  : 		return GetAbsOrigin() + pev->view_ofs; 

	mov	eax, DWORD PTR _this$[ebp]
	mov	ecx, DWORD PTR [eax+4]
	add	ecx, 372				; 00000174H
	push	ecx
	mov	edx, DWORD PTR ___$ReturnUdt$[ebp]
	push	edx
	mov	ecx, DWORD PTR _this$[ebp]
	call	?GetAbsOrigin@CBaseEntity@@QBEABVVector@@XZ ; CBaseEntity::GetAbsOrigin
	mov	ecx, eax
	call	??HVector@@QBE?AV0@ABV0@@Z		; Vector::operator+
	mov	eax, DWORD PTR ___$ReturnUdt$[ebp]

; 753  : 	};			// position of ears

	pop	edi
	pop	esi
	pop	ebx
	mov	esp, ebp
	pop	ebp
	ret	4
?EarPosition@CBaseEntity@@UAE?AVVector@@XZ ENDP		; CBaseEntity::EarPosition
_TEXT	ENDS
; Function compile flags: /Odtp /ZI
; File d:\!diffusion 2020\source code 2022\client-server\server\cbase.h
;	COMDAT ?EyePosition@CBaseEntity@@UAE?AVVector@@XZ
_TEXT	SEGMENT
_this$ = -4						; size = 4
___$ReturnUdt$ = 8					; size = 4
?EyePosition@CBaseEntity@@UAE?AVVector@@XZ PROC		; CBaseEntity::EyePosition, COMDAT
; _this$ = ecx

; 747  : 	{

	push	ebp
	mov	ebp, esp
	sub	esp, 68					; 00000044H
	push	ebx
	push	esi
	push	edi
	mov	DWORD PTR _this$[ebp], ecx

; 748  : 		return GetAbsOrigin() + pev->view_ofs;

	mov	eax, DWORD PTR _this$[ebp]
	mov	ecx, DWORD PTR [eax+4]
	add	ecx, 372				; 00000174H
	push	ecx
	mov	edx, DWORD PTR ___$ReturnUdt$[ebp]
	push	edx
	mov	ecx, DWORD PTR _this$[ebp]
	call	?GetAbsOrigin@CBaseEntity@@QBEABVVector@@XZ ; CBaseEntity::GetAbsOrigin
	mov	ecx, eax
	call	??HVector@@QBE?AV0@ABV0@@Z		; Vector::operator+
	mov	eax, DWORD PTR ___$ReturnUdt$[ebp]

; 749  : 	};			// position of eyes

	pop	edi
	pop	esi
	pop	ebx
	mov	esp, ebp
	pop	ebp
	ret	4
?EyePosition@CBaseEntity@@UAE?AVVector@@XZ ENDP		; CBaseEntity::EyePosition
_TEXT	ENDS
; Function compile flags: /Odtp /ZI
; File d:\!diffusion 2020\source code 2022\client-server\server\cbase.h
;	COMDAT ?Center@CBaseEntity@@UAE?AVVector@@XZ
_TEXT	SEGMENT
$T1 = -80						; size = 12
_this$ = -4						; size = 4
___$ReturnUdt$ = 8					; size = 4
?Center@CBaseEntity@@UAE?AVVector@@XZ PROC		; CBaseEntity::Center, COMDAT
; _this$ = ecx

; 745  : 	virtual Vector Center( ) { return (pev->absmax + pev->absmin) * 0.5; }; // center point of entity

	push	ebp
	mov	ebp, esp
	sub	esp, 80					; 00000050H
	push	ebx
	push	esi
	push	edi
	mov	DWORD PTR _this$[ebp], ecx
	push	ecx
	movss	xmm0, DWORD PTR __real@3f000000
	movss	DWORD PTR [esp], xmm0
	mov	eax, DWORD PTR ___$ReturnUdt$[ebp]
	push	eax
	mov	ecx, DWORD PTR _this$[ebp]
	mov	edx, DWORD PTR [ecx+4]
	add	edx, 196				; 000000c4H
	push	edx
	lea	eax, DWORD PTR $T1[ebp]
	push	eax
	mov	ecx, DWORD PTR _this$[ebp]
	mov	ecx, DWORD PTR [ecx+4]
	add	ecx, 208				; 000000d0H
	call	??HVector@@QBE?AV0@ABV0@@Z		; Vector::operator+
	mov	ecx, eax
	call	??DVector@@QBE?AV0@M@Z			; Vector::operator*
	mov	eax, DWORD PTR ___$ReturnUdt$[ebp]
	pop	edi
	pop	esi
	pop	ebx
	mov	esp, ebp
	pop	ebp
	ret	4
?Center@CBaseEntity@@UAE?AVVector@@XZ ENDP		; CBaseEntity::Center
_TEXT	ENDS
; Function compile flags: /Odtp /ZI
; File d:\!diffusion 2020\source code 2022\client-server\server\cbase.h
;	COMDAT ?edict@CBaseEntity@@QAEPAUedict_s@@XZ
_TEXT	SEGMENT
_this$ = -4						; size = 4
?edict@CBaseEntity@@QAEPAUedict_s@@XZ PROC		; CBaseEntity::edict, COMDAT
; _this$ = ecx

; 741  : 	edict_t *edict() { return ENT( pev ); };

	push	ebp
	mov	ebp, esp
	sub	esp, 68					; 00000044H
	push	ebx
	push	esi
	push	edi
	mov	DWORD PTR _this$[ebp], ecx
	mov	eax, DWORD PTR _this$[ebp]
	mov	ecx, DWORD PTR [eax+4]
	push	ecx
	call	?ENT@@YAPAUedict_s@@PBUentvars_s@@@Z	; ENT
	add	esp, 4
	pop	edi
	pop	esi
	pop	ebx
	mov	esp, ebp
	pop	ebp
	ret	0
?edict@CBaseEntity@@QAEPAUedict_s@@XZ ENDP		; CBaseEntity::edict
_TEXT	ENDS
; Function compile flags: /Odtp /ZI
; File d:\!diffusion 2020\source code 2022\client-server\server\cbase.h
;	COMDAT ?FBecomeProne@CBaseEntity@@UAEHXZ
_TEXT	SEGMENT
_this$ = -4						; size = 4
?FBecomeProne@CBaseEntity@@UAEHXZ PROC			; CBaseEntity::FBecomeProne, COMDAT
; _this$ = ecx

; 740  : 	virtual BOOL FBecomeProne( void ) {return FALSE;};

	push	ebp
	mov	ebp, esp
	sub	esp, 68					; 00000044H
	push	ebx
	push	esi
	push	edi
	mov	DWORD PTR _this$[ebp], ecx
	xor	eax, eax
	pop	edi
	pop	esi
	pop	ebx
	mov	esp, ebp
	pop	ebp
	ret	0
?FBecomeProne@CBaseEntity@@UAEHXZ ENDP			; CBaseEntity::FBecomeProne
_TEXT	ENDS
; Function compile flags: /Odtp /ZI
; File d:\!diffusion 2020\source code 2022\client-server\server\cbase.h
;	COMDAT ?UpdateOwner@CBaseEntity@@UAEXXZ
_TEXT	SEGMENT
_this$ = -4						; size = 4
?UpdateOwner@CBaseEntity@@UAEXXZ PROC			; CBaseEntity::UpdateOwner, COMDAT
; _this$ = ecx

; 736  : 	virtual	void UpdateOwner( void ) { return; };

	push	ebp
	mov	ebp, esp
	sub	esp, 68					; 00000044H
	push	ebx
	push	esi
	push	edi
	mov	DWORD PTR _this$[ebp], ecx
	pop	edi
	pop	esi
	pop	ebx
	mov	esp, ebp
	pop	ebp
	ret	0
?UpdateOwner@CBaseEntity@@UAEXXZ ENDP			; CBaseEntity::UpdateOwner
_TEXT	ENDS
; Function compile flags: /Odtp /ZI
; File d:\!diffusion 2020\source code 2022\client-server\server\cbase.h
;	COMDAT ?UseSet@CBaseEntity@@QAEP81@AEXPAV1@0W4USE_TYPE@@M@ZP81@AEX001M@ZPAD@Z
_TEXT	SEGMENT
_this$ = -4						; size = 4
_func$ = 8						; size = 4
_name$ = 12						; size = 4
?UseSet@CBaseEntity@@QAEP81@AEXPAV1@0W4USE_TYPE@@M@ZP81@AEX001M@ZPAD@Z PROC ; CBaseEntity::UseSet, COMDAT
; _this$ = ecx

; 605  : 	{ 

	push	ebp
	mov	ebp, esp
	sub	esp, 68					; 00000044H
	push	ebx
	push	esi
	push	edi
	mov	DWORD PTR _this$[ebp], ecx

; 606  : 		m_pfnUse = func; 

	mov	eax, DWORD PTR _this$[ebp]
	mov	ecx, DWORD PTR _func$[ebp]
	mov	DWORD PTR [eax+1764], ecx

; 607  : 		FunctionCheck( *(reinterpret_cast<void **>(&m_pfnUse)), name ); 

	mov	eax, DWORD PTR _name$[ebp]
	push	eax
	mov	ecx, DWORD PTR _this$[ebp]
	mov	edx, DWORD PTR [ecx+1764]
	push	edx
	mov	ecx, DWORD PTR _this$[ebp]
	call	?FunctionCheck@CBaseEntity@@QAEXPAXPAD@Z ; CBaseEntity::FunctionCheck

; 608  : 		return func;

	mov	eax, DWORD PTR _func$[ebp]

; 609  : 	}

	pop	edi
	pop	esi
	pop	ebx
	mov	esp, ebp
	pop	ebp
	ret	8
?UseSet@CBaseEntity@@QAEP81@AEXPAV1@0W4USE_TYPE@@M@ZP81@AEX001M@ZPAD@Z ENDP ; CBaseEntity::UseSet
_TEXT	ENDS
; Function compile flags: /Odtp /ZI
; File d:\!diffusion 2020\source code 2022\client-server\server\cbase.h
;	COMDAT ?ThinkSet@CBaseEntity@@QAEP81@AEXXZP81@AEXXZPAD@Z
_TEXT	SEGMENT
_this$ = -4						; size = 4
_func$ = 8						; size = 4
_name$ = 12						; size = 4
?ThinkSet@CBaseEntity@@QAEP81@AEXXZP81@AEXXZPAD@Z PROC	; CBaseEntity::ThinkSet, COMDAT
; _this$ = ecx

; 591  : 	{ 

	push	ebp
	mov	ebp, esp
	sub	esp, 68					; 00000044H
	push	ebx
	push	esi
	push	edi
	mov	DWORD PTR _this$[ebp], ecx

; 592  : 		m_pfnThink = func; 

	mov	eax, DWORD PTR _this$[ebp]
	mov	ecx, DWORD PTR _func$[ebp]
	mov	DWORD PTR [eax+1756], ecx

; 593  : 		FunctionCheck( *(reinterpret_cast<void **>(&m_pfnThink)), name ); 

	mov	eax, DWORD PTR _name$[ebp]
	push	eax
	mov	ecx, DWORD PTR _this$[ebp]
	mov	edx, DWORD PTR [ecx+1756]
	push	edx
	mov	ecx, DWORD PTR _this$[ebp]
	call	?FunctionCheck@CBaseEntity@@QAEXPAXPAD@Z ; CBaseEntity::FunctionCheck

; 594  : 		return func;

	mov	eax, DWORD PTR _func$[ebp]

; 595  : 	}

	pop	edi
	pop	esi
	pop	ebx
	mov	esp, ebp
	pop	ebp
	ret	8
?ThinkSet@CBaseEntity@@QAEP81@AEXXZP81@AEXXZPAD@Z ENDP	; CBaseEntity::ThinkSet
_TEXT	ENDS
; Function compile flags: /Odtp /ZI
; File d:\!diffusion 2020\source code 2022\client-server\server\cbase.h
;	COMDAT ?FunctionCheck@CBaseEntity@@QAEXPAXPAD@Z
_TEXT	SEGMENT
_this$ = -4						; size = 4
_pFunction$ = 8						; size = 4
_name$ = 12						; size = 4
?FunctionCheck@CBaseEntity@@QAEXPAXPAD@Z PROC		; CBaseEntity::FunctionCheck, COMDAT
; _this$ = ecx

; 585  : 	{ 

	push	ebp
	mov	ebp, esp
	sub	esp, 68					; 00000044H
	push	ebx
	push	esi
	push	edi
	mov	DWORD PTR _this$[ebp], ecx

; 586  : 		if (pFunction && !UTIL_FunctionToName( GetDataDescMap(), pFunction ) )

	cmp	DWORD PTR _pFunction$[ebp], 0
	je	SHORT $LN1@FunctionCh
	mov	eax, DWORD PTR _pFunction$[ebp]
	push	eax
	mov	ecx, DWORD PTR _this$[ebp]
	mov	edx, DWORD PTR [ecx]
	mov	ecx, DWORD PTR _this$[ebp]
	mov	eax, DWORD PTR [edx]
	call	eax
	push	eax
	call	?UTIL_FunctionToName@@YAPBDPAUdatamap_s@@PAX@Z ; UTIL_FunctionToName
	add	esp, 8
	test	eax, eax
	jne	SHORT $LN1@FunctionCh

; 587  : 			ALERT( at_warning, "FUNCTION NOT IN TABLE!: %s:%s (%08lx)\n", GetClassname(), name, (unsigned long)pFunction );

	mov	eax, DWORD PTR _pFunction$[ebp]
	push	eax
	mov	ecx, DWORD PTR _name$[ebp]
	push	ecx
	mov	ecx, DWORD PTR _this$[ebp]
	call	?GetClassname@CBaseEntity@@QAEPBDXZ	; CBaseEntity::GetClassname
	push	eax
	push	OFFSET ??_C@_0CH@HELFJPDL@FUNCTION?5NOT?5IN?5TABLE?$CB?3?5?$CFs?3?$CFs?5?$CI?$CF@
	push	3
	call	DWORD PTR ?g_engfuncs@@3Uenginefuncs_s@@A+244
	add	esp, 20					; 00000014H
$LN1@FunctionCh:

; 588  : 	}

	pop	edi
	pop	esi
	pop	ebx
	mov	esp, ebp
	pop	ebp
	ret	8
?FunctionCheck@CBaseEntity@@QAEXPAXPAD@Z ENDP		; CBaseEntity::FunctionCheck
_TEXT	ENDS
; Function compile flags: /Odtp /ZI
; File d:\!diffusion 2020\source code 2022\client-server\server\cbase.h
;	COMDAT ?Instance@CBaseEntity@@SAPAV1@PAUedict_s@@@Z
_TEXT	SEGMENT
_pEnt$ = -4						; size = 4
_pent$ = 8						; size = 4
?Instance@CBaseEntity@@SAPAV1@PAUedict_s@@@Z PROC	; CBaseEntity::Instance, COMDAT

; 557  : 	{ 

	push	ebp
	mov	ebp, esp
	sub	esp, 68					; 00000044H
	push	ebx
	push	esi
	push	edi

; 558  : 		if ( !pent )

	cmp	DWORD PTR _pent$[ebp], 0
	jne	SHORT $LN2@Instance

; 559  : 			pent = ENT(0);

	push	0
	call	?ENT@@YAPAUedict_s@@H@Z			; ENT
	add	esp, 4
	mov	DWORD PTR _pent$[ebp], eax
$LN2@Instance:

; 560  : 		CBaseEntity *pEnt = (CBaseEntity *)GET_PRIVATE(pent); 

	mov	eax, DWORD PTR _pent$[ebp]
	push	eax
	call	?GET_PRIVATE@@YAPAXPAUedict_s@@@Z	; GET_PRIVATE
	add	esp, 4
	mov	DWORD PTR _pEnt$[ebp], eax

; 561  : 		return pEnt; 

	mov	eax, DWORD PTR _pEnt$[ebp]

; 562  : 	}

	pop	edi
	pop	esi
	pop	ebx
	mov	esp, ebp
	pop	ebp
	ret	0
?Instance@CBaseEntity@@SAPAV1@PAUedict_s@@@Z ENDP	; CBaseEntity::Instance
_TEXT	ENDS
; Function compile flags: /Odtp /ZI
; File d:\!diffusion 2020\source code 2022\client-server\server\cbase.h
;	COMDAT ?Respawn@CBaseEntity@@UAEPAV1@XZ
_TEXT	SEGMENT
_this$ = -4						; size = 4
?Respawn@CBaseEntity@@UAEPAV1@XZ PROC			; CBaseEntity::Respawn, COMDAT
; _this$ = ecx

; 544  : 	virtual CBaseEntity *Respawn( void ) { return NULL; }

	push	ebp
	mov	ebp, esp
	sub	esp, 68					; 00000044H
	push	ebx
	push	esi
	push	edi
	mov	DWORD PTR _this$[ebp], ecx
	xor	eax, eax
	pop	edi
	pop	esi
	pop	ebx
	mov	esp, ebp
	pop	ebp
	ret	0
?Respawn@CBaseEntity@@UAEPAV1@XZ ENDP			; CBaseEntity::Respawn
_TEXT	ENDS
; Function compile flags: /Odtp /ZI
; File d:\!diffusion 2020\source code 2022\client-server\server\cbase.h
;	COMDAT ??3CBaseEntity@@SAXPAXPAUentvars_s@@@Z
_TEXT	SEGMENT
_pMem$ = 8						; size = 4
_pev$ = 12						; size = 4
??3CBaseEntity@@SAXPAXPAUentvars_s@@@Z PROC		; CBaseEntity::operator delete, COMDAT

; 527  : 	{

	push	ebp
	mov	ebp, esp
	sub	esp, 64					; 00000040H
	push	ebx
	push	esi
	push	edi

; 528  : 		pev->flags |= FL_KILLME;

	mov	eax, DWORD PTR _pev$[ebp]
	mov	ecx, DWORD PTR [eax+420]
	or	ecx, 1073741824				; 40000000H
	mov	edx, DWORD PTR _pev$[ebp]
	mov	DWORD PTR [edx+420], ecx

; 529  : 	};

	pop	edi
	pop	esi
	pop	ebx
	mov	esp, ebp
	pop	ebp
	ret	0
??3CBaseEntity@@SAXPAXPAUentvars_s@@@Z ENDP		; CBaseEntity::operator delete
_TEXT	ENDS
; Function compile flags: /Odtp /ZI
; File d:\!diffusion 2020\source code 2022\client-server\server\cbase.h
;	COMDAT ??2CBaseEntity@@SAPAXIPAUentvars_s@@@Z
_TEXT	SEGMENT
_stAllocateBlock$ = 8					; size = 4
_pev$ = 12						; size = 4
??2CBaseEntity@@SAPAXIPAUentvars_s@@@Z PROC		; CBaseEntity::operator new, COMDAT

; 520  : 	{

	push	ebp
	mov	ebp, esp
	sub	esp, 64					; 00000040H
	push	ebx
	push	esi
	push	edi

; 521  : 		return (void *)ALLOC_PRIVATE(ENT(pev), stAllocateBlock);

	mov	eax, DWORD PTR _stAllocateBlock$[ebp]
	push	eax
	mov	ecx, DWORD PTR _pev$[ebp]
	push	ecx
	call	?ENT@@YAPAUedict_s@@PBUentvars_s@@@Z	; ENT
	add	esp, 4
	push	eax
	call	DWORD PTR ?g_engfuncs@@3Uenginefuncs_s@@A+252
	add	esp, 8

; 522  : 	};

	pop	edi
	pop	esi
	pop	ebx
	mov	esp, ebp
	pop	ebp
	ret	0
??2CBaseEntity@@SAPAXIPAUentvars_s@@@Z ENDP		; CBaseEntity::operator new
_TEXT	ENDS
; Function compile flags: /Odtp /ZI
; File d:\!diffusion 2020\source code 2022\client-server\server\cbase.h
;	COMDAT ?MoveDone@CBaseEntity@@UAEXXZ
_TEXT	SEGMENT
_this$ = -4						; size = 4
?MoveDone@CBaseEntity@@UAEXXZ PROC			; CBaseEntity::MoveDone, COMDAT
; _this$ = ecx

; 516  : 	virtual void MoveDone( void ) { if( m_pfnMoveDone )(this->*m_pfnMoveDone)(); };

	push	ebp
	mov	ebp, esp
	sub	esp, 68					; 00000044H
	push	ebx
	push	esi
	push	edi
	mov	DWORD PTR _this$[ebp], ecx
	mov	eax, DWORD PTR _this$[ebp]
	cmp	DWORD PTR [eax+1772], 0
	je	SHORT $LN1@MoveDone
	mov	eax, DWORD PTR _this$[ebp]
	mov	ecx, DWORD PTR _this$[ebp]
	mov	edx, DWORD PTR [eax+1772]
	call	edx
$LN1@MoveDone:
	pop	edi
	pop	esi
	pop	ebx
	mov	esp, ebp
	pop	ebp
	ret	0
?MoveDone@CBaseEntity@@UAEXXZ ENDP			; CBaseEntity::MoveDone
_TEXT	ENDS
; Function compile flags: /Odtp /ZI
; File d:\!diffusion 2020\source code 2022\client-server\server\cbase.h
;	COMDAT ?Blocked@CBaseEntity@@UAEXPAV1@@Z
_TEXT	SEGMENT
tv77 = -72						; size = 4
_this$ = -4						; size = 4
_pOther$ = 8						; size = 4
?Blocked@CBaseEntity@@UAEXPAV1@@Z PROC			; CBaseEntity::Blocked, COMDAT
; _this$ = ecx

; 507  : 	{

	push	ebp
	mov	ebp, esp
	sub	esp, 72					; 00000048H
	push	ebx
	push	esi
	push	edi
	mov	DWORD PTR _this$[ebp], ecx

; 508  : 		if( m_pfnBlocked )

	mov	eax, DWORD PTR _this$[ebp]
	cmp	DWORD PTR [eax+1768], 0
	je	SHORT $LN2@Blocked

; 509  : 			(this->*m_pfnBlocked)( pOther );

	mov	eax, DWORD PTR _pOther$[ebp]
	push	eax
	mov	edx, DWORD PTR _this$[ebp]
	mov	ecx, DWORD PTR _this$[ebp]
	mov	eax, DWORD PTR [edx+1768]
	call	eax
$LN2@Blocked:

; 510  : 
; 511  : 		// forward the blocked event to our parent, if any.
; 512  : 		if( m_hParent != NULL )

	mov	ecx, DWORD PTR _this$[ebp]
	add	ecx, 160				; 000000a0H
	call	??BEHANDLE@@QAEHXZ			; EHANDLE::operator int
	test	eax, eax
	je	SHORT $LN1@Blocked

; 513  : 			m_hParent->Blocked( pOther );

	mov	ecx, DWORD PTR _this$[ebp]
	add	ecx, 160				; 000000a0H
	call	??CEHANDLE@@QAEPAVCBaseEntity@@XZ	; EHANDLE::operator->
	mov	DWORD PTR tv77[ebp], eax
	mov	eax, DWORD PTR _pOther$[ebp]
	push	eax
	mov	ecx, DWORD PTR tv77[ebp]
	mov	edx, DWORD PTR [ecx]
	mov	ecx, DWORD PTR tv77[ebp]
	mov	eax, DWORD PTR [edx+316]
	call	eax
$LN1@Blocked:

; 514  : 	}

	pop	edi
	pop	esi
	pop	ebx
	mov	esp, ebp
	pop	ebp
	ret	4
?Blocked@CBaseEntity@@UAEXPAV1@@Z ENDP			; CBaseEntity::Blocked
_TEXT	ENDS
; Function compile flags: /Odtp /ZI
; File d:\!diffusion 2020\source code 2022\client-server\server\cbase.h
;	COMDAT ?Touch@CBaseEntity@@UAEXPAV1@@Z
_TEXT	SEGMENT
tv80 = -72						; size = 4
_this$ = -4						; size = 4
_pOther$ = 8						; size = 4
?Touch@CBaseEntity@@UAEXPAV1@@Z PROC			; CBaseEntity::Touch, COMDAT
; _this$ = ecx

; 497  : 	{

	push	ebp
	mov	ebp, esp
	sub	esp, 72					; 00000048H
	push	ebx
	push	esi
	push	edi
	mov	DWORD PTR _this$[ebp], ecx

; 498  : 		if( m_pfnTouch )

	mov	eax, DWORD PTR _this$[ebp]
	cmp	DWORD PTR [eax+1760], 0
	je	SHORT $LN2@Touch

; 499  : 			(this->*m_pfnTouch)( pOther );

	mov	eax, DWORD PTR _pOther$[ebp]
	push	eax
	mov	edx, DWORD PTR _this$[ebp]
	mov	ecx, DWORD PTR _this$[ebp]
	mov	eax, DWORD PTR [edx+1760]
	call	eax
$LN2@Touch:

; 500  : 
; 501  : 		// forward the blocked event to our parent, if any.
; 502  : 		if( m_hParent != NULL && !m_isChaining )

	mov	ecx, DWORD PTR _this$[ebp]
	add	ecx, 160				; 000000a0H
	call	??BEHANDLE@@QAEHXZ			; EHANDLE::operator int
	test	eax, eax
	je	SHORT $LN1@Touch
	mov	eax, DWORD PTR _this$[ebp]
	movzx	ecx, BYTE PTR [eax+1640]
	test	ecx, ecx
	jne	SHORT $LN1@Touch

; 503  : 			m_hParent->Touch( pOther );

	mov	ecx, DWORD PTR _this$[ebp]
	add	ecx, 160				; 000000a0H
	call	??CEHANDLE@@QAEPAVCBaseEntity@@XZ	; EHANDLE::operator->
	mov	DWORD PTR tv80[ebp], eax
	mov	eax, DWORD PTR _pOther$[ebp]
	push	eax
	mov	ecx, DWORD PTR tv80[ebp]
	mov	edx, DWORD PTR [ecx]
	mov	ecx, DWORD PTR tv80[ebp]
	mov	eax, DWORD PTR [edx+312]
	call	eax
$LN1@Touch:

; 504  : 	}

	pop	edi
	pop	esi
	pop	ebx
	mov	esp, ebp
	pop	ebp
	ret	4
?Touch@CBaseEntity@@UAEXPAV1@@Z ENDP			; CBaseEntity::Touch
_TEXT	ENDS
; Function compile flags: /Odtp /ZI
; File d:\!diffusion 2020\source code 2022\client-server\server\cbase.h
;	COMDAT ?Use@CBaseEntity@@UAEXPAV1@0W4USE_TYPE@@M@Z
_TEXT	SEGMENT
_this$ = -4						; size = 4
_pActivator$ = 8					; size = 4
_pCaller$ = 12						; size = 4
_useType$ = 16						; size = 4
_value$ = 20						; size = 4
?Use@CBaseEntity@@UAEXPAV1@0W4USE_TYPE@@M@Z PROC	; CBaseEntity::Use, COMDAT
; _this$ = ecx

; 492  : 	{

	push	ebp
	mov	ebp, esp
	sub	esp, 68					; 00000044H
	push	ebx
	push	esi
	push	edi
	mov	DWORD PTR _this$[ebp], ecx

; 493  : 		if (m_pfnUse) (this->*m_pfnUse)( pActivator, pCaller, useType, value );

	mov	eax, DWORD PTR _this$[ebp]
	cmp	DWORD PTR [eax+1764], 0
	je	SHORT $LN2@Use
	push	ecx
	movss	xmm0, DWORD PTR _value$[ebp]
	movss	DWORD PTR [esp], xmm0
	mov	eax, DWORD PTR _useType$[ebp]
	push	eax
	mov	ecx, DWORD PTR _pCaller$[ebp]
	push	ecx
	mov	edx, DWORD PTR _pActivator$[ebp]
	push	edx
	mov	eax, DWORD PTR _this$[ebp]
	mov	ecx, DWORD PTR _this$[ebp]
	mov	edx, DWORD PTR [eax+1764]
	call	edx
$LN2@Use:

; 494  : 	}

	pop	edi
	pop	esi
	pop	ebx
	mov	esp, ebp
	pop	ebp
	ret	16					; 00000010H
?Use@CBaseEntity@@UAEXPAV1@0W4USE_TYPE@@M@Z ENDP	; CBaseEntity::Use
_TEXT	ENDS
; Function compile flags: /Odtp /ZI
; File d:\!diffusion 2020\source code 2022\client-server\server\cbase.h
;	COMDAT ?Think@CBaseEntity@@UAEXXZ
_TEXT	SEGMENT
_this$ = -4						; size = 4
?Think@CBaseEntity@@UAEXXZ PROC				; CBaseEntity::Think, COMDAT
; _this$ = ecx

; 489  : 	virtual void Think( void ) { if (m_pfnThink) (this->*m_pfnThink)(); };

	push	ebp
	mov	ebp, esp
	sub	esp, 68					; 00000044H
	push	ebx
	push	esi
	push	edi
	mov	DWORD PTR _this$[ebp], ecx
	mov	eax, DWORD PTR _this$[ebp]
	cmp	DWORD PTR [eax+1756], 0
	je	SHORT $LN1@Think
	mov	eax, DWORD PTR _this$[ebp]
	mov	ecx, DWORD PTR _this$[ebp]
	mov	edx, DWORD PTR [eax+1756]
	call	edx
$LN1@Think:
	pop	edi
	pop	esi
	pop	ebx
	mov	esp, ebp
	pop	ebp
	ret	0
?Think@CBaseEntity@@UAEXXZ ENDP				; CBaseEntity::Think
_TEXT	ENDS
; Function compile flags: /Odtp /ZI
; File d:\!diffusion 2020\source code 2022\client-server\server\cbase.h
;	COMDAT ?OnDropObject@CBaseEntity@@UAEXXZ
_TEXT	SEGMENT
_this$ = -4						; size = 4
?OnDropObject@CBaseEntity@@UAEXXZ PROC			; CBaseEntity::OnDropObject, COMDAT
; _this$ = ecx

; 478  : 	virtual void OnDropObject( void ){ };

	push	ebp
	mov	ebp, esp
	sub	esp, 68					; 00000044H
	push	ebx
	push	esi
	push	edi
	mov	DWORD PTR _this$[ebp], ecx
	pop	edi
	pop	esi
	pop	ebx
	mov	esp, ebp
	pop	ebp
	ret	0
?OnDropObject@CBaseEntity@@UAEXXZ ENDP			; CBaseEntity::OnDropObject
_TEXT	ENDS
; Function compile flags: /Odtp /ZI
; File d:\!diffusion 2020\source code 2022\client-server\server\cbase.h
;	COMDAT ?OnPickupObject@CBaseEntity@@UAEXXZ
_TEXT	SEGMENT
_this$ = -4						; size = 4
?OnPickupObject@CBaseEntity@@UAEXXZ PROC		; CBaseEntity::OnPickupObject, COMDAT
; _this$ = ecx

; 477  : 	virtual void OnPickupObject( void ) { };

	push	ebp
	mov	ebp, esp
	sub	esp, 68					; 00000044H
	push	ebx
	push	esi
	push	edi
	mov	DWORD PTR _this$[ebp], ecx
	pop	edi
	pop	esi
	pop	ebx
	mov	esp, ebp
	pop	ebp
	ret	0
?OnPickupObject@CBaseEntity@@UAEXXZ ENDP		; CBaseEntity::OnPickupObject
_TEXT	ENDS
; Function compile flags: /Odtp /ZI
; File d:\!diffusion 2020\source code 2022\client-server\server\cbase.h
;	COMDAT ?SetNullModel@CBaseEntity@@UAEXXZ
_TEXT	SEGMENT
_this$ = -4						; size = 4
?SetNullModel@CBaseEntity@@UAEXXZ PROC			; CBaseEntity::SetNullModel, COMDAT
; _this$ = ecx

; 1228 : {

	push	ebp
	mov	ebp, esp
	sub	esp, 68					; 00000044H
	push	ebx
	push	esi
	push	edi
	mov	DWORD PTR _this$[ebp], ecx

; 1229 : 	SET_MODEL( edict(), "sprites/null.spr" );

	push	OFFSET ??_C@_0BB@EMJBJDBM@sprites?1null?4spr?$AA@
	mov	ecx, DWORD PTR _this$[ebp]
	call	?edict@CBaseEntity@@QAEPAUedict_s@@XZ	; CBaseEntity::edict
	push	eax
	call	DWORD PTR ?g_engfuncs@@3Uenginefuncs_s@@A+8
	add	esp, 8

; 1230 : }

	pop	edi
	pop	esi
	pop	ebx
	mov	esp, ebp
	pop	ebp
	ret	0
?SetNullModel@CBaseEntity@@UAEXXZ ENDP			; CBaseEntity::SetNullModel
_TEXT	ENDS
; Function compile flags: /Odtp /ZI
; File d:\!diffusion 2020\source code 2022\client-server\server\cbase.h
;	COMDAT ?RemoveFlag@CBaseEntity@@UAEXH@Z
_TEXT	SEGMENT
_this$ = -4						; size = 4
_Flag$ = 8						; size = 4
?RemoveFlag@CBaseEntity@@UAEXH@Z PROC			; CBaseEntity::RemoveFlag, COMDAT
; _this$ = ecx

; 1223 : {

	push	ebp
	mov	ebp, esp
	sub	esp, 68					; 00000044H
	push	ebx
	push	esi
	push	edi
	mov	DWORD PTR _this$[ebp], ecx

; 1224 : 	m_iFlags2 &= ~Flag;

	mov	eax, DWORD PTR _Flag$[ebp]
	not	eax
	mov	ecx, DWORD PTR _this$[ebp]
	and	eax, DWORD PTR [ecx+28]
	mov	edx, DWORD PTR _this$[ebp]
	mov	DWORD PTR [edx+28], eax

; 1225 : }

	pop	edi
	pop	esi
	pop	ebx
	mov	esp, ebp
	pop	ebp
	ret	4
?RemoveFlag@CBaseEntity@@UAEXH@Z ENDP			; CBaseEntity::RemoveFlag
_TEXT	ENDS
; Function compile flags: /Odtp /ZI
; File d:\!diffusion 2020\source code 2022\client-server\server\cbase.h
;	COMDAT ?HasFlag@CBaseEntity@@UBE_NH@Z
_TEXT	SEGMENT
tv67 = -72						; size = 4
_this$ = -4						; size = 4
_Flag$ = 8						; size = 4
?HasFlag@CBaseEntity@@UBE_NH@Z PROC			; CBaseEntity::HasFlag, COMDAT
; _this$ = ecx

; 1213 : {

	push	ebp
	mov	ebp, esp
	sub	esp, 72					; 00000048H
	push	ebx
	push	esi
	push	edi
	mov	DWORD PTR _this$[ebp], ecx

; 1214 : 	return (m_iFlags2 & Flag) != 0;

	mov	eax, DWORD PTR _this$[ebp]
	mov	ecx, DWORD PTR [eax+28]
	and	ecx, DWORD PTR _Flag$[ebp]
	je	SHORT $LN3@HasFlag
	mov	DWORD PTR tv67[ebp], 1
	jmp	SHORT $LN4@HasFlag
$LN3@HasFlag:
	mov	DWORD PTR tv67[ebp], 0
$LN4@HasFlag:
	mov	al, BYTE PTR tv67[ebp]

; 1215 : }

	pop	edi
	pop	esi
	pop	ebx
	mov	esp, ebp
	pop	ebp
	ret	4
?HasFlag@CBaseEntity@@UBE_NH@Z ENDP			; CBaseEntity::HasFlag
_TEXT	ENDS
; Function compile flags: /Odtp /ZI
; File d:\!diffusion 2020\source code 2022\client-server\server\cbase.h
;	COMDAT ?SetFlag@CBaseEntity@@UAEXH@Z
_TEXT	SEGMENT
_this$ = -4						; size = 4
_Flag$ = 8						; size = 4
?SetFlag@CBaseEntity@@UAEXH@Z PROC			; CBaseEntity::SetFlag, COMDAT
; _this$ = ecx

; 1218 : {

	push	ebp
	mov	ebp, esp
	sub	esp, 68					; 00000044H
	push	ebx
	push	esi
	push	edi
	mov	DWORD PTR _this$[ebp], ecx

; 1219 : 	m_iFlags2 |= Flag;

	mov	eax, DWORD PTR _this$[ebp]
	mov	ecx, DWORD PTR [eax+28]
	or	ecx, DWORD PTR _Flag$[ebp]
	mov	edx, DWORD PTR _this$[ebp]
	mov	DWORD PTR [edx+28], ecx

; 1220 : }

	pop	edi
	pop	esi
	pop	ebx
	mov	esp, ebp
	pop	ebp
	ret	4
?SetFlag@CBaseEntity@@UAEXH@Z ENDP			; CBaseEntity::SetFlag
_TEXT	ENDS
; Function compile flags: /Odtp /ZI
; File d:\!diffusion 2020\source code 2022\client-server\server\cbase.h
;	COMDAT ?SetFadeDistance@CBaseEntity@@UAEXH@Z
_TEXT	SEGMENT
_this$ = -4						; size = 4
_Distance$ = 8						; size = 4
?SetFadeDistance@CBaseEntity@@UAEXH@Z PROC		; CBaseEntity::SetFadeDistance, COMDAT
; _this$ = ecx

; 1208 : {

	push	ebp
	mov	ebp, esp
	sub	esp, 68					; 00000044H
	push	ebx
	push	esi
	push	edi
	mov	DWORD PTR _this$[ebp], ecx

; 1209 : 	pev->iuser4 = Distance;

	mov	eax, DWORD PTR _this$[ebp]
	mov	ecx, DWORD PTR [eax+4]
	mov	edx, DWORD PTR _Distance$[ebp]
	mov	DWORD PTR [ecx+592], edx

; 1210 : }

	pop	edi
	pop	esi
	pop	ebx
	mov	esp, ebp
	pop	ebp
	ret	4
?SetFadeDistance@CBaseEntity@@UAEXH@Z ENDP		; CBaseEntity::SetFadeDistance
_TEXT	ENDS
; Function compile flags: /Odtp /ZI
; File d:\!diffusion 2020\source code 2022\client-server\server\cbase.h
;	COMDAT ?HasSpawnFlags@CBaseEntity@@UBE_NH@Z
_TEXT	SEGMENT
tv68 = -72						; size = 4
_this$ = -4						; size = 4
_nFlags$ = 8						; size = 4
?HasSpawnFlags@CBaseEntity@@UBE_NH@Z PROC		; CBaseEntity::HasSpawnFlags, COMDAT
; _this$ = ecx

; 1202 : {

	push	ebp
	mov	ebp, esp
	sub	esp, 72					; 00000048H
	push	ebx
	push	esi
	push	edi
	mov	DWORD PTR _this$[ebp], ecx

; 1203 : 	return (pev->spawnflags & nFlags) != 0;

	mov	eax, DWORD PTR _this$[ebp]
	mov	ecx, DWORD PTR [eax+4]
	mov	edx, DWORD PTR [ecx+416]
	and	edx, DWORD PTR _nFlags$[ebp]
	je	SHORT $LN3@HasSpawnFl
	mov	DWORD PTR tv68[ebp], 1
	jmp	SHORT $LN4@HasSpawnFl
$LN3@HasSpawnFl:
	mov	DWORD PTR tv68[ebp], 0
$LN4@HasSpawnFl:
	mov	al, BYTE PTR tv68[ebp]

; 1204 : }

	pop	edi
	pop	esi
	pop	ebx
	mov	esp, ebp
	pop	ebp
	ret	4
?HasSpawnFlags@CBaseEntity@@UBE_NH@Z ENDP		; CBaseEntity::HasSpawnFlags
_TEXT	ENDS
; Function compile flags: /Odtp /ZI
; File d:\!diffusion 2020\source code 2022\client-server\server\cbase.h
;	COMDAT ?AddSpawnFlags@CBaseEntity@@UAEXH@Z
_TEXT	SEGMENT
_this$ = -4						; size = 4
_nFlags$ = 8						; size = 4
?AddSpawnFlags@CBaseEntity@@UAEXH@Z PROC		; CBaseEntity::AddSpawnFlags, COMDAT
; _this$ = ecx

; 1197 : {

	push	ebp
	mov	ebp, esp
	sub	esp, 68					; 00000044H
	push	ebx
	push	esi
	push	edi
	mov	DWORD PTR _this$[ebp], ecx

; 1198 : 	pev->spawnflags |= nFlags;

	mov	eax, DWORD PTR _this$[ebp]
	mov	ecx, DWORD PTR [eax+4]
	mov	edx, DWORD PTR [ecx+416]
	or	edx, DWORD PTR _nFlags$[ebp]
	mov	eax, DWORD PTR _this$[ebp]
	mov	ecx, DWORD PTR [eax+4]
	mov	DWORD PTR [ecx+416], edx

; 1199 : }

	pop	edi
	pop	esi
	pop	ebx
	mov	esp, ebp
	pop	ebp
	ret	4
?AddSpawnFlags@CBaseEntity@@UAEXH@Z ENDP		; CBaseEntity::AddSpawnFlags
_TEXT	ENDS
; Function compile flags: /Odtp /ZI
; File d:\!diffusion 2020\source code 2022\client-server\server\cbase.h
;	COMDAT ?TeamID@CBaseEntity@@UAEPBDXZ
_TEXT	SEGMENT
_this$ = -4						; size = 4
?TeamID@CBaseEntity@@UAEPBDXZ PROC			; CBaseEntity::TeamID, COMDAT
; _this$ = ecx

; 466  : 	virtual const char	*TeamID( void ) { return ""; }

	push	ebp
	mov	ebp, esp
	sub	esp, 68					; 00000044H
	push	ebx
	push	esi
	push	edi
	mov	DWORD PTR _this$[ebp], ecx
	mov	eax, OFFSET ??_C@_00CNPNBAHC@?$AA@
	pop	edi
	pop	esi
	pop	ebx
	mov	esp, ebp
	pop	ebp
	ret	0
?TeamID@CBaseEntity@@UAEPBDXZ ENDP			; CBaseEntity::TeamID
_TEXT	ENDS
; Function compile flags: /Odtp /ZI
; File d:\!diffusion 2020\source code 2022\client-server\server\cbase.h
;	COMDAT ?IsBreakable@CBaseEntity@@UAEHXZ
_TEXT	SEGMENT
_this$ = -4						; size = 4
?IsBreakable@CBaseEntity@@UAEHXZ PROC			; CBaseEntity::IsBreakable, COMDAT
; _this$ = ecx

; 465  : 	virtual BOOL	IsBreakable( void ) { return FALSE; }

	push	ebp
	mov	ebp, esp
	sub	esp, 68					; 00000044H
	push	ebx
	push	esi
	push	edi
	mov	DWORD PTR _this$[ebp], ecx
	xor	eax, eax
	pop	edi
	pop	esi
	pop	ebx
	mov	esp, ebp
	pop	ebp
	ret	0
?IsBreakable@CBaseEntity@@UAEHXZ ENDP			; CBaseEntity::IsBreakable
_TEXT	ENDS
; Function compile flags: /Odtp /ZI
; File d:\!diffusion 2020\source code 2022\client-server\server\cbase.h
;	COMDAT ?IsMover@CBaseEntity@@UAEHXZ
_TEXT	SEGMENT
_this$ = -4						; size = 4
?IsMover@CBaseEntity@@UAEHXZ PROC			; CBaseEntity::IsMover, COMDAT
; _this$ = ecx

; 464  : 	virtual BOOL	IsMover( void ) { return FALSE; }

	push	ebp
	mov	ebp, esp
	sub	esp, 68					; 00000044H
	push	ebx
	push	esi
	push	edi
	mov	DWORD PTR _this$[ebp], ecx
	xor	eax, eax
	pop	edi
	pop	esi
	pop	ebx
	mov	esp, ebp
	pop	ebp
	ret	0
?IsMover@CBaseEntity@@UAEHXZ ENDP			; CBaseEntity::IsMover
_TEXT	ENDS
; Function compile flags: /Odtp /ZI
; File d:\!diffusion 2020\source code 2022\client-server\server\cbase.h
;	COMDAT ?IsTank@CBaseEntity@@UAEHXZ
_TEXT	SEGMENT
_this$ = -4						; size = 4
?IsTank@CBaseEntity@@UAEHXZ PROC			; CBaseEntity::IsTank, COMDAT
; _this$ = ecx

; 463  : 	virtual BOOL	IsTank( void ) { return FALSE; }

	push	ebp
	mov	ebp, esp
	sub	esp, 68					; 00000044H
	push	ebx
	push	esi
	push	edi
	mov	DWORD PTR _this$[ebp], ecx
	xor	eax, eax
	pop	edi
	pop	esi
	pop	ebx
	mov	esp, ebp
	pop	ebp
	ret	0
?IsTank@CBaseEntity@@UAEHXZ ENDP			; CBaseEntity::IsTank
_TEXT	ENDS
; Function compile flags: /Odtp /ZI
; File d:\!diffusion 2020\source code 2022\client-server\server\cbase.h
;	COMDAT ?IsPortal@CBaseEntity@@UAEHXZ
_TEXT	SEGMENT
_this$ = -4						; size = 4
?IsPortal@CBaseEntity@@UAEHXZ PROC			; CBaseEntity::IsPortal, COMDAT
; _this$ = ecx

; 462  : 	virtual BOOL	IsPortal( void ) { return FALSE; }

	push	ebp
	mov	ebp, esp
	sub	esp, 68					; 00000044H
	push	ebx
	push	esi
	push	edi
	mov	DWORD PTR _this$[ebp], ecx
	xor	eax, eax
	pop	edi
	pop	esi
	pop	ebx
	mov	esp, ebp
	pop	ebp
	ret	0
?IsPortal@CBaseEntity@@UAEHXZ ENDP			; CBaseEntity::IsPortal
_TEXT	ENDS
; Function compile flags: /Odtp /ZI
; File d:\!diffusion 2020\source code 2022\client-server\server\cbase.h
;	COMDAT ?IsFuncScreen@CBaseEntity@@UAEHXZ
_TEXT	SEGMENT
_this$ = -4						; size = 4
?IsFuncScreen@CBaseEntity@@UAEHXZ PROC			; CBaseEntity::IsFuncScreen, COMDAT
; _this$ = ecx

; 461  : 	virtual BOOL	IsFuncScreen( void ) { return FALSE; }

	push	ebp
	mov	ebp, esp
	sub	esp, 68					; 00000044H
	push	ebx
	push	esi
	push	edi
	mov	DWORD PTR _this$[ebp], ecx
	xor	eax, eax
	pop	edi
	pop	esi
	pop	ebx
	mov	esp, ebp
	pop	ebp
	ret	0
?IsFuncScreen@CBaseEntity@@UAEHXZ ENDP			; CBaseEntity::IsFuncScreen
_TEXT	ENDS
; Function compile flags: /Odtp /ZI
; File d:\!diffusion 2020\source code 2022\client-server\server\cbase.h
;	COMDAT ?IsProjectile@CBaseEntity@@UAEHXZ
_TEXT	SEGMENT
_this$ = -4						; size = 4
?IsProjectile@CBaseEntity@@UAEHXZ PROC			; CBaseEntity::IsProjectile, COMDAT
; _this$ = ecx

; 460  : 	virtual BOOL	IsProjectile( void ) { return FALSE; }

	push	ebp
	mov	ebp, esp
	sub	esp, 68					; 00000044H
	push	ebx
	push	esi
	push	edi
	mov	DWORD PTR _this$[ebp], ecx
	xor	eax, eax
	pop	edi
	pop	esi
	pop	ebx
	mov	esp, ebp
	pop	ebp
	ret	0
?IsProjectile@CBaseEntity@@UAEHXZ ENDP			; CBaseEntity::IsProjectile
_TEXT	ENDS
; Function compile flags: /Odtp /ZI
; File d:\!diffusion 2020\source code 2022\client-server\server\cbase.h
;	COMDAT ?IsPushable@CBaseEntity@@UAEHXZ
_TEXT	SEGMENT
_this$ = -4						; size = 4
?IsPushable@CBaseEntity@@UAEHXZ PROC			; CBaseEntity::IsPushable, COMDAT
; _this$ = ecx

; 459  : 	virtual BOOL	IsPushable( void ) { return FALSE; }

	push	ebp
	mov	ebp, esp
	sub	esp, 68					; 00000044H
	push	ebx
	push	esi
	push	edi
	mov	DWORD PTR _this$[ebp], ecx
	xor	eax, eax
	pop	edi
	pop	esi
	pop	ebx
	mov	esp, ebp
	pop	ebp
	ret	0
?IsPushable@CBaseEntity@@UAEHXZ ENDP			; CBaseEntity::IsPushable
_TEXT	ENDS
; Function compile flags: /Odtp /ZI
; File d:\!diffusion 2020\source code 2022\client-server\server\cbase.h
;	COMDAT ?IsMonster@CBaseEntity@@UAEHXZ
_TEXT	SEGMENT
tv68 = -72						; size = 4
_this$ = -4						; size = 4
?IsMonster@CBaseEntity@@UAEHXZ PROC			; CBaseEntity::IsMonster, COMDAT
; _this$ = ecx

; 458  : 	virtual BOOL	IsMonster( void ) { return (pev->flags & FL_MONSTER ? TRUE : FALSE); }

	push	ebp
	mov	ebp, esp
	sub	esp, 72					; 00000048H
	push	ebx
	push	esi
	push	edi
	mov	DWORD PTR _this$[ebp], ecx
	mov	eax, DWORD PTR _this$[ebp]
	mov	ecx, DWORD PTR [eax+4]
	mov	edx, DWORD PTR [ecx+420]
	and	edx, 32					; 00000020H
	je	SHORT $LN3@IsMonster
	mov	DWORD PTR tv68[ebp], 1
	jmp	SHORT $LN4@IsMonster
$LN3@IsMonster:
	mov	DWORD PTR tv68[ebp], 0
$LN4@IsMonster:
	mov	eax, DWORD PTR tv68[ebp]
	pop	edi
	pop	esi
	pop	ebx
	mov	esp, ebp
	pop	ebp
	ret	0
?IsMonster@CBaseEntity@@UAEHXZ ENDP			; CBaseEntity::IsMonster
_TEXT	ENDS
; Function compile flags: /Odtp /ZI
; File d:\!diffusion 2020\source code 2022\client-server\server\cbase.h
;	COMDAT ?IsNetClient@CBaseEntity@@UAEHXZ
_TEXT	SEGMENT
_this$ = -4						; size = 4
?IsNetClient@CBaseEntity@@UAEHXZ PROC			; CBaseEntity::IsNetClient, COMDAT
; _this$ = ecx

; 457  : 	virtual BOOL	IsNetClient( void ) { return FALSE; }

	push	ebp
	mov	ebp, esp
	sub	esp, 68					; 00000044H
	push	ebx
	push	esi
	push	edi
	mov	DWORD PTR _this$[ebp], ecx
	xor	eax, eax
	pop	edi
	pop	esi
	pop	ebx
	mov	esp, ebp
	pop	ebp
	ret	0
?IsNetClient@CBaseEntity@@UAEHXZ ENDP			; CBaseEntity::IsNetClient
_TEXT	ENDS
; Function compile flags: /Odtp /ZI
; File d:\!diffusion 2020\source code 2022\client-server\server\cbase.h
;	COMDAT ?IsPlayer@CBaseEntity@@UAEHXZ
_TEXT	SEGMENT
_this$ = -4						; size = 4
?IsPlayer@CBaseEntity@@UAEHXZ PROC			; CBaseEntity::IsPlayer, COMDAT
; _this$ = ecx

; 456  : 	virtual BOOL	IsPlayer( void ) { return FALSE; }

	push	ebp
	mov	ebp, esp
	sub	esp, 68					; 00000044H
	push	ebx
	push	esi
	push	edi
	mov	DWORD PTR _this$[ebp], ecx
	xor	eax, eax
	pop	edi
	pop	esi
	pop	ebx
	mov	esp, ebp
	pop	ebp
	ret	0
?IsPlayer@CBaseEntity@@UAEHXZ ENDP			; CBaseEntity::IsPlayer
_TEXT	ENDS
; Function compile flags: /Odtp /ZI
; File d:\!diffusion 2020\source code 2022\client-server\server\cbase.h
;	COMDAT ?HasTarget@CBaseEntity@@UAEHH@Z
_TEXT	SEGMENT
_this$ = -4						; size = 4
_targetname$ = 8					; size = 4
?HasTarget@CBaseEntity@@UAEHH@Z PROC			; CBaseEntity::HasTarget, COMDAT
; _this$ = ecx

; 454  : 	virtual BOOL	HasTarget( string_t targetname ) { return FStrEq(STRING(targetname), STRING(pev->target) ); }

	push	ebp
	mov	ebp, esp
	sub	esp, 68					; 00000044H
	push	ebx
	push	esi
	push	edi
	mov	DWORD PTR _this$[ebp], ecx
	mov	eax, DWORD PTR _this$[ebp]
	mov	ecx, DWORD PTR [eax+4]
	mov	edx, DWORD PTR [ecx+456]
	push	edx
	call	DWORD PTR ?g_engfuncs@@3Uenginefuncs_s@@A+264
	add	esp, 4
	push	eax
	mov	eax, DWORD PTR _targetname$[ebp]
	push	eax
	call	DWORD PTR ?g_engfuncs@@3Uenginefuncs_s@@A+264
	add	esp, 4
	push	eax
	call	?FStrEq@@YAHPBD0@Z			; FStrEq
	add	esp, 8
	pop	edi
	pop	esi
	pop	ebx
	mov	esp, ebp
	pop	ebp
	ret	4
?HasTarget@CBaseEntity@@UAEHH@Z ENDP			; CBaseEntity::HasTarget
_TEXT	ENDS
; Function compile flags: /Odtp /ZI
; File d:\!diffusion 2020\source code 2022\client-server\server\cbase.h
;	COMDAT ?ReflectGauss@CBaseEntity@@UAEHXZ
_TEXT	SEGMENT
tv77 = -72						; size = 4
_this$ = -4						; size = 4
?ReflectGauss@CBaseEntity@@UAEHXZ PROC			; CBaseEntity::ReflectGauss, COMDAT
; _this$ = ecx

; 453  : 	virtual BOOL	ReflectGauss( void ) { return (( IsBSPModel() || IsCustomModel()) && !pev->takedamage ); }

	push	ebp
	mov	ebp, esp
	sub	esp, 72					; 00000048H
	push	ebx
	push	esi
	push	edi
	mov	DWORD PTR _this$[ebp], ecx
	mov	eax, DWORD PTR _this$[ebp]
	mov	edx, DWORD PTR [eax]
	mov	ecx, DWORD PTR _this$[ebp]
	mov	eax, DWORD PTR [edx+200]
	call	eax
	test	eax, eax
	jne	SHORT $LN3@ReflectGau
	mov	ecx, DWORD PTR _this$[ebp]
	mov	edx, DWORD PTR [ecx]
	mov	ecx, DWORD PTR _this$[ebp]
	mov	eax, DWORD PTR [edx+204]
	call	eax
	test	eax, eax
	je	SHORT $LN4@ReflectGau
$LN3@ReflectGau:
	mov	ecx, DWORD PTR _this$[ebp]
	mov	edx, DWORD PTR [ecx+4]
	movss	xmm0, DWORD PTR [edx+364]
	ucomiss	xmm0, DWORD PTR __real@00000000
	lahf
	test	ah, 68					; 00000044H
	jp	SHORT $LN4@ReflectGau
	mov	DWORD PTR tv77[ebp], 1
	jmp	SHORT $LN5@ReflectGau
$LN4@ReflectGau:
	mov	DWORD PTR tv77[ebp], 0
$LN5@ReflectGau:
	mov	eax, DWORD PTR tv77[ebp]
	pop	edi
	pop	esi
	pop	ebx
	mov	esp, ebp
	pop	ebp
	ret	0
?ReflectGauss@CBaseEntity@@UAEHXZ ENDP			; CBaseEntity::ReflectGauss
_TEXT	ENDS
; Function compile flags: /Odtp /ZI
; File d:\!diffusion 2020\source code 2022\client-server\server\cbase.h
;	COMDAT ?IsCustomModel@CBaseEntity@@UAEHXZ
_TEXT	SEGMENT
tv67 = -72						; size = 4
_this$ = -4						; size = 4
?IsCustomModel@CBaseEntity@@UAEHXZ PROC			; CBaseEntity::IsCustomModel, COMDAT
; _this$ = ecx

; 452  : 	virtual BOOL	IsCustomModel( void ) { return pev->solid == SOLID_CUSTOM; }

	push	ebp
	mov	ebp, esp
	sub	esp, 72					; 00000048H
	push	ebx
	push	esi
	push	edi
	mov	DWORD PTR _this$[ebp], ecx
	mov	eax, DWORD PTR _this$[ebp]
	mov	ecx, DWORD PTR [eax+4]
	cmp	DWORD PTR [ecx+268], 5
	jne	SHORT $LN3@IsCustomMo
	mov	DWORD PTR tv67[ebp], 1
	jmp	SHORT $LN4@IsCustomMo
$LN3@IsCustomMo:
	mov	DWORD PTR tv67[ebp], 0
$LN4@IsCustomMo:
	mov	eax, DWORD PTR tv67[ebp]
	pop	edi
	pop	esi
	pop	ebx
	mov	esp, ebp
	pop	ebp
	ret	0
?IsCustomModel@CBaseEntity@@UAEHXZ ENDP			; CBaseEntity::IsCustomModel
_TEXT	ENDS
; Function compile flags: /Odtp /ZI
; File d:\!diffusion 2020\source code 2022\client-server\server\cbase.h
;	COMDAT ?IsBSPModel@CBaseEntity@@UAEHXZ
_TEXT	SEGMENT
tv69 = -72						; size = 4
_this$ = -4						; size = 4
?IsBSPModel@CBaseEntity@@UAEHXZ PROC			; CBaseEntity::IsBSPModel, COMDAT
; _this$ = ecx

; 451  : 	virtual BOOL	IsBSPModel( void ) { return UTIL_GetModelType( pev->modelindex ) == mod_brush; }

	push	ebp
	mov	ebp, esp
	sub	esp, 72					; 00000048H
	push	ebx
	push	esi
	push	edi
	mov	DWORD PTR _this$[ebp], ecx
	mov	eax, DWORD PTR _this$[ebp]
	mov	ecx, DWORD PTR [eax+4]
	mov	edx, DWORD PTR [ecx+180]
	push	edx
	call	?UTIL_GetModelType@@YA?AW4modtype_t@@H@Z ; UTIL_GetModelType
	add	esp, 4
	test	eax, eax
	jne	SHORT $LN3@IsBSPModel
	mov	DWORD PTR tv69[ebp], 1
	jmp	SHORT $LN4@IsBSPModel
$LN3@IsBSPModel:
	mov	DWORD PTR tv69[ebp], 0
$LN4@IsBSPModel:
	mov	eax, DWORD PTR tv69[ebp]
	pop	edi
	pop	esi
	pop	ebx
	mov	esp, ebp
	pop	ebp
	ret	0
?IsBSPModel@CBaseEntity@@UAEHXZ ENDP			; CBaseEntity::IsBSPModel
_TEXT	ENDS
; Function compile flags: /Odtp /ZI
; File d:\!diffusion 2020\source code 2022\client-server\server\cbase.h
;	COMDAT ?IsAlive@CBaseEntity@@UAEHXZ
_TEXT	SEGMENT
tv70 = -72						; size = 4
_this$ = -4						; size = 4
?IsAlive@CBaseEntity@@UAEHXZ PROC			; CBaseEntity::IsAlive, COMDAT
; _this$ = ecx

; 450  : 	virtual BOOL	IsAlive( void ) { return (pev->deadflag == DEAD_NO) && pev->health > 0; }

	push	ebp
	mov	ebp, esp
	sub	esp, 72					; 00000048H
	push	ebx
	push	esi
	push	edi
	mov	DWORD PTR _this$[ebp], ecx
	mov	eax, DWORD PTR _this$[ebp]
	mov	ecx, DWORD PTR [eax+4]
	cmp	DWORD PTR [ecx+368], 0
	jne	SHORT $LN3@IsAlive
	mov	edx, DWORD PTR _this$[ebp]
	mov	eax, DWORD PTR [edx+4]
	movss	xmm0, DWORD PTR [eax+352]
	comiss	xmm0, DWORD PTR __real@00000000
	jbe	SHORT $LN3@IsAlive
	mov	DWORD PTR tv70[ebp], 1
	jmp	SHORT $LN4@IsAlive
$LN3@IsAlive:
	mov	DWORD PTR tv70[ebp], 0
$LN4@IsAlive:
	mov	eax, DWORD PTR tv70[ebp]
	pop	edi
	pop	esi
	pop	ebx
	mov	esp, ebp
	pop	ebp
	ret	0
?IsAlive@CBaseEntity@@UAEHXZ ENDP			; CBaseEntity::IsAlive
_TEXT	ENDS
; Function compile flags: /Odtp /ZI
; File d:\!diffusion 2020\source code 2022\client-server\server\cbase.h
;	COMDAT ?IsSneaking@CBaseEntity@@UAEHXZ
_TEXT	SEGMENT
_this$ = -4						; size = 4
?IsSneaking@CBaseEntity@@UAEHXZ PROC			; CBaseEntity::IsSneaking, COMDAT
; _this$ = ecx

; 449  : 	virtual BOOL	IsSneaking( void ) { return FALSE; }

	push	ebp
	mov	ebp, esp
	sub	esp, 68					; 00000044H
	push	ebx
	push	esi
	push	edi
	mov	DWORD PTR _this$[ebp], ecx
	xor	eax, eax
	pop	edi
	pop	esi
	pop	ebx
	mov	esp, ebp
	pop	ebp
	ret	0
?IsSneaking@CBaseEntity@@UAEHXZ ENDP			; CBaseEntity::IsSneaking
_TEXT	ENDS
; Function compile flags: /Odtp /ZI
; File d:\!diffusion 2020\source code 2022\client-server\server\cbase.h
;	COMDAT ?OnControls@CBaseEntity@@UAEHPAV1@@Z
_TEXT	SEGMENT
_this$ = -4						; size = 4
_pTest$ = 8						; size = 4
?OnControls@CBaseEntity@@UAEHPAV1@@Z PROC		; CBaseEntity::OnControls, COMDAT
; _this$ = ecx

; 448  : 	virtual BOOL	OnControls( CBaseEntity *pTest ) { return FALSE; }

	push	ebp
	mov	ebp, esp
	sub	esp, 68					; 00000044H
	push	ebx
	push	esi
	push	edi
	mov	DWORD PTR _this$[ebp], ecx
	xor	eax, eax
	pop	edi
	pop	esi
	pop	ebx
	mov	esp, ebp
	pop	ebp
	ret	4
?OnControls@CBaseEntity@@UAEHPAV1@@Z ENDP		; CBaseEntity::OnControls
_TEXT	ENDS
; Function compile flags: /Odtp /ZI
; File d:\!diffusion 2020\source code 2022\client-server\server\cbase.h
;	COMDAT ?StopSneaking@CBaseEntity@@UAEXXZ
_TEXT	SEGMENT
_this$ = -4						; size = 4
?StopSneaking@CBaseEntity@@UAEXXZ PROC			; CBaseEntity::StopSneaking, COMDAT
; _this$ = ecx

; 447  : 	virtual void	StopSneaking( void ) {}

	push	ebp
	mov	ebp, esp
	sub	esp, 68					; 00000044H
	push	ebx
	push	esi
	push	edi
	mov	DWORD PTR _this$[ebp], ecx
	pop	edi
	pop	esi
	pop	ebx
	mov	esp, ebp
	pop	ebp
	ret	0
?StopSneaking@CBaseEntity@@UAEXXZ ENDP			; CBaseEntity::StopSneaking
_TEXT	ENDS
; Function compile flags: /Odtp /ZI
; File d:\!diffusion 2020\source code 2022\client-server\server\cbase.h
;	COMDAT ?StartSneaking@CBaseEntity@@UAEXXZ
_TEXT	SEGMENT
_this$ = -4						; size = 4
?StartSneaking@CBaseEntity@@UAEXXZ PROC			; CBaseEntity::StartSneaking, COMDAT
; _this$ = ecx

; 446  : 	virtual void	StartSneaking( void ) {}

	push	ebp
	mov	ebp, esp
	sub	esp, 68					; 00000044H
	push	ebx
	push	esi
	push	edi
	mov	DWORD PTR _this$[ebp], ecx
	pop	edi
	pop	esi
	pop	ebx
	mov	esp, ebp
	pop	ebp
	ret	0
?StartSneaking@CBaseEntity@@UAEXXZ ENDP			; CBaseEntity::StartSneaking
_TEXT	ENDS
; Function compile flags: /Odtp /ZI
; File d:\!diffusion 2020\source code 2022\client-server\server\cbase.h
;	COMDAT ?SetToggleState@CBaseEntity@@UAEXH@Z
_TEXT	SEGMENT
_this$ = -4						; size = 4
_state$ = 8						; size = 4
?SetToggleState@CBaseEntity@@UAEXH@Z PROC		; CBaseEntity::SetToggleState, COMDAT
; _this$ = ecx

; 445  : 	virtual void	SetToggleState( int state ) {}

	push	ebp
	mov	ebp, esp
	sub	esp, 68					; 00000044H
	push	ebx
	push	esi
	push	edi
	mov	DWORD PTR _this$[ebp], ecx
	pop	edi
	pop	esi
	pop	ebx
	mov	esp, ebp
	pop	ebp
	ret	4
?SetToggleState@CBaseEntity@@UAEXH@Z ENDP		; CBaseEntity::SetToggleState
_TEXT	ENDS
; Function compile flags: /Odtp /ZI
; File d:\!diffusion 2020\source code 2022\client-server\server\cbase.h
;	COMDAT ?TransferReset@CBaseEntity@@UAEXXZ
_TEXT	SEGMENT
_this$ = -4						; size = 4
?TransferReset@CBaseEntity@@UAEXXZ PROC			; CBaseEntity::TransferReset, COMDAT
; _this$ = ecx

; 442  : 	virtual void	TransferReset( void ) {}

	push	ebp
	mov	ebp, esp
	sub	esp, 68					; 00000044H
	push	ebx
	push	esi
	push	edi
	mov	DWORD PTR _this$[ebp], ecx
	pop	edi
	pop	esi
	pop	ebx
	mov	esp, ebp
	pop	ebp
	ret	0
?TransferReset@CBaseEntity@@UAEXXZ ENDP			; CBaseEntity::TransferReset
_TEXT	ENDS
; Function compile flags: /Odtp /ZI
; File d:\!diffusion 2020\source code 2022\client-server\server\cbase.h
;	COMDAT ?OverrideReset@CBaseEntity@@UAEXXZ
_TEXT	SEGMENT
_this$ = -4						; size = 4
?OverrideReset@CBaseEntity@@UAEXXZ PROC			; CBaseEntity::OverrideReset, COMDAT
; _this$ = ecx

; 441  : 	virtual void	OverrideReset( void ) {}

	push	ebp
	mov	ebp, esp
	sub	esp, 68					; 00000044H
	push	ebx
	push	esi
	push	edi
	mov	DWORD PTR _this$[ebp], ecx
	pop	edi
	pop	esi
	pop	ebx
	mov	esp, ebp
	pop	ebp
	ret	0
?OverrideReset@CBaseEntity@@UAEXXZ ENDP			; CBaseEntity::OverrideReset
_TEXT	ENDS
; Function compile flags: /Odtp /ZI
; File d:\!diffusion 2020\source code 2022\client-server\server\cbase.h
;	COMDAT ?IsMoving@CBaseEntity@@UAEHXZ
_TEXT	SEGMENT
_this$ = -4						; size = 4
?IsMoving@CBaseEntity@@UAEHXZ PROC			; CBaseEntity::IsMoving, COMDAT
; _this$ = ecx

; 440  : 	virtual int	IsMoving( void ) { return GetAbsVelocity() != g_vecZero; }

	push	ebp
	mov	ebp, esp
	sub	esp, 68					; 00000044H
	push	ebx
	push	esi
	push	edi
	mov	DWORD PTR _this$[ebp], ecx
	push	OFFSET ?g_vecZero@@3VVector@@B		; g_vecZero
	mov	ecx, DWORD PTR _this$[ebp]
	call	?GetAbsVelocity@CBaseEntity@@QBEABVVector@@XZ ; CBaseEntity::GetAbsVelocity
	mov	ecx, eax
	call	??9Vector@@QBEHABV0@@Z			; Vector::operator!=
	pop	edi
	pop	esi
	pop	ebx
	mov	esp, ebp
	pop	ebp
	ret	0
?IsMoving@CBaseEntity@@UAEHXZ ENDP			; CBaseEntity::IsMoving
_TEXT	ENDS
; Function compile flags: /Odtp /ZI
; File d:\!diffusion 2020\source code 2022\client-server\server\cbase.h
;	COMDAT ?GetDelay@CBaseEntity@@UAEMXZ
_TEXT	SEGMENT
_this$ = -4						; size = 4
?GetDelay@CBaseEntity@@UAEMXZ PROC			; CBaseEntity::GetDelay, COMDAT
; _this$ = ecx

; 439  : 	virtual float	GetDelay( void ) { return 0; }

	push	ebp
	mov	ebp, esp
	sub	esp, 68					; 00000044H
	push	ebx
	push	esi
	push	edi
	mov	DWORD PTR _this$[ebp], ecx
	fldz
	pop	edi
	pop	esi
	pop	ebx
	mov	esp, ebp
	pop	ebp
	ret	0
?GetDelay@CBaseEntity@@UAEMXZ ENDP			; CBaseEntity::GetDelay
_TEXT	ENDS
; Function compile flags: /Odtp /ZI
; File d:\!diffusion 2020\source code 2022\client-server\server\cbase.h
;	COMDAT ?GiveAmmo@CBaseEntity@@UAEHHPADH@Z
_TEXT	SEGMENT
_this$ = -4						; size = 4
_iAmount$ = 8						; size = 4
_szName$ = 12						; size = 4
_iMax$ = 16						; size = 4
?GiveAmmo@CBaseEntity@@UAEHHPADH@Z PROC			; CBaseEntity::GiveAmmo, COMDAT
; _this$ = ecx

; 438  : 	virtual int 	GiveAmmo( int iAmount, char *szName, int iMax ) { return -1; };

	push	ebp
	mov	ebp, esp
	sub	esp, 68					; 00000044H
	push	ebx
	push	esi
	push	edi
	mov	DWORD PTR _this$[ebp], ecx
	or	eax, -1
	pop	edi
	pop	esi
	pop	ebx
	mov	esp, ebp
	pop	ebp
	ret	12					; 0000000cH
?GiveAmmo@CBaseEntity@@UAEHHPADH@Z ENDP			; CBaseEntity::GiveAmmo
_TEXT	ENDS
; Function compile flags: /Odtp /ZI
; File d:\!diffusion 2020\source code 2022\client-server\server\cbase.h
;	COMDAT ?RemovePlayerItem@CBaseEntity@@UAEHPAVCBasePlayerItem@@@Z
_TEXT	SEGMENT
_this$ = -4						; size = 4
_pItem$ = 8						; size = 4
?RemovePlayerItem@CBaseEntity@@UAEHPAVCBasePlayerItem@@@Z PROC ; CBaseEntity::RemovePlayerItem, COMDAT
; _this$ = ecx

; 437  : 	virtual BOOL	RemovePlayerItem( CBasePlayerItem *pItem ) { return 0; }

	push	ebp
	mov	ebp, esp
	sub	esp, 68					; 00000044H
	push	ebx
	push	esi
	push	edi
	mov	DWORD PTR _this$[ebp], ecx
	xor	eax, eax
	pop	edi
	pop	esi
	pop	ebx
	mov	esp, ebp
	pop	ebp
	ret	4
?RemovePlayerItem@CBaseEntity@@UAEHPAVCBasePlayerItem@@@Z ENDP ; CBaseEntity::RemovePlayerItem
_TEXT	ENDS
; Function compile flags: /Odtp /ZI
; File d:\!diffusion 2020\source code 2022\client-server\server\cbase.h
;	COMDAT ?AddPlayerItem@CBaseEntity@@UAEHPAVCBasePlayerItem@@@Z
_TEXT	SEGMENT
_this$ = -4						; size = 4
_pItem$ = 8						; size = 4
?AddPlayerItem@CBaseEntity@@UAEHPAVCBasePlayerItem@@@Z PROC ; CBaseEntity::AddPlayerItem, COMDAT
; _this$ = ecx

; 436  : 	virtual BOOL	AddPlayerItem( CBasePlayerItem *pItem ) { return 0; }

	push	ebp
	mov	ebp, esp
	sub	esp, 68					; 00000044H
	push	ebx
	push	esi
	push	edi
	mov	DWORD PTR _this$[ebp], ecx
	xor	eax, eax
	pop	edi
	pop	esi
	pop	ebx
	mov	esp, ebp
	pop	ebp
	ret	4
?AddPlayerItem@CBaseEntity@@UAEHPAVCBasePlayerItem@@@Z ENDP ; CBaseEntity::AddPlayerItem
_TEXT	ENDS
; Function compile flags: /Odtp /ZI
; File d:\!diffusion 2020\source code 2022\client-server\server\cbase.h
;	COMDAT ?AddPointsToTeam@CBaseEntity@@UAEXHH@Z
_TEXT	SEGMENT
_this$ = -4						; size = 4
_score$ = 8						; size = 4
_bAllowNegativeScore$ = 12				; size = 4
?AddPointsToTeam@CBaseEntity@@UAEXHH@Z PROC		; CBaseEntity::AddPointsToTeam, COMDAT
; _this$ = ecx

; 435  : 	virtual void	AddPointsToTeam( int score, BOOL bAllowNegativeScore ) {}

	push	ebp
	mov	ebp, esp
	sub	esp, 68					; 00000044H
	push	ebx
	push	esi
	push	edi
	mov	DWORD PTR _this$[ebp], ecx
	pop	edi
	pop	esi
	pop	ebx
	mov	esp, ebp
	pop	ebp
	ret	8
?AddPointsToTeam@CBaseEntity@@UAEXHH@Z ENDP		; CBaseEntity::AddPointsToTeam
_TEXT	ENDS
; Function compile flags: /Odtp /ZI
; File d:\!diffusion 2020\source code 2022\client-server\server\cbase.h
;	COMDAT ?AddPoints@CBaseEntity@@UAEXHH@Z
_TEXT	SEGMENT
_this$ = -4						; size = 4
_score$ = 8						; size = 4
_bAllowNegativeScore$ = 12				; size = 4
?AddPoints@CBaseEntity@@UAEXHH@Z PROC			; CBaseEntity::AddPoints, COMDAT
; _this$ = ecx

; 434  : 	virtual void	AddPoints( int score, BOOL bAllowNegativeScore ) {}

	push	ebp
	mov	ebp, esp
	sub	esp, 68					; 00000044H
	push	ebx
	push	esi
	push	edi
	mov	DWORD PTR _this$[ebp], ecx
	pop	edi
	pop	esi
	pop	ebx
	mov	esp, ebp
	pop	ebp
	ret	8
?AddPoints@CBaseEntity@@UAEXHH@Z ENDP			; CBaseEntity::AddPoints
_TEXT	ENDS
; Function compile flags: /Odtp /ZI
; File d:\!diffusion 2020\source code 2022\client-server\server\cbase.h
;	COMDAT ?GetToggleState@CBaseEntity@@UAEHXZ
_TEXT	SEGMENT
_this$ = -4						; size = 4
?GetToggleState@CBaseEntity@@UAEHXZ PROC		; CBaseEntity::GetToggleState, COMDAT
; _this$ = ecx

; 433  : 	virtual int	GetToggleState( void ) { return TS_AT_TOP; }

	push	ebp
	mov	ebp, esp
	sub	esp, 68					; 00000044H
	push	ebx
	push	esi
	push	edi
	mov	DWORD PTR _this$[ebp], ecx
	xor	eax, eax
	pop	edi
	pop	esi
	pop	ebx
	mov	esp, ebp
	pop	ebp
	ret	0
?GetToggleState@CBaseEntity@@UAEHXZ ENDP		; CBaseEntity::GetToggleState
_TEXT	ENDS
; Function compile flags: /Odtp /ZI
; File d:\!diffusion 2020\source code 2022\client-server\server\cbase.h
;	COMDAT ?MySquadMonsterPointer@CBaseEntity@@UAEPAVCSquadMonster@@XZ
_TEXT	SEGMENT
_this$ = -4						; size = 4
?MySquadMonsterPointer@CBaseEntity@@UAEPAVCSquadMonster@@XZ PROC ; CBaseEntity::MySquadMonsterPointer, COMDAT
; _this$ = ecx

; 432  : 	virtual CSquadMonster *MySquadMonsterPointer( void ) { return NULL;}

	push	ebp
	mov	ebp, esp
	sub	esp, 68					; 00000044H
	push	ebx
	push	esi
	push	edi
	mov	DWORD PTR _this$[ebp], ecx
	xor	eax, eax
	pop	edi
	pop	esi
	pop	ebx
	mov	esp, ebp
	pop	ebp
	ret	0
?MySquadMonsterPointer@CBaseEntity@@UAEPAVCSquadMonster@@XZ ENDP ; CBaseEntity::MySquadMonsterPointer
_TEXT	ENDS
; Function compile flags: /Odtp /ZI
; File d:\!diffusion 2020\source code 2022\client-server\server\cbase.h
;	COMDAT ?MyMonsterPointer@CBaseEntity@@UAEPAVCBaseMonster@@XZ
_TEXT	SEGMENT
_this$ = -4						; size = 4
?MyMonsterPointer@CBaseEntity@@UAEPAVCBaseMonster@@XZ PROC ; CBaseEntity::MyMonsterPointer, COMDAT
; _this$ = ecx

; 431  : 	virtual CBaseMonster *MyMonsterPointer( void ) { return NULL;}

	push	ebp
	mov	ebp, esp
	sub	esp, 68					; 00000044H
	push	ebx
	push	esi
	push	edi
	mov	DWORD PTR _this$[ebp], ecx
	xor	eax, eax
	pop	edi
	pop	esi
	pop	ebx
	mov	esp, ebp
	pop	ebp
	ret	0
?MyMonsterPointer@CBaseEntity@@UAEPAVCBaseMonster@@XZ ENDP ; CBaseEntity::MyMonsterPointer
_TEXT	ENDS
; Function compile flags: /Odtp /ZI
; File d:\!diffusion 2020\source code 2022\client-server\server\cbase.h
;	COMDAT ?IsTriggered@CBaseEntity@@UAEHPAV1@@Z
_TEXT	SEGMENT
_this$ = -4						; size = 4
_pActivator$ = 8					; size = 4
?IsTriggered@CBaseEntity@@UAEHPAV1@@Z PROC		; CBaseEntity::IsTriggered, COMDAT
; _this$ = ecx

; 430  : 	virtual BOOL	IsTriggered( CBaseEntity *pActivator ) {return TRUE;}

	push	ebp
	mov	ebp, esp
	sub	esp, 68					; 00000044H
	push	ebx
	push	esi
	push	edi
	mov	DWORD PTR _this$[ebp], ecx
	mov	eax, 1
	pop	edi
	pop	esi
	pop	ebx
	mov	esp, ebp
	pop	ebp
	ret	4
?IsTriggered@CBaseEntity@@UAEHPAV1@@Z ENDP		; CBaseEntity::IsTriggered
_TEXT	ENDS
; Function compile flags: /Odtp /ZI
; File d:\!diffusion 2020\source code 2022\client-server\server\cbase.h
;	COMDAT ?BloodColor@CBaseEntity@@UAEHXZ
_TEXT	SEGMENT
_this$ = -4						; size = 4
?BloodColor@CBaseEntity@@UAEHXZ PROC			; CBaseEntity::BloodColor, COMDAT
; _this$ = ecx

; 428  : 	virtual int	BloodColor( void ) { return DONT_BLEED; }

	push	ebp
	mov	ebp, esp
	sub	esp, 68					; 00000044H
	push	ebx
	push	esi
	push	edi
	mov	DWORD PTR _this$[ebp], ecx
	or	eax, -1
	pop	edi
	pop	esi
	pop	ebx
	mov	esp, ebp
	pop	ebp
	ret	0
?BloodColor@CBaseEntity@@UAEHXZ ENDP			; CBaseEntity::BloodColor
_TEXT	ENDS
; Function compile flags: /Odtp /ZI
; File d:\!diffusion 2020\source code 2022\client-server\server\cbase.h
;	COMDAT ?GetState@CBaseEntity@@UAE?AW4STATE@@PAV1@@Z
_TEXT	SEGMENT
_this$ = -4						; size = 4
_pEnt$ = 8						; size = 4
?GetState@CBaseEntity@@UAE?AW4STATE@@PAV1@@Z PROC	; CBaseEntity::GetState, COMDAT
; _this$ = ecx

; 421  : 	virtual STATE GetState ( CBaseEntity* pEnt ) { return GetState(); };

	push	ebp
	mov	ebp, esp
	sub	esp, 68					; 00000044H
	push	ebx
	push	esi
	push	edi
	mov	DWORD PTR _this$[ebp], ecx
	mov	eax, DWORD PTR _this$[ebp]
	mov	edx, DWORD PTR [eax]
	mov	ecx, DWORD PTR _this$[ebp]
	mov	eax, DWORD PTR [edx+88]
	call	eax
	pop	edi
	pop	esi
	pop	ebx
	mov	esp, ebp
	pop	ebp
	ret	4
?GetState@CBaseEntity@@UAE?AW4STATE@@PAV1@@Z ENDP	; CBaseEntity::GetState
_TEXT	ENDS
; Function compile flags: /Odtp /ZI
; File d:\!diffusion 2020\source code 2022\client-server\server\cbase.h
;	COMDAT ?GetState@CBaseEntity@@UAE?AW4STATE@@XZ
_TEXT	SEGMENT
_this$ = -4						; size = 4
?GetState@CBaseEntity@@UAE?AW4STATE@@XZ PROC		; CBaseEntity::GetState, COMDAT
; _this$ = ecx

; 418  : 	virtual STATE GetState ( void ) { return STATE_OFF; };

	push	ebp
	mov	ebp, esp
	sub	esp, 68					; 00000044H
	push	ebx
	push	esi
	push	edi
	mov	DWORD PTR _this$[ebp], ecx
	xor	eax, eax
	pop	edi
	pop	esi
	pop	ebx
	mov	esp, ebp
	pop	ebp
	ret	0
?GetState@CBaseEntity@@UAE?AW4STATE@@XZ ENDP		; CBaseEntity::GetState
_TEXT	ENDS
; Function compile flags: /Odtp /ZI
; File d:\!diffusion 2020\source code 2022\client-server\server\cbase.h
;	COMDAT ?IsRigidBody@CBaseEntity@@UAEHXZ
_TEXT	SEGMENT
tv67 = -72						; size = 4
_this$ = -4						; size = 4
?IsRigidBody@CBaseEntity@@UAEHXZ PROC			; CBaseEntity::IsRigidBody, COMDAT
; _this$ = ecx

; 407  : 	virtual BOOL IsRigidBody( void ) { return (m_iActorType == ACTOR_DYNAMIC); } 

	push	ebp
	mov	ebp, esp
	sub	esp, 72					; 00000048H
	push	ebx
	push	esi
	push	edi
	mov	DWORD PTR _this$[ebp], ecx
	mov	eax, DWORD PTR _this$[ebp]
	movzx	ecx, BYTE PTR [eax+1616]
	cmp	ecx, 1
	jne	SHORT $LN3@IsRigidBod
	mov	DWORD PTR tv67[ebp], 1
	jmp	SHORT $LN4@IsRigidBod
$LN3@IsRigidBod:
	mov	DWORD PTR tv67[ebp], 0
$LN4@IsRigidBod:
	mov	eax, DWORD PTR tv67[ebp]
	pop	edi
	pop	esi
	pop	ebx
	mov	esp, ebp
	pop	ebp
	ret	0
?IsRigidBody@CBaseEntity@@UAEHXZ ENDP			; CBaseEntity::IsRigidBody
_TEXT	ENDS
; Function compile flags: /Odtp /ZI
; File d:\!diffusion 2020\source code 2022\client-server\server\cbase.h
;	COMDAT ?DeathNotice@CBaseEntity@@UAEXPAUentvars_s@@@Z
_TEXT	SEGMENT
_this$ = -4						; size = 4
_pevChild$ = 8						; size = 4
?DeathNotice@CBaseEntity@@UAEXPAUentvars_s@@@Z PROC	; CBaseEntity::DeathNotice, COMDAT
; _this$ = ecx

; 406  : 	virtual void DeathNotice ( entvars_t *pevChild ) { } // monster maker children use this to tell the monster maker that they have died.

	push	ebp
	mov	ebp, esp
	sub	esp, 68					; 00000044H
	push	ebx
	push	esi
	push	edi
	mov	DWORD PTR _this$[ebp], ecx
	pop	edi
	pop	esi
	pop	ebx
	mov	esp, ebp
	pop	ebp
	ret	4
?DeathNotice@CBaseEntity@@UAEXPAUentvars_s@@@Z ENDP	; CBaseEntity::DeathNotice
_TEXT	ENDS
; Function compile flags: /Odtp /ZI
; File d:\!diffusion 2020\source code 2022\client-server\server\cbase.h
;	COMDAT ?Classify@CBaseEntity@@UAEHXZ
_TEXT	SEGMENT
_this$ = -4						; size = 4
?Classify@CBaseEntity@@UAEHXZ PROC			; CBaseEntity::Classify, COMDAT
; _this$ = ecx

; 405  : 	virtual int Classify ( void ) { return CLASS_NONE; };

	push	ebp
	mov	ebp, esp
	sub	esp, 68					; 00000044H
	push	ebx
	push	esi
	push	edi
	mov	DWORD PTR _this$[ebp], ecx
	xor	eax, eax
	pop	edi
	pop	esi
	pop	ebx
	mov	esp, ebp
	pop	ebp
	ret	0
?Classify@CBaseEntity@@UAEHXZ ENDP			; CBaseEntity::Classify
_TEXT	ENDS
; Function compile flags: /Odtp /ZI
; File d:\!diffusion 2020\source code 2022\client-server\server\cbase.h
;	COMDAT ?OnRemove@CBaseEntity@@UAEXXZ
_TEXT	SEGMENT
_this$ = -4						; size = 4
?OnRemove@CBaseEntity@@UAEXXZ PROC			; CBaseEntity::OnRemove, COMDAT
; _this$ = ecx

; 393  : 	virtual void	OnRemove( void ) {}

	push	ebp
	mov	ebp, esp
	sub	esp, 68					; 00000044H
	push	ebx
	push	esi
	push	edi
	mov	DWORD PTR _this$[ebp], ecx
	pop	edi
	pop	esi
	pop	ebx
	mov	esp, ebp
	pop	ebp
	ret	0
?OnRemove@CBaseEntity@@UAEXXZ ENDP			; CBaseEntity::OnRemove
_TEXT	ENDS
; Function compile flags: /Odtp /ZI
; File d:\!diffusion 2020\source code 2022\client-server\server\cbase.h
;	COMDAT ?OnClearParent@CBaseEntity@@UAEXXZ
_TEXT	SEGMENT
_this$ = -4						; size = 4
?OnClearParent@CBaseEntity@@UAEXXZ PROC			; CBaseEntity::OnClearParent, COMDAT
; _this$ = ecx

; 392  : 	virtual void	OnClearParent( void ) {}

	push	ebp
	mov	ebp, esp
	sub	esp, 68					; 00000044H
	push	ebx
	push	esi
	push	edi
	mov	DWORD PTR _this$[ebp], ecx
	pop	edi
	pop	esi
	pop	ebx
	mov	esp, ebp
	pop	ebp
	ret	0
?OnClearParent@CBaseEntity@@UAEXXZ ENDP			; CBaseEntity::OnClearParent
_TEXT	ENDS
; Function compile flags: /Odtp /ZI
; File d:\!diffusion 2020\source code 2022\client-server\server\cbase.h
;	COMDAT ?OnChangeParent@CBaseEntity@@UAEXXZ
_TEXT	SEGMENT
_this$ = -4						; size = 4
?OnChangeParent@CBaseEntity@@UAEXXZ PROC		; CBaseEntity::OnChangeParent, COMDAT
; _this$ = ecx

; 391  : 	virtual void	OnChangeParent( void ) {}

	push	ebp
	mov	ebp, esp
	sub	esp, 68					; 00000044H
	push	ebx
	push	esi
	push	edi
	mov	DWORD PTR _this$[ebp], ecx
	pop	edi
	pop	esi
	pop	ebx
	mov	esp, ebp
	pop	ebp
	ret	0
?OnChangeParent@CBaseEntity@@UAEXXZ ENDP		; CBaseEntity::OnChangeParent
_TEXT	ENDS
; Function compile flags: /Odtp /ZI
; File d:\!diffusion 2020\source code 2022\client-server\server\cbase.h
;	COMDAT ?GetPosition@CBaseEntity@@UAEMXZ
_TEXT	SEGMENT
_this$ = -4						; size = 4
?GetPosition@CBaseEntity@@UAEMXZ PROC			; CBaseEntity::GetPosition, COMDAT
; _this$ = ecx

; 390  : 	virtual float	GetPosition( void ) { return 0.0f; }

	push	ebp
	mov	ebp, esp
	sub	esp, 68					; 00000044H
	push	ebx
	push	esi
	push	edi
	mov	DWORD PTR _this$[ebp], ecx
	fldz
	pop	edi
	pop	esi
	pop	ebx
	mov	esp, ebp
	pop	ebp
	ret	0
?GetPosition@CBaseEntity@@UAEMXZ ENDP			; CBaseEntity::GetPosition
_TEXT	ENDS
; Function compile flags: /Odtp /ZI
; File d:\!diffusion 2020\source code 2022\client-server\server\cbase.h
;	COMDAT ?StartMessage@CBaseEntity@@UAEXPAVCBasePlayer@@@Z
_TEXT	SEGMENT
_this$ = -4						; size = 4
_pPlayer$ = 8						; size = 4
?StartMessage@CBaseEntity@@UAEXPAVCBasePlayer@@@Z PROC	; CBaseEntity::StartMessage, COMDAT
; _this$ = ecx

; 389  :           virtual void	StartMessage( CBasePlayer *pPlayer ) {}

	push	ebp
	mov	ebp, esp
	sub	esp, 68					; 00000044H
	push	ebx
	push	esi
	push	edi
	mov	DWORD PTR _this$[ebp], ecx
	pop	edi
	pop	esi
	pop	ebx
	mov	esp, ebp
	pop	ebp
	ret	4
?StartMessage@CBaseEntity@@UAEXPAVCBasePlayer@@@Z ENDP	; CBaseEntity::StartMessage
_TEXT	ENDS
; Function compile flags: /Odtp /ZI
; File d:\!diffusion 2020\source code 2022\client-server\server\cbase.h
;	COMDAT ?PortalSleep@CBaseEntity@@UAEXM@Z
_TEXT	SEGMENT
_this$ = -4						; size = 4
_seconds$ = 8						; size = 4
?PortalSleep@CBaseEntity@@UAEXM@Z PROC			; CBaseEntity::PortalSleep, COMDAT
; _this$ = ecx

; 388  : 	virtual void	PortalSleep( float seconds ) {}

	push	ebp
	mov	ebp, esp
	sub	esp, 68					; 00000044H
	push	ebx
	push	esi
	push	edi
	mov	DWORD PTR _this$[ebp], ecx
	pop	edi
	pop	esi
	pop	ebx
	mov	esp, ebp
	pop	ebp
	ret	4
?PortalSleep@CBaseEntity@@UAEXM@Z ENDP			; CBaseEntity::PortalSleep
_TEXT	ENDS
; Function compile flags: /Odtp /ZI
; File d:\!diffusion 2020\source code 2022\client-server\server\cbase.h
;	COMDAT ?OnTeleport@CBaseEntity@@UAEXXZ
_TEXT	SEGMENT
_this$ = -4						; size = 4
?OnTeleport@CBaseEntity@@UAEXXZ PROC			; CBaseEntity::OnTeleport, COMDAT
; _this$ = ecx

; 387  : 	virtual void	OnTeleport( void ) {}

	push	ebp
	mov	ebp, esp
	sub	esp, 68					; 00000044H
	push	ebx
	push	esi
	push	edi
	mov	DWORD PTR _this$[ebp], ecx
	pop	edi
	pop	esi
	pop	ebx
	mov	esp, ebp
	pop	ebp
	ret	0
?OnTeleport@CBaseEntity@@UAEXXZ ENDP			; CBaseEntity::OnTeleport
_TEXT	ENDS
; Function compile flags: /Odtp /ZI
; File d:\!diffusion 2020\source code 2022\client-server\server\cbase.h
;	COMDAT ?OnChangeLevel@CBaseEntity@@UAEXXZ
_TEXT	SEGMENT
_this$ = -4						; size = 4
?OnChangeLevel@CBaseEntity@@UAEXXZ PROC			; CBaseEntity::OnChangeLevel, COMDAT
; _this$ = ecx

; 386  : 	virtual void	OnChangeLevel( void ) {}

	push	ebp
	mov	ebp, esp
	sub	esp, 68					; 00000044H
	push	ebx
	push	esi
	push	edi
	mov	DWORD PTR _this$[ebp], ecx
	pop	edi
	pop	esi
	pop	ebx
	mov	esp, ebp
	pop	ebp
	ret	0
?OnChangeLevel@CBaseEntity@@UAEXXZ ENDP			; CBaseEntity::OnChangeLevel
_TEXT	ENDS
; Function compile flags: /Odtp /ZI
; File d:\!diffusion 2020\source code 2022\client-server\server\cbase.h
;	COMDAT ?Activate@CBaseEntity@@UAEXXZ
_TEXT	SEGMENT
_this$ = -4						; size = 4
?Activate@CBaseEntity@@UAEXXZ PROC			; CBaseEntity::Activate, COMDAT
; _this$ = ecx

; 385  : 	virtual void	Activate( void ) {}

	push	ebp
	mov	ebp, esp
	sub	esp, 68					; 00000044H
	push	ebx
	push	esi
	push	edi
	mov	DWORD PTR _this$[ebp], ecx
	pop	edi
	pop	esi
	pop	ebx
	mov	esp, ebp
	pop	ebp
	ret	0
?Activate@CBaseEntity@@UAEXXZ ENDP			; CBaseEntity::Activate
_TEXT	ENDS
; Function compile flags: /Odtp /ZI
; File d:\!diffusion 2020\source code 2022\client-server\server\cbase.h
;	COMDAT ?ObjectCaps@CBaseEntity@@UAEHXZ
_TEXT	SEGMENT
_this$ = -4						; size = 4
?ObjectCaps@CBaseEntity@@UAEHXZ PROC			; CBaseEntity::ObjectCaps, COMDAT
; _this$ = ecx

; 384  : 	virtual int	ObjectCaps( void ) { return FCAP_ACROSS_TRANSITION; }

	push	ebp
	mov	ebp, esp
	sub	esp, 68					; 00000044H
	push	ebx
	push	esi
	push	edi
	mov	DWORD PTR _this$[ebp], ecx
	mov	eax, 2
	pop	edi
	pop	esi
	pop	ebx
	mov	esp, ebp
	pop	ebp
	ret	0
?ObjectCaps@CBaseEntity@@UAEHXZ ENDP			; CBaseEntity::ObjectCaps
_TEXT	ENDS
; Function compile flags: /Odtp /ZI
; File d:\!diffusion 2020\source code 2022\client-server\server\cbase.h
;	COMDAT ?KeyValue@CBaseEntity@@UAEXPAUKeyValueData_s@@@Z
_TEXT	SEGMENT
tv139 = -72						; size = 4
_this$ = -4						; size = 4
_pkvd$ = 8						; size = 4
?KeyValue@CBaseEntity@@UAEXPAUKeyValueData_s@@@Z PROC	; CBaseEntity::KeyValue, COMDAT
; _this$ = ecx

; 343  : 	{

	push	ebp
	mov	ebp, esp
	sub	esp, 72					; 00000048H
	push	ebx
	push	esi
	push	edi
	mov	DWORD PTR _this$[ebp], ecx

; 344  : 		// get support for spirit field too
; 345  : 		if( FStrEq( pkvd->szKeyName, "parent" ) || FStrEq( pkvd->szKeyName, "movewith" ))

	push	OFFSET ??_C@_06MLKDMCBD@parent?$AA@
	mov	eax, DWORD PTR _pkvd$[ebp]
	mov	ecx, DWORD PTR [eax+4]
	push	ecx
	call	?FStrEq@@YAHPBD0@Z			; FStrEq
	add	esp, 8
	test	eax, eax
	jne	SHORT $LN6@KeyValue
	push	OFFSET ??_C@_08JJJAOBDI@movewith?$AA@
	mov	eax, DWORD PTR _pkvd$[ebp]
	mov	ecx, DWORD PTR [eax+4]
	push	ecx
	call	?FStrEq@@YAHPBD0@Z			; FStrEq
	add	esp, 8
	test	eax, eax
	je	SHORT $LN4@KeyValue
$LN6@KeyValue:

; 346  : 		{
; 347  : 			m_iParent = ALLOC_STRING(pkvd->szValue);

	mov	eax, DWORD PTR _pkvd$[ebp]
	mov	ecx, DWORD PTR [eax+8]
	push	ecx
	call	DWORD PTR ?g_engfuncs@@3Uenginefuncs_s@@A+268
	add	esp, 4
	mov	edx, DWORD PTR _this$[ebp]
	mov	DWORD PTR [edx+184], eax

; 348  : 			pkvd->fHandled = TRUE;

	mov	eax, DWORD PTR _pkvd$[ebp]
	mov	DWORD PTR [eax+12], 1
	jmp	$LN1@KeyValue
$LN4@KeyValue:

; 349  : 		}
; 350  : 		else if( FStrEq( pkvd->szKeyName, "parentflags" ))

	push	OFFSET ??_C@_0M@EAELDHJO@parentflags?$AA@
	mov	eax, DWORD PTR _pkvd$[ebp]
	mov	ecx, DWORD PTR [eax+4]
	push	ecx
	call	?FStrEq@@YAHPBD0@Z			; FStrEq
	add	esp, 8
	test	eax, eax
	je	SHORT $LN7@KeyValue

; 351  : 		{
; 352  : 			m_iParentFlags = Q_atoi( pkvd->szValue );

	mov	eax, DWORD PTR _pkvd$[ebp]
	mov	ecx, DWORD PTR [eax+8]
	push	ecx
	call	?Q_atoi@@YAHPBD@Z			; Q_atoi
	add	esp, 4
	mov	edx, DWORD PTR _this$[ebp]
	mov	DWORD PTR [edx+188], eax

; 353  : 			pkvd->fHandled = TRUE;

	mov	eax, DWORD PTR _pkvd$[ebp]
	mov	DWORD PTR [eax+12], 1
	jmp	$LN1@KeyValue
$LN7@KeyValue:

; 354  : 		}
; 355  : 		else if( FStrEq( pkvd->szKeyName, "style" ))

	push	OFFSET ??_C@_05IAKJCFIM@style?$AA@
	mov	eax, DWORD PTR _pkvd$[ebp]
	mov	ecx, DWORD PTR [eax+4]
	push	ecx
	call	?FStrEq@@YAHPBD0@Z			; FStrEq
	add	esp, 8
	test	eax, eax
	je	SHORT $LN9@KeyValue

; 356  : 		{
; 357  : 			m_iStyle = Q_atoi( pkvd->szValue );

	mov	eax, DWORD PTR _pkvd$[ebp]
	mov	ecx, DWORD PTR [eax+8]
	push	ecx
	call	?Q_atoi@@YAHPBD@Z			; Q_atoi
	add	esp, 4
	mov	edx, DWORD PTR _this$[ebp]
	mov	DWORD PTR [edx+72], eax

; 358  : 			pkvd->fHandled = TRUE;

	mov	eax, DWORD PTR _pkvd$[ebp]
	mov	DWORD PTR [eax+12], 1
	jmp	$LN1@KeyValue
$LN9@KeyValue:

; 359  : 		}
; 360  : 		else if( FStrEq( pkvd->szKeyName, "reflection" ))

	push	OFFSET ??_C@_0L@IKCANML@reflection?$AA@
	mov	eax, DWORD PTR _pkvd$[ebp]
	mov	ecx, DWORD PTR [eax+4]
	push	ecx
	call	?FStrEq@@YAHPBD0@Z			; FStrEq
	add	esp, 8
	test	eax, eax
	je	SHORT $LN11@KeyValue

; 361  : 		{
; 362  : 			switch( Q_atoi( pkvd->szValue ))

	mov	eax, DWORD PTR _pkvd$[ebp]
	mov	ecx, DWORD PTR [eax+8]
	push	ecx
	call	?Q_atoi@@YAHPBD@Z			; Q_atoi
	add	esp, 4
	mov	DWORD PTR tv139[ebp], eax
	cmp	DWORD PTR tv139[ebp], 1
	je	SHORT $LN13@KeyValue
	cmp	DWORD PTR tv139[ebp], 2
	je	SHORT $LN14@KeyValue
	jmp	SHORT $LN2@KeyValue
$LN13@KeyValue:

; 363  : 			{
; 364  : 			case 1: pev->effects |= EF_NOREFLECT; break;

	mov	eax, DWORD PTR _this$[ebp]
	mov	ecx, DWORD PTR [eax+4]
	mov	edx, DWORD PTR [ecx+280]
	or	edx, 16777216				; 01000000H
	mov	eax, DWORD PTR _this$[ebp]
	mov	ecx, DWORD PTR [eax+4]
	mov	DWORD PTR [ecx+280], edx
	jmp	SHORT $LN2@KeyValue
$LN14@KeyValue:

; 365  : 			case 2: pev->effects |= EF_REFLECTONLY; break;

	mov	eax, DWORD PTR _this$[ebp]
	mov	ecx, DWORD PTR [eax+4]
	mov	edx, DWORD PTR [ecx+280]
	or	edx, 33554432				; 02000000H
	mov	eax, DWORD PTR _this$[ebp]
	mov	ecx, DWORD PTR [eax+4]
	mov	DWORD PTR [ecx+280], edx
$LN2@KeyValue:

; 366  : 			}
; 367  : 			pkvd->fHandled = TRUE;

	mov	eax, DWORD PTR _pkvd$[ebp]
	mov	DWORD PTR [eax+12], 1
	jmp	$LN1@KeyValue
$LN11@KeyValue:

; 368  : 		}
; 369  : 		else if( FStrEq(pkvd->szKeyName, "vlight_cache"))

	push	OFFSET ??_C@_0N@JILDNHAP@vlight_cache?$AA@
	mov	eax, DWORD PTR _pkvd$[ebp]
	mov	ecx, DWORD PTR [eax+4]
	push	ecx
	call	?FStrEq@@YAHPBD0@Z			; FStrEq
	add	esp, 8
	test	eax, eax
	je	SHORT $LN15@KeyValue

; 370  : 		{
; 371  : 			pev->iuser3 = atoi( pkvd->szValue );

	mov	eax, DWORD PTR _pkvd$[ebp]
	mov	ecx, DWORD PTR [eax+8]
	push	ecx
	call	_atoi
	add	esp, 4
	mov	edx, DWORD PTR _this$[ebp]
	mov	ecx, DWORD PTR [edx+4]
	mov	DWORD PTR [ecx+588], eax

; 372  : 			pkvd->fHandled = TRUE;

	mov	eax, DWORD PTR _pkvd$[ebp]
	mov	DWORD PTR [eax+12], 1
	jmp	SHORT $LN1@KeyValue
$LN15@KeyValue:

; 373  : 		}
; 374  : 		else if( FStrEq( pkvd->szKeyName, "customname" ) )

	push	OFFSET ??_C@_0L@JIJDCONP@customname?$AA@
	mov	eax, DWORD PTR _pkvd$[ebp]
	mov	ecx, DWORD PTR [eax+4]
	push	ecx
	call	?FStrEq@@YAHPBD0@Z			; FStrEq
	add	esp, 8
	test	eax, eax
	je	SHORT $LN17@KeyValue

; 375  : 		{
; 376  : 			CustomNameString = ALLOC_STRING( pkvd->szValue );

	mov	eax, DWORD PTR _pkvd$[ebp]
	mov	ecx, DWORD PTR [eax+8]
	push	ecx
	call	DWORD PTR ?g_engfuncs@@3Uenginefuncs_s@@A+268
	add	esp, 4
	mov	edx, DWORD PTR _this$[ebp]
	mov	DWORD PTR [edx+156], eax

; 377  : 			pkvd->fHandled = TRUE;

	mov	eax, DWORD PTR _pkvd$[ebp]
	mov	DWORD PTR [eax+12], 1
	jmp	SHORT $LN1@KeyValue
$LN17@KeyValue:

; 378  : 		}
; 379  : 		else pkvd->fHandled = FALSE;

	mov	eax, DWORD PTR _pkvd$[ebp]
	mov	DWORD PTR [eax+12], 0
$LN1@KeyValue:

; 380  : 	}

	pop	edi
	pop	esi
	pop	ebx
	mov	esp, ebp
	pop	ebp
	ret	4
?KeyValue@CBaseEntity@@UAEXPAUKeyValueData_s@@@Z ENDP	; CBaseEntity::KeyValue
_TEXT	ENDS
; Function compile flags: /Odtp /ZI
; File d:\!diffusion 2020\source code 2022\client-server\server\cbase.h
;	COMDAT ?Precache@CBaseEntity@@UAEXXZ
_TEXT	SEGMENT
_this$ = -4						; size = 4
?Precache@CBaseEntity@@UAEXXZ PROC			; CBaseEntity::Precache, COMDAT
; _this$ = ecx

; 341  : 	virtual void	Precache( void ) { }

	push	ebp
	mov	ebp, esp
	sub	esp, 68					; 00000044H
	push	ebx
	push	esi
	push	edi
	mov	DWORD PTR _this$[ebp], ecx
	pop	edi
	pop	esi
	pop	ebx
	mov	esp, ebp
	pop	ebp
	ret	0
?Precache@CBaseEntity@@UAEXXZ ENDP			; CBaseEntity::Precache
_TEXT	ENDS
; Function compile flags: /Odtp /ZI
; File d:\!diffusion 2020\source code 2022\client-server\server\cbase.h
;	COMDAT ?Spawn@CBaseEntity@@UAEXXZ
_TEXT	SEGMENT
_this$ = -4						; size = 4
?Spawn@CBaseEntity@@UAEXXZ PROC				; CBaseEntity::Spawn, COMDAT
; _this$ = ecx

; 340  : 	virtual void	Spawn( void ) { }

	push	ebp
	mov	ebp, esp
	sub	esp, 68					; 00000044H
	push	ebx
	push	esi
	push	edi
	mov	DWORD PTR _this$[ebp], ecx
	pop	edi
	pop	esi
	pop	ebx
	mov	esp, ebp
	pop	ebp
	ret	0
?Spawn@CBaseEntity@@UAEXXZ ENDP				; CBaseEntity::Spawn
_TEXT	ENDS
; Function compile flags: /Odtp /ZI
; File d:\!diffusion 2020\source code 2022\client-server\server\cbase.h
;	COMDAT ?SetClassname@CBaseEntity@@QAEXPBD@Z
_TEXT	SEGMENT
_this$ = -4						; size = 4
_pszClassName$ = 8					; size = 4
?SetClassname@CBaseEntity@@QAEXPBD@Z PROC		; CBaseEntity::SetClassname, COMDAT
; _this$ = ecx

; 317  : 	void		SetClassname( const char *pszClassName ) { pev->classname = MAKE_STRING( pszClassName ); }

	push	ebp
	mov	ebp, esp
	sub	esp, 68					; 00000044H
	push	ebx
	push	esi
	push	edi
	mov	DWORD PTR _this$[ebp], ecx
	mov	eax, DWORD PTR _pszClassName$[ebp]
	push	eax
	call	DWORD PTR ?g_engfuncs@@3Uenginefuncs_s@@A+268
	add	esp, 4
	mov	ecx, DWORD PTR _this$[ebp]
	mov	edx, DWORD PTR [ecx+4]
	mov	DWORD PTR [edx], eax
	pop	edi
	pop	esi
	pop	ebx
	mov	esp, ebp
	pop	ebp
	ret	4
?SetClassname@CBaseEntity@@QAEXPBD@Z ENDP		; CBaseEntity::SetClassname
_TEXT	ENDS
; Function compile flags: /Odtp /ZI
; File d:\!diffusion 2020\source code 2022\client-server\server\cbase.h
;	COMDAT ?GetNetname@CBaseEntity@@QAEPBDXZ
_TEXT	SEGMENT
_this$ = -4						; size = 4
?GetNetname@CBaseEntity@@QAEPBDXZ PROC			; CBaseEntity::GetNetname, COMDAT
; _this$ = ecx

; 302  : 	const char*	GetNetname() { return STRING( pev->netname ); }

	push	ebp
	mov	ebp, esp
	sub	esp, 68					; 00000044H
	push	ebx
	push	esi
	push	edi
	mov	DWORD PTR _this$[ebp], ecx
	mov	eax, DWORD PTR _this$[ebp]
	mov	ecx, DWORD PTR [eax+4]
	mov	edx, DWORD PTR [ecx+464]
	push	edx
	call	DWORD PTR ?g_engfuncs@@3Uenginefuncs_s@@A+264
	add	esp, 4
	pop	edi
	pop	esi
	pop	ebx
	mov	esp, ebp
	pop	ebp
	ret	0
?GetNetname@CBaseEntity@@QAEPBDXZ ENDP			; CBaseEntity::GetNetname
_TEXT	ENDS
; Function compile flags: /Odtp /ZI
; File d:\!diffusion 2020\source code 2022\client-server\server\cbase.h
;	COMDAT ?GetMessageA@CBaseEntity@@QAEPBDXZ
_TEXT	SEGMENT
_this$ = -4						; size = 4
?GetMessageA@CBaseEntity@@QAEPBDXZ PROC			; CBaseEntity::GetMessageA, COMDAT
; _this$ = ecx

; 301  : 	const char*	GetMessage() { return STRING( pev->message ); }

	push	ebp
	mov	ebp, esp
	sub	esp, 68					; 00000044H
	push	ebx
	push	esi
	push	edi
	mov	DWORD PTR _this$[ebp], ecx
	mov	eax, DWORD PTR _this$[ebp]
	mov	ecx, DWORD PTR [eax+4]
	mov	edx, DWORD PTR [ecx+468]
	push	edx
	call	DWORD PTR ?g_engfuncs@@3Uenginefuncs_s@@A+264
	add	esp, 4
	pop	edi
	pop	esi
	pop	ebx
	mov	esp, ebp
	pop	ebp
	ret	0
?GetMessageA@CBaseEntity@@QAEPBDXZ ENDP			; CBaseEntity::GetMessageA
_TEXT	ENDS
; Function compile flags: /Odtp /ZI
; File d:\!diffusion 2020\source code 2022\client-server\server\cbase.h
;	COMDAT ?GetClassname@CBaseEntity@@QAEPBDXZ
_TEXT	SEGMENT
_this$ = -4						; size = 4
?GetClassname@CBaseEntity@@QAEPBDXZ PROC		; CBaseEntity::GetClassname, COMDAT
; _this$ = ecx

; 297  : 	const char*	GetClassname() { return STRING( pev->classname ); }

	push	ebp
	mov	ebp, esp
	sub	esp, 68					; 00000044H
	push	ebx
	push	esi
	push	edi
	mov	DWORD PTR _this$[ebp], ecx
	mov	eax, DWORD PTR _this$[ebp]
	mov	ecx, DWORD PTR [eax+4]
	mov	edx, DWORD PTR [ecx]
	push	edx
	call	DWORD PTR ?g_engfuncs@@3Uenginefuncs_s@@A+264
	add	esp, 4
	pop	edi
	pop	esi
	pop	ebx
	mov	esp, ebp
	pop	ebp
	ret	0
?GetClassname@CBaseEntity@@QAEPBDXZ ENDP		; CBaseEntity::GetClassname
_TEXT	ENDS
; Function compile flags: /Odtp /ZI
; File d:\!diffusion 2020\source code 2022\client-server\server\ehandle.h
;	COMDAT ??CEHANDLE@@QAEPAVCBaseEntity@@XZ
_TEXT	SEGMENT
_this$ = -4						; size = 4
??CEHANDLE@@QAEPAVCBaseEntity@@XZ PROC			; EHANDLE::operator->, COMDAT
; _this$ = ecx

; 90   : {

	push	ebp
	mov	ebp, esp
	sub	esp, 68					; 00000044H
	push	ebx
	push	esi
	push	edi
	mov	DWORD PTR _this$[ebp], ecx

; 91   : 	return (CBaseEntity *)GET_PRIVATE( Get( ) ); 

	mov	ecx, DWORD PTR _this$[ebp]
	call	?Get@EHANDLE@@QAEPAUedict_s@@XZ		; EHANDLE::Get
	push	eax
	call	?GET_PRIVATE@@YAPAXPAUedict_s@@@Z	; GET_PRIVATE
	add	esp, 4

; 92   : }

	pop	edi
	pop	esi
	pop	ebx
	mov	esp, ebp
	pop	ebp
	ret	0
??CEHANDLE@@QAEPAVCBaseEntity@@XZ ENDP			; EHANDLE::operator->
_TEXT	ENDS
; Function compile flags: /Odtp /ZI
; File d:\!diffusion 2020\source code 2022\client-server\server\ehandle.h
;	COMDAT ??BEHANDLE@@QAEHXZ
_TEXT	SEGMENT
tv67 = -72						; size = 4
_this$ = -4						; size = 4
??BEHANDLE@@QAEHXZ PROC					; EHANDLE::operator int, COMDAT
; _this$ = ecx

; 85   : {

	push	ebp
	mov	ebp, esp
	sub	esp, 72					; 00000048H
	push	ebx
	push	esi
	push	edi
	mov	DWORD PTR _this$[ebp], ecx

; 86   : 	return Get() != NULL;

	mov	ecx, DWORD PTR _this$[ebp]
	call	?Get@EHANDLE@@QAEPAUedict_s@@XZ		; EHANDLE::Get
	test	eax, eax
	je	SHORT $LN3@operator
	mov	DWORD PTR tv67[ebp], 1
	jmp	SHORT $LN4@operator
$LN3@operator:
	mov	DWORD PTR tv67[ebp], 0
$LN4@operator:
	mov	eax, DWORD PTR tv67[ebp]

; 87   : }

	pop	edi
	pop	esi
	pop	ebx
	mov	esp, ebp
	pop	ebp
	ret	0
??BEHANDLE@@QAEHXZ ENDP					; EHANDLE::operator int
_TEXT	ENDS
; Function compile flags: /Odtp /ZI
; File d:\!diffusion 2020\source code 2022\client-server\server\ehandle.h
;	COMDAT ?Get@EHANDLE@@QAEPAUedict_s@@XZ
_TEXT	SEGMENT
_this$ = -4						; size = 4
?Get@EHANDLE@@QAEPAUedict_s@@XZ PROC			; EHANDLE::Get, COMDAT
; _this$ = ecx

; 40   : { 

	push	ebp
	mov	ebp, esp
	sub	esp, 68					; 00000044H
	push	ebx
	push	esi
	push	edi
	mov	DWORD PTR _this$[ebp], ecx

; 41   : 	if( m_pent )

	mov	eax, DWORD PTR _this$[ebp]
	cmp	DWORD PTR [eax], 0
	je	SHORT $LN2@Get

; 42   : 	{
; 43   : #if 0
; 44   : 		// keep client entity always in actual state
; 45   : 		if( ENTINDEX( m_pent ) == 1 )
; 46   : 			m_serialnumber = m_pent->serialnumber;
; 47   : #endif
; 48   : 		if( m_pent->serialnumber == m_serialnumber ) 

	mov	eax, DWORD PTR _this$[ebp]
	mov	ecx, DWORD PTR [eax]
	mov	edx, DWORD PTR _this$[ebp]
	mov	eax, DWORD PTR [ecx+4]
	cmp	eax, DWORD PTR [edx+4]
	jne	SHORT $LN2@Get

; 49   : 			return m_pent; 

	mov	eax, DWORD PTR _this$[ebp]
	mov	eax, DWORD PTR [eax]
	jmp	SHORT $LN1@Get
$LN2@Get:

; 50   : 	}
; 51   : 
; 52   : 	return NULL; 

	xor	eax, eax
$LN1@Get:

; 53   : }

	pop	edi
	pop	esi
	pop	ebx
	mov	esp, ebp
	pop	ebp
	ret	0
?Get@EHANDLE@@QAEPAUedict_s@@XZ ENDP			; EHANDLE::Get
_TEXT	ENDS
; Function compile flags: /Odtp /ZI
;	COMDAT ??0WayPoint_t@@QAE@XZ
_TEXT	SEGMENT
_this$ = -4						; size = 4
??0WayPoint_t@@QAE@XZ PROC				; WayPoint_t::WayPoint_t, COMDAT
; _this$ = ecx
	push	ebp
	mov	ebp, esp
	sub	esp, 68					; 00000044H
	push	ebx
	push	esi
	push	edi
	mov	DWORD PTR _this$[ebp], ecx
	mov	ecx, DWORD PTR _this$[ebp]
	call	??0Vector@@QAE@XZ			; Vector::Vector
	mov	eax, DWORD PTR _this$[ebp]
	pop	edi
	pop	esi
	pop	ebx
	mov	esp, ebp
	pop	ebp
	ret	0
??0WayPoint_t@@QAE@XZ ENDP				; WayPoint_t::WayPoint_t
_TEXT	ENDS
; Function compile flags: /Odtp /ZI
; File d:\!diffusion 2020\source code 2022\client-server\server\sound.cpp
;	COMDAT ?EMIT_GROUPNAME_SUIT@@YAXPAUedict_s@@PBD@Z
_TEXT	SEGMENT
_pitch$ = -8						; size = 4
_fvol$ = -4						; size = 4
_entity$ = 8						; size = 4
_groupname$ = 12					; size = 4
?EMIT_GROUPNAME_SUIT@@YAXPAUedict_s@@PBD@Z PROC		; EMIT_GROUPNAME_SUIT, COMDAT

; 1584 : {

	push	ebp
	mov	ebp, esp
	sub	esp, 72					; 00000048H
	push	ebx
	push	esi
	push	edi

; 1585 : 	float fvol;
; 1586 : 	int pitch = PITCH_NORM;

	mov	DWORD PTR _pitch$[ebp], 100		; 00000064H

; 1587 : 
; 1588 : 	fvol = CVAR_GET_FLOAT("suitvolume");

	push	OFFSET ??_C@_0L@BFLOMJEF@suitvolume?$AA@
	call	DWORD PTR ?g_engfuncs@@3Uenginefuncs_s@@A+228
	add	esp, 4
	fstp	DWORD PTR _fvol$[ebp]

; 1589 : 	if (RANDOM_LONG(0,1))

	push	1
	push	0
	call	DWORD PTR ?g_engfuncs@@3Uenginefuncs_s@@A+360
	add	esp, 8
	test	eax, eax
	je	SHORT $LN2@EMIT_GROUP

; 1590 : 		pitch = RANDOM_LONG(0,6) + 98;

	push	6
	push	0
	call	DWORD PTR ?g_engfuncs@@3Uenginefuncs_s@@A+360
	add	esp, 8
	add	eax, 98					; 00000062H
	mov	DWORD PTR _pitch$[ebp], eax
$LN2@EMIT_GROUP:

; 1591 : 
; 1592 : 	if (fvol > 0.05)

	cvtss2sd xmm0, DWORD PTR _fvol$[ebp]
	comisd	xmm0, QWORD PTR __real@3fa999999999999a
	jbe	SHORT $LN3@EMIT_GROUP

; 1593 : 		SENTENCEG_PlayRndSz(entity, groupname, fvol, ATTN_NORM, 0, pitch);

	mov	eax, DWORD PTR _pitch$[ebp]
	push	eax
	push	0
	push	ecx
	movss	xmm0, DWORD PTR __real@3f4ccccd
	movss	DWORD PTR [esp], xmm0
	push	ecx
	movss	xmm0, DWORD PTR _fvol$[ebp]
	movss	DWORD PTR [esp], xmm0
	mov	ecx, DWORD PTR _groupname$[ebp]
	push	ecx
	mov	edx, DWORD PTR _entity$[ebp]
	push	edx
	call	?SENTENCEG_PlayRndSz@@YAHPAUedict_s@@PBDMMHH@Z ; SENTENCEG_PlayRndSz
	add	esp, 24					; 00000018H
$LN3@EMIT_GROUP:

; 1594 : }

	pop	edi
	pop	esi
	pop	ebx
	mov	esp, ebp
	pop	ebp
	ret	0
?EMIT_GROUPNAME_SUIT@@YAXPAUedict_s@@PBD@Z ENDP		; EMIT_GROUPNAME_SUIT
_TEXT	ENDS
; Function compile flags: /Odtp /ZI
; File d:\!diffusion 2020\source code 2022\client-server\server\sound.cpp
;	COMDAT ?EMIT_GROUPID_SUIT@@YAXPAUedict_s@@H@Z
_TEXT	SEGMENT
_pitch$ = -8						; size = 4
_fvol$ = -4						; size = 4
_entity$ = 8						; size = 4
_isentenceg$ = 12					; size = 4
?EMIT_GROUPID_SUIT@@YAXPAUedict_s@@H@Z PROC		; EMIT_GROUPID_SUIT, COMDAT

; 1569 : {

	push	ebp
	mov	ebp, esp
	sub	esp, 72					; 00000048H
	push	ebx
	push	esi
	push	edi

; 1570 : 	float fvol;
; 1571 : 	int pitch = PITCH_NORM;

	mov	DWORD PTR _pitch$[ebp], 100		; 00000064H

; 1572 : 
; 1573 : 	fvol = CVAR_GET_FLOAT("suitvolume");

	push	OFFSET ??_C@_0L@BFLOMJEF@suitvolume?$AA@
	call	DWORD PTR ?g_engfuncs@@3Uenginefuncs_s@@A+228
	add	esp, 4
	fstp	DWORD PTR _fvol$[ebp]

; 1574 : 	if (RANDOM_LONG(0,1))

	push	1
	push	0
	call	DWORD PTR ?g_engfuncs@@3Uenginefuncs_s@@A+360
	add	esp, 8
	test	eax, eax
	je	SHORT $LN2@EMIT_GROUP

; 1575 : 		pitch = RANDOM_LONG(0,6) + 98;

	push	6
	push	0
	call	DWORD PTR ?g_engfuncs@@3Uenginefuncs_s@@A+360
	add	esp, 8
	add	eax, 98					; 00000062H
	mov	DWORD PTR _pitch$[ebp], eax
$LN2@EMIT_GROUP:

; 1576 : 
; 1577 : 	if (fvol > 0.05)

	cvtss2sd xmm0, DWORD PTR _fvol$[ebp]
	comisd	xmm0, QWORD PTR __real@3fa999999999999a
	jbe	SHORT $LN3@EMIT_GROUP

; 1578 : 		SENTENCEG_PlayRndI(entity, isentenceg, fvol, ATTN_NORM, 0, pitch);

	mov	eax, DWORD PTR _pitch$[ebp]
	push	eax
	push	0
	push	ecx
	movss	xmm0, DWORD PTR __real@3f4ccccd
	movss	DWORD PTR [esp], xmm0
	push	ecx
	movss	xmm0, DWORD PTR _fvol$[ebp]
	movss	DWORD PTR [esp], xmm0
	mov	ecx, DWORD PTR _isentenceg$[ebp]
	push	ecx
	mov	edx, DWORD PTR _entity$[ebp]
	push	edx
	call	?SENTENCEG_PlayRndI@@YAHPAUedict_s@@HMMHH@Z ; SENTENCEG_PlayRndI
	add	esp, 24					; 00000018H
$LN3@EMIT_GROUP:

; 1579 : }

	pop	edi
	pop	esi
	pop	ebx
	mov	esp, ebp
	pop	ebp
	ret	0
?EMIT_GROUPID_SUIT@@YAXPAUedict_s@@H@Z ENDP		; EMIT_GROUPID_SUIT
_TEXT	ENDS
; Function compile flags: /Odtp /ZI
; File d:\!diffusion 2020\source code 2022\client-server\server\sound.cpp
;	COMDAT ?EMIT_SOUND_SUIT@@YAXPAUedict_s@@PBD@Z
_TEXT	SEGMENT
_pitch$ = -8						; size = 4
_fvol$ = -4						; size = 4
_entity$ = 8						; size = 4
_sample$ = 12						; size = 4
?EMIT_SOUND_SUIT@@YAXPAUedict_s@@PBD@Z PROC		; EMIT_SOUND_SUIT, COMDAT

; 1554 : {

	push	ebp
	mov	ebp, esp
	sub	esp, 72					; 00000048H
	push	ebx
	push	esi
	push	edi

; 1555 : 	float fvol;
; 1556 : 	int pitch = PITCH_NORM;

	mov	DWORD PTR _pitch$[ebp], 100		; 00000064H

; 1557 : 
; 1558 : 	fvol = CVAR_GET_FLOAT("suitvolume");

	push	OFFSET ??_C@_0L@BFLOMJEF@suitvolume?$AA@
	call	DWORD PTR ?g_engfuncs@@3Uenginefuncs_s@@A+228
	add	esp, 4
	fstp	DWORD PTR _fvol$[ebp]

; 1559 : 	if (RANDOM_LONG(0,1))

	push	1
	push	0
	call	DWORD PTR ?g_engfuncs@@3Uenginefuncs_s@@A+360
	add	esp, 8
	test	eax, eax
	je	SHORT $LN2@EMIT_SOUND

; 1560 : 		pitch = RANDOM_LONG(0,6) + 98;

	push	6
	push	0
	call	DWORD PTR ?g_engfuncs@@3Uenginefuncs_s@@A+360
	add	esp, 8
	add	eax, 98					; 00000062H
	mov	DWORD PTR _pitch$[ebp], eax
$LN2@EMIT_SOUND:

; 1561 : 
; 1562 : 	if (fvol > 0.05)

	cvtss2sd xmm0, DWORD PTR _fvol$[ebp]
	comisd	xmm0, QWORD PTR __real@3fa999999999999a
	jbe	SHORT $LN3@EMIT_SOUND

; 1563 : 		EMIT_SOUND_DYN(entity, CHAN_STATIC, sample, fvol, ATTN_NORM, 0, pitch);

	mov	eax, DWORD PTR _pitch$[ebp]
	push	eax
	push	0
	push	ecx
	movss	xmm0, DWORD PTR __real@3f4ccccd
	movss	DWORD PTR [esp], xmm0
	push	ecx
	movss	xmm0, DWORD PTR _fvol$[ebp]
	movss	DWORD PTR [esp], xmm0
	mov	ecx, DWORD PTR _sample$[ebp]
	push	ecx
	push	6
	mov	edx, DWORD PTR _entity$[ebp]
	push	edx
	call	?EMIT_SOUND_DYN@@YAXPAUedict_s@@HPBDMMHH@Z ; EMIT_SOUND_DYN
	add	esp, 28					; 0000001cH
$LN3@EMIT_SOUND:

; 1564 : }

	pop	edi
	pop	esi
	pop	ebx
	mov	esp, ebp
	pop	ebp
	ret	0
?EMIT_SOUND_SUIT@@YAXPAUedict_s@@PBD@Z ENDP		; EMIT_SOUND_SUIT
_TEXT	ENDS
; Function compile flags: /Odtp /ZI
; File d:\!diffusion 2020\source code 2022\client-server\server\util.h
;	COMDAT ?STOP_SOUND@@YAXPAUedict_s@@HPBD@Z
_TEXT	SEGMENT
_entity$ = 8						; size = 4
_channel$ = 12						; size = 4
_sample$ = 16						; size = 4
?STOP_SOUND@@YAXPAUedict_s@@HPBD@Z PROC			; STOP_SOUND, COMDAT

; 627  : {

	push	ebp
	mov	ebp, esp
	sub	esp, 64					; 00000040H
	push	ebx
	push	esi
	push	edi

; 628  : 	EMIT_SOUND_DYN( entity, channel, sample, 0, 0, SND_STOP, PITCH_NORM );

	push	100					; 00000064H
	push	32					; 00000020H
	push	ecx
	xorps	xmm0, xmm0
	movss	DWORD PTR [esp], xmm0
	push	ecx
	xorps	xmm0, xmm0
	movss	DWORD PTR [esp], xmm0
	mov	eax, DWORD PTR _sample$[ebp]
	push	eax
	mov	ecx, DWORD PTR _channel$[ebp]
	push	ecx
	mov	edx, DWORD PTR _entity$[ebp]
	push	edx
	call	?EMIT_SOUND_DYN@@YAXPAUedict_s@@HPBDMMHH@Z ; EMIT_SOUND_DYN
	add	esp, 28					; 0000001cH

; 629  : }

	pop	edi
	pop	esi
	pop	ebx
	mov	esp, ebp
	pop	ebp
	ret	0
?STOP_SOUND@@YAXPAUedict_s@@HPBD@Z ENDP			; STOP_SOUND
_TEXT	ENDS
; Function compile flags: /Odtp /ZI
; File d:\!diffusion 2020\source code 2022\client-server\server\util.h
;	COMDAT ?EMIT_SOUND@@YAXPAUedict_s@@HPBDMM@Z
_TEXT	SEGMENT
_entity$ = 8						; size = 4
_channel$ = 12						; size = 4
_sample$ = 16						; size = 4
_volume$ = 20						; size = 4
_attenuation$ = 24					; size = 4
?EMIT_SOUND@@YAXPAUedict_s@@HPBDMM@Z PROC		; EMIT_SOUND, COMDAT

; 622  : {

	push	ebp
	mov	ebp, esp
	sub	esp, 64					; 00000040H
	push	ebx
	push	esi
	push	edi

; 623  : 	EMIT_SOUND_DYN( entity, channel, sample, volume, attenuation, 0, PITCH_NORM );

	push	100					; 00000064H
	push	0
	push	ecx
	movss	xmm0, DWORD PTR _attenuation$[ebp]
	movss	DWORD PTR [esp], xmm0
	push	ecx
	movss	xmm0, DWORD PTR _volume$[ebp]
	movss	DWORD PTR [esp], xmm0
	mov	eax, DWORD PTR _sample$[ebp]
	push	eax
	mov	ecx, DWORD PTR _channel$[ebp]
	push	ecx
	mov	edx, DWORD PTR _entity$[ebp]
	push	edx
	call	?EMIT_SOUND_DYN@@YAXPAUedict_s@@HPBDMMHH@Z ; EMIT_SOUND_DYN
	add	esp, 28					; 0000001cH

; 624  : }

	pop	edi
	pop	esi
	pop	ebx
	mov	esp, ebp
	pop	ebp
	ret	0
?EMIT_SOUND@@YAXPAUedict_s@@HPBDMM@Z ENDP		; EMIT_SOUND
_TEXT	ENDS
; Function compile flags: /Odtp /ZI
; File d:\!diffusion 2020\source code 2022\client-server\server\sound.cpp
;	COMDAT ?EMIT_SOUND_DYN@@YAXPAUedict_s@@HPBDMMHH@Z
_TEXT	SEGMENT
_name$1 = -36						; size = 32
__$ArrayPad$ = -4					; size = 4
_entity$ = 8						; size = 4
_channel$ = 12						; size = 4
_sample$ = 16						; size = 4
_volume$ = 20						; size = 4
_attenuation$ = 24					; size = 4
_flags$ = 28						; size = 4
_pitch$ = 32						; size = 4
?EMIT_SOUND_DYN@@YAXPAUedict_s@@HPBDMMHH@Z PROC		; EMIT_SOUND_DYN, COMDAT

; 1538 : {

	push	ebp
	mov	ebp, esp
	sub	esp, 100				; 00000064H
	mov	eax, DWORD PTR ___security_cookie
	xor	eax, ebp
	mov	DWORD PTR __$ArrayPad$[ebp], eax
	push	ebx
	push	esi
	push	edi

; 1539 : 	if (sample && *sample == '!')

	cmp	DWORD PTR _sample$[ebp], 0
	je	SHORT $LN2@EMIT_SOUND
	mov	eax, DWORD PTR _sample$[ebp]
	movsx	ecx, BYTE PTR [eax]
	cmp	ecx, 33					; 00000021H
	jne	SHORT $LN2@EMIT_SOUND

; 1540 : 	{
; 1541 : 		char name[32];
; 1542 : 		if (SENTENCEG_Lookup(sample, name) >= 0)

	lea	eax, DWORD PTR _name$1[ebp]
	push	eax
	mov	ecx, DWORD PTR _sample$[ebp]
	push	ecx
	call	?SENTENCEG_Lookup@@YAHPBDPAD@Z		; SENTENCEG_Lookup
	add	esp, 8
	test	eax, eax
	jl	SHORT $LN4@EMIT_SOUND

; 1543 : 				EMIT_SOUND_DYN2(entity, channel, name, volume, attenuation, flags, pitch);

	mov	eax, DWORD PTR _pitch$[ebp]
	push	eax
	mov	ecx, DWORD PTR _flags$[ebp]
	push	ecx
	push	ecx
	movss	xmm0, DWORD PTR _attenuation$[ebp]
	movss	DWORD PTR [esp], xmm0
	push	ecx
	movss	xmm0, DWORD PTR _volume$[ebp]
	movss	DWORD PTR [esp], xmm0
	lea	edx, DWORD PTR _name$1[ebp]
	push	edx
	mov	eax, DWORD PTR _channel$[ebp]
	push	eax
	mov	ecx, DWORD PTR _entity$[ebp]
	push	ecx
	call	DWORD PTR ?g_engfuncs@@3Uenginefuncs_s@@A+116
	add	esp, 28					; 0000001cH

; 1544 : 		else

	jmp	SHORT $LN5@EMIT_SOUND
$LN4@EMIT_SOUND:

; 1545 : 			ALERT( at_aiconsole, "Unable to find %s in sentences.txt\n", sample );

	mov	eax, DWORD PTR _sample$[ebp]
	push	eax
	push	OFFSET ??_C@_0CE@LFNOEBKB@Unable?5to?5find?5?$CFs?5in?5sentences?4t@
	push	2
	call	DWORD PTR ?g_engfuncs@@3Uenginefuncs_s@@A+244
	add	esp, 12					; 0000000cH
$LN5@EMIT_SOUND:

; 1546 : 	}
; 1547 : 	else

	jmp	SHORT $LN3@EMIT_SOUND
$LN2@EMIT_SOUND:

; 1548 : 		EMIT_SOUND_DYN2(entity, channel, sample, volume, attenuation, flags, pitch);

	mov	eax, DWORD PTR _pitch$[ebp]
	push	eax
	mov	ecx, DWORD PTR _flags$[ebp]
	push	ecx
	push	ecx
	movss	xmm0, DWORD PTR _attenuation$[ebp]
	movss	DWORD PTR [esp], xmm0
	push	ecx
	movss	xmm0, DWORD PTR _volume$[ebp]
	movss	DWORD PTR [esp], xmm0
	mov	edx, DWORD PTR _sample$[ebp]
	push	edx
	mov	eax, DWORD PTR _channel$[ebp]
	push	eax
	mov	ecx, DWORD PTR _entity$[ebp]
	push	ecx
	call	DWORD PTR ?g_engfuncs@@3Uenginefuncs_s@@A+116
	add	esp, 28					; 0000001cH
$LN3@EMIT_SOUND:

; 1549 : }

	pop	edi
	pop	esi
	pop	ebx
	mov	ecx, DWORD PTR __$ArrayPad$[ebp]
	xor	ecx, ebp
	call	@__security_check_cookie@4
	mov	esp, ebp
	pop	ebp
	ret	0
?EMIT_SOUND_DYN@@YAXPAUedict_s@@HPBDMMHH@Z ENDP		; EMIT_SOUND_DYN
_TEXT	ENDS
; Function compile flags: /Odtp /ZI
; File d:\!diffusion 2020\source code 2022\client-server\server\sound.cpp
;	COMDAT ?TEXTURETYPE_PlaySound@@YAMPAUgametrace_s@@VVector@@1H@Z
_TEXT	SEGMENT
tv364 = -408						; size = 4
tv296 = -408						; size = 4
tv170 = -408						; size = 4
$T1 = -404						; size = 12
$T2 = -392						; size = 56
$T3 = -336						; size = 56
$T4 = -280						; size = 4
_vecOrg$5 = -212					; size = 12
_tr$6 = -200						; size = 56
_flVolume$7 = -144					; size = 4
_pEntity$ = -140					; size = 4
_DoRicochet$ = -133					; size = 1
_fattn$ = -132						; size = 4
_cnt$ = -128						; size = 4
_rgsz$ = -124						; size = 16
_rgfl2$ = -108						; size = 12
_rgfl1$ = -96						; size = 12
_pTextureName$ = -84					; size = 4
_szbuffer$ = -80					; size = 64
_fvolbar$ = -16						; size = 4
_fvol$ = -12						; size = 4
_chTextureType$ = -5					; size = 1
__$ArrayPad$ = -4					; size = 4
_ptr$ = 8						; size = 4
_vecSrc$ = 12						; size = 12
_vecEnd$ = 24						; size = 12
_iBulletType$ = 36					; size = 4
?TEXTURETYPE_PlaySound@@YAMPAUgametrace_s@@VVector@@1H@Z PROC ; TEXTURETYPE_PlaySound, COMDAT

; 1863 : {

	push	ebp
	mov	ebp, esp
	sub	esp, 408				; 00000198H
	mov	eax, DWORD PTR ___security_cookie
	xor	eax, ebp
	mov	DWORD PTR __$ArrayPad$[ebp], eax
	push	ebx
	push	esi
	push	edi

; 1864 : // hit the world, try to play sound based on texture material type
; 1865 : 	
; 1866 : 	char chTextureType;
; 1867 : 	float fvol;
; 1868 : 	float fvolbar;
; 1869 : 	char szbuffer[64];
; 1870 : 	const char *pTextureName;
; 1871 : 	float rgfl1[3];
; 1872 : 	float rgfl2[3];
; 1873 : 	char *rgsz[4];
; 1874 : 	int cnt;
; 1875 : 	float fattn = ATTN_NORM;

	movss	xmm0, DWORD PTR __real@3f4ccccd
	movss	DWORD PTR _fattn$[ebp], xmm0

; 1876 : 	bool DoRicochet = true;

	mov	BYTE PTR _DoRicochet$[ebp], 1

; 1877 : 
; 1878 : //	if ( !g_pGameRules->PlayTextureSounds() )
; 1879 : //		return 0.0;
; 1880 : 	// 
; 1881 : 
; 1882 : 	CBaseEntity *pEntity = CBaseEntity::Instance(ptr->pHit);

	mov	eax, DWORD PTR _ptr$[ebp]
	mov	ecx, DWORD PTR [eax+48]
	push	ecx
	call	?Instance@CBaseEntity@@SAPAV1@PAUedict_s@@@Z ; CBaseEntity::Instance
	add	esp, 4
	mov	DWORD PTR _pEntity$[ebp], eax

; 1883 : 
; 1884 : 	chTextureType = 0;

	mov	BYTE PTR _chTextureType$[ebp], 0

; 1885 : 
; 1886 : 	if( pEntity && pEntity->Classify() != CLASS_NONE && pEntity->Classify() != CLASS_MACHINE )

	cmp	DWORD PTR _pEntity$[ebp], 0
	je	$LN8@TEXTURETYP
	mov	eax, DWORD PTR _pEntity$[ebp]
	mov	edx, DWORD PTR [eax]
	mov	ecx, DWORD PTR _pEntity$[ebp]
	mov	eax, DWORD PTR [edx+68]
	call	eax
	test	eax, eax
	je	$LN8@TEXTURETYP
	mov	eax, DWORD PTR _pEntity$[ebp]
	mov	edx, DWORD PTR [eax]
	mov	ecx, DWORD PTR _pEntity$[ebp]
	mov	eax, DWORD PTR [edx+68]
	call	eax
	cmp	eax, 1
	je	SHORT $LN8@TEXTURETYP

; 1887 : 	{
; 1888 : 			// diffusion monster specific (ugly hacks? I'm sorry)
; 1889 : 			if( pEntity->HasSpawnFlags(SF_MONSTER_NODAMAGE) )

	push	2048					; 00000800H
	mov	eax, DWORD PTR _pEntity$[ebp]
	mov	edx, DWORD PTR [eax]
	mov	ecx, DWORD PTR _pEntity$[ebp]
	mov	eax, DWORD PTR [edx+268]
	call	eax
	movzx	ecx, al
	test	ecx, ecx
	je	SHORT $LN10@TEXTURETYP

; 1890 : 				chTextureType = CHAR_TEX_NONE;

	mov	BYTE PTR _chTextureType$[ebp], 78	; 0000004eH

; 1891 : 			else

	jmp	SHORT $LN15@TEXTURETYP
$LN10@TEXTURETYP:

; 1892 : 			{
; 1893 : 				// diffusion - bad!!!!!
; 1894 : 				if (pEntity->HasFlag(F_METAL_MONSTER) )

	push	32768					; 00008000H
	mov	eax, DWORD PTR _pEntity$[ebp]
	mov	edx, DWORD PTR [eax]
	mov	ecx, DWORD PTR _pEntity$[ebp]
	mov	eax, DWORD PTR [edx+280]
	call	eax
	movzx	ecx, al
	test	ecx, ecx
	je	SHORT $LN12@TEXTURETYP

; 1895 : 					chTextureType = CHAR_TEX_NONE; // I use different metal sounds in monster...

	mov	BYTE PTR _chTextureType$[ebp], 78	; 0000004eH
	jmp	SHORT $LN15@TEXTURETYP
$LN12@TEXTURETYP:

; 1896 : 				else if (FClassnameIs(pEntity->pev, "monster_alice"))

	push	OFFSET ??_C@_0O@MDKCAHNO@monster_alice?$AA@
	mov	eax, DWORD PTR _pEntity$[ebp]
	mov	ecx, DWORD PTR [eax+4]
	push	ecx
	call	?FClassnameIs@@YAHPAUentvars_s@@PBD@Z	; FClassnameIs
	add	esp, 8
	test	eax, eax
	je	SHORT $LN14@TEXTURETYP

; 1897 : 					chTextureType = CHAR_TEX_NONE;

	mov	BYTE PTR _chTextureType$[ebp], 78	; 0000004eH

; 1898 : 				else

	jmp	SHORT $LN15@TEXTURETYP
$LN14@TEXTURETYP:

; 1899 : 					// hit body
; 1900 : 					chTextureType = CHAR_TEX_FLESH;

	mov	BYTE PTR _chTextureType$[ebp], 70	; 00000046H
$LN15@TEXTURETYP:

; 1901 : 			}
; 1902 : 	}
; 1903 : 	else

	jmp	$LN18@TEXTURETYP
$LN8@TEXTURETYP:

; 1904 : 	{
; 1905 : 		// hit world
; 1906 : 
; 1907 : 		// find texture under strike, get material type
; 1908 : 
; 1909 : 		// copy trace vector into array for trace_texture
; 1910 : 
; 1911 : 		vecSrc.CopyToArray(rgfl1);

	lea	eax, DWORD PTR _rgfl1$[ebp]
	push	eax
	lea	ecx, DWORD PTR _vecSrc$[ebp]
	call	?CopyToArray@Vector@@QBEXPAM@Z		; Vector::CopyToArray

; 1912 : 		vecEnd.CopyToArray(rgfl2);

	lea	eax, DWORD PTR _rgfl2$[ebp]
	push	eax
	lea	ecx, DWORD PTR _vecEnd$[ebp]
	call	?CopyToArray@Vector@@QBEXPAM@Z		; Vector::CopyToArray

; 1913 : 
; 1914 : 		// get texture from entity or world (world is ent(0))
; 1915 : 		if (pEntity)

	cmp	DWORD PTR _pEntity$[ebp], 0
	je	SHORT $LN16@TEXTURETYP

; 1916 : 			pTextureName = TRACE_TEXTURE( ENT(pEntity->pev), rgfl1, rgfl2 );

	lea	eax, DWORD PTR _rgfl2$[ebp]
	push	eax
	lea	ecx, DWORD PTR _rgfl1$[ebp]
	push	ecx
	mov	edx, DWORD PTR _pEntity$[ebp]
	mov	eax, DWORD PTR [edx+4]
	push	eax
	call	?ENT@@YAPAUedict_s@@PBUentvars_s@@@Z	; ENT
	add	esp, 4
	push	eax
	call	DWORD PTR ?g_engfuncs@@3Uenginefuncs_s@@A+144
	add	esp, 12					; 0000000cH
	mov	DWORD PTR _pTextureName$[ebp], eax

; 1917 : 		else

	jmp	SHORT $LN17@TEXTURETYP
$LN16@TEXTURETYP:

; 1918 : 			pTextureName = TRACE_TEXTURE( ENT(0), rgfl1, rgfl2 );

	lea	eax, DWORD PTR _rgfl2$[ebp]
	push	eax
	lea	ecx, DWORD PTR _rgfl1$[ebp]
	push	ecx
	push	0
	call	?ENT@@YAPAUedict_s@@H@Z			; ENT
	add	esp, 4
	push	eax
	call	DWORD PTR ?g_engfuncs@@3Uenginefuncs_s@@A+144
	add	esp, 12					; 0000000cH
	mov	DWORD PTR _pTextureName$[ebp], eax
$LN17@TEXTURETYP:

; 1919 : 			
; 1920 : 		if ( pTextureName )

	cmp	DWORD PTR _pTextureName$[ebp], 0
	je	$LN18@TEXTURETYP

; 1921 : 		{
; 1922 : 			// strip leading '-0' or '+0~' or '{' or '!'
; 1923 : 			if (*pTextureName == '-' || *pTextureName == '+')

	mov	eax, DWORD PTR _pTextureName$[ebp]
	movsx	ecx, BYTE PTR [eax]
	cmp	ecx, 45					; 0000002dH
	je	SHORT $LN20@TEXTURETYP
	mov	eax, DWORD PTR _pTextureName$[ebp]
	movsx	ecx, BYTE PTR [eax]
	cmp	ecx, 43					; 0000002bH
	jne	SHORT $LN19@TEXTURETYP
$LN20@TEXTURETYP:

; 1924 : 				pTextureName += 2;

	mov	eax, DWORD PTR _pTextureName$[ebp]
	add	eax, 2
	mov	DWORD PTR _pTextureName$[ebp], eax
$LN19@TEXTURETYP:

; 1925 : 
; 1926 : 			if (*pTextureName == '{' || *pTextureName == '!' || *pTextureName == '~' || *pTextureName == ' ')

	mov	eax, DWORD PTR _pTextureName$[ebp]
	movsx	ecx, BYTE PTR [eax]
	cmp	ecx, 123				; 0000007bH
	je	SHORT $LN22@TEXTURETYP
	mov	eax, DWORD PTR _pTextureName$[ebp]
	movsx	ecx, BYTE PTR [eax]
	cmp	ecx, 33					; 00000021H
	je	SHORT $LN22@TEXTURETYP
	mov	eax, DWORD PTR _pTextureName$[ebp]
	movsx	ecx, BYTE PTR [eax]
	cmp	ecx, 126				; 0000007eH
	je	SHORT $LN22@TEXTURETYP
	mov	eax, DWORD PTR _pTextureName$[ebp]
	movsx	ecx, BYTE PTR [eax]
	cmp	ecx, 32					; 00000020H
	jne	SHORT $LN21@TEXTURETYP
$LN22@TEXTURETYP:

; 1927 : 				pTextureName++;

	mov	eax, DWORD PTR _pTextureName$[ebp]
	add	eax, 1
	mov	DWORD PTR _pTextureName$[ebp], eax
$LN21@TEXTURETYP:

; 1928 : 			// '}}'
; 1929 : 			strcpy(szbuffer, pTextureName);

	mov	eax, DWORD PTR _pTextureName$[ebp]
	push	eax
	lea	ecx, DWORD PTR _szbuffer$[ebp]
	push	ecx
	call	_strcpy
	add	esp, 8

; 1930 : 			szbuffer[CBTEXTURENAMEMAX - 1] = 0;

	mov	eax, 1
	imul	ecx, eax, 23
	mov	DWORD PTR $T4[ebp], ecx
	cmp	DWORD PTR $T4[ebp], 64			; 00000040H
	jae	SHORT $LN52@TEXTURETYP
	jmp	SHORT $LN53@TEXTURETYP
$LN52@TEXTURETYP:
	call	___report_rangecheckfailure
$LN53@TEXTURETYP:
	mov	edx, DWORD PTR $T4[ebp]
	mov	BYTE PTR _szbuffer$[ebp+edx], 0

; 1931 : 				
; 1932 : 			// ALERT ( at_console, "texture hit: %s\n", szbuffer);
; 1933 : 
; 1934 : 			// get texture type
; 1935 : 			chTextureType = TEXTURETYPE_Find(szbuffer);	

	lea	eax, DWORD PTR _szbuffer$[ebp]
	push	eax
	call	?TEXTURETYPE_Find@@YADPAD@Z		; TEXTURETYPE_Find
	add	esp, 4
	mov	BYTE PTR _chTextureType$[ebp], al
$LN18@TEXTURETYP:

; 1936 : 		}
; 1937 : 	}
; 1938 : 
; 1939 : 	switch (chTextureType)

	movsx	eax, BYTE PTR _chTextureType$[ebp]
	mov	DWORD PTR tv170[ebp], eax
	mov	ecx, DWORD PTR tv170[ebp]
	sub	ecx, 68					; 00000044H
	mov	DWORD PTR tv170[ebp], ecx
	cmp	DWORD PTR tv170[ebp], 21		; 00000015H
	ja	SHORT $LN23@TEXTURETYP
	mov	edx, DWORD PTR tv170[ebp]
	movzx	eax, BYTE PTR $LN54@TEXTURETYP[edx]
	jmp	DWORD PTR $LN55@TEXTURETYP[eax*4]
$LN23@TEXTURETYP:

; 1940 : 	{
; 1941 : 	default:
; 1942 : 	case CHAR_TEX_CONCRETE: fvol = 0.9;	fvolbar = 0.6;

	movss	xmm0, DWORD PTR __real@3f666666
	movss	DWORD PTR _fvol$[ebp], xmm0
	movss	xmm0, DWORD PTR __real@3f19999a
	movss	DWORD PTR _fvolbar$[ebp], xmm0

; 1943 : 		rgsz[0] = "hits/concrete1.wav";

	mov	eax, 4
	imul	ecx, eax, 0
	mov	DWORD PTR _rgsz$[ebp+ecx], OFFSET ??_C@_0BD@NGLEFHDP@hits?1concrete1?4wav?$AA@

; 1944 : 		rgsz[1] = "hits/concrete2.wav";

	mov	eax, 4
	shl	eax, 0
	mov	DWORD PTR _rgsz$[ebp+eax], OFFSET ??_C@_0BD@FACACFJB@hits?1concrete2?4wav?$AA@

; 1945 : 		rgsz[2] = "hits/concrete3.wav";

	mov	eax, 4
	shl	eax, 1
	mov	DWORD PTR _rgsz$[ebp+eax], OFFSET ??_C@_0BD@JLHMPGDE@hits?1concrete3?4wav?$AA@

; 1946 : 		rgsz[3] = "hits/concrete4.wav";

	mov	eax, 4
	imul	ecx, eax, 3
	mov	DWORD PTR _rgsz$[ebp+ecx], OFFSET ??_C@_0BD@IGHJMGIM@hits?1concrete4?4wav?$AA@

; 1947 : 		cnt = 4;

	mov	DWORD PTR _cnt$[ebp], 4

; 1948 : 		break;

	jmp	$LN2@TEXTURETYP
$LN24@TEXTURETYP:

; 1949 : 	case CHAR_TEX_GRATE:
; 1950 : 	case CHAR_TEX_VENT:
; 1951 : 	case CHAR_TEX_METAL: fvol = 0.9; fvolbar = 0.3;

	movss	xmm0, DWORD PTR __real@3f666666
	movss	DWORD PTR _fvol$[ebp], xmm0
	movss	xmm0, DWORD PTR __real@3e99999a
	movss	DWORD PTR _fvolbar$[ebp], xmm0

; 1952 : 		rgsz[0] = "hits/metal1.wav";

	mov	eax, 4
	imul	ecx, eax, 0
	mov	DWORD PTR _rgsz$[ebp+ecx], OFFSET ??_C@_0BA@NFNLDODK@hits?1metal1?4wav?$AA@

; 1953 : 		rgsz[1] = "hits/metal2.wav";

	mov	eax, 4
	shl	eax, 0
	mov	DWORD PTR _rgsz$[ebp+eax], OFFSET ??_C@_0BA@FDEPEMJE@hits?1metal2?4wav?$AA@

; 1954 : 		rgsz[2] = "hits/metal3.wav";

	mov	eax, 4
	shl	eax, 1
	mov	DWORD PTR _rgsz$[ebp+eax], OFFSET ??_C@_0BA@JIBDJPDB@hits?1metal3?4wav?$AA@

; 1955 : 		rgsz[3] = "hits/metal4.wav";

	mov	eax, 4
	imul	ecx, eax, 3
	mov	DWORD PTR _rgsz$[ebp+ecx], OFFSET ??_C@_0BA@IFBGKPIJ@hits?1metal4?4wav?$AA@

; 1956 : 		cnt = 4;

	mov	DWORD PTR _cnt$[ebp], 4

; 1957 : 		break;

	jmp	$LN2@TEXTURETYP
$LN25@TEXTURETYP:

; 1958 : 	case CHAR_TEX_GRASS:
; 1959 : 	case CHAR_TEX_GRAVEL:
; 1960 : 	case CHAR_TEX_SNOW:
; 1961 : 	case CHAR_TEX_DIRT:	fvol = 0.9; fvolbar = 0.1;

	movss	xmm0, DWORD PTR __real@3f666666
	movss	DWORD PTR _fvol$[ebp], xmm0
	movss	xmm0, DWORD PTR __real@3dcccccd
	movss	DWORD PTR _fvolbar$[ebp], xmm0

; 1962 : 		rgsz[0] = "hits/dirt1.wav";

	mov	eax, 4
	imul	ecx, eax, 0
	mov	DWORD PTR _rgsz$[ebp+ecx], OFFSET ??_C@_0P@BCDMGIBN@hits?1dirt1?4wav?$AA@

; 1963 : 		rgsz[1] = "hits/dirt2.wav";

	mov	eax, 4
	shl	eax, 0
	mov	DWORD PTR _rgsz$[ebp+eax], OFFSET ??_C@_0P@JEKIBKLD@hits?1dirt2?4wav?$AA@

; 1964 : 		rgsz[2] = "hits/dirt3.wav";

	mov	eax, 4
	shl	eax, 1
	mov	DWORD PTR _rgsz$[ebp+eax], OFFSET ??_C@_0P@FPPEMJBG@hits?1dirt3?4wav?$AA@

; 1965 : 		rgsz[3] = "hits/dirt3.wav";

	mov	eax, 4
	imul	ecx, eax, 3
	mov	DWORD PTR _rgsz$[ebp+ecx], OFFSET ??_C@_0P@FPPEMJBG@hits?1dirt3?4wav?$AA@

; 1966 : 		cnt = 4;

	mov	DWORD PTR _cnt$[ebp], 4

; 1967 : 		DoRicochet = false;

	mov	BYTE PTR _DoRicochet$[ebp], 0

; 1968 : 		break;

	jmp	$LN2@TEXTURETYP
$LN26@TEXTURETYP:

; 1969 : //	case CHAR_TEX_VENT:	fvol = 0.5; fvolbar = 0.3; // use metal
; 1970 : //		rgsz[0] = "player/pl_duct1.wav";
; 1971 : //		rgsz[1] = "player/pl_duct1.wav";
; 1972 : //		cnt = 2;
; 1973 : //		break;
; 1974 : //	case CHAR_TEX_GRATE: fvol = 0.9; fvolbar = 0.5; // use metal
; 1975 : //		rgsz[0] = "player/pl_grate1.wav";
; 1976 : //		rgsz[1] = "player/pl_grate4.wav";
; 1977 : //		cnt = 2;
; 1978 : //		break;
; 1979 : //	case CHAR_TEX_TILE:	fvol = 0.8; fvolbar = 0.2; // use default for now
; 1980 : //		rgsz[0] = "player/pl_tile1.wav";
; 1981 : //		rgsz[1] = "player/pl_tile3.wav";
; 1982 : //		rgsz[2] = "player/pl_tile2.wav";
; 1983 : //		rgsz[3] = "player/pl_tile4.wav";
; 1984 : //		cnt = 4;
; 1985 : //		break;
; 1986 : 	case CHAR_TEX_SLOSH: fvol = 0.9; fvolbar = 0.0;

	movss	xmm0, DWORD PTR __real@3f666666
	movss	DWORD PTR _fvol$[ebp], xmm0
	xorps	xmm0, xmm0
	movss	DWORD PTR _fvolbar$[ebp], xmm0

; 1987 : 		rgsz[0] = "footsteps/slosh1.wav";

	mov	eax, 4
	imul	ecx, eax, 0
	mov	DWORD PTR _rgsz$[ebp+ecx], OFFSET ??_C@_0BF@JKJLEGDL@footsteps?1slosh1?4wav?$AA@

; 1988 : 		rgsz[1] = "footsteps/slosh3.wav";

	mov	eax, 4
	shl	eax, 0
	mov	DWORD PTR _rgsz$[ebp+eax], OFFSET ??_C@_0BF@NHFDOHDA@footsteps?1slosh3?4wav?$AA@

; 1989 : 		rgsz[2] = "footsteps/slosh2.wav";

	mov	eax, 4
	shl	eax, 1
	mov	DWORD PTR _rgsz$[ebp+eax], OFFSET ??_C@_0BF@BMAPDEJF@footsteps?1slosh2?4wav?$AA@

; 1990 : 		rgsz[3] = "footsteps/slosh4.wav";

	mov	eax, 4
	imul	ecx, eax, 3
	mov	DWORD PTR _rgsz$[ebp+ecx], OFFSET ??_C@_0BF@MKFGNHII@footsteps?1slosh4?4wav?$AA@

; 1991 : 		cnt = 4;

	mov	DWORD PTR _cnt$[ebp], 4

; 1992 : 		DoRicochet = false;

	mov	BYTE PTR _DoRicochet$[ebp], 0

; 1993 : 		break;

	jmp	$LN2@TEXTURETYP
$LN27@TEXTURETYP:

; 1994 : 	case CHAR_TEX_WOODSTEP:
; 1995 : 	case CHAR_TEX_WOOD: fvol = 0.9; fvolbar = 0.2;

	movss	xmm0, DWORD PTR __real@3f666666
	movss	DWORD PTR _fvol$[ebp], xmm0
	movss	xmm0, DWORD PTR __real@3e4ccccd
	movss	DWORD PTR _fvolbar$[ebp], xmm0

; 1996 : 		rgsz[0] = "hits/wood1.wav";

	mov	eax, 4
	imul	ecx, eax, 0
	mov	DWORD PTR _rgsz$[ebp+ecx], OFFSET ??_C@_0P@CNNPJDEI@hits?1wood1?4wav?$AA@

; 1997 : 		rgsz[1] = "hits/wood2.wav";

	mov	eax, 4
	shl	eax, 0
	mov	DWORD PTR _rgsz$[ebp+eax], OFFSET ??_C@_0P@KLELOBOG@hits?1wood2?4wav?$AA@

; 1998 : 		rgsz[2] = "hits/wood3.wav";

	mov	eax, 4
	shl	eax, 1
	mov	DWORD PTR _rgsz$[ebp+eax], OFFSET ??_C@_0P@GABHDCED@hits?1wood3?4wav?$AA@

; 1999 : 		rgsz[3] = "hits/wood4.wav";

	mov	eax, 4
	imul	ecx, eax, 3
	mov	DWORD PTR _rgsz$[ebp+ecx], OFFSET ??_C@_0P@HNBCACPL@hits?1wood4?4wav?$AA@

; 2000 : 		cnt = 4;

	mov	DWORD PTR _cnt$[ebp], 4

; 2001 : 		DoRicochet = false;

	mov	BYTE PTR _DoRicochet$[ebp], 0

; 2002 : 		break;

	jmp	$LN2@TEXTURETYP
$LN28@TEXTURETYP:

; 2003 : 	case CHAR_TEX_GLASS:
; 2004 : 	case CHAR_TEX_COMPUTER:
; 2005 : 		fvol = 0.8; fvolbar = 0.2;

	movss	xmm0, DWORD PTR __real@3f4ccccd
	movss	DWORD PTR _fvol$[ebp], xmm0
	movss	xmm0, DWORD PTR __real@3e4ccccd
	movss	DWORD PTR _fvolbar$[ebp], xmm0

; 2006 : 		rgsz[0] = "hits/glass1.wav";

	mov	eax, 4
	imul	ecx, eax, 0
	mov	DWORD PTR _rgsz$[ebp+ecx], OFFSET ??_C@_0BA@ICDOJADL@hits?1glass1?4wav?$AA@

; 2007 : 		rgsz[1] = "hits/glass2.wav";

	mov	eax, 4
	shl	eax, 0
	mov	DWORD PTR _rgsz$[ebp+eax], OFFSET ??_C@_0BA@EKKOCJF@hits?1glass2?4wav?$AA@

; 2008 : 		rgsz[2] = "hits/glass3.wav";

	mov	eax, 4
	shl	eax, 1
	mov	DWORD PTR _rgsz$[ebp+eax], OFFSET ??_C@_0BA@MPPGDBDA@hits?1glass3?4wav?$AA@

; 2009 : 		rgsz[3] = "hits/glass4.wav";

	mov	eax, 4
	imul	ecx, eax, 3
	mov	DWORD PTR _rgsz$[ebp+ecx], OFFSET ??_C@_0BA@NCPDABII@hits?1glass4?4wav?$AA@

; 2010 : 		cnt = 4;

	mov	DWORD PTR _cnt$[ebp], 4

; 2011 : 		break;

	jmp	$LN2@TEXTURETYP
$LN29@TEXTURETYP:

; 2012 : 	case CHAR_TEX_FLESH:
; 2013 : 		fvol = 1.0;	fvolbar = 0.2;

	movss	xmm0, DWORD PTR __real@3f800000
	movss	DWORD PTR _fvol$[ebp], xmm0
	movss	xmm0, DWORD PTR __real@3e4ccccd
	movss	DWORD PTR _fvolbar$[ebp], xmm0

; 2014 : 		if (iBulletType == BULLET_PLAYER_CROWBAR)

	cmp	DWORD PTR _iBulletType$[ebp], 6
	jne	SHORT $LN30@TEXTURETYP

; 2015 : 		{
; 2016 : 			// sounds precached in crowbar
; 2017 : 			rgsz[0] = "weapons/cbar_hitbod1.wav";

	mov	eax, 4
	imul	ecx, eax, 0
	mov	DWORD PTR _rgsz$[ebp+ecx], OFFSET ??_C@_0BJ@GMGLIKCL@weapons?1cbar_hitbod1?4wav?$AA@

; 2018 : 			rgsz[1] = "weapons/cbar_hitbod2.wav";

	mov	eax, 4
	shl	eax, 0
	mov	DWORD PTR _rgsz$[ebp+eax], OFFSET ??_C@_0BJ@OKPPPIIF@weapons?1cbar_hitbod2?4wav?$AA@

; 2019 : 			rgsz[2] = "weapons/cbar_hitbod3.wav";

	mov	eax, 4
	shl	eax, 1
	mov	DWORD PTR _rgsz$[ebp+eax], OFFSET ??_C@_0BJ@CBKDCLCA@weapons?1cbar_hitbod3?4wav?$AA@

; 2020 : 			cnt = 3;

	mov	DWORD PTR _cnt$[ebp], 3

; 2021 : 		}
; 2022 : 		else

	jmp	SHORT $LN31@TEXTURETYP
$LN30@TEXTURETYP:

; 2023 : 		{
; 2024 : 			rgsz[0] = "weapons/bullet_hit1.wav";

	mov	eax, 4
	imul	ecx, eax, 0
	mov	DWORD PTR _rgsz$[ebp+ecx], OFFSET ??_C@_0BI@EOPFENC@weapons?1bullet_hit1?4wav?$AA@

; 2025 : 			rgsz[1] = "weapons/bullet_hit2.wav";

	mov	eax, 4
	shl	eax, 0
	mov	DWORD PTR _rgsz$[ebp+eax], OFFSET ??_C@_0BI@ICHLCGHM@weapons?1bullet_hit2?4wav?$AA@

; 2026 : 			cnt = 2;

	mov	DWORD PTR _cnt$[ebp], 2
$LN31@TEXTURETYP:

; 2027 : 		}
; 2028 : 		fattn = 1.0;

	movss	xmm0, DWORD PTR __real@3f800000
	movss	DWORD PTR _fattn$[ebp], xmm0

; 2029 : 		DoRicochet = false;

	mov	BYTE PTR _DoRicochet$[ebp], 0

; 2030 : 		break;

	jmp	SHORT $LN2@TEXTURETYP
$LN32@TEXTURETYP:

; 2031 : 	case CHAR_TEX_NONE: // usually it's a sky texture
; 2032 : 		if (iBulletType == BULLET_PLAYER_CROWBAR)

	cmp	DWORD PTR _iBulletType$[ebp], 6
	jne	SHORT $LN33@TEXTURETYP

; 2033 : 		{
; 2034 : 			fvol = 1.0;	fvolbar = 0.2;

	movss	xmm0, DWORD PTR __real@3f800000
	movss	DWORD PTR _fvol$[ebp], xmm0
	movss	xmm0, DWORD PTR __real@3e4ccccd
	movss	DWORD PTR _fvolbar$[ebp], xmm0

; 2035 : 			// sound precached in crowbar
; 2036 : 			rgsz[0] = "weapons/cbar_miss1.wav";

	mov	eax, 4
	imul	ecx, eax, 0
	mov	DWORD PTR _rgsz$[ebp+ecx], OFFSET ??_C@_0BH@CNLHGOLI@weapons?1cbar_miss1?4wav?$AA@

; 2037 : 			cnt = 1;

	mov	DWORD PTR _cnt$[ebp], 1

; 2038 : 			fattn = 1.0;

	movss	xmm0, DWORD PTR __real@3f800000
	movss	DWORD PTR _fattn$[ebp], xmm0

; 2039 : 		}
; 2040 : 		else

	jmp	SHORT $LN34@TEXTURETYP
$LN33@TEXTURETYP:

; 2041 : 			return 0.0;

	fldz
	jmp	$LN1@TEXTURETYP
$LN34@TEXTURETYP:
$LN2@TEXTURETYP:

; 2042 : 		break;
; 2043 : 	}
; 2044 : 
; 2045 : 	// did we hit a breakable?
; 2046 : 
; 2047 : 	if (pEntity && FClassnameIs(pEntity->pev, "func_breakable"))

	cmp	DWORD PTR _pEntity$[ebp], 0
	je	SHORT $LN35@TEXTURETYP
	push	OFFSET ??_C@_0P@NGDPBEAP@func_breakable?$AA@
	mov	eax, DWORD PTR _pEntity$[ebp]
	mov	ecx, DWORD PTR [eax+4]
	push	ecx
	call	?FClassnameIs@@YAHPAUentvars_s@@PBD@Z	; FClassnameIs
	add	esp, 8
	test	eax, eax
	je	SHORT $LN35@TEXTURETYP

; 2048 : 	{
; 2049 : 		// drop volumes, the object will already play a damaged sound
; 2050 : 		fvol /= 1.5;

	cvtss2sd xmm0, DWORD PTR _fvol$[ebp]
	divsd	xmm0, QWORD PTR __real@3ff8000000000000
	cvtsd2ss xmm0, xmm0
	movss	DWORD PTR _fvol$[ebp], xmm0

; 2051 : 		fvolbar /= 2.0;	

	cvtss2sd xmm0, DWORD PTR _fvolbar$[ebp]
	divsd	xmm0, QWORD PTR __real@4000000000000000
	cvtsd2ss xmm0, xmm0
	movss	DWORD PTR _fvolbar$[ebp], xmm0
	jmp	$LN4@TEXTURETYP
$LN35@TEXTURETYP:

; 2052 : 	}
; 2053 : 	else if (chTextureType == CHAR_TEX_COMPUTER)

	movsx	eax, BYTE PTR _chTextureType$[ebp]
	cmp	eax, 80					; 00000050H
	jne	$LN4@TEXTURETYP

; 2054 : 	{
; 2055 : 		// play random spark if computer
; 2056 : 
; 2057 : 		if ( ptr->flFraction != 1.0 && RANDOM_LONG(0,1))

	mov	eax, DWORD PTR _ptr$[ebp]
	cvtss2sd xmm0, DWORD PTR [eax+16]
	ucomisd	xmm0, QWORD PTR __real@3ff0000000000000
	lahf
	test	ah, 68					; 00000044H
	jnp	$LN4@TEXTURETYP
	push	1
	push	0
	call	DWORD PTR ?g_engfuncs@@3Uenginefuncs_s@@A+360
	add	esp, 8
	test	eax, eax
	je	$LN4@TEXTURETYP

; 2058 : 		{
; 2059 : 			UTIL_Sparks( ptr->vecEndPos );

	mov	eax, DWORD PTR _ptr$[ebp]
	add	eax, 20					; 00000014H
	push	eax
	call	?UTIL_Sparks@@YAXABVVector@@@Z		; UTIL_Sparks
	add	esp, 4

; 2060 : 
; 2061 : 			float flVolume = RANDOM_FLOAT ( 0.7 , 1.0 ); // random volume range

	push	ecx
	movss	xmm0, DWORD PTR __real@3f800000
	movss	DWORD PTR [esp], xmm0
	push	ecx
	movss	xmm0, DWORD PTR __real@3f333333
	movss	DWORD PTR [esp], xmm0
	call	DWORD PTR ?g_engfuncs@@3Uenginefuncs_s@@A+364
	add	esp, 8
	fstp	DWORD PTR _flVolume$7[ebp]

; 2062 : 			switch ( RANDOM_LONG(0,1) )

	push	1
	push	0
	call	DWORD PTR ?g_engfuncs@@3Uenginefuncs_s@@A+360
	add	esp, 8
	mov	DWORD PTR tv296[ebp], eax
	cmp	DWORD PTR tv296[ebp], 0
	je	SHORT $LN39@TEXTURETYP
	cmp	DWORD PTR tv296[ebp], 1
	je	SHORT $LN40@TEXTURETYP
	jmp	$LN4@TEXTURETYP
$LN39@TEXTURETYP:

; 2063 : 			{
; 2064 : 				case 0: UTIL_EmitAmbientSound(ENT(0), ptr->vecEndPos, "buttons/spark5.wav", flVolume, ATTN_NORM, 0, 100); break;

	push	100					; 00000064H
	push	0
	push	ecx
	movss	xmm0, DWORD PTR __real@3f4ccccd
	movss	DWORD PTR [esp], xmm0
	push	ecx
	movss	xmm0, DWORD PTR _flVolume$7[ebp]
	movss	DWORD PTR [esp], xmm0
	push	OFFSET ??_C@_0BD@GGFGALIC@buttons?1spark5?4wav?$AA@
	mov	eax, DWORD PTR _ptr$[ebp]
	add	eax, 20					; 00000014H
	push	eax
	push	0
	call	?ENT@@YAPAUedict_s@@H@Z			; ENT
	add	esp, 4
	push	eax
	call	?UTIL_EmitAmbientSound@@YAXPAUedict_s@@ABVVector@@PBDMMHH@Z ; UTIL_EmitAmbientSound
	add	esp, 28					; 0000001cH
	jmp	SHORT $LN4@TEXTURETYP
$LN40@TEXTURETYP:

; 2065 : 				case 1: UTIL_EmitAmbientSound(ENT(0), ptr->vecEndPos, "buttons/spark6.wav", flVolume, ATTN_NORM, 0, 100); break;

	push	100					; 00000064H
	push	0
	push	ecx
	movss	xmm0, DWORD PTR __real@3f4ccccd
	movss	DWORD PTR [esp], xmm0
	push	ecx
	movss	xmm0, DWORD PTR _flVolume$7[ebp]
	movss	DWORD PTR [esp], xmm0
	push	OFFSET ??_C@_0BD@OAMCHJCM@buttons?1spark6?4wav?$AA@
	mov	eax, DWORD PTR _ptr$[ebp]
	add	eax, 20					; 00000014H
	push	eax
	push	0
	call	?ENT@@YAPAUedict_s@@H@Z			; ENT
	add	esp, 4
	push	eax
	call	?UTIL_EmitAmbientSound@@YAXPAUedict_s@@ABVVector@@PBDMMHH@Z ; UTIL_EmitAmbientSound
	add	esp, 28					; 0000001cH
$LN4@TEXTURETYP:

; 2066 : 			}
; 2067 : 		}
; 2068 : 	}
; 2069 : 
; 2070 : 	if ( g_pGameRules->IsMultiplayer() ) // UNDONE: maybe should be a cvar?

	mov	eax, DWORD PTR ?g_pGameRules@@3PAVCGameRules@@A ; g_pGameRules
	mov	edx, DWORD PTR [eax]
	mov	ecx, DWORD PTR ?g_pGameRules@@3PAVCGameRules@@A ; g_pGameRules
	mov	eax, DWORD PTR [edx+24]
	call	eax
	test	eax, eax
	je	SHORT $LN41@TEXTURETYP

; 2071 : 		fvol *= 0.5;

	cvtss2sd xmm0, DWORD PTR _fvol$[ebp]
	mulsd	xmm0, QWORD PTR __real@3fe0000000000000
	cvtsd2ss xmm0, xmm0
	movss	DWORD PTR _fvol$[ebp], xmm0
$LN41@TEXTURETYP:

; 2072 : 
; 2073 : 	// play material hit sound
; 2074 : 	UTIL_EmitAmbientSound(ENT(0), ptr->vecEndPos, rgsz[RANDOM_LONG(0,cnt-1)], fvol, fattn, 0, 96 + RANDOM_LONG(0,6));

	push	6
	push	0
	call	DWORD PTR ?g_engfuncs@@3Uenginefuncs_s@@A+360
	add	esp, 8
	add	eax, 96					; 00000060H
	push	eax
	push	0
	push	ecx
	movss	xmm0, DWORD PTR _fattn$[ebp]
	movss	DWORD PTR [esp], xmm0
	push	ecx
	movss	xmm0, DWORD PTR _fvol$[ebp]
	movss	DWORD PTR [esp], xmm0
	mov	eax, DWORD PTR _cnt$[ebp]
	sub	eax, 1
	push	eax
	push	0
	call	DWORD PTR ?g_engfuncs@@3Uenginefuncs_s@@A+360
	add	esp, 8
	mov	ecx, DWORD PTR _rgsz$[ebp+eax*4]
	push	ecx
	mov	edx, DWORD PTR _ptr$[ebp]
	add	edx, 20					; 00000014H
	push	edx
	push	0
	call	?ENT@@YAPAUedict_s@@H@Z			; ENT
	add	esp, 4
	push	eax
	call	?UTIL_EmitAmbientSound@@YAXPAUedict_s@@ABVVector@@PBDMMHH@Z ; UTIL_EmitAmbientSound
	add	esp, 28					; 0000001cH

; 2075 : 
; 2076 : 	// diffusion - no ricochet effects under water
; 2077 : 	if( UTIL_PointContents( ptr->vecEndPos ) == CONTENTS_WATER )

	mov	eax, DWORD PTR _ptr$[ebp]
	add	eax, 20					; 00000014H
	push	eax
	call	?UTIL_PointContents@@YAHABVVector@@@Z	; UTIL_PointContents
	add	esp, 4
	cmp	eax, -3					; fffffffdH
	jne	SHORT $LN42@TEXTURETYP

; 2078 : 		DoRicochet = false;

	mov	BYTE PTR _DoRicochet$[ebp], 0
$LN42@TEXTURETYP:

; 2079 : 
; 2080 : 	// diffusion - ricochet sounds moved from the engine to here
; 2081 : 	if( (iBulletType != BULLET_PLAYER_CROWBAR) && DoRicochet )

	cmp	DWORD PTR _iBulletType$[ebp], 6
	je	$LN50@TEXTURETYP
	movzx	eax, BYTE PTR _DoRicochet$[ebp]
	test	eax, eax
	je	$LN50@TEXTURETYP

; 2082 : 	{
; 2083 : 		if (RANDOM_LONG(0,3) == 0)

	push	3
	push	0
	call	DWORD PTR ?g_engfuncs@@3Uenginefuncs_s@@A+360
	add	esp, 8
	test	eax, eax
	jne	$LN50@TEXTURETYP

; 2084 : 		{
; 2085 : 			UTIL_Ricochet( ptr->vecEndPos, 0.5 );

	push	ecx
	movss	xmm0, DWORD PTR __real@3f000000
	movss	DWORD PTR [esp], xmm0
	mov	eax, DWORD PTR _ptr$[ebp]
	add	eax, 20					; 00000014H
	push	eax
	call	?UTIL_Ricochet@@YAXABVVector@@M@Z	; UTIL_Ricochet
	add	esp, 8

; 2086 : 			
; 2087 : 			switch(RANDOM_LONG(0,4))

	push	4
	push	0
	call	DWORD PTR ?g_engfuncs@@3Uenginefuncs_s@@A+360
	add	esp, 8
	mov	DWORD PTR tv364[ebp], eax
	cmp	DWORD PTR tv364[ebp], 4
	ja	$LN6@TEXTURETYP
	mov	eax, DWORD PTR tv364[ebp]
	jmp	DWORD PTR $LN56@TEXTURETYP[eax*4]
$LN45@TEXTURETYP:

; 2088 : 			{
; 2089 : 				case 0: UTIL_EmitAmbientSound(ENT(0), ptr->vecEndPos, "hits/ric1.wav", fvol, fattn, 0, 96 + RANDOM_LONG(0,0xf)); break;

	push	15					; 0000000fH
	push	0
	call	DWORD PTR ?g_engfuncs@@3Uenginefuncs_s@@A+360
	add	esp, 8
	add	eax, 96					; 00000060H
	push	eax
	push	0
	push	ecx
	movss	xmm0, DWORD PTR _fattn$[ebp]
	movss	DWORD PTR [esp], xmm0
	push	ecx
	movss	xmm0, DWORD PTR _fvol$[ebp]
	movss	DWORD PTR [esp], xmm0
	push	OFFSET ??_C@_0O@DKJMLFCB@hits?1ric1?4wav?$AA@
	mov	eax, DWORD PTR _ptr$[ebp]
	add	eax, 20					; 00000014H
	push	eax
	push	0
	call	?ENT@@YAPAUedict_s@@H@Z			; ENT
	add	esp, 4
	push	eax
	call	?UTIL_EmitAmbientSound@@YAXPAUedict_s@@ABVVector@@PBDMMHH@Z ; UTIL_EmitAmbientSound
	add	esp, 28					; 0000001cH
	jmp	$LN6@TEXTURETYP
$LN46@TEXTURETYP:

; 2090 : 				case 1: UTIL_EmitAmbientSound(ENT(0), ptr->vecEndPos, "hits/ric2.wav", fvol, fattn, 0, 96 + RANDOM_LONG(0,0xf)); break;

	push	15					; 0000000fH
	push	0
	call	DWORD PTR ?g_engfuncs@@3Uenginefuncs_s@@A+360
	add	esp, 8
	add	eax, 96					; 00000060H
	push	eax
	push	0
	push	ecx
	movss	xmm0, DWORD PTR _fattn$[ebp]
	movss	DWORD PTR [esp], xmm0
	push	ecx
	movss	xmm0, DWORD PTR _fvol$[ebp]
	movss	DWORD PTR [esp], xmm0
	push	OFFSET ??_C@_0O@LMAIMHIP@hits?1ric2?4wav?$AA@
	mov	eax, DWORD PTR _ptr$[ebp]
	add	eax, 20					; 00000014H
	push	eax
	push	0
	call	?ENT@@YAPAUedict_s@@H@Z			; ENT
	add	esp, 4
	push	eax
	call	?UTIL_EmitAmbientSound@@YAXPAUedict_s@@ABVVector@@PBDMMHH@Z ; UTIL_EmitAmbientSound
	add	esp, 28					; 0000001cH
	jmp	$LN6@TEXTURETYP
$LN47@TEXTURETYP:

; 2091 : 				case 2: UTIL_EmitAmbientSound(ENT(0), ptr->vecEndPos, "hits/ric3.wav", fvol, fattn, 0, 96 + RANDOM_LONG(0,0xf)); break;

	push	15					; 0000000fH
	push	0
	call	DWORD PTR ?g_engfuncs@@3Uenginefuncs_s@@A+360
	add	esp, 8
	add	eax, 96					; 00000060H
	push	eax
	push	0
	push	ecx
	movss	xmm0, DWORD PTR _fattn$[ebp]
	movss	DWORD PTR [esp], xmm0
	push	ecx
	movss	xmm0, DWORD PTR _fvol$[ebp]
	movss	DWORD PTR [esp], xmm0
	push	OFFSET ??_C@_0O@HHFEBECK@hits?1ric3?4wav?$AA@
	mov	eax, DWORD PTR _ptr$[ebp]
	add	eax, 20					; 00000014H
	push	eax
	push	0
	call	?ENT@@YAPAUedict_s@@H@Z			; ENT
	add	esp, 4
	push	eax
	call	?UTIL_EmitAmbientSound@@YAXPAUedict_s@@ABVVector@@PBDMMHH@Z ; UTIL_EmitAmbientSound
	add	esp, 28					; 0000001cH
	jmp	$LN6@TEXTURETYP
$LN48@TEXTURETYP:

; 2092 : 				case 3: UTIL_EmitAmbientSound(ENT(0), ptr->vecEndPos, "hits/ric4.wav", fvol, fattn, 0, 96 + RANDOM_LONG(0,0xf)); break;

	push	15					; 0000000fH
	push	0
	call	DWORD PTR ?g_engfuncs@@3Uenginefuncs_s@@A+360
	add	esp, 8
	add	eax, 96					; 00000060H
	push	eax
	push	0
	push	ecx
	movss	xmm0, DWORD PTR _fattn$[ebp]
	movss	DWORD PTR [esp], xmm0
	push	ecx
	movss	xmm0, DWORD PTR _fvol$[ebp]
	movss	DWORD PTR [esp], xmm0
	push	OFFSET ??_C@_0O@GKFBCEJC@hits?1ric4?4wav?$AA@
	mov	eax, DWORD PTR _ptr$[ebp]
	add	eax, 20					; 00000014H
	push	eax
	push	0
	call	?ENT@@YAPAUedict_s@@H@Z			; ENT
	add	esp, 4
	push	eax
	call	?UTIL_EmitAmbientSound@@YAXPAUedict_s@@ABVVector@@PBDMMHH@Z ; UTIL_EmitAmbientSound
	add	esp, 28					; 0000001cH
	jmp	SHORT $LN6@TEXTURETYP
$LN49@TEXTURETYP:

; 2093 : 				case 4: UTIL_EmitAmbientSound(ENT(0), ptr->vecEndPos, "hits/ric5.wav", fvol, fattn, 0, 96 + RANDOM_LONG(0,0xf)); break;

	push	15					; 0000000fH
	push	0
	call	DWORD PTR ?g_engfuncs@@3Uenginefuncs_s@@A+360
	add	esp, 8
	add	eax, 96					; 00000060H
	push	eax
	push	0
	push	ecx
	movss	xmm0, DWORD PTR _fattn$[ebp]
	movss	DWORD PTR [esp], xmm0
	push	ecx
	movss	xmm0, DWORD PTR _fvol$[ebp]
	movss	DWORD PTR [esp], xmm0
	push	OFFSET ??_C@_0O@KBANPHDH@hits?1ric5?4wav?$AA@
	mov	eax, DWORD PTR _ptr$[ebp]
	add	eax, 20					; 00000014H
	push	eax
	push	0
	call	?ENT@@YAPAUedict_s@@H@Z			; ENT
	add	esp, 4
	push	eax
	call	?UTIL_EmitAmbientSound@@YAXPAUedict_s@@ABVVector@@PBDMMHH@Z ; UTIL_EmitAmbientSound
	add	esp, 28					; 0000001cH
$LN6@TEXTURETYP:

; 2094 : 			}
; 2095 : 
; 2096 : 			TraceResult tr = UTIL_GetGlobalTrace( );

	lea	eax, DWORD PTR $T2[ebp]
	push	eax
	call	?UTIL_GetGlobalTrace@@YA?AUgametrace_s@@XZ ; UTIL_GetGlobalTrace
	add	esp, 4
	mov	ecx, 14					; 0000000eH
	mov	esi, eax
	lea	edi, DWORD PTR $T3[ebp]
	rep movsd
	lea	ecx, DWORD PTR $T3[ebp]
	push	ecx
	lea	ecx, DWORD PTR _tr$6[ebp]
	call	??0gametrace_s@@QAE@$$QAU0@@Z

; 2097 : 			Vector vecOrg = ptr->vecEndPos + tr.vecPlaneNormal * 3;

	push	ecx
	movss	xmm0, DWORD PTR __real@40400000
	movss	DWORD PTR [esp], xmm0
	lea	eax, DWORD PTR $T1[ebp]
	push	eax
	lea	ecx, DWORD PTR _tr$6[ebp+36]
	call	??DVector@@QBE?AV0@M@Z			; Vector::operator*
	push	eax
	lea	ecx, DWORD PTR _vecOrg$5[ebp]
	push	ecx
	mov	ecx, DWORD PTR _ptr$[ebp]
	add	ecx, 20					; 00000014H
	call	??HVector@@QBE?AV0@ABV0@@Z		; Vector::operator+

; 2098 : 
; 2099 : 			if( gpGlobals->maxClients == 1 )  // light from ricochets (singleplayer only)

	mov	eax, DWORD PTR ?gpGlobals@@3PAUglobalvars_t@@A ; gpGlobals
	cmp	DWORD PTR [eax+144], 1
	jne	$LN50@TEXTURETYP

; 2100 : 			{
; 2101 : 				MESSAGE_BEGIN( MSG_PVS, gmsgTempEnt, vecOrg );

	push	0
	lea	ecx, DWORD PTR _vecOrg$5[ebp]
	call	??BVector@@QAEPAMXZ			; Vector::operator float *
	push	eax
	mov	eax, DWORD PTR ?gmsgTempEnt@@3HA	; gmsgTempEnt
	push	eax
	push	4
	call	?MESSAGE_BEGIN@@YAXHHPBMPAUedict_s@@@Z	; MESSAGE_BEGIN
	add	esp, 16					; 00000010H

; 2102 : 				WRITE_BYTE(TE_DLIGHT);

	push	27					; 0000001bH
	call	DWORD PTR ?g_engfuncs@@3Uenginefuncs_s@@A+192
	add	esp, 4

; 2103 : 					WRITE_COORD(vecOrg.x);	// X

	push	ecx
	movss	xmm0, DWORD PTR _vecOrg$5[ebp]
	movss	DWORD PTR [esp], xmm0
	call	DWORD PTR ?g_engfuncs@@3Uenginefuncs_s@@A+212
	add	esp, 4

; 2104 : 					WRITE_COORD(vecOrg.y);	// Y

	push	ecx
	movss	xmm0, DWORD PTR _vecOrg$5[ebp+4]
	movss	DWORD PTR [esp], xmm0
	call	DWORD PTR ?g_engfuncs@@3Uenginefuncs_s@@A+212
	add	esp, 4

; 2105 : 					WRITE_COORD(vecOrg.z);	// Z

	push	ecx
	movss	xmm0, DWORD PTR _vecOrg$5[ebp+8]
	movss	DWORD PTR [esp], xmm0
	call	DWORD PTR ?g_engfuncs@@3Uenginefuncs_s@@A+212
	add	esp, 4

; 2106 : 					WRITE_BYTE( 7 );		// radius * 0.1

	push	7
	call	DWORD PTR ?g_engfuncs@@3Uenginefuncs_s@@A+192
	add	esp, 4

; 2107 : 					WRITE_BYTE( 255 );		// r

	push	255					; 000000ffH
	call	DWORD PTR ?g_engfuncs@@3Uenginefuncs_s@@A+192
	add	esp, 4

; 2108 : 					WRITE_BYTE( 255 );		// g

	push	255					; 000000ffH
	call	DWORD PTR ?g_engfuncs@@3Uenginefuncs_s@@A+192
	add	esp, 4

; 2109 : 					WRITE_BYTE( 230 );		// b

	push	230					; 000000e6H
	call	DWORD PTR ?g_engfuncs@@3Uenginefuncs_s@@A+192
	add	esp, 4

; 2110 : 					WRITE_BYTE( 2 );		// time * 10

	push	2
	call	DWORD PTR ?g_engfuncs@@3Uenginefuncs_s@@A+192
	add	esp, 4

; 2111 : 					WRITE_BYTE( 80 );		// decay * 0.1

	push	80					; 00000050H
	call	DWORD PTR ?g_engfuncs@@3Uenginefuncs_s@@A+192
	add	esp, 4

; 2112 : 					WRITE_BYTE( 130 ); // brightness

	push	130					; 00000082H
	call	DWORD PTR ?g_engfuncs@@3Uenginefuncs_s@@A+192
	add	esp, 4

; 2113 : 					WRITE_BYTE( 0 ); // shadows (disabled)

	push	0
	call	DWORD PTR ?g_engfuncs@@3Uenginefuncs_s@@A+192
	add	esp, 4

; 2114 : 				MESSAGE_END( );

	call	DWORD PTR ?g_engfuncs@@3Uenginefuncs_s@@A+188
$LN50@TEXTURETYP:

; 2115 : 			}
; 2116 : 		}
; 2117 : 	}
; 2118 : 			
; 2119 : 	return fvolbar;

	fld	DWORD PTR _fvolbar$[ebp]
$LN1@TEXTURETYP:

; 2120 : }

	pop	edi
	pop	esi
	pop	ebx
	mov	ecx, DWORD PTR __$ArrayPad$[ebp]
	xor	ecx, ebp
	call	@__security_check_cookie@4
	mov	esp, ebp
	pop	ebp
	ret	0
	npad	3
$LN55@TEXTURETYP:
	DD	$LN25@TEXTURETYP
	DD	$LN29@TEXTURETYP
	DD	$LN24@TEXTURETYP
	DD	$LN27@TEXTURETYP
	DD	$LN32@TEXTURETYP
	DD	$LN28@TEXTURETYP
	DD	$LN26@TEXTURETYP
	DD	$LN23@TEXTURETYP
$LN54@TEXTURETYP:
	DB	0
	DB	0
	DB	1
	DB	2
	DB	7
	DB	7
	DB	0
	DB	3
	DB	7
	DB	2
	DB	4
	DB	7
	DB	5
	DB	7
	DB	0
	DB	6
	DB	7
	DB	7
	DB	2
	DB	3
	DB	7
	DB	5
	npad	2
$LN56@TEXTURETYP:
	DD	$LN45@TEXTURETYP
	DD	$LN46@TEXTURETYP
	DD	$LN47@TEXTURETYP
	DD	$LN48@TEXTURETYP
	DD	$LN49@TEXTURETYP
?TEXTURETYPE_PlaySound@@YAMPAUgametrace_s@@VVector@@1H@Z ENDP ; TEXTURETYPE_PlaySound
_TEXT	ENDS
; Function compile flags: /Odtp /ZI
; File d:\!diffusion 2020\source code 2022\client-server\server\sound.cpp
;	COMDAT ?TEXTURETYPE_Find@@YADPAD@Z
_TEXT	SEGMENT
_i$1 = -4						; size = 4
_name$ = 8						; size = 4
?TEXTURETYPE_Find@@YADPAD@Z PROC			; TEXTURETYPE_Find, COMDAT

; 1846 : {

	push	ebp
	mov	ebp, esp
	sub	esp, 68					; 00000044H
	push	ebx
	push	esi
	push	edi

; 1847 : 	// CONSIDER: pre-sort texture names and perform faster binary search here
; 1848 : 
; 1849 : 	for (int i = 0; i < gcTextures; i++)

	mov	DWORD PTR _i$1[ebp], 0
	jmp	SHORT $LN4@TEXTURETYP
$LN2@TEXTURETYP:
	mov	eax, DWORD PTR _i$1[ebp]
	add	eax, 1
	mov	DWORD PTR _i$1[ebp], eax
$LN4@TEXTURETYP:
	mov	eax, DWORD PTR _i$1[ebp]
	cmp	eax, DWORD PTR ?gcTextures@@3HA		; gcTextures
	jge	SHORT $LN3@TEXTURETYP

; 1850 : 	{
; 1851 : 		if (!strnicmp(name, &(grgszTextureName[i][0]), CBTEXTURENAMEMAX-1))

	push	23					; 00000017H
	imul	eax, DWORD PTR _i$1[ebp], 24
	mov	ecx, 1
	imul	edx, ecx, 0
	lea	eax, DWORD PTR ?grgszTextureName@@3PAY0BI@DA[eax+edx]
	push	eax
	mov	ecx, DWORD PTR _name$[ebp]
	push	ecx
	call	_strnicmp
	add	esp, 12					; 0000000cH
	test	eax, eax
	jne	SHORT $LN5@TEXTURETYP

; 1852 : 			return (grgchTextureType[i]);

	mov	eax, DWORD PTR _i$1[ebp]
	mov	al, BYTE PTR ?grgchTextureType@@3PADA[eax]
	jmp	SHORT $LN1@TEXTURETYP
$LN5@TEXTURETYP:

; 1853 : 	}

	jmp	SHORT $LN2@TEXTURETYP
$LN3@TEXTURETYP:

; 1854 : 
; 1855 : 	return CHAR_TEX_CONCRETE;

	mov	al, 67					; 00000043H
$LN1@TEXTURETYP:

; 1856 : }

	pop	edi
	pop	esi
	pop	ebx
	mov	esp, ebp
	pop	ebp
	ret	0
?TEXTURETYPE_Find@@YADPAD@Z ENDP			; TEXTURETYPE_Find
_TEXT	ENDS
; Function compile flags: /Odtp /ZI
; File d:\!diffusion 2020\source code 2022\client-server\server\sound.cpp
;	COMDAT ?TEXTURETYPE_Init@@YAXXZ
_TEXT	SEGMENT
tv199 = -1252						; size = 4
tv187 = -1252						; size = 4
tv154 = -1252						; size = 4
$T1 = -1248						; size = 4
_commentStart$2 = -1052					; size = 4
_filePos$ = -1048					; size = 4
_fileSize$ = -1044					; size = 4
_pMemFile$ = -1040					; size = 4
_j$ = -1036						; size = 4
_i$ = -1032						; size = 4
_buffer$ = -1028					; size = 1024
__$ArrayPad$ = -4					; size = 4
?TEXTURETYPE_Init@@YAXXZ PROC				; TEXTURETYPE_Init, COMDAT

; 1758 : {

	push	ebp
	mov	ebp, esp
	sub	esp, 1252				; 000004e4H
	mov	eax, DWORD PTR ___security_cookie
	xor	eax, ebp
	mov	DWORD PTR __$ArrayPad$[ebp], eax
	push	ebx
	push	esi
	push	edi

; 1759 : 	char buffer[1024]; //512
; 1760 : 	int i, j;
; 1761 : 	byte *pMemFile;
; 1762 : 	int fileSize, filePos = 0;

	mov	DWORD PTR _filePos$[ebp], 0

; 1763 : 
; 1764 : 	if (fTextureTypeInit)

	cmp	DWORD PTR ?fTextureTypeInit@@3HA, 0	; fTextureTypeInit
	je	SHORT $LN10@TEXTURETYP

; 1765 : 		return;

	jmp	$LN17@TEXTURETYP
$LN10@TEXTURETYP:

; 1766 : 
; 1767 : 	memset(&(grgszTextureName[0][0]), 0, sizeof( grgszTextureName ));

	push	24576					; 00006000H
	push	0
	mov	eax, 24					; 00000018H
	imul	ecx, eax, 0
	mov	edx, 1
	imul	eax, edx, 0
	lea	ecx, DWORD PTR ?grgszTextureName@@3PAY0BI@DA[ecx+eax]
	push	ecx
	call	_memset
	add	esp, 12					; 0000000cH

; 1768 : 	memset(grgchTextureType, 0, sizeof( grgchTextureType ));

	push	1024					; 00000400H
	push	0
	push	OFFSET ?grgchTextureType@@3PADA		; grgchTextureType
	call	_memset
	add	esp, 12					; 0000000cH

; 1769 : 
; 1770 : 	gcTextures = 0;

	mov	DWORD PTR ?gcTextures@@3HA, 0		; gcTextures

; 1771 : 	memset(buffer, 0, sizeof( buffer )); // 512

	push	1024					; 00000400H
	push	0
	lea	eax, DWORD PTR _buffer$[ebp]
	push	eax
	call	_memset
	add	esp, 12					; 0000000cH

; 1772 : 
; 1773 : 	pMemFile = g_engfuncs.pfnLoadFileForMe( "data/materials.txt", &fileSize );

	lea	eax, DWORD PTR _fileSize$[ebp]
	push	eax
	push	OFFSET ??_C@_0BD@EJFPBDDL@data?1materials?4txt?$AA@
	call	DWORD PTR ?g_engfuncs@@3Uenginefuncs_s@@A+380
	add	esp, 8
	mov	DWORD PTR _pMemFile$[ebp], eax

; 1774 : 	if ( !pMemFile )

	cmp	DWORD PTR _pMemFile$[ebp], 0
	jne	SHORT $LN2@TEXTURETYP

; 1775 : 		return;

	jmp	$LN17@TEXTURETYP
$LN2@TEXTURETYP:

; 1776 : 
; 1777 : 	// for each line in the file...
; 1778 : 	while (memfgets(pMemFile, fileSize, filePos, buffer, sizeof(buffer) - 1) != NULL && (gcTextures < CTEXTURESMAX)) // 511

	push	1023					; 000003ffH
	lea	eax, DWORD PTR _buffer$[ebp]
	push	eax
	lea	ecx, DWORD PTR _filePos$[ebp]
	push	ecx
	mov	edx, DWORD PTR _fileSize$[ebp]
	push	edx
	mov	eax, DWORD PTR _pMemFile$[ebp]
	push	eax
	call	?memfgets@@YAPADPAEHAAHPADH@Z		; memfgets
	add	esp, 20					; 00000014H
	test	eax, eax
	je	$LN3@TEXTURETYP
	cmp	DWORD PTR ?gcTextures@@3HA, 1024	; gcTextures, 00000400H
	jge	$LN3@TEXTURETYP

; 1779 : 	{
; 1780 : 		// skip whitespace
; 1781 : 		i = 0;

	mov	DWORD PTR _i$[ebp], 0
$LN4@TEXTURETYP:

; 1782 : 		/*
; 1783 : 		while(buffer[i] && isspace(buffer[i]))
; 1784 : 			i++;
; 1785 : 		
; 1786 : 		if (!buffer[i])
; 1787 : 			continue;
; 1788 : 
; 1789 : 		// skip comment lines
; 1790 : 		if (buffer[i] == '/' || !isalpha(buffer[i]))
; 1791 : 			continue;*/
; 1792 : 			// diffusion - https://github.com/ValveSoftware/halflife/issues/3329
; 1793 : 		while( buffer[i] && isspace( buffer[i] ) )

	mov	eax, DWORD PTR _i$[ebp]
	movsx	ecx, BYTE PTR _buffer$[ebp+eax]
	test	ecx, ecx
	je	SHORT $LN5@TEXTURETYP
	mov	eax, DWORD PTR _i$[ebp]
	movsx	ecx, BYTE PTR _buffer$[ebp+eax]
	push	ecx
	call	_isspace
	add	esp, 4
	test	eax, eax
	je	SHORT $LN5@TEXTURETYP

; 1794 : 			i++;

	mov	eax, DWORD PTR _i$[ebp]
	add	eax, 1
	mov	DWORD PTR _i$[ebp], eax
	jmp	SHORT $LN4@TEXTURETYP
$LN5@TEXTURETYP:

; 1795 : 
; 1796 : 		char *commentStart = strstr( buffer, "//" );

	push	OFFSET ??_C@_02CBLDBPFN@?1?1?$AA@
	lea	eax, DWORD PTR _buffer$[ebp]
	push	eax
	call	?strstr@@YAPADQADQBD@Z			; strstr
	add	esp, 8
	mov	DWORD PTR _commentStart$2[ebp], eax

; 1797 : 
; 1798 : 		if( commentStart )

	cmp	DWORD PTR _commentStart$2[ebp], 0
	je	SHORT $LN12@TEXTURETYP

; 1799 : 			*commentStart = '\0';

	mov	eax, DWORD PTR _commentStart$2[ebp]
	mov	BYTE PTR [eax], 0
$LN12@TEXTURETYP:

; 1800 : 
; 1801 : 		if( !buffer[i] )

	mov	eax, DWORD PTR _i$[ebp]
	movsx	ecx, BYTE PTR _buffer$[ebp+eax]
	test	ecx, ecx
	jne	SHORT $LN13@TEXTURETYP

; 1802 : 			continue;

	jmp	$LN2@TEXTURETYP
$LN13@TEXTURETYP:

; 1803 : 
; 1804 : 		// skip comment lines
; 1805 : 		if( !isalpha( buffer[i] ) )

	mov	eax, DWORD PTR _i$[ebp]
	movsx	ecx, BYTE PTR _buffer$[ebp+eax]
	push	ecx
	call	_isalpha
	add	esp, 4
	test	eax, eax
	jne	SHORT $LN14@TEXTURETYP

; 1806 : 			continue;

	jmp	$LN2@TEXTURETYP
$LN14@TEXTURETYP:

; 1807 : 
; 1808 : 		// get texture type
; 1809 : 		grgchTextureType[gcTextures] = toupper(buffer[i++]);

	mov	eax, DWORD PTR _i$[ebp]
	movsx	ecx, BYTE PTR _buffer$[ebp+eax]
	mov	DWORD PTR tv154[ebp], ecx
	mov	edx, DWORD PTR tv154[ebp]
	push	edx
	call	_toupper
	add	esp, 4
	mov	ecx, DWORD PTR ?gcTextures@@3HA		; gcTextures
	mov	BYTE PTR ?grgchTextureType@@3PADA[ecx], al
	mov	edx, DWORD PTR _i$[ebp]
	add	edx, 1
	mov	DWORD PTR _i$[ebp], edx
$LN6@TEXTURETYP:

; 1810 : 
; 1811 : 		// skip whitespace
; 1812 : 		while(buffer[i] && isspace(buffer[i]))

	mov	eax, DWORD PTR _i$[ebp]
	movsx	ecx, BYTE PTR _buffer$[ebp+eax]
	test	ecx, ecx
	je	SHORT $LN7@TEXTURETYP
	mov	eax, DWORD PTR _i$[ebp]
	movsx	ecx, BYTE PTR _buffer$[ebp+eax]
	push	ecx
	call	_isspace
	add	esp, 4
	test	eax, eax
	je	SHORT $LN7@TEXTURETYP

; 1813 : 			i++;

	mov	eax, DWORD PTR _i$[ebp]
	add	eax, 1
	mov	DWORD PTR _i$[ebp], eax
	jmp	SHORT $LN6@TEXTURETYP
$LN7@TEXTURETYP:

; 1814 : 		
; 1815 : 		if (!buffer[i])

	mov	eax, DWORD PTR _i$[ebp]
	movsx	ecx, BYTE PTR _buffer$[ebp+eax]
	test	ecx, ecx
	jne	SHORT $LN15@TEXTURETYP

; 1816 : 			continue;

	jmp	$LN2@TEXTURETYP
$LN15@TEXTURETYP:

; 1817 : 
; 1818 : 		// get texture name
; 1819 : 		j = i;

	mov	eax, DWORD PTR _i$[ebp]
	mov	DWORD PTR _j$[ebp], eax
$LN8@TEXTURETYP:

; 1820 : 		while (buffer[j] && !isspace(buffer[j]))

	mov	eax, DWORD PTR _j$[ebp]
	movsx	ecx, BYTE PTR _buffer$[ebp+eax]
	test	ecx, ecx
	je	SHORT $LN9@TEXTURETYP
	mov	eax, DWORD PTR _j$[ebp]
	movsx	ecx, BYTE PTR _buffer$[ebp+eax]
	push	ecx
	call	_isspace
	add	esp, 4
	test	eax, eax
	jne	SHORT $LN9@TEXTURETYP

; 1821 : 			j++;

	mov	eax, DWORD PTR _j$[ebp]
	add	eax, 1
	mov	DWORD PTR _j$[ebp], eax
	jmp	SHORT $LN8@TEXTURETYP
$LN9@TEXTURETYP:

; 1822 : 
; 1823 : 	//	if (!buffer[j])
; 1824 : 	//		continue;
; 1825 : 		if( i == j ) // diffusion - https://github.com/ValveSoftware/halflife/issues/3328

	mov	eax, DWORD PTR _i$[ebp]
	cmp	eax, DWORD PTR _j$[ebp]
	jne	SHORT $LN16@TEXTURETYP

; 1826 : 			continue;

	jmp	$LN2@TEXTURETYP
$LN16@TEXTURETYP:

; 1827 : 
; 1828 : 		// null-terminate name and save in textures array
; 1829 : 		j = Q_min (j, CBTEXTURENAMEMAX-1+i);

	mov	eax, DWORD PTR _i$[ebp]
	add	eax, 23					; 00000017H
	cmp	DWORD PTR _j$[ebp], eax
	jge	SHORT $LN18@TEXTURETYP
	mov	ecx, DWORD PTR _j$[ebp]
	mov	DWORD PTR tv187[ebp], ecx
	jmp	SHORT $LN19@TEXTURETYP
$LN18@TEXTURETYP:
	mov	edx, DWORD PTR _i$[ebp]
	add	edx, 23					; 00000017H
	mov	DWORD PTR tv187[ebp], edx
$LN19@TEXTURETYP:
	mov	eax, DWORD PTR tv187[ebp]
	mov	DWORD PTR _j$[ebp], eax

; 1830 : 		buffer[j] = 0;

	mov	eax, DWORD PTR _j$[ebp]
	mov	DWORD PTR $T1[ebp], eax
	cmp	DWORD PTR $T1[ebp], 1024		; 00000400H
	jae	SHORT $LN20@TEXTURETYP
	jmp	SHORT $LN21@TEXTURETYP
$LN20@TEXTURETYP:
	call	___report_rangecheckfailure
$LN21@TEXTURETYP:
	mov	ecx, DWORD PTR $T1[ebp]
	mov	BYTE PTR _buffer$[ebp+ecx], 0

; 1831 : 		strcpy(&(grgszTextureName[gcTextures++][0]), &(buffer[i]));

	imul	eax, DWORD PTR ?gcTextures@@3HA, 24	; gcTextures
	mov	ecx, 1
	imul	edx, ecx, 0
	lea	eax, DWORD PTR ?grgszTextureName@@3PAY0BI@DA[eax+edx]
	mov	DWORD PTR tv199[ebp], eax
	mov	ecx, DWORD PTR ?gcTextures@@3HA		; gcTextures
	add	ecx, 1
	mov	DWORD PTR ?gcTextures@@3HA, ecx		; gcTextures
	mov	edx, DWORD PTR _i$[ebp]
	lea	eax, DWORD PTR _buffer$[ebp+edx]
	push	eax
	mov	ecx, DWORD PTR tv199[ebp]
	push	ecx
	call	_strcpy
	add	esp, 8

; 1832 : 	}

	jmp	$LN2@TEXTURETYP
$LN3@TEXTURETYP:

; 1833 : 
; 1834 : 	g_engfuncs.pfnFreeFile( pMemFile );

	mov	eax, DWORD PTR _pMemFile$[ebp]
	push	eax
	call	DWORD PTR ?g_engfuncs@@3Uenginefuncs_s@@A+384
	add	esp, 4

; 1835 : 	
; 1836 : 	fTextureTypeInit = TRUE;

	mov	DWORD PTR ?fTextureTypeInit@@3HA, 1	; fTextureTypeInit
$LN17@TEXTURETYP:

; 1837 : }

	pop	edi
	pop	esi
	pop	ebx
	mov	ecx, DWORD PTR __$ArrayPad$[ebp]
	xor	ecx, ebp
	call	@__security_check_cookie@4
	mov	esp, ebp
	pop	ebp
	ret	0
?TEXTURETYPE_Init@@YAXXZ ENDP				; TEXTURETYPE_Init
_TEXT	ENDS
; Function compile flags: /Odtp /ZI
; File d:\!diffusion 2020\source code 2022\client-server\server\sound.cpp
;	COMDAT ?SENTENCEG_Lookup@@YAHPBDPAD@Z
_TEXT	SEGMENT
_i$ = -16						; size = 4
_sznum$ = -12						; size = 8
__$ArrayPad$ = -4					; size = 4
_sample$ = 8						; size = 4
_sentencenum$ = 12					; size = 4
?SENTENCEG_Lookup@@YAHPBDPAD@Z PROC			; SENTENCEG_Lookup, COMDAT

; 1515 : {

	push	ebp
	mov	ebp, esp
	sub	esp, 80					; 00000050H
	mov	eax, DWORD PTR ___security_cookie
	xor	eax, ebp
	mov	DWORD PTR __$ArrayPad$[ebp], eax
	push	ebx
	push	esi
	push	edi

; 1516 : 	char sznum[8];
; 1517 : 
; 1518 : 	int i;
; 1519 : 	// this is a sentence name; lookup sentence number
; 1520 : 	// and give to engine as string.
; 1521 : 	for (i = 0; i < gcallsentences; i++)

	mov	DWORD PTR _i$[ebp], 0
	jmp	SHORT $LN4@SENTENCEG_
$LN2@SENTENCEG_:
	mov	eax, DWORD PTR _i$[ebp]
	add	eax, 1
	mov	DWORD PTR _i$[ebp], eax
$LN4@SENTENCEG_:
	mov	eax, DWORD PTR _i$[ebp]
	cmp	eax, DWORD PTR ?gcallsentences@@3HA	; gcallsentences
	jge	SHORT $LN3@SENTENCEG_

; 1522 : 		if (!stricmp(gszallsentencenames[i], sample+1))

	mov	eax, DWORD PTR _sample$[ebp]
	add	eax, 1
	push	eax
	mov	ecx, DWORD PTR _i$[ebp]
	shl	ecx, 5
	add	ecx, OFFSET ?gszallsentencenames@@3PAY0CA@DA ; gszallsentencenames
	push	ecx
	call	_stricmp
	add	esp, 8
	test	eax, eax
	jne	SHORT $LN5@SENTENCEG_

; 1523 : 		{
; 1524 : 			if (sentencenum)

	cmp	DWORD PTR _sentencenum$[ebp], 0
	je	SHORT $LN6@SENTENCEG_

; 1525 : 			{
; 1526 : 				strcpy(sentencenum, "!");

	push	OFFSET ??_C@_01DCLJPIOD@?$CB?$AA@
	mov	eax, DWORD PTR _sentencenum$[ebp]
	push	eax
	call	_strcpy
	add	esp, 8

; 1527 : 				sprintf(sznum, "%d", i);

	mov	eax, DWORD PTR _i$[ebp]
	push	eax
	push	OFFSET ??_C@_02DPKJAMEF@?$CFd?$AA@
	lea	ecx, DWORD PTR _sznum$[ebp]
	push	ecx
	call	_sprintf
	add	esp, 12					; 0000000cH

; 1528 : 				strcat(sentencenum, sznum);

	lea	eax, DWORD PTR _sznum$[ebp]
	push	eax
	mov	ecx, DWORD PTR _sentencenum$[ebp]
	push	ecx
	call	_strcat
	add	esp, 8
$LN6@SENTENCEG_:

; 1529 : 			}
; 1530 : 			return i;

	mov	eax, DWORD PTR _i$[ebp]
	jmp	SHORT $LN1@SENTENCEG_
$LN5@SENTENCEG_:

; 1531 : 		}

	jmp	SHORT $LN2@SENTENCEG_
$LN3@SENTENCEG_:

; 1532 : 	// sentence name not found!
; 1533 : 	return -1;

	or	eax, -1
$LN1@SENTENCEG_:

; 1534 : }

	pop	edi
	pop	esi
	pop	ebx
	mov	ecx, DWORD PTR __$ArrayPad$[ebp]
	xor	ecx, ebp
	call	@__security_check_cookie@4
	mov	esp, ebp
	pop	ebp
	ret	0
?SENTENCEG_Lookup@@YAHPBDPAD@Z ENDP			; SENTENCEG_Lookup
_TEXT	ENDS
; Function compile flags: /Odtp /ZI
; File d:\!diffusion 2020\source code 2022\client-server\server\sound.cpp
;	COMDAT ?SENTENCEG_GetIndex@@YAHPBD@Z
_TEXT	SEGMENT
_i$ = -4						; size = 4
_szgroupname$ = 8					; size = 4
?SENTENCEG_GetIndex@@YAHPBD@Z PROC			; SENTENCEG_GetIndex, COMDAT

; 1272 : {

	push	ebp
	mov	ebp, esp
	sub	esp, 68					; 00000044H
	push	ebx
	push	esi
	push	edi

; 1273 : 	int i;
; 1274 : 
; 1275 : 	if (!fSentencesInit || !szgroupname)

	cmp	DWORD PTR ?fSentencesInit@@3HA, 0	; fSentencesInit
	je	SHORT $LN5@SENTENCEG_
	cmp	DWORD PTR _szgroupname$[ebp], 0
	jne	SHORT $LN4@SENTENCEG_
$LN5@SENTENCEG_:

; 1276 : 		return -1;

	or	eax, -1
	jmp	SHORT $LN1@SENTENCEG_
$LN4@SENTENCEG_:

; 1277 : 
; 1278 : 	// search rgsentenceg for match on szgroupname
; 1279 : 
; 1280 : 	i = 0;

	mov	DWORD PTR _i$[ebp], 0
$LN2@SENTENCEG_:

; 1281 : 	while (rgsentenceg[i].count)

	imul	eax, DWORD PTR _i$[ebp], 100
	cmp	DWORD PTR ?rgsentenceg@@3PAUsentenceg@@A[eax+32], 0
	je	SHORT $LN3@SENTENCEG_

; 1282 : 	{
; 1283 : 		if (!strcmp(szgroupname, rgsentenceg[i].szgroupname))

	imul	eax, DWORD PTR _i$[ebp], 100
	add	eax, OFFSET ?rgsentenceg@@3PAUsentenceg@@A ; rgsentenceg
	push	eax
	mov	ecx, DWORD PTR _szgroupname$[ebp]
	push	ecx
	call	_strcmp
	add	esp, 8
	test	eax, eax
	jne	SHORT $LN6@SENTENCEG_

; 1284 : 			return i;

	mov	eax, DWORD PTR _i$[ebp]
	jmp	SHORT $LN1@SENTENCEG_
$LN6@SENTENCEG_:

; 1285 : 	i++;

	mov	eax, DWORD PTR _i$[ebp]
	add	eax, 1
	mov	DWORD PTR _i$[ebp], eax

; 1286 : 	}

	jmp	SHORT $LN2@SENTENCEG_
$LN3@SENTENCEG_:

; 1287 : 
; 1288 : 	return -1;

	or	eax, -1
$LN1@SENTENCEG_:

; 1289 : }

	pop	edi
	pop	esi
	pop	ebx
	mov	esp, ebp
	pop	ebp
	ret	0
?SENTENCEG_GetIndex@@YAHPBD@Z ENDP			; SENTENCEG_GetIndex
_TEXT	ENDS
; Function compile flags: /Odtp /ZI
; File d:\!diffusion 2020\source code 2022\client-server\server\sound.cpp
;	COMDAT ?SENTENCEG_PlaySequentialSz@@YAHPAUedict_s@@PBDMMHHHH@Z
_TEXT	SEGMENT
$T1 = -144						; size = 4
_isentenceg$ = -76					; size = 4
_ipicknext$ = -72					; size = 4
_name$ = -68						; size = 64
__$ArrayPad$ = -4					; size = 4
_entity$ = 8						; size = 4
_szgroupname$ = 12					; size = 4
_volume$ = 16						; size = 4
_attenuation$ = 20					; size = 4
_flags$ = 24						; size = 4
_pitch$ = 28						; size = 4
_ipick$ = 32						; size = 4
_freset$ = 36						; size = 4
?SENTENCEG_PlaySequentialSz@@YAHPAUedict_s@@PBDMMHHHH@Z PROC ; SENTENCEG_PlaySequentialSz, COMDAT

; 1345 : {

	push	ebp
	mov	ebp, esp
	sub	esp, 144				; 00000090H
	mov	eax, DWORD PTR ___security_cookie
	xor	eax, ebp
	mov	DWORD PTR __$ArrayPad$[ebp], eax
	push	ebx
	push	esi
	push	edi

; 1346 : 	char name[64];
; 1347 : 	int ipicknext;
; 1348 : 	int isentenceg;
; 1349 : 
; 1350 : 	if (!fSentencesInit)

	cmp	DWORD PTR ?fSentencesInit@@3HA, 0	; fSentencesInit
	jne	SHORT $LN2@SENTENCEG_

; 1351 : 		return -1;

	or	eax, -1
	jmp	$LN1@SENTENCEG_
$LN2@SENTENCEG_:

; 1352 : 
; 1353 : 	name[0] = 0;

	mov	eax, 1
	imul	ecx, eax, 0
	mov	DWORD PTR $T1[ebp], ecx
	cmp	DWORD PTR $T1[ebp], 64			; 00000040H
	jae	SHORT $LN6@SENTENCEG_
	jmp	SHORT $LN7@SENTENCEG_
$LN6@SENTENCEG_:
	call	___report_rangecheckfailure
$LN7@SENTENCEG_:
	mov	edx, DWORD PTR $T1[ebp]
	mov	BYTE PTR _name$[ebp+edx], 0

; 1354 : 
; 1355 : 	isentenceg = SENTENCEG_GetIndex(szgroupname);

	mov	eax, DWORD PTR _szgroupname$[ebp]
	push	eax
	call	?SENTENCEG_GetIndex@@YAHPBD@Z		; SENTENCEG_GetIndex
	add	esp, 4
	mov	DWORD PTR _isentenceg$[ebp], eax

; 1356 : 	if (isentenceg < 0)

	cmp	DWORD PTR _isentenceg$[ebp], 0
	jge	SHORT $LN3@SENTENCEG_

; 1357 : 		return -1;

	or	eax, -1
	jmp	SHORT $LN1@SENTENCEG_
$LN3@SENTENCEG_:

; 1358 : 
; 1359 : 	ipicknext = USENTENCEG_PickSequential(isentenceg, name, ipick, freset);

	mov	eax, DWORD PTR _freset$[ebp]
	push	eax
	mov	ecx, DWORD PTR _ipick$[ebp]
	push	ecx
	lea	edx, DWORD PTR _name$[ebp]
	push	edx
	mov	eax, DWORD PTR _isentenceg$[ebp]
	push	eax
	call	?USENTENCEG_PickSequential@@YAHHPADHH@Z	; USENTENCEG_PickSequential
	add	esp, 16					; 00000010H
	mov	DWORD PTR _ipicknext$[ebp], eax

; 1360 : 	if (ipicknext >= 0 && name[0])

	cmp	DWORD PTR _ipicknext$[ebp], 0
	jl	SHORT $LN4@SENTENCEG_
	mov	eax, 1
	imul	ecx, eax, 0
	movsx	edx, BYTE PTR _name$[ebp+ecx]
	test	edx, edx
	je	SHORT $LN4@SENTENCEG_

; 1361 : 		EMIT_SOUND_DYN(entity, CHAN_VOICE, name, volume, attenuation, flags, pitch);

	mov	eax, DWORD PTR _pitch$[ebp]
	push	eax
	mov	ecx, DWORD PTR _flags$[ebp]
	push	ecx
	push	ecx
	movss	xmm0, DWORD PTR _attenuation$[ebp]
	movss	DWORD PTR [esp], xmm0
	push	ecx
	movss	xmm0, DWORD PTR _volume$[ebp]
	movss	DWORD PTR [esp], xmm0
	lea	edx, DWORD PTR _name$[ebp]
	push	edx
	push	2
	mov	eax, DWORD PTR _entity$[ebp]
	push	eax
	call	?EMIT_SOUND_DYN@@YAXPAUedict_s@@HPBDMMHH@Z ; EMIT_SOUND_DYN
	add	esp, 28					; 0000001cH
$LN4@SENTENCEG_:

; 1362 : 	return ipicknext;

	mov	eax, DWORD PTR _ipicknext$[ebp]
$LN1@SENTENCEG_:

; 1363 : }

	pop	edi
	pop	esi
	pop	ebx
	mov	ecx, DWORD PTR __$ArrayPad$[ebp]
	xor	ecx, ebp
	call	@__security_check_cookie@4
	mov	esp, ebp
	pop	ebp
	ret	0
?SENTENCEG_PlaySequentialSz@@YAHPAUedict_s@@PBDMMHHHH@Z ENDP ; SENTENCEG_PlaySequentialSz
_TEXT	ENDS
; Function compile flags: /Odtp /ZI
; File d:\!diffusion 2020\source code 2022\client-server\server\sound.cpp
;	COMDAT ?SENTENCEG_PlayRndSz@@YAHPAUedict_s@@PBDMMHH@Z
_TEXT	SEGMENT
$T1 = -144						; size = 4
_isentenceg$ = -76					; size = 4
_ipick$ = -72						; size = 4
_name$ = -68						; size = 64
__$ArrayPad$ = -4					; size = 4
_entity$ = 8						; size = 4
_szgroupname$ = 12					; size = 4
_volume$ = 16						; size = 4
_attenuation$ = 20					; size = 4
_flags$ = 24						; size = 4
_pitch$ = 28						; size = 4
?SENTENCEG_PlayRndSz@@YAHPAUedict_s@@PBDMMHH@Z PROC	; SENTENCEG_PlayRndSz, COMDAT

; 1317 : {

	push	ebp
	mov	ebp, esp
	sub	esp, 144				; 00000090H
	mov	eax, DWORD PTR ___security_cookie
	xor	eax, ebp
	mov	DWORD PTR __$ArrayPad$[ebp], eax
	push	ebx
	push	esi
	push	edi

; 1318 : 	char name[64];
; 1319 : 	int ipick;
; 1320 : 	int isentenceg;
; 1321 : 
; 1322 : 	if (!fSentencesInit)

	cmp	DWORD PTR ?fSentencesInit@@3HA, 0	; fSentencesInit
	jne	SHORT $LN2@SENTENCEG_

; 1323 : 		return -1;

	or	eax, -1
	jmp	$LN1@SENTENCEG_
$LN2@SENTENCEG_:

; 1324 : 
; 1325 : 	name[0] = 0;

	mov	eax, 1
	imul	ecx, eax, 0
	mov	DWORD PTR $T1[ebp], ecx
	cmp	DWORD PTR $T1[ebp], 64			; 00000040H
	jae	SHORT $LN6@SENTENCEG_
	jmp	SHORT $LN7@SENTENCEG_
$LN6@SENTENCEG_:
	call	___report_rangecheckfailure
$LN7@SENTENCEG_:
	mov	edx, DWORD PTR $T1[ebp]
	mov	BYTE PTR _name$[ebp+edx], 0

; 1326 : 
; 1327 : 	isentenceg = SENTENCEG_GetIndex(szgroupname);

	mov	eax, DWORD PTR _szgroupname$[ebp]
	push	eax
	call	?SENTENCEG_GetIndex@@YAHPBD@Z		; SENTENCEG_GetIndex
	add	esp, 4
	mov	DWORD PTR _isentenceg$[ebp], eax

; 1328 : 	if (isentenceg < 0)

	cmp	DWORD PTR _isentenceg$[ebp], 0
	jge	SHORT $LN3@SENTENCEG_

; 1329 : 	{
; 1330 : 		ALERT( at_console, "No such sentence group %s\n", szgroupname );

	mov	eax, DWORD PTR _szgroupname$[ebp]
	push	eax
	push	OFFSET ??_C@_0BL@PDIDECJC@No?5such?5sentence?5group?5?$CFs?6?$AA@
	push	1
	call	DWORD PTR ?g_engfuncs@@3Uenginefuncs_s@@A+244
	add	esp, 12					; 0000000cH

; 1331 : 		return -1;

	or	eax, -1
	jmp	SHORT $LN1@SENTENCEG_
$LN3@SENTENCEG_:

; 1332 : 	}
; 1333 : 
; 1334 : 	ipick = USENTENCEG_Pick(isentenceg, name);

	lea	eax, DWORD PTR _name$[ebp]
	push	eax
	mov	ecx, DWORD PTR _isentenceg$[ebp]
	push	ecx
	call	?USENTENCEG_Pick@@YAHHPAD@Z		; USENTENCEG_Pick
	add	esp, 8
	mov	DWORD PTR _ipick$[ebp], eax

; 1335 : 	if (ipick >= 0 && name[0])

	cmp	DWORD PTR _ipick$[ebp], 0
	jl	SHORT $LN4@SENTENCEG_
	mov	eax, 1
	imul	ecx, eax, 0
	movsx	edx, BYTE PTR _name$[ebp+ecx]
	test	edx, edx
	je	SHORT $LN4@SENTENCEG_

; 1336 : 		EMIT_SOUND_DYN(entity, CHAN_VOICE, name, volume, attenuation, flags, pitch);

	mov	eax, DWORD PTR _pitch$[ebp]
	push	eax
	mov	ecx, DWORD PTR _flags$[ebp]
	push	ecx
	push	ecx
	movss	xmm0, DWORD PTR _attenuation$[ebp]
	movss	DWORD PTR [esp], xmm0
	push	ecx
	movss	xmm0, DWORD PTR _volume$[ebp]
	movss	DWORD PTR [esp], xmm0
	lea	edx, DWORD PTR _name$[ebp]
	push	edx
	push	2
	mov	eax, DWORD PTR _entity$[ebp]
	push	eax
	call	?EMIT_SOUND_DYN@@YAXPAUedict_s@@HPBDMMHH@Z ; EMIT_SOUND_DYN
	add	esp, 28					; 0000001cH
$LN4@SENTENCEG_:

; 1337 : 
; 1338 : 	return ipick;

	mov	eax, DWORD PTR _ipick$[ebp]
$LN1@SENTENCEG_:

; 1339 : }

	pop	edi
	pop	esi
	pop	ebx
	mov	ecx, DWORD PTR __$ArrayPad$[ebp]
	xor	ecx, ebp
	call	@__security_check_cookie@4
	mov	esp, ebp
	pop	ebp
	ret	0
?SENTENCEG_PlayRndSz@@YAHPAUedict_s@@PBDMMHH@Z ENDP	; SENTENCEG_PlayRndSz
_TEXT	ENDS
; Function compile flags: /Odtp /ZI
; File d:\!diffusion 2020\source code 2022\client-server\server\sound.cpp
;	COMDAT ?SENTENCEG_PlayRndI@@YAHPAUedict_s@@HMMHH@Z
_TEXT	SEGMENT
$T1 = -140						; size = 4
_ipick$ = -72						; size = 4
_name$ = -68						; size = 64
__$ArrayPad$ = -4					; size = 4
_entity$ = 8						; size = 4
_isentenceg$ = 12					; size = 4
_volume$ = 16						; size = 4
_attenuation$ = 20					; size = 4
_flags$ = 24						; size = 4
_pitch$ = 28						; size = 4
?SENTENCEG_PlayRndI@@YAHPAUedict_s@@HMMHH@Z PROC	; SENTENCEG_PlayRndI, COMDAT

; 1298 : {

	push	ebp
	mov	ebp, esp
	sub	esp, 140				; 0000008cH
	mov	eax, DWORD PTR ___security_cookie
	xor	eax, ebp
	mov	DWORD PTR __$ArrayPad$[ebp], eax
	push	ebx
	push	esi
	push	edi

; 1299 : 	char name[64];
; 1300 : 	int ipick;
; 1301 : 
; 1302 : 	if (!fSentencesInit)

	cmp	DWORD PTR ?fSentencesInit@@3HA, 0	; fSentencesInit
	jne	SHORT $LN2@SENTENCEG_

; 1303 : 		return -1;

	or	eax, -1
	jmp	SHORT $LN1@SENTENCEG_
$LN2@SENTENCEG_:

; 1304 : 
; 1305 : 	name[0] = 0;

	mov	eax, 1
	imul	ecx, eax, 0
	mov	DWORD PTR $T1[ebp], ecx
	cmp	DWORD PTR $T1[ebp], 64			; 00000040H
	jae	SHORT $LN5@SENTENCEG_
	jmp	SHORT $LN6@SENTENCEG_
$LN5@SENTENCEG_:
	call	___report_rangecheckfailure
$LN6@SENTENCEG_:
	mov	edx, DWORD PTR $T1[ebp]
	mov	BYTE PTR _name$[ebp+edx], 0

; 1306 : 
; 1307 : 	ipick = USENTENCEG_Pick(isentenceg, name);

	lea	eax, DWORD PTR _name$[ebp]
	push	eax
	mov	ecx, DWORD PTR _isentenceg$[ebp]
	push	ecx
	call	?USENTENCEG_Pick@@YAHHPAD@Z		; USENTENCEG_Pick
	add	esp, 8
	mov	DWORD PTR _ipick$[ebp], eax

; 1308 : 	if (ipick > 0 && name)

	cmp	DWORD PTR _ipick$[ebp], 0
	jle	SHORT $LN3@SENTENCEG_
	lea	eax, DWORD PTR _name$[ebp]
	test	eax, eax
	je	SHORT $LN3@SENTENCEG_

; 1309 : 		EMIT_SOUND_DYN(entity, CHAN_VOICE, name, volume, attenuation, flags, pitch);

	mov	eax, DWORD PTR _pitch$[ebp]
	push	eax
	mov	ecx, DWORD PTR _flags$[ebp]
	push	ecx
	push	ecx
	movss	xmm0, DWORD PTR _attenuation$[ebp]
	movss	DWORD PTR [esp], xmm0
	push	ecx
	movss	xmm0, DWORD PTR _volume$[ebp]
	movss	DWORD PTR [esp], xmm0
	lea	edx, DWORD PTR _name$[ebp]
	push	edx
	push	2
	mov	eax, DWORD PTR _entity$[ebp]
	push	eax
	call	?EMIT_SOUND_DYN@@YAXPAUedict_s@@HPBDMMHH@Z ; EMIT_SOUND_DYN
	add	esp, 28					; 0000001cH
$LN3@SENTENCEG_:

; 1310 : 	return ipick;

	mov	eax, DWORD PTR _ipick$[ebp]
$LN1@SENTENCEG_:

; 1311 : }

	pop	edi
	pop	esi
	pop	ebx
	mov	ecx, DWORD PTR __$ArrayPad$[ebp]
	xor	ecx, ebp
	call	@__security_check_cookie@4
	mov	esp, ebp
	pop	ebp
	ret	0
?SENTENCEG_PlayRndI@@YAHPAUedict_s@@HMMHH@Z ENDP	; SENTENCEG_PlayRndI
_TEXT	ENDS
; Function compile flags: /Odtp /ZI
; File d:\!diffusion 2020\source code 2022\client-server\server\sound.cpp
;	COMDAT ?SENTENCEG_Stop@@YAXPAUedict_s@@HH@Z
_TEXT	SEGMENT
_sznum$ = -76						; size = 8
_buffer$ = -68						; size = 64
__$ArrayPad$ = -4					; size = 4
_entity$ = 8						; size = 4
_isentenceg$ = 12					; size = 4
_ipick$ = 16						; size = 4
?SENTENCEG_Stop@@YAXPAUedict_s@@HH@Z PROC		; SENTENCEG_Stop, COMDAT

; 1370 : {

	push	ebp
	mov	ebp, esp
	sub	esp, 140				; 0000008cH
	mov	eax, DWORD PTR ___security_cookie
	xor	eax, ebp
	mov	DWORD PTR __$ArrayPad$[ebp], eax
	push	ebx
	push	esi
	push	edi

; 1371 : 	char buffer[64];
; 1372 : 	char sznum[8];
; 1373 : 	
; 1374 : 	if (!fSentencesInit)

	cmp	DWORD PTR ?fSentencesInit@@3HA, 0	; fSentencesInit
	jne	SHORT $LN2@SENTENCEG_

; 1375 : 		return;

	jmp	SHORT $LN1@SENTENCEG_
$LN2@SENTENCEG_:

; 1376 : 
; 1377 : 	if (isentenceg < 0 || ipick < 0)

	cmp	DWORD PTR _isentenceg$[ebp], 0
	jl	SHORT $LN4@SENTENCEG_
	cmp	DWORD PTR _ipick$[ebp], 0
	jge	SHORT $LN3@SENTENCEG_
$LN4@SENTENCEG_:

; 1378 : 		return;

	jmp	SHORT $LN1@SENTENCEG_
$LN3@SENTENCEG_:

; 1379 : 	
; 1380 : 	strcpy(buffer, "!");

	push	OFFSET ??_C@_01DCLJPIOD@?$CB?$AA@
	lea	eax, DWORD PTR _buffer$[ebp]
	push	eax
	call	_strcpy
	add	esp, 8

; 1381 : 	strcat(buffer, rgsentenceg[isentenceg].szgroupname);

	imul	eax, DWORD PTR _isentenceg$[ebp], 100
	add	eax, OFFSET ?rgsentenceg@@3PAUsentenceg@@A ; rgsentenceg
	push	eax
	lea	ecx, DWORD PTR _buffer$[ebp]
	push	ecx
	call	_strcat
	add	esp, 8

; 1382 : 	sprintf(sznum, "%d", ipick);

	mov	eax, DWORD PTR _ipick$[ebp]
	push	eax
	push	OFFSET ??_C@_02DPKJAMEF@?$CFd?$AA@
	lea	ecx, DWORD PTR _sznum$[ebp]
	push	ecx
	call	_sprintf
	add	esp, 12					; 0000000cH

; 1383 : 	strcat(buffer, sznum);

	lea	eax, DWORD PTR _sznum$[ebp]
	push	eax
	lea	ecx, DWORD PTR _buffer$[ebp]
	push	ecx
	call	_strcat
	add	esp, 8

; 1384 : 
; 1385 : 	STOP_SOUND(entity, CHAN_VOICE, buffer);

	lea	eax, DWORD PTR _buffer$[ebp]
	push	eax
	push	2
	mov	ecx, DWORD PTR _entity$[ebp]
	push	ecx
	call	?STOP_SOUND@@YAXPAUedict_s@@HPBD@Z	; STOP_SOUND
	add	esp, 12					; 0000000cH
$LN1@SENTENCEG_:

; 1386 : }

	pop	edi
	pop	esi
	pop	ebx
	mov	ecx, DWORD PTR __$ArrayPad$[ebp]
	xor	ecx, ebp
	call	@__security_check_cookie@4
	mov	esp, ebp
	pop	ebp
	ret	0
?SENTENCEG_Stop@@YAXPAUedict_s@@HH@Z ENDP		; SENTENCEG_Stop
_TEXT	ENDS
; Function compile flags: /Odtp /ZI
; File d:\!diffusion 2020\source code 2022\client-server\server\sound.cpp
;	COMDAT ?SENTENCEG_Init@@YAXXZ
_TEXT	SEGMENT
tv174 = -748						; size = 4
$T1 = -744						; size = 4
$T2 = -740						; size = 4
_pString$3 = -608					; size = 4
_pMemFile$ = -604					; size = 4
_fileSize$ = -600					; size = 4
_filePos$ = -596					; size = 4
_isentencegs$ = -592					; size = 4
_j$ = -588						; size = 4
_i$ = -584						; size = 4
_szgroup$ = -580					; size = 64
_buffer$ = -516						; size = 512
__$ArrayPad$ = -4					; size = 4
?SENTENCEG_Init@@YAXXZ PROC				; SENTENCEG_Init, COMDAT

; 1393 : {

	push	ebp
	mov	ebp, esp
	sub	esp, 748				; 000002ecH
	mov	eax, DWORD PTR ___security_cookie
	xor	eax, ebp
	mov	DWORD PTR __$ArrayPad$[ebp], eax
	push	ebx
	push	esi
	push	edi

; 1394 : 	char buffer[512];
; 1395 : 	char szgroup[64];
; 1396 : 	int i, j;
; 1397 : 	int isentencegs;
; 1398 : 
; 1399 : 	if (fSentencesInit)

	cmp	DWORD PTR ?fSentencesInit@@3HA, 0	; fSentencesInit
	je	SHORT $LN12@SENTENCEG_

; 1400 : 		return;

	jmp	$LN27@SENTENCEG_
$LN12@SENTENCEG_:

; 1401 : 
; 1402 : 	memset(gszallsentencenames, 0, CVOXFILESENTENCEMAX * CBSENTENCENAME_MAX);

	push	131072					; 00020000H
	push	0
	push	OFFSET ?gszallsentencenames@@3PAY0CA@DA	; gszallsentencenames
	call	_memset
	add	esp, 12					; 0000000cH

; 1403 : 	gcallsentences = 0;

	mov	DWORD PTR ?gcallsentences@@3HA, 0	; gcallsentences

; 1404 : 
; 1405 : 	memset(rgsentenceg, 0, CSENTENCEG_MAX * sizeof(SENTENCEG));

	push	409600					; 00064000H
	push	0
	push	OFFSET ?rgsentenceg@@3PAUsentenceg@@A	; rgsentenceg
	call	_memset
	add	esp, 12					; 0000000cH

; 1406 : 	memset(buffer, 0, 512);

	push	512					; 00000200H
	push	0
	lea	eax, DWORD PTR _buffer$[ebp]
	push	eax
	call	_memset
	add	esp, 12					; 0000000cH

; 1407 : 	memset(szgroup, 0, 64);

	push	64					; 00000040H
	push	0
	lea	eax, DWORD PTR _szgroup$[ebp]
	push	eax
	call	_memset
	add	esp, 12					; 0000000cH

; 1408 : 	isentencegs = -1;

	mov	DWORD PTR _isentencegs$[ebp], -1

; 1409 : 
; 1410 : 	int filePos = 0, fileSize;

	mov	DWORD PTR _filePos$[ebp], 0

; 1411 : 	byte *pMemFile = g_engfuncs.pfnLoadFileForMe( "sound/sentences.txt", &fileSize );

	lea	eax, DWORD PTR _fileSize$[ebp]
	push	eax
	push	OFFSET ??_C@_0BE@LOFIHEDB@sound?1sentences?4txt?$AA@
	call	DWORD PTR ?g_engfuncs@@3Uenginefuncs_s@@A+380
	add	esp, 8
	mov	DWORD PTR _pMemFile$[ebp], eax

; 1412 : 	if ( !pMemFile )

	cmp	DWORD PTR _pMemFile$[ebp], 0
	jne	SHORT $LN2@SENTENCEG_

; 1413 : 		return;

	jmp	$LN27@SENTENCEG_
$LN2@SENTENCEG_:

; 1414 : 
; 1415 : 	// for each line in the file...
; 1416 : 	while ( memfgets(pMemFile, fileSize, filePos, buffer, 511) != NULL )

	push	511					; 000001ffH
	lea	eax, DWORD PTR _buffer$[ebp]
	push	eax
	lea	ecx, DWORD PTR _filePos$[ebp]
	push	ecx
	mov	edx, DWORD PTR _fileSize$[ebp]
	push	edx
	mov	eax, DWORD PTR _pMemFile$[ebp]
	push	eax
	call	?memfgets@@YAPADPAEHAAHPADH@Z		; memfgets
	add	esp, 20					; 00000014H
	test	eax, eax
	je	$LN3@SENTENCEG_

; 1417 : 	{
; 1418 : 		// skip whitespace
; 1419 : 		i = 0;

	mov	DWORD PTR _i$[ebp], 0
$LN4@SENTENCEG_:

; 1420 : 		while(buffer[i] && buffer[i] == ' ')

	mov	eax, DWORD PTR _i$[ebp]
	movsx	ecx, BYTE PTR _buffer$[ebp+eax]
	test	ecx, ecx
	je	SHORT $LN5@SENTENCEG_
	mov	eax, DWORD PTR _i$[ebp]
	movsx	ecx, BYTE PTR _buffer$[ebp+eax]
	cmp	ecx, 32					; 00000020H
	jne	SHORT $LN5@SENTENCEG_

; 1421 : 			i++;

	mov	eax, DWORD PTR _i$[ebp]
	add	eax, 1
	mov	DWORD PTR _i$[ebp], eax
	jmp	SHORT $LN4@SENTENCEG_
$LN5@SENTENCEG_:

; 1422 : 		
; 1423 : 		if (!buffer[i])

	mov	eax, DWORD PTR _i$[ebp]
	movsx	ecx, BYTE PTR _buffer$[ebp+eax]
	test	ecx, ecx
	jne	SHORT $LN14@SENTENCEG_

; 1424 : 			continue;

	jmp	$LN2@SENTENCEG_
$LN14@SENTENCEG_:

; 1425 : 
; 1426 : 		if (buffer[i] == '/' || !isalpha(buffer[i]))

	mov	eax, DWORD PTR _i$[ebp]
	movsx	ecx, BYTE PTR _buffer$[ebp+eax]
	cmp	ecx, 47					; 0000002fH
	je	SHORT $LN16@SENTENCEG_
	mov	eax, DWORD PTR _i$[ebp]
	movsx	ecx, BYTE PTR _buffer$[ebp+eax]
	push	ecx
	call	_isalpha
	add	esp, 4
	test	eax, eax
	jne	SHORT $LN15@SENTENCEG_
$LN16@SENTENCEG_:

; 1427 : 			continue;

	jmp	$LN2@SENTENCEG_
$LN15@SENTENCEG_:

; 1428 : 
; 1429 : 		// get sentence name
; 1430 : 		j = i;

	mov	eax, DWORD PTR _i$[ebp]
	mov	DWORD PTR _j$[ebp], eax
$LN6@SENTENCEG_:

; 1431 : 		while (buffer[j] && buffer[j] != ' ')

	mov	eax, DWORD PTR _j$[ebp]
	movsx	ecx, BYTE PTR _buffer$[ebp+eax]
	test	ecx, ecx
	je	SHORT $LN7@SENTENCEG_
	mov	eax, DWORD PTR _j$[ebp]
	movsx	ecx, BYTE PTR _buffer$[ebp+eax]
	cmp	ecx, 32					; 00000020H
	je	SHORT $LN7@SENTENCEG_

; 1432 : 			j++;

	mov	eax, DWORD PTR _j$[ebp]
	add	eax, 1
	mov	DWORD PTR _j$[ebp], eax
	jmp	SHORT $LN6@SENTENCEG_
$LN7@SENTENCEG_:

; 1433 : 
; 1434 : 		if (!buffer[j])

	mov	eax, DWORD PTR _j$[ebp]
	movsx	ecx, BYTE PTR _buffer$[ebp+eax]
	test	ecx, ecx
	jne	SHORT $LN17@SENTENCEG_

; 1435 : 			continue;

	jmp	$LN2@SENTENCEG_
$LN17@SENTENCEG_:

; 1436 : 
; 1437 : 		if (gcallsentences >= CVOXFILESENTENCEMAX) // diffusion - https://github.com/ValveSoftware/halflife/issues/3277

	cmp	DWORD PTR ?gcallsentences@@3HA, 4096	; gcallsentences, 00001000H
	jl	SHORT $LN18@SENTENCEG_

; 1438 : 		{
; 1439 : 			ALERT (at_error, "Too many sentences in sentences.txt!\n");

	push	OFFSET ??_C@_0CG@HMGILMJN@Too?5many?5sentences?5in?5sentences?4@
	push	4
	call	DWORD PTR ?g_engfuncs@@3Uenginefuncs_s@@A+244
	add	esp, 8

; 1440 : 			break;

	jmp	$LN3@SENTENCEG_
$LN18@SENTENCEG_:

; 1441 : 		}
; 1442 : 
; 1443 : 		// null-terminate name and save in sentences array
; 1444 : 		buffer[j] = 0;

	mov	eax, DWORD PTR _j$[ebp]
	mov	DWORD PTR $T2[ebp], eax
	cmp	DWORD PTR $T2[ebp], 512			; 00000200H
	jae	SHORT $LN28@SENTENCEG_
	jmp	SHORT $LN29@SENTENCEG_
$LN28@SENTENCEG_:
	call	___report_rangecheckfailure
$LN29@SENTENCEG_:
	mov	ecx, DWORD PTR $T2[ebp]
	mov	BYTE PTR _buffer$[ebp+ecx], 0

; 1445 : 		const char *pString = buffer + i;

	mov	eax, DWORD PTR _i$[ebp]
	lea	ecx, DWORD PTR _buffer$[ebp+eax]
	mov	DWORD PTR _pString$3[ebp], ecx

; 1446 : 
; 1447 : 		if ( strlen( pString ) >= CBSENTENCENAME_MAX )

	mov	eax, DWORD PTR _pString$3[ebp]
	push	eax
	call	_strlen
	add	esp, 4
	cmp	eax, 32					; 00000020H
	jb	SHORT $LN19@SENTENCEG_

; 1448 : 			ALERT( at_warning, "Sentence %s longer than %d letters\n", pString, CBSENTENCENAME_MAX-1 );

	push	31					; 0000001fH
	mov	eax, DWORD PTR _pString$3[ebp]
	push	eax
	push	OFFSET ??_C@_0CE@OLECIHDE@Sentence?5?$CFs?5longer?5than?5?$CFd?5lette@
	push	3
	call	DWORD PTR ?g_engfuncs@@3Uenginefuncs_s@@A+244
	add	esp, 16					; 00000010H
$LN19@SENTENCEG_:

; 1449 : 
; 1450 : 		strcpy( gszallsentencenames[gcallsentences++], pString );

	mov	eax, DWORD PTR ?gcallsentences@@3HA	; gcallsentences
	shl	eax, 5
	add	eax, OFFSET ?gszallsentencenames@@3PAY0CA@DA ; gszallsentencenames
	mov	DWORD PTR tv174[ebp], eax
	mov	ecx, DWORD PTR ?gcallsentences@@3HA	; gcallsentences
	add	ecx, 1
	mov	DWORD PTR ?gcallsentences@@3HA, ecx	; gcallsentences
	mov	edx, DWORD PTR _pString$3[ebp]
	push	edx
	mov	eax, DWORD PTR tv174[ebp]
	push	eax
	call	_strcpy
	add	esp, 8

; 1451 : 
; 1452 : 		j--;

	mov	eax, DWORD PTR _j$[ebp]
	sub	eax, 1
	mov	DWORD PTR _j$[ebp], eax

; 1453 : 		if (j <= i)

	mov	eax, DWORD PTR _j$[ebp]
	cmp	eax, DWORD PTR _i$[ebp]
	jg	SHORT $LN20@SENTENCEG_

; 1454 : 			continue;

	jmp	$LN2@SENTENCEG_
$LN20@SENTENCEG_:

; 1455 : 		if (!isdigit(buffer[j]))

	mov	eax, DWORD PTR _j$[ebp]
	movsx	ecx, BYTE PTR _buffer$[ebp+eax]
	push	ecx
	call	_isdigit
	add	esp, 4
	test	eax, eax
	jne	SHORT $LN8@SENTENCEG_

; 1456 : 			continue;

	jmp	$LN2@SENTENCEG_
$LN8@SENTENCEG_:

; 1457 : 
; 1458 : 		// cut out suffix numbers
; 1459 : 		while (j > i && isdigit(buffer[j]))

	mov	eax, DWORD PTR _j$[ebp]
	cmp	eax, DWORD PTR _i$[ebp]
	jle	SHORT $LN9@SENTENCEG_
	mov	eax, DWORD PTR _j$[ebp]
	movsx	ecx, BYTE PTR _buffer$[ebp+eax]
	push	ecx
	call	_isdigit
	add	esp, 4
	test	eax, eax
	je	SHORT $LN9@SENTENCEG_

; 1460 : 			j--;

	mov	eax, DWORD PTR _j$[ebp]
	sub	eax, 1
	mov	DWORD PTR _j$[ebp], eax
	jmp	SHORT $LN8@SENTENCEG_
$LN9@SENTENCEG_:

; 1461 : 
; 1462 : 		if (j <= i)

	mov	eax, DWORD PTR _j$[ebp]
	cmp	eax, DWORD PTR _i$[ebp]
	jg	SHORT $LN22@SENTENCEG_

; 1463 : 			continue;

	jmp	$LN2@SENTENCEG_
$LN22@SENTENCEG_:

; 1464 : 
; 1465 : 		buffer[j+1] = 0;

	mov	eax, DWORD PTR _j$[ebp]
	add	eax, 1
	mov	DWORD PTR $T1[ebp], eax
	cmp	DWORD PTR $T1[ebp], 512			; 00000200H
	jae	SHORT $LN30@SENTENCEG_
	jmp	SHORT $LN31@SENTENCEG_
$LN30@SENTENCEG_:
	call	___report_rangecheckfailure
$LN31@SENTENCEG_:
	mov	ecx, DWORD PTR $T1[ebp]
	mov	BYTE PTR _buffer$[ebp+ecx], 0

; 1466 : 		
; 1467 : 		// if new name doesn't match previous group name, 
; 1468 : 		// make a new group.
; 1469 : 
; 1470 : 		if (strcmp(szgroup, &(buffer[i])))

	mov	eax, DWORD PTR _i$[ebp]
	lea	ecx, DWORD PTR _buffer$[ebp+eax]
	push	ecx
	lea	edx, DWORD PTR _szgroup$[ebp]
	push	edx
	call	_strcmp
	add	esp, 8
	test	eax, eax
	je	$LN23@SENTENCEG_

; 1471 : 		{
; 1472 : 			// name doesn't match with prev name,
; 1473 : 			// copy name into group, init count to 1
; 1474 : 			isentencegs++;

	mov	eax, DWORD PTR _isentencegs$[ebp]
	add	eax, 1
	mov	DWORD PTR _isentencegs$[ebp], eax

; 1475 : 			if (isentencegs >= CSENTENCEG_MAX)

	cmp	DWORD PTR _isentencegs$[ebp], 4096	; 00001000H
	jl	SHORT $LN25@SENTENCEG_

; 1476 : 			{
; 1477 : 				ALERT (at_error, "Too many sentence groups in sentences.txt!\n");

	push	OFFSET ??_C@_0CM@HHCLKDCI@Too?5many?5sentence?5groups?5in?5sent@
	push	4
	call	DWORD PTR ?g_engfuncs@@3Uenginefuncs_s@@A+244
	add	esp, 8

; 1478 : 				break;

	jmp	$LN3@SENTENCEG_
$LN25@SENTENCEG_:

; 1479 : 			}
; 1480 : 
; 1481 : 			strcpy(rgsentenceg[isentencegs].szgroupname, &(buffer[i]));

	mov	eax, DWORD PTR _i$[ebp]
	lea	ecx, DWORD PTR _buffer$[ebp+eax]
	push	ecx
	imul	edx, DWORD PTR _isentencegs$[ebp], 100
	add	edx, OFFSET ?rgsentenceg@@3PAUsentenceg@@A ; rgsentenceg
	push	edx
	call	_strcpy
	add	esp, 8

; 1482 : 			rgsentenceg[isentencegs].count = 1;

	imul	eax, DWORD PTR _isentencegs$[ebp], 100
	mov	DWORD PTR ?rgsentenceg@@3PAUsentenceg@@A[eax+32], 1

; 1483 : 
; 1484 : 			strcpy(szgroup, &(buffer[i]));

	mov	eax, DWORD PTR _i$[ebp]
	lea	ecx, DWORD PTR _buffer$[ebp+eax]
	push	ecx
	lea	edx, DWORD PTR _szgroup$[ebp]
	push	edx
	call	_strcpy
	add	esp, 8

; 1485 : 
; 1486 : 			continue;

	jmp	$LN2@SENTENCEG_

; 1487 : 		}
; 1488 : 		else

	jmp	SHORT $LN24@SENTENCEG_
$LN23@SENTENCEG_:

; 1489 : 		{
; 1490 : 			//name matches with previous, increment group count
; 1491 : 			if (isentencegs >= 0)

	cmp	DWORD PTR _isentencegs$[ebp], 0
	jl	SHORT $LN24@SENTENCEG_

; 1492 : 				rgsentenceg[isentencegs].count++;

	imul	eax, DWORD PTR _isentencegs$[ebp], 100
	mov	ecx, DWORD PTR ?rgsentenceg@@3PAUsentenceg@@A[eax+32]
	add	ecx, 1
	imul	edx, DWORD PTR _isentencegs$[ebp], 100
	mov	DWORD PTR ?rgsentenceg@@3PAUsentenceg@@A[edx+32], ecx
$LN24@SENTENCEG_:

; 1493 : 		}
; 1494 : 	}

	jmp	$LN2@SENTENCEG_
$LN3@SENTENCEG_:

; 1495 : 
; 1496 : 	g_engfuncs.pfnFreeFile( pMemFile );

	mov	eax, DWORD PTR _pMemFile$[ebp]
	push	eax
	call	DWORD PTR ?g_engfuncs@@3Uenginefuncs_s@@A+384
	add	esp, 4

; 1497 : 	
; 1498 : 	fSentencesInit = TRUE;

	mov	DWORD PTR ?fSentencesInit@@3HA, 1	; fSentencesInit

; 1499 : 
; 1500 : 	// init lru lists
; 1501 : 
; 1502 : 	i = 0;

	mov	DWORD PTR _i$[ebp], 0
$LN10@SENTENCEG_:

; 1503 : 
; 1504 : 	while (rgsentenceg[i].count && i < CSENTENCEG_MAX)

	imul	eax, DWORD PTR _i$[ebp], 100
	cmp	DWORD PTR ?rgsentenceg@@3PAUsentenceg@@A[eax+32], 0
	je	SHORT $LN27@SENTENCEG_
	cmp	DWORD PTR _i$[ebp], 4096		; 00001000H
	jge	SHORT $LN27@SENTENCEG_

; 1505 : 	{
; 1506 : 		USENTENCEG_InitLRU(&(rgsentenceg[i].rgblru[0]), rgsentenceg[i].count);

	imul	eax, DWORD PTR _i$[ebp], 100
	mov	ecx, DWORD PTR ?rgsentenceg@@3PAUsentenceg@@A[eax+32]
	push	ecx
	imul	edx, DWORD PTR _i$[ebp], 100
	mov	eax, 1
	imul	ecx, eax, 0
	lea	edx, DWORD PTR ?rgsentenceg@@3PAUsentenceg@@A[edx+ecx+36]
	push	edx
	call	?USENTENCEG_InitLRU@@YAXPAEH@Z		; USENTENCEG_InitLRU
	add	esp, 8

; 1507 : 		i++;

	mov	eax, DWORD PTR _i$[ebp]
	add	eax, 1
	mov	DWORD PTR _i$[ebp], eax

; 1508 : 	}

	jmp	SHORT $LN10@SENTENCEG_
$LN27@SENTENCEG_:

; 1509 : 
; 1510 : }

	pop	edi
	pop	esi
	pop	ebx
	mov	ecx, DWORD PTR __$ArrayPad$[ebp]
	xor	ecx, ebp
	call	@__security_check_cookie@4
	mov	esp, ebp
	pop	ebp
	ret	0
?SENTENCEG_Init@@YAXXZ ENDP				; SENTENCEG_Init
_TEXT	ENDS
; Function compile flags: /Odtp /ZI
; File d:\!diffusion 2020\source code 2022\client-server\server\sound.cpp
;	COMDAT ?USENTENCEG_InitLRU@@YAXPAEH@Z
_TEXT	SEGMENT
_temp$ = -13						; size = 1
_k$ = -12						; size = 4
_j$ = -8						; size = 4
_i$ = -4						; size = 4
_plru$ = 8						; size = 4
_count$ = 12						; size = 4
?USENTENCEG_InitLRU@@YAXPAEH@Z PROC			; USENTENCEG_InitLRU, COMDAT

; 1143 : {

	push	ebp
	mov	ebp, esp
	sub	esp, 80					; 00000050H
	push	ebx
	push	esi
	push	edi

; 1144 : 	int i, j, k;
; 1145 : 	unsigned char temp;
; 1146 : 	
; 1147 : 	if (!fSentencesInit)

	cmp	DWORD PTR ?fSentencesInit@@3HA, 0	; fSentencesInit
	jne	SHORT $LN8@USENTENCEG

; 1148 : 		return;

	jmp	$LN1@USENTENCEG
$LN8@USENTENCEG:

; 1149 : 
; 1150 : 	if (count > CSENTENCE_LRU_MAX)

	cmp	DWORD PTR _count$[ebp], 64		; 00000040H
	jle	SHORT $LN9@USENTENCEG

; 1151 : 		count = CSENTENCE_LRU_MAX;

	mov	DWORD PTR _count$[ebp], 64		; 00000040H
$LN9@USENTENCEG:

; 1152 : 
; 1153 : 	for (i = 0; i < count; i++)

	mov	DWORD PTR _i$[ebp], 0
	jmp	SHORT $LN4@USENTENCEG
$LN2@USENTENCEG:
	mov	eax, DWORD PTR _i$[ebp]
	add	eax, 1
	mov	DWORD PTR _i$[ebp], eax
$LN4@USENTENCEG:
	mov	eax, DWORD PTR _i$[ebp]
	cmp	eax, DWORD PTR _count$[ebp]
	jge	SHORT $LN3@USENTENCEG

; 1154 : 		plru[i] = (unsigned char) i;

	mov	eax, DWORD PTR _plru$[ebp]
	add	eax, DWORD PTR _i$[ebp]
	mov	cl, BYTE PTR _i$[ebp]
	mov	BYTE PTR [eax], cl
	jmp	SHORT $LN2@USENTENCEG
$LN3@USENTENCEG:

; 1155 : 
; 1156 : 	// randomize array
; 1157 : 	for (i = 0; i < (count * 4); i++)

	mov	DWORD PTR _i$[ebp], 0
	jmp	SHORT $LN7@USENTENCEG
$LN5@USENTENCEG:
	mov	eax, DWORD PTR _i$[ebp]
	add	eax, 1
	mov	DWORD PTR _i$[ebp], eax
$LN7@USENTENCEG:
	mov	eax, DWORD PTR _count$[ebp]
	shl	eax, 2
	cmp	DWORD PTR _i$[ebp], eax
	jge	SHORT $LN1@USENTENCEG

; 1158 : 	{
; 1159 : 		j = RANDOM_LONG(0,count-1);

	mov	eax, DWORD PTR _count$[ebp]
	sub	eax, 1
	push	eax
	push	0
	call	DWORD PTR ?g_engfuncs@@3Uenginefuncs_s@@A+360
	add	esp, 8
	mov	DWORD PTR _j$[ebp], eax

; 1160 : 		k = RANDOM_LONG(0,count-1);

	mov	eax, DWORD PTR _count$[ebp]
	sub	eax, 1
	push	eax
	push	0
	call	DWORD PTR ?g_engfuncs@@3Uenginefuncs_s@@A+360
	add	esp, 8
	mov	DWORD PTR _k$[ebp], eax

; 1161 : 		temp = plru[j];

	mov	eax, DWORD PTR _plru$[ebp]
	add	eax, DWORD PTR _j$[ebp]
	mov	cl, BYTE PTR [eax]
	mov	BYTE PTR _temp$[ebp], cl

; 1162 : 		plru[j] = plru[k];

	mov	eax, DWORD PTR _plru$[ebp]
	add	eax, DWORD PTR _j$[ebp]
	mov	ecx, DWORD PTR _plru$[ebp]
	add	ecx, DWORD PTR _k$[ebp]
	mov	dl, BYTE PTR [ecx]
	mov	BYTE PTR [eax], dl

; 1163 : 		plru[k] = temp;

	mov	eax, DWORD PTR _plru$[ebp]
	add	eax, DWORD PTR _k$[ebp]
	mov	cl, BYTE PTR _temp$[ebp]
	mov	BYTE PTR [eax], cl

; 1164 : 	}

	jmp	SHORT $LN5@USENTENCEG
$LN1@USENTENCEG:

; 1165 : }

	pop	edi
	pop	esi
	pop	ebx
	mov	esp, ebp
	pop	ebp
	ret	0
?USENTENCEG_InitLRU@@YAXPAEH@Z ENDP			; USENTENCEG_InitLRU
_TEXT	ENDS
; Function compile flags: /Odtp /ZI
; File d:\!diffusion 2020\source code 2022\client-server\server\sound.cpp
;	COMDAT ?USENTENCEG_PickSequential@@YAHHPADHH@Z
_TEXT	SEGMENT
_sznum$ = -20						; size = 8
_count$ = -9						; size = 1
_szgroupname$ = -8					; size = 4
__$ArrayPad$ = -4					; size = 4
_isentenceg$ = 8					; size = 4
_szfound$ = 12						; size = 4
_ipick$ = 16						; size = 4
_freset$ = 20						; size = 4
?USENTENCEG_PickSequential@@YAHHPADHH@Z PROC		; USENTENCEG_PickSequential, COMDAT

; 1174 : {

	push	ebp
	mov	ebp, esp
	sub	esp, 84					; 00000054H
	mov	eax, DWORD PTR ___security_cookie
	xor	eax, ebp
	mov	DWORD PTR __$ArrayPad$[ebp], eax
	push	ebx
	push	esi
	push	edi

; 1175 : 	char *szgroupname;
; 1176 : 	unsigned char count;
; 1177 : 	char sznum[8];
; 1178 : 	
; 1179 : 	if (!fSentencesInit)

	cmp	DWORD PTR ?fSentencesInit@@3HA, 0	; fSentencesInit
	jne	SHORT $LN2@USENTENCEG

; 1180 : 		return -1;

	or	eax, -1
	jmp	$LN1@USENTENCEG
$LN2@USENTENCEG:

; 1181 : 
; 1182 : 	if (isentenceg < 0)

	cmp	DWORD PTR _isentenceg$[ebp], 0
	jge	SHORT $LN3@USENTENCEG

; 1183 : 		return -1;

	or	eax, -1
	jmp	$LN1@USENTENCEG
$LN3@USENTENCEG:

; 1184 : 
; 1185 : 	szgroupname = rgsentenceg[isentenceg].szgroupname;

	imul	eax, DWORD PTR _isentenceg$[ebp], 100
	add	eax, OFFSET ?rgsentenceg@@3PAUsentenceg@@A ; rgsentenceg
	mov	DWORD PTR _szgroupname$[ebp], eax

; 1186 : 	count = rgsentenceg[isentenceg].count;

	imul	eax, DWORD PTR _isentenceg$[ebp], 100
	mov	cl, BYTE PTR ?rgsentenceg@@3PAUsentenceg@@A[eax+32]
	mov	BYTE PTR _count$[ebp], cl

; 1187 : 	
; 1188 : 	if (count == 0)

	movzx	eax, BYTE PTR _count$[ebp]
	test	eax, eax
	jne	SHORT $LN4@USENTENCEG

; 1189 : 		return -1;

	or	eax, -1
	jmp	SHORT $LN1@USENTENCEG
$LN4@USENTENCEG:

; 1190 : 
; 1191 : 	if (ipick >= count)

	movzx	eax, BYTE PTR _count$[ebp]
	cmp	DWORD PTR _ipick$[ebp], eax
	jl	SHORT $LN5@USENTENCEG

; 1192 : 		ipick = count-1;

	movzx	eax, BYTE PTR _count$[ebp]
	sub	eax, 1
	mov	DWORD PTR _ipick$[ebp], eax
$LN5@USENTENCEG:

; 1193 : 
; 1194 : 	strcpy(szfound, "!");

	push	OFFSET ??_C@_01DCLJPIOD@?$CB?$AA@
	mov	eax, DWORD PTR _szfound$[ebp]
	push	eax
	call	_strcpy
	add	esp, 8

; 1195 : 	strcat(szfound, szgroupname);

	mov	eax, DWORD PTR _szgroupname$[ebp]
	push	eax
	mov	ecx, DWORD PTR _szfound$[ebp]
	push	ecx
	call	_strcat
	add	esp, 8

; 1196 : 	sprintf(sznum, "%d", ipick);

	mov	eax, DWORD PTR _ipick$[ebp]
	push	eax
	push	OFFSET ??_C@_02DPKJAMEF@?$CFd?$AA@
	lea	ecx, DWORD PTR _sznum$[ebp]
	push	ecx
	call	_sprintf
	add	esp, 12					; 0000000cH

; 1197 : 	strcat(szfound, sznum);

	lea	eax, DWORD PTR _sznum$[ebp]
	push	eax
	mov	ecx, DWORD PTR _szfound$[ebp]
	push	ecx
	call	_strcat
	add	esp, 8

; 1198 : 	
; 1199 : 	if (ipick >= count)

	movzx	eax, BYTE PTR _count$[ebp]
	cmp	DWORD PTR _ipick$[ebp], eax
	jl	SHORT $LN6@USENTENCEG

; 1200 : 	{
; 1201 : 		if (freset)

	cmp	DWORD PTR _freset$[ebp], 0
	je	SHORT $LN7@USENTENCEG

; 1202 : 			// reset at end of list
; 1203 : 			return 0;

	xor	eax, eax
	jmp	SHORT $LN1@USENTENCEG

; 1204 : 		else

	jmp	SHORT $LN6@USENTENCEG
$LN7@USENTENCEG:

; 1205 : 			return count;

	movzx	eax, BYTE PTR _count$[ebp]
	jmp	SHORT $LN1@USENTENCEG
$LN6@USENTENCEG:

; 1206 : 	}
; 1207 : 
; 1208 : 	return ipick + 1;

	mov	eax, DWORD PTR _ipick$[ebp]
	add	eax, 1
$LN1@USENTENCEG:

; 1209 : }

	pop	edi
	pop	esi
	pop	ebx
	mov	ecx, DWORD PTR __$ArrayPad$[ebp]
	xor	ecx, ebp
	call	@__security_check_cookie@4
	mov	esp, ebp
	pop	ebp
	ret	0
?USENTENCEG_PickSequential@@YAHHPADHH@Z ENDP		; USENTENCEG_PickSequential
_TEXT	ENDS
; Function compile flags: /Odtp /ZI
; File d:\!diffusion 2020\source code 2022\client-server\server\sound.cpp
;	COMDAT ?USENTENCEG_Pick@@YAHHPAD@Z
_TEXT	SEGMENT
_ffound$ = -32						; size = 4
_ipick$ = -25						; size = 1
_sznum$ = -24						; size = 8
_count$ = -14						; size = 1
_i$ = -13						; size = 1
_plru$ = -12						; size = 4
_szgroupname$ = -8					; size = 4
__$ArrayPad$ = -4					; size = 4
_isentenceg$ = 8					; size = 4
_szfound$ = 12						; size = 4
?USENTENCEG_Pick@@YAHHPAD@Z PROC			; USENTENCEG_Pick, COMDAT

; 1222 : {

	push	ebp
	mov	ebp, esp
	sub	esp, 96					; 00000060H
	mov	eax, DWORD PTR ___security_cookie
	xor	eax, ebp
	mov	DWORD PTR __$ArrayPad$[ebp], eax
	push	ebx
	push	esi
	push	edi

; 1223 : 	char *szgroupname;
; 1224 : 	unsigned char *plru;
; 1225 : 	unsigned char i;
; 1226 : 	unsigned char count;
; 1227 : 	char sznum[8];
; 1228 : 	unsigned char ipick;
; 1229 : 	int ffound = FALSE;

	mov	DWORD PTR _ffound$[ebp], 0

; 1230 : 	
; 1231 : 	if (!fSentencesInit)

	cmp	DWORD PTR ?fSentencesInit@@3HA, 0	; fSentencesInit
	jne	SHORT $LN7@USENTENCEG

; 1232 : 		return -1;

	or	eax, -1
	jmp	$LN1@USENTENCEG
$LN7@USENTENCEG:

; 1233 : 
; 1234 : 	if (isentenceg < 0)

	cmp	DWORD PTR _isentenceg$[ebp], 0
	jge	SHORT $LN8@USENTENCEG

; 1235 : 		return -1;

	or	eax, -1
	jmp	$LN1@USENTENCEG
$LN8@USENTENCEG:

; 1236 : 
; 1237 : 	szgroupname = rgsentenceg[isentenceg].szgroupname;

	imul	eax, DWORD PTR _isentenceg$[ebp], 100
	add	eax, OFFSET ?rgsentenceg@@3PAUsentenceg@@A ; rgsentenceg
	mov	DWORD PTR _szgroupname$[ebp], eax

; 1238 : 	count = rgsentenceg[isentenceg].count;

	imul	eax, DWORD PTR _isentenceg$[ebp], 100
	mov	cl, BYTE PTR ?rgsentenceg@@3PAUsentenceg@@A[eax+32]
	mov	BYTE PTR _count$[ebp], cl

; 1239 : 	plru = rgsentenceg[isentenceg].rgblru;

	imul	eax, DWORD PTR _isentenceg$[ebp], 100
	add	eax, OFFSET ?rgsentenceg@@3PAUsentenceg@@A+36
	mov	DWORD PTR _plru$[ebp], eax
$LN2@USENTENCEG:

; 1240 : 
; 1241 : 	while (!ffound)

	cmp	DWORD PTR _ffound$[ebp], 0
	jne	$LN3@USENTENCEG

; 1242 : 	{
; 1243 : 		for (i = 0; i < count; i++)

	mov	BYTE PTR _i$[ebp], 0
	jmp	SHORT $LN6@USENTENCEG
$LN4@USENTENCEG:
	mov	al, BYTE PTR _i$[ebp]
	add	al, 1
	mov	BYTE PTR _i$[ebp], al
$LN6@USENTENCEG:
	movzx	eax, BYTE PTR _i$[ebp]
	movzx	ecx, BYTE PTR _count$[ebp]
	cmp	eax, ecx
	jge	SHORT $LN5@USENTENCEG

; 1244 : 			if (plru[i] != 0xFF)

	movzx	eax, BYTE PTR _i$[ebp]
	mov	ecx, DWORD PTR _plru$[ebp]
	movzx	edx, BYTE PTR [ecx+eax]
	cmp	edx, 255				; 000000ffH
	je	SHORT $LN9@USENTENCEG

; 1245 : 			{
; 1246 : 				ipick = plru[i];

	movzx	eax, BYTE PTR _i$[ebp]
	mov	ecx, DWORD PTR _plru$[ebp]
	mov	dl, BYTE PTR [ecx+eax]
	mov	BYTE PTR _ipick$[ebp], dl

; 1247 : 				plru[i] = 0xFF;

	movzx	eax, BYTE PTR _i$[ebp]
	mov	ecx, DWORD PTR _plru$[ebp]
	mov	BYTE PTR [ecx+eax], 255			; 000000ffH

; 1248 : 				ffound = TRUE;

	mov	DWORD PTR _ffound$[ebp], 1

; 1249 : 				break;

	jmp	SHORT $LN5@USENTENCEG
$LN9@USENTENCEG:

; 1250 : 			}

	jmp	SHORT $LN4@USENTENCEG
$LN5@USENTENCEG:

; 1251 : 
; 1252 : 		if (!ffound)

	cmp	DWORD PTR _ffound$[ebp], 0
	jne	SHORT $LN10@USENTENCEG

; 1253 : 			USENTENCEG_InitLRU(plru, count);

	movzx	eax, BYTE PTR _count$[ebp]
	push	eax
	mov	ecx, DWORD PTR _plru$[ebp]
	push	ecx
	call	?USENTENCEG_InitLRU@@YAXPAEH@Z		; USENTENCEG_InitLRU
	add	esp, 8

; 1254 : 		else

	jmp	SHORT $LN11@USENTENCEG
$LN10@USENTENCEG:

; 1255 : 		{
; 1256 : 			strcpy(szfound, "!");

	push	OFFSET ??_C@_01DCLJPIOD@?$CB?$AA@
	mov	eax, DWORD PTR _szfound$[ebp]
	push	eax
	call	_strcpy
	add	esp, 8

; 1257 : 			strcat(szfound, szgroupname);

	mov	eax, DWORD PTR _szgroupname$[ebp]
	push	eax
	mov	ecx, DWORD PTR _szfound$[ebp]
	push	ecx
	call	_strcat
	add	esp, 8

; 1258 : 			sprintf(sznum, "%d", ipick);

	movzx	eax, BYTE PTR _ipick$[ebp]
	push	eax
	push	OFFSET ??_C@_02DPKJAMEF@?$CFd?$AA@
	lea	ecx, DWORD PTR _sznum$[ebp]
	push	ecx
	call	_sprintf
	add	esp, 12					; 0000000cH

; 1259 : 			strcat(szfound, sznum);

	lea	eax, DWORD PTR _sznum$[ebp]
	push	eax
	mov	ecx, DWORD PTR _szfound$[ebp]
	push	ecx
	call	_strcat
	add	esp, 8

; 1260 : 			return ipick;

	movzx	eax, BYTE PTR _ipick$[ebp]
	jmp	SHORT $LN1@USENTENCEG
$LN11@USENTENCEG:

; 1261 : 		}
; 1262 : 	}

	jmp	$LN2@USENTENCEG
$LN3@USENTENCEG:

; 1263 : 	return -1;

	or	eax, -1
$LN1@USENTENCEG:

; 1264 : }

	pop	edi
	pop	esi
	pop	ebx
	mov	ecx, DWORD PTR __$ArrayPad$[ebp]
	xor	ecx, ebp
	call	@__security_check_cookie@4
	mov	esp, ebp
	pop	ebp
	ret	0
?USENTENCEG_Pick@@YAHHPAD@Z ENDP			; USENTENCEG_Pick
_TEXT	ENDS
; Function compile flags: /Odtp /ZI
; File d:\!diffusion 2020\source code 2022\client-server\server\util.h
;	COMDAT ?FClassnameIs@@YAHPAUentvars_s@@PBD@Z
_TEXT	SEGMENT
_pev$ = 8						; size = 4
_szClassname$ = 12					; size = 4
?FClassnameIs@@YAHPAUentvars_s@@PBD@Z PROC		; FClassnameIs, COMDAT

; 304  : {

	push	ebp
	mov	ebp, esp
	sub	esp, 64					; 00000040H
	push	ebx
	push	esi
	push	edi

; 305  : 	if( FNullEnt( pev )) return FALSE;

	mov	eax, DWORD PTR _pev$[ebp]
	push	eax
	call	?FNullEnt@@YAHPAUentvars_s@@@Z		; FNullEnt
	add	esp, 4
	test	eax, eax
	je	SHORT $LN2@FClassname
	xor	eax, eax
	jmp	SHORT $LN1@FClassname
$LN2@FClassname:

; 306  : 	return FStrEq( STRING( pev->classname ), szClassname );

	mov	eax, DWORD PTR _szClassname$[ebp]
	push	eax
	mov	ecx, DWORD PTR _pev$[ebp]
	mov	edx, DWORD PTR [ecx]
	push	edx
	call	DWORD PTR ?g_engfuncs@@3Uenginefuncs_s@@A+264
	add	esp, 4
	push	eax
	call	?FStrEq@@YAHPBD0@Z			; FStrEq
	add	esp, 8
$LN1@FClassname:

; 307  : }

	pop	edi
	pop	esi
	pop	ebx
	mov	esp, ebp
	pop	ebp
	ret	0
?FClassnameIs@@YAHPAUentvars_s@@PBD@Z ENDP		; FClassnameIs
_TEXT	ENDS
; Function compile flags: /Odtp /ZI
; File d:\!diffusion 2020\source code 2022\client-server\server\util.h
;	COMDAT ?FStrEq@@YAHPBD0@Z
_TEXT	SEGMENT
tv69 = -68						; size = 4
_sz1$ = 8						; size = 4
_sz2$ = 12						; size = 4
?FStrEq@@YAHPBD0@Z PROC					; FStrEq, COMDAT

; 287  : {

	push	ebp
	mov	ebp, esp
	sub	esp, 68					; 00000044H
	push	ebx
	push	esi
	push	edi

; 288  : 	return (Q_strcmp( sz1, sz2 ) == 0);

	push	99999					; 0001869fH
	mov	eax, DWORD PTR _sz2$[ebp]
	push	eax
	mov	ecx, DWORD PTR _sz1$[ebp]
	push	ecx
	call	?Q_strncmp@@YAHPBD0H@Z			; Q_strncmp
	add	esp, 12					; 0000000cH
	test	eax, eax
	jne	SHORT $LN3@FStrEq
	mov	DWORD PTR tv69[ebp], 1
	jmp	SHORT $LN4@FStrEq
$LN3@FStrEq:
	mov	DWORD PTR tv69[ebp], 0
$LN4@FStrEq:
	mov	eax, DWORD PTR tv69[ebp]

; 289  : }

	pop	edi
	pop	esi
	pop	ebx
	mov	esp, ebp
	pop	ebp
	ret	0
?FStrEq@@YAHPBD0@Z ENDP					; FStrEq
_TEXT	ENDS
; Function compile flags: /Odtp /ZI
; File d:\!diffusion 2020\source code 2022\client-server\server\util.h
;	COMDAT ?FStringNull@@YAHH@Z
_TEXT	SEGMENT
tv65 = -68						; size = 4
_iString$ = 8						; size = 4
?FStringNull@@YAHH@Z PROC				; FStringNull, COMDAT

; 202  : inline BOOL FStringNull(int iString)			{ return iString == iStringNull; }

	push	ebp
	mov	ebp, esp
	sub	esp, 68					; 00000044H
	push	ebx
	push	esi
	push	edi
	cmp	DWORD PTR _iString$[ebp], 0
	jne	SHORT $LN3@FStringNul
	mov	DWORD PTR tv65[ebp], 1
	jmp	SHORT $LN4@FStringNul
$LN3@FStringNul:
	mov	DWORD PTR tv65[ebp], 0
$LN4@FStringNul:
	mov	eax, DWORD PTR tv65[ebp]
	pop	edi
	pop	esi
	pop	ebx
	mov	esp, ebp
	pop	ebp
	ret	0
?FStringNull@@YAHH@Z ENDP				; FStringNull
_TEXT	ENDS
; Function compile flags: /Odtp /ZI
; File d:\!diffusion 2020\source code 2022\client-server\server\util.h
;	COMDAT ?FNullEnt@@YAHPAUentvars_s@@@Z
_TEXT	SEGMENT
tv70 = -68						; size = 4
_pev$ = 8						; size = 4
?FNullEnt@@YAHPAUentvars_s@@@Z PROC			; FNullEnt, COMDAT

; 197  : inline BOOL FNullEnt(entvars_t* pev)				{ return pev == NULL || FNullEnt(OFFSET(pev)); }

	push	ebp
	mov	ebp, esp
	sub	esp, 68					; 00000044H
	push	ebx
	push	esi
	push	edi
	cmp	DWORD PTR _pev$[ebp], 0
	je	SHORT $LN3@FNullEnt
	mov	eax, DWORD PTR _pev$[ebp]
	push	eax
	call	?OFFSET@@YAHPAUentvars_s@@@Z		; OFFSET
	add	esp, 4
	push	eax
	call	?FNullEnt@@YAHH@Z			; FNullEnt
	add	esp, 4
	test	eax, eax
	jne	SHORT $LN3@FNullEnt
	mov	DWORD PTR tv70[ebp], 0
	jmp	SHORT $LN4@FNullEnt
$LN3@FNullEnt:
	mov	DWORD PTR tv70[ebp], 1
$LN4@FNullEnt:
	mov	eax, DWORD PTR tv70[ebp]
	pop	edi
	pop	esi
	pop	ebx
	mov	esp, ebp
	pop	ebp
	ret	0
?FNullEnt@@YAHPAUentvars_s@@@Z ENDP			; FNullEnt
_TEXT	ENDS
; Function compile flags: /Odtp /ZI
; File d:\!diffusion 2020\source code 2022\client-server\server\util.h
;	COMDAT ?FNullEnt@@YAHPBUedict_s@@@Z
_TEXT	SEGMENT
tv70 = -68						; size = 4
_pent$ = 8						; size = 4
?FNullEnt@@YAHPBUedict_s@@@Z PROC			; FNullEnt, COMDAT

; 196  : inline BOOL FNullEnt(const edict_t* pent)	{ return pent == NULL || FNullEnt(OFFSET(pent)); }

	push	ebp
	mov	ebp, esp
	sub	esp, 68					; 00000044H
	push	ebx
	push	esi
	push	edi
	cmp	DWORD PTR _pent$[ebp], 0
	je	SHORT $LN3@FNullEnt
	mov	eax, DWORD PTR _pent$[ebp]
	push	eax
	call	?OFFSET@@YAHPBUedict_s@@@Z		; OFFSET
	add	esp, 4
	push	eax
	call	?FNullEnt@@YAHH@Z			; FNullEnt
	add	esp, 4
	test	eax, eax
	jne	SHORT $LN3@FNullEnt
	mov	DWORD PTR tv70[ebp], 0
	jmp	SHORT $LN4@FNullEnt
$LN3@FNullEnt:
	mov	DWORD PTR tv70[ebp], 1
$LN4@FNullEnt:
	mov	eax, DWORD PTR tv70[ebp]
	pop	edi
	pop	esi
	pop	ebx
	mov	esp, ebp
	pop	ebp
	ret	0
?FNullEnt@@YAHPBUedict_s@@@Z ENDP			; FNullEnt
_TEXT	ENDS
; Function compile flags: /Odtp /ZI
; File d:\!diffusion 2020\source code 2022\client-server\server\util.h
;	COMDAT ?FNullEnt@@YAHH@Z
_TEXT	SEGMENT
tv65 = -68						; size = 4
_eoffset$ = 8						; size = 4
?FNullEnt@@YAHH@Z PROC					; FNullEnt, COMDAT

; 195  : inline BOOL FNullEnt(EOFFSET eoffset)			{ return eoffset == 0; }

	push	ebp
	mov	ebp, esp
	sub	esp, 68					; 00000044H
	push	ebx
	push	esi
	push	edi
	cmp	DWORD PTR _eoffset$[ebp], 0
	jne	SHORT $LN3@FNullEnt
	mov	DWORD PTR tv65[ebp], 1
	jmp	SHORT $LN4@FNullEnt
$LN3@FNullEnt:
	mov	DWORD PTR tv65[ebp], 0
$LN4@FNullEnt:
	mov	eax, DWORD PTR tv65[ebp]
	pop	edi
	pop	esi
	pop	ebx
	mov	esp, ebp
	pop	ebp
	ret	0
?FNullEnt@@YAHH@Z ENDP					; FNullEnt
_TEXT	ENDS
; Function compile flags: /Odtp /ZI
; File d:\!diffusion 2020\source code 2022\client-server\server\util.h
;	COMDAT ?VARS@@YAPAUentvars_s@@PAUedict_s@@@Z
_TEXT	SEGMENT
_pent$ = 8						; size = 4
?VARS@@YAPAUentvars_s@@PAUedict_s@@@Z PROC		; VARS, COMDAT

; 178  : { 

	push	ebp
	mov	ebp, esp
	sub	esp, 64					; 00000040H
	push	ebx
	push	esi
	push	edi

; 179  : 	if ( !pent )

	cmp	DWORD PTR _pent$[ebp], 0
	jne	SHORT $LN2@VARS

; 180  : 		return NULL;

	xor	eax, eax
	jmp	SHORT $LN1@VARS
$LN2@VARS:

; 181  : 
; 182  : 	return &pent->v; 

	mov	eax, DWORD PTR _pent$[ebp]
	add	eax, 128				; 00000080H
$LN1@VARS:

; 183  : }

	pop	edi
	pop	esi
	pop	ebx
	mov	esp, ebp
	pop	ebp
	ret	0
?VARS@@YAPAUentvars_s@@PAUedict_s@@@Z ENDP		; VARS
_TEXT	ENDS
; Function compile flags: /Odtp /ZI
; File d:\!diffusion 2020\source code 2022\client-server\server\util.h
;	COMDAT ?OFFSET@@YAHPAUentvars_s@@@Z
_TEXT	SEGMENT
_pev$ = 8						; size = 4
?OFFSET@@YAHPAUentvars_s@@@Z PROC			; OFFSET, COMDAT

; 168  : { 

	push	ebp
	mov	ebp, esp
	sub	esp, 64					; 00000040H
	push	ebx
	push	esi
	push	edi

; 169  : #if _DEBUG
; 170  : 	if ( !pev )

	cmp	DWORD PTR _pev$[ebp], 0
	jne	SHORT $LN2@OFFSET

; 171  : 		ALERT( at_error, "Bad pev in OFFSET()\n" );

	push	OFFSET ??_C@_0BF@DOONGEFO@Bad?5pev?5in?5OFFSET?$CI?$CJ?6?$AA@
	push	4
	call	DWORD PTR ?g_engfuncs@@3Uenginefuncs_s@@A+244
	add	esp, 8
$LN2@OFFSET:

; 172  : #endif
; 173  : 	return OFFSET(ENT(pev)); 

	mov	eax, DWORD PTR _pev$[ebp]
	push	eax
	call	?ENT@@YAPAUedict_s@@PBUentvars_s@@@Z	; ENT
	add	esp, 4
	push	eax
	call	?OFFSET@@YAHPBUedict_s@@@Z		; OFFSET
	add	esp, 4

; 174  : }

	pop	edi
	pop	esi
	pop	ebx
	mov	esp, ebp
	pop	ebp
	ret	0
?OFFSET@@YAHPAUentvars_s@@@Z ENDP			; OFFSET
_TEXT	ENDS
; Function compile flags: /Odtp /ZI
; File d:\!diffusion 2020\source code 2022\client-server\server\util.h
;	COMDAT ?OFFSET@@YAHPBUedict_s@@@Z
_TEXT	SEGMENT
_pent$ = 8						; size = 4
?OFFSET@@YAHPBUedict_s@@@Z PROC				; OFFSET, COMDAT

; 160  : { 

	push	ebp
	mov	ebp, esp
	sub	esp, 64					; 00000040H
	push	ebx
	push	esi
	push	edi

; 161  : #if _DEBUG
; 162  : 	if ( !pent )

	cmp	DWORD PTR _pent$[ebp], 0
	jne	SHORT $LN2@OFFSET

; 163  : 		ALERT( at_error, "Bad ent in OFFSET()\n" );

	push	OFFSET ??_C@_0BF@CPEPILID@Bad?5ent?5in?5OFFSET?$CI?$CJ?6?$AA@
	push	4
	call	DWORD PTR ?g_engfuncs@@3Uenginefuncs_s@@A+244
	add	esp, 8
$LN2@OFFSET:

; 164  : #endif
; 165  : 	return (*g_engfuncs.pfnEntOffsetOfPEntity)(pent); 

	mov	eax, DWORD PTR _pent$[ebp]
	push	eax
	call	DWORD PTR ?g_engfuncs@@3Uenginefuncs_s@@A+280
	add	esp, 4

; 166  : }

	pop	edi
	pop	esi
	pop	ebx
	mov	esp, ebp
	pop	ebp
	ret	0
?OFFSET@@YAHPBUedict_s@@@Z ENDP				; OFFSET
_TEXT	ENDS
; Function compile flags: /Odtp /ZI
; File d:\!diffusion 2020\source code 2022\client-server\server\util.h
;	COMDAT ?ENT@@YAPAUedict_s@@H@Z
_TEXT	SEGMENT
_eoffset$ = 8						; size = 4
?ENT@@YAPAUedict_s@@H@Z PROC				; ENT, COMDAT

; 157  : inline edict_t *ENT(EOFFSET eoffset)			{ return (*g_engfuncs.pfnPEntityOfEntOffset)(eoffset); }

	push	ebp
	mov	ebp, esp
	sub	esp, 64					; 00000040H
	push	ebx
	push	esi
	push	edi
	mov	eax, DWORD PTR _eoffset$[ebp]
	push	eax
	call	DWORD PTR ?g_engfuncs@@3Uenginefuncs_s@@A+276
	add	esp, 4
	pop	edi
	pop	esi
	pop	ebx
	mov	esp, ebp
	pop	ebp
	ret	0
?ENT@@YAPAUedict_s@@H@Z ENDP				; ENT
_TEXT	ENDS
; Function compile flags: /Odtp /ZI
; File d:\!diffusion 2020\source code 2022\client-server\server\util.h
;	COMDAT ?ENT@@YAPAUedict_s@@PBUentvars_s@@@Z
_TEXT	SEGMENT
_pev$ = 8						; size = 4
?ENT@@YAPAUedict_s@@PBUentvars_s@@@Z PROC		; ENT, COMDAT

; 151  : 	inline edict_t *ENT(const entvars_t *pev)	{ return DBG_EntOfVars(pev); }

	push	ebp
	mov	ebp, esp
	sub	esp, 64					; 00000040H
	push	ebx
	push	esi
	push	edi
	mov	eax, DWORD PTR _pev$[ebp]
	push	eax
	call	?DBG_EntOfVars@@YAPAUedict_s@@PBUentvars_s@@@Z ; DBG_EntOfVars
	add	esp, 4
	pop	edi
	pop	esi
	pop	ebx
	mov	esp, ebp
	pop	ebp
	ret	0
?ENT@@YAPAUedict_s@@PBUentvars_s@@@Z ENDP		; ENT
_TEXT	ENDS
; Function compile flags: /Odtp /ZI
;	COMDAT ??0IEntityFactory@@QAE@XZ
_TEXT	SEGMENT
_this$ = -4						; size = 4
??0IEntityFactory@@QAE@XZ PROC				; IEntityFactory::IEntityFactory, COMDAT
; _this$ = ecx
	push	ebp
	mov	ebp, esp
	sub	esp, 68					; 00000044H
	push	ebx
	push	esi
	push	edi
	mov	DWORD PTR _this$[ebp], ecx
	mov	eax, DWORD PTR _this$[ebp]
	mov	DWORD PTR [eax], OFFSET ??_7IEntityFactory@@6B@
	mov	eax, DWORD PTR _this$[ebp]
	pop	edi
	pop	esi
	pop	ebx
	mov	esp, ebp
	pop	ebp
	ret	0
??0IEntityFactory@@QAE@XZ ENDP				; IEntityFactory::IEntityFactory
_TEXT	ENDS
; Function compile flags: /Odtp /ZI
; File d:\!diffusion 2020\source code 2022\client-server\game_shared\utlarray.h
;	COMDAT ?ResetDbgInfo@?$CUtlArray@PADV?$CUtlMemory@PADH@@@@IAEXXZ
_TEXT	SEGMENT
_this$ = -4						; size = 4
?ResetDbgInfo@?$CUtlArray@PADV?$CUtlMemory@PADH@@@@IAEXXZ PROC ; CUtlArray<char *,CUtlMemory<char *,int> >::ResetDbgInfo, COMDAT
; _this$ = ecx

; 160  : 	{

	push	ebp
	mov	ebp, esp
	sub	esp, 68					; 00000044H
	push	ebx
	push	esi
	push	edi
	mov	DWORD PTR _this$[ebp], ecx

; 161  : 		m_pElements = Base();

	mov	ecx, DWORD PTR _this$[ebp]
	call	?Base@?$CUtlArray@PADV?$CUtlMemory@PADH@@@@QAEPAPADXZ ; CUtlArray<char *,CUtlMemory<char *,int> >::Base
	mov	ecx, DWORD PTR _this$[ebp]
	mov	DWORD PTR [ecx+16], eax

; 162  : 	}

	pop	edi
	pop	esi
	pop	ebx
	mov	esp, ebp
	pop	ebp
	ret	0
?ResetDbgInfo@?$CUtlArray@PADV?$CUtlMemory@PADH@@@@IAEXXZ ENDP ; CUtlArray<char *,CUtlMemory<char *,int> >::ResetDbgInfo
_TEXT	ENDS
; Function compile flags: /Odtp /ZI
; File d:\!diffusion 2020\source code 2022\client-server\game_shared\utlmemory.h
;	COMDAT ?ValidateGrowSize@?$CUtlMemory@PADH@@IAEXXZ
_TEXT	SEGMENT
_this$ = -4						; size = 4
?ValidateGrowSize@?$CUtlMemory@PADH@@IAEXXZ PROC	; CUtlMemory<char *,int>::ValidateGrowSize, COMDAT
; _this$ = ecx

; 148  : 	{

	push	ebp
	mov	ebp, esp
	sub	esp, 68					; 00000044H
	push	ebx
	push	esi
	push	edi
	mov	DWORD PTR _this$[ebp], ecx

; 149  : #ifdef _X360
; 150  : 		if ( m_nGrowSize && m_nGrowSize != EXTERNAL_BUFFER_MARKER )
; 151  : 		{
; 152  : 			// Max grow size at 128 bytes on XBOX
; 153  : 			const int MAX_GROW = 128;
; 154  : 			if ( m_nGrowSize * sizeof(T) > MAX_GROW )
; 155  : 			{
; 156  : 				m_nGrowSize = max( 1, MAX_GROW / sizeof(T) );
; 157  : 			}
; 158  : 		}
; 159  : #endif
; 160  : 	}

	pop	edi
	pop	esi
	pop	ebx
	mov	esp, ebp
	pop	ebp
	ret	0
?ValidateGrowSize@?$CUtlMemory@PADH@@IAEXXZ ENDP	; CUtlMemory<char *,int>::ValidateGrowSize
_TEXT	ENDS
; Function compile flags: /Odtp /ZI
; File d:\!diffusion 2020\source code 2022\client-server\game_shared\utlmemory.h
;	COMDAT ?IsReadOnly@?$CUtlMemory@PADH@@QBE_NXZ
_TEXT	SEGMENT
tv66 = -72						; size = 4
_this$ = -4						; size = 4
?IsReadOnly@?$CUtlMemory@PADH@@QBE_NXZ PROC		; CUtlMemory<char *,int>::IsReadOnly, COMDAT
; _this$ = ecx

; 467  : {

	push	ebp
	mov	ebp, esp
	sub	esp, 72					; 00000048H
	push	ebx
	push	esi
	push	edi
	mov	DWORD PTR _this$[ebp], ecx

; 468  : 	return (m_nGrowSize == EXTERNAL_CONST_BUFFER_MARKER);

	mov	eax, DWORD PTR _this$[ebp]
	cmp	DWORD PTR [eax+8], -2			; fffffffeH
	jne	SHORT $LN3@IsReadOnly
	mov	DWORD PTR tv66[ebp], 1
	jmp	SHORT $LN4@IsReadOnly
$LN3@IsReadOnly:
	mov	DWORD PTR tv66[ebp], 0
$LN4@IsReadOnly:
	mov	al, BYTE PTR tv66[ebp]

; 469  : }

	pop	edi
	pop	esi
	pop	ebx
	mov	esp, ebp
	pop	ebp
	ret	0
?IsReadOnly@?$CUtlMemory@PADH@@QBE_NXZ ENDP		; CUtlMemory<char *,int>::IsReadOnly
_TEXT	ENDS
; Function compile flags: /Odtp /ZI
; File d:\!diffusion 2020\source code 2022\client-server\game_shared\utlmemory.h
;	COMDAT ?IsExternallyAllocated@?$CUtlMemory@PADH@@QBE_NXZ
_TEXT	SEGMENT
tv66 = -72						; size = 4
_this$ = -4						; size = 4
?IsExternallyAllocated@?$CUtlMemory@PADH@@QBE_NXZ PROC	; CUtlMemory<char *,int>::IsExternallyAllocated, COMDAT
; _this$ = ecx

; 457  : {

	push	ebp
	mov	ebp, esp
	sub	esp, 72					; 00000048H
	push	ebx
	push	esi
	push	edi
	mov	DWORD PTR _this$[ebp], ecx

; 458  : 	return (m_nGrowSize < 0);

	mov	eax, DWORD PTR _this$[ebp]
	cmp	DWORD PTR [eax+8], 0
	jge	SHORT $LN3@IsExternal
	mov	DWORD PTR tv66[ebp], 1
	jmp	SHORT $LN4@IsExternal
$LN3@IsExternal:
	mov	DWORD PTR tv66[ebp], 0
$LN4@IsExternal:
	mov	al, BYTE PTR tv66[ebp]

; 459  : }

	pop	edi
	pop	esi
	pop	ebx
	mov	esp, ebp
	pop	ebp
	ret	0
?IsExternallyAllocated@?$CUtlMemory@PADH@@QBE_NXZ ENDP	; CUtlMemory<char *,int>::IsExternallyAllocated
_TEXT	ENDS
; Function compile flags: /Odtp /ZI
; File d:\!diffusion 2020\source code 2022\client-server\game_shared\utlmemory.h
;	COMDAT ?Purge@?$CUtlMemory@PADH@@QAEXXZ
_TEXT	SEGMENT
_this$ = -4						; size = 4
?Purge@?$CUtlMemory@PADH@@QAEXXZ PROC			; CUtlMemory<char *,int>::Purge, COMDAT
; _this$ = ecx

; 645  : {

	push	ebp
	mov	ebp, esp
	sub	esp, 68					; 00000044H
	push	ebx
	push	esi
	push	edi
	mov	DWORD PTR _this$[ebp], ecx

; 646  : 	if ( !IsExternallyAllocated() )

	mov	ecx, DWORD PTR _this$[ebp]
	call	?IsExternallyAllocated@?$CUtlMemory@PADH@@QBE_NXZ ; CUtlMemory<char *,int>::IsExternallyAllocated
	movzx	eax, al
	test	eax, eax
	jne	SHORT $LN1@Purge

; 647  : 	{
; 648  : 		if (m_pMemory)

	mov	eax, DWORD PTR _this$[ebp]
	cmp	DWORD PTR [eax], 0
	je	SHORT $LN3@Purge

; 649  : 		{
; 650  : 			free( (void*)m_pMemory );

	mov	eax, DWORD PTR _this$[ebp]
	mov	ecx, DWORD PTR [eax]
	push	ecx
	call	_free
	add	esp, 4

; 651  : 			m_pMemory = 0;

	mov	eax, DWORD PTR _this$[ebp]
	mov	DWORD PTR [eax], 0
$LN3@Purge:

; 652  : 		}
; 653  : 		m_nAllocationCount = 0;

	mov	eax, DWORD PTR _this$[ebp]
	mov	DWORD PTR [eax+4], 0
$LN1@Purge:

; 654  : 	}
; 655  : }

	pop	edi
	pop	esi
	pop	ebx
	mov	esp, ebp
	pop	ebp
	ret	0
?Purge@?$CUtlMemory@PADH@@QAEXXZ ENDP			; CUtlMemory<char *,int>::Purge
_TEXT	ENDS
; Function compile flags: /Odtp /ZI
; File d:\!diffusion 2020\source code 2022\client-server\game_shared\utlmemory.h
;	COMDAT ?Grow@?$CUtlMemory@PADH@@QAEXH@Z
_TEXT	SEGMENT
_nAllocationRequested$ = -8				; size = 4
_this$ = -4						; size = 4
_num$ = 8						; size = 4
?Grow@?$CUtlMemory@PADH@@QAEXH@Z PROC			; CUtlMemory<char *,int>::Grow, COMDAT
; _this$ = ecx

; 560  : {

	push	ebp
	mov	ebp, esp
	sub	esp, 72					; 00000048H
	push	ebx
	push	esi
	push	edi
	mov	DWORD PTR _this$[ebp], ecx

; 561  : 	assert( num > 0 );

	cmp	DWORD PTR _num$[ebp], 0
	jg	SHORT $LN12@Grow
	push	561					; 00000231H
	push	OFFSET ??_C@_1JE@CIIIAKCN@?$AAd?$AA?3?$AA?2?$AA?$CB?$AAd?$AAi?$AAf?$AAf?$AAu?$AAs?$AAi?$AAo?$AAn?$AA?5?$AA2?$AA0?$AA2?$AA0?$AA?2?$AAs?$AAo?$AAu?$AAr?$AAc?$AAe?$AA?5?$AAc?$AAo?$AAd?$AAe?$AA?5?$AA2@
	push	OFFSET ??_C@_1BA@PKCLMAEA@?$AAn?$AAu?$AAm?$AA?5?$AA?$DO?$AA?5?$AA0?$AA?$AA@
	call	__wassert
	add	esp, 12					; 0000000cH
$LN12@Grow:

; 562  : 
; 563  : 	if ( IsExternallyAllocated() )

	mov	ecx, DWORD PTR _this$[ebp]
	call	?IsExternallyAllocated@?$CUtlMemory@PADH@@QBE_NXZ ; CUtlMemory<char *,int>::IsExternallyAllocated
	movzx	eax, al
	test	eax, eax
	je	SHORT $LN4@Grow

; 564  : 	{
; 565  : 		// Can't grow a buffer whose memory was externally allocated 
; 566  : 		assert(0);

	xor	eax, eax
	jne	SHORT $LN13@Grow
	push	566					; 00000236H
	push	OFFSET ??_C@_1JE@CIIIAKCN@?$AAd?$AA?3?$AA?2?$AA?$CB?$AAd?$AAi?$AAf?$AAf?$AAu?$AAs?$AAi?$AAo?$AAn?$AA?5?$AA2?$AA0?$AA2?$AA0?$AA?2?$AAs?$AAo?$AAu?$AAr?$AAc?$AAe?$AA?5?$AAc?$AAo?$AAd?$AAe?$AA?5?$AA2@
	push	OFFSET ??_C@_13COJANIEC@?$AA0?$AA?$AA@
	call	__wassert
	add	esp, 12					; 0000000cH
$LN13@Grow:

; 567  : 		return;

	jmp	$LN1@Grow
$LN4@Grow:

; 568  : 	}
; 569  : 
; 570  : 	// Make sure we have at least numallocated + num allocations.
; 571  : 	// Use the grow rules specified for this memory (in m_nGrowSize)
; 572  : 	int nAllocationRequested = m_nAllocationCount + num;

	mov	eax, DWORD PTR _this$[ebp]
	mov	ecx, DWORD PTR [eax+4]
	add	ecx, DWORD PTR _num$[ebp]
	mov	DWORD PTR _nAllocationRequested$[ebp], ecx

; 573  : 
; 574  : 	m_nAllocationCount = UtlMemory_CalcNewAllocationCount( m_nAllocationCount, m_nGrowSize, nAllocationRequested, sizeof(T) );

	push	4
	mov	eax, DWORD PTR _nAllocationRequested$[ebp]
	push	eax
	mov	ecx, DWORD PTR _this$[ebp]
	mov	edx, DWORD PTR [ecx+8]
	push	edx
	mov	eax, DWORD PTR _this$[ebp]
	mov	ecx, DWORD PTR [eax+4]
	push	ecx
	call	?UtlMemory_CalcNewAllocationCount@@YAHHHHH@Z ; UtlMemory_CalcNewAllocationCount
	add	esp, 16					; 00000010H
	mov	edx, DWORD PTR _this$[ebp]
	mov	DWORD PTR [edx+4], eax

; 575  : 
; 576  : 	// if m_nAllocationRequested wraps index type I, recalculate
; 577  : 	if ( ( int )( I )m_nAllocationCount < nAllocationRequested )

	mov	eax, DWORD PTR _this$[ebp]
	mov	ecx, DWORD PTR [eax+4]
	cmp	ecx, DWORD PTR _nAllocationRequested$[ebp]
	jge	SHORT $LN5@Grow

; 578  : 	{
; 579  : 		if ( ( int )( I )m_nAllocationCount == 0 && ( int )( I )( m_nAllocationCount - 1 ) >= nAllocationRequested )

	mov	eax, DWORD PTR _this$[ebp]
	cmp	DWORD PTR [eax+4], 0
	jne	SHORT $LN6@Grow
	mov	eax, DWORD PTR _this$[ebp]
	mov	ecx, DWORD PTR [eax+4]
	sub	ecx, 1
	cmp	ecx, DWORD PTR _nAllocationRequested$[ebp]
	jl	SHORT $LN6@Grow

; 580  : 		{
; 581  : 			--m_nAllocationCount; // deal w/ the common case of m_nAllocationCount == MAX_USHORT + 1

	mov	eax, DWORD PTR _this$[ebp]
	mov	ecx, DWORD PTR [eax+4]
	sub	ecx, 1
	mov	edx, DWORD PTR _this$[ebp]
	mov	DWORD PTR [edx+4], ecx

; 582  : 		}
; 583  : 		else

	jmp	SHORT $LN5@Grow
$LN6@Grow:

; 584  : 		{
; 585  : 			if ( ( int )( I )nAllocationRequested != nAllocationRequested )

	mov	eax, DWORD PTR _nAllocationRequested$[ebp]
	cmp	eax, DWORD PTR _nAllocationRequested$[ebp]
	je	SHORT $LN2@Grow

; 586  : 			{
; 587  : 				// we've been asked to grow memory to a size s.t. the index type can't address the requested amount of memory
; 588  : 				assert( 0 );

	xor	eax, eax
	jne	SHORT $LN14@Grow
	push	588					; 0000024cH
	push	OFFSET ??_C@_1JE@CIIIAKCN@?$AAd?$AA?3?$AA?2?$AA?$CB?$AAd?$AAi?$AAf?$AAf?$AAu?$AAs?$AAi?$AAo?$AAn?$AA?5?$AA2?$AA0?$AA2?$AA0?$AA?2?$AAs?$AAo?$AAu?$AAr?$AAc?$AAe?$AA?5?$AAc?$AAo?$AAd?$AAe?$AA?5?$AA2@
	push	OFFSET ??_C@_13COJANIEC@?$AA0?$AA?$AA@
	call	__wassert
	add	esp, 12					; 0000000cH
$LN14@Grow:

; 589  : 				return;

	jmp	$LN1@Grow
$LN2@Grow:

; 590  : 			}
; 591  : 			while ( ( int )( I )m_nAllocationCount < nAllocationRequested )

	mov	eax, DWORD PTR _this$[ebp]
	mov	ecx, DWORD PTR [eax+4]
	cmp	ecx, DWORD PTR _nAllocationRequested$[ebp]
	jge	SHORT $LN5@Grow

; 592  : 			{
; 593  : 				m_nAllocationCount = ( m_nAllocationCount + nAllocationRequested ) / 2;

	mov	eax, DWORD PTR _this$[ebp]
	mov	eax, DWORD PTR [eax+4]
	add	eax, DWORD PTR _nAllocationRequested$[ebp]
	cdq
	sub	eax, edx
	sar	eax, 1
	mov	ecx, DWORD PTR _this$[ebp]
	mov	DWORD PTR [ecx+4], eax

; 594  : 			}

	jmp	SHORT $LN2@Grow
$LN5@Grow:

; 595  : 		}
; 596  : 	}
; 597  : 
; 598  : 	if (m_pMemory)

	mov	eax, DWORD PTR _this$[ebp]
	cmp	DWORD PTR [eax], 0
	je	SHORT $LN9@Grow

; 599  : 	{
; 600  : 		m_pMemory = (T*)realloc( m_pMemory, m_nAllocationCount * sizeof(T) );

	mov	eax, DWORD PTR _this$[ebp]
	mov	ecx, DWORD PTR [eax+4]
	shl	ecx, 2
	push	ecx
	mov	edx, DWORD PTR _this$[ebp]
	mov	eax, DWORD PTR [edx]
	push	eax
	call	_realloc
	add	esp, 8
	mov	ecx, DWORD PTR _this$[ebp]
	mov	DWORD PTR [ecx], eax

; 601  : 		assert( m_pMemory );

	mov	eax, DWORD PTR _this$[ebp]
	cmp	DWORD PTR [eax], 0
	jne	SHORT $LN15@Grow
	push	601					; 00000259H
	push	OFFSET ??_C@_1JE@CIIIAKCN@?$AAd?$AA?3?$AA?2?$AA?$CB?$AAd?$AAi?$AAf?$AAf?$AAu?$AAs?$AAi?$AAo?$AAn?$AA?5?$AA2?$AA0?$AA2?$AA0?$AA?2?$AAs?$AAo?$AAu?$AAr?$AAc?$AAe?$AA?5?$AAc?$AAo?$AAd?$AAe?$AA?5?$AA2@
	push	OFFSET ??_C@_1BE@OPPFELHC@?$AAm?$AA_?$AAp?$AAM?$AAe?$AAm?$AAo?$AAr?$AAy?$AA?$AA@
	call	__wassert
	add	esp, 12					; 0000000cH
$LN15@Grow:

; 602  : 	}
; 603  : 	else

	jmp	SHORT $LN1@Grow
$LN9@Grow:

; 604  : 	{
; 605  : 		m_pMemory = (T*)malloc( m_nAllocationCount * sizeof(T) );

	mov	eax, DWORD PTR _this$[ebp]
	mov	ecx, DWORD PTR [eax+4]
	shl	ecx, 2
	push	ecx
	call	_malloc
	add	esp, 4
	mov	edx, DWORD PTR _this$[ebp]
	mov	DWORD PTR [edx], eax

; 606  : 		assert( m_pMemory );

	mov	eax, DWORD PTR _this$[ebp]
	cmp	DWORD PTR [eax], 0
	jne	SHORT $LN1@Grow
	push	606					; 0000025eH
	push	OFFSET ??_C@_1JE@CIIIAKCN@?$AAd?$AA?3?$AA?2?$AA?$CB?$AAd?$AAi?$AAf?$AAf?$AAu?$AAs?$AAi?$AAo?$AAn?$AA?5?$AA2?$AA0?$AA2?$AA0?$AA?2?$AAs?$AAo?$AAu?$AAr?$AAc?$AAe?$AA?5?$AAc?$AAo?$AAd?$AAe?$AA?5?$AA2@
	push	OFFSET ??_C@_1BE@OPPFELHC@?$AAm?$AA_?$AAp?$AAM?$AAe?$AAm?$AAo?$AAr?$AAy?$AA?$AA@
	call	__wassert
	add	esp, 12					; 0000000cH
$LN1@Grow:

; 607  : 	}
; 608  : }

	pop	edi
	pop	esi
	pop	ebx
	mov	esp, ebp
	pop	ebp
	ret	4
?Grow@?$CUtlMemory@PADH@@QAEXH@Z ENDP			; CUtlMemory<char *,int>::Grow
_TEXT	ENDS
; Function compile flags: /Odtp /ZI
; File d:\!diffusion 2020\source code 2022\client-server\game_shared\utlmemory.h
;	COMDAT ?NumAllocated@?$CUtlMemory@PADH@@QBEHXZ
_TEXT	SEGMENT
_this$ = -4						; size = 4
?NumAllocated@?$CUtlMemory@PADH@@QBEHXZ PROC		; CUtlMemory<char *,int>::NumAllocated, COMDAT
; _this$ = ecx

; 504  : {

	push	ebp
	mov	ebp, esp
	sub	esp, 68					; 00000044H
	push	ebx
	push	esi
	push	edi
	mov	DWORD PTR _this$[ebp], ecx

; 505  : 	return m_nAllocationCount;

	mov	eax, DWORD PTR _this$[ebp]
	mov	eax, DWORD PTR [eax+4]

; 506  : }

	pop	edi
	pop	esi
	pop	ebx
	mov	esp, ebp
	pop	ebp
	ret	0
?NumAllocated@?$CUtlMemory@PADH@@QBEHXZ ENDP		; CUtlMemory<char *,int>::NumAllocated
_TEXT	ENDS
; Function compile flags: /Odtp /ZI
; File d:\!diffusion 2020\source code 2022\client-server\game_shared\utlmemory.h
;	COMDAT ?Base@?$CUtlMemory@PADH@@QAEPAPADXZ
_TEXT	SEGMENT
_this$ = -4						; size = 4
?Base@?$CUtlMemory@PADH@@QAEPAPADXZ PROC		; CUtlMemory<char *,int>::Base, COMDAT
; _this$ = ecx

; 487  : {

	push	ebp
	mov	ebp, esp
	sub	esp, 68					; 00000044H
	push	ebx
	push	esi
	push	edi
	mov	DWORD PTR _this$[ebp], ecx

; 488  : 	assert( !IsReadOnly() );

	mov	ecx, DWORD PTR _this$[ebp]
	call	?IsReadOnly@?$CUtlMemory@PADH@@QBE_NXZ	; CUtlMemory<char *,int>::IsReadOnly
	movzx	eax, al
	test	eax, eax
	je	SHORT $LN3@Base
	push	488					; 000001e8H
	push	OFFSET ??_C@_1JE@CIIIAKCN@?$AAd?$AA?3?$AA?2?$AA?$CB?$AAd?$AAi?$AAf?$AAf?$AAu?$AAs?$AAi?$AAo?$AAn?$AA?5?$AA2?$AA0?$AA2?$AA0?$AA?2?$AAs?$AAo?$AAu?$AAr?$AAc?$AAe?$AA?5?$AAc?$AAo?$AAd?$AAe?$AA?5?$AA2@
	push	OFFSET ??_C@_1BM@PFNFCCHH@?$AA?$CB?$AAI?$AAs?$AAR?$AAe?$AAa?$AAd?$AAO?$AAn?$AAl?$AAy?$AA?$CI?$AA?$CJ?$AA?$AA@
	call	__wassert
	add	esp, 12					; 0000000cH
$LN3@Base:

; 489  : 	return m_pMemory;

	mov	eax, DWORD PTR _this$[ebp]
	mov	eax, DWORD PTR [eax]

; 490  : }

	pop	edi
	pop	esi
	pop	ebx
	mov	esp, ebp
	pop	ebp
	ret	0
?Base@?$CUtlMemory@PADH@@QAEPAPADXZ ENDP		; CUtlMemory<char *,int>::Base
_TEXT	ENDS
; Function compile flags: /Odtp /ZI
; File d:\!diffusion 2020\source code 2022\client-server\game_shared\utlmemory.h
;	COMDAT ?IsIdxValid@?$CUtlMemory@PADH@@QBE_NH@Z
_TEXT	SEGMENT
tv67 = -72						; size = 4
_this$ = -4						; size = 4
_i$ = 8							; size = 4
?IsIdxValid@?$CUtlMemory@PADH@@QBE_NH@Z PROC		; CUtlMemory<char *,int>::IsIdxValid, COMDAT
; _this$ = ecx

; 520  : {

	push	ebp
	mov	ebp, esp
	sub	esp, 72					; 00000048H
	push	ebx
	push	esi
	push	edi
	mov	DWORD PTR _this$[ebp], ecx

; 521  : 	return ( ((int) i) >= 0 ) && ( ((int) i) < m_nAllocationCount );

	cmp	DWORD PTR _i$[ebp], 0
	jl	SHORT $LN3@IsIdxValid
	mov	eax, DWORD PTR _this$[ebp]
	mov	ecx, DWORD PTR _i$[ebp]
	cmp	ecx, DWORD PTR [eax+4]
	jge	SHORT $LN3@IsIdxValid
	mov	DWORD PTR tv67[ebp], 1
	jmp	SHORT $LN4@IsIdxValid
$LN3@IsIdxValid:
	mov	DWORD PTR tv67[ebp], 0
$LN4@IsIdxValid:
	mov	al, BYTE PTR tv67[ebp]

; 522  : }

	pop	edi
	pop	esi
	pop	ebx
	mov	esp, ebp
	pop	ebp
	ret	4
?IsIdxValid@?$CUtlMemory@PADH@@QBE_NH@Z ENDP		; CUtlMemory<char *,int>::IsIdxValid
_TEXT	ENDS
; Function compile flags: /Odtp /ZI
; File d:\!diffusion 2020\source code 2022\client-server\game_shared\utlmemory.h
;	COMDAT ??A?$CUtlMemory@PADH@@QAEAAPADH@Z
_TEXT	SEGMENT
_this$ = -4						; size = 4
_i$ = 8							; size = 4
??A?$CUtlMemory@PADH@@QAEAAPADH@Z PROC			; CUtlMemory<char *,int>::operator[], COMDAT
; _this$ = ecx

; 423  : {

	push	ebp
	mov	ebp, esp
	sub	esp, 68					; 00000044H
	push	ebx
	push	esi
	push	edi
	mov	DWORD PTR _this$[ebp], ecx

; 424  : 	assert( !IsReadOnly() );

	mov	ecx, DWORD PTR _this$[ebp]
	call	?IsReadOnly@?$CUtlMemory@PADH@@QBE_NXZ	; CUtlMemory<char *,int>::IsReadOnly
	movzx	eax, al
	test	eax, eax
	je	SHORT $LN3@operator
	push	424					; 000001a8H
	push	OFFSET ??_C@_1JE@CIIIAKCN@?$AAd?$AA?3?$AA?2?$AA?$CB?$AAd?$AAi?$AAf?$AAf?$AAu?$AAs?$AAi?$AAo?$AAn?$AA?5?$AA2?$AA0?$AA2?$AA0?$AA?2?$AAs?$AAo?$AAu?$AAr?$AAc?$AAe?$AA?5?$AAc?$AAo?$AAd?$AAe?$AA?5?$AA2@
	push	OFFSET ??_C@_1BM@PFNFCCHH@?$AA?$CB?$AAI?$AAs?$AAR?$AAe?$AAa?$AAd?$AAO?$AAn?$AAl?$AAy?$AA?$CI?$AA?$CJ?$AA?$AA@
	call	__wassert
	add	esp, 12					; 0000000cH
$LN3@operator:

; 425  : 	assert( IsIdxValid(i) );

	mov	eax, DWORD PTR _i$[ebp]
	push	eax
	mov	ecx, DWORD PTR _this$[ebp]
	call	?IsIdxValid@?$CUtlMemory@PADH@@QBE_NH@Z	; CUtlMemory<char *,int>::IsIdxValid
	movzx	ecx, al
	test	ecx, ecx
	jne	SHORT $LN4@operator
	push	425					; 000001a9H
	push	OFFSET ??_C@_1JE@CIIIAKCN@?$AAd?$AA?3?$AA?2?$AA?$CB?$AAd?$AAi?$AAf?$AAf?$AAu?$AAs?$AAi?$AAo?$AAn?$AA?5?$AA2?$AA0?$AA2?$AA0?$AA?2?$AAs?$AAo?$AAu?$AAr?$AAc?$AAe?$AA?5?$AAc?$AAo?$AAd?$AAe?$AA?5?$AA2@
	push	OFFSET ??_C@_1BM@CKILBAKK@?$AAI?$AAs?$AAI?$AAd?$AAx?$AAV?$AAa?$AAl?$AAi?$AAd?$AA?$CI?$AAi?$AA?$CJ?$AA?$AA@
	call	__wassert
	add	esp, 12					; 0000000cH
$LN4@operator:

; 426  : 	return m_pMemory[i];

	mov	eax, DWORD PTR _this$[ebp]
	mov	ecx, DWORD PTR [eax]
	mov	edx, DWORD PTR _i$[ebp]
	lea	eax, DWORD PTR [ecx+edx*4]

; 427  : }

	pop	edi
	pop	esi
	pop	ebx
	mov	esp, ebp
	pop	ebp
	ret	4
??A?$CUtlMemory@PADH@@QAEAAPADH@Z ENDP			; CUtlMemory<char *,int>::operator[]
_TEXT	ENDS
; Function compile flags: /Odtp /ZI
; File d:\!diffusion 2020\source code 2022\client-server\game_shared\utlmemory.h
;	COMDAT ??1?$CUtlMemory@PADH@@QAE@XZ
_TEXT	SEGMENT
_this$ = -16						; size = 4
__$EHRec$ = -12						; size = 12
??1?$CUtlMemory@PADH@@QAE@XZ PROC			; CUtlMemory<char *,int>::~CUtlMemory<char *,int>, COMDAT
; _this$ = ecx

; 322  : {

	push	ebp
	mov	ebp, esp
	push	-1
	push	__ehhandler$??1?$CUtlMemory@PADH@@QAE@XZ
	mov	eax, DWORD PTR fs:0
	push	eax
	sub	esp, 68					; 00000044H
	push	ebx
	push	esi
	push	edi
	mov	eax, DWORD PTR ___security_cookie
	xor	eax, ebp
	push	eax
	lea	eax, DWORD PTR __$EHRec$[ebp]
	mov	DWORD PTR fs:0, eax
	mov	DWORD PTR _this$[ebp], ecx

; 323  : 	Purge();

	mov	ecx, DWORD PTR _this$[ebp]
	call	?Purge@?$CUtlMemory@PADH@@QAEXXZ	; CUtlMemory<char *,int>::Purge

; 324  : }

	mov	ecx, DWORD PTR __$EHRec$[ebp]
	mov	DWORD PTR fs:0, ecx
	pop	ecx
	pop	edi
	pop	esi
	pop	ebx
	mov	esp, ebp
	pop	ebp
	ret	0
_TEXT	ENDS
;	COMDAT text$x
text$x	SEGMENT
__ehhandler$??1?$CUtlMemory@PADH@@QAE@XZ:
	mov	edx, DWORD PTR [esp+8]
	lea	eax, DWORD PTR [edx+12]
	mov	ecx, DWORD PTR [edx-84]
	xor	ecx, eax
	call	@__security_check_cookie@4
	mov	eax, OFFSET __ehfuncinfo$??1?$CUtlMemory@PADH@@QAE@XZ
	jmp	___CxxFrameHandler3
text$x	ENDS
??1?$CUtlMemory@PADH@@QAE@XZ ENDP			; CUtlMemory<char *,int>::~CUtlMemory<char *,int>
; Function compile flags: /Odtp /ZI
; File d:\!diffusion 2020\source code 2022\client-server\game_shared\utlmemory.h
;	COMDAT ??0?$CUtlMemory@PADH@@QAE@HH@Z
_TEXT	SEGMENT
_this$ = -4						; size = 4
_nGrowSize$ = 8						; size = 4
_nInitAllocationCount$ = 12				; size = 4
??0?$CUtlMemory@PADH@@QAE@HH@Z PROC			; CUtlMemory<char *,int>::CUtlMemory<char *,int>, COMDAT
; _this$ = ecx

; 295  : {

	push	ebp
	mov	ebp, esp
	sub	esp, 68					; 00000044H
	push	ebx
	push	esi
	push	edi
	mov	DWORD PTR _this$[ebp], ecx

; 293  : CUtlMemory<T,I>::CUtlMemory( int nGrowSize, int nInitAllocationCount ) : m_pMemory(0), 

	mov	eax, DWORD PTR _this$[ebp]
	mov	DWORD PTR [eax], 0

; 294  : 	m_nAllocationCount( nInitAllocationCount ), m_nGrowSize( nGrowSize )

	mov	eax, DWORD PTR _this$[ebp]
	mov	ecx, DWORD PTR _nInitAllocationCount$[ebp]
	mov	DWORD PTR [eax+4], ecx
	mov	eax, DWORD PTR _this$[ebp]
	mov	ecx, DWORD PTR _nGrowSize$[ebp]
	mov	DWORD PTR [eax+8], ecx

; 296  : 	ValidateGrowSize();

	mov	ecx, DWORD PTR _this$[ebp]
	call	?ValidateGrowSize@?$CUtlMemory@PADH@@IAEXXZ ; CUtlMemory<char *,int>::ValidateGrowSize

; 297  : 	assert( nGrowSize >= 0 );

	cmp	DWORD PTR _nGrowSize$[ebp], 0
	jge	SHORT $LN4@CUtlMemory
	push	297					; 00000129H
	push	OFFSET ??_C@_1JE@CIIIAKCN@?$AAd?$AA?3?$AA?2?$AA?$CB?$AAd?$AAi?$AAf?$AAf?$AAu?$AAs?$AAi?$AAo?$AAn?$AA?5?$AA2?$AA0?$AA2?$AA0?$AA?2?$AAs?$AAo?$AAu?$AAr?$AAc?$AAe?$AA?5?$AAc?$AAo?$AAd?$AAe?$AA?5?$AA2@
	push	OFFSET ??_C@_1BO@FOOHAONO@?$AAn?$AAG?$AAr?$AAo?$AAw?$AAS?$AAi?$AAz?$AAe?$AA?5?$AA?$DO?$AA?$DN?$AA?5?$AA0?$AA?$AA@
	call	__wassert
	add	esp, 12					; 0000000cH
$LN4@CUtlMemory:

; 298  : 	if (m_nAllocationCount)

	mov	eax, DWORD PTR _this$[ebp]
	cmp	DWORD PTR [eax+4], 0
	je	SHORT $LN1@CUtlMemory

; 299  : 	{
; 300  : 		m_pMemory = (T*)malloc( m_nAllocationCount * sizeof(T) );

	mov	eax, DWORD PTR _this$[ebp]
	mov	ecx, DWORD PTR [eax+4]
	shl	ecx, 2
	push	ecx
	call	_malloc
	add	esp, 4
	mov	edx, DWORD PTR _this$[ebp]
	mov	DWORD PTR [edx], eax
$LN1@CUtlMemory:

; 301  : 	}
; 302  : }

	mov	eax, DWORD PTR _this$[ebp]
	pop	edi
	pop	esi
	pop	ebx
	mov	esp, ebp
	pop	ebp
	ret	8
??0?$CUtlMemory@PADH@@QAE@HH@Z ENDP			; CUtlMemory<char *,int>::CUtlMemory<char *,int>
_TEXT	ENDS
; Function compile flags: /Odtp /ZI
; File d:\!diffusion 2020\source code 2022\client-server\game_shared\utlarray.h
;	COMDAT ?ShiftElementsRight@?$CUtlArray@PADV?$CUtlMemory@PADH@@@@IAEXHH@Z
_TEXT	SEGMENT
_numToMove$ = -8					; size = 4
_this$ = -4						; size = 4
_elem$ = 8						; size = 4
_num$ = 12						; size = 4
?ShiftElementsRight@?$CUtlArray@PADV?$CUtlMemory@PADH@@@@IAEXHH@Z PROC ; CUtlArray<char *,CUtlMemory<char *,int> >::ShiftElementsRight, COMDAT
; _this$ = ecx

; 447  : {

	push	ebp
	mov	ebp, esp
	sub	esp, 72					; 00000048H
	push	ebx
	push	esi
	push	edi
	mov	DWORD PTR _this$[ebp], ecx

; 448  : 	assert( IsValidIndex(elem) || ( m_Size == 0 ) || ( num == 0 ));

	mov	eax, DWORD PTR _elem$[ebp]
	push	eax
	mov	ecx, DWORD PTR _this$[ebp]
	call	?IsValidIndex@?$CUtlArray@PADV?$CUtlMemory@PADH@@@@QBE_NH@Z ; CUtlArray<char *,CUtlMemory<char *,int> >::IsValidIndex
	movzx	ecx, al
	test	ecx, ecx
	jne	SHORT $LN4@ShiftEleme
	mov	edx, DWORD PTR _this$[ebp]
	cmp	DWORD PTR [edx+12], 0
	je	SHORT $LN4@ShiftEleme
	cmp	DWORD PTR _num$[ebp], 0
	je	SHORT $LN4@ShiftEleme
	push	448					; 000001c0H
	push	OFFSET ??_C@_1JC@EMNIBBBG@?$AAd?$AA?3?$AA?2?$AA?$CB?$AAd?$AAi?$AAf?$AAf?$AAu?$AAs?$AAi?$AAo?$AAn?$AA?5?$AA2?$AA0?$AA2?$AA0?$AA?2?$AAs?$AAo?$AAu?$AAr?$AAc?$AAe?$AA?5?$AAc?$AAo?$AAd?$AAe?$AA?5?$AA2@
	push	OFFSET ??_C@_1GM@CDMJDFPA@?$AAI?$AAs?$AAV?$AAa?$AAl?$AAi?$AAd?$AAI?$AAn?$AAd?$AAe?$AAx?$AA?$CI?$AAe?$AAl?$AAe?$AAm?$AA?$CJ?$AA?5?$AA?$HM?$AA?$HM?$AA?5?$AA?$CI?$AA?5?$AAm?$AA_?$AAS?$AAi?$AAz?$AAe?$AA?5?$AA?$DN@
	call	__wassert
	add	esp, 12					; 0000000cH
$LN4@ShiftEleme:

; 449  : 	int numToMove = m_Size - elem - num;

	mov	eax, DWORD PTR _this$[ebp]
	mov	ecx, DWORD PTR [eax+12]
	sub	ecx, DWORD PTR _elem$[ebp]
	sub	ecx, DWORD PTR _num$[ebp]
	mov	DWORD PTR _numToMove$[ebp], ecx

; 450  : 	if ((numToMove > 0) && (num > 0))

	cmp	DWORD PTR _numToMove$[ebp], 0
	jle	SHORT $LN1@ShiftEleme
	cmp	DWORD PTR _num$[ebp], 0
	jle	SHORT $LN1@ShiftEleme

; 451  : 		memmove( &Element(elem+num), &Element(elem), numToMove * sizeof(T) );

	mov	eax, DWORD PTR _numToMove$[ebp]
	shl	eax, 2
	push	eax
	mov	ecx, DWORD PTR _elem$[ebp]
	push	ecx
	mov	ecx, DWORD PTR _this$[ebp]
	call	?Element@?$CUtlArray@PADV?$CUtlMemory@PADH@@@@QAEAAPADH@Z ; CUtlArray<char *,CUtlMemory<char *,int> >::Element
	push	eax
	mov	edx, DWORD PTR _elem$[ebp]
	add	edx, DWORD PTR _num$[ebp]
	push	edx
	mov	ecx, DWORD PTR _this$[ebp]
	call	?Element@?$CUtlArray@PADV?$CUtlMemory@PADH@@@@QAEAAPADH@Z ; CUtlArray<char *,CUtlMemory<char *,int> >::Element
	push	eax
	call	_memmove
	add	esp, 12					; 0000000cH
$LN1@ShiftEleme:

; 452  : }

	pop	edi
	pop	esi
	pop	ebx
	mov	esp, ebp
	pop	ebp
	ret	8
?ShiftElementsRight@?$CUtlArray@PADV?$CUtlMemory@PADH@@@@IAEXHH@Z ENDP ; CUtlArray<char *,CUtlMemory<char *,int> >::ShiftElementsRight
_TEXT	ENDS
; Function compile flags: /Odtp /ZI
; File d:\!diffusion 2020\source code 2022\client-server\game_shared\utlarray.h
;	COMDAT ?GrowVector@?$CUtlArray@PADV?$CUtlMemory@PADH@@@@IAEXH@Z
_TEXT	SEGMENT
_this$ = -4						; size = 4
_num$ = 8						; size = 4
?GrowVector@?$CUtlArray@PADV?$CUtlMemory@PADH@@@@IAEXH@Z PROC ; CUtlArray<char *,CUtlMemory<char *,int> >::GrowVector, COMDAT
; _this$ = ecx

; 374  : {

	push	ebp
	mov	ebp, esp
	sub	esp, 68					; 00000044H
	push	ebx
	push	esi
	push	edi
	mov	DWORD PTR _this$[ebp], ecx

; 375  : 	if (m_Size + num > m_Memory.NumAllocated())

	mov	eax, DWORD PTR _this$[ebp]
	mov	esi, DWORD PTR [eax+12]
	add	esi, DWORD PTR _num$[ebp]
	mov	ecx, DWORD PTR _this$[ebp]
	call	?NumAllocated@?$CUtlMemory@PADH@@QBEHXZ	; CUtlMemory<char *,int>::NumAllocated
	cmp	esi, eax
	jle	SHORT $LN2@GrowVector

; 376  : 	{
; 377  : 		m_Memory.Grow( m_Size + num - m_Memory.NumAllocated() );

	mov	eax, DWORD PTR _this$[ebp]
	mov	esi, DWORD PTR [eax+12]
	add	esi, DWORD PTR _num$[ebp]
	mov	ecx, DWORD PTR _this$[ebp]
	call	?NumAllocated@?$CUtlMemory@PADH@@QBEHXZ	; CUtlMemory<char *,int>::NumAllocated
	sub	esi, eax
	push	esi
	mov	ecx, DWORD PTR _this$[ebp]
	call	?Grow@?$CUtlMemory@PADH@@QAEXH@Z	; CUtlMemory<char *,int>::Grow
$LN2@GrowVector:

; 378  : 	}
; 379  : 
; 380  : 	m_Size += num;

	mov	eax, DWORD PTR _this$[ebp]
	mov	ecx, DWORD PTR [eax+12]
	add	ecx, DWORD PTR _num$[ebp]
	mov	edx, DWORD PTR _this$[ebp]
	mov	DWORD PTR [edx+12], ecx

; 381  : 	ResetDbgInfo();

	mov	ecx, DWORD PTR _this$[ebp]
	call	?ResetDbgInfo@?$CUtlArray@PADV?$CUtlMemory@PADH@@@@IAEXXZ ; CUtlArray<char *,CUtlMemory<char *,int> >::ResetDbgInfo

; 382  : }

	pop	edi
	pop	esi
	pop	ebx
	mov	esp, ebp
	pop	ebp
	ret	4
?GrowVector@?$CUtlArray@PADV?$CUtlMemory@PADH@@@@IAEXH@Z ENDP ; CUtlArray<char *,CUtlMemory<char *,int> >::GrowVector
_TEXT	ENDS
; Function compile flags: /Odtp /ZI
; File d:\!diffusion 2020\source code 2022\client-server\game_shared\utlarray.h
;	COMDAT ?Purge@?$CUtlArray@PADV?$CUtlMemory@PADH@@@@QAEXXZ
_TEXT	SEGMENT
_this$ = -4						; size = 4
?Purge@?$CUtlArray@PADV?$CUtlMemory@PADH@@@@QAEXXZ PROC	; CUtlArray<char *,CUtlMemory<char *,int> >::Purge, COMDAT
; _this$ = ecx

; 742  : {

	push	ebp
	mov	ebp, esp
	sub	esp, 68					; 00000044H
	push	ebx
	push	esi
	push	edi
	mov	DWORD PTR _this$[ebp], ecx

; 743  : 	RemoveAll();

	mov	ecx, DWORD PTR _this$[ebp]
	call	?RemoveAll@?$CUtlArray@PADV?$CUtlMemory@PADH@@@@QAEXXZ ; CUtlArray<char *,CUtlMemory<char *,int> >::RemoveAll

; 744  : 	m_Memory.Purge();

	mov	ecx, DWORD PTR _this$[ebp]
	call	?Purge@?$CUtlMemory@PADH@@QAEXXZ	; CUtlMemory<char *,int>::Purge

; 745  : 	ResetDbgInfo();

	mov	ecx, DWORD PTR _this$[ebp]
	call	?ResetDbgInfo@?$CUtlArray@PADV?$CUtlMemory@PADH@@@@IAEXXZ ; CUtlArray<char *,CUtlMemory<char *,int> >::ResetDbgInfo

; 746  : }

	pop	edi
	pop	esi
	pop	ebx
	mov	esp, ebp
	pop	ebp
	ret	0
?Purge@?$CUtlArray@PADV?$CUtlMemory@PADH@@@@QAEXXZ ENDP	; CUtlArray<char *,CUtlMemory<char *,int> >::Purge
_TEXT	ENDS
; Function compile flags: /Odtp /ZI
; File d:\!diffusion 2020\source code 2022\client-server\game_shared\utlarray.h
;	COMDAT ?RemoveAll@?$CUtlArray@PADV?$CUtlMemory@PADH@@@@QAEXXZ
_TEXT	SEGMENT
_i$1 = -8						; size = 4
_this$ = -4						; size = 4
?RemoveAll@?$CUtlArray@PADV?$CUtlMemory@PADH@@@@QAEXXZ PROC ; CUtlArray<char *,CUtlMemory<char *,int> >::RemoveAll, COMDAT
; _this$ = ecx

; 726  : {

	push	ebp
	mov	ebp, esp
	sub	esp, 72					; 00000048H
	push	ebx
	push	esi
	push	edi
	mov	DWORD PTR _this$[ebp], ecx

; 727  : 	for (int i = m_Size; --i >= 0; )

	mov	eax, DWORD PTR _this$[ebp]
	mov	ecx, DWORD PTR [eax+12]
	mov	DWORD PTR _i$1[ebp], ecx
$LN4@RemoveAll:
	mov	eax, DWORD PTR _i$1[ebp]
	sub	eax, 1
	mov	DWORD PTR _i$1[ebp], eax
	js	SHORT $LN3@RemoveAll

; 728  : 	{
; 729  : 		Destruct(&Element(i));

	mov	eax, DWORD PTR _i$1[ebp]
	push	eax
	mov	ecx, DWORD PTR _this$[ebp]
	call	?Element@?$CUtlArray@PADV?$CUtlMemory@PADH@@@@QAEAAPADH@Z ; CUtlArray<char *,CUtlMemory<char *,int> >::Element
	push	eax
	call	??$Destruct@PAD@@YAXPAPAD@Z		; Destruct<char *>
	add	esp, 4

; 730  : 	}

	jmp	SHORT $LN4@RemoveAll
$LN3@RemoveAll:

; 731  : 
; 732  : 	m_Size = 0;

	mov	eax, DWORD PTR _this$[ebp]
	mov	DWORD PTR [eax+12], 0

; 733  : }

	pop	edi
	pop	esi
	pop	ebx
	mov	esp, ebp
	pop	ebp
	ret	0
?RemoveAll@?$CUtlArray@PADV?$CUtlMemory@PADH@@@@QAEXXZ ENDP ; CUtlArray<char *,CUtlMemory<char *,int> >::RemoveAll
_TEXT	ENDS
; Function compile flags: /Odtp /ZI
; File d:\!diffusion 2020\source code 2022\client-server\game_shared\utlarray.h
;	COMDAT ?InsertBefore@?$CUtlArray@PADV?$CUtlMemory@PADH@@@@QAEHHABQAD@Z
_TEXT	SEGMENT
_this$ = -4						; size = 4
_elem$ = 8						; size = 4
_src$ = 12						; size = 4
?InsertBefore@?$CUtlArray@PADV?$CUtlMemory@PADH@@@@QAEHHABQAD@Z PROC ; CUtlArray<char *,CUtlMemory<char *,int> >::InsertBefore, COMDAT
; _this$ = ecx

; 533  : {

	push	ebp
	mov	ebp, esp
	sub	esp, 68					; 00000044H
	push	ebx
	push	esi
	push	edi
	mov	DWORD PTR _this$[ebp], ecx

; 534  : 	// Can't insert something that's in the list... reallocation may hose us
; 535  : 	assert( (Base() == NULL) || (&src < Base()) || (&src >= (Base() + Count()) ) ); 

	mov	ecx, DWORD PTR _this$[ebp]
	call	?Base@?$CUtlArray@PADV?$CUtlMemory@PADH@@@@QAEPAPADXZ ; CUtlArray<char *,CUtlMemory<char *,int> >::Base
	test	eax, eax
	je	SHORT $LN3@InsertBefo
	mov	ecx, DWORD PTR _this$[ebp]
	call	?Base@?$CUtlArray@PADV?$CUtlMemory@PADH@@@@QAEPAPADXZ ; CUtlArray<char *,CUtlMemory<char *,int> >::Base
	cmp	DWORD PTR _src$[ebp], eax
	jb	SHORT $LN3@InsertBefo
	mov	ecx, DWORD PTR _this$[ebp]
	call	?Base@?$CUtlArray@PADV?$CUtlMemory@PADH@@@@QAEPAPADXZ ; CUtlArray<char *,CUtlMemory<char *,int> >::Base
	mov	esi, eax
	mov	ecx, DWORD PTR _this$[ebp]
	call	?Count@?$CUtlArray@PADV?$CUtlMemory@PADH@@@@QBEHXZ ; CUtlArray<char *,CUtlMemory<char *,int> >::Count
	lea	eax, DWORD PTR [esi+eax*4]
	cmp	DWORD PTR _src$[ebp], eax
	jae	SHORT $LN3@InsertBefo
	push	535					; 00000217H
	push	OFFSET ??_C@_1JC@EMNIBBBG@?$AAd?$AA?3?$AA?2?$AA?$CB?$AAd?$AAi?$AAf?$AAf?$AAu?$AAs?$AAi?$AAo?$AAn?$AA?5?$AA2?$AA0?$AA2?$AA0?$AA?2?$AAs?$AAo?$AAu?$AAr?$AAc?$AAe?$AA?5?$AAc?$AAo?$AAd?$AAe?$AA?5?$AA2@
	push	OFFSET ??_C@_1IK@DGJDJNN@?$AA?$CI?$AAB?$AAa?$AAs?$AAe?$AA?$CI?$AA?$CJ?$AA?5?$AA?$DN?$AA?$DN?$AA?5?$AAN?$AAU?$AAL?$AAL?$AA?$CJ?$AA?5?$AA?$HM?$AA?$HM?$AA?5?$AA?$CI?$AA?$CG?$AAs?$AAr?$AAc?$AA?5?$AA?$DM?$AA?5?$AAB?$AAa?$AAs?$AAe@
	call	__wassert
	add	esp, 12					; 0000000cH
$LN3@InsertBefo:

; 536  : 
; 537  : 	// Can insert at the end
; 538  : 	assert( (elem == Count()) || IsValidIndex(elem) );

	mov	ecx, DWORD PTR _this$[ebp]
	call	?Count@?$CUtlArray@PADV?$CUtlMemory@PADH@@@@QBEHXZ ; CUtlArray<char *,CUtlMemory<char *,int> >::Count
	cmp	DWORD PTR _elem$[ebp], eax
	je	SHORT $LN4@InsertBefo
	mov	eax, DWORD PTR _elem$[ebp]
	push	eax
	mov	ecx, DWORD PTR _this$[ebp]
	call	?IsValidIndex@?$CUtlArray@PADV?$CUtlMemory@PADH@@@@QBE_NH@Z ; CUtlArray<char *,CUtlMemory<char *,int> >::IsValidIndex
	movzx	ecx, al
	test	ecx, ecx
	jne	SHORT $LN4@InsertBefo
	push	538					; 0000021aH
	push	OFFSET ??_C@_1JC@EMNIBBBG@?$AAd?$AA?3?$AA?2?$AA?$CB?$AAd?$AAi?$AAf?$AAf?$AAu?$AAs?$AAi?$AAo?$AAn?$AA?5?$AA2?$AA0?$AA2?$AA0?$AA?2?$AAs?$AAo?$AAu?$AAr?$AAc?$AAe?$AA?5?$AAc?$AAo?$AAd?$AAe?$AA?5?$AA2@
	push	OFFSET ??_C@_1FA@BPFBJKPF@?$AA?$CI?$AAe?$AAl?$AAe?$AAm?$AA?5?$AA?$DN?$AA?$DN?$AA?5?$AAC?$AAo?$AAu?$AAn?$AAt?$AA?$CI?$AA?$CJ?$AA?$CJ?$AA?5?$AA?$HM?$AA?$HM?$AA?5?$AAI?$AAs?$AAV?$AAa?$AAl?$AAi?$AAd?$AAI?$AAn?$AAd?$AAe@
	call	__wassert
	add	esp, 12					; 0000000cH
$LN4@InsertBefo:

; 539  : 
; 540  : 	GrowVector();

	push	1
	mov	ecx, DWORD PTR _this$[ebp]
	call	?GrowVector@?$CUtlArray@PADV?$CUtlMemory@PADH@@@@IAEXH@Z ; CUtlArray<char *,CUtlMemory<char *,int> >::GrowVector

; 541  : 	ShiftElementsRight(elem);

	push	1
	mov	eax, DWORD PTR _elem$[ebp]
	push	eax
	mov	ecx, DWORD PTR _this$[ebp]
	call	?ShiftElementsRight@?$CUtlArray@PADV?$CUtlMemory@PADH@@@@IAEXHH@Z ; CUtlArray<char *,CUtlMemory<char *,int> >::ShiftElementsRight

; 542  : 	CopyConstruct( &Element(elem), src );

	mov	eax, DWORD PTR _src$[ebp]
	push	eax
	mov	ecx, DWORD PTR _elem$[ebp]
	push	ecx
	mov	ecx, DWORD PTR _this$[ebp]
	call	?Element@?$CUtlArray@PADV?$CUtlMemory@PADH@@@@QAEAAPADH@Z ; CUtlArray<char *,CUtlMemory<char *,int> >::Element
	push	eax
	call	??$CopyConstruct@PAD@@YAXPAPADABQAD@Z	; CopyConstruct<char *>
	add	esp, 8

; 543  : 	return elem;

	mov	eax, DWORD PTR _elem$[ebp]

; 544  : }

	pop	edi
	pop	esi
	pop	ebx
	mov	esp, ebp
	pop	ebp
	ret	8
?InsertBefore@?$CUtlArray@PADV?$CUtlMemory@PADH@@@@QAEHHABQAD@Z ENDP ; CUtlArray<char *,CUtlMemory<char *,int> >::InsertBefore
_TEXT	ENDS
; Function compile flags: /Odtp /ZI
; File d:\!diffusion 2020\source code 2022\client-server\game_shared\utlarray.h
;	COMDAT ?AddToTail@?$CUtlArray@PADV?$CUtlMemory@PADH@@@@QAEHABQAD@Z
_TEXT	SEGMENT
_this$ = -4						; size = 4
_src$ = 8						; size = 4
?AddToTail@?$CUtlArray@PADV?$CUtlMemory@PADH@@@@QAEHABQAD@Z PROC ; CUtlArray<char *,CUtlMemory<char *,int> >::AddToTail, COMDAT
; _this$ = ecx

; 517  : {

	push	ebp
	mov	ebp, esp
	sub	esp, 68					; 00000044H
	push	ebx
	push	esi
	push	edi
	mov	DWORD PTR _this$[ebp], ecx

; 518  : 	// Can't insert something that's in the list... reallocation may hose us
; 519  : 	assert( (Base() == NULL) || (&src < Base()) || (&src >= (Base() + Count()) ) ); 

	mov	ecx, DWORD PTR _this$[ebp]
	call	?Base@?$CUtlArray@PADV?$CUtlMemory@PADH@@@@QAEPAPADXZ ; CUtlArray<char *,CUtlMemory<char *,int> >::Base
	test	eax, eax
	je	SHORT $LN3@AddToTail
	mov	ecx, DWORD PTR _this$[ebp]
	call	?Base@?$CUtlArray@PADV?$CUtlMemory@PADH@@@@QAEPAPADXZ ; CUtlArray<char *,CUtlMemory<char *,int> >::Base
	cmp	DWORD PTR _src$[ebp], eax
	jb	SHORT $LN3@AddToTail
	mov	ecx, DWORD PTR _this$[ebp]
	call	?Base@?$CUtlArray@PADV?$CUtlMemory@PADH@@@@QAEPAPADXZ ; CUtlArray<char *,CUtlMemory<char *,int> >::Base
	mov	esi, eax
	mov	ecx, DWORD PTR _this$[ebp]
	call	?Count@?$CUtlArray@PADV?$CUtlMemory@PADH@@@@QBEHXZ ; CUtlArray<char *,CUtlMemory<char *,int> >::Count
	lea	eax, DWORD PTR [esi+eax*4]
	cmp	DWORD PTR _src$[ebp], eax
	jae	SHORT $LN3@AddToTail
	push	519					; 00000207H
	push	OFFSET ??_C@_1JC@EMNIBBBG@?$AAd?$AA?3?$AA?2?$AA?$CB?$AAd?$AAi?$AAf?$AAf?$AAu?$AAs?$AAi?$AAo?$AAn?$AA?5?$AA2?$AA0?$AA2?$AA0?$AA?2?$AAs?$AAo?$AAu?$AAr?$AAc?$AAe?$AA?5?$AAc?$AAo?$AAd?$AAe?$AA?5?$AA2@
	push	OFFSET ??_C@_1IK@DGJDJNN@?$AA?$CI?$AAB?$AAa?$AAs?$AAe?$AA?$CI?$AA?$CJ?$AA?5?$AA?$DN?$AA?$DN?$AA?5?$AAN?$AAU?$AAL?$AAL?$AA?$CJ?$AA?5?$AA?$HM?$AA?$HM?$AA?5?$AA?$CI?$AA?$CG?$AAs?$AAr?$AAc?$AA?5?$AA?$DM?$AA?5?$AAB?$AAa?$AAs?$AAe@
	call	__wassert
	add	esp, 12					; 0000000cH
$LN3@AddToTail:

; 520  : 	return InsertBefore( m_Size, src );

	mov	eax, DWORD PTR _src$[ebp]
	push	eax
	mov	ecx, DWORD PTR _this$[ebp]
	mov	edx, DWORD PTR [ecx+12]
	push	edx
	mov	ecx, DWORD PTR _this$[ebp]
	call	?InsertBefore@?$CUtlArray@PADV?$CUtlMemory@PADH@@@@QAEHHABQAD@Z ; CUtlArray<char *,CUtlMemory<char *,int> >::InsertBefore

; 521  : }

	pop	edi
	pop	esi
	pop	ebx
	mov	esp, ebp
	pop	ebp
	ret	4
?AddToTail@?$CUtlArray@PADV?$CUtlMemory@PADH@@@@QAEHABQAD@Z ENDP ; CUtlArray<char *,CUtlMemory<char *,int> >::AddToTail
_TEXT	ENDS
; Function compile flags: /Odtp /ZI
; File d:\!diffusion 2020\source code 2022\client-server\game_shared\utlarray.h
;	COMDAT ?IsValidIndex@?$CUtlArray@PADV?$CUtlMemory@PADH@@@@QBE_NH@Z
_TEXT	SEGMENT
tv67 = -72						; size = 4
_this$ = -4						; size = 4
_i$ = 8							; size = 4
?IsValidIndex@?$CUtlArray@PADV?$CUtlMemory@PADH@@@@QBE_NH@Z PROC ; CUtlArray<char *,CUtlMemory<char *,int> >::IsValidIndex, COMDAT
; _this$ = ecx

; 354  : {

	push	ebp
	mov	ebp, esp
	sub	esp, 72					; 00000048H
	push	ebx
	push	esi
	push	edi
	mov	DWORD PTR _this$[ebp], ecx

; 355  : 	return (i >= 0) && (i < m_Size);

	cmp	DWORD PTR _i$[ebp], 0
	jl	SHORT $LN3@IsValidInd
	mov	eax, DWORD PTR _this$[ebp]
	mov	ecx, DWORD PTR _i$[ebp]
	cmp	ecx, DWORD PTR [eax+12]
	jge	SHORT $LN3@IsValidInd
	mov	DWORD PTR tv67[ebp], 1
	jmp	SHORT $LN4@IsValidInd
$LN3@IsValidInd:
	mov	DWORD PTR tv67[ebp], 0
$LN4@IsValidInd:
	mov	al, BYTE PTR tv67[ebp]

; 356  : }

	pop	edi
	pop	esi
	pop	ebx
	mov	esp, ebp
	pop	ebp
	ret	4
?IsValidIndex@?$CUtlArray@PADV?$CUtlMemory@PADH@@@@QBE_NH@Z ENDP ; CUtlArray<char *,CUtlMemory<char *,int> >::IsValidIndex
_TEXT	ENDS
; Function compile flags: /Odtp /ZI
; File d:\!diffusion 2020\source code 2022\client-server\game_shared\utlarray.h
;	COMDAT ?Count@?$CUtlArray@PADV?$CUtlMemory@PADH@@@@QBEHXZ
_TEXT	SEGMENT
_this$ = -4						; size = 4
?Count@?$CUtlArray@PADV?$CUtlMemory@PADH@@@@QBEHXZ PROC	; CUtlArray<char *,CUtlMemory<char *,int> >::Count, COMDAT
; _this$ = ecx

; 344  : {

	push	ebp
	mov	ebp, esp
	sub	esp, 68					; 00000044H
	push	ebx
	push	esi
	push	edi
	mov	DWORD PTR _this$[ebp], ecx

; 345  : 	return m_Size;

	mov	eax, DWORD PTR _this$[ebp]
	mov	eax, DWORD PTR [eax+12]

; 346  : }

	pop	edi
	pop	esi
	pop	ebx
	mov	esp, ebp
	pop	ebp
	ret	0
?Count@?$CUtlArray@PADV?$CUtlMemory@PADH@@@@QBEHXZ ENDP	; CUtlArray<char *,CUtlMemory<char *,int> >::Count
_TEXT	ENDS
; Function compile flags: /Odtp /ZI
; File d:\!diffusion 2020\source code 2022\client-server\game_shared\utlarray.h
;	COMDAT ?Base@?$CUtlArray@PADV?$CUtlMemory@PADH@@@@QAEPAPADXZ
_TEXT	SEGMENT
_this$ = -4						; size = 4
?Base@?$CUtlArray@PADV?$CUtlMemory@PADH@@@@QAEPAPADXZ PROC ; CUtlArray<char *,CUtlMemory<char *,int> >::Base, COMDAT
; _this$ = ecx

; 60   : 	T* Base()								{ return m_Memory.Base(); }

	push	ebp
	mov	ebp, esp
	sub	esp, 68					; 00000044H
	push	ebx
	push	esi
	push	edi
	mov	DWORD PTR _this$[ebp], ecx
	mov	ecx, DWORD PTR _this$[ebp]
	call	?Base@?$CUtlMemory@PADH@@QAEPAPADXZ	; CUtlMemory<char *,int>::Base
	pop	edi
	pop	esi
	pop	ebx
	mov	esp, ebp
	pop	ebp
	ret	0
?Base@?$CUtlArray@PADV?$CUtlMemory@PADH@@@@QAEPAPADXZ ENDP ; CUtlArray<char *,CUtlMemory<char *,int> >::Base
_TEXT	ENDS
; Function compile flags: /Odtp /ZI
; File d:\!diffusion 2020\source code 2022\client-server\game_shared\utlarray.h
;	COMDAT ?Element@?$CUtlArray@PADV?$CUtlMemory@PADH@@@@QAEAAPADH@Z
_TEXT	SEGMENT
_this$ = -4						; size = 4
_i$ = 8							; size = 4
?Element@?$CUtlArray@PADV?$CUtlMemory@PADH@@@@QAEAAPADH@Z PROC ; CUtlArray<char *,CUtlMemory<char *,int> >::Element, COMDAT
; _this$ = ecx

; 294  : {

	push	ebp
	mov	ebp, esp
	sub	esp, 68					; 00000044H
	push	ebx
	push	esi
	push	edi
	mov	DWORD PTR _this$[ebp], ecx

; 295  : 	return m_Memory[ i ];

	mov	eax, DWORD PTR _i$[ebp]
	push	eax
	mov	ecx, DWORD PTR _this$[ebp]
	call	??A?$CUtlMemory@PADH@@QAEAAPADH@Z	; CUtlMemory<char *,int>::operator[]

; 296  : }

	pop	edi
	pop	esi
	pop	ebx
	mov	esp, ebp
	pop	ebp
	ret	4
?Element@?$CUtlArray@PADV?$CUtlMemory@PADH@@@@QAEAAPADH@Z ENDP ; CUtlArray<char *,CUtlMemory<char *,int> >::Element
_TEXT	ENDS
; Function compile flags: /Odtp /ZI
; File d:\!diffusion 2020\source code 2022\client-server\game_shared\utlarray.h
;	COMDAT ??A?$CUtlArray@PADV?$CUtlMemory@PADH@@@@QAEAAPADH@Z
_TEXT	SEGMENT
_this$ = -4						; size = 4
_i$ = 8							; size = 4
??A?$CUtlArray@PADV?$CUtlMemory@PADH@@@@QAEAAPADH@Z PROC ; CUtlArray<char *,CUtlMemory<char *,int> >::operator[], COMDAT
; _this$ = ecx

; 282  : {

	push	ebp
	mov	ebp, esp
	sub	esp, 68					; 00000044H
	push	ebx
	push	esi
	push	edi
	mov	DWORD PTR _this$[ebp], ecx

; 283  : 	return m_Memory[ i ];

	mov	eax, DWORD PTR _i$[ebp]
	push	eax
	mov	ecx, DWORD PTR _this$[ebp]
	call	??A?$CUtlMemory@PADH@@QAEAAPADH@Z	; CUtlMemory<char *,int>::operator[]

; 284  : }

	pop	edi
	pop	esi
	pop	ebx
	mov	esp, ebp
	pop	ebp
	ret	4
??A?$CUtlArray@PADV?$CUtlMemory@PADH@@@@QAEAAPADH@Z ENDP ; CUtlArray<char *,CUtlMemory<char *,int> >::operator[]
_TEXT	ENDS
; Function compile flags: /Odtp /ZI
; File d:\!diffusion 2020\source code 2022\client-server\game_shared\utlarray.h
;	COMDAT ??1?$CUtlArray@PADV?$CUtlMemory@PADH@@@@QAE@XZ
_TEXT	SEGMENT
_this$ = -16						; size = 4
__$EHRec$ = -12						; size = 12
??1?$CUtlArray@PADV?$CUtlMemory@PADH@@@@QAE@XZ PROC	; CUtlArray<char *,CUtlMemory<char *,int> >::~CUtlArray<char *,CUtlMemory<char *,int> >, COMDAT
; _this$ = ecx

; 260  : {

	push	ebp
	mov	ebp, esp
	push	-1
	push	__ehhandler$??1?$CUtlArray@PADV?$CUtlMemory@PADH@@@@QAE@XZ
	mov	eax, DWORD PTR fs:0
	push	eax
	sub	esp, 68					; 00000044H
	push	ebx
	push	esi
	push	edi
	mov	eax, DWORD PTR ___security_cookie
	xor	eax, ebp
	push	eax
	lea	eax, DWORD PTR __$EHRec$[ebp]
	mov	DWORD PTR fs:0, eax
	mov	DWORD PTR _this$[ebp], ecx

; 261  : 	Purge();

	mov	ecx, DWORD PTR _this$[ebp]
	call	?Purge@?$CUtlArray@PADV?$CUtlMemory@PADH@@@@QAEXXZ ; CUtlArray<char *,CUtlMemory<char *,int> >::Purge

; 262  : }

	mov	ecx, DWORD PTR _this$[ebp]
	call	??1?$CUtlMemory@PADH@@QAE@XZ		; CUtlMemory<char *,int>::~CUtlMemory<char *,int>
	mov	ecx, DWORD PTR __$EHRec$[ebp]
	mov	DWORD PTR fs:0, ecx
	pop	ecx
	pop	edi
	pop	esi
	pop	ebx
	mov	esp, ebp
	pop	ebp
	ret	0
_TEXT	ENDS
;	COMDAT text$x
text$x	SEGMENT
__ehhandler$??1?$CUtlArray@PADV?$CUtlMemory@PADH@@@@QAE@XZ:
	mov	edx, DWORD PTR [esp+8]
	lea	eax, DWORD PTR [edx+12]
	mov	ecx, DWORD PTR [edx-84]
	xor	ecx, eax
	call	@__security_check_cookie@4
	mov	eax, OFFSET __ehfuncinfo$??1?$CUtlArray@PADV?$CUtlMemory@PADH@@@@QAE@XZ
	jmp	___CxxFrameHandler3
text$x	ENDS
??1?$CUtlArray@PADV?$CUtlMemory@PADH@@@@QAE@XZ ENDP	; CUtlArray<char *,CUtlMemory<char *,int> >::~CUtlArray<char *,CUtlMemory<char *,int> >
; Function compile flags: /Odtp /ZI
; File d:\!diffusion 2020\source code 2022\client-server\game_shared\utlarray.h
;	COMDAT ??0?$CUtlArray@PADV?$CUtlMemory@PADH@@@@QAE@HH@Z
_TEXT	SEGMENT
_this$ = -16						; size = 4
__$EHRec$ = -12						; size = 12
_growSize$ = 8						; size = 4
_initSize$ = 12						; size = 4
??0?$CUtlArray@PADV?$CUtlMemory@PADH@@@@QAE@HH@Z PROC	; CUtlArray<char *,CUtlMemory<char *,int> >::CUtlArray<char *,CUtlMemory<char *,int> >, COMDAT
; _this$ = ecx

; 247  : {

	push	ebp
	mov	ebp, esp
	push	-1
	push	__ehhandler$??0?$CUtlArray@PADV?$CUtlMemory@PADH@@@@QAE@HH@Z
	mov	eax, DWORD PTR fs:0
	push	eax
	sub	esp, 68					; 00000044H
	push	ebx
	push	esi
	push	edi
	mov	eax, DWORD PTR ___security_cookie
	xor	eax, ebp
	push	eax
	lea	eax, DWORD PTR __$EHRec$[ebp]
	mov	DWORD PTR fs:0, eax
	mov	DWORD PTR _this$[ebp], ecx

; 246  : 	m_Memory(growSize, initSize), m_Size(0)

	mov	eax, DWORD PTR _initSize$[ebp]
	push	eax
	mov	ecx, DWORD PTR _growSize$[ebp]
	push	ecx
	mov	ecx, DWORD PTR _this$[ebp]
	call	??0?$CUtlMemory@PADH@@QAE@HH@Z		; CUtlMemory<char *,int>::CUtlMemory<char *,int>
	mov	DWORD PTR __$EHRec$[ebp+8], 0
	mov	eax, DWORD PTR _this$[ebp]
	mov	DWORD PTR [eax+12], 0

; 248  : 	ResetDbgInfo();

	mov	ecx, DWORD PTR _this$[ebp]
	call	?ResetDbgInfo@?$CUtlArray@PADV?$CUtlMemory@PADH@@@@IAEXXZ ; CUtlArray<char *,CUtlMemory<char *,int> >::ResetDbgInfo

; 249  : }

	mov	DWORD PTR __$EHRec$[ebp+8], -1
	mov	eax, DWORD PTR _this$[ebp]
	mov	ecx, DWORD PTR __$EHRec$[ebp]
	mov	DWORD PTR fs:0, ecx
	pop	ecx
	pop	edi
	pop	esi
	pop	ebx
	mov	esp, ebp
	pop	ebp
	ret	8
_TEXT	ENDS
;	COMDAT text$x
text$x	SEGMENT
__unwindfunclet$??0?$CUtlArray@PADV?$CUtlMemory@PADH@@@@QAE@HH@Z$0:
	mov	ecx, DWORD PTR _this$[ebp]
	jmp	??1?$CUtlMemory@PADH@@QAE@XZ		; CUtlMemory<char *,int>::~CUtlMemory<char *,int>
__ehhandler$??0?$CUtlArray@PADV?$CUtlMemory@PADH@@@@QAE@HH@Z:
	mov	edx, DWORD PTR [esp+8]
	lea	eax, DWORD PTR [edx+12]
	mov	ecx, DWORD PTR [edx-84]
	xor	ecx, eax
	call	@__security_check_cookie@4
	mov	eax, OFFSET __ehfuncinfo$??0?$CUtlArray@PADV?$CUtlMemory@PADH@@@@QAE@HH@Z
	jmp	___CxxFrameHandler3
text$x	ENDS
??0?$CUtlArray@PADV?$CUtlMemory@PADH@@@@QAE@HH@Z ENDP	; CUtlArray<char *,CUtlMemory<char *,int> >::CUtlArray<char *,CUtlMemory<char *,int> >
; Function compile flags: /Odtp /ZI
; File d:\!diffusion 2020\source code 2022\client-server\common\datamap.h
;	COMDAT ?GenerateName@CDatadescGeneratedNameHolder@@QAEPBDPBD@Z
_TEXT	SEGMENT
$T1 = -76						; size = 4
_pBuf$ = -8						; size = 4
_this$ = -4						; size = 4
_pszIdentifier$ = 8					; size = 4
?GenerateName@CDatadescGeneratedNameHolder@@QAEPBDPBD@Z PROC ; CDatadescGeneratedNameHolder::GenerateName, COMDAT
; _this$ = ecx

; 207  : 	{

	push	ebp
	mov	ebp, esp
	sub	esp, 76					; 0000004cH
	push	ebx
	push	esi
	push	edi
	mov	DWORD PTR _this$[ebp], ecx

; 208  : 		char *pBuf = new char[m_nLenBase + strlen(pszIdentifier) + 1];

	mov	eax, DWORD PTR _pszIdentifier$[ebp]
	push	eax
	call	_strlen
	add	esp, 4
	mov	ecx, DWORD PTR _this$[ebp]
	mov	edx, DWORD PTR [ecx+4]
	lea	eax, DWORD PTR [edx+eax+1]
	push	eax
	call	??_U@YAPAXI@Z				; operator new[]
	add	esp, 4
	mov	DWORD PTR $T1[ebp], eax
	mov	ecx, DWORD PTR $T1[ebp]
	mov	DWORD PTR _pBuf$[ebp], ecx

; 209  : 		sprintf( pBuf, "%s::", m_pszBase );

	mov	eax, DWORD PTR _this$[ebp]
	mov	ecx, DWORD PTR [eax]
	push	ecx
	push	OFFSET ??_C@_04EFCDBJNL@?$CFs?3?3?$AA@
	mov	edx, DWORD PTR _pBuf$[ebp]
	push	edx
	call	_sprintf
	add	esp, 12					; 0000000cH

; 210  : 		strcat( pBuf, pszIdentifier );

	mov	eax, DWORD PTR _pszIdentifier$[ebp]
	push	eax
	mov	ecx, DWORD PTR _pBuf$[ebp]
	push	ecx
	call	_strcat
	add	esp, 8

; 211  : 		m_Names.AddToTail( pBuf );

	lea	eax, DWORD PTR _pBuf$[ebp]
	push	eax
	mov	ecx, DWORD PTR _this$[ebp]
	add	ecx, 8
	call	?AddToTail@?$CUtlArray@PADV?$CUtlMemory@PADH@@@@QAEHABQAD@Z ; CUtlArray<char *,CUtlMemory<char *,int> >::AddToTail

; 212  : 		return pBuf;

	mov	eax, DWORD PTR _pBuf$[ebp]

; 213  : 	}

	pop	edi
	pop	esi
	pop	ebx
	mov	esp, ebp
	pop	ebp
	ret	4
?GenerateName@CDatadescGeneratedNameHolder@@QAEPBDPBD@Z ENDP ; CDatadescGeneratedNameHolder::GenerateName
_TEXT	ENDS
; Function compile flags: /Odtp /ZI
; File d:\!diffusion 2020\source code 2022\client-server\common\datamap.h
;	COMDAT ??1CDatadescGeneratedNameHolder@@QAE@XZ
_TEXT	SEGMENT
$T2 = -88						; size = 4
_i$3 = -20						; size = 4
_this$ = -16						; size = 4
__$EHRec$ = -12						; size = 12
??1CDatadescGeneratedNameHolder@@QAE@XZ PROC		; CDatadescGeneratedNameHolder::~CDatadescGeneratedNameHolder, COMDAT
; _this$ = ecx

; 199  : 	{

	push	ebp
	mov	ebp, esp
	push	-1
	push	__ehhandler$??1CDatadescGeneratedNameHolder@@QAE@XZ
	mov	eax, DWORD PTR fs:0
	push	eax
	sub	esp, 76					; 0000004cH
	push	ebx
	push	esi
	push	edi
	mov	eax, DWORD PTR ___security_cookie
	xor	eax, ebp
	push	eax
	lea	eax, DWORD PTR __$EHRec$[ebp]
	mov	DWORD PTR fs:0, eax
	mov	DWORD PTR _this$[ebp], ecx

; 200  : 		for( int i = 0; i < m_Names.Count(); i++ )

	mov	DWORD PTR _i$3[ebp], 0
	jmp	SHORT $LN4@CDatadescG
$LN2@CDatadescG:
	mov	eax, DWORD PTR _i$3[ebp]
	add	eax, 1
	mov	DWORD PTR _i$3[ebp], eax
$LN4@CDatadescG:
	mov	ecx, DWORD PTR _this$[ebp]
	add	ecx, 8
	call	?Count@?$CUtlArray@PADV?$CUtlMemory@PADH@@@@QBEHXZ ; CUtlArray<char *,CUtlMemory<char *,int> >::Count
	cmp	DWORD PTR _i$3[ebp], eax
	jge	SHORT $LN1@CDatadescG

; 201  : 		{
; 202  : 			delete m_Names[i];

	mov	eax, DWORD PTR _i$3[ebp]
	push	eax
	mov	ecx, DWORD PTR _this$[ebp]
	add	ecx, 8
	call	??A?$CUtlArray@PADV?$CUtlMemory@PADH@@@@QAEAAPADH@Z ; CUtlArray<char *,CUtlMemory<char *,int> >::operator[]
	mov	ecx, DWORD PTR [eax]
	mov	DWORD PTR $T2[ebp], ecx
	push	1
	mov	edx, DWORD PTR $T2[ebp]
	push	edx
	call	??3@YAXPAXI@Z				; operator delete
	add	esp, 8

; 203  : 		}

	jmp	SHORT $LN2@CDatadescG
$LN1@CDatadescG:

; 204  : 	}

	mov	ecx, DWORD PTR _this$[ebp]
	add	ecx, 8
	call	??1?$CUtlArray@PADV?$CUtlMemory@PADH@@@@QAE@XZ ; CUtlArray<char *,CUtlMemory<char *,int> >::~CUtlArray<char *,CUtlMemory<char *,int> >
	mov	ecx, DWORD PTR __$EHRec$[ebp]
	mov	DWORD PTR fs:0, ecx
	pop	ecx
	pop	edi
	pop	esi
	pop	ebx
	mov	esp, ebp
	pop	ebp
	ret	0
_TEXT	ENDS
;	COMDAT text$x
text$x	SEGMENT
__ehhandler$??1CDatadescGeneratedNameHolder@@QAE@XZ:
	mov	edx, DWORD PTR [esp+8]
	lea	eax, DWORD PTR [edx+12]
	mov	ecx, DWORD PTR [edx-92]
	xor	ecx, eax
	call	@__security_check_cookie@4
	mov	eax, OFFSET __ehfuncinfo$??1CDatadescGeneratedNameHolder@@QAE@XZ
	jmp	___CxxFrameHandler3
text$x	ENDS
??1CDatadescGeneratedNameHolder@@QAE@XZ ENDP		; CDatadescGeneratedNameHolder::~CDatadescGeneratedNameHolder
; Function compile flags: /Odtp /ZI
; File d:\!diffusion 2020\source code 2022\client-server\common\datamap.h
;	COMDAT ??0CDatadescGeneratedNameHolder@@QAE@PBD@Z
_TEXT	SEGMENT
_this$ = -4						; size = 4
_pszBase$ = 8						; size = 4
??0CDatadescGeneratedNameHolder@@QAE@PBD@Z PROC		; CDatadescGeneratedNameHolder::CDatadescGeneratedNameHolder, COMDAT
; _this$ = ecx

; 194  : 	{

	push	ebp
	mov	ebp, esp
	sub	esp, 68					; 00000044H
	push	ebx
	push	esi
	push	edi
	mov	DWORD PTR _this$[ebp], ecx

; 193  : 	CDatadescGeneratedNameHolder( const char *pszBase ) : m_pszBase(pszBase)

	mov	eax, DWORD PTR _this$[ebp]
	mov	ecx, DWORD PTR _pszBase$[ebp]
	mov	DWORD PTR [eax], ecx

; 194  : 	{

	push	0
	push	0
	mov	ecx, DWORD PTR _this$[ebp]
	add	ecx, 8
	call	??0?$CUtlArray@PADV?$CUtlMemory@PADH@@@@QAE@HH@Z ; CUtlArray<char *,CUtlMemory<char *,int> >::CUtlArray<char *,CUtlMemory<char *,int> >

; 195  : 		m_nLenBase = strlen( m_pszBase ) + 2;

	mov	eax, DWORD PTR _this$[ebp]
	mov	ecx, DWORD PTR [eax]
	push	ecx
	call	_strlen
	add	esp, 4
	add	eax, 2
	mov	edx, DWORD PTR _this$[ebp]
	mov	DWORD PTR [edx+4], eax

; 196  : 	}

	mov	eax, DWORD PTR _this$[ebp]
	pop	edi
	pop	esi
	pop	ebx
	mov	esp, ebp
	pop	ebp
	ret	4
??0CDatadescGeneratedNameHolder@@QAE@PBD@Z ENDP		; CDatadescGeneratedNameHolder::CDatadescGeneratedNameHolder
_TEXT	ENDS
; Function compile flags: /Odtp /ZI
; File d:\!diffusion 2020\source code 2022\client-server\game_shared\utlmemory.h
;	COMDAT ?UtlMemory_CalcNewAllocationCount@@YAHHHHH@Z
_TEXT	SEGMENT
_nAllocationCount$ = 8					; size = 4
_nGrowSize$ = 12					; size = 4
_nNewSize$ = 16						; size = 4
_nBytesItem$ = 20					; size = 4
?UtlMemory_CalcNewAllocationCount@@YAHHHHH@Z PROC	; UtlMemory_CalcNewAllocationCount, COMDAT

; 528  : {

	push	ebp
	mov	ebp, esp
	sub	esp, 64					; 00000040H
	push	ebx
	push	esi
	push	edi

; 529  : 	if ( nGrowSize )

	cmp	DWORD PTR _nGrowSize$[ebp], 0
	je	SHORT $LN4@UtlMemory_

; 530  : 	{ 
; 531  : 		nAllocationCount = ((1 + ((nNewSize - 1) / nGrowSize)) * nGrowSize);

	mov	eax, DWORD PTR _nNewSize$[ebp]
	sub	eax, 1
	cdq
	idiv	DWORD PTR _nGrowSize$[ebp]
	add	eax, 1
	imul	eax, DWORD PTR _nGrowSize$[ebp]
	mov	DWORD PTR _nAllocationCount$[ebp], eax

; 532  : 	}
; 533  : 	else 

	jmp	SHORT $LN5@UtlMemory_
$LN4@UtlMemory_:

; 534  : 	{
; 535  : 		if ( !nAllocationCount )

	cmp	DWORD PTR _nAllocationCount$[ebp], 0
	jne	SHORT $LN2@UtlMemory_

; 536  : 		{
; 537  : 			// Compute an allocation which is at least as big as a cache line...
; 538  : 			nAllocationCount = (31 + nBytesItem) / nBytesItem;

	mov	eax, DWORD PTR _nBytesItem$[ebp]
	add	eax, 31					; 0000001fH
	cdq
	idiv	DWORD PTR _nBytesItem$[ebp]
	mov	DWORD PTR _nAllocationCount$[ebp], eax
$LN2@UtlMemory_:

; 539  : 		}
; 540  : 
; 541  : 		while (nAllocationCount < nNewSize)

	mov	eax, DWORD PTR _nAllocationCount$[ebp]
	cmp	eax, DWORD PTR _nNewSize$[ebp]
	jge	SHORT $LN5@UtlMemory_

; 542  : 		{
; 543  : #ifndef _X360
; 544  : 			nAllocationCount *= 2;

	mov	eax, DWORD PTR _nAllocationCount$[ebp]
	shl	eax, 1
	mov	DWORD PTR _nAllocationCount$[ebp], eax

; 545  : #else
; 546  : 			int nNewAllocationCount = ( nAllocationCount * 9) / 8; // 12.5 %
; 547  : 			if ( nNewAllocationCount > nAllocationCount )
; 548  : 				nAllocationCount = nNewAllocationCount;
; 549  : 			else
; 550  : 				nAllocationCount *= 2;
; 551  : #endif
; 552  : 		}

	jmp	SHORT $LN2@UtlMemory_
$LN5@UtlMemory_:

; 553  : 	}
; 554  : 
; 555  : 	return nAllocationCount;

	mov	eax, DWORD PTR _nAllocationCount$[ebp]

; 556  : }

	pop	edi
	pop	esi
	pop	ebx
	mov	esp, ebp
	pop	ebp
	ret	0
?UtlMemory_CalcNewAllocationCount@@YAHHHHH@Z ENDP	; UtlMemory_CalcNewAllocationCount
_TEXT	ENDS
; Function compile flags: /Odtp /ZI
; File c:\program files (x86)\microsoft visual studio 14.0\vc\include\vcruntime_new.h
;	COMDAT ??2@YAPAXIPAX@Z
_TEXT	SEGMENT
__Size$ = 8						; size = 4
__Where$ = 12						; size = 4
??2@YAPAXIPAX@Z PROC					; operator new, COMDAT

; 87   :     {

	push	ebp
	mov	ebp, esp
	sub	esp, 64					; 00000040H
	push	ebx
	push	esi
	push	edi

; 88   :         (void)_Size;
; 89   :         return _Where;

	mov	eax, DWORD PTR __Where$[ebp]

; 90   :     }

	pop	edi
	pop	esi
	pop	ebx
	mov	esp, ebp
	pop	ebp
	ret	0
??2@YAPAXIPAX@Z ENDP					; operator new
_TEXT	ENDS
; Function compile flags: /Odtp /ZI
; File d:\!diffusion 2020\source code 2022\client-server\server\enginecallback.h
;	COMDAT ?GET_PRIVATE@@YAPAXPAUedict_s@@@Z
_TEXT	SEGMENT
_pent$ = 8						; size = 4
?GET_PRIVATE@@YAPAXPAUedict_s@@@Z PROC			; GET_PRIVATE, COMDAT

; 106  : {

	push	ebp
	mov	ebp, esp
	sub	esp, 64					; 00000040H
	push	ebx
	push	esi
	push	edi

; 107  : 	if ( pent )

	cmp	DWORD PTR _pent$[ebp], 0
	je	SHORT $LN2@GET_PRIVAT

; 108  : 		return pent->pvPrivateData;

	mov	eax, DWORD PTR _pent$[ebp]
	mov	eax, DWORD PTR [eax+124]
	jmp	SHORT $LN1@GET_PRIVAT
$LN2@GET_PRIVAT:

; 109  : 	return NULL;

	xor	eax, eax
$LN1@GET_PRIVAT:

; 110  : }

	pop	edi
	pop	esi
	pop	ebx
	mov	esp, ebp
	pop	ebp
	ret	0
?GET_PRIVATE@@YAPAXPAUedict_s@@@Z ENDP			; GET_PRIVATE
_TEXT	ENDS
; Function compile flags: /Odtp /ZI
; File d:\!diffusion 2020\source code 2022\client-server\server\enginecallback.h
;	COMDAT ?MESSAGE_BEGIN@@YAXHHPBMPAUedict_s@@@Z
_TEXT	SEGMENT
_msg_dest$ = 8						; size = 4
_msg_type$ = 12						; size = 4
_pOrigin$ = 16						; size = 4
_ed$ = 20						; size = 4
?MESSAGE_BEGIN@@YAXHHPBMPAUedict_s@@@Z PROC		; MESSAGE_BEGIN, COMDAT

; 72   : inline void MESSAGE_BEGIN( int msg_dest, int msg_type, const float *pOrigin = NULL, edict_t *ed = NULL ) {

	push	ebp
	mov	ebp, esp
	sub	esp, 64					; 00000040H
	push	ebx
	push	esi
	push	edi

; 73   : 	(*g_engfuncs.pfnMessageBegin)(msg_dest, msg_type, pOrigin, ed);

	mov	eax, DWORD PTR _ed$[ebp]
	push	eax
	mov	ecx, DWORD PTR _pOrigin$[ebp]
	push	ecx
	mov	edx, DWORD PTR _msg_type$[ebp]
	push	edx
	mov	eax, DWORD PTR _msg_dest$[ebp]
	push	eax
	call	DWORD PTR ?g_engfuncs@@3Uenginefuncs_s@@A+184
	add	esp, 16					; 00000010H

; 74   : }

	pop	edi
	pop	esi
	pop	ebx
	mov	esp, ebp
	pop	ebp
	ret	0
?MESSAGE_BEGIN@@YAXHHPBMPAUedict_s@@@Z ENDP		; MESSAGE_BEGIN
_TEXT	ENDS
; Function compile flags: /Odtp /ZI
;	COMDAT ??0gametrace_s@@QAE@$$QAU0@@Z
_TEXT	SEGMENT
_this$ = -4						; size = 4
___that$ = 8						; size = 4
??0gametrace_s@@QAE@$$QAU0@@Z PROC			; gametrace_s::gametrace_s, COMDAT
; _this$ = ecx
	push	ebp
	mov	ebp, esp
	sub	esp, 68					; 00000044H
	push	ebx
	push	esi
	push	edi
	mov	DWORD PTR _this$[ebp], ecx
	mov	eax, DWORD PTR _this$[ebp]
	mov	ecx, DWORD PTR ___that$[ebp]
	mov	edx, DWORD PTR [ecx]
	mov	DWORD PTR [eax], edx
	mov	eax, DWORD PTR _this$[ebp]
	mov	ecx, DWORD PTR ___that$[ebp]
	mov	edx, DWORD PTR [ecx+4]
	mov	DWORD PTR [eax+4], edx
	mov	eax, DWORD PTR _this$[ebp]
	mov	ecx, DWORD PTR ___that$[ebp]
	mov	edx, DWORD PTR [ecx+8]
	mov	DWORD PTR [eax+8], edx
	mov	eax, DWORD PTR _this$[ebp]
	mov	ecx, DWORD PTR ___that$[ebp]
	mov	edx, DWORD PTR [ecx+12]
	mov	DWORD PTR [eax+12], edx
	mov	eax, DWORD PTR _this$[ebp]
	mov	ecx, DWORD PTR ___that$[ebp]
	mov	edx, DWORD PTR [ecx+16]
	mov	DWORD PTR [eax+16], edx
	mov	eax, DWORD PTR ___that$[ebp]
	add	eax, 20					; 00000014H
	push	eax
	mov	ecx, DWORD PTR _this$[ebp]
	add	ecx, 20					; 00000014H
	call	??0Vector@@QAE@ABV0@@Z			; Vector::Vector
	mov	eax, DWORD PTR _this$[ebp]
	mov	ecx, DWORD PTR ___that$[ebp]
	mov	edx, DWORD PTR [ecx+32]
	mov	DWORD PTR [eax+32], edx
	mov	eax, DWORD PTR ___that$[ebp]
	add	eax, 36					; 00000024H
	push	eax
	mov	ecx, DWORD PTR _this$[ebp]
	add	ecx, 36					; 00000024H
	call	??0Vector@@QAE@ABV0@@Z			; Vector::Vector
	mov	eax, DWORD PTR _this$[ebp]
	mov	ecx, DWORD PTR ___that$[ebp]
	mov	edx, DWORD PTR [ecx+48]
	mov	DWORD PTR [eax+48], edx
	mov	eax, DWORD PTR _this$[ebp]
	mov	ecx, DWORD PTR ___that$[ebp]
	mov	edx, DWORD PTR [ecx+52]
	mov	DWORD PTR [eax+52], edx
	mov	eax, DWORD PTR _this$[ebp]
	pop	edi
	pop	esi
	pop	ebx
	mov	esp, ebp
	pop	ebp
	ret	4
??0gametrace_s@@QAE@$$QAU0@@Z ENDP			; gametrace_s::gametrace_s
_TEXT	ENDS
; Function compile flags: /Odtp /ZI
;	COMDAT ??0gametrace_s@@QAE@XZ
_TEXT	SEGMENT
_this$ = -4						; size = 4
??0gametrace_s@@QAE@XZ PROC				; gametrace_s::gametrace_s, COMDAT
; _this$ = ecx
	push	ebp
	mov	ebp, esp
	sub	esp, 68					; 00000044H
	push	ebx
	push	esi
	push	edi
	mov	DWORD PTR _this$[ebp], ecx
	mov	ecx, DWORD PTR _this$[ebp]
	add	ecx, 20					; 00000014H
	call	??0Vector@@QAE@XZ			; Vector::Vector
	mov	ecx, DWORD PTR _this$[ebp]
	add	ecx, 36					; 00000024H
	call	??0Vector@@QAE@XZ			; Vector::Vector
	mov	eax, DWORD PTR _this$[ebp]
	pop	edi
	pop	esi
	pop	ebx
	mov	esp, ebp
	pop	ebp
	ret	0
??0gametrace_s@@QAE@XZ ENDP				; gametrace_s::gametrace_s
_TEXT	ENDS
; Function compile flags: /Odtp /ZI
; File d:\!diffusion 2020\source code 2022\client-server\game_shared\vector.h
;	COMDAT ??BVector@@QAEPAMXZ
_TEXT	SEGMENT
_this$ = -4						; size = 4
??BVector@@QAEPAMXZ PROC				; Vector::operator float *, COMDAT
; _this$ = ecx

; 247  : 	operator float *()				{ return &x; } // Vectors will now automatically convert to float * when needed

	push	ebp
	mov	ebp, esp
	sub	esp, 68					; 00000044H
	push	ebx
	push	esi
	push	edi
	mov	DWORD PTR _this$[ebp], ecx
	mov	eax, DWORD PTR _this$[ebp]
	pop	edi
	pop	esi
	pop	ebx
	mov	esp, ebp
	pop	ebp
	ret	0
??BVector@@QAEPAMXZ ENDP				; Vector::operator float *
_TEXT	ENDS
; Function compile flags: /Odtp /ZI
; File d:\!diffusion 2020\source code 2022\client-server\game_shared\vector.h
;	COMDAT ?Length@Vector@@QBEMXZ
_TEXT	SEGMENT
tv91 = -72						; size = 4
_this$ = -4						; size = 4
?Length@Vector@@QBEMXZ PROC				; Vector::Length, COMDAT
; _this$ = ecx

; 245  : 	inline float Length(void) const		{ return sqrt( x*x + y*y + z*z ); }

	push	ebp
	mov	ebp, esp
	sub	esp, 72					; 00000048H
	push	ebx
	push	esi
	push	edi
	mov	DWORD PTR _this$[ebp], ecx
	mov	eax, DWORD PTR _this$[ebp]
	mov	ecx, DWORD PTR _this$[ebp]
	movss	xmm0, DWORD PTR [eax]
	mulss	xmm0, DWORD PTR [ecx]
	mov	edx, DWORD PTR _this$[ebp]
	mov	eax, DWORD PTR _this$[ebp]
	movss	xmm1, DWORD PTR [edx+4]
	mulss	xmm1, DWORD PTR [eax+4]
	addss	xmm0, xmm1
	mov	ecx, DWORD PTR _this$[ebp]
	mov	edx, DWORD PTR _this$[ebp]
	movss	xmm1, DWORD PTR [ecx+8]
	mulss	xmm1, DWORD PTR [edx+8]
	addss	xmm0, xmm1
	cvtss2sd xmm0, xmm0
	sub	esp, 8
	movsd	QWORD PTR [esp], xmm0
	call	_sqrt
	add	esp, 8
	fstp	DWORD PTR tv91[ebp]
	fld	DWORD PTR tv91[ebp]
	pop	edi
	pop	esi
	pop	ebx
	mov	esp, ebp
	pop	ebp
	ret	0
?Length@Vector@@QBEMXZ ENDP				; Vector::Length
_TEXT	ENDS
; Function compile flags: /Odtp /ZI
; File d:\!diffusion 2020\source code 2022\client-server\game_shared\vector.h
;	COMDAT ?CopyToArray@Vector@@QBEXPAM@Z
_TEXT	SEGMENT
_this$ = -4						; size = 4
_rgfl$ = 8						; size = 4
?CopyToArray@Vector@@QBEXPAM@Z PROC			; Vector::CopyToArray, COMDAT
; _this$ = ecx

; 244  : 	inline void CopyToArray( float *rgfl ) const	{ rgfl[0] = x, rgfl[1] = y, rgfl[2] = z; }

	push	ebp
	mov	ebp, esp
	sub	esp, 68					; 00000044H
	push	ebx
	push	esi
	push	edi
	mov	DWORD PTR _this$[ebp], ecx
	mov	eax, 4
	imul	ecx, eax, 0
	mov	edx, DWORD PTR _rgfl$[ebp]
	mov	eax, DWORD PTR _this$[ebp]
	mov	eax, DWORD PTR [eax]
	mov	DWORD PTR [edx+ecx], eax
	mov	ecx, 4
	shl	ecx, 0
	mov	edx, DWORD PTR _rgfl$[ebp]
	mov	eax, DWORD PTR _this$[ebp]
	mov	eax, DWORD PTR [eax+4]
	mov	DWORD PTR [edx+ecx], eax
	mov	ecx, 4
	shl	ecx, 1
	mov	edx, DWORD PTR _rgfl$[ebp]
	mov	eax, DWORD PTR _this$[ebp]
	mov	eax, DWORD PTR [eax+8]
	mov	DWORD PTR [edx+ecx], eax
	pop	edi
	pop	esi
	pop	ebx
	mov	esp, ebp
	pop	ebp
	ret	4
?CopyToArray@Vector@@QBEXPAM@Z ENDP			; Vector::CopyToArray
_TEXT	ENDS
; Function compile flags: /Odtp /ZI
; File d:\!diffusion 2020\source code 2022\client-server\game_shared\vector.h
;	COMDAT ??DVector@@QBE?AV0@M@Z
_TEXT	SEGMENT
_this$ = -4						; size = 4
___$ReturnUdt$ = 8					; size = 4
_fl$ = 12						; size = 4
??DVector@@QBE?AV0@M@Z PROC				; Vector::operator*, COMDAT
; _this$ = ecx

; 162  : 	inline Vector operator*(float fl) const		{ return Vector(x*fl, y*fl, z*fl);	   }

	push	ebp
	mov	ebp, esp
	sub	esp, 68					; 00000044H
	push	ebx
	push	esi
	push	edi
	mov	DWORD PTR _this$[ebp], ecx
	mov	eax, DWORD PTR _this$[ebp]
	movss	xmm0, DWORD PTR [eax+8]
	mulss	xmm0, DWORD PTR _fl$[ebp]
	push	ecx
	movss	DWORD PTR [esp], xmm0
	mov	ecx, DWORD PTR _this$[ebp]
	movss	xmm0, DWORD PTR [ecx+4]
	mulss	xmm0, DWORD PTR _fl$[ebp]
	push	ecx
	movss	DWORD PTR [esp], xmm0
	mov	edx, DWORD PTR _this$[ebp]
	movss	xmm0, DWORD PTR [edx]
	mulss	xmm0, DWORD PTR _fl$[ebp]
	push	ecx
	movss	DWORD PTR [esp], xmm0
	mov	ecx, DWORD PTR ___$ReturnUdt$[ebp]
	call	??0Vector@@QAE@MMM@Z			; Vector::Vector
	mov	eax, DWORD PTR ___$ReturnUdt$[ebp]
	pop	edi
	pop	esi
	pop	ebx
	mov	esp, ebp
	pop	ebp
	ret	8
??DVector@@QBE?AV0@M@Z ENDP				; Vector::operator*
_TEXT	ENDS
; Function compile flags: /Odtp /ZI
; File d:\!diffusion 2020\source code 2022\client-server\game_shared\vector.h
;	COMDAT ??GVector@@QBE?AV0@ABV0@@Z
_TEXT	SEGMENT
_this$ = -4						; size = 4
___$ReturnUdt$ = 8					; size = 4
_v$ = 12						; size = 4
??GVector@@QBE?AV0@ABV0@@Z PROC				; Vector::operator-, COMDAT
; _this$ = ecx

; 159  : 	inline Vector operator-(const Vector& v) const	{ return Vector(x-v.x, y-v.y, z-v.z);	   }

	push	ebp
	mov	ebp, esp
	sub	esp, 68					; 00000044H
	push	ebx
	push	esi
	push	edi
	mov	DWORD PTR _this$[ebp], ecx
	mov	eax, DWORD PTR _this$[ebp]
	mov	ecx, DWORD PTR _v$[ebp]
	movss	xmm0, DWORD PTR [eax+8]
	subss	xmm0, DWORD PTR [ecx+8]
	push	ecx
	movss	DWORD PTR [esp], xmm0
	mov	edx, DWORD PTR _this$[ebp]
	mov	eax, DWORD PTR _v$[ebp]
	movss	xmm0, DWORD PTR [edx+4]
	subss	xmm0, DWORD PTR [eax+4]
	push	ecx
	movss	DWORD PTR [esp], xmm0
	mov	ecx, DWORD PTR _this$[ebp]
	mov	edx, DWORD PTR _v$[ebp]
	movss	xmm0, DWORD PTR [ecx]
	subss	xmm0, DWORD PTR [edx]
	push	ecx
	movss	DWORD PTR [esp], xmm0
	mov	ecx, DWORD PTR ___$ReturnUdt$[ebp]
	call	??0Vector@@QAE@MMM@Z			; Vector::Vector
	mov	eax, DWORD PTR ___$ReturnUdt$[ebp]
	pop	edi
	pop	esi
	pop	ebx
	mov	esp, ebp
	pop	ebp
	ret	8
??GVector@@QBE?AV0@ABV0@@Z ENDP				; Vector::operator-
_TEXT	ENDS
; Function compile flags: /Odtp /ZI
; File d:\!diffusion 2020\source code 2022\client-server\game_shared\vector.h
;	COMDAT ??HVector@@QBE?AV0@ABV0@@Z
_TEXT	SEGMENT
_this$ = -4						; size = 4
___$ReturnUdt$ = 8					; size = 4
_v$ = 12						; size = 4
??HVector@@QBE?AV0@ABV0@@Z PROC				; Vector::operator+, COMDAT
; _this$ = ecx

; 158  : 	inline Vector operator+(const Vector& v) const	{ return Vector(x+v.x, y+v.y, z+v.z);	   }

	push	ebp
	mov	ebp, esp
	sub	esp, 68					; 00000044H
	push	ebx
	push	esi
	push	edi
	mov	DWORD PTR _this$[ebp], ecx
	mov	eax, DWORD PTR _this$[ebp]
	mov	ecx, DWORD PTR _v$[ebp]
	movss	xmm0, DWORD PTR [eax+8]
	addss	xmm0, DWORD PTR [ecx+8]
	push	ecx
	movss	DWORD PTR [esp], xmm0
	mov	edx, DWORD PTR _this$[ebp]
	mov	eax, DWORD PTR _v$[ebp]
	movss	xmm0, DWORD PTR [edx+4]
	addss	xmm0, DWORD PTR [eax+4]
	push	ecx
	movss	DWORD PTR [esp], xmm0
	mov	ecx, DWORD PTR _this$[ebp]
	mov	edx, DWORD PTR _v$[ebp]
	movss	xmm0, DWORD PTR [ecx]
	addss	xmm0, DWORD PTR [edx]
	push	ecx
	movss	DWORD PTR [esp], xmm0
	mov	ecx, DWORD PTR ___$ReturnUdt$[ebp]
	call	??0Vector@@QAE@MMM@Z			; Vector::Vector
	mov	eax, DWORD PTR ___$ReturnUdt$[ebp]
	pop	edi
	pop	esi
	pop	ebx
	mov	esp, ebp
	pop	ebp
	ret	8
??HVector@@QBE?AV0@ABV0@@Z ENDP				; Vector::operator+
_TEXT	ENDS
; Function compile flags: /Odtp /ZI
; File d:\!diffusion 2020\source code 2022\client-server\game_shared\vector.h
;	COMDAT ??9Vector@@QBEHABV0@@Z
_TEXT	SEGMENT
tv68 = -72						; size = 4
_this$ = -4						; size = 4
_v$ = 8							; size = 4
??9Vector@@QBEHABV0@@Z PROC				; Vector::operator!=, COMDAT
; _this$ = ecx

; 157  : 	inline int operator!=(const Vector& v) const	{ return !(*this==v);		   }

	push	ebp
	mov	ebp, esp
	sub	esp, 72					; 00000048H
	push	ebx
	push	esi
	push	edi
	mov	DWORD PTR _this$[ebp], ecx
	mov	eax, DWORD PTR _v$[ebp]
	push	eax
	mov	ecx, DWORD PTR _this$[ebp]
	call	??8Vector@@QBEHABV0@@Z			; Vector::operator==
	test	eax, eax
	jne	SHORT $LN3@operator
	mov	DWORD PTR tv68[ebp], 1
	jmp	SHORT $LN4@operator
$LN3@operator:
	mov	DWORD PTR tv68[ebp], 0
$LN4@operator:
	mov	eax, DWORD PTR tv68[ebp]
	pop	edi
	pop	esi
	pop	ebx
	mov	esp, ebp
	pop	ebp
	ret	4
??9Vector@@QBEHABV0@@Z ENDP				; Vector::operator!=
_TEXT	ENDS
; Function compile flags: /Odtp /ZI
; File d:\!diffusion 2020\source code 2022\client-server\game_shared\vector.h
;	COMDAT ??8Vector@@QBEHABV0@@Z
_TEXT	SEGMENT
tv73 = -72						; size = 4
_this$ = -4						; size = 4
_v$ = 8							; size = 4
??8Vector@@QBEHABV0@@Z PROC				; Vector::operator==, COMDAT
; _this$ = ecx

; 156  : 	inline int operator==(const Vector& v) const	{ return x==v.x && y==v.y && z==v.z;	   }

	push	ebp
	mov	ebp, esp
	sub	esp, 72					; 00000048H
	push	ebx
	push	esi
	push	edi
	mov	DWORD PTR _this$[ebp], ecx
	mov	eax, DWORD PTR _this$[ebp]
	mov	ecx, DWORD PTR _v$[ebp]
	movss	xmm0, DWORD PTR [eax]
	ucomiss	xmm0, DWORD PTR [ecx]
	lahf
	test	ah, 68					; 00000044H
	jp	SHORT $LN3@operator
	mov	edx, DWORD PTR _this$[ebp]
	mov	eax, DWORD PTR _v$[ebp]
	movss	xmm0, DWORD PTR [edx+4]
	ucomiss	xmm0, DWORD PTR [eax+4]
	lahf
	test	ah, 68					; 00000044H
	jp	SHORT $LN3@operator
	mov	ecx, DWORD PTR _this$[ebp]
	mov	edx, DWORD PTR _v$[ebp]
	movss	xmm0, DWORD PTR [ecx+8]
	ucomiss	xmm0, DWORD PTR [edx+8]
	lahf
	test	ah, 68					; 00000044H
	jp	SHORT $LN3@operator
	mov	DWORD PTR tv73[ebp], 1
	jmp	SHORT $LN4@operator
$LN3@operator:
	mov	DWORD PTR tv73[ebp], 0
$LN4@operator:
	mov	eax, DWORD PTR tv73[ebp]
	pop	edi
	pop	esi
	pop	ebx
	mov	esp, ebp
	pop	ebp
	ret	4
??8Vector@@QBEHABV0@@Z ENDP				; Vector::operator==
_TEXT	ENDS
; Function compile flags: /Odtp /ZI
; File d:\!diffusion 2020\source code 2022\client-server\game_shared\vector.h
;	COMDAT ??0Vector@@QAE@ABV0@@Z
_TEXT	SEGMENT
_this$ = -4						; size = 4
_v$ = 8							; size = 4
??0Vector@@QAE@ABV0@@Z PROC				; Vector::Vector, COMDAT
; _this$ = ecx

; 145  : 	inline Vector(const Vector& v)		{ x = v.x; y = v.y; z = v.z;		   }

	push	ebp
	mov	ebp, esp
	sub	esp, 68					; 00000044H
	push	ebx
	push	esi
	push	edi
	mov	DWORD PTR _this$[ebp], ecx
	mov	eax, DWORD PTR _this$[ebp]
	mov	ecx, DWORD PTR _v$[ebp]
	mov	edx, DWORD PTR [ecx]
	mov	DWORD PTR [eax], edx
	mov	eax, DWORD PTR _this$[ebp]
	mov	ecx, DWORD PTR _v$[ebp]
	mov	edx, DWORD PTR [ecx+4]
	mov	DWORD PTR [eax+4], edx
	mov	eax, DWORD PTR _this$[ebp]
	mov	ecx, DWORD PTR _v$[ebp]
	mov	edx, DWORD PTR [ecx+8]
	mov	DWORD PTR [eax+8], edx
	mov	eax, DWORD PTR _this$[ebp]
	pop	edi
	pop	esi
	pop	ebx
	mov	esp, ebp
	pop	ebp
	ret	4
??0Vector@@QAE@ABV0@@Z ENDP				; Vector::Vector
_TEXT	ENDS
; Function compile flags: /Odtp /ZI
; File d:\!diffusion 2020\source code 2022\client-server\game_shared\vector.h
;	COMDAT ??0Vector@@QAE@MMM@Z
_TEXT	SEGMENT
_this$ = -4						; size = 4
_X$ = 8							; size = 4
_Y$ = 12						; size = 4
_Z$ = 16						; size = 4
??0Vector@@QAE@MMM@Z PROC				; Vector::Vector, COMDAT
; _this$ = ecx

; 144  : 	inline Vector(float X, float Y, float Z)	{ x = X; y = Y; z = Z;                     }

	push	ebp
	mov	ebp, esp
	sub	esp, 68					; 00000044H
	push	ebx
	push	esi
	push	edi
	mov	DWORD PTR _this$[ebp], ecx
	mov	eax, DWORD PTR _this$[ebp]
	movss	xmm0, DWORD PTR _X$[ebp]
	movss	DWORD PTR [eax], xmm0
	mov	eax, DWORD PTR _this$[ebp]
	movss	xmm0, DWORD PTR _Y$[ebp]
	movss	DWORD PTR [eax+4], xmm0
	mov	eax, DWORD PTR _this$[ebp]
	movss	xmm0, DWORD PTR _Z$[ebp]
	movss	DWORD PTR [eax+8], xmm0
	mov	eax, DWORD PTR _this$[ebp]
	pop	edi
	pop	esi
	pop	ebx
	mov	esp, ebp
	pop	ebp
	ret	12					; 0000000cH
??0Vector@@QAE@MMM@Z ENDP				; Vector::Vector
_TEXT	ENDS
; Function compile flags: /Odtp /ZI
; File d:\!diffusion 2020\source code 2022\client-server\game_shared\vector.h
;	COMDAT ??0Vector@@QAE@XZ
_TEXT	SEGMENT
_this$ = -4						; size = 4
??0Vector@@QAE@XZ PROC					; Vector::Vector, COMDAT
; _this$ = ecx

; 143  : 	inline Vector(void)				{ }

	push	ebp
	mov	ebp, esp
	sub	esp, 68					; 00000044H
	push	ebx
	push	esi
	push	edi
	mov	DWORD PTR _this$[ebp], ecx
	mov	eax, DWORD PTR _this$[ebp]
	pop	edi
	pop	esi
	pop	ebx
	mov	esp, ebp
	pop	ebp
	ret	0
??0Vector@@QAE@XZ ENDP					; Vector::Vector
_TEXT	ENDS
; Function compile flags: /Odtp /ZI
; File c:\program files (x86)\windows kits\10\include\10.0.10240.0\ucrt\stdio.h
;	COMDAT _sprintf
_TEXT	SEGMENT
__ArgList$ = -8						; size = 4
__Result$ = -4						; size = 4
__Buffer$ = 8						; size = 4
__Format$ = 12						; size = 4
_sprintf PROC						; COMDAT

; 1776 : {

	push	ebp
	mov	ebp, esp
	sub	esp, 72					; 00000048H
	push	ebx
	push	esi
	push	edi

; 1777 :     int _Result;
; 1778 :     va_list _ArgList;
; 1779 :     __crt_va_start(_ArgList, _Format);

	call	??$__vcrt_va_start_verify_argument_type@QBD@@YAXXZ ; __vcrt_va_start_verify_argument_type<char const * const>
	lea	eax, DWORD PTR __Format$[ebp+4]
	mov	DWORD PTR __ArgList$[ebp], eax

; 1780 : 
; 1781 :     #pragma warning(push)
; 1782 :     #pragma warning(disable: 4996) // Deprecation
; 1783 :     _Result = _vsprintf_l(_Buffer, _Format, NULL, _ArgList);

	mov	eax, DWORD PTR __ArgList$[ebp]
	push	eax
	push	0
	mov	ecx, DWORD PTR __Format$[ebp]
	push	ecx
	mov	edx, DWORD PTR __Buffer$[ebp]
	push	edx
	call	__vsprintf_l
	add	esp, 16					; 00000010H
	mov	DWORD PTR __Result$[ebp], eax

; 1784 :     #pragma warning(pop)
; 1785 : 
; 1786 :     __crt_va_end(_ArgList);

	mov	DWORD PTR __ArgList$[ebp], 0

; 1787 :     return _Result;

	mov	eax, DWORD PTR __Result$[ebp]

; 1788 : }

	pop	edi
	pop	esi
	pop	ebx
	mov	esp, ebp
	pop	ebp
	ret	0
_sprintf ENDP
_TEXT	ENDS
; Function compile flags: /Odtp /ZI
; File c:\program files (x86)\windows kits\10\include\10.0.10240.0\ucrt\stdio.h
;	COMDAT __vsprintf_l
_TEXT	SEGMENT
__Buffer$ = 8						; size = 4
__Format$ = 12						; size = 4
__Locale$ = 16						; size = 4
__ArgList$ = 20						; size = 4
__vsprintf_l PROC					; COMDAT

; 1455 : {

	push	ebp
	mov	ebp, esp
	sub	esp, 64					; 00000040H
	push	ebx
	push	esi
	push	edi

; 1456 :     #pragma warning(push)
; 1457 :     #pragma warning(disable: 4996) // Deprecation
; 1458 :     return _vsnprintf_l(_Buffer, (size_t)-1, _Format, _Locale, _ArgList);

	mov	eax, DWORD PTR __ArgList$[ebp]
	push	eax
	mov	ecx, DWORD PTR __Locale$[ebp]
	push	ecx
	mov	edx, DWORD PTR __Format$[ebp]
	push	edx
	push	-1
	mov	eax, DWORD PTR __Buffer$[ebp]
	push	eax
	call	__vsnprintf_l
	add	esp, 20					; 00000014H

; 1459 :     #pragma warning(pop)
; 1460 : }

	pop	edi
	pop	esi
	pop	ebx
	mov	esp, ebp
	pop	ebp
	ret	0
__vsprintf_l ENDP
_TEXT	ENDS
; Function compile flags: /Odtp /ZI
; File c:\program files (x86)\windows kits\10\include\10.0.10240.0\ucrt\stdio.h
;	COMDAT __vsnprintf_l
_TEXT	SEGMENT
tv74 = -72						; size = 4
__Result$ = -4						; size = 4
__Buffer$ = 8						; size = 4
__BufferCount$ = 12					; size = 4
__Format$ = 16						; size = 4
__Locale$ = 20						; size = 4
__ArgList$ = 24						; size = 4
__vsnprintf_l PROC					; COMDAT

; 1385 : {

	push	ebp
	mov	ebp, esp
	sub	esp, 72					; 00000048H
	push	ebx
	push	esi
	push	edi

; 1386 :     int const _Result = __stdio_common_vsprintf(

	mov	eax, DWORD PTR __ArgList$[ebp]
	push	eax
	mov	ecx, DWORD PTR __Locale$[ebp]
	push	ecx
	mov	edx, DWORD PTR __Format$[ebp]
	push	edx
	mov	eax, DWORD PTR __BufferCount$[ebp]
	push	eax
	mov	ecx, DWORD PTR __Buffer$[ebp]
	push	ecx
	call	___local_stdio_printf_options
	mov	edx, DWORD PTR [eax]
	or	edx, 1
	mov	eax, DWORD PTR [eax+4]
	push	eax
	push	edx
	call	___stdio_common_vsprintf
	add	esp, 28					; 0000001cH
	mov	DWORD PTR __Result$[ebp], eax

; 1387 :         _CRT_INTERNAL_LOCAL_PRINTF_OPTIONS | _CRT_INTERNAL_PRINTF_LEGACY_VSPRINTF_NULL_TERMINATION,
; 1388 :         _Buffer, _BufferCount, _Format, _Locale, _ArgList);
; 1389 : 
; 1390 :     return _Result < 0 ? -1 : _Result;

	cmp	DWORD PTR __Result$[ebp], 0
	jge	SHORT $LN3@vsnprintf_
	mov	DWORD PTR tv74[ebp], -1
	jmp	SHORT $LN4@vsnprintf_
$LN3@vsnprintf_:
	mov	eax, DWORD PTR __Result$[ebp]
	mov	DWORD PTR tv74[ebp], eax
$LN4@vsnprintf_:
	mov	eax, DWORD PTR tv74[ebp]

; 1391 : }

	pop	edi
	pop	esi
	pop	ebx
	mov	esp, ebp
	pop	ebp
	ret	0
__vsnprintf_l ENDP
_TEXT	ENDS
; Function compile flags: /Odtp /ZI
; File c:\program files (x86)\microsoft visual studio 14.0\vc\include\vadefs.h
;	COMDAT ??$__vcrt_va_start_verify_argument_type@QBD@@YAXXZ
_TEXT	SEGMENT
??$__vcrt_va_start_verify_argument_type@QBD@@YAXXZ PROC	; __vcrt_va_start_verify_argument_type<char const * const>, COMDAT

; 144  :         {

	push	ebp
	mov	ebp, esp
	sub	esp, 64					; 00000040H
	push	ebx
	push	esi
	push	edi

; 145  :             static_assert(!__vcrt_va_list_is_reference<_Ty>::__the_value, "va_start argument must not have reference type and must not be parenthesized");
; 146  :         }

	pop	edi
	pop	esi
	pop	ebx
	mov	esp, ebp
	pop	ebp
	ret	0
??$__vcrt_va_start_verify_argument_type@QBD@@YAXXZ ENDP	; __vcrt_va_start_verify_argument_type<char const * const>
_TEXT	ENDS
; Function compile flags: /Odtp /ZI
; File c:\program files (x86)\windows kits\10\include\10.0.10240.0\ucrt\corecrt_stdio_config.h
;	COMDAT ___local_stdio_printf_options
_TEXT	SEGMENT
___local_stdio_printf_options PROC			; COMDAT

; 73   : {

	push	ebp
	mov	ebp, esp
	sub	esp, 64					; 00000040H
	push	ebx
	push	esi
	push	edi

; 74   :     static unsigned __int64 _OptionsStorage;
; 75   :     return &_OptionsStorage;

	mov	eax, OFFSET ?_OptionsStorage@?1??__local_stdio_printf_options@@9@4_KA ; `__local_stdio_printf_options'::`2'::_OptionsStorage

; 76   : }

	pop	edi
	pop	esi
	pop	ebx
	mov	esp, ebp
	pop	ebp
	ret	0
___local_stdio_printf_options ENDP
_TEXT	ENDS
; Function compile flags: /Odtp /ZI
; File c:\program files (x86)\windows kits\10\include\10.0.10240.0\ucrt\string.h
;	COMDAT ?strstr@@YAPADQADQBD@Z
_TEXT	SEGMENT
__String$ = 8						; size = 4
__SubString$ = 12					; size = 4
?strstr@@YAPADQADQBD@Z PROC				; strstr, COMDAT

; 536  :     {

	push	ebp
	mov	ebp, esp
	sub	esp, 64					; 00000040H
	push	ebx
	push	esi
	push	edi

; 537  :         return const_cast<char*>(strstr(static_cast<char const*>(_String), _SubString));

	mov	eax, DWORD PTR __SubString$[ebp]
	push	eax
	mov	ecx, DWORD PTR __String$[ebp]
	push	ecx
	call	_strstr
	add	esp, 8

; 538  :     }

	pop	edi
	pop	esi
	pop	ebx
	mov	esp, ebp
	pop	ebp
	ret	0
?strstr@@YAPADQADQBD@Z ENDP				; strstr
_TEXT	ENDS
; Function compile flags: /Odtp /ZI
; File d:\!diffusion 2020\source code 2022\client-server\server\sound.cpp
;	COMDAT ?__empty_global_delete@@YAXPAXI@Z
_TEXT	SEGMENT
___formal$ = 8						; size = 4
___formal$ = 12						; size = 4
?__empty_global_delete@@YAXPAXI@Z PROC			; __empty_global_delete, COMDAT

; 2445 : }

	push	ebp
	mov	ebp, esp
	sub	esp, 64					; 00000040H
	push	ebx
	push	esi
	push	edi
	pop	edi
	pop	esi
	pop	ebx
	mov	esp, ebp
	pop	ebp
	ret	0
?__empty_global_delete@@YAXPAXI@Z ENDP			; __empty_global_delete
_TEXT	ENDS
; Function compile flags: /Odtp /ZI
; File d:\!diffusion 2020\source code 2022\client-server\server\sound.cpp
;	COMDAT ?__empty_global_delete@@YAXPAX@Z
_TEXT	SEGMENT
___formal$ = 8						; size = 4
?__empty_global_delete@@YAXPAX@Z PROC			; __empty_global_delete, COMDAT

; 2445 : }

	push	ebp
	mov	ebp, esp
	sub	esp, 64					; 00000040H
	push	ebx
	push	esi
	push	edi
	pop	edi
	pop	esi
	pop	ebx
	mov	esp, ebp
	pop	ebp
	ret	0
?__empty_global_delete@@YAXPAX@Z ENDP			; __empty_global_delete
_TEXT	ENDS
; Function compile flags: /Odtp /ZI
;	COMDAT ??__G@YGXPAX0IIP6EPAX00@Z@Z
_TEXT	SEGMENT
tv66 = -68						; size = 4
___t$ = 8						; size = 4
___u$ = 12						; size = 4
___s$ = 16						; size = 4
___n$ = 20						; size = 4
___f$ = 24						; size = 4
??__G@YGXPAX0IIP6EPAX00@Z@Z PROC			; `vector copy constructor iterator', COMDAT
	push	ebp
	mov	ebp, esp
	sub	esp, 68					; 00000044H
	push	ebx
	push	esi
	push	edi
$LN2@vector:
	mov	eax, DWORD PTR ___n$[ebp]
	mov	DWORD PTR tv66[ebp], eax
	mov	ecx, DWORD PTR ___n$[ebp]
	sub	ecx, 1
	mov	DWORD PTR ___n$[ebp], ecx
	cmp	DWORD PTR tv66[ebp], 0
	jbe	SHORT $LN1@vector
	mov	eax, DWORD PTR ___u$[ebp]
	push	eax
	mov	ecx, DWORD PTR ___t$[ebp]
	call	DWORD PTR ___f$[ebp]
	mov	eax, DWORD PTR ___t$[ebp]
	add	eax, DWORD PTR ___s$[ebp]
	mov	DWORD PTR ___t$[ebp], eax
	mov	eax, DWORD PTR ___u$[ebp]
	add	eax, DWORD PTR ___s$[ebp]
	mov	DWORD PTR ___u$[ebp], eax
	jmp	SHORT $LN2@vector
$LN1@vector:
	pop	edi
	pop	esi
	pop	ebx
	mov	esp, ebp
	pop	ebp
	ret	20					; 00000014H
??__G@YGXPAX0IIP6EPAX00@Z@Z ENDP			; `vector copy constructor iterator'
_TEXT	ENDS
; Function compile flags: /Odtp /ZI
;	COMDAT ??_H@YGXPAXIIP6EPAX0@Z@Z
_TEXT	SEGMENT
tv66 = -68						; size = 4
___t$ = 8						; size = 4
___s$ = 12						; size = 4
___n$ = 16						; size = 4
___f$ = 20						; size = 4
??_H@YGXPAXIIP6EPAX0@Z@Z PROC				; `vector constructor iterator', COMDAT
	push	ebp
	mov	ebp, esp
	sub	esp, 68					; 00000044H
	push	ebx
	push	esi
	push	edi
$LN2@vector:
	mov	eax, DWORD PTR ___n$[ebp]
	mov	DWORD PTR tv66[ebp], eax
	mov	ecx, DWORD PTR ___n$[ebp]
	sub	ecx, 1
	mov	DWORD PTR ___n$[ebp], ecx
	cmp	DWORD PTR tv66[ebp], 0
	jbe	SHORT $LN1@vector
	mov	ecx, DWORD PTR ___t$[ebp]
	call	DWORD PTR ___f$[ebp]
	mov	eax, DWORD PTR ___t$[ebp]
	add	eax, DWORD PTR ___s$[ebp]
	mov	DWORD PTR ___t$[ebp], eax
	jmp	SHORT $LN2@vector
$LN1@vector:
	pop	edi
	pop	esi
	pop	ebx
	mov	esp, ebp
	pop	ebp
	ret	16					; 00000010H
??_H@YGXPAXIIP6EPAX0@Z@Z ENDP				; `vector constructor iterator'
_TEXT	ENDS
END
