; Listing generated by Microsoft (R) Optimizing Compiler Version 19.00.24247.2 

	TITLE	D:\!DIFFUSION 2020\source code 2022\client-server\server\sound.cpp
	.686P
	.XMM
	include listing.inc
	.model	flat

INCLUDELIB LIBCMT
INCLUDELIB OLDNAMES

PUBLIC	??_C@_0BA@FPHDGFEO@m_flAttenuation?$AA@		; `string'
PUBLIC	??_C@_0M@NKGAHMMH@attenuation?$AA@		; `string'
PUBLIC	??_C@_09ONJFEJGN@m_fActive?$AA@			; `string'
PUBLIC	??_C@_0L@EFDJKFOK@m_fLooping?$AA@		; `string'
PUBLIC	??_C@_05NJMEMMLG@m_dpv?$AA@			; `string'
PUBLIC	?m_DataMap@CSpeaker@@2Udatamap_s@@A		; CSpeaker::m_DataMap
PUBLIC	??_C@_08IKHBFCDE@CSpeaker?$AA@			; `string'
PUBLIC	??_C@_08LPEJFCFP@m_preset?$AA@			; `string'
PUBLIC	??_C@_06OFAGBOBG@preset?$AA@			; `string'
PUBLIC	?m_DataMap@CEnvSound@@2Udatamap_s@@A		; CEnvSound::m_DataMap
PUBLIC	??_C@_09DJGFLIBI@CEnvSound?$AA@			; `string'
PUBLIC	??_C@_0L@OEEMMINI@m_flRadius?$AA@		; `string'
PUBLIC	??_C@_06KGHINEPG@radius?$AA@			; `string'
PUBLIC	??_C@_0N@EOOENLGB@m_flRoomtype?$AA@		; `string'
PUBLIC	??_C@_08FBOCMMDG@roomtype?$AA@			; `string'
PUBLIC	?rgsentenceg@@3PAUsentenceg@@A			; rgsentenceg
PUBLIC	?fSentencesInit@@3HA				; fSentencesInit
PUBLIC	?gszallsentencenames@@3PAY0CA@DA		; gszallsentencenames
PUBLIC	?gcallsentences@@3HA				; gcallsentences
PUBLIC	?rgdpvpreset@@3PAUdynpitchvol@@A		; rgdpvpreset
PUBLIC	?m_DataMap@CAmbientGeneric@@2Udatamap_s@@A	; CAmbientGeneric::m_DataMap
PUBLIC	?fTextureTypeInit@@3HA				; fTextureTypeInit
PUBLIC	?gcTextures@@3HA				; gcTextures
PUBLIC	?grgszTextureName@@3PAY0BI@DA			; grgszTextureName
PUBLIC	?grgchTextureType@@3PADA			; grgchTextureType
PUBLIC	??_C@_0BA@JFHJJCNE@CAmbientGeneric?$AA@		; `string'
_BSS	SEGMENT
?rgsentenceg@@3PAUsentenceg@@A DB 064000H DUP (?)	; rgsentenceg
?fSentencesInit@@3HA DD 01H DUP (?)			; fSentencesInit
?gszallsentencenames@@3PAY0CA@DA DB 020000H DUP (?)	; gszallsentencenames
?gcallsentences@@3HA DD 01H DUP (?)			; gcallsentences
?fTextureTypeInit@@3HA DD 01H DUP (?)			; fTextureTypeInit
?gcTextures@@3HA DD 01H DUP (?)				; gcTextures
?grgszTextureName@@3PAY0BI@DA DB 06000H DUP (?)		; grgszTextureName
?grgchTextureType@@3PADA DB 0400H DUP (?)		; grgchTextureType
_BSS	ENDS
;	COMDAT ??_C@_0BA@JFHJJCNE@CAmbientGeneric?$AA@
CONST	SEGMENT
??_C@_0BA@JFHJJCNE@CAmbientGeneric?$AA@ DB 'CAmbientGeneric', 00H ; `string'
CONST	ENDS
;	COMDAT ??_C@_08FBOCMMDG@roomtype?$AA@
CONST	SEGMENT
??_C@_08FBOCMMDG@roomtype?$AA@ DB 'roomtype', 00H	; `string'
CONST	ENDS
;	COMDAT ??_C@_0N@EOOENLGB@m_flRoomtype?$AA@
CONST	SEGMENT
??_C@_0N@EOOENLGB@m_flRoomtype?$AA@ DB 'm_flRoomtype', 00H ; `string'
CONST	ENDS
;	COMDAT ??_C@_06KGHINEPG@radius?$AA@
CONST	SEGMENT
??_C@_06KGHINEPG@radius?$AA@ DB 'radius', 00H		; `string'
CONST	ENDS
;	COMDAT ??_C@_0L@OEEMMINI@m_flRadius?$AA@
CONST	SEGMENT
??_C@_0L@OEEMMINI@m_flRadius?$AA@ DB 'm_flRadius', 00H	; `string'
CONST	ENDS
;	COMDAT ??_C@_09DJGFLIBI@CEnvSound?$AA@
CONST	SEGMENT
??_C@_09DJGFLIBI@CEnvSound?$AA@ DB 'CEnvSound', 00H	; `string'
CONST	ENDS
;	COMDAT ??_C@_06OFAGBOBG@preset?$AA@
CONST	SEGMENT
??_C@_06OFAGBOBG@preset?$AA@ DB 'preset', 00H		; `string'
CONST	ENDS
;	COMDAT ??_C@_08LPEJFCFP@m_preset?$AA@
CONST	SEGMENT
??_C@_08LPEJFCFP@m_preset?$AA@ DB 'm_preset', 00H	; `string'
CONST	ENDS
;	COMDAT ??_C@_08IKHBFCDE@CSpeaker?$AA@
CONST	SEGMENT
??_C@_08IKHBFCDE@CSpeaker?$AA@ DB 'CSpeaker', 00H	; `string'
CONST	ENDS
;	COMDAT ??_C@_05NJMEMMLG@m_dpv?$AA@
CONST	SEGMENT
??_C@_05NJMEMMLG@m_dpv?$AA@ DB 'm_dpv', 00H		; `string'
CONST	ENDS
;	COMDAT ??_C@_0L@EFDJKFOK@m_fLooping?$AA@
CONST	SEGMENT
??_C@_0L@EFDJKFOK@m_fLooping?$AA@ DB 'm_fLooping', 00H	; `string'
CONST	ENDS
;	COMDAT ??_C@_09ONJFEJGN@m_fActive?$AA@
CONST	SEGMENT
??_C@_09ONJFEJGN@m_fActive?$AA@ DB 'm_fActive', 00H	; `string'
CONST	ENDS
;	COMDAT ??_C@_0M@NKGAHMMH@attenuation?$AA@
CONST	SEGMENT
??_C@_0M@NKGAHMMH@attenuation?$AA@ DB 'attenuation', 00H ; `string'
CONST	ENDS
;	COMDAT ??_C@_0BA@FPHDGFEO@m_flAttenuation?$AA@
CONST	SEGMENT
??_C@_0BA@FPHDGFEO@m_flAttenuation?$AA@ DB 'm_flAttenuation', 00H ; `string'
CONST	ENDS
_DATA	SEGMENT
?dataDesc@?1???$DataMapInit@VCAmbientGeneric@@@@YAPAUdatamap_s@@PAVCAmbientGeneric@@@Z@4PAUtypedescription_s@@A DD 012H ; `DataMapInit<CAmbientGeneric>'::`2'::dataDesc
	DD	00H
	DD	00H
	DW	00H
	DW	00H
	DD	00H
	DD	00H
	DD	00H
	DD	FLAT:??_C@_0BA@FPHDGFEO@m_flAttenuation?$AA@
	DD	070cH
	DW	01H
	DW	06H
	DD	FLAT:??_C@_0M@NKGAHMMH@attenuation?$AA@
	DD	00H
	DD	0cH
	DD	FLAT:??_C@_09ONJFEJGN@m_fActive?$AA@
	DD	0774H
	DW	01H
	DW	02H
	DD	00H
	DD	00H
	DD	0cH
	DD	FLAT:??_C@_0L@EFDJKFOK@m_fLooping?$AA@
	DD	0778H
	DW	01H
	DW	02H
	DD	00H
	DD	00H
	DD	0eH
	DD	FLAT:??_C@_05NJMEMMLG@m_dpv?$AA@
	DD	0710H
	DW	064H
	DW	02H
	DD	00H
	DD	00H
	DD	012H
	ORG $+92
?m_DataMap@CSpeaker@@2Udatamap_s@@A DD 00H		; CSpeaker::m_DataMap
	DD	00H
	DD	FLAT:??_C@_08IKHBFCDE@CSpeaker?$AA@
	DD	00H
?dataDesc@?1???$DataMapInit@VCSpeaker@@@@YAPAUdatamap_s@@PAVCSpeaker@@@Z@4PAUtypedescription_s@@A DD 012H ; `DataMapInit<CSpeaker>'::`2'::dataDesc
	DD	00H
	DD	00H
	DW	00H
	DW	00H
	DD	00H
	DD	00H
	DD	0aH
	DD	FLAT:??_C@_08LPEJFCFP@m_preset?$AA@
	DD	070cH
	DW	01H
	DW	06H
	DD	FLAT:??_C@_06OFAGBOBG@preset?$AA@
	DD	00H
	DD	012H
	ORG $+44
?m_DataMap@CEnvSound@@2Udatamap_s@@A DD 00H		; CEnvSound::m_DataMap
	DD	00H
	DD	FLAT:??_C@_09DJGFLIBI@CEnvSound?$AA@
	DD	00H
?dataDesc@?1???$DataMapInit@VCEnvSound@@@@YAPAUdatamap_s@@PAVCEnvSound@@@Z@4PAUtypedescription_s@@A DD 012H ; `DataMapInit<CEnvSound>'::`2'::dataDesc
	DD	00H
	DD	00H
	DW	00H
	DW	00H
	DD	00H
	DD	00H
	DD	00H
	DD	FLAT:??_C@_0L@OEEMMINI@m_flRadius?$AA@
	DD	070cH
	DW	01H
	DW	06H
	DD	FLAT:??_C@_06KGHINEPG@radius?$AA@
	DD	00H
	DD	00H
	DD	FLAT:??_C@_0N@EOOENLGB@m_flRoomtype?$AA@
	DD	0710H
	DW	01H
	DW	06H
	DD	FLAT:??_C@_08FBOCMMDG@roomtype?$AA@
	DD	00H
?rgdpvpreset@@3PAUdynpitchvol@@A DD 01H			; rgdpvpreset
	DD	0ffH
	DD	04bH
	DD	05fH
	DD	05fH
	DD	0aH
	DD	01H
	DD	032H
	DD	05fH
	DD	00H
	DD	00H
	DD	00H
	DD	00H
	DD	00H
	DD	00H
	DD	00H
	DD	00H
	DD	00H
	DD	00H
	DD	00H
	DD	00H
	DD	00H
	DD	00H
	DD	00H
	ORG $+4
	DD	02H
	DD	0ffH
	DD	055H
	DD	046H
	DD	058H
	DD	0aH
	DD	01H
	DD	014H
	DD	058H
	DD	00H
	DD	00H
	DD	00H
	DD	00H
	DD	00H
	DD	00H
	DD	00H
	DD	00H
	DD	00H
	DD	00H
	DD	00H
	DD	00H
	DD	00H
	DD	00H
	DD	00H
	ORG $+4
	DD	03H
	DD	0ffH
	DD	064H
	DD	032H
	DD	04bH
	DD	0aH
	DD	01H
	DD	0aH
	DD	04bH
	DD	00H
	DD	00H
	DD	00H
	DD	00H
	DD	00H
	DD	00H
	DD	00H
	DD	00H
	DD	00H
	DD	00H
	DD	00H
	DD	00H
	DD	00H
	DD	00H
	DD	00H
	ORG $+4
	DD	04H
	DD	064H
	DD	064H
	DD	00H
	DD	00H
	DD	0aH
	DD	01H
	DD	05aH
	DD	05aH
	DD	00H
	DD	00H
	DD	00H
	DD	00H
	DD	00H
	DD	00H
	DD	00H
	DD	00H
	DD	00H
	DD	00H
	DD	00H
	DD	00H
	DD	00H
	DD	00H
	DD	00H
	ORG $+4
	DD	05H
	DD	064H
	DD	064H
	DD	00H
	DD	00H
	DD	0aH
	DD	01H
	DD	050H
	DD	050H
	DD	00H
	DD	00H
	DD	00H
	DD	00H
	DD	00H
	DD	00H
	DD	00H
	DD	00H
	DD	00H
	DD	00H
	DD	00H
	DD	00H
	DD	00H
	DD	00H
	DD	00H
	ORG $+4
	DD	06H
	DD	064H
	DD	064H
	DD	00H
	DD	00H
	DD	0aH
	DD	01H
	DD	032H
	DD	046H
	DD	00H
	DD	00H
	DD	00H
	DD	00H
	DD	00H
	DD	00H
	DD	00H
	DD	00H
	DD	00H
	DD	00H
	DD	00H
	DD	00H
	DD	00H
	DD	00H
	DD	00H
	ORG $+4
	DD	07H
	DD	064H
	DD	064H
	DD	00H
	DD	00H
	DD	05H
	DD	01H
	DD	028H
	DD	032H
	DD	01H
	DD	032H
	DD	00H
	DD	0aH
	DD	00H
	DD	00H
	DD	00H
	DD	00H
	DD	00H
	DD	00H
	DD	00H
	DD	00H
	DD	00H
	DD	00H
	DD	00H
	ORG $+4
	DD	08H
	DD	064H
	DD	064H
	DD	00H
	DD	00H
	DD	05H
	DD	01H
	DD	028H
	DD	032H
	DD	01H
	DD	096H
	DD	00H
	DD	0aH
	DD	00H
	DD	00H
	DD	00H
	DD	00H
	DD	00H
	DD	00H
	DD	00H
	DD	00H
	DD	00H
	DD	00H
	DD	00H
	ORG $+4
	DD	09H
	DD	064H
	DD	064H
	DD	00H
	DD	00H
	DD	05H
	DD	01H
	DD	028H
	DD	032H
	DD	01H
	DD	02eeH
	DD	00H
	DD	0aH
	DD	00H
	DD	00H
	DD	00H
	DD	00H
	DD	00H
	DD	00H
	DD	00H
	DD	00H
	DD	00H
	DD	00H
	DD	00H
	ORG $+4
	DD	0aH
	DD	080H
	DD	064H
	DD	032H
	DD	04bH
	DD	0aH
	DD	01H
	DD	01eH
	DD	028H
	DD	02H
	DD	08H
	DD	014H
	DD	00H
	DD	00H
	DD	00H
	DD	00H
	DD	00H
	DD	00H
	DD	00H
	DD	00H
	DD	00H
	DD	00H
	DD	00H
	DD	00H
	ORG $+4
	DD	0bH
	DD	080H
	DD	064H
	DD	032H
	DD	04bH
	DD	0aH
	DD	01H
	DD	01eH
	DD	028H
	DD	02H
	DD	019H
	DD	014H
	DD	00H
	DD	00H
	DD	00H
	DD	00H
	DD	00H
	DD	00H
	DD	00H
	DD	00H
	DD	00H
	DD	00H
	DD	00H
	DD	00H
	ORG $+4
	DD	0cH
	DD	080H
	DD	064H
	DD	032H
	DD	04bH
	DD	0aH
	DD	01H
	DD	01eH
	DD	028H
	DD	02H
	DD	046H
	DD	014H
	DD	00H
	DD	00H
	DD	00H
	DD	00H
	DD	00H
	DD	00H
	DD	00H
	DD	00H
	DD	00H
	DD	00H
	DD	00H
	DD	00H
	ORG $+4
	DD	0dH
	DD	032H
	DD	032H
	DD	00H
	DD	00H
	DD	0aH
	DD	01H
	DD	014H
	DD	032H
	DD	00H
	DD	00H
	DD	00H
	DD	00H
	DD	00H
	DD	00H
	DD	00H
	DD	00H
	DD	00H
	DD	00H
	DD	00H
	DD	00H
	DD	00H
	DD	00H
	DD	00H
	ORG $+4
	DD	0eH
	DD	046H
	DD	046H
	DD	00H
	DD	00H
	DD	0aH
	DD	01H
	DD	014H
	DD	032H
	DD	00H
	DD	00H
	DD	00H
	DD	00H
	DD	00H
	DD	00H
	DD	00H
	DD	00H
	DD	00H
	DD	00H
	DD	00H
	DD	00H
	DD	00H
	DD	00H
	DD	00H
	ORG $+4
	DD	0fH
	DD	05aH
	DD	05aH
	DD	00H
	DD	00H
	DD	0aH
	DD	01H
	DD	014H
	DD	032H
	DD	00H
	DD	00H
	DD	00H
	DD	00H
	DD	00H
	DD	00H
	DD	00H
	DD	00H
	DD	00H
	DD	00H
	DD	00H
	DD	00H
	DD	00H
	DD	00H
	DD	00H
	ORG $+4
	DD	010H
	DD	078H
	DD	078H
	DD	00H
	DD	00H
	DD	0aH
	DD	01H
	DD	014H
	DD	032H
	DD	00H
	DD	00H
	DD	00H
	DD	00H
	DD	00H
	DD	00H
	DD	00H
	DD	00H
	DD	00H
	DD	00H
	DD	00H
	DD	00H
	DD	00H
	DD	00H
	DD	00H
	ORG $+4
	DD	011H
	DD	0b4H
	DD	0b4H
	DD	00H
	DD	00H
	DD	0aH
	DD	01H
	DD	014H
	DD	032H
	DD	00H
	DD	00H
	DD	00H
	DD	00H
	DD	00H
	DD	00H
	DD	00H
	DD	00H
	DD	00H
	DD	00H
	DD	00H
	DD	00H
	DD	00H
	DD	00H
	DD	00H
	ORG $+4
	DD	012H
	DD	0ffH
	DD	0ffH
	DD	00H
	DD	00H
	DD	0aH
	DD	01H
	DD	014H
	DD	032H
	DD	00H
	DD	00H
	DD	00H
	DD	00H
	DD	00H
	DD	00H
	DD	00H
	DD	00H
	DD	00H
	DD	00H
	DD	00H
	DD	00H
	DD	00H
	DD	00H
	DD	00H
	ORG $+4
	DD	013H
	DD	0c8H
	DD	04bH
	DD	05aH
	DD	05aH
	DD	0aH
	DD	01H
	DD	032H
	DD	05aH
	DD	02H
	DD	064H
	DD	014H
	DD	00H
	DD	00H
	DD	00H
	DD	00H
	DD	00H
	DD	00H
	DD	00H
	DD	00H
	DD	00H
	DD	00H
	DD	00H
	DD	00H
	ORG $+4
	DD	014H
	DD	0ffH
	DD	04bH
	DD	061H
	DD	05aH
	DD	0aH
	DD	01H
	DD	032H
	DD	05aH
	DD	01H
	DD	028H
	DD	032H
	DD	00H
	DD	00H
	DD	00H
	DD	00H
	DD	00H
	DD	00H
	DD	00H
	DD	00H
	DD	00H
	DD	00H
	DD	00H
	DD	00H
	ORG $+4
	DD	015H
	DD	064H
	DD	064H
	DD	00H
	DD	00H
	DD	0aH
	DD	01H
	DD	01eH
	DD	032H
	DD	03H
	DD	0fH
	DD	014H
	DD	00H
	DD	00H
	DD	00H
	DD	00H
	DD	00H
	DD	00H
	DD	00H
	DD	00H
	DD	00H
	DD	00H
	DD	00H
	DD	00H
	ORG $+4
	DD	016H
	DD	0a0H
	DD	0a0H
	DD	00H
	DD	00H
	DD	0aH
	DD	01H
	DD	032H
	DD	032H
	DD	03H
	DD	01f4H
	DD	019H
	DD	00H
	DD	00H
	DD	00H
	DD	00H
	DD	00H
	DD	00H
	DD	00H
	DD	00H
	DD	00H
	DD	00H
	DD	00H
	DD	00H
	ORG $+4
	DD	017H
	DD	0ffH
	DD	04bH
	DD	058H
	DD	00H
	DD	0aH
	DD	01H
	DD	028H
	DD	00H
	DD	00H
	DD	00H
	DD	00H
	DD	00H
	DD	05H
	DD	00H
	DD	00H
	DD	00H
	DD	00H
	DD	00H
	DD	00H
	DD	00H
	DD	00H
	DD	00H
	DD	00H
	ORG $+4
	DD	018H
	DD	0c8H
	DD	014H
	DD	05fH
	DD	046H
	DD	0aH
	DD	01H
	DD	046H
	DD	046H
	DD	03H
	DD	014H
	DD	032H
	DD	00H
	DD	00H
	DD	00H
	DD	00H
	DD	00H
	DD	00H
	DD	00H
	DD	00H
	DD	00H
	DD	00H
	DD	00H
	DD	00H
	ORG $+4
	DD	019H
	DD	0b4H
	DD	064H
	DD	032H
	DD	03cH
	DD	0aH
	DD	01H
	DD	028H
	DD	03cH
	DD	02H
	DD	05aH
	DD	064H
	DD	064H
	DD	00H
	DD	00H
	DD	00H
	DD	00H
	DD	00H
	DD	00H
	DD	00H
	DD	00H
	DD	00H
	DD	00H
	DD	00H
	ORG $+4
	DD	01aH
	DD	03cH
	DD	03cH
	DD	00H
	DD	00H
	DD	0aH
	DD	01H
	DD	028H
	DD	046H
	DD	03H
	DD	050H
	DD	014H
	DD	032H
	DD	00H
	DD	00H
	DD	00H
	DD	00H
	DD	00H
	DD	00H
	DD	00H
	DD	00H
	DD	00H
	DD	00H
	DD	00H
	ORG $+4
	DD	01bH
	DD	080H
	DD	05aH
	DD	0aH
	DD	0aH
	DD	0aH
	DD	01H
	DD	014H
	DD	028H
	DD	01H
	DD	05H
	DD	0aH
	DD	014H
	DD	00H
	DD	00H
	DD	00H
	DD	00H
	DD	00H
	DD	00H
	DD	00H
	DD	00H
	DD	00H
	DD	00H
	DD	00H
	ORG $+4
?m_DataMap@CAmbientGeneric@@2Udatamap_s@@A DD 00H	; CAmbientGeneric::m_DataMap
	DD	00H
	DD	FLAT:??_C@_0BA@JFHJJCNE@CAmbientGeneric?$AA@
	DD	00H
_DATA	ENDS
PUBLIC	??_H@YGXPAXIIP6EPAX0@Z@Z			; `vector constructor iterator'
PUBLIC	??__G@YGXPAX0IIP6EPAX00@Z@Z			; `vector copy constructor iterator'
PUBLIC	?__empty_global_delete@@YAXPAX@Z		; __empty_global_delete
PUBLIC	?__empty_global_delete@@YAXPAXI@Z		; __empty_global_delete
PUBLIC	?strstr@@YAPADQADQBD@Z				; strstr
PUBLIC	___local_stdio_printf_options
PUBLIC	??$__vcrt_va_start_verify_argument_type@QBD@@YAXXZ ; __vcrt_va_start_verify_argument_type<char const * const>
PUBLIC	__vsnprintf_l
PUBLIC	__vsprintf_l
PUBLIC	_sprintf
PUBLIC	??0Vector@@QAE@XZ				; Vector::Vector
PUBLIC	??0Vector@@QAE@MMM@Z				; Vector::Vector
PUBLIC	??0Vector@@QAE@ABV0@@Z				; Vector::Vector
PUBLIC	??8Vector@@QBEHABV0@@Z				; Vector::operator==
PUBLIC	??9Vector@@QBEHABV0@@Z				; Vector::operator!=
PUBLIC	??HVector@@QBE?AV0@ABV0@@Z			; Vector::operator+
PUBLIC	??GVector@@QBE?AV0@ABV0@@Z			; Vector::operator-
PUBLIC	??DVector@@QBE?AV0@M@Z				; Vector::operator*
PUBLIC	?CopyToArray@Vector@@QBEXPAM@Z			; Vector::CopyToArray
PUBLIC	?Length@Vector@@QBEMXZ				; Vector::Length
PUBLIC	??BVector@@QAEPAMXZ				; Vector::operator float *
PUBLIC	??0gametrace_s@@QAE@XZ				; gametrace_s::gametrace_s
PUBLIC	??0gametrace_s@@QAE@$$QAU0@@Z			; gametrace_s::gametrace_s
PUBLIC	?MESSAGE_BEGIN@@YAXHHPBMPAUedict_s@@@Z		; MESSAGE_BEGIN
PUBLIC	?GET_PRIVATE@@YAPAXPAUedict_s@@@Z		; GET_PRIVATE
PUBLIC	??2@YAPAXIPAX@Z					; operator new
PUBLIC	?UtlMemory_CalcNewAllocationCount@@YAHHHHH@Z	; UtlMemory_CalcNewAllocationCount
PUBLIC	??0CDatadescGeneratedNameHolder@@QAE@PBD@Z	; CDatadescGeneratedNameHolder::CDatadescGeneratedNameHolder
PUBLIC	??1CDatadescGeneratedNameHolder@@QAE@XZ		; CDatadescGeneratedNameHolder::~CDatadescGeneratedNameHolder
PUBLIC	?GenerateName@CDatadescGeneratedNameHolder@@QAEPBDPBD@Z ; CDatadescGeneratedNameHolder::GenerateName
PUBLIC	??0?$CUtlArray@PADV?$CUtlMemory@PADH@@@@QAE@HH@Z ; CUtlArray<char *,CUtlMemory<char *,int> >::CUtlArray<char *,CUtlMemory<char *,int> >
PUBLIC	??1?$CUtlArray@PADV?$CUtlMemory@PADH@@@@QAE@XZ	; CUtlArray<char *,CUtlMemory<char *,int> >::~CUtlArray<char *,CUtlMemory<char *,int> >
PUBLIC	??A?$CUtlArray@PADV?$CUtlMemory@PADH@@@@QAEAAPADH@Z ; CUtlArray<char *,CUtlMemory<char *,int> >::operator[]
PUBLIC	?Element@?$CUtlArray@PADV?$CUtlMemory@PADH@@@@QAEAAPADH@Z ; CUtlArray<char *,CUtlMemory<char *,int> >::Element
PUBLIC	?Base@?$CUtlArray@PADV?$CUtlMemory@PADH@@@@QAEPAPADXZ ; CUtlArray<char *,CUtlMemory<char *,int> >::Base
PUBLIC	?Count@?$CUtlArray@PADV?$CUtlMemory@PADH@@@@QBEHXZ ; CUtlArray<char *,CUtlMemory<char *,int> >::Count
PUBLIC	?IsValidIndex@?$CUtlArray@PADV?$CUtlMemory@PADH@@@@QBE_NH@Z ; CUtlArray<char *,CUtlMemory<char *,int> >::IsValidIndex
PUBLIC	?AddToTail@?$CUtlArray@PADV?$CUtlMemory@PADH@@@@QAEHABQAD@Z ; CUtlArray<char *,CUtlMemory<char *,int> >::AddToTail
PUBLIC	?InsertBefore@?$CUtlArray@PADV?$CUtlMemory@PADH@@@@QAEHHABQAD@Z ; CUtlArray<char *,CUtlMemory<char *,int> >::InsertBefore
PUBLIC	?RemoveAll@?$CUtlArray@PADV?$CUtlMemory@PADH@@@@QAEXXZ ; CUtlArray<char *,CUtlMemory<char *,int> >::RemoveAll
PUBLIC	?Purge@?$CUtlArray@PADV?$CUtlMemory@PADH@@@@QAEXXZ ; CUtlArray<char *,CUtlMemory<char *,int> >::Purge
PUBLIC	?GrowVector@?$CUtlArray@PADV?$CUtlMemory@PADH@@@@IAEXH@Z ; CUtlArray<char *,CUtlMemory<char *,int> >::GrowVector
PUBLIC	?ShiftElementsRight@?$CUtlArray@PADV?$CUtlMemory@PADH@@@@IAEXHH@Z ; CUtlArray<char *,CUtlMemory<char *,int> >::ShiftElementsRight
PUBLIC	??0?$CUtlMemory@PADH@@QAE@HH@Z			; CUtlMemory<char *,int>::CUtlMemory<char *,int>
PUBLIC	??1?$CUtlMemory@PADH@@QAE@XZ			; CUtlMemory<char *,int>::~CUtlMemory<char *,int>
PUBLIC	??A?$CUtlMemory@PADH@@QAEAAPADH@Z		; CUtlMemory<char *,int>::operator[]
PUBLIC	?IsIdxValid@?$CUtlMemory@PADH@@QBE_NH@Z		; CUtlMemory<char *,int>::IsIdxValid
PUBLIC	?Base@?$CUtlMemory@PADH@@QAEPAPADXZ		; CUtlMemory<char *,int>::Base
PUBLIC	?NumAllocated@?$CUtlMemory@PADH@@QBEHXZ		; CUtlMemory<char *,int>::NumAllocated
PUBLIC	?Grow@?$CUtlMemory@PADH@@QAEXH@Z		; CUtlMemory<char *,int>::Grow
PUBLIC	?Purge@?$CUtlMemory@PADH@@QAEXXZ		; CUtlMemory<char *,int>::Purge
PUBLIC	?IsExternallyAllocated@?$CUtlMemory@PADH@@QBE_NXZ ; CUtlMemory<char *,int>::IsExternallyAllocated
PUBLIC	?IsReadOnly@?$CUtlMemory@PADH@@QBE_NXZ		; CUtlMemory<char *,int>::IsReadOnly
PUBLIC	?ValidateGrowSize@?$CUtlMemory@PADH@@IAEXXZ	; CUtlMemory<char *,int>::ValidateGrowSize
PUBLIC	?ResetDbgInfo@?$CUtlArray@PADV?$CUtlMemory@PADH@@@@IAEXXZ ; CUtlArray<char *,CUtlMemory<char *,int> >::ResetDbgInfo
PUBLIC	??0IEntityFactory@@QAE@XZ			; IEntityFactory::IEntityFactory
PUBLIC	?ENT@@YAPAUedict_s@@PBUentvars_s@@@Z		; ENT
PUBLIC	?ENT@@YAPAUedict_s@@H@Z				; ENT
PUBLIC	?OFFSET@@YAHPBUedict_s@@@Z			; OFFSET
PUBLIC	?OFFSET@@YAHPAUentvars_s@@@Z			; OFFSET
PUBLIC	?VARS@@YAPAUentvars_s@@PAUedict_s@@@Z		; VARS
PUBLIC	?FNullEnt@@YAHH@Z				; FNullEnt
PUBLIC	?FNullEnt@@YAHPBUedict_s@@@Z			; FNullEnt
PUBLIC	?FNullEnt@@YAHPAUentvars_s@@@Z			; FNullEnt
PUBLIC	?FStringNull@@YAHH@Z				; FStringNull
PUBLIC	?FStrEq@@YAHPBD0@Z				; FStrEq
PUBLIC	?FClassnameIs@@YAHPAUentvars_s@@PBD@Z		; FClassnameIs
PUBLIC	?USENTENCEG_Pick@@YAHHPAD@Z			; USENTENCEG_Pick
PUBLIC	?USENTENCEG_PickSequential@@YAHHPADHH@Z		; USENTENCEG_PickSequential
PUBLIC	?USENTENCEG_InitLRU@@YAXPAEH@Z			; USENTENCEG_InitLRU
PUBLIC	?SENTENCEG_Init@@YAXXZ				; SENTENCEG_Init
PUBLIC	?SENTENCEG_Stop@@YAXPAUedict_s@@HH@Z		; SENTENCEG_Stop
PUBLIC	?SENTENCEG_PlayRndI@@YAHPAUedict_s@@HMMHH@Z	; SENTENCEG_PlayRndI
PUBLIC	?SENTENCEG_PlayRndSz@@YAHPAUedict_s@@PBDMMHH@Z	; SENTENCEG_PlayRndSz
PUBLIC	?SENTENCEG_PlaySequentialSz@@YAHPAUedict_s@@PBDMMHHHH@Z ; SENTENCEG_PlaySequentialSz
PUBLIC	?SENTENCEG_GetIndex@@YAHPBD@Z			; SENTENCEG_GetIndex
PUBLIC	?SENTENCEG_Lookup@@YAHPBDPAD@Z			; SENTENCEG_Lookup
PUBLIC	?TEXTURETYPE_Init@@YAXXZ			; TEXTURETYPE_Init
PUBLIC	?TEXTURETYPE_Find@@YADPAD@Z			; TEXTURETYPE_Find
PUBLIC	?TEXTURETYPE_PlaySound@@YAMPAUgametrace_s@@VVector@@1H@Z ; TEXTURETYPE_PlaySound
PUBLIC	?EMIT_SOUND_DYN@@YAXPAUedict_s@@HPBDMMHH@Z	; EMIT_SOUND_DYN
PUBLIC	?EMIT_SOUND@@YAXPAUedict_s@@HPBDMM@Z		; EMIT_SOUND
PUBLIC	?STOP_SOUND@@YAXPAUedict_s@@HPBD@Z		; STOP_SOUND
PUBLIC	?EMIT_SOUND_SUIT@@YAXPAUedict_s@@PBD@Z		; EMIT_SOUND_SUIT
PUBLIC	?EMIT_GROUPID_SUIT@@YAXPAUedict_s@@H@Z		; EMIT_GROUPID_SUIT
PUBLIC	?EMIT_GROUPNAME_SUIT@@YAXPAUedict_s@@PBD@Z	; EMIT_GROUPNAME_SUIT
PUBLIC	??0WayPoint_t@@QAE@XZ				; WayPoint_t::WayPoint_t
PUBLIC	?Get@EHANDLE@@QAEPAUedict_s@@XZ			; EHANDLE::Get
PUBLIC	??BEHANDLE@@QAEHXZ				; EHANDLE::operator int
PUBLIC	??CEHANDLE@@QAEPAVCBaseEntity@@XZ		; EHANDLE::operator->
PUBLIC	?GetClassname@CBaseEntity@@QAEPBDXZ		; CBaseEntity::GetClassname
PUBLIC	?GetMessageA@CBaseEntity@@QAEPBDXZ		; CBaseEntity::GetMessageA
PUBLIC	?GetNetname@CBaseEntity@@QAEPBDXZ		; CBaseEntity::GetNetname
PUBLIC	?SetClassname@CBaseEntity@@QAEXPBD@Z		; CBaseEntity::SetClassname
PUBLIC	?Spawn@CBaseEntity@@UAEXXZ			; CBaseEntity::Spawn
PUBLIC	?Precache@CBaseEntity@@UAEXXZ			; CBaseEntity::Precache
PUBLIC	?KeyValue@CBaseEntity@@UAEXPAUKeyValueData_s@@@Z ; CBaseEntity::KeyValue
PUBLIC	?ObjectCaps@CBaseEntity@@UAEHXZ			; CBaseEntity::ObjectCaps
PUBLIC	?Activate@CBaseEntity@@UAEXXZ			; CBaseEntity::Activate
PUBLIC	?OnChangeLevel@CBaseEntity@@UAEXXZ		; CBaseEntity::OnChangeLevel
PUBLIC	?OnTeleport@CBaseEntity@@UAEXXZ			; CBaseEntity::OnTeleport
PUBLIC	?PortalSleep@CBaseEntity@@UAEXM@Z		; CBaseEntity::PortalSleep
PUBLIC	?StartMessage@CBaseEntity@@UAEXPAVCBasePlayer@@@Z ; CBaseEntity::StartMessage
PUBLIC	?GetPosition@CBaseEntity@@UAEMXZ		; CBaseEntity::GetPosition
PUBLIC	?OnChangeParent@CBaseEntity@@UAEXXZ		; CBaseEntity::OnChangeParent
PUBLIC	?OnClearParent@CBaseEntity@@UAEXXZ		; CBaseEntity::OnClearParent
PUBLIC	?OnRemove@CBaseEntity@@UAEXXZ			; CBaseEntity::OnRemove
PUBLIC	?Classify@CBaseEntity@@UAEHXZ			; CBaseEntity::Classify
PUBLIC	?DeathNotice@CBaseEntity@@UAEXPAUentvars_s@@@Z	; CBaseEntity::DeathNotice
PUBLIC	?IsRigidBody@CBaseEntity@@UAEHXZ		; CBaseEntity::IsRigidBody
PUBLIC	?GetState@CBaseEntity@@UAE?AW4STATE@@XZ		; CBaseEntity::GetState
PUBLIC	?GetState@CBaseEntity@@UAE?AW4STATE@@PAV1@@Z	; CBaseEntity::GetState
PUBLIC	?BloodColor@CBaseEntity@@UAEHXZ			; CBaseEntity::BloodColor
PUBLIC	?IsTriggered@CBaseEntity@@UAEHPAV1@@Z		; CBaseEntity::IsTriggered
PUBLIC	?MyMonsterPointer@CBaseEntity@@UAEPAVCBaseMonster@@XZ ; CBaseEntity::MyMonsterPointer
PUBLIC	?MySquadMonsterPointer@CBaseEntity@@UAEPAVCSquadMonster@@XZ ; CBaseEntity::MySquadMonsterPointer
PUBLIC	?GetToggleState@CBaseEntity@@UAEHXZ		; CBaseEntity::GetToggleState
PUBLIC	?AddPoints@CBaseEntity@@UAEXHH@Z		; CBaseEntity::AddPoints
PUBLIC	?AddPointsToTeam@CBaseEntity@@UAEXHH@Z		; CBaseEntity::AddPointsToTeam
PUBLIC	?AddPlayerItem@CBaseEntity@@UAEHPAVCBasePlayerItem@@@Z ; CBaseEntity::AddPlayerItem
PUBLIC	?RemovePlayerItem@CBaseEntity@@UAEHPAVCBasePlayerItem@@@Z ; CBaseEntity::RemovePlayerItem
PUBLIC	?GiveAmmo@CBaseEntity@@UAEHHPADH@Z		; CBaseEntity::GiveAmmo
PUBLIC	?GetDelay@CBaseEntity@@UAEMXZ			; CBaseEntity::GetDelay
PUBLIC	?IsMoving@CBaseEntity@@UAEHXZ			; CBaseEntity::IsMoving
PUBLIC	?OverrideReset@CBaseEntity@@UAEXXZ		; CBaseEntity::OverrideReset
PUBLIC	?TransferReset@CBaseEntity@@UAEXXZ		; CBaseEntity::TransferReset
PUBLIC	?SetToggleState@CBaseEntity@@UAEXH@Z		; CBaseEntity::SetToggleState
PUBLIC	?StartSneaking@CBaseEntity@@UAEXXZ		; CBaseEntity::StartSneaking
PUBLIC	?StopSneaking@CBaseEntity@@UAEXXZ		; CBaseEntity::StopSneaking
PUBLIC	?OnControls@CBaseEntity@@UAEHPAV1@@Z		; CBaseEntity::OnControls
PUBLIC	?IsSneaking@CBaseEntity@@UAEHXZ			; CBaseEntity::IsSneaking
PUBLIC	?IsAlive@CBaseEntity@@UAEHXZ			; CBaseEntity::IsAlive
PUBLIC	?IsBSPModel@CBaseEntity@@UAEHXZ			; CBaseEntity::IsBSPModel
PUBLIC	?IsCustomModel@CBaseEntity@@UAEHXZ		; CBaseEntity::IsCustomModel
PUBLIC	?ReflectGauss@CBaseEntity@@UAEHXZ		; CBaseEntity::ReflectGauss
PUBLIC	?HasTarget@CBaseEntity@@UAEHH@Z			; CBaseEntity::HasTarget
PUBLIC	?IsPlayer@CBaseEntity@@UAEHXZ			; CBaseEntity::IsPlayer
PUBLIC	?IsNetClient@CBaseEntity@@UAEHXZ		; CBaseEntity::IsNetClient
PUBLIC	?IsMonster@CBaseEntity@@UAEHXZ			; CBaseEntity::IsMonster
PUBLIC	?IsPushable@CBaseEntity@@UAEHXZ			; CBaseEntity::IsPushable
PUBLIC	?IsProjectile@CBaseEntity@@UAEHXZ		; CBaseEntity::IsProjectile
PUBLIC	?IsFuncScreen@CBaseEntity@@UAEHXZ		; CBaseEntity::IsFuncScreen
PUBLIC	?IsPortal@CBaseEntity@@UAEHXZ			; CBaseEntity::IsPortal
PUBLIC	?IsTank@CBaseEntity@@UAEHXZ			; CBaseEntity::IsTank
PUBLIC	?IsMover@CBaseEntity@@UAEHXZ			; CBaseEntity::IsMover
PUBLIC	?IsBreakable@CBaseEntity@@UAEHXZ		; CBaseEntity::IsBreakable
PUBLIC	?TeamID@CBaseEntity@@UAEPBDXZ			; CBaseEntity::TeamID
PUBLIC	?AddSpawnFlags@CBaseEntity@@UAEXH@Z		; CBaseEntity::AddSpawnFlags
PUBLIC	?HasSpawnFlags@CBaseEntity@@UBE_NH@Z		; CBaseEntity::HasSpawnFlags
PUBLIC	?SetFadeDistance@CBaseEntity@@UAEXH@Z		; CBaseEntity::SetFadeDistance
PUBLIC	?SetFlag@CBaseEntity@@UAEXH@Z			; CBaseEntity::SetFlag
PUBLIC	?HasFlag@CBaseEntity@@UBE_NH@Z			; CBaseEntity::HasFlag
PUBLIC	?RemoveFlag@CBaseEntity@@UAEXH@Z		; CBaseEntity::RemoveFlag
PUBLIC	?SetNullModel@CBaseEntity@@UAEXXZ		; CBaseEntity::SetNullModel
PUBLIC	?OnPickupObject@CBaseEntity@@UAEXXZ		; CBaseEntity::OnPickupObject
PUBLIC	?OnDropObject@CBaseEntity@@UAEXXZ		; CBaseEntity::OnDropObject
PUBLIC	?Think@CBaseEntity@@UAEXXZ			; CBaseEntity::Think
PUBLIC	?Use@CBaseEntity@@UAEXPAV1@0W4USE_TYPE@@M@Z	; CBaseEntity::Use
PUBLIC	?Touch@CBaseEntity@@UAEXPAV1@@Z			; CBaseEntity::Touch
PUBLIC	?Blocked@CBaseEntity@@UAEXPAV1@@Z		; CBaseEntity::Blocked
PUBLIC	?MoveDone@CBaseEntity@@UAEXXZ			; CBaseEntity::MoveDone
PUBLIC	??2CBaseEntity@@SAPAXIPAUentvars_s@@@Z		; CBaseEntity::operator new
PUBLIC	??3CBaseEntity@@SAXPAXPAUentvars_s@@@Z		; CBaseEntity::operator delete
PUBLIC	?Respawn@CBaseEntity@@UAEPAV1@XZ		; CBaseEntity::Respawn
PUBLIC	?Instance@CBaseEntity@@SAPAV1@PAUedict_s@@@Z	; CBaseEntity::Instance
PUBLIC	?FunctionCheck@CBaseEntity@@QAEXPAXPAD@Z	; CBaseEntity::FunctionCheck
PUBLIC	?ThinkSet@CBaseEntity@@QAEP81@AEXXZP81@AEXXZPAD@Z ; CBaseEntity::ThinkSet
PUBLIC	?UseSet@CBaseEntity@@QAEP81@AEXPAV1@0W4USE_TYPE@@M@ZP81@AEX001M@ZPAD@Z ; CBaseEntity::UseSet
PUBLIC	?UpdateOwner@CBaseEntity@@UAEXXZ		; CBaseEntity::UpdateOwner
PUBLIC	?FBecomeProne@CBaseEntity@@UAEHXZ		; CBaseEntity::FBecomeProne
PUBLIC	?edict@CBaseEntity@@QAEPAUedict_s@@XZ		; CBaseEntity::edict
PUBLIC	?Center@CBaseEntity@@UAE?AVVector@@XZ		; CBaseEntity::Center
PUBLIC	?EyePosition@CBaseEntity@@UAE?AVVector@@XZ	; CBaseEntity::EyePosition
PUBLIC	?EarPosition@CBaseEntity@@UAE?AVVector@@XZ	; CBaseEntity::EarPosition
PUBLIC	?BodyTarget@CBaseEntity@@UAE?AVVector@@ABV2@@Z	; CBaseEntity::BodyTarget
PUBLIC	?IsPointSized@CBaseEntity@@UBEHXZ		; CBaseEntity::IsPointSized
PUBLIC	?Illumination@CBaseEntity@@UAEHXZ		; CBaseEntity::Illumination
PUBLIC	??0CBaseEntity@@QAE@XZ				; CBaseEntity::CBaseEntity
PUBLIC	??1CBaseEntity@@QAE@XZ				; CBaseEntity::~CBaseEntity
PUBLIC	?ObjectCaps@CPointEntity@@UAEHXZ		; CPointEntity::ObjectCaps
PUBLIC	??0CPointEntity@@QAE@XZ				; CPointEntity::CPointEntity
PUBLIC	?PlayLockSounds@@YAXPAUentvars_s@@PAUlocksounds@@HH@Z ; PlayLockSounds
PUBLIC	?GetState@CBaseDelay@@UAE?AW4STATE@@XZ		; CBaseDelay::GetState
PUBLIC	??0CBaseDelay@@QAE@XZ				; CBaseDelay::CBaseDelay
PUBLIC	??1CBaseDelay@@QAE@XZ				; CBaseDelay::~CBaseDelay
PUBLIC	?HandleAnimEvent@CBaseAnimating@@UAEXPAUMonsterEvent_t@@@Z ; CBaseAnimating::HandleAnimEvent
PUBLIC	??0CBaseAnimating@@QAE@XZ			; CBaseAnimating::CBaseAnimating
PUBLIC	??1CBaseAnimating@@QAE@XZ			; CBaseAnimating::~CBaseAnimating
PUBLIC	?GetToggleState@CBaseToggle@@UAEHXZ		; CBaseToggle::GetToggleState
PUBLIC	?GetDelay@CBaseToggle@@UAEMXZ			; CBaseToggle::GetDelay
PUBLIC	??0CBaseToggle@@QAE@XZ				; CBaseToggle::CBaseToggle
PUBLIC	??1CBaseToggle@@QAE@XZ				; CBaseToggle::~CBaseToggle
PUBLIC	?Classify@CBaseMonster@@UAEHXZ			; CBaseMonster::Classify
PUBLIC	?BloodColor@CBaseMonster@@UAEHXZ		; CBaseMonster::BloodColor
PUBLIC	?MyMonsterPointer@CBaseMonster@@UAEPAV1@XZ	; CBaseMonster::MyMonsterPointer
PUBLIC	?IsAlive@CBaseMonster@@UAEHXZ			; CBaseMonster::IsAlive
PUBLIC	?GetStoppedActivity@CBaseMonster@@UAE?AW4Activity@@XZ ; CBaseMonster::GetStoppedActivity
PUBLIC	?Stop@CBaseMonster@@UAEXXZ			; CBaseMonster::Stop
PUBLIC	?ScheduleChange@CBaseMonster@@UAEXXZ		; CBaseMonster::ScheduleChange
PUBLIC	?CanPlaySentence@CBaseMonster@@UAEHH@Z		; CBaseMonster::CanPlaySentence
PUBLIC	?SetYawSpeed@CBaseMonster@@UAEXXZ		; CBaseMonster::SetYawSpeed
PUBLIC	?FValidateCover@CBaseMonster@@UAEHABVVector@@@Z	; CBaseMonster::FValidateCover
PUBLIC	?CoverRadius@CBaseMonster@@UAEMXZ		; CBaseMonster::CoverRadius
PUBLIC	?CheckAmmo@CBaseMonster@@UAEXXZ			; CBaseMonster::CheckAmmo
PUBLIC	?HearingSensitivity@CBaseMonster@@UAEMXZ	; CBaseMonster::HearingSensitivity
PUBLIC	?PrescheduleThink@CBaseMonster@@UAEXXZ		; CBaseMonster::PrescheduleThink
PUBLIC	?BodyTarget@CBaseMonster@@UAE?AVVector@@ABV2@@Z	; CBaseMonster::BodyTarget
PUBLIC	?IsMoving@CBaseMonster@@UAEHXZ			; CBaseMonster::IsMoving
PUBLIC	?DeathSound@CBaseMonster@@UAEXXZ		; CBaseMonster::DeathSound
PUBLIC	?AlertSound@CBaseMonster@@UAEXXZ		; CBaseMonster::AlertSound
PUBLIC	?IdleSound@CBaseMonster@@UAEXXZ			; CBaseMonster::IdleSound
PUBLIC	?PainSound@CBaseMonster@@UAEXXZ			; CBaseMonster::PainSound
PUBLIC	?StopFollowing@CBaseMonster@@UAEXH@Z		; CBaseMonster::StopFollowing
PUBLIC	??0CBaseMonster@@QAE@XZ				; CBaseMonster::CBaseMonster
PUBLIC	??1CBaseMonster@@QAE@XZ				; CBaseMonster::~CBaseMonster
PUBLIC	?BodyTarget@CBasePlayer@@UAE?AVVector@@ABV2@@Z	; CBasePlayer::BodyTarget
PUBLIC	?StartSneaking@CBasePlayer@@UAEXXZ		; CBasePlayer::StartSneaking
PUBLIC	?StopSneaking@CBasePlayer@@UAEXXZ		; CBasePlayer::StopSneaking
PUBLIC	?IsSneaking@CBasePlayer@@UAEHXZ			; CBasePlayer::IsSneaking
PUBLIC	?IsAlive@CBasePlayer@@UAEHXZ			; CBasePlayer::IsAlive
PUBLIC	?ShouldFadeOnDeath@CBasePlayer@@UAEHXZ		; CBasePlayer::ShouldFadeOnDeath
PUBLIC	?IsPlayer@CBasePlayer@@UAEHXZ			; CBasePlayer::IsPlayer
PUBLIC	?IsNetClient@CBasePlayer@@UAEHXZ		; CBasePlayer::IsNetClient
PUBLIC	?ObjectCaps@CBasePlayer@@UAEHXZ			; CBasePlayer::ObjectCaps
PUBLIC	??0CBasePlayer@@QAE@XZ				; CBasePlayer::CBasePlayer
PUBLIC	?KeyValue@CAmbientGeneric@@UAEXPAUKeyValueData_s@@@Z ; CAmbientGeneric::KeyValue
PUBLIC	?Spawn@CAmbientGeneric@@UAEXXZ			; CAmbientGeneric::Spawn
PUBLIC	?Precache@CAmbientGeneric@@UAEXXZ		; CAmbientGeneric::Precache
PUBLIC	?ToggleUse@CAmbientGeneric@@QAEXPAVCBaseEntity@@0W4USE_TYPE@@M@Z ; CAmbientGeneric::ToggleUse
PUBLIC	?RampThink@CAmbientGeneric@@QAEXXZ		; CAmbientGeneric::RampThink
PUBLIC	?StartDynamicSound@CAmbientGeneric@@QAEXXZ	; CAmbientGeneric::StartDynamicSound
PUBLIC	?InitModulationParms@CAmbientGeneric@@QAEXXZ	; CAmbientGeneric::InitModulationParms
PUBLIC	?ReInitialize@CAmbientGeneric@@QAEXXZ		; CAmbientGeneric::ReInitialize
PUBLIC	?ClearEffects@CAmbientGeneric@@UAEXXZ		; CAmbientGeneric::ClearEffects
PUBLIC	?GetBaseMap@CAmbientGeneric@@SAPAUdatamap_s@@XZ	; CAmbientGeneric::GetBaseMap
PUBLIC	?GetDataDescMap@CAmbientGeneric@@UAEPAUdatamap_s@@XZ ; CAmbientGeneric::GetDataDescMap
PUBLIC	?ObjectCaps@CAmbientGeneric@@UAEHXZ		; CAmbientGeneric::ObjectCaps
PUBLIC	??0CAmbientGeneric@@QAE@XZ			; CAmbientGeneric::CAmbientGeneric
PUBLIC	??0?$CEntityFactory@VCAmbientGeneric@@@@QAE@PBD@Z ; CEntityFactory<CAmbientGeneric>::CEntityFactory<CAmbientGeneric>
PUBLIC	?Create@?$CEntityFactory@VCAmbientGeneric@@@@UAEPAVCBaseEntity@@PBDPAUentvars_s@@@Z ; CEntityFactory<CAmbientGeneric>::Create
PUBLIC	?Destroy@?$CEntityFactory@VCAmbientGeneric@@@@UAEXPAVCBaseEntity@@@Z ; CEntityFactory<CAmbientGeneric>::Destroy
PUBLIC	?GetEntitySize@?$CEntityFactory@VCAmbientGeneric@@@@UAEIXZ ; CEntityFactory<CAmbientGeneric>::GetEntitySize
PUBLIC	??$DataMapAccess@VCBaseEntity@@@@YAXPAVCBaseEntity@@PAPAUdatamap_s@@@Z ; DataMapAccess<CBaseEntity>
PUBLIC	??$DataMapInit@VCAmbientGeneric@@@@YAPAUdatamap_s@@PAVCAmbientGeneric@@@Z ; DataMapInit<CAmbientGeneric>
PUBLIC	?KeyValue@CEnvSound@@UAEXPAUKeyValueData_s@@@Z	; CEnvSound::KeyValue
PUBLIC	?Spawn@CEnvSound@@UAEXXZ			; CEnvSound::Spawn
PUBLIC	?Think@CEnvSound@@UAEXXZ			; CEnvSound::Think
PUBLIC	?GetBaseMap@CEnvSound@@SAPAUdatamap_s@@XZ	; CEnvSound::GetBaseMap
PUBLIC	?GetDataDescMap@CEnvSound@@UAEPAUdatamap_s@@XZ	; CEnvSound::GetDataDescMap
PUBLIC	??0CEnvSound@@QAE@XZ				; CEnvSound::CEnvSound
PUBLIC	??0?$CEntityFactory@VCEnvSound@@@@QAE@PBD@Z	; CEntityFactory<CEnvSound>::CEntityFactory<CEnvSound>
PUBLIC	?Create@?$CEntityFactory@VCEnvSound@@@@UAEPAVCBaseEntity@@PBDPAUentvars_s@@@Z ; CEntityFactory<CEnvSound>::Create
PUBLIC	?Destroy@?$CEntityFactory@VCEnvSound@@@@UAEXPAVCBaseEntity@@@Z ; CEntityFactory<CEnvSound>::Destroy
PUBLIC	?GetEntitySize@?$CEntityFactory@VCEnvSound@@@@UAEIXZ ; CEntityFactory<CEnvSound>::GetEntitySize
PUBLIC	??$DataMapAccess@VCPointEntity@@@@YAXPAVCPointEntity@@PAPAUdatamap_s@@@Z ; DataMapAccess<CPointEntity>
PUBLIC	??$DataMapInit@VCEnvSound@@@@YAPAUdatamap_s@@PAVCEnvSound@@@Z ; DataMapInit<CEnvSound>
PUBLIC	?FEnvSoundInRange@@YAHPAVCBaseEntity@@0PAM@Z	; FEnvSoundInRange
PUBLIC	??$GetClassPtr@VCEnvSound@@@@YAPAVCEnvSound@@PAV0@@Z ; GetClassPtr<CEnvSound>
PUBLIC	??$GetClassPtr@VCBasePlayer@@@@YAPAVCBasePlayer@@PAV0@@Z ; GetClassPtr<CBasePlayer>
PUBLIC	?KeyValue@CTriggerSound@@UAEXPAUKeyValueData_s@@@Z ; CTriggerSound::KeyValue
PUBLIC	?Spawn@CTriggerSound@@UAEXXZ			; CTriggerSound::Spawn
PUBLIC	?Touch@CTriggerSound@@UAEXPAVCBaseEntity@@@Z	; CTriggerSound::Touch
PUBLIC	?ObjectCaps@CTriggerSound@@UAEHXZ		; CTriggerSound::ObjectCaps
PUBLIC	??0CTriggerSound@@QAE@XZ			; CTriggerSound::CTriggerSound
PUBLIC	??0?$CEntityFactory@VCTriggerSound@@@@QAE@PBD@Z	; CEntityFactory<CTriggerSound>::CEntityFactory<CTriggerSound>
PUBLIC	?Create@?$CEntityFactory@VCTriggerSound@@@@UAEPAVCBaseEntity@@PBDPAUentvars_s@@@Z ; CEntityFactory<CTriggerSound>::Create
PUBLIC	?Destroy@?$CEntityFactory@VCTriggerSound@@@@UAEXPAVCBaseEntity@@@Z ; CEntityFactory<CTriggerSound>::Destroy
PUBLIC	?GetEntitySize@?$CEntityFactory@VCTriggerSound@@@@UAEIXZ ; CEntityFactory<CTriggerSound>::GetEntitySize
PUBLIC	?KeyValue@CSpeaker@@UAEXPAUKeyValueData_s@@@Z	; CSpeaker::KeyValue
PUBLIC	?Spawn@CSpeaker@@UAEXXZ				; CSpeaker::Spawn
PUBLIC	?Precache@CSpeaker@@UAEXXZ			; CSpeaker::Precache
PUBLIC	?ToggleUse@CSpeaker@@QAEXPAVCBaseEntity@@0W4USE_TYPE@@M@Z ; CSpeaker::ToggleUse
PUBLIC	?SpeakerThink@CSpeaker@@QAEXXZ			; CSpeaker::SpeakerThink
PUBLIC	?GetBaseMap@CSpeaker@@SAPAUdatamap_s@@XZ	; CSpeaker::GetBaseMap
PUBLIC	?GetDataDescMap@CSpeaker@@UAEPAUdatamap_s@@XZ	; CSpeaker::GetDataDescMap
PUBLIC	?ObjectCaps@CSpeaker@@UAEHXZ			; CSpeaker::ObjectCaps
PUBLIC	??0CSpeaker@@QAE@XZ				; CSpeaker::CSpeaker
PUBLIC	??0?$CEntityFactory@VCSpeaker@@@@QAE@PBD@Z	; CEntityFactory<CSpeaker>::CEntityFactory<CSpeaker>
PUBLIC	?Create@?$CEntityFactory@VCSpeaker@@@@UAEPAVCBaseEntity@@PBDPAUentvars_s@@@Z ; CEntityFactory<CSpeaker>::Create
PUBLIC	?Destroy@?$CEntityFactory@VCSpeaker@@@@UAEXPAVCBaseEntity@@@Z ; CEntityFactory<CSpeaker>::Destroy
PUBLIC	?GetEntitySize@?$CEntityFactory@VCSpeaker@@@@UAEIXZ ; CEntityFactory<CSpeaker>::GetEntitySize
PUBLIC	??$DataMapInit@VCSpeaker@@@@YAPAUdatamap_s@@PAVCSpeaker@@@Z ; DataMapInit<CSpeaker>
PUBLIC	?GetState@CAmbientMusic@@UAE?AW4STATE@@XZ	; CAmbientMusic::GetState
PUBLIC	?Use@CAmbientMusic@@UAEXPAVCBaseEntity@@0W4USE_TYPE@@M@Z ; CAmbientMusic::Use
PUBLIC	?PlayStream@CAmbientMusic@@QAEXPAVCBasePlayer@@_N@Z ; CAmbientMusic::PlayStream
PUBLIC	?StartMessage@CAmbientMusic@@UAEXPAVCBasePlayer@@@Z ; CAmbientMusic::StartMessage
PUBLIC	?KeyValue@CAmbientMusic@@UAEXPAUKeyValueData_s@@@Z ; CAmbientMusic::KeyValue
PUBLIC	?Spawn@CAmbientMusic@@UAEXXZ			; CAmbientMusic::Spawn
PUBLIC	?Think@CAmbientMusic@@UAEXXZ			; CAmbientMusic::Think
PUBLIC	??0CAmbientMusic@@QAE@XZ			; CAmbientMusic::CAmbientMusic
PUBLIC	??0?$CEntityFactory@VCAmbientMusic@@@@QAE@PBD@Z	; CEntityFactory<CAmbientMusic>::CEntityFactory<CAmbientMusic>
PUBLIC	?Create@?$CEntityFactory@VCAmbientMusic@@@@UAEPAVCBaseEntity@@PBDPAUentvars_s@@@Z ; CEntityFactory<CAmbientMusic>::Create
PUBLIC	?Destroy@?$CEntityFactory@VCAmbientMusic@@@@UAEXPAVCBaseEntity@@@Z ; CEntityFactory<CAmbientMusic>::Destroy
PUBLIC	?GetEntitySize@?$CEntityFactory@VCAmbientMusic@@@@UAEIXZ ; CEntityFactory<CAmbientMusic>::GetEntitySize
PUBLIC	??$GetClassPtr@VCAmbientMusic@@@@YAPAVCAmbientMusic@@PAV0@PBD@Z ; GetClassPtr<CAmbientMusic>
PUBLIC	??$GetClassPtr@VCSpeaker@@@@YAPAVCSpeaker@@PAV0@PBD@Z ; GetClassPtr<CSpeaker>
PUBLIC	??$GetClassPtr@VCTriggerSound@@@@YAPAVCTriggerSound@@PAV0@PBD@Z ; GetClassPtr<CTriggerSound>
PUBLIC	??$GetClassPtr@VCEnvSound@@@@YAPAVCEnvSound@@PAV0@PBD@Z ; GetClassPtr<CEnvSound>
PUBLIC	??$GetClassPtr@VCAmbientGeneric@@@@YAPAVCAmbientGeneric@@PAV0@PBD@Z ; GetClassPtr<CAmbientGeneric>
PUBLIC	??$CopyConstruct@PAD@@YAXPAPADABQAD@Z		; CopyConstruct<char *>
PUBLIC	??$Destruct@PAD@@YAXPAPAD@Z			; Destruct<char *>
PUBLIC	?_OptionsStorage@?1??__local_stdio_printf_options@@9@4_KA ; `__local_stdio_printf_options'::`2'::_OptionsStorage
PUBLIC	??_C@_00CNPNBAHC@?$AA@				; `string'
PUBLIC	??_C@_04EFCDBJNL@?$CFs?3?3?$AA@			; `string'
PUBLIC	??_7IEntityFactory@@6B@				; IEntityFactory::`vftable'
PUBLIC	??_C@_0BF@CPEPILID@Bad?5ent?5in?5OFFSET?$CI?$CJ?6?$AA@ ; `string'
PUBLIC	??_C@_0BF@DOONGEFO@Bad?5pev?5in?5OFFSET?$CI?$CJ?6?$AA@ ; `string'
PUBLIC	??_7CBaseEntity@@6B@				; CBaseEntity::`vftable'
PUBLIC	??_C@_06MLKDMCBD@parent?$AA@			; `string'
PUBLIC	??_C@_08JJJAOBDI@movewith?$AA@			; `string'
PUBLIC	??_C@_0M@EAELDHJO@parentflags?$AA@		; `string'
PUBLIC	??_C@_05IAKJCFIM@style?$AA@			; `string'
PUBLIC	??_C@_0L@IKCANML@reflection?$AA@		; `string'
PUBLIC	??_C@_0N@JILDNHAP@vlight_cache?$AA@		; `string'
PUBLIC	??_C@_0L@JIJDCONP@customname?$AA@		; `string'
PUBLIC	??_C@_0CH@HELFJPDL@FUNCTION?5NOT?5IN?5TABLE?$CB?3?5?$CFs?3?$CFs?5?$CI?$CF@ ; `string'
PUBLIC	??_7CPointEntity@@6B@				; CPointEntity::`vftable'
PUBLIC	??_7CBaseDelay@@6B@				; CBaseDelay::`vftable'
PUBLIC	??_7CBaseAnimating@@6B@				; CBaseAnimating::`vftable'
PUBLIC	??_7CBaseToggle@@6B@				; CBaseToggle::`vftable'
PUBLIC	??_7CBaseMonster@@6B@				; CBaseMonster::`vftable'
PUBLIC	??_C@_0BB@EMJBJDBM@sprites?1null?4spr?$AA@	; `string'
PUBLIC	??_C@_0BJ@EIFNLFLK@?$CGCBaseEntity?3?3SUB_Remove?$AA@ ; `string'
PUBLIC	??_7CBasePlayer@@6B@				; CBasePlayer::`vftable'
PUBLIC	??_7CAmbientGeneric@@6B@			; CAmbientGeneric::`vftable'
PUBLIC	??_7?$CEntityFactory@VCAmbientGeneric@@@@6B@	; CEntityFactory<CAmbientGeneric>::`vftable'
PUBLIC	??_C@_0BA@JGPOPFCJ@ambient_generic?$AA@		; `string'
PUBLIC	?g_DataMapHolder@CAmbientGeneric_DataDescInit@@3PAUdatamap_s@@A ; CAmbientGeneric_DataDescInit::g_DataMapHolder
PUBLIC	??_C@_09PBDJKLPI@RampThink?$AA@			; `string'
PUBLIC	??_C@_09CHGFKFGA@ToggleUse?$AA@			; `string'
PUBLIC	??_C@_0BC@JFAHPILA@StartDynamicSound?$AA@	; `string'
PUBLIC	??_C@_0N@BFNLBOAL@ReInitialize?$AA@		; `string'
PUBLIC	??_C@_0BO@MMKAKBAC@EMPTY?5AMBIENT?5AT?3?5?$CFf?0?5?$CFf?0?5?$CFf?6?$AA@ ; `string'
PUBLIC	??_C@_0BM@OHHKHLFG@?$CGCAmbientGeneric?3?3ToggleUse?$AA@ ; `string'
PUBLIC	??_C@_0CE@DGMMICMH@?$CGCAmbientGeneric?3?3StartDynamicSo@ ; `string'
PUBLIC	??_C@_0BP@KHIOGCIN@?$CGCAmbientGeneric?3?3ReInitialize?$AA@ ; `string'
PUBLIC	??_C@_0BM@DBCGHFMO@?$CGCAmbientGeneric?3?3RampThink?$AA@ ; `string'
PUBLIC	??_C@_05NCNFOFLM@pitch?$AA@			; `string'
PUBLIC	??_C@_0L@BCICKNJD@pitchstart?$AA@		; `string'
PUBLIC	??_C@_06IGOPKBLH@spinup?$AA@			; `string'
PUBLIC	??_C@_08PFGPOMOJ@spindown?$AA@			; `string'
PUBLIC	??_C@_08MBMKGMEC@volstart?$AA@			; `string'
PUBLIC	??_C@_06JFGPOFJL@fadein?$AA@			; `string'
PUBLIC	??_C@_07BJADIKJG@fadeout?$AA@			; `string'
PUBLIC	??_C@_07FKEDAPJJ@lfotype?$AA@			; `string'
PUBLIC	??_C@_07EHKHCNJF@lforate?$AA@			; `string'
PUBLIC	??_C@_0M@HGAJBMGN@lfomodpitch?$AA@		; `string'
PUBLIC	??_C@_09EKPKCPJP@lfomodvol?$AA@			; `string'
PUBLIC	??_C@_07CAMFAGPI@cspinup?$AA@			; `string'
PUBLIC	??_7CEnvSound@@6B@				; CEnvSound::`vftable'
PUBLIC	??_7?$CEntityFactory@VCEnvSound@@@@6B@		; CEntityFactory<CEnvSound>::`vftable'
PUBLIC	??_C@_09IJFFIEBG@env_sound?$AA@			; `string'
PUBLIC	?g_DataMapHolder@CEnvSound_DataDescInit@@3PAUdatamap_s@@A ; CEnvSound_DataDescInit::g_DataMapHolder
PUBLIC	??_7CTriggerSound@@6B@				; CTriggerSound::`vftable'
PUBLIC	??_7?$CEntityFactory@VCTriggerSound@@@@6B@	; CEntityFactory<CTriggerSound>::`vftable'
PUBLIC	??_C@_0O@FMPBPFAO@trigger_sound?$AA@		; `string'
PUBLIC	??_C@_01DCLJPIOD@?$CB?$AA@			; `string'
PUBLIC	??_C@_02DPKJAMEF@?$CFd?$AA@			; `string'
PUBLIC	??_C@_0BL@PDIDECJC@No?5such?5sentence?5group?5?$CFs?6?$AA@ ; `string'
PUBLIC	??_C@_0BE@LOFIHEDB@sound?1sentences?4txt?$AA@	; `string'
PUBLIC	??_C@_0CG@HMGILMJN@Too?5many?5sentences?5in?5sentences?4@ ; `string'
PUBLIC	??_C@_0CE@OLECIHDE@Sentence?5?$CFs?5longer?5than?5?$CFd?5lette@ ; `string'
PUBLIC	??_C@_0CM@HHCLKDCI@Too?5many?5sentence?5groups?5in?5sent@ ; `string'
PUBLIC	??_C@_0CE@LFNOEBKB@Unable?5to?5find?5?$CFs?5in?5sentences?4t@ ; `string'
PUBLIC	??_C@_0L@BFLOMJEF@suitvolume?$AA@		; `string'
PUBLIC	??_C@_0BD@EJFPBDDL@data?1materials?4txt?$AA@	; `string'
PUBLIC	??_C@_02CBLDBPFN@?1?1?$AA@			; `string'
PUBLIC	??_C@_0O@MDKCAHNO@monster_alice?$AA@		; `string'
PUBLIC	??_C@_0BD@NGLEFHDP@hits?1concrete1?4wav?$AA@	; `string'
PUBLIC	??_C@_0BD@FACACFJB@hits?1concrete2?4wav?$AA@	; `string'
PUBLIC	??_C@_0BD@JLHMPGDE@hits?1concrete3?4wav?$AA@	; `string'
PUBLIC	??_C@_0BD@IGHJMGIM@hits?1concrete4?4wav?$AA@	; `string'
PUBLIC	??_C@_0BA@NFNLDODK@hits?1metal1?4wav?$AA@	; `string'
PUBLIC	??_C@_0BA@FDEPEMJE@hits?1metal2?4wav?$AA@	; `string'
PUBLIC	??_C@_0BA@JIBDJPDB@hits?1metal3?4wav?$AA@	; `string'
PUBLIC	??_C@_0BA@IFBGKPIJ@hits?1metal4?4wav?$AA@	; `string'
PUBLIC	??_C@_0P@BCDMGIBN@hits?1dirt1?4wav?$AA@		; `string'
PUBLIC	??_C@_0P@JEKIBKLD@hits?1dirt2?4wav?$AA@		; `string'
PUBLIC	??_C@_0P@FPPEMJBG@hits?1dirt3?4wav?$AA@		; `string'
PUBLIC	??_C@_0BF@JKJLEGDL@footsteps?1slosh1?4wav?$AA@	; `string'
PUBLIC	??_C@_0BF@NHFDOHDA@footsteps?1slosh3?4wav?$AA@	; `string'
PUBLIC	??_C@_0BF@BMAPDEJF@footsteps?1slosh2?4wav?$AA@	; `string'
PUBLIC	??_C@_0BF@MKFGNHII@footsteps?1slosh4?4wav?$AA@	; `string'
PUBLIC	??_C@_0P@CNNPJDEI@hits?1wood1?4wav?$AA@		; `string'
PUBLIC	??_C@_0P@KLELOBOG@hits?1wood2?4wav?$AA@		; `string'
PUBLIC	??_C@_0P@GABHDCED@hits?1wood3?4wav?$AA@		; `string'
PUBLIC	??_C@_0P@HNBCACPL@hits?1wood4?4wav?$AA@		; `string'
PUBLIC	??_C@_0BA@ICDOJADL@hits?1glass1?4wav?$AA@	; `string'
PUBLIC	??_C@_0BA@EKKOCJF@hits?1glass2?4wav?$AA@	; `string'
PUBLIC	??_C@_0BA@MPPGDBDA@hits?1glass3?4wav?$AA@	; `string'
PUBLIC	??_C@_0BA@NCPDABII@hits?1glass4?4wav?$AA@	; `string'
PUBLIC	??_C@_0BJ@GMGLIKCL@weapons?1cbar_hitbod1?4wav?$AA@ ; `string'
PUBLIC	??_C@_0BJ@OKPPPIIF@weapons?1cbar_hitbod2?4wav?$AA@ ; `string'
PUBLIC	??_C@_0BJ@CBKDCLCA@weapons?1cbar_hitbod3?4wav?$AA@ ; `string'
PUBLIC	??_C@_0BI@EOPFENC@weapons?1bullet_hit1?4wav?$AA@ ; `string'
PUBLIC	??_C@_0BI@ICHLCGHM@weapons?1bullet_hit2?4wav?$AA@ ; `string'
PUBLIC	??_C@_0BH@CNLHGOLI@weapons?1cbar_miss1?4wav?$AA@ ; `string'
PUBLIC	??_C@_0P@NGDPBEAP@func_breakable?$AA@		; `string'
PUBLIC	??_C@_0BD@GGFGALIC@buttons?1spark5?4wav?$AA@	; `string'
PUBLIC	??_C@_0BD@OAMCHJCM@buttons?1spark6?4wav?$AA@	; `string'
PUBLIC	??_C@_0O@DKJMLFCB@hits?1ric1?4wav?$AA@		; `string'
PUBLIC	??_C@_0O@LMAIMHIP@hits?1ric2?4wav?$AA@		; `string'
PUBLIC	??_C@_0O@HHFEBECK@hits?1ric3?4wav?$AA@		; `string'
PUBLIC	??_C@_0O@GKFBCEJC@hits?1ric4?4wav?$AA@		; `string'
PUBLIC	??_C@_0O@KBANPHDH@hits?1ric5?4wav?$AA@		; `string'
PUBLIC	??_7CSpeaker@@6B@				; CSpeaker::`vftable'
PUBLIC	??_7?$CEntityFactory@VCSpeaker@@@@6B@		; CEntityFactory<CSpeaker>::`vftable'
PUBLIC	??_C@_07BHDDMEGH@speaker?$AA@			; `string'
PUBLIC	?g_DataMapHolder@CSpeaker_DataDescInit@@3PAUdatamap_s@@A ; CSpeaker_DataDescInit::g_DataMapHolder
PUBLIC	??_C@_0N@PONONMAE@SpeakerThink?$AA@		; `string'
PUBLIC	??_C@_0DA@IIMJMCCG@SPEAKER?5with?5no?5Level?1Sentence?$CB?5@ ; `string'
PUBLIC	??_C@_0BI@LCJLIMMK@?$CGCSpeaker?3?3SpeakerThink?$AA@ ; `string'
PUBLIC	??_C@_0BF@CAJOKBGD@?$CGCSpeaker?3?3ToggleUse?$AA@ ; `string'
PUBLIC	??_C@_05GBFACMPL@C1A0_?$AA@			; `string'
PUBLIC	??_C@_05GAJCEGMM@C1A1_?$AA@			; `string'
PUBLIC	??_C@_05GCNEPIJF@C1A2_?$AA@			; `string'
PUBLIC	??_C@_05GDBGJCKC@C1A3_?$AA@			; `string'
PUBLIC	??_C@_05GGFJIECH@C1A4_?$AA@			; `string'
PUBLIC	??_C@_05CHDCDMBM@C2A1_?$AA@			; `string'
PUBLIC	??_C@_05CFHEICEF@C2A2_?$AA@			; `string'
PUBLIC	??_C@_05CELGOIHC@C2A3_?$AA@			; `string'
PUBLIC	??_C@_05CBPJPOPH@C2A4_?$AA@			; `string'
PUBLIC	??_C@_05CADLJEMA@C2A5_?$AA@			; `string'
PUBLIC	??_C@_05BKFCBFKM@C3A1_?$AA@			; `string'
PUBLIC	??_C@_05BIBEKLPF@C3A2_?$AA@			; `string'
PUBLIC	??_C@_0DN@IIPINGFH@Level?5Design?5Error?$CB?6SPEAKER?5has?5@ ; `string'
PUBLIC	??_7CAmbientMusic@@6B@				; CAmbientMusic::`vftable'
PUBLIC	??_7?$CEntityFactory@VCAmbientMusic@@@@6B@	; CEntityFactory<CAmbientMusic>::`vftable'
PUBLIC	??_C@_0O@DCFFCPNJ@ambient_music?$AA@		; `string'
PUBLIC	??_C@_0BA@BFHGNAMB@m_iszIntroTrack?$AA@		; `string'
PUBLIC	??_C@_0P@EOMCAGLL@m_iszMainTrack?$AA@		; `string'
PUBLIC	??_C@_08BPPHHMFC@fadetime?$AA@			; `string'
PUBLIC	??_C@_0BB@FNHLBFJP@music?5?$CC?$CFs?$CC?5?$CC?$CFs?$CC?6?$AA@ ; `string'
PUBLIC	??_C@_0M@DKCMEMFI@music?5?$CC?$CFs?$CC?6?$AA@	; `string'
PUBLIC	??_C@_06JLDPCOLD@music?6?$AA@			; `string'
PUBLIC	??_C@_1JC@EMNIBBBG@?$AAd?$AA?3?$AA?2?$AA?$CB?$AAd?$AAi?$AAf?$AAf?$AAu?$AAs?$AAi?$AAo?$AAn?$AA?5?$AA2?$AA0?$AA2?$AA0?$AA?2?$AAs?$AAo?$AAu?$AAr?$AAc?$AAe?$AA?5?$AAc?$AAo?$AAd?$AAe?$AA?5?$AA2@ ; `string'
PUBLIC	??_C@_1IK@DGJDJNN@?$AA?$CI?$AAB?$AAa?$AAs?$AAe?$AA?$CI?$AA?$CJ?$AA?5?$AA?$DN?$AA?$DN?$AA?5?$AAN?$AAU?$AAL?$AAL?$AA?$CJ?$AA?5?$AA?$HM?$AA?$HM?$AA?5?$AA?$CI?$AA?$CG?$AAs?$AAr?$AAc?$AA?5?$AA?$DM?$AA?5?$AAB?$AAa?$AAs?$AAe@ ; `string'
PUBLIC	??_C@_1JE@CIIIAKCN@?$AAd?$AA?3?$AA?2?$AA?$CB?$AAd?$AAi?$AAf?$AAf?$AAu?$AAs?$AAi?$AAo?$AAn?$AA?5?$AA2?$AA0?$AA2?$AA0?$AA?2?$AAs?$AAo?$AAu?$AAr?$AAc?$AAe?$AA?5?$AAc?$AAo?$AAd?$AAe?$AA?5?$AA2@ ; `string'
PUBLIC	??_C@_1BO@FOOHAONO@?$AAn?$AAG?$AAr?$AAo?$AAw?$AAS?$AAi?$AAz?$AAe?$AA?5?$AA?$DO?$AA?$DN?$AA?5?$AA0?$AA?$AA@ ; `string'
PUBLIC	??_C@_1BM@PFNFCCHH@?$AA?$CB?$AAI?$AAs?$AAR?$AAe?$AAa?$AAd?$AAO?$AAn?$AAl?$AAy?$AA?$CI?$AA?$CJ?$AA?$AA@ ; `string'
PUBLIC	??_C@_1BM@CKILBAKK@?$AAI?$AAs?$AAI?$AAd?$AAx?$AAV?$AAa?$AAl?$AAi?$AAd?$AA?$CI?$AAi?$AA?$CJ?$AA?$AA@ ; `string'
PUBLIC	??_C@_1FA@BPFBJKPF@?$AA?$CI?$AAe?$AAl?$AAe?$AAm?$AA?5?$AA?$DN?$AA?$DN?$AA?5?$AAC?$AAo?$AAu?$AAn?$AAt?$AA?$CI?$AA?$CJ?$AA?$CJ?$AA?5?$AA?$HM?$AA?$HM?$AA?5?$AAI?$AAs?$AAV?$AAa?$AAl?$AAi?$AAd?$AAI?$AAn?$AAd?$AAe@ ; `string'
PUBLIC	??_C@_1GM@CDMJDFPA@?$AAI?$AAs?$AAV?$AAa?$AAl?$AAi?$AAd?$AAI?$AAn?$AAd?$AAe?$AAx?$AA?$CI?$AAe?$AAl?$AAe?$AAm?$AA?$CJ?$AA?5?$AA?$HM?$AA?$HM?$AA?5?$AA?$CI?$AA?5?$AAm?$AA_?$AAS?$AAi?$AAz?$AAe?$AA?5?$AA?$DN@ ; `string'
PUBLIC	??_C@_1BA@PKCLMAEA@?$AAn?$AAu?$AAm?$AA?5?$AA?$DO?$AA?5?$AA0?$AA?$AA@ ; `string'
PUBLIC	??_C@_13COJANIEC@?$AA0?$AA?$AA@			; `string'
PUBLIC	??_C@_1BE@OPPFELHC@?$AAm?$AA_?$AAp?$AAM?$AAe?$AAm?$AAo?$AAr?$AAy?$AA?$AA@ ; `string'
PUBLIC	??_R4CBaseEntity@@6B@				; CBaseEntity::`RTTI Complete Object Locator'
PUBLIC	??_R0?AVCBaseEntity@@@8				; CBaseEntity `RTTI Type Descriptor'
PUBLIC	??_R3CBaseEntity@@8				; CBaseEntity::`RTTI Class Hierarchy Descriptor'
PUBLIC	??_R2CBaseEntity@@8				; CBaseEntity::`RTTI Base Class Array'
PUBLIC	??_R1A@?0A@EA@CBaseEntity@@8			; CBaseEntity::`RTTI Base Class Descriptor at (0,-1,0,64)'
PUBLIC	??_R4IEntityFactory@@6B@			; IEntityFactory::`RTTI Complete Object Locator'
PUBLIC	??_R0?AVIEntityFactory@@@8			; IEntityFactory `RTTI Type Descriptor'
PUBLIC	??_R3IEntityFactory@@8				; IEntityFactory::`RTTI Class Hierarchy Descriptor'
PUBLIC	??_R2IEntityFactory@@8				; IEntityFactory::`RTTI Base Class Array'
PUBLIC	??_R1A@?0A@EA@IEntityFactory@@8			; IEntityFactory::`RTTI Base Class Descriptor at (0,-1,0,64)'
PUBLIC	??_R4CBasePlayer@@6B@				; CBasePlayer::`RTTI Complete Object Locator'
PUBLIC	??_R0?AVCBasePlayer@@@8				; CBasePlayer `RTTI Type Descriptor'
PUBLIC	??_R3CBasePlayer@@8				; CBasePlayer::`RTTI Class Hierarchy Descriptor'
PUBLIC	??_R2CBasePlayer@@8				; CBasePlayer::`RTTI Base Class Array'
PUBLIC	??_R1A@?0A@EA@CBasePlayer@@8			; CBasePlayer::`RTTI Base Class Descriptor at (0,-1,0,64)'
PUBLIC	??_R1A@?0A@EA@CBaseMonster@@8			; CBaseMonster::`RTTI Base Class Descriptor at (0,-1,0,64)'
PUBLIC	??_R0?AVCBaseMonster@@@8			; CBaseMonster `RTTI Type Descriptor'
PUBLIC	??_R3CBaseMonster@@8				; CBaseMonster::`RTTI Class Hierarchy Descriptor'
PUBLIC	??_R2CBaseMonster@@8				; CBaseMonster::`RTTI Base Class Array'
PUBLIC	??_R1A@?0A@EA@CBaseToggle@@8			; CBaseToggle::`RTTI Base Class Descriptor at (0,-1,0,64)'
PUBLIC	??_R0?AVCBaseToggle@@@8				; CBaseToggle `RTTI Type Descriptor'
PUBLIC	??_R3CBaseToggle@@8				; CBaseToggle::`RTTI Class Hierarchy Descriptor'
PUBLIC	??_R2CBaseToggle@@8				; CBaseToggle::`RTTI Base Class Array'
PUBLIC	??_R1A@?0A@EA@CBaseAnimating@@8			; CBaseAnimating::`RTTI Base Class Descriptor at (0,-1,0,64)'
PUBLIC	??_R0?AVCBaseAnimating@@@8			; CBaseAnimating `RTTI Type Descriptor'
PUBLIC	??_R3CBaseAnimating@@8				; CBaseAnimating::`RTTI Class Hierarchy Descriptor'
PUBLIC	??_R2CBaseAnimating@@8				; CBaseAnimating::`RTTI Base Class Array'
PUBLIC	??_R1A@?0A@EA@CBaseDelay@@8			; CBaseDelay::`RTTI Base Class Descriptor at (0,-1,0,64)'
PUBLIC	??_R0?AVCBaseDelay@@@8				; CBaseDelay `RTTI Type Descriptor'
PUBLIC	??_R3CBaseDelay@@8				; CBaseDelay::`RTTI Class Hierarchy Descriptor'
PUBLIC	??_R2CBaseDelay@@8				; CBaseDelay::`RTTI Base Class Array'
PUBLIC	??_R4CBaseMonster@@6B@				; CBaseMonster::`RTTI Complete Object Locator'
PUBLIC	??_R4CPointEntity@@6B@				; CPointEntity::`RTTI Complete Object Locator'
PUBLIC	??_R0?AVCPointEntity@@@8			; CPointEntity `RTTI Type Descriptor'
PUBLIC	??_R3CPointEntity@@8				; CPointEntity::`RTTI Class Hierarchy Descriptor'
PUBLIC	??_R2CPointEntity@@8				; CPointEntity::`RTTI Base Class Array'
PUBLIC	??_R1A@?0A@EA@CPointEntity@@8			; CPointEntity::`RTTI Base Class Descriptor at (0,-1,0,64)'
PUBLIC	??_R4CBaseDelay@@6B@				; CBaseDelay::`RTTI Complete Object Locator'
PUBLIC	??_R4CBaseAnimating@@6B@			; CBaseAnimating::`RTTI Complete Object Locator'
PUBLIC	??_R4CBaseToggle@@6B@				; CBaseToggle::`RTTI Complete Object Locator'
PUBLIC	??_R4CAmbientGeneric@@6B@			; CAmbientGeneric::`RTTI Complete Object Locator'
PUBLIC	??_R0?AVCAmbientGeneric@@@8			; CAmbientGeneric `RTTI Type Descriptor'
PUBLIC	??_R3CAmbientGeneric@@8				; CAmbientGeneric::`RTTI Class Hierarchy Descriptor'
PUBLIC	??_R2CAmbientGeneric@@8				; CAmbientGeneric::`RTTI Base Class Array'
PUBLIC	??_R1A@?0A@EA@CAmbientGeneric@@8		; CAmbientGeneric::`RTTI Base Class Descriptor at (0,-1,0,64)'
PUBLIC	??_R4?$CEntityFactory@VCAmbientGeneric@@@@6B@	; CEntityFactory<CAmbientGeneric>::`RTTI Complete Object Locator'
PUBLIC	??_R0?AV?$CEntityFactory@VCAmbientGeneric@@@@@8	; CEntityFactory<CAmbientGeneric> `RTTI Type Descriptor'
PUBLIC	??_R3?$CEntityFactory@VCAmbientGeneric@@@@8	; CEntityFactory<CAmbientGeneric>::`RTTI Class Hierarchy Descriptor'
PUBLIC	??_R2?$CEntityFactory@VCAmbientGeneric@@@@8	; CEntityFactory<CAmbientGeneric>::`RTTI Base Class Array'
PUBLIC	??_R1A@?0A@EA@?$CEntityFactory@VCAmbientGeneric@@@@8 ; CEntityFactory<CAmbientGeneric>::`RTTI Base Class Descriptor at (0,-1,0,64)'
PUBLIC	??_R4CEnvSound@@6B@				; CEnvSound::`RTTI Complete Object Locator'
PUBLIC	??_R0?AVCEnvSound@@@8				; CEnvSound `RTTI Type Descriptor'
PUBLIC	??_R3CEnvSound@@8				; CEnvSound::`RTTI Class Hierarchy Descriptor'
PUBLIC	??_R2CEnvSound@@8				; CEnvSound::`RTTI Base Class Array'
PUBLIC	??_R1A@?0A@EA@CEnvSound@@8			; CEnvSound::`RTTI Base Class Descriptor at (0,-1,0,64)'
PUBLIC	??_R4?$CEntityFactory@VCEnvSound@@@@6B@		; CEntityFactory<CEnvSound>::`RTTI Complete Object Locator'
PUBLIC	??_R0?AV?$CEntityFactory@VCEnvSound@@@@@8	; CEntityFactory<CEnvSound> `RTTI Type Descriptor'
PUBLIC	??_R3?$CEntityFactory@VCEnvSound@@@@8		; CEntityFactory<CEnvSound>::`RTTI Class Hierarchy Descriptor'
PUBLIC	??_R2?$CEntityFactory@VCEnvSound@@@@8		; CEntityFactory<CEnvSound>::`RTTI Base Class Array'
PUBLIC	??_R1A@?0A@EA@?$CEntityFactory@VCEnvSound@@@@8	; CEntityFactory<CEnvSound>::`RTTI Base Class Descriptor at (0,-1,0,64)'
PUBLIC	??_R4CTriggerSound@@6B@				; CTriggerSound::`RTTI Complete Object Locator'
PUBLIC	??_R0?AVCTriggerSound@@@8			; CTriggerSound `RTTI Type Descriptor'
PUBLIC	??_R3CTriggerSound@@8				; CTriggerSound::`RTTI Class Hierarchy Descriptor'
PUBLIC	??_R2CTriggerSound@@8				; CTriggerSound::`RTTI Base Class Array'
PUBLIC	??_R1A@?0A@EA@CTriggerSound@@8			; CTriggerSound::`RTTI Base Class Descriptor at (0,-1,0,64)'
PUBLIC	??_R4?$CEntityFactory@VCTriggerSound@@@@6B@	; CEntityFactory<CTriggerSound>::`RTTI Complete Object Locator'
PUBLIC	??_R0?AV?$CEntityFactory@VCTriggerSound@@@@@8	; CEntityFactory<CTriggerSound> `RTTI Type Descriptor'
PUBLIC	??_R3?$CEntityFactory@VCTriggerSound@@@@8	; CEntityFactory<CTriggerSound>::`RTTI Class Hierarchy Descriptor'
PUBLIC	??_R2?$CEntityFactory@VCTriggerSound@@@@8	; CEntityFactory<CTriggerSound>::`RTTI Base Class Array'
PUBLIC	??_R1A@?0A@EA@?$CEntityFactory@VCTriggerSound@@@@8 ; CEntityFactory<CTriggerSound>::`RTTI Base Class Descriptor at (0,-1,0,64)'
PUBLIC	??_R4CSpeaker@@6B@				; CSpeaker::`RTTI Complete Object Locator'
PUBLIC	??_R0?AVCSpeaker@@@8				; CSpeaker `RTTI Type Descriptor'
PUBLIC	??_R3CSpeaker@@8				; CSpeaker::`RTTI Class Hierarchy Descriptor'
PUBLIC	??_R2CSpeaker@@8				; CSpeaker::`RTTI Base Class Array'
PUBLIC	??_R1A@?0A@EA@CSpeaker@@8			; CSpeaker::`RTTI Base Class Descriptor at (0,-1,0,64)'
PUBLIC	??_R4?$CEntityFactory@VCSpeaker@@@@6B@		; CEntityFactory<CSpeaker>::`RTTI Complete Object Locator'
PUBLIC	??_R0?AV?$CEntityFactory@VCSpeaker@@@@@8	; CEntityFactory<CSpeaker> `RTTI Type Descriptor'
PUBLIC	??_R3?$CEntityFactory@VCSpeaker@@@@8		; CEntityFactory<CSpeaker>::`RTTI Class Hierarchy Descriptor'
PUBLIC	??_R2?$CEntityFactory@VCSpeaker@@@@8		; CEntityFactory<CSpeaker>::`RTTI Base Class Array'
PUBLIC	??_R1A@?0A@EA@?$CEntityFactory@VCSpeaker@@@@8	; CEntityFactory<CSpeaker>::`RTTI Base Class Descriptor at (0,-1,0,64)'
PUBLIC	??_R4CAmbientMusic@@6B@				; CAmbientMusic::`RTTI Complete Object Locator'
PUBLIC	??_R0?AVCAmbientMusic@@@8			; CAmbientMusic `RTTI Type Descriptor'
PUBLIC	??_R3CAmbientMusic@@8				; CAmbientMusic::`RTTI Class Hierarchy Descriptor'
PUBLIC	??_R2CAmbientMusic@@8				; CAmbientMusic::`RTTI Base Class Array'
PUBLIC	??_R1A@?0A@EA@CAmbientMusic@@8			; CAmbientMusic::`RTTI Base Class Descriptor at (0,-1,0,64)'
PUBLIC	??_R4?$CEntityFactory@VCAmbientMusic@@@@6B@	; CEntityFactory<CAmbientMusic>::`RTTI Complete Object Locator'
PUBLIC	??_R0?AV?$CEntityFactory@VCAmbientMusic@@@@@8	; CEntityFactory<CAmbientMusic> `RTTI Type Descriptor'
PUBLIC	??_R3?$CEntityFactory@VCAmbientMusic@@@@8	; CEntityFactory<CAmbientMusic>::`RTTI Class Hierarchy Descriptor'
PUBLIC	??_R2?$CEntityFactory@VCAmbientMusic@@@@8	; CEntityFactory<CAmbientMusic>::`RTTI Base Class Array'
PUBLIC	??_R1A@?0A@EA@?$CEntityFactory@VCAmbientMusic@@@@8 ; CEntityFactory<CAmbientMusic>::`RTTI Base Class Descriptor at (0,-1,0,64)'
PUBLIC	__real@00000000
PUBLIC	__real@0000000000000000
PUBLIC	__real@3c23d70a
PUBLIC	__real@3dcccccd
PUBLIC	__real@3e4ccccd
PUBLIC	__real@3e800000
PUBLIC	__real@3e99999a
PUBLIC	__real@3f000000
PUBLIC	__real@3f19999a
PUBLIC	__real@3f333333
PUBLIC	__real@3f400000
PUBLIC	__real@3f4ccccd
PUBLIC	__real@3f59999a
PUBLIC	__real@3f666666
PUBLIC	__real@3f800000
PUBLIC	__real@3f847ae147ae147b
PUBLIC	__real@3f8ccccd
PUBLIC	__real@3fa00000
PUBLIC	__real@3fa999999999999a
PUBLIC	__real@3fb999999999999a
PUBLIC	__real@3fd0000000000000
PUBLIC	__real@3fe0000000000000
PUBLIC	__real@3fe8000000000000
PUBLIC	__real@3ff0000000000000
PUBLIC	__real@3ff8000000000000
PUBLIC	__real@40000000
PUBLIC	__real@4000000000000000
PUBLIC	__real@40400000
PUBLIC	__real@40a00000
PUBLIC	__real@40c00000
PUBLIC	__real@41200000
PUBLIC	__real@41700000
PUBLIC	__real@41f00000
PUBLIC	__real@43070000
PUBLIC	__real@437f0000
PUBLIC	__real@44440000
PUBLIC	__real@461c4000
EXTRN	__purecall:PROC
EXTRN	??3@YAXPAXI@Z:PROC				; operator delete
EXTRN	??_U@YAPAXI@Z:PROC				; operator new[]
EXTRN	_atexit:PROC
EXTRN	___report_rangecheckfailure:PROC
EXTRN	__Init_thread_header:PROC
EXTRN	__Init_thread_abort:PROC
EXTRN	__Init_thread_footer:PROC
EXTRN	_isalpha:PROC
EXTRN	_isdigit:PROC
EXTRN	_isspace:PROC
EXTRN	_toupper:PROC
EXTRN	_memcpy:PROC
EXTRN	_memmove:PROC
EXTRN	_memset:PROC
EXTRN	_strstr:PROC
EXTRN	_strcat:PROC
EXTRN	_strcmp:PROC
EXTRN	_strcpy:PROC
EXTRN	_strlen:PROC
EXTRN	_stricmp:PROC
EXTRN	_strnicmp:PROC
EXTRN	___stdio_common_vsprintf:PROC
EXTRN	_free:PROC
EXTRN	_malloc:PROC
EXTRN	_realloc:PROC
EXTRN	_abs:PROC
EXTRN	_atof:PROC
EXTRN	_atoi:PROC
EXTRN	_sqrt:PROC
EXTRN	??0matrix4x4@@QAE@XZ:PROC			; matrix4x4::matrix4x4
EXTRN	?Q_atoi@@YAHPBD@Z:PROC				; Q_atoi
EXTRN	?Q_atof@@YAMPBD@Z:PROC				; Q_atof
EXTRN	?Q_strncmp@@YAHPBD0H@Z:PROC			; Q_strncmp
EXTRN	__wassert:PROC
EXTRN	?UTIL_Remove@@YAXPAVCBaseEntity@@@Z:PROC	; UTIL_Remove
EXTRN	?EntityFactoryDictionary@@YAPAVIEntityFactoryDictionary@@XZ:PROC ; EntityFactoryDictionary
EXTRN	?DBG_EntOfVars@@YAPAUedict_s@@PBUentvars_s@@@Z:PROC ; DBG_EntOfVars
EXTRN	?UTIL_PlayerByIndex@@YAPAVCBaseEntity@@H@Z:PROC	; UTIL_PlayerByIndex
EXTRN	?UTIL_EmitAmbientSound@@YAXPAUedict_s@@ABVVector@@PBDMMHH@Z:PROC ; UTIL_EmitAmbientSound
EXTRN	?UTIL_TraceLine@@YAXABVVector@@0W4IGNORE_MONSTERS@@PAUedict_s@@PAUgametrace_s@@@Z:PROC ; UTIL_TraceLine
EXTRN	?UTIL_GetGlobalTrace@@YA?AUgametrace_s@@XZ:PROC	; UTIL_GetGlobalTrace
EXTRN	?UTIL_PointContents@@YAHABVVector@@@Z:PROC	; UTIL_PointContents
EXTRN	?UTIL_Sparks@@YAXABVVector@@@Z:PROC		; UTIL_Sparks
EXTRN	?UTIL_Ricochet@@YAXABVVector@@M@Z:PROC		; UTIL_Ricochet
EXTRN	?UTIL_GetModelType@@YA?AW4modtype_t@@H@Z:PROC	; UTIL_GetModelType
EXTRN	?UTIL_FunctionToName@@YAPBDPAUdatamap_s@@PAX@Z:PROC ; UTIL_FunctionToName
EXTRN	??0CMeshDesc@@QAE@XZ:PROC			; CMeshDesc::CMeshDesc
EXTRN	??1CMeshDesc@@QAE@XZ:PROC			; CMeshDesc::~CMeshDesc
EXTRN	?GetDataDescMap@CBaseEntity@@UAEPAUdatamap_s@@XZ:PROC ; CBaseEntity::GetDataDescMap
EXTRN	?GetAbsOrigin@CBaseEntity@@QBEABVVector@@XZ:PROC ; CBaseEntity::GetAbsOrigin
EXTRN	?GetAbsVelocity@CBaseEntity@@QBEABVVector@@XZ:PROC ; CBaseEntity::GetAbsVelocity
EXTRN	?ShouldToggle@CBaseEntity@@QAEHW4USE_TYPE@@@Z:PROC ; CBaseEntity::ShouldToggle
EXTRN	?Save@CBaseEntity@@UAEHAAVCSave@@@Z:PROC	; CBaseEntity::Save
EXTRN	?Restore@CBaseEntity@@UAEHAAVCRestore@@@Z:PROC	; CBaseEntity::Restore
EXTRN	?SetObjectCollisionBox@CBaseEntity@@UAEXXZ:PROC	; CBaseEntity::SetObjectCollisionBox
EXTRN	?SetNextThink@CBaseEntity@@UAEXM@Z:PROC		; CBaseEntity::SetNextThink
EXTRN	?TraceAttack@CBaseEntity@@UAEXPAUentvars_s@@MVVector@@PAUgametrace_s@@H@Z:PROC ; CBaseEntity::TraceAttack
EXTRN	?TakeDamage@CBaseEntity@@UAEHPAUentvars_s@@0MH@Z:PROC ; CBaseEntity::TakeDamage
EXTRN	?TakeHealth@CBaseEntity@@UAEHMH@Z:PROC		; CBaseEntity::TakeHealth
EXTRN	?TakeArmor@CBaseEntity@@UAEHMH@Z:PROC		; CBaseEntity::TakeArmor
EXTRN	?Killed@CBaseEntity@@UAEXPAUentvars_s@@H@Z:PROC	; CBaseEntity::Killed
EXTRN	?TraceBleed@CBaseEntity@@UAEXMVVector@@PAUgametrace_s@@H@Z:PROC ; CBaseEntity::TraceBleed
EXTRN	?DamageDecal@CBaseEntity@@UAEHH@Z:PROC		; CBaseEntity::DamageDecal
EXTRN	?IsInWorld@CBaseEntity@@UAEHH@Z:PROC		; CBaseEntity::IsInWorld
EXTRN	?GetNextTarget@CBaseEntity@@UAEPAV1@XZ:PROC	; CBaseEntity::GetNextTarget
EXTRN	?SUB_Remove@CBaseEntity@@QAEXXZ:PROC		; CBaseEntity::SUB_Remove
EXTRN	?FVisible@CBaseEntity@@UAEHPAV1@@Z:PROC		; CBaseEntity::FVisible
EXTRN	?FVisible@CBaseEntity@@UAEHABVVector@@@Z:PROC	; CBaseEntity::FVisible
EXTRN	?ShouldCollide@CBaseEntity@@UAEHPAV1@@Z:PROC	; CBaseEntity::ShouldCollide
EXTRN	?ClearEffects@CBaseEntity@@UAEXXZ:PROC		; CBaseEntity::ClearEffects
EXTRN	?Spawn@CPointEntity@@UAEXXZ:PROC		; CPointEntity::Spawn
EXTRN	?KeyValue@CBaseDelay@@UAEXPAUKeyValueData_s@@@Z:PROC ; CBaseDelay::KeyValue
EXTRN	?IsLockedByMaster@CBaseDelay@@QAEHPAVCBaseEntity@@@Z:PROC ; CBaseDelay::IsLockedByMaster
EXTRN	?SUB_UseTargets@CBaseDelay@@QAEXPAVCBaseEntity@@W4USE_TYPE@@MH@Z:PROC ; CBaseDelay::SUB_UseTargets
EXTRN	?GetDataDescMap@CBaseDelay@@UAEPAUdatamap_s@@XZ:PROC ; CBaseDelay::GetDataDescMap
EXTRN	?GetDataDescMap@CBaseAnimating@@UAEPAUdatamap_s@@XZ:PROC ; CBaseAnimating::GetDataDescMap
EXTRN	?KeyValue@CBaseToggle@@UAEXPAUKeyValueData_s@@@Z:PROC ; CBaseToggle::KeyValue
EXTRN	?Restore@CBaseToggle@@UAEHAAVCRestore@@@Z:PROC	; CBaseToggle::Restore
EXTRN	?GetDataDescMap@CBaseToggle@@UAEPAUdatamap_s@@XZ:PROC ; CBaseToggle::GetDataDescMap
EXTRN	?GetState@CBaseToggle@@UAE?AW4STATE@@XZ:PROC	; CBaseToggle::GetState
EXTRN	?MoveDone@CBaseToggle@@UAEXXZ:PROC		; CBaseToggle::MoveDone
EXTRN	?GetDataDescMap@CBaseMonster@@UAEPAUdatamap_s@@XZ:PROC ; CBaseMonster::GetDataDescMap
EXTRN	?KeyValue@CBaseMonster@@UAEXPAUKeyValueData_s@@@Z:PROC ; CBaseMonster::KeyValue
EXTRN	?Restore@CBaseMonster@@UAEHAAVCRestore@@@Z:PROC	; CBaseMonster::Restore
EXTRN	?Look@CBaseMonster@@UAEXH@Z:PROC		; CBaseMonster::Look
EXTRN	?RunAI@CBaseMonster@@UAEXXZ:PROC		; CBaseMonster::RunAI
EXTRN	?ShouldFadeOnDeath@CBaseMonster@@UAEHXZ:PROC	; CBaseMonster::ShouldFadeOnDeath
EXTRN	?ChangeYaw@CBaseMonster@@UAEMH@Z:PROC		; CBaseMonster::ChangeYaw
EXTRN	?MonsterThink@CBaseMonster@@UAEXXZ:PROC		; CBaseMonster::MonsterThink
EXTRN	?IRelationship@CBaseMonster@@UAEHPAVCBaseEntity@@@Z:PROC ; CBaseMonster::IRelationship
EXTRN	?MonsterInit@CBaseMonster@@UAEXXZ:PROC		; CBaseMonster::MonsterInit
EXTRN	?MonsterInitDead@CBaseMonster@@UAEXXZ:PROC	; CBaseMonster::MonsterInitDead
EXTRN	?BecomeDead@CBaseMonster@@UAEXXZ:PROC		; CBaseMonster::BecomeDead
EXTRN	?StartMonster@CBaseMonster@@UAEXXZ:PROC		; CBaseMonster::StartMonster
EXTRN	?BestVisibleEnemy@CBaseMonster@@UAEPAVCBaseEntity@@XZ:PROC ; CBaseMonster::BestVisibleEnemy
EXTRN	?FInViewCone@CBaseMonster@@UAEHPAVCBaseEntity@@M@Z:PROC ; CBaseMonster::FInViewCone
EXTRN	?FInViewCone@CBaseMonster@@UAEHPAVVector@@@Z:PROC ; CBaseMonster::FInViewCone
EXTRN	?HandleAnimEvent@CBaseMonster@@UAEXPAUMonsterEvent_t@@@Z:PROC ; CBaseMonster::HandleAnimEvent
EXTRN	?CheckLocalMove@CBaseMonster@@UAEHABVVector@@0PAVCBaseEntity@@PAM@Z:PROC ; CBaseMonster::CheckLocalMove
EXTRN	?Move@CBaseMonster@@UAEXM@Z:PROC		; CBaseMonster::Move
EXTRN	?MoveExecute@CBaseMonster@@UAEXPAVCBaseEntity@@ABVVector@@M@Z:PROC ; CBaseMonster::MoveExecute
EXTRN	?ShouldAdvanceRoute@CBaseMonster@@UAEHM@Z:PROC	; CBaseMonster::ShouldAdvanceRoute
EXTRN	?CheckRangeAttack1@CBaseMonster@@UAEHMM@Z:PROC	; CBaseMonster::CheckRangeAttack1
EXTRN	?CheckRangeAttack2@CBaseMonster@@UAEHMM@Z:PROC	; CBaseMonster::CheckRangeAttack2
EXTRN	?CheckMeleeAttack1@CBaseMonster@@UAEHMM@Z:PROC	; CBaseMonster::CheckMeleeAttack1
EXTRN	?CheckMeleeAttack2@CBaseMonster@@UAEHMM@Z:PROC	; CBaseMonster::CheckMeleeAttack2
EXTRN	?ScheduleFromName@CBaseMonster@@UAEPAUSchedule_t@@PBD@Z:PROC ; CBaseMonster::ScheduleFromName
EXTRN	?StartTask@CBaseMonster@@UAEXPAUTask_t@@@Z:PROC	; CBaseMonster::StartTask
EXTRN	?RunTask@CBaseMonster@@UAEXPAUTask_t@@@Z:PROC	; CBaseMonster::RunTask
EXTRN	?GetScheduleOfType@CBaseMonster@@UAEPAUSchedule_t@@H@Z:PROC ; CBaseMonster::GetScheduleOfType
EXTRN	?GetSchedule@CBaseMonster@@UAEPAUSchedule_t@@XZ:PROC ; CBaseMonster::GetSchedule
EXTRN	?CanPlaySequence@CBaseMonster@@UAEHHH@Z:PROC	; CBaseMonster::CanPlaySequence
EXTRN	?PlaySentence@CBaseMonster@@UAEXPBDMMMH@Z:PROC	; CBaseMonster::PlaySentence
EXTRN	?PlayScriptedSentence@CBaseMonster@@UAEXPBDMMMHPAVCBaseEntity@@H@Z:PROC ; CBaseMonster::PlayScriptedSentence
EXTRN	?SentenceStop@CBaseMonster@@UAEXXZ:PROC		; CBaseMonster::SentenceStop
EXTRN	?GetIdealState@CBaseMonster@@UAE?AW4MONSTERSTATE@@XZ:PROC ; CBaseMonster::GetIdealState
EXTRN	?SetActivity@CBaseMonster@@UAEXW4Activity@@@Z:PROC ; CBaseMonster::SetActivity
EXTRN	?ReportAIState@CBaseMonster@@UAEXXZ:PROC	; CBaseMonster::ReportAIState
EXTRN	?CheckEnemy@CBaseMonster@@UAEHPAVCBaseEntity@@@Z:PROC ; CBaseMonster::CheckEnemy
EXTRN	?FTriangulate@CBaseMonster@@UAEHABVVector@@0MPAVCBaseEntity@@PAV2@@Z:PROC ; CBaseMonster::FTriangulate
EXTRN	?BuildNearestRoute@CBaseMonster@@UAEHVVector@@0MM@Z:PROC ; CBaseMonster::BuildNearestRoute
EXTRN	?FindCover@CBaseMonster@@UAEHVVector@@0MM@Z:PROC ; CBaseMonster::FindCover
EXTRN	?FindRunAway@CBaseMonster@@UAEHVVector@@MM@Z:PROC ; CBaseMonster::FindRunAway
EXTRN	?FCanCheckAttacks@CBaseMonster@@UAEHXZ:PROC	; CBaseMonster::FCanCheckAttacks
EXTRN	?IgnoreConditions@CBaseMonster@@UAEHXZ:PROC	; CBaseMonster::IgnoreConditions
EXTRN	?FValidateHintType@CBaseMonster@@UAEHF@Z:PROC	; CBaseMonster::FValidateHintType
EXTRN	?FCanActiveIdle@CBaseMonster@@UAEHXZ:PROC	; CBaseMonster::FCanActiveIdle
EXTRN	?ISoundMask@CBaseMonster@@UAEHXZ:PROC		; CBaseMonster::ISoundMask
EXTRN	?PBestSound@CBaseMonster@@UAEPAVCSound@@XZ:PROC	; CBaseMonster::PBestSound
EXTRN	?PBestScent@CBaseMonster@@UAEPAVCSound@@XZ:PROC	; CBaseMonster::PBestScent
EXTRN	?FBecomeProne@CBaseMonster@@UAEHXZ:PROC		; CBaseMonster::FBecomeProne
EXTRN	?BarnacleVictimBitten@CBaseMonster@@UAEXPAUentvars_s@@@Z:PROC ; CBaseMonster::BarnacleVictimBitten
EXTRN	?BarnacleVictimReleased@CBaseMonster@@UAEXXZ:PROC ; CBaseMonster::BarnacleVictimReleased
EXTRN	?TraceAttack@CBaseMonster@@UAEXPAUentvars_s@@MVVector@@PAUgametrace_s@@H@Z:PROC ; CBaseMonster::TraceAttack
EXTRN	?GetDeathActivity@CBaseMonster@@UAE?AW4Activity@@XZ:PROC ; CBaseMonster::GetDeathActivity
EXTRN	?Killed@CBaseMonster@@UAEXPAUentvars_s@@H@Z:PROC ; CBaseMonster::Killed
EXTRN	?GibMonster@CBaseMonster@@UAEXXZ:PROC		; CBaseMonster::GibMonster
EXTRN	?DamageDecal@CBaseMonster@@UAEHH@Z:PROC		; CBaseMonster::DamageDecal
EXTRN	?HasHumanGibs@CBaseMonster@@UAEHXZ:PROC		; CBaseMonster::HasHumanGibs
EXTRN	?HasAlienGibs@CBaseMonster@@UAEHXZ:PROC		; CBaseMonster::HasAlienGibs
EXTRN	?FadeMonster@CBaseMonster@@UAEXXZ:PROC		; CBaseMonster::FadeMonster
EXTRN	?GetGunPosition@CBaseMonster@@UAE?AVVector@@XZ:PROC ; CBaseMonster::GetGunPosition
EXTRN	?TakeHealth@CBaseMonster@@UAEHMH@Z:PROC		; CBaseMonster::TakeHealth
EXTRN	?TakeDamage@CBaseMonster@@UAEHPAUentvars_s@@0MH@Z:PROC ; CBaseMonster::TakeDamage
EXTRN	?StepSound@CBaseMonster@@UAEXXZ:PROC		; CBaseMonster::StepSound
EXTRN	?ClearEffects@CBaseMonster@@UAEXXZ:PROC		; CBaseMonster::ClearEffects
EXTRN	?Spawn@CBasePlayer@@UAEXXZ:PROC			; CBasePlayer::Spawn
EXTRN	?Jump@CBasePlayer@@UAEXXZ:PROC			; CBasePlayer::Jump
EXTRN	?Duck@CBasePlayer@@UAEXXZ:PROC			; CBasePlayer::Duck
EXTRN	?PreThink@CBasePlayer@@UAEXXZ:PROC		; CBasePlayer::PreThink
EXTRN	?PostThink@CBasePlayer@@UAEXXZ:PROC		; CBasePlayer::PostThink
EXTRN	?GetGunPosition@CBasePlayer@@UAE?AVVector@@XZ:PROC ; CBasePlayer::GetGunPosition
EXTRN	?TakeHealth@CBasePlayer@@UAEHMH@Z:PROC		; CBasePlayer::TakeHealth
EXTRN	?TraceAttack@CBasePlayer@@UAEXPAUentvars_s@@MVVector@@PAUgametrace_s@@H@Z:PROC ; CBasePlayer::TraceAttack
EXTRN	?TakeDamage@CBasePlayer@@UAEHPAUentvars_s@@0MH@Z:PROC ; CBasePlayer::TakeDamage
EXTRN	?Killed@CBasePlayer@@UAEXPAUentvars_s@@H@Z:PROC	; CBasePlayer::Killed
EXTRN	?GibMonster@CBasePlayer@@UAEXXZ:PROC		; CBasePlayer::GibMonster
EXTRN	?TeamID@CBasePlayer@@UAEPBDXZ:PROC		; CBasePlayer::TeamID
EXTRN	?Restore@CBasePlayer@@UAEHAAVCRestore@@@Z:PROC	; CBasePlayer::Restore
EXTRN	?UpdateClientData@CBasePlayer@@UAEXXZ:PROC	; CBasePlayer::UpdateClientData
EXTRN	?GetDataDescMap@CBasePlayer@@UAEPAUdatamap_s@@XZ:PROC ; CBasePlayer::GetDataDescMap
EXTRN	?Precache@CBasePlayer@@UAEXXZ:PROC		; CBasePlayer::Precache
EXTRN	?DeathSound@CBasePlayer@@UAEXXZ:PROC		; CBasePlayer::DeathSound
EXTRN	?TransferReset@CBasePlayer@@UAEXXZ:PROC		; CBasePlayer::TransferReset
EXTRN	?Classify@CBasePlayer@@UAEHXZ:PROC		; CBasePlayer::Classify
EXTRN	?ImpulseCommands@CBasePlayer@@UAEXXZ:PROC	; CBasePlayer::ImpulseCommands
EXTRN	?AddPoints@CBasePlayer@@UAEXHH@Z:PROC		; CBasePlayer::AddPoints
EXTRN	?AddPointsToTeam@CBasePlayer@@UAEXHH@Z:PROC	; CBasePlayer::AddPointsToTeam
EXTRN	?AddPlayerItem@CBasePlayer@@UAEHPAVCBasePlayerItem@@@Z:PROC ; CBasePlayer::AddPlayerItem
EXTRN	?RemovePlayerItem@CBasePlayer@@UAEHPAVCBasePlayerItem@@@Z:PROC ; CBasePlayer::RemovePlayerItem
EXTRN	?GiveAmmo@CBasePlayer@@UAEHHPADH@Z:PROC		; CBasePlayer::GiveAmmo
EXTRN	?FBecomeProne@CBasePlayer@@UAEHXZ:PROC		; CBasePlayer::FBecomeProne
EXTRN	?BarnacleVictimBitten@CBasePlayer@@UAEXPAUentvars_s@@@Z:PROC ; CBasePlayer::BarnacleVictimBitten
EXTRN	?BarnacleVictimReleased@CBasePlayer@@UAEXXZ:PROC ; CBasePlayer::BarnacleVictimReleased
EXTRN	?Illumination@CBasePlayer@@UAEHXZ:PROC		; CBasePlayer::Illumination
EXTRN	?CheckTutorMessage@CBasePlayer@@UAEXH@Z:PROC	; CBasePlayer::CheckTutorMessage
EXTRN	@__security_check_cookie@4:PROC
EXTRN	___CxxFrameHandler3:PROC
EXTRN	__Init_thread_epoch:DWORD
EXTRN	?g_vecZero@@3VVector@@B:BYTE			; g_vecZero
EXTRN	?g_engfuncs@@3Uenginefuncs_s@@A:BYTE		; g_engfuncs
EXTRN	??_7type_info@@6B@:QWORD			; type_info::`vftable'
EXTRN	?gpGlobals@@3PAUglobalvars_t@@A:DWORD		; gpGlobals
EXTRN	?m_DataMap@CBaseEntity@@2Udatamap_s@@A:BYTE	; CBaseEntity::m_DataMap
EXTRN	?gmsgTempEnt@@3HA:DWORD				; gmsgTempEnt
EXTRN	?gmsgMusicFade@@3HA:DWORD			; gmsgMusicFade
EXTRN	?g_talkWaitTime@CTalkMonster@@2MA:DWORD		; CTalkMonster::g_talkWaitTime
EXTRN	?g_pGameRules@@3PAVCGameRules@@A:DWORD		; g_pGameRules
EXTRN	___security_cookie:DWORD
EXTRN	__fltused:DWORD
EXTRN	__tls_array:DWORD
EXTRN	__tls_index:DWORD
;	COMDAT ?_OptionsStorage@?1??__local_stdio_printf_options@@9@4_KA
_BSS	SEGMENT
?_OptionsStorage@?1??__local_stdio_printf_options@@9@4_KA DQ 01H DUP (?) ; `__local_stdio_printf_options'::`2'::_OptionsStorage
_BSS	ENDS
_BSS	SEGMENT
?ambient_generic@@3V?$CEntityFactory@VCAmbientGeneric@@@@A DD 01H DUP (?) ; ambient_generic
?g_DataMapHolder@CAmbientGeneric_DataDescInit@@3PAUdatamap_s@@A DD 01H DUP (?) ; CAmbientGeneric_DataDescInit::g_DataMapHolder
?nameHolder@?1???$DataMapInit@VCAmbientGeneric@@@@YAPAUdatamap_s@@PAVCAmbientGeneric@@@Z@4VCDatadescGeneratedNameHolder@@A DB 01cH DUP (?) ; `DataMapInit<CAmbientGeneric>'::`2'::nameHolder
?$TSS0@?1???$DataMapInit@VCAmbientGeneric@@@@YAPAUdatamap_s@@PAVCAmbientGeneric@@@Z@4HA DD 01H DUP (?) ; `DataMapInit<CAmbientGeneric>'::`2'::$TSS0
?$TSS1@?1???$DataMapInit@VCAmbientGeneric@@@@YAPAUdatamap_s@@PAVCAmbientGeneric@@@Z@4HA DD 01H DUP (?) ; `DataMapInit<CAmbientGeneric>'::`2'::$TSS1
?env_sound@@3V?$CEntityFactory@VCEnvSound@@@@A DD 01H DUP (?) ; env_sound
?g_DataMapHolder@CEnvSound_DataDescInit@@3PAUdatamap_s@@A DD 01H DUP (?) ; CEnvSound_DataDescInit::g_DataMapHolder
?nameHolder@?1???$DataMapInit@VCEnvSound@@@@YAPAUdatamap_s@@PAVCEnvSound@@@Z@4VCDatadescGeneratedNameHolder@@A DB 01cH DUP (?) ; `DataMapInit<CEnvSound>'::`2'::nameHolder
?$TSS0@?1???$DataMapInit@VCEnvSound@@@@YAPAUdatamap_s@@PAVCEnvSound@@@Z@4HA DD 01H DUP (?) ; `DataMapInit<CEnvSound>'::`2'::$TSS0
?trigger_sound@@3V?$CEntityFactory@VCTriggerSound@@@@A DD 01H DUP (?) ; trigger_sound
?speaker@@3V?$CEntityFactory@VCSpeaker@@@@A DD 01H DUP (?) ; speaker
?g_DataMapHolder@CSpeaker_DataDescInit@@3PAUdatamap_s@@A DD 01H DUP (?) ; CSpeaker_DataDescInit::g_DataMapHolder
?nameHolder@?1???$DataMapInit@VCSpeaker@@@@YAPAUdatamap_s@@PAVCSpeaker@@@Z@4VCDatadescGeneratedNameHolder@@A DB 01cH DUP (?) ; `DataMapInit<CSpeaker>'::`2'::nameHolder
?$TSS0@?1???$DataMapInit@VCSpeaker@@@@YAPAUdatamap_s@@PAVCSpeaker@@@Z@4HA DD 01H DUP (?) ; `DataMapInit<CSpeaker>'::`2'::$TSS0
?$TSS1@?1???$DataMapInit@VCSpeaker@@@@YAPAUdatamap_s@@PAVCSpeaker@@@Z@4HA DD 01H DUP (?) ; `DataMapInit<CSpeaker>'::`2'::$TSS1
?ambient_music@@3V?$CEntityFactory@VCAmbientMusic@@@@A DD 01H DUP (?) ; ambient_music
_BSS	ENDS
CRT$XCU	SEGMENT
?ambient_generic$initializer$@@3P6AXXZA DD FLAT:??__Eambient_generic@@YAXXZ ; ambient_generic$initializer$
CRT$XCU	ENDS
;	COMDAT __real@461c4000
CONST	SEGMENT
__real@461c4000 DD 0461c4000r			; 10000
CONST	ENDS
;	COMDAT __real@44440000
CONST	SEGMENT
__real@44440000 DD 044440000r			; 784
CONST	ENDS
;	COMDAT __real@437f0000
CONST	SEGMENT
__real@437f0000 DD 0437f0000r			; 255
CONST	ENDS
;	COMDAT __real@43070000
CONST	SEGMENT
__real@43070000 DD 043070000r			; 135
CONST	ENDS
;	COMDAT __real@41f00000
CONST	SEGMENT
__real@41f00000 DD 041f00000r			; 30
CONST	ENDS
;	COMDAT __real@41700000
CONST	SEGMENT
__real@41700000 DD 041700000r			; 15
CONST	ENDS
;	COMDAT __real@41200000
CONST	SEGMENT
__real@41200000 DD 041200000r			; 10
CONST	ENDS
;	COMDAT __real@40c00000
CONST	SEGMENT
__real@40c00000 DD 040c00000r			; 6
CONST	ENDS
;	COMDAT __real@40a00000
CONST	SEGMENT
__real@40a00000 DD 040a00000r			; 5
CONST	ENDS
;	COMDAT __real@40400000
CONST	SEGMENT
__real@40400000 DD 040400000r			; 3
CONST	ENDS
;	COMDAT __real@4000000000000000
CONST	SEGMENT
__real@4000000000000000 DQ 04000000000000000r	; 2
CONST	ENDS
;	COMDAT __real@40000000
CONST	SEGMENT
__real@40000000 DD 040000000r			; 2
CONST	ENDS
;	COMDAT __real@3ff8000000000000
CONST	SEGMENT
__real@3ff8000000000000 DQ 03ff8000000000000r	; 1.5
CONST	ENDS
;	COMDAT __real@3ff0000000000000
CONST	SEGMENT
__real@3ff0000000000000 DQ 03ff0000000000000r	; 1
CONST	ENDS
;	COMDAT __real@3fe8000000000000
CONST	SEGMENT
__real@3fe8000000000000 DQ 03fe8000000000000r	; 0.75
CONST	ENDS
;	COMDAT __real@3fe0000000000000
CONST	SEGMENT
__real@3fe0000000000000 DQ 03fe0000000000000r	; 0.5
CONST	ENDS
;	COMDAT __real@3fd0000000000000
CONST	SEGMENT
__real@3fd0000000000000 DQ 03fd0000000000000r	; 0.25
CONST	ENDS
;	COMDAT __real@3fb999999999999a
CONST	SEGMENT
__real@3fb999999999999a DQ 03fb999999999999ar	; 0.1
CONST	ENDS
;	COMDAT __real@3fa999999999999a
CONST	SEGMENT
__real@3fa999999999999a DQ 03fa999999999999ar	; 0.05
CONST	ENDS
;	COMDAT __real@3fa00000
CONST	SEGMENT
__real@3fa00000 DD 03fa00000r			; 1.25
CONST	ENDS
;	COMDAT __real@3f8ccccd
CONST	SEGMENT
__real@3f8ccccd DD 03f8ccccdr			; 1.1
CONST	ENDS
;	COMDAT __real@3f847ae147ae147b
CONST	SEGMENT
__real@3f847ae147ae147b DQ 03f847ae147ae147br	; 0.01
CONST	ENDS
;	COMDAT __real@3f800000
CONST	SEGMENT
__real@3f800000 DD 03f800000r			; 1
CONST	ENDS
;	COMDAT __real@3f666666
CONST	SEGMENT
__real@3f666666 DD 03f666666r			; 0.9
CONST	ENDS
;	COMDAT __real@3f59999a
CONST	SEGMENT
__real@3f59999a DD 03f59999ar			; 0.85
CONST	ENDS
;	COMDAT __real@3f4ccccd
CONST	SEGMENT
__real@3f4ccccd DD 03f4ccccdr			; 0.8
CONST	ENDS
;	COMDAT __real@3f400000
CONST	SEGMENT
__real@3f400000 DD 03f400000r			; 0.75
CONST	ENDS
;	COMDAT __real@3f333333
CONST	SEGMENT
__real@3f333333 DD 03f333333r			; 0.7
CONST	ENDS
;	COMDAT __real@3f19999a
CONST	SEGMENT
__real@3f19999a DD 03f19999ar			; 0.6
CONST	ENDS
;	COMDAT __real@3f000000
CONST	SEGMENT
__real@3f000000 DD 03f000000r			; 0.5
CONST	ENDS
;	COMDAT __real@3e99999a
CONST	SEGMENT
__real@3e99999a DD 03e99999ar			; 0.3
CONST	ENDS
;	COMDAT __real@3e800000
CONST	SEGMENT
__real@3e800000 DD 03e800000r			; 0.25
CONST	ENDS
;	COMDAT __real@3e4ccccd
CONST	SEGMENT
__real@3e4ccccd DD 03e4ccccdr			; 0.2
CONST	ENDS
;	COMDAT __real@3dcccccd
CONST	SEGMENT
__real@3dcccccd DD 03dcccccdr			; 0.1
CONST	ENDS
;	COMDAT __real@3c23d70a
CONST	SEGMENT
__real@3c23d70a DD 03c23d70ar			; 0.01
CONST	ENDS
;	COMDAT __real@0000000000000000
CONST	SEGMENT
__real@0000000000000000 DQ 00000000000000000r	; 0
CONST	ENDS
;	COMDAT __real@00000000
CONST	SEGMENT
__real@00000000 DD 000000000r			; 0
CONST	ENDS
;	COMDAT ??_R1A@?0A@EA@?$CEntityFactory@VCAmbientMusic@@@@8
rdata$r	SEGMENT
??_R1A@?0A@EA@?$CEntityFactory@VCAmbientMusic@@@@8 DD FLAT:??_R0?AV?$CEntityFactory@VCAmbientMusic@@@@@8 ; CEntityFactory<CAmbientMusic>::`RTTI Base Class Descriptor at (0,-1,0,64)'
	DD	01H
	DD	00H
	DD	0ffffffffH
	DD	00H
	DD	040H
	DD	FLAT:??_R3?$CEntityFactory@VCAmbientMusic@@@@8
rdata$r	ENDS
;	COMDAT ??_R2?$CEntityFactory@VCAmbientMusic@@@@8
rdata$r	SEGMENT
??_R2?$CEntityFactory@VCAmbientMusic@@@@8 DD FLAT:??_R1A@?0A@EA@?$CEntityFactory@VCAmbientMusic@@@@8 ; CEntityFactory<CAmbientMusic>::`RTTI Base Class Array'
	DD	FLAT:??_R1A@?0A@EA@IEntityFactory@@8
rdata$r	ENDS
;	COMDAT ??_R3?$CEntityFactory@VCAmbientMusic@@@@8
rdata$r	SEGMENT
??_R3?$CEntityFactory@VCAmbientMusic@@@@8 DD 00H	; CEntityFactory<CAmbientMusic>::`RTTI Class Hierarchy Descriptor'
	DD	00H
	DD	02H
	DD	FLAT:??_R2?$CEntityFactory@VCAmbientMusic@@@@8
rdata$r	ENDS
;	COMDAT ??_R0?AV?$CEntityFactory@VCAmbientMusic@@@@@8
data$r	SEGMENT
??_R0?AV?$CEntityFactory@VCAmbientMusic@@@@@8 DD FLAT:??_7type_info@@6B@ ; CEntityFactory<CAmbientMusic> `RTTI Type Descriptor'
	DD	00H
	DB	'.?AV?$CEntityFactory@VCAmbientMusic@@@@', 00H
data$r	ENDS
;	COMDAT ??_R4?$CEntityFactory@VCAmbientMusic@@@@6B@
rdata$r	SEGMENT
??_R4?$CEntityFactory@VCAmbientMusic@@@@6B@ DD 00H	; CEntityFactory<CAmbientMusic>::`RTTI Complete Object Locator'
	DD	00H
	DD	00H
	DD	FLAT:??_R0?AV?$CEntityFactory@VCAmbientMusic@@@@@8
	DD	FLAT:??_R3?$CEntityFactory@VCAmbientMusic@@@@8
rdata$r	ENDS
;	COMDAT ??_R1A@?0A@EA@CAmbientMusic@@8
rdata$r	SEGMENT
??_R1A@?0A@EA@CAmbientMusic@@8 DD FLAT:??_R0?AVCAmbientMusic@@@8 ; CAmbientMusic::`RTTI Base Class Descriptor at (0,-1,0,64)'
	DD	02H
	DD	00H
	DD	0ffffffffH
	DD	00H
	DD	040H
	DD	FLAT:??_R3CAmbientMusic@@8
rdata$r	ENDS
;	COMDAT ??_R2CAmbientMusic@@8
rdata$r	SEGMENT
??_R2CAmbientMusic@@8 DD FLAT:??_R1A@?0A@EA@CAmbientMusic@@8 ; CAmbientMusic::`RTTI Base Class Array'
	DD	FLAT:??_R1A@?0A@EA@CBaseDelay@@8
	DD	FLAT:??_R1A@?0A@EA@CBaseEntity@@8
rdata$r	ENDS
;	COMDAT ??_R3CAmbientMusic@@8
rdata$r	SEGMENT
??_R3CAmbientMusic@@8 DD 00H				; CAmbientMusic::`RTTI Class Hierarchy Descriptor'
	DD	00H
	DD	03H
	DD	FLAT:??_R2CAmbientMusic@@8
rdata$r	ENDS
;	COMDAT ??_R0?AVCAmbientMusic@@@8
data$r	SEGMENT
??_R0?AVCAmbientMusic@@@8 DD FLAT:??_7type_info@@6B@	; CAmbientMusic `RTTI Type Descriptor'
	DD	00H
	DB	'.?AVCAmbientMusic@@', 00H
data$r	ENDS
;	COMDAT ??_R4CAmbientMusic@@6B@
rdata$r	SEGMENT
??_R4CAmbientMusic@@6B@ DD 00H				; CAmbientMusic::`RTTI Complete Object Locator'
	DD	00H
	DD	00H
	DD	FLAT:??_R0?AVCAmbientMusic@@@8
	DD	FLAT:??_R3CAmbientMusic@@8
rdata$r	ENDS
;	COMDAT ??_R1A@?0A@EA@?$CEntityFactory@VCSpeaker@@@@8
rdata$r	SEGMENT
??_R1A@?0A@EA@?$CEntityFactory@VCSpeaker@@@@8 DD FLAT:??_R0?AV?$CEntityFactory@VCSpeaker@@@@@8 ; CEntityFactory<CSpeaker>::`RTTI Base Class Descriptor at (0,-1,0,64)'
	DD	01H
	DD	00H
	DD	0ffffffffH
	DD	00H
	DD	040H
	DD	FLAT:??_R3?$CEntityFactory@VCSpeaker@@@@8
rdata$r	ENDS
;	COMDAT ??_R2?$CEntityFactory@VCSpeaker@@@@8
rdata$r	SEGMENT
??_R2?$CEntityFactory@VCSpeaker@@@@8 DD FLAT:??_R1A@?0A@EA@?$CEntityFactory@VCSpeaker@@@@8 ; CEntityFactory<CSpeaker>::`RTTI Base Class Array'
	DD	FLAT:??_R1A@?0A@EA@IEntityFactory@@8
rdata$r	ENDS
;	COMDAT ??_R3?$CEntityFactory@VCSpeaker@@@@8
rdata$r	SEGMENT
??_R3?$CEntityFactory@VCSpeaker@@@@8 DD 00H		; CEntityFactory<CSpeaker>::`RTTI Class Hierarchy Descriptor'
	DD	00H
	DD	02H
	DD	FLAT:??_R2?$CEntityFactory@VCSpeaker@@@@8
rdata$r	ENDS
;	COMDAT ??_R0?AV?$CEntityFactory@VCSpeaker@@@@@8
data$r	SEGMENT
??_R0?AV?$CEntityFactory@VCSpeaker@@@@@8 DD FLAT:??_7type_info@@6B@ ; CEntityFactory<CSpeaker> `RTTI Type Descriptor'
	DD	00H
	DB	'.?AV?$CEntityFactory@VCSpeaker@@@@', 00H
data$r	ENDS
;	COMDAT ??_R4?$CEntityFactory@VCSpeaker@@@@6B@
rdata$r	SEGMENT
??_R4?$CEntityFactory@VCSpeaker@@@@6B@ DD 00H		; CEntityFactory<CSpeaker>::`RTTI Complete Object Locator'
	DD	00H
	DD	00H
	DD	FLAT:??_R0?AV?$CEntityFactory@VCSpeaker@@@@@8
	DD	FLAT:??_R3?$CEntityFactory@VCSpeaker@@@@8
rdata$r	ENDS
;	COMDAT ??_R1A@?0A@EA@CSpeaker@@8
rdata$r	SEGMENT
??_R1A@?0A@EA@CSpeaker@@8 DD FLAT:??_R0?AVCSpeaker@@@8	; CSpeaker::`RTTI Base Class Descriptor at (0,-1,0,64)'
	DD	01H
	DD	00H
	DD	0ffffffffH
	DD	00H
	DD	040H
	DD	FLAT:??_R3CSpeaker@@8
rdata$r	ENDS
;	COMDAT ??_R2CSpeaker@@8
rdata$r	SEGMENT
??_R2CSpeaker@@8 DD FLAT:??_R1A@?0A@EA@CSpeaker@@8	; CSpeaker::`RTTI Base Class Array'
	DD	FLAT:??_R1A@?0A@EA@CBaseEntity@@8
rdata$r	ENDS
;	COMDAT ??_R3CSpeaker@@8
rdata$r	SEGMENT
??_R3CSpeaker@@8 DD 00H					; CSpeaker::`RTTI Class Hierarchy Descriptor'
	DD	00H
	DD	02H
	DD	FLAT:??_R2CSpeaker@@8
rdata$r	ENDS
;	COMDAT ??_R0?AVCSpeaker@@@8
data$r	SEGMENT
??_R0?AVCSpeaker@@@8 DD FLAT:??_7type_info@@6B@		; CSpeaker `RTTI Type Descriptor'
	DD	00H
	DB	'.?AVCSpeaker@@', 00H
data$r	ENDS
;	COMDAT ??_R4CSpeaker@@6B@
rdata$r	SEGMENT
??_R4CSpeaker@@6B@ DD 00H				; CSpeaker::`RTTI Complete Object Locator'
	DD	00H
	DD	00H
	DD	FLAT:??_R0?AVCSpeaker@@@8
	DD	FLAT:??_R3CSpeaker@@8
rdata$r	ENDS
;	COMDAT ??_R1A@?0A@EA@?$CEntityFactory@VCTriggerSound@@@@8
rdata$r	SEGMENT
??_R1A@?0A@EA@?$CEntityFactory@VCTriggerSound@@@@8 DD FLAT:??_R0?AV?$CEntityFactory@VCTriggerSound@@@@@8 ; CEntityFactory<CTriggerSound>::`RTTI Base Class Descriptor at (0,-1,0,64)'
	DD	01H
	DD	00H
	DD	0ffffffffH
	DD	00H
	DD	040H
	DD	FLAT:??_R3?$CEntityFactory@VCTriggerSound@@@@8
rdata$r	ENDS
;	COMDAT ??_R2?$CEntityFactory@VCTriggerSound@@@@8
rdata$r	SEGMENT
??_R2?$CEntityFactory@VCTriggerSound@@@@8 DD FLAT:??_R1A@?0A@EA@?$CEntityFactory@VCTriggerSound@@@@8 ; CEntityFactory<CTriggerSound>::`RTTI Base Class Array'
	DD	FLAT:??_R1A@?0A@EA@IEntityFactory@@8
rdata$r	ENDS
;	COMDAT ??_R3?$CEntityFactory@VCTriggerSound@@@@8
rdata$r	SEGMENT
??_R3?$CEntityFactory@VCTriggerSound@@@@8 DD 00H	; CEntityFactory<CTriggerSound>::`RTTI Class Hierarchy Descriptor'
	DD	00H
	DD	02H
	DD	FLAT:??_R2?$CEntityFactory@VCTriggerSound@@@@8
rdata$r	ENDS
;	COMDAT ??_R0?AV?$CEntityFactory@VCTriggerSound@@@@@8
data$r	SEGMENT
??_R0?AV?$CEntityFactory@VCTriggerSound@@@@@8 DD FLAT:??_7type_info@@6B@ ; CEntityFactory<CTriggerSound> `RTTI Type Descriptor'
	DD	00H
	DB	'.?AV?$CEntityFactory@VCTriggerSound@@@@', 00H
data$r	ENDS
;	COMDAT ??_R4?$CEntityFactory@VCTriggerSound@@@@6B@
rdata$r	SEGMENT
??_R4?$CEntityFactory@VCTriggerSound@@@@6B@ DD 00H	; CEntityFactory<CTriggerSound>::`RTTI Complete Object Locator'
	DD	00H
	DD	00H
	DD	FLAT:??_R0?AV?$CEntityFactory@VCTriggerSound@@@@@8
	DD	FLAT:??_R3?$CEntityFactory@VCTriggerSound@@@@8
rdata$r	ENDS
;	COMDAT ??_R1A@?0A@EA@CTriggerSound@@8
rdata$r	SEGMENT
??_R1A@?0A@EA@CTriggerSound@@8 DD FLAT:??_R0?AVCTriggerSound@@@8 ; CTriggerSound::`RTTI Base Class Descriptor at (0,-1,0,64)'
	DD	02H
	DD	00H
	DD	0ffffffffH
	DD	00H
	DD	040H
	DD	FLAT:??_R3CTriggerSound@@8
rdata$r	ENDS
;	COMDAT ??_R2CTriggerSound@@8
rdata$r	SEGMENT
??_R2CTriggerSound@@8 DD FLAT:??_R1A@?0A@EA@CTriggerSound@@8 ; CTriggerSound::`RTTI Base Class Array'
	DD	FLAT:??_R1A@?0A@EA@CBaseDelay@@8
	DD	FLAT:??_R1A@?0A@EA@CBaseEntity@@8
rdata$r	ENDS
;	COMDAT ??_R3CTriggerSound@@8
rdata$r	SEGMENT
??_R3CTriggerSound@@8 DD 00H				; CTriggerSound::`RTTI Class Hierarchy Descriptor'
	DD	00H
	DD	03H
	DD	FLAT:??_R2CTriggerSound@@8
rdata$r	ENDS
;	COMDAT ??_R0?AVCTriggerSound@@@8
data$r	SEGMENT
??_R0?AVCTriggerSound@@@8 DD FLAT:??_7type_info@@6B@	; CTriggerSound `RTTI Type Descriptor'
	DD	00H
	DB	'.?AVCTriggerSound@@', 00H
data$r	ENDS
;	COMDAT ??_R4CTriggerSound@@6B@
rdata$r	SEGMENT
??_R4CTriggerSound@@6B@ DD 00H				; CTriggerSound::`RTTI Complete Object Locator'
	DD	00H
	DD	00H
	DD	FLAT:??_R0?AVCTriggerSound@@@8
	DD	FLAT:??_R3CTriggerSound@@8
rdata$r	ENDS
;	COMDAT ??_R1A@?0A@EA@?$CEntityFactory@VCEnvSound@@@@8
rdata$r	SEGMENT
??_R1A@?0A@EA@?$CEntityFactory@VCEnvSound@@@@8 DD FLAT:??_R0?AV?$CEntityFactory@VCEnvSound@@@@@8 ; CEntityFactory<CEnvSound>::`RTTI Base Class Descriptor at (0,-1,0,64)'
	DD	01H
	DD	00H
	DD	0ffffffffH
	DD	00H
	DD	040H
	DD	FLAT:??_R3?$CEntityFactory@VCEnvSound@@@@8
rdata$r	ENDS
;	COMDAT ??_R2?$CEntityFactory@VCEnvSound@@@@8
rdata$r	SEGMENT
??_R2?$CEntityFactory@VCEnvSound@@@@8 DD FLAT:??_R1A@?0A@EA@?$CEntityFactory@VCEnvSound@@@@8 ; CEntityFactory<CEnvSound>::`RTTI Base Class Array'
	DD	FLAT:??_R1A@?0A@EA@IEntityFactory@@8
rdata$r	ENDS
;	COMDAT ??_R3?$CEntityFactory@VCEnvSound@@@@8
rdata$r	SEGMENT
??_R3?$CEntityFactory@VCEnvSound@@@@8 DD 00H		; CEntityFactory<CEnvSound>::`RTTI Class Hierarchy Descriptor'
	DD	00H
	DD	02H
	DD	FLAT:??_R2?$CEntityFactory@VCEnvSound@@@@8
rdata$r	ENDS
;	COMDAT ??_R0?AV?$CEntityFactory@VCEnvSound@@@@@8
data$r	SEGMENT
??_R0?AV?$CEntityFactory@VCEnvSound@@@@@8 DD FLAT:??_7type_info@@6B@ ; CEntityFactory<CEnvSound> `RTTI Type Descriptor'
	DD	00H
	DB	'.?AV?$CEntityFactory@VCEnvSound@@@@', 00H
data$r	ENDS
;	COMDAT ??_R4?$CEntityFactory@VCEnvSound@@@@6B@
rdata$r	SEGMENT
??_R4?$CEntityFactory@VCEnvSound@@@@6B@ DD 00H		; CEntityFactory<CEnvSound>::`RTTI Complete Object Locator'
	DD	00H
	DD	00H
	DD	FLAT:??_R0?AV?$CEntityFactory@VCEnvSound@@@@@8
	DD	FLAT:??_R3?$CEntityFactory@VCEnvSound@@@@8
rdata$r	ENDS
;	COMDAT ??_R1A@?0A@EA@CEnvSound@@8
rdata$r	SEGMENT
??_R1A@?0A@EA@CEnvSound@@8 DD FLAT:??_R0?AVCEnvSound@@@8 ; CEnvSound::`RTTI Base Class Descriptor at (0,-1,0,64)'
	DD	02H
	DD	00H
	DD	0ffffffffH
	DD	00H
	DD	040H
	DD	FLAT:??_R3CEnvSound@@8
rdata$r	ENDS
;	COMDAT ??_R2CEnvSound@@8
rdata$r	SEGMENT
??_R2CEnvSound@@8 DD FLAT:??_R1A@?0A@EA@CEnvSound@@8	; CEnvSound::`RTTI Base Class Array'
	DD	FLAT:??_R1A@?0A@EA@CPointEntity@@8
	DD	FLAT:??_R1A@?0A@EA@CBaseEntity@@8
rdata$r	ENDS
;	COMDAT ??_R3CEnvSound@@8
rdata$r	SEGMENT
??_R3CEnvSound@@8 DD 00H				; CEnvSound::`RTTI Class Hierarchy Descriptor'
	DD	00H
	DD	03H
	DD	FLAT:??_R2CEnvSound@@8
rdata$r	ENDS
;	COMDAT ??_R0?AVCEnvSound@@@8
data$r	SEGMENT
??_R0?AVCEnvSound@@@8 DD FLAT:??_7type_info@@6B@	; CEnvSound `RTTI Type Descriptor'
	DD	00H
	DB	'.?AVCEnvSound@@', 00H
data$r	ENDS
;	COMDAT ??_R4CEnvSound@@6B@
rdata$r	SEGMENT
??_R4CEnvSound@@6B@ DD 00H				; CEnvSound::`RTTI Complete Object Locator'
	DD	00H
	DD	00H
	DD	FLAT:??_R0?AVCEnvSound@@@8
	DD	FLAT:??_R3CEnvSound@@8
rdata$r	ENDS
;	COMDAT ??_R1A@?0A@EA@?$CEntityFactory@VCAmbientGeneric@@@@8
rdata$r	SEGMENT
??_R1A@?0A@EA@?$CEntityFactory@VCAmbientGeneric@@@@8 DD FLAT:??_R0?AV?$CEntityFactory@VCAmbientGeneric@@@@@8 ; CEntityFactory<CAmbientGeneric>::`RTTI Base Class Descriptor at (0,-1,0,64)'
	DD	01H
	DD	00H
	DD	0ffffffffH
	DD	00H
	DD	040H
	DD	FLAT:??_R3?$CEntityFactory@VCAmbientGeneric@@@@8
rdata$r	ENDS
;	COMDAT ??_R2?$CEntityFactory@VCAmbientGeneric@@@@8
rdata$r	SEGMENT
??_R2?$CEntityFactory@VCAmbientGeneric@@@@8 DD FLAT:??_R1A@?0A@EA@?$CEntityFactory@VCAmbientGeneric@@@@8 ; CEntityFactory<CAmbientGeneric>::`RTTI Base Class Array'
	DD	FLAT:??_R1A@?0A@EA@IEntityFactory@@8
rdata$r	ENDS
;	COMDAT ??_R3?$CEntityFactory@VCAmbientGeneric@@@@8
rdata$r	SEGMENT
??_R3?$CEntityFactory@VCAmbientGeneric@@@@8 DD 00H	; CEntityFactory<CAmbientGeneric>::`RTTI Class Hierarchy Descriptor'
	DD	00H
	DD	02H
	DD	FLAT:??_R2?$CEntityFactory@VCAmbientGeneric@@@@8
rdata$r	ENDS
;	COMDAT ??_R0?AV?$CEntityFactory@VCAmbientGeneric@@@@@8
data$r	SEGMENT
??_R0?AV?$CEntityFactory@VCAmbientGeneric@@@@@8 DD FLAT:??_7type_info@@6B@ ; CEntityFactory<CAmbientGeneric> `RTTI Type Descriptor'
	DD	00H
	DB	'.?AV?$CEntityFactory@VCAmbientGeneric@@@@', 00H
data$r	ENDS
;	COMDAT ??_R4?$CEntityFactory@VCAmbientGeneric@@@@6B@
rdata$r	SEGMENT
??_R4?$CEntityFactory@VCAmbientGeneric@@@@6B@ DD 00H	; CEntityFactory<CAmbientGeneric>::`RTTI Complete Object Locator'
	DD	00H
	DD	00H
	DD	FLAT:??_R0?AV?$CEntityFactory@VCAmbientGeneric@@@@@8
	DD	FLAT:??_R3?$CEntityFactory@VCAmbientGeneric@@@@8
rdata$r	ENDS
;	COMDAT ??_R1A@?0A@EA@CAmbientGeneric@@8
rdata$r	SEGMENT
??_R1A@?0A@EA@CAmbientGeneric@@8 DD FLAT:??_R0?AVCAmbientGeneric@@@8 ; CAmbientGeneric::`RTTI Base Class Descriptor at (0,-1,0,64)'
	DD	01H
	DD	00H
	DD	0ffffffffH
	DD	00H
	DD	040H
	DD	FLAT:??_R3CAmbientGeneric@@8
rdata$r	ENDS
;	COMDAT ??_R2CAmbientGeneric@@8
rdata$r	SEGMENT
??_R2CAmbientGeneric@@8 DD FLAT:??_R1A@?0A@EA@CAmbientGeneric@@8 ; CAmbientGeneric::`RTTI Base Class Array'
	DD	FLAT:??_R1A@?0A@EA@CBaseEntity@@8
rdata$r	ENDS
;	COMDAT ??_R3CAmbientGeneric@@8
rdata$r	SEGMENT
??_R3CAmbientGeneric@@8 DD 00H				; CAmbientGeneric::`RTTI Class Hierarchy Descriptor'
	DD	00H
	DD	02H
	DD	FLAT:??_R2CAmbientGeneric@@8
rdata$r	ENDS
;	COMDAT ??_R0?AVCAmbientGeneric@@@8
data$r	SEGMENT
??_R0?AVCAmbientGeneric@@@8 DD FLAT:??_7type_info@@6B@	; CAmbientGeneric `RTTI Type Descriptor'
	DD	00H
	DB	'.?AVCAmbientGeneric@@', 00H
data$r	ENDS
;	COMDAT ??_R4CAmbientGeneric@@6B@
rdata$r	SEGMENT
??_R4CAmbientGeneric@@6B@ DD 00H			; CAmbientGeneric::`RTTI Complete Object Locator'
	DD	00H
	DD	00H
	DD	FLAT:??_R0?AVCAmbientGeneric@@@8
	DD	FLAT:??_R3CAmbientGeneric@@8
rdata$r	ENDS
;	COMDAT ??_R4CBaseToggle@@6B@
rdata$r	SEGMENT
??_R4CBaseToggle@@6B@ DD 00H				; CBaseToggle::`RTTI Complete Object Locator'
	DD	00H
	DD	00H
	DD	FLAT:??_R0?AVCBaseToggle@@@8
	DD	FLAT:??_R3CBaseToggle@@8
rdata$r	ENDS
;	COMDAT ??_R4CBaseAnimating@@6B@
rdata$r	SEGMENT
??_R4CBaseAnimating@@6B@ DD 00H				; CBaseAnimating::`RTTI Complete Object Locator'
	DD	00H
	DD	00H
	DD	FLAT:??_R0?AVCBaseAnimating@@@8
	DD	FLAT:??_R3CBaseAnimating@@8
rdata$r	ENDS
;	COMDAT ??_R4CBaseDelay@@6B@
rdata$r	SEGMENT
??_R4CBaseDelay@@6B@ DD 00H				; CBaseDelay::`RTTI Complete Object Locator'
	DD	00H
	DD	00H
	DD	FLAT:??_R0?AVCBaseDelay@@@8
	DD	FLAT:??_R3CBaseDelay@@8
rdata$r	ENDS
;	COMDAT ??_R1A@?0A@EA@CPointEntity@@8
rdata$r	SEGMENT
??_R1A@?0A@EA@CPointEntity@@8 DD FLAT:??_R0?AVCPointEntity@@@8 ; CPointEntity::`RTTI Base Class Descriptor at (0,-1,0,64)'
	DD	01H
	DD	00H
	DD	0ffffffffH
	DD	00H
	DD	040H
	DD	FLAT:??_R3CPointEntity@@8
rdata$r	ENDS
;	COMDAT ??_R2CPointEntity@@8
rdata$r	SEGMENT
??_R2CPointEntity@@8 DD FLAT:??_R1A@?0A@EA@CPointEntity@@8 ; CPointEntity::`RTTI Base Class Array'
	DD	FLAT:??_R1A@?0A@EA@CBaseEntity@@8
rdata$r	ENDS
;	COMDAT ??_R3CPointEntity@@8
rdata$r	SEGMENT
??_R3CPointEntity@@8 DD 00H				; CPointEntity::`RTTI Class Hierarchy Descriptor'
	DD	00H
	DD	02H
	DD	FLAT:??_R2CPointEntity@@8
rdata$r	ENDS
;	COMDAT ??_R0?AVCPointEntity@@@8
data$r	SEGMENT
??_R0?AVCPointEntity@@@8 DD FLAT:??_7type_info@@6B@	; CPointEntity `RTTI Type Descriptor'
	DD	00H
	DB	'.?AVCPointEntity@@', 00H
data$r	ENDS
;	COMDAT ??_R4CPointEntity@@6B@
rdata$r	SEGMENT
??_R4CPointEntity@@6B@ DD 00H				; CPointEntity::`RTTI Complete Object Locator'
	DD	00H
	DD	00H
	DD	FLAT:??_R0?AVCPointEntity@@@8
	DD	FLAT:??_R3CPointEntity@@8
rdata$r	ENDS
;	COMDAT ??_R4CBaseMonster@@6B@
rdata$r	SEGMENT
??_R4CBaseMonster@@6B@ DD 00H				; CBaseMonster::`RTTI Complete Object Locator'
	DD	00H
	DD	00H
	DD	FLAT:??_R0?AVCBaseMonster@@@8
	DD	FLAT:??_R3CBaseMonster@@8
rdata$r	ENDS
;	COMDAT ??_R2CBaseDelay@@8
rdata$r	SEGMENT
??_R2CBaseDelay@@8 DD FLAT:??_R1A@?0A@EA@CBaseDelay@@8	; CBaseDelay::`RTTI Base Class Array'
	DD	FLAT:??_R1A@?0A@EA@CBaseEntity@@8
rdata$r	ENDS
;	COMDAT ??_R3CBaseDelay@@8
rdata$r	SEGMENT
??_R3CBaseDelay@@8 DD 00H				; CBaseDelay::`RTTI Class Hierarchy Descriptor'
	DD	00H
	DD	02H
	DD	FLAT:??_R2CBaseDelay@@8
rdata$r	ENDS
;	COMDAT ??_R0?AVCBaseDelay@@@8
data$r	SEGMENT
??_R0?AVCBaseDelay@@@8 DD FLAT:??_7type_info@@6B@	; CBaseDelay `RTTI Type Descriptor'
	DD	00H
	DB	'.?AVCBaseDelay@@', 00H
data$r	ENDS
;	COMDAT ??_R1A@?0A@EA@CBaseDelay@@8
rdata$r	SEGMENT
??_R1A@?0A@EA@CBaseDelay@@8 DD FLAT:??_R0?AVCBaseDelay@@@8 ; CBaseDelay::`RTTI Base Class Descriptor at (0,-1,0,64)'
	DD	01H
	DD	00H
	DD	0ffffffffH
	DD	00H
	DD	040H
	DD	FLAT:??_R3CBaseDelay@@8
rdata$r	ENDS
;	COMDAT ??_R2CBaseAnimating@@8
rdata$r	SEGMENT
??_R2CBaseAnimating@@8 DD FLAT:??_R1A@?0A@EA@CBaseAnimating@@8 ; CBaseAnimating::`RTTI Base Class Array'
	DD	FLAT:??_R1A@?0A@EA@CBaseDelay@@8
	DD	FLAT:??_R1A@?0A@EA@CBaseEntity@@8
rdata$r	ENDS
;	COMDAT ??_R3CBaseAnimating@@8
rdata$r	SEGMENT
??_R3CBaseAnimating@@8 DD 00H				; CBaseAnimating::`RTTI Class Hierarchy Descriptor'
	DD	00H
	DD	03H
	DD	FLAT:??_R2CBaseAnimating@@8
rdata$r	ENDS
;	COMDAT ??_R0?AVCBaseAnimating@@@8
data$r	SEGMENT
??_R0?AVCBaseAnimating@@@8 DD FLAT:??_7type_info@@6B@	; CBaseAnimating `RTTI Type Descriptor'
	DD	00H
	DB	'.?AVCBaseAnimating@@', 00H
data$r	ENDS
;	COMDAT ??_R1A@?0A@EA@CBaseAnimating@@8
rdata$r	SEGMENT
??_R1A@?0A@EA@CBaseAnimating@@8 DD FLAT:??_R0?AVCBaseAnimating@@@8 ; CBaseAnimating::`RTTI Base Class Descriptor at (0,-1,0,64)'
	DD	02H
	DD	00H
	DD	0ffffffffH
	DD	00H
	DD	040H
	DD	FLAT:??_R3CBaseAnimating@@8
rdata$r	ENDS
;	COMDAT ??_R2CBaseToggle@@8
rdata$r	SEGMENT
??_R2CBaseToggle@@8 DD FLAT:??_R1A@?0A@EA@CBaseToggle@@8 ; CBaseToggle::`RTTI Base Class Array'
	DD	FLAT:??_R1A@?0A@EA@CBaseAnimating@@8
	DD	FLAT:??_R1A@?0A@EA@CBaseDelay@@8
	DD	FLAT:??_R1A@?0A@EA@CBaseEntity@@8
rdata$r	ENDS
;	COMDAT ??_R3CBaseToggle@@8
rdata$r	SEGMENT
??_R3CBaseToggle@@8 DD 00H				; CBaseToggle::`RTTI Class Hierarchy Descriptor'
	DD	00H
	DD	04H
	DD	FLAT:??_R2CBaseToggle@@8
rdata$r	ENDS
;	COMDAT ??_R0?AVCBaseToggle@@@8
data$r	SEGMENT
??_R0?AVCBaseToggle@@@8 DD FLAT:??_7type_info@@6B@	; CBaseToggle `RTTI Type Descriptor'
	DD	00H
	DB	'.?AVCBaseToggle@@', 00H
data$r	ENDS
;	COMDAT ??_R1A@?0A@EA@CBaseToggle@@8
rdata$r	SEGMENT
??_R1A@?0A@EA@CBaseToggle@@8 DD FLAT:??_R0?AVCBaseToggle@@@8 ; CBaseToggle::`RTTI Base Class Descriptor at (0,-1,0,64)'
	DD	03H
	DD	00H
	DD	0ffffffffH
	DD	00H
	DD	040H
	DD	FLAT:??_R3CBaseToggle@@8
rdata$r	ENDS
;	COMDAT ??_R2CBaseMonster@@8
rdata$r	SEGMENT
??_R2CBaseMonster@@8 DD FLAT:??_R1A@?0A@EA@CBaseMonster@@8 ; CBaseMonster::`RTTI Base Class Array'
	DD	FLAT:??_R1A@?0A@EA@CBaseToggle@@8
	DD	FLAT:??_R1A@?0A@EA@CBaseAnimating@@8
	DD	FLAT:??_R1A@?0A@EA@CBaseDelay@@8
	DD	FLAT:??_R1A@?0A@EA@CBaseEntity@@8
rdata$r	ENDS
;	COMDAT ??_R3CBaseMonster@@8
rdata$r	SEGMENT
??_R3CBaseMonster@@8 DD 00H				; CBaseMonster::`RTTI Class Hierarchy Descriptor'
	DD	00H
	DD	05H
	DD	FLAT:??_R2CBaseMonster@@8
rdata$r	ENDS
;	COMDAT ??_R0?AVCBaseMonster@@@8
data$r	SEGMENT
??_R0?AVCBaseMonster@@@8 DD FLAT:??_7type_info@@6B@	; CBaseMonster `RTTI Type Descriptor'
	DD	00H
	DB	'.?AVCBaseMonster@@', 00H
data$r	ENDS
;	COMDAT ??_R1A@?0A@EA@CBaseMonster@@8
rdata$r	SEGMENT
??_R1A@?0A@EA@CBaseMonster@@8 DD FLAT:??_R0?AVCBaseMonster@@@8 ; CBaseMonster::`RTTI Base Class Descriptor at (0,-1,0,64)'
	DD	04H
	DD	00H
	DD	0ffffffffH
	DD	00H
	DD	040H
	DD	FLAT:??_R3CBaseMonster@@8
rdata$r	ENDS
;	COMDAT ??_R1A@?0A@EA@CBasePlayer@@8
rdata$r	SEGMENT
??_R1A@?0A@EA@CBasePlayer@@8 DD FLAT:??_R0?AVCBasePlayer@@@8 ; CBasePlayer::`RTTI Base Class Descriptor at (0,-1,0,64)'
	DD	05H
	DD	00H
	DD	0ffffffffH
	DD	00H
	DD	040H
	DD	FLAT:??_R3CBasePlayer@@8
rdata$r	ENDS
;	COMDAT ??_R2CBasePlayer@@8
rdata$r	SEGMENT
??_R2CBasePlayer@@8 DD FLAT:??_R1A@?0A@EA@CBasePlayer@@8 ; CBasePlayer::`RTTI Base Class Array'
	DD	FLAT:??_R1A@?0A@EA@CBaseMonster@@8
	DD	FLAT:??_R1A@?0A@EA@CBaseToggle@@8
	DD	FLAT:??_R1A@?0A@EA@CBaseAnimating@@8
	DD	FLAT:??_R1A@?0A@EA@CBaseDelay@@8
	DD	FLAT:??_R1A@?0A@EA@CBaseEntity@@8
rdata$r	ENDS
;	COMDAT ??_R3CBasePlayer@@8
rdata$r	SEGMENT
??_R3CBasePlayer@@8 DD 00H				; CBasePlayer::`RTTI Class Hierarchy Descriptor'
	DD	00H
	DD	06H
	DD	FLAT:??_R2CBasePlayer@@8
rdata$r	ENDS
;	COMDAT ??_R0?AVCBasePlayer@@@8
data$r	SEGMENT
??_R0?AVCBasePlayer@@@8 DD FLAT:??_7type_info@@6B@	; CBasePlayer `RTTI Type Descriptor'
	DD	00H
	DB	'.?AVCBasePlayer@@', 00H
data$r	ENDS
;	COMDAT ??_R4CBasePlayer@@6B@
rdata$r	SEGMENT
??_R4CBasePlayer@@6B@ DD 00H				; CBasePlayer::`RTTI Complete Object Locator'
	DD	00H
	DD	00H
	DD	FLAT:??_R0?AVCBasePlayer@@@8
	DD	FLAT:??_R3CBasePlayer@@8
rdata$r	ENDS
;	COMDAT ??_R1A@?0A@EA@IEntityFactory@@8
rdata$r	SEGMENT
??_R1A@?0A@EA@IEntityFactory@@8 DD FLAT:??_R0?AVIEntityFactory@@@8 ; IEntityFactory::`RTTI Base Class Descriptor at (0,-1,0,64)'
	DD	00H
	DD	00H
	DD	0ffffffffH
	DD	00H
	DD	040H
	DD	FLAT:??_R3IEntityFactory@@8
rdata$r	ENDS
;	COMDAT ??_R2IEntityFactory@@8
rdata$r	SEGMENT
??_R2IEntityFactory@@8 DD FLAT:??_R1A@?0A@EA@IEntityFactory@@8 ; IEntityFactory::`RTTI Base Class Array'
rdata$r	ENDS
;	COMDAT ??_R3IEntityFactory@@8
rdata$r	SEGMENT
??_R3IEntityFactory@@8 DD 00H				; IEntityFactory::`RTTI Class Hierarchy Descriptor'
	DD	00H
	DD	01H
	DD	FLAT:??_R2IEntityFactory@@8
rdata$r	ENDS
;	COMDAT ??_R0?AVIEntityFactory@@@8
data$r	SEGMENT
??_R0?AVIEntityFactory@@@8 DD FLAT:??_7type_info@@6B@	; IEntityFactory `RTTI Type Descriptor'
	DD	00H
	DB	'.?AVIEntityFactory@@', 00H
data$r	ENDS
;	COMDAT ??_R4IEntityFactory@@6B@
rdata$r	SEGMENT
??_R4IEntityFactory@@6B@ DD 00H				; IEntityFactory::`RTTI Complete Object Locator'
	DD	00H
	DD	00H
	DD	FLAT:??_R0?AVIEntityFactory@@@8
	DD	FLAT:??_R3IEntityFactory@@8
rdata$r	ENDS
;	COMDAT ??_R1A@?0A@EA@CBaseEntity@@8
rdata$r	SEGMENT
??_R1A@?0A@EA@CBaseEntity@@8 DD FLAT:??_R0?AVCBaseEntity@@@8 ; CBaseEntity::`RTTI Base Class Descriptor at (0,-1,0,64)'
	DD	00H
	DD	00H
	DD	0ffffffffH
	DD	00H
	DD	040H
	DD	FLAT:??_R3CBaseEntity@@8
rdata$r	ENDS
;	COMDAT ??_R2CBaseEntity@@8
rdata$r	SEGMENT
??_R2CBaseEntity@@8 DD FLAT:??_R1A@?0A@EA@CBaseEntity@@8 ; CBaseEntity::`RTTI Base Class Array'
rdata$r	ENDS
;	COMDAT ??_R3CBaseEntity@@8
rdata$r	SEGMENT
??_R3CBaseEntity@@8 DD 00H				; CBaseEntity::`RTTI Class Hierarchy Descriptor'
	DD	00H
	DD	01H
	DD	FLAT:??_R2CBaseEntity@@8
rdata$r	ENDS
;	COMDAT ??_R0?AVCBaseEntity@@@8
data$r	SEGMENT
??_R0?AVCBaseEntity@@@8 DD FLAT:??_7type_info@@6B@	; CBaseEntity `RTTI Type Descriptor'
	DD	00H
	DB	'.?AVCBaseEntity@@', 00H
data$r	ENDS
;	COMDAT ??_R4CBaseEntity@@6B@
rdata$r	SEGMENT
??_R4CBaseEntity@@6B@ DD 00H				; CBaseEntity::`RTTI Complete Object Locator'
	DD	00H
	DD	00H
	DD	FLAT:??_R0?AVCBaseEntity@@@8
	DD	FLAT:??_R3CBaseEntity@@8
rdata$r	ENDS
;	COMDAT ??_C@_1BE@OPPFELHC@?$AAm?$AA_?$AAp?$AAM?$AAe?$AAm?$AAo?$AAr?$AAy?$AA?$AA@
CONST	SEGMENT
??_C@_1BE@OPPFELHC@?$AAm?$AA_?$AAp?$AAM?$AAe?$AAm?$AAo?$AAr?$AAy?$AA?$AA@ DB 'm'
	DB	00H, '_', 00H, 'p', 00H, 'M', 00H, 'e', 00H, 'm', 00H, 'o', 00H
	DB	'r', 00H, 'y', 00H, 00H, 00H			; `string'
CONST	ENDS
;	COMDAT ??_C@_13COJANIEC@?$AA0?$AA?$AA@
CONST	SEGMENT
??_C@_13COJANIEC@?$AA0?$AA?$AA@ DB '0', 00H, 00H, 00H	; `string'
CONST	ENDS
;	COMDAT ??_C@_1BA@PKCLMAEA@?$AAn?$AAu?$AAm?$AA?5?$AA?$DO?$AA?5?$AA0?$AA?$AA@
CONST	SEGMENT
??_C@_1BA@PKCLMAEA@?$AAn?$AAu?$AAm?$AA?5?$AA?$DO?$AA?5?$AA0?$AA?$AA@ DB 'n'
	DB	00H, 'u', 00H, 'm', 00H, ' ', 00H, '>', 00H, ' ', 00H, '0', 00H
	DB	00H, 00H					; `string'
CONST	ENDS
;	COMDAT ??_C@_1GM@CDMJDFPA@?$AAI?$AAs?$AAV?$AAa?$AAl?$AAi?$AAd?$AAI?$AAn?$AAd?$AAe?$AAx?$AA?$CI?$AAe?$AAl?$AAe?$AAm?$AA?$CJ?$AA?5?$AA?$HM?$AA?$HM?$AA?5?$AA?$CI?$AA?5?$AAm?$AA_?$AAS?$AAi?$AAz?$AAe?$AA?5?$AA?$DN@
CONST	SEGMENT
??_C@_1GM@CDMJDFPA@?$AAI?$AAs?$AAV?$AAa?$AAl?$AAi?$AAd?$AAI?$AAn?$AAd?$AAe?$AAx?$AA?$CI?$AAe?$AAl?$AAe?$AAm?$AA?$CJ?$AA?5?$AA?$HM?$AA?$HM?$AA?5?$AA?$CI?$AA?5?$AAm?$AA_?$AAS?$AAi?$AAz?$AAe?$AA?5?$AA?$DN@ DB 'I'
	DB	00H, 's', 00H, 'V', 00H, 'a', 00H, 'l', 00H, 'i', 00H, 'd', 00H
	DB	'I', 00H, 'n', 00H, 'd', 00H, 'e', 00H, 'x', 00H, '(', 00H, 'e'
	DB	00H, 'l', 00H, 'e', 00H, 'm', 00H, ')', 00H, ' ', 00H, '|', 00H
	DB	'|', 00H, ' ', 00H, '(', 00H, ' ', 00H, 'm', 00H, '_', 00H, 'S'
	DB	00H, 'i', 00H, 'z', 00H, 'e', 00H, ' ', 00H, '=', 00H, '=', 00H
	DB	' ', 00H, '0', 00H, ' ', 00H, ')', 00H, ' ', 00H, '|', 00H, '|'
	DB	00H, ' ', 00H, '(', 00H, ' ', 00H, 'n', 00H, 'u', 00H, 'm', 00H
	DB	' ', 00H, '=', 00H, '=', 00H, ' ', 00H, '0', 00H, ' ', 00H, ')'
	DB	00H, 00H, 00H				; `string'
CONST	ENDS
;	COMDAT ??_C@_1FA@BPFBJKPF@?$AA?$CI?$AAe?$AAl?$AAe?$AAm?$AA?5?$AA?$DN?$AA?$DN?$AA?5?$AAC?$AAo?$AAu?$AAn?$AAt?$AA?$CI?$AA?$CJ?$AA?$CJ?$AA?5?$AA?$HM?$AA?$HM?$AA?5?$AAI?$AAs?$AAV?$AAa?$AAl?$AAi?$AAd?$AAI?$AAn?$AAd?$AAe@
CONST	SEGMENT
??_C@_1FA@BPFBJKPF@?$AA?$CI?$AAe?$AAl?$AAe?$AAm?$AA?5?$AA?$DN?$AA?$DN?$AA?5?$AAC?$AAo?$AAu?$AAn?$AAt?$AA?$CI?$AA?$CJ?$AA?$CJ?$AA?5?$AA?$HM?$AA?$HM?$AA?5?$AAI?$AAs?$AAV?$AAa?$AAl?$AAi?$AAd?$AAI?$AAn?$AAd?$AAe@ DB '('
	DB	00H, 'e', 00H, 'l', 00H, 'e', 00H, 'm', 00H, ' ', 00H, '=', 00H
	DB	'=', 00H, ' ', 00H, 'C', 00H, 'o', 00H, 'u', 00H, 'n', 00H, 't'
	DB	00H, '(', 00H, ')', 00H, ')', 00H, ' ', 00H, '|', 00H, '|', 00H
	DB	' ', 00H, 'I', 00H, 's', 00H, 'V', 00H, 'a', 00H, 'l', 00H, 'i'
	DB	00H, 'd', 00H, 'I', 00H, 'n', 00H, 'd', 00H, 'e', 00H, 'x', 00H
	DB	'(', 00H, 'e', 00H, 'l', 00H, 'e', 00H, 'm', 00H, ')', 00H, 00H
	DB	00H						; `string'
CONST	ENDS
;	COMDAT ??_C@_1BM@CKILBAKK@?$AAI?$AAs?$AAI?$AAd?$AAx?$AAV?$AAa?$AAl?$AAi?$AAd?$AA?$CI?$AAi?$AA?$CJ?$AA?$AA@
CONST	SEGMENT
??_C@_1BM@CKILBAKK@?$AAI?$AAs?$AAI?$AAd?$AAx?$AAV?$AAa?$AAl?$AAi?$AAd?$AA?$CI?$AAi?$AA?$CJ?$AA?$AA@ DB 'I'
	DB	00H, 's', 00H, 'I', 00H, 'd', 00H, 'x', 00H, 'V', 00H, 'a', 00H
	DB	'l', 00H, 'i', 00H, 'd', 00H, '(', 00H, 'i', 00H, ')', 00H, 00H
	DB	00H						; `string'
CONST	ENDS
;	COMDAT ??_C@_1BM@PFNFCCHH@?$AA?$CB?$AAI?$AAs?$AAR?$AAe?$AAa?$AAd?$AAO?$AAn?$AAl?$AAy?$AA?$CI?$AA?$CJ?$AA?$AA@
CONST	SEGMENT
??_C@_1BM@PFNFCCHH@?$AA?$CB?$AAI?$AAs?$AAR?$AAe?$AAa?$AAd?$AAO?$AAn?$AAl?$AAy?$AA?$CI?$AA?$CJ?$AA?$AA@ DB '!'
	DB	00H, 'I', 00H, 's', 00H, 'R', 00H, 'e', 00H, 'a', 00H, 'd', 00H
	DB	'O', 00H, 'n', 00H, 'l', 00H, 'y', 00H, '(', 00H, ')', 00H, 00H
	DB	00H						; `string'
CONST	ENDS
;	COMDAT ??_C@_1BO@FOOHAONO@?$AAn?$AAG?$AAr?$AAo?$AAw?$AAS?$AAi?$AAz?$AAe?$AA?5?$AA?$DO?$AA?$DN?$AA?5?$AA0?$AA?$AA@
CONST	SEGMENT
??_C@_1BO@FOOHAONO@?$AAn?$AAG?$AAr?$AAo?$AAw?$AAS?$AAi?$AAz?$AAe?$AA?5?$AA?$DO?$AA?$DN?$AA?5?$AA0?$AA?$AA@ DB 'n'
	DB	00H, 'G', 00H, 'r', 00H, 'o', 00H, 'w', 00H, 'S', 00H, 'i', 00H
	DB	'z', 00H, 'e', 00H, ' ', 00H, '>', 00H, '=', 00H, ' ', 00H, '0'
	DB	00H, 00H, 00H				; `string'
CONST	ENDS
;	COMDAT ??_C@_1JE@CIIIAKCN@?$AAd?$AA?3?$AA?2?$AA?$CB?$AAd?$AAi?$AAf?$AAf?$AAu?$AAs?$AAi?$AAo?$AAn?$AA?5?$AA2?$AA0?$AA2?$AA0?$AA?2?$AAs?$AAo?$AAu?$AAr?$AAc?$AAe?$AA?5?$AAc?$AAo?$AAd?$AAe?$AA?5?$AA2@
CONST	SEGMENT
??_C@_1JE@CIIIAKCN@?$AAd?$AA?3?$AA?2?$AA?$CB?$AAd?$AAi?$AAf?$AAf?$AAu?$AAs?$AAi?$AAo?$AAn?$AA?5?$AA2?$AA0?$AA2?$AA0?$AA?2?$AAs?$AAo?$AAu?$AAr?$AAc?$AAe?$AA?5?$AAc?$AAo?$AAd?$AAe?$AA?5?$AA2@ DB 'd'
	DB	00H, ':', 00H, '\', 00H, '!', 00H, 'd', 00H, 'i', 00H, 'f', 00H
	DB	'f', 00H, 'u', 00H, 's', 00H, 'i', 00H, 'o', 00H, 'n', 00H, ' '
	DB	00H, '2', 00H, '0', 00H, '2', 00H, '0', 00H, '\', 00H, 's', 00H
	DB	'o', 00H, 'u', 00H, 'r', 00H, 'c', 00H, 'e', 00H, ' ', 00H, 'c'
	DB	00H, 'o', 00H, 'd', 00H, 'e', 00H, ' ', 00H, '2', 00H, '0', 00H
	DB	'2', 00H, '2', 00H, '\', 00H, 'c', 00H, 'l', 00H, 'i', 00H, 'e'
	DB	00H, 'n', 00H, 't', 00H, '-', 00H, 's', 00H, 'e', 00H, 'r', 00H
	DB	'v', 00H, 'e', 00H, 'r', 00H, '\', 00H, 'g', 00H, 'a', 00H, 'm'
	DB	00H, 'e', 00H, '_', 00H, 's', 00H, 'h', 00H, 'a', 00H, 'r', 00H
	DB	'e', 00H, 'd', 00H, '\', 00H, 'u', 00H, 't', 00H, 'l', 00H, 'm'
	DB	00H, 'e', 00H, 'm', 00H, 'o', 00H, 'r', 00H, 'y', 00H, '.', 00H
	DB	'h', 00H, 00H, 00H				; `string'
CONST	ENDS
;	COMDAT ??_C@_1IK@DGJDJNN@?$AA?$CI?$AAB?$AAa?$AAs?$AAe?$AA?$CI?$AA?$CJ?$AA?5?$AA?$DN?$AA?$DN?$AA?5?$AAN?$AAU?$AAL?$AAL?$AA?$CJ?$AA?5?$AA?$HM?$AA?$HM?$AA?5?$AA?$CI?$AA?$CG?$AAs?$AAr?$AAc?$AA?5?$AA?$DM?$AA?5?$AAB?$AAa?$AAs?$AAe@
CONST	SEGMENT
??_C@_1IK@DGJDJNN@?$AA?$CI?$AAB?$AAa?$AAs?$AAe?$AA?$CI?$AA?$CJ?$AA?5?$AA?$DN?$AA?$DN?$AA?5?$AAN?$AAU?$AAL?$AAL?$AA?$CJ?$AA?5?$AA?$HM?$AA?$HM?$AA?5?$AA?$CI?$AA?$CG?$AAs?$AAr?$AAc?$AA?5?$AA?$DM?$AA?5?$AAB?$AAa?$AAs?$AAe@ DB '('
	DB	00H, 'B', 00H, 'a', 00H, 's', 00H, 'e', 00H, '(', 00H, ')', 00H
	DB	' ', 00H, '=', 00H, '=', 00H, ' ', 00H, 'N', 00H, 'U', 00H, 'L'
	DB	00H, 'L', 00H, ')', 00H, ' ', 00H, '|', 00H, '|', 00H, ' ', 00H
	DB	'(', 00H, '&', 00H, 's', 00H, 'r', 00H, 'c', 00H, ' ', 00H, '<'
	DB	00H, ' ', 00H, 'B', 00H, 'a', 00H, 's', 00H, 'e', 00H, '(', 00H
	DB	')', 00H, ')', 00H, ' ', 00H, '|', 00H, '|', 00H, ' ', 00H, '('
	DB	00H, '&', 00H, 's', 00H, 'r', 00H, 'c', 00H, ' ', 00H, '>', 00H
	DB	'=', 00H, ' ', 00H, '(', 00H, 'B', 00H, 'a', 00H, 's', 00H, 'e'
	DB	00H, '(', 00H, ')', 00H, ' ', 00H, '+', 00H, ' ', 00H, 'C', 00H
	DB	'o', 00H, 'u', 00H, 'n', 00H, 't', 00H, '(', 00H, ')', 00H, ')'
	DB	00H, ' ', 00H, ')', 00H, 00H, 00H		; `string'
CONST	ENDS
;	COMDAT ??_C@_1JC@EMNIBBBG@?$AAd?$AA?3?$AA?2?$AA?$CB?$AAd?$AAi?$AAf?$AAf?$AAu?$AAs?$AAi?$AAo?$AAn?$AA?5?$AA2?$AA0?$AA2?$AA0?$AA?2?$AAs?$AAo?$AAu?$AAr?$AAc?$AAe?$AA?5?$AAc?$AAo?$AAd?$AAe?$AA?5?$AA2@
CONST	SEGMENT
??_C@_1JC@EMNIBBBG@?$AAd?$AA?3?$AA?2?$AA?$CB?$AAd?$AAi?$AAf?$AAf?$AAu?$AAs?$AAi?$AAo?$AAn?$AA?5?$AA2?$AA0?$AA2?$AA0?$AA?2?$AAs?$AAo?$AAu?$AAr?$AAc?$AAe?$AA?5?$AAc?$AAo?$AAd?$AAe?$AA?5?$AA2@ DB 'd'
	DB	00H, ':', 00H, '\', 00H, '!', 00H, 'd', 00H, 'i', 00H, 'f', 00H
	DB	'f', 00H, 'u', 00H, 's', 00H, 'i', 00H, 'o', 00H, 'n', 00H, ' '
	DB	00H, '2', 00H, '0', 00H, '2', 00H, '0', 00H, '\', 00H, 's', 00H
	DB	'o', 00H, 'u', 00H, 'r', 00H, 'c', 00H, 'e', 00H, ' ', 00H, 'c'
	DB	00H, 'o', 00H, 'd', 00H, 'e', 00H, ' ', 00H, '2', 00H, '0', 00H
	DB	'2', 00H, '2', 00H, '\', 00H, 'c', 00H, 'l', 00H, 'i', 00H, 'e'
	DB	00H, 'n', 00H, 't', 00H, '-', 00H, 's', 00H, 'e', 00H, 'r', 00H
	DB	'v', 00H, 'e', 00H, 'r', 00H, '\', 00H, 'g', 00H, 'a', 00H, 'm'
	DB	00H, 'e', 00H, '_', 00H, 's', 00H, 'h', 00H, 'a', 00H, 'r', 00H
	DB	'e', 00H, 'd', 00H, '\', 00H, 'u', 00H, 't', 00H, 'l', 00H, 'a'
	DB	00H, 'r', 00H, 'r', 00H, 'a', 00H, 'y', 00H, '.', 00H, 'h', 00H
	DB	00H, 00H					; `string'
CONST	ENDS
;	COMDAT ??_C@_06JLDPCOLD@music?6?$AA@
CONST	SEGMENT
??_C@_06JLDPCOLD@music?6?$AA@ DB 'music', 0aH, 00H	; `string'
CONST	ENDS
;	COMDAT ??_C@_0M@DKCMEMFI@music?5?$CC?$CFs?$CC?6?$AA@
CONST	SEGMENT
??_C@_0M@DKCMEMFI@music?5?$CC?$CFs?$CC?6?$AA@ DB 'music "%s"', 0aH, 00H ; `string'
CONST	ENDS
;	COMDAT ??_C@_0BB@FNHLBFJP@music?5?$CC?$CFs?$CC?5?$CC?$CFs?$CC?6?$AA@
CONST	SEGMENT
??_C@_0BB@FNHLBFJP@music?5?$CC?$CFs?$CC?5?$CC?$CFs?$CC?6?$AA@ DB 'music "'
	DB	'%s" "%s"', 0aH, 00H				; `string'
CONST	ENDS
;	COMDAT ??_C@_08BPPHHMFC@fadetime?$AA@
CONST	SEGMENT
??_C@_08BPPHHMFC@fadetime?$AA@ DB 'fadetime', 00H	; `string'
CONST	ENDS
;	COMDAT ??_C@_0P@EOMCAGLL@m_iszMainTrack?$AA@
CONST	SEGMENT
??_C@_0P@EOMCAGLL@m_iszMainTrack?$AA@ DB 'm_iszMainTrack', 00H ; `string'
CONST	ENDS
;	COMDAT ??_C@_0BA@BFHGNAMB@m_iszIntroTrack?$AA@
CONST	SEGMENT
??_C@_0BA@BFHGNAMB@m_iszIntroTrack?$AA@ DB 'm_iszIntroTrack', 00H ; `string'
CONST	ENDS
;	COMDAT ??_C@_0O@DCFFCPNJ@ambient_music?$AA@
CONST	SEGMENT
??_C@_0O@DCFFCPNJ@ambient_music?$AA@ DB 'ambient_music', 00H ; `string'
CONST	ENDS
;	COMDAT ??_7?$CEntityFactory@VCAmbientMusic@@@@6B@
CONST	SEGMENT
??_7?$CEntityFactory@VCAmbientMusic@@@@6B@ DD FLAT:??_R4?$CEntityFactory@VCAmbientMusic@@@@6B@ ; CEntityFactory<CAmbientMusic>::`vftable'
	DD	FLAT:?Create@?$CEntityFactory@VCAmbientMusic@@@@UAEPAVCBaseEntity@@PBDPAUentvars_s@@@Z
	DD	FLAT:?Destroy@?$CEntityFactory@VCAmbientMusic@@@@UAEXPAVCBaseEntity@@@Z
	DD	FLAT:?GetEntitySize@?$CEntityFactory@VCAmbientMusic@@@@UAEIXZ
CONST	ENDS
;	COMDAT ??_7CAmbientMusic@@6B@
CONST	SEGMENT
??_7CAmbientMusic@@6B@ DD FLAT:??_R4CAmbientMusic@@6B@	; CAmbientMusic::`vftable'
	DD	FLAT:?GetDataDescMap@CBaseDelay@@UAEPAUdatamap_s@@XZ
	DD	FLAT:?Spawn@CAmbientMusic@@UAEXXZ
	DD	FLAT:?Precache@CBaseEntity@@UAEXXZ
	DD	FLAT:?KeyValue@CAmbientMusic@@UAEXPAUKeyValueData_s@@@Z
	DD	FLAT:?Save@CBaseEntity@@UAEHAAVCSave@@@Z
	DD	FLAT:?Restore@CBaseEntity@@UAEHAAVCRestore@@@Z
	DD	FLAT:?ObjectCaps@CBaseEntity@@UAEHXZ
	DD	FLAT:?Activate@CBaseEntity@@UAEXXZ
	DD	FLAT:?OnChangeLevel@CBaseEntity@@UAEXXZ
	DD	FLAT:?OnTeleport@CBaseEntity@@UAEXXZ
	DD	FLAT:?PortalSleep@CBaseEntity@@UAEXM@Z
	DD	FLAT:?StartMessage@CAmbientMusic@@UAEXPAVCBasePlayer@@@Z
	DD	FLAT:?GetPosition@CBaseEntity@@UAEMXZ
	DD	FLAT:?OnChangeParent@CBaseEntity@@UAEXXZ
	DD	FLAT:?OnClearParent@CBaseEntity@@UAEXXZ
	DD	FLAT:?OnRemove@CBaseEntity@@UAEXXZ
	DD	FLAT:?SetObjectCollisionBox@CBaseEntity@@UAEXXZ
	DD	FLAT:?Classify@CBaseEntity@@UAEHXZ
	DD	FLAT:?DeathNotice@CBaseEntity@@UAEXPAUentvars_s@@@Z
	DD	FLAT:?IsRigidBody@CBaseEntity@@UAEHXZ
	DD	FLAT:?SetNextThink@CBaseEntity@@UAEXM@Z
	DD	FLAT:?GetState@CBaseEntity@@UAE?AW4STATE@@PAV1@@Z
	DD	FLAT:?GetState@CAmbientMusic@@UAE?AW4STATE@@XZ
	DD	FLAT:?TraceAttack@CBaseEntity@@UAEXPAUentvars_s@@MVVector@@PAUgametrace_s@@H@Z
	DD	FLAT:?TakeDamage@CBaseEntity@@UAEHPAUentvars_s@@0MH@Z
	DD	FLAT:?TakeHealth@CBaseEntity@@UAEHMH@Z
	DD	FLAT:?TakeArmor@CBaseEntity@@UAEHMH@Z
	DD	FLAT:?Killed@CBaseEntity@@UAEXPAUentvars_s@@H@Z
	DD	FLAT:?BloodColor@CBaseEntity@@UAEHXZ
	DD	FLAT:?TraceBleed@CBaseEntity@@UAEXMVVector@@PAUgametrace_s@@H@Z
	DD	FLAT:?IsTriggered@CBaseEntity@@UAEHPAV1@@Z
	DD	FLAT:?MyMonsterPointer@CBaseEntity@@UAEPAVCBaseMonster@@XZ
	DD	FLAT:?MySquadMonsterPointer@CBaseEntity@@UAEPAVCSquadMonster@@XZ
	DD	FLAT:?GetToggleState@CBaseEntity@@UAEHXZ
	DD	FLAT:?AddPoints@CBaseEntity@@UAEXHH@Z
	DD	FLAT:?AddPointsToTeam@CBaseEntity@@UAEXHH@Z
	DD	FLAT:?AddPlayerItem@CBaseEntity@@UAEHPAVCBasePlayerItem@@@Z
	DD	FLAT:?RemovePlayerItem@CBaseEntity@@UAEHPAVCBasePlayerItem@@@Z
	DD	FLAT:?GiveAmmo@CBaseEntity@@UAEHHPADH@Z
	DD	FLAT:?GetDelay@CBaseEntity@@UAEMXZ
	DD	FLAT:?IsMoving@CBaseEntity@@UAEHXZ
	DD	FLAT:?OverrideReset@CBaseEntity@@UAEXXZ
	DD	FLAT:?TransferReset@CBaseEntity@@UAEXXZ
	DD	FLAT:?DamageDecal@CBaseEntity@@UAEHH@Z
	DD	FLAT:?SetToggleState@CBaseEntity@@UAEXH@Z
	DD	FLAT:?StartSneaking@CBaseEntity@@UAEXXZ
	DD	FLAT:?StopSneaking@CBaseEntity@@UAEXXZ
	DD	FLAT:?OnControls@CBaseEntity@@UAEHPAV1@@Z
	DD	FLAT:?IsSneaking@CBaseEntity@@UAEHXZ
	DD	FLAT:?IsAlive@CBaseEntity@@UAEHXZ
	DD	FLAT:?IsBSPModel@CBaseEntity@@UAEHXZ
	DD	FLAT:?IsCustomModel@CBaseEntity@@UAEHXZ
	DD	FLAT:?ReflectGauss@CBaseEntity@@UAEHXZ
	DD	FLAT:?HasTarget@CBaseEntity@@UAEHH@Z
	DD	FLAT:?IsInWorld@CBaseEntity@@UAEHH@Z
	DD	FLAT:?IsPlayer@CBaseEntity@@UAEHXZ
	DD	FLAT:?IsNetClient@CBaseEntity@@UAEHXZ
	DD	FLAT:?IsMonster@CBaseEntity@@UAEHXZ
	DD	FLAT:?IsPushable@CBaseEntity@@UAEHXZ
	DD	FLAT:?IsProjectile@CBaseEntity@@UAEHXZ
	DD	FLAT:?IsFuncScreen@CBaseEntity@@UAEHXZ
	DD	FLAT:?IsPortal@CBaseEntity@@UAEHXZ
	DD	FLAT:?IsTank@CBaseEntity@@UAEHXZ
	DD	FLAT:?IsMover@CBaseEntity@@UAEHXZ
	DD	FLAT:?IsBreakable@CBaseEntity@@UAEHXZ
	DD	FLAT:?TeamID@CBaseEntity@@UAEPBDXZ
	DD	FLAT:?AddSpawnFlags@CBaseEntity@@UAEXH@Z
	DD	FLAT:?HasSpawnFlags@CBaseEntity@@UBE_NH@Z
	DD	FLAT:?SetFadeDistance@CBaseEntity@@UAEXH@Z
	DD	FLAT:?SetFlag@CBaseEntity@@UAEXH@Z
	DD	FLAT:?HasFlag@CBaseEntity@@UBE_NH@Z
	DD	FLAT:?RemoveFlag@CBaseEntity@@UAEXH@Z
	DD	FLAT:?SetNullModel@CBaseEntity@@UAEXXZ
	DD	FLAT:?OnPickupObject@CBaseEntity@@UAEXXZ
	DD	FLAT:?OnDropObject@CBaseEntity@@UAEXXZ
	DD	FLAT:?GetNextTarget@CBaseEntity@@UAEPAV1@XZ
	DD	FLAT:?Think@CAmbientMusic@@UAEXXZ
	DD	FLAT:?Use@CAmbientMusic@@UAEXPAVCBaseEntity@@0W4USE_TYPE@@M@Z
	DD	FLAT:?Touch@CBaseEntity@@UAEXPAV1@@Z
	DD	FLAT:?Blocked@CBaseEntity@@UAEXPAV1@@Z
	DD	FLAT:?MoveDone@CBaseEntity@@UAEXXZ
	DD	FLAT:?Respawn@CBaseEntity@@UAEPAV1@XZ
	DD	FLAT:?UpdateOwner@CBaseEntity@@UAEXXZ
	DD	FLAT:?FBecomeProne@CBaseEntity@@UAEHXZ
	DD	FLAT:?Center@CBaseEntity@@UAE?AVVector@@XZ
	DD	FLAT:?EyePosition@CBaseEntity@@UAE?AVVector@@XZ
	DD	FLAT:?EarPosition@CBaseEntity@@UAE?AVVector@@XZ
	DD	FLAT:?BodyTarget@CBaseEntity@@UAE?AVVector@@ABV2@@Z
	DD	FLAT:?IsPointSized@CBaseEntity@@UBEHXZ
	DD	FLAT:?Illumination@CBaseEntity@@UAEHXZ
	DD	FLAT:?FVisible@CBaseEntity@@UAEHABVVector@@@Z
	DD	FLAT:?FVisible@CBaseEntity@@UAEHPAV1@@Z
	DD	FLAT:?ShouldCollide@CBaseEntity@@UAEHPAV1@@Z
	DD	FLAT:?ClearEffects@CBaseEntity@@UAEXXZ
CONST	ENDS
;	COMDAT ??_C@_0DN@IIPINGFH@Level?5Design?5Error?$CB?6SPEAKER?5has?5@
CONST	SEGMENT
??_C@_0DN@IIPINGFH@Level?5Design?5Error?$CB?6SPEAKER?5has?5@ DB 'Level De'
	DB	'sign Error!', 0aH, 'SPEAKER has bad sentence group name: %s', 0aH
	DB	00H						; `string'
CONST	ENDS
;	COMDAT ??_C@_05BIBEKLPF@C3A2_?$AA@
CONST	SEGMENT
??_C@_05BIBEKLPF@C3A2_?$AA@ DB 'C3A2_', 00H		; `string'
CONST	ENDS
;	COMDAT ??_C@_05BKFCBFKM@C3A1_?$AA@
CONST	SEGMENT
??_C@_05BKFCBFKM@C3A1_?$AA@ DB 'C3A1_', 00H		; `string'
CONST	ENDS
;	COMDAT ??_C@_05CADLJEMA@C2A5_?$AA@
CONST	SEGMENT
??_C@_05CADLJEMA@C2A5_?$AA@ DB 'C2A5_', 00H		; `string'
CONST	ENDS
;	COMDAT ??_C@_05CBPJPOPH@C2A4_?$AA@
CONST	SEGMENT
??_C@_05CBPJPOPH@C2A4_?$AA@ DB 'C2A4_', 00H		; `string'
CONST	ENDS
;	COMDAT ??_C@_05CELGOIHC@C2A3_?$AA@
CONST	SEGMENT
??_C@_05CELGOIHC@C2A3_?$AA@ DB 'C2A3_', 00H		; `string'
CONST	ENDS
;	COMDAT ??_C@_05CFHEICEF@C2A2_?$AA@
CONST	SEGMENT
??_C@_05CFHEICEF@C2A2_?$AA@ DB 'C2A2_', 00H		; `string'
CONST	ENDS
;	COMDAT ??_C@_05CHDCDMBM@C2A1_?$AA@
CONST	SEGMENT
??_C@_05CHDCDMBM@C2A1_?$AA@ DB 'C2A1_', 00H		; `string'
CONST	ENDS
;	COMDAT ??_C@_05GGFJIECH@C1A4_?$AA@
CONST	SEGMENT
??_C@_05GGFJIECH@C1A4_?$AA@ DB 'C1A4_', 00H		; `string'
CONST	ENDS
;	COMDAT ??_C@_05GDBGJCKC@C1A3_?$AA@
CONST	SEGMENT
??_C@_05GDBGJCKC@C1A3_?$AA@ DB 'C1A3_', 00H		; `string'
CONST	ENDS
;	COMDAT ??_C@_05GCNEPIJF@C1A2_?$AA@
CONST	SEGMENT
??_C@_05GCNEPIJF@C1A2_?$AA@ DB 'C1A2_', 00H		; `string'
CONST	ENDS
;	COMDAT ??_C@_05GAJCEGMM@C1A1_?$AA@
CONST	SEGMENT
??_C@_05GAJCEGMM@C1A1_?$AA@ DB 'C1A1_', 00H		; `string'
CONST	ENDS
;	COMDAT ??_C@_05GBFACMPL@C1A0_?$AA@
CONST	SEGMENT
??_C@_05GBFACMPL@C1A0_?$AA@ DB 'C1A0_', 00H		; `string'
CONST	ENDS
;	COMDAT ??_C@_0BF@CAJOKBGD@?$CGCSpeaker?3?3ToggleUse?$AA@
CONST	SEGMENT
??_C@_0BF@CAJOKBGD@?$CGCSpeaker?3?3ToggleUse?$AA@ DB '&CSpeaker::ToggleUs'
	DB	'e', 00H					; `string'
CONST	ENDS
;	COMDAT ??_C@_0BI@LCJLIMMK@?$CGCSpeaker?3?3SpeakerThink?$AA@
CONST	SEGMENT
??_C@_0BI@LCJLIMMK@?$CGCSpeaker?3?3SpeakerThink?$AA@ DB '&CSpeaker::Speak'
	DB	'erThink', 00H				; `string'
CONST	ENDS
;	COMDAT ??_C@_0DA@IIMJMCCG@SPEAKER?5with?5no?5Level?1Sentence?$CB?5@
CONST	SEGMENT
??_C@_0DA@IIMJMCCG@SPEAKER?5with?5no?5Level?1Sentence?$CB?5@ DB 'SPEAKER '
	DB	'with no Level/Sentence! at: %f, %f, %f', 0aH, 00H ; `string'
CONST	ENDS
;	COMDAT ??_C@_0N@PONONMAE@SpeakerThink?$AA@
CONST	SEGMENT
??_C@_0N@PONONMAE@SpeakerThink?$AA@ DB 'SpeakerThink', 00H ; `string'
CONST	ENDS
;	COMDAT ??_C@_07BHDDMEGH@speaker?$AA@
CONST	SEGMENT
??_C@_07BHDDMEGH@speaker?$AA@ DB 'speaker', 00H		; `string'
CONST	ENDS
;	COMDAT ??_7?$CEntityFactory@VCSpeaker@@@@6B@
CONST	SEGMENT
??_7?$CEntityFactory@VCSpeaker@@@@6B@ DD FLAT:??_R4?$CEntityFactory@VCSpeaker@@@@6B@ ; CEntityFactory<CSpeaker>::`vftable'
	DD	FLAT:?Create@?$CEntityFactory@VCSpeaker@@@@UAEPAVCBaseEntity@@PBDPAUentvars_s@@@Z
	DD	FLAT:?Destroy@?$CEntityFactory@VCSpeaker@@@@UAEXPAVCBaseEntity@@@Z
	DD	FLAT:?GetEntitySize@?$CEntityFactory@VCSpeaker@@@@UAEIXZ
CONST	ENDS
;	COMDAT ??_7CSpeaker@@6B@
CONST	SEGMENT
??_7CSpeaker@@6B@ DD FLAT:??_R4CSpeaker@@6B@		; CSpeaker::`vftable'
	DD	FLAT:?GetDataDescMap@CSpeaker@@UAEPAUdatamap_s@@XZ
	DD	FLAT:?Spawn@CSpeaker@@UAEXXZ
	DD	FLAT:?Precache@CSpeaker@@UAEXXZ
	DD	FLAT:?KeyValue@CSpeaker@@UAEXPAUKeyValueData_s@@@Z
	DD	FLAT:?Save@CBaseEntity@@UAEHAAVCSave@@@Z
	DD	FLAT:?Restore@CBaseEntity@@UAEHAAVCRestore@@@Z
	DD	FLAT:?ObjectCaps@CSpeaker@@UAEHXZ
	DD	FLAT:?Activate@CBaseEntity@@UAEXXZ
	DD	FLAT:?OnChangeLevel@CBaseEntity@@UAEXXZ
	DD	FLAT:?OnTeleport@CBaseEntity@@UAEXXZ
	DD	FLAT:?PortalSleep@CBaseEntity@@UAEXM@Z
	DD	FLAT:?StartMessage@CBaseEntity@@UAEXPAVCBasePlayer@@@Z
	DD	FLAT:?GetPosition@CBaseEntity@@UAEMXZ
	DD	FLAT:?OnChangeParent@CBaseEntity@@UAEXXZ
	DD	FLAT:?OnClearParent@CBaseEntity@@UAEXXZ
	DD	FLAT:?OnRemove@CBaseEntity@@UAEXXZ
	DD	FLAT:?SetObjectCollisionBox@CBaseEntity@@UAEXXZ
	DD	FLAT:?Classify@CBaseEntity@@UAEHXZ
	DD	FLAT:?DeathNotice@CBaseEntity@@UAEXPAUentvars_s@@@Z
	DD	FLAT:?IsRigidBody@CBaseEntity@@UAEHXZ
	DD	FLAT:?SetNextThink@CBaseEntity@@UAEXM@Z
	DD	FLAT:?GetState@CBaseEntity@@UAE?AW4STATE@@PAV1@@Z
	DD	FLAT:?GetState@CBaseEntity@@UAE?AW4STATE@@XZ
	DD	FLAT:?TraceAttack@CBaseEntity@@UAEXPAUentvars_s@@MVVector@@PAUgametrace_s@@H@Z
	DD	FLAT:?TakeDamage@CBaseEntity@@UAEHPAUentvars_s@@0MH@Z
	DD	FLAT:?TakeHealth@CBaseEntity@@UAEHMH@Z
	DD	FLAT:?TakeArmor@CBaseEntity@@UAEHMH@Z
	DD	FLAT:?Killed@CBaseEntity@@UAEXPAUentvars_s@@H@Z
	DD	FLAT:?BloodColor@CBaseEntity@@UAEHXZ
	DD	FLAT:?TraceBleed@CBaseEntity@@UAEXMVVector@@PAUgametrace_s@@H@Z
	DD	FLAT:?IsTriggered@CBaseEntity@@UAEHPAV1@@Z
	DD	FLAT:?MyMonsterPointer@CBaseEntity@@UAEPAVCBaseMonster@@XZ
	DD	FLAT:?MySquadMonsterPointer@CBaseEntity@@UAEPAVCSquadMonster@@XZ
	DD	FLAT:?GetToggleState@CBaseEntity@@UAEHXZ
	DD	FLAT:?AddPoints@CBaseEntity@@UAEXHH@Z
	DD	FLAT:?AddPointsToTeam@CBaseEntity@@UAEXHH@Z
	DD	FLAT:?AddPlayerItem@CBaseEntity@@UAEHPAVCBasePlayerItem@@@Z
	DD	FLAT:?RemovePlayerItem@CBaseEntity@@UAEHPAVCBasePlayerItem@@@Z
	DD	FLAT:?GiveAmmo@CBaseEntity@@UAEHHPADH@Z
	DD	FLAT:?GetDelay@CBaseEntity@@UAEMXZ
	DD	FLAT:?IsMoving@CBaseEntity@@UAEHXZ
	DD	FLAT:?OverrideReset@CBaseEntity@@UAEXXZ
	DD	FLAT:?TransferReset@CBaseEntity@@UAEXXZ
	DD	FLAT:?DamageDecal@CBaseEntity@@UAEHH@Z
	DD	FLAT:?SetToggleState@CBaseEntity@@UAEXH@Z
	DD	FLAT:?StartSneaking@CBaseEntity@@UAEXXZ
	DD	FLAT:?StopSneaking@CBaseEntity@@UAEXXZ
	DD	FLAT:?OnControls@CBaseEntity@@UAEHPAV1@@Z
	DD	FLAT:?IsSneaking@CBaseEntity@@UAEHXZ
	DD	FLAT:?IsAlive@CBaseEntity@@UAEHXZ
	DD	FLAT:?IsBSPModel@CBaseEntity@@UAEHXZ
	DD	FLAT:?IsCustomModel@CBaseEntity@@UAEHXZ
	DD	FLAT:?ReflectGauss@CBaseEntity@@UAEHXZ
	DD	FLAT:?HasTarget@CBaseEntity@@UAEHH@Z
	DD	FLAT:?IsInWorld@CBaseEntity@@UAEHH@Z
	DD	FLAT:?IsPlayer@CBaseEntity@@UAEHXZ
	DD	FLAT:?IsNetClient@CBaseEntity@@UAEHXZ
	DD	FLAT:?IsMonster@CBaseEntity@@UAEHXZ
	DD	FLAT:?IsPushable@CBaseEntity@@UAEHXZ
	DD	FLAT:?IsProjectile@CBaseEntity@@UAEHXZ
	DD	FLAT:?IsFuncScreen@CBaseEntity@@UAEHXZ
	DD	FLAT:?IsPortal@CBaseEntity@@UAEHXZ
	DD	FLAT:?IsTank@CBaseEntity@@UAEHXZ
	DD	FLAT:?IsMover@CBaseEntity@@UAEHXZ
	DD	FLAT:?IsBreakable@CBaseEntity@@UAEHXZ
	DD	FLAT:?TeamID@CBaseEntity@@UAEPBDXZ
	DD	FLAT:?AddSpawnFlags@CBaseEntity@@UAEXH@Z
	DD	FLAT:?HasSpawnFlags@CBaseEntity@@UBE_NH@Z
	DD	FLAT:?SetFadeDistance@CBaseEntity@@UAEXH@Z
	DD	FLAT:?SetFlag@CBaseEntity@@UAEXH@Z
	DD	FLAT:?HasFlag@CBaseEntity@@UBE_NH@Z
	DD	FLAT:?RemoveFlag@CBaseEntity@@UAEXH@Z
	DD	FLAT:?SetNullModel@CBaseEntity@@UAEXXZ
	DD	FLAT:?OnPickupObject@CBaseEntity@@UAEXXZ
	DD	FLAT:?OnDropObject@CBaseEntity@@UAEXXZ
	DD	FLAT:?GetNextTarget@CBaseEntity@@UAEPAV1@XZ
	DD	FLAT:?Think@CBaseEntity@@UAEXXZ
	DD	FLAT:?Use@CBaseEntity@@UAEXPAV1@0W4USE_TYPE@@M@Z
	DD	FLAT:?Touch@CBaseEntity@@UAEXPAV1@@Z
	DD	FLAT:?Blocked@CBaseEntity@@UAEXPAV1@@Z
	DD	FLAT:?MoveDone@CBaseEntity@@UAEXXZ
	DD	FLAT:?Respawn@CBaseEntity@@UAEPAV1@XZ
	DD	FLAT:?UpdateOwner@CBaseEntity@@UAEXXZ
	DD	FLAT:?FBecomeProne@CBaseEntity@@UAEHXZ
	DD	FLAT:?Center@CBaseEntity@@UAE?AVVector@@XZ
	DD	FLAT:?EyePosition@CBaseEntity@@UAE?AVVector@@XZ
	DD	FLAT:?EarPosition@CBaseEntity@@UAE?AVVector@@XZ
	DD	FLAT:?BodyTarget@CBaseEntity@@UAE?AVVector@@ABV2@@Z
	DD	FLAT:?IsPointSized@CBaseEntity@@UBEHXZ
	DD	FLAT:?Illumination@CBaseEntity@@UAEHXZ
	DD	FLAT:?FVisible@CBaseEntity@@UAEHABVVector@@@Z
	DD	FLAT:?FVisible@CBaseEntity@@UAEHPAV1@@Z
	DD	FLAT:?ShouldCollide@CBaseEntity@@UAEHPAV1@@Z
	DD	FLAT:?ClearEffects@CBaseEntity@@UAEXXZ
CONST	ENDS
;	COMDAT ??_C@_0O@KBANPHDH@hits?1ric5?4wav?$AA@
CONST	SEGMENT
??_C@_0O@KBANPHDH@hits?1ric5?4wav?$AA@ DB 'hits/ric5.wav', 00H ; `string'
CONST	ENDS
;	COMDAT ??_C@_0O@GKFBCEJC@hits?1ric4?4wav?$AA@
CONST	SEGMENT
??_C@_0O@GKFBCEJC@hits?1ric4?4wav?$AA@ DB 'hits/ric4.wav', 00H ; `string'
CONST	ENDS
;	COMDAT ??_C@_0O@HHFEBECK@hits?1ric3?4wav?$AA@
CONST	SEGMENT
??_C@_0O@HHFEBECK@hits?1ric3?4wav?$AA@ DB 'hits/ric3.wav', 00H ; `string'
CONST	ENDS
;	COMDAT ??_C@_0O@LMAIMHIP@hits?1ric2?4wav?$AA@
CONST	SEGMENT
??_C@_0O@LMAIMHIP@hits?1ric2?4wav?$AA@ DB 'hits/ric2.wav', 00H ; `string'
CONST	ENDS
;	COMDAT ??_C@_0O@DKJMLFCB@hits?1ric1?4wav?$AA@
CONST	SEGMENT
??_C@_0O@DKJMLFCB@hits?1ric1?4wav?$AA@ DB 'hits/ric1.wav', 00H ; `string'
CONST	ENDS
;	COMDAT ??_C@_0BD@OAMCHJCM@buttons?1spark6?4wav?$AA@
CONST	SEGMENT
??_C@_0BD@OAMCHJCM@buttons?1spark6?4wav?$AA@ DB 'buttons/spark6.wav', 00H ; `string'
CONST	ENDS
;	COMDAT ??_C@_0BD@GGFGALIC@buttons?1spark5?4wav?$AA@
CONST	SEGMENT
??_C@_0BD@GGFGALIC@buttons?1spark5?4wav?$AA@ DB 'buttons/spark5.wav', 00H ; `string'
CONST	ENDS
;	COMDAT ??_C@_0P@NGDPBEAP@func_breakable?$AA@
CONST	SEGMENT
??_C@_0P@NGDPBEAP@func_breakable?$AA@ DB 'func_breakable', 00H ; `string'
CONST	ENDS
;	COMDAT ??_C@_0BH@CNLHGOLI@weapons?1cbar_miss1?4wav?$AA@
CONST	SEGMENT
??_C@_0BH@CNLHGOLI@weapons?1cbar_miss1?4wav?$AA@ DB 'weapons/cbar_miss1.w'
	DB	'av', 00H					; `string'
CONST	ENDS
;	COMDAT ??_C@_0BI@ICHLCGHM@weapons?1bullet_hit2?4wav?$AA@
CONST	SEGMENT
??_C@_0BI@ICHLCGHM@weapons?1bullet_hit2?4wav?$AA@ DB 'weapons/bullet_hit2'
	DB	'.wav', 00H					; `string'
CONST	ENDS
;	COMDAT ??_C@_0BI@EOPFENC@weapons?1bullet_hit1?4wav?$AA@
CONST	SEGMENT
??_C@_0BI@EOPFENC@weapons?1bullet_hit1?4wav?$AA@ DB 'weapons/bullet_hit1.'
	DB	'wav', 00H					; `string'
CONST	ENDS
;	COMDAT ??_C@_0BJ@CBKDCLCA@weapons?1cbar_hitbod3?4wav?$AA@
CONST	SEGMENT
??_C@_0BJ@CBKDCLCA@weapons?1cbar_hitbod3?4wav?$AA@ DB 'weapons/cbar_hitbo'
	DB	'd3.wav', 00H				; `string'
CONST	ENDS
;	COMDAT ??_C@_0BJ@OKPPPIIF@weapons?1cbar_hitbod2?4wav?$AA@
CONST	SEGMENT
??_C@_0BJ@OKPPPIIF@weapons?1cbar_hitbod2?4wav?$AA@ DB 'weapons/cbar_hitbo'
	DB	'd2.wav', 00H				; `string'
CONST	ENDS
;	COMDAT ??_C@_0BJ@GMGLIKCL@weapons?1cbar_hitbod1?4wav?$AA@
CONST	SEGMENT
??_C@_0BJ@GMGLIKCL@weapons?1cbar_hitbod1?4wav?$AA@ DB 'weapons/cbar_hitbo'
	DB	'd1.wav', 00H				; `string'
CONST	ENDS
;	COMDAT ??_C@_0BA@NCPDABII@hits?1glass4?4wav?$AA@
CONST	SEGMENT
??_C@_0BA@NCPDABII@hits?1glass4?4wav?$AA@ DB 'hits/glass4.wav', 00H ; `string'
CONST	ENDS
;	COMDAT ??_C@_0BA@MPPGDBDA@hits?1glass3?4wav?$AA@
CONST	SEGMENT
??_C@_0BA@MPPGDBDA@hits?1glass3?4wav?$AA@ DB 'hits/glass3.wav', 00H ; `string'
CONST	ENDS
;	COMDAT ??_C@_0BA@EKKOCJF@hits?1glass2?4wav?$AA@
CONST	SEGMENT
??_C@_0BA@EKKOCJF@hits?1glass2?4wav?$AA@ DB 'hits/glass2.wav', 00H ; `string'
CONST	ENDS
;	COMDAT ??_C@_0BA@ICDOJADL@hits?1glass1?4wav?$AA@
CONST	SEGMENT
??_C@_0BA@ICDOJADL@hits?1glass1?4wav?$AA@ DB 'hits/glass1.wav', 00H ; `string'
CONST	ENDS
;	COMDAT ??_C@_0P@HNBCACPL@hits?1wood4?4wav?$AA@
CONST	SEGMENT
??_C@_0P@HNBCACPL@hits?1wood4?4wav?$AA@ DB 'hits/wood4.wav', 00H ; `string'
CONST	ENDS
;	COMDAT ??_C@_0P@GABHDCED@hits?1wood3?4wav?$AA@
CONST	SEGMENT
??_C@_0P@GABHDCED@hits?1wood3?4wav?$AA@ DB 'hits/wood3.wav', 00H ; `string'
CONST	ENDS
;	COMDAT ??_C@_0P@KLELOBOG@hits?1wood2?4wav?$AA@
CONST	SEGMENT
??_C@_0P@KLELOBOG@hits?1wood2?4wav?$AA@ DB 'hits/wood2.wav', 00H ; `string'
CONST	ENDS
;	COMDAT ??_C@_0P@CNNPJDEI@hits?1wood1?4wav?$AA@
CONST	SEGMENT
??_C@_0P@CNNPJDEI@hits?1wood1?4wav?$AA@ DB 'hits/wood1.wav', 00H ; `string'
CONST	ENDS
;	COMDAT ??_C@_0BF@MKFGNHII@footsteps?1slosh4?4wav?$AA@
CONST	SEGMENT
??_C@_0BF@MKFGNHII@footsteps?1slosh4?4wav?$AA@ DB 'footsteps/slosh4.wav', 00H ; `string'
CONST	ENDS
;	COMDAT ??_C@_0BF@BMAPDEJF@footsteps?1slosh2?4wav?$AA@
CONST	SEGMENT
??_C@_0BF@BMAPDEJF@footsteps?1slosh2?4wav?$AA@ DB 'footsteps/slosh2.wav', 00H ; `string'
CONST	ENDS
;	COMDAT ??_C@_0BF@NHFDOHDA@footsteps?1slosh3?4wav?$AA@
CONST	SEGMENT
??_C@_0BF@NHFDOHDA@footsteps?1slosh3?4wav?$AA@ DB 'footsteps/slosh3.wav', 00H ; `string'
CONST	ENDS
;	COMDAT ??_C@_0BF@JKJLEGDL@footsteps?1slosh1?4wav?$AA@
CONST	SEGMENT
??_C@_0BF@JKJLEGDL@footsteps?1slosh1?4wav?$AA@ DB 'footsteps/slosh1.wav', 00H ; `string'
CONST	ENDS
;	COMDAT ??_C@_0P@FPPEMJBG@hits?1dirt3?4wav?$AA@
CONST	SEGMENT
??_C@_0P@FPPEMJBG@hits?1dirt3?4wav?$AA@ DB 'hits/dirt3.wav', 00H ; `string'
CONST	ENDS
;	COMDAT ??_C@_0P@JEKIBKLD@hits?1dirt2?4wav?$AA@
CONST	SEGMENT
??_C@_0P@JEKIBKLD@hits?1dirt2?4wav?$AA@ DB 'hits/dirt2.wav', 00H ; `string'
CONST	ENDS
;	COMDAT ??_C@_0P@BCDMGIBN@hits?1dirt1?4wav?$AA@
CONST	SEGMENT
??_C@_0P@BCDMGIBN@hits?1dirt1?4wav?$AA@ DB 'hits/dirt1.wav', 00H ; `string'
CONST	ENDS
;	COMDAT ??_C@_0BA@IFBGKPIJ@hits?1metal4?4wav?$AA@
CONST	SEGMENT
??_C@_0BA@IFBGKPIJ@hits?1metal4?4wav?$AA@ DB 'hits/metal4.wav', 00H ; `string'
CONST	ENDS
;	COMDAT ??_C@_0BA@JIBDJPDB@hits?1metal3?4wav?$AA@
CONST	SEGMENT
??_C@_0BA@JIBDJPDB@hits?1metal3?4wav?$AA@ DB 'hits/metal3.wav', 00H ; `string'
CONST	ENDS
;	COMDAT ??_C@_0BA@FDEPEMJE@hits?1metal2?4wav?$AA@
CONST	SEGMENT
??_C@_0BA@FDEPEMJE@hits?1metal2?4wav?$AA@ DB 'hits/metal2.wav', 00H ; `string'
CONST	ENDS
;	COMDAT ??_C@_0BA@NFNLDODK@hits?1metal1?4wav?$AA@
CONST	SEGMENT
??_C@_0BA@NFNLDODK@hits?1metal1?4wav?$AA@ DB 'hits/metal1.wav', 00H ; `string'
CONST	ENDS
;	COMDAT ??_C@_0BD@IGHJMGIM@hits?1concrete4?4wav?$AA@
CONST	SEGMENT
??_C@_0BD@IGHJMGIM@hits?1concrete4?4wav?$AA@ DB 'hits/concrete4.wav', 00H ; `string'
CONST	ENDS
;	COMDAT ??_C@_0BD@JLHMPGDE@hits?1concrete3?4wav?$AA@
CONST	SEGMENT
??_C@_0BD@JLHMPGDE@hits?1concrete3?4wav?$AA@ DB 'hits/concrete3.wav', 00H ; `string'
CONST	ENDS
;	COMDAT ??_C@_0BD@FACACFJB@hits?1concrete2?4wav?$AA@
CONST	SEGMENT
??_C@_0BD@FACACFJB@hits?1concrete2?4wav?$AA@ DB 'hits/concrete2.wav', 00H ; `string'
CONST	ENDS
;	COMDAT ??_C@_0BD@NGLEFHDP@hits?1concrete1?4wav?$AA@
CONST	SEGMENT
??_C@_0BD@NGLEFHDP@hits?1concrete1?4wav?$AA@ DB 'hits/concrete1.wav', 00H ; `string'
CONST	ENDS
;	COMDAT ??_C@_0O@MDKCAHNO@monster_alice?$AA@
CONST	SEGMENT
??_C@_0O@MDKCAHNO@monster_alice?$AA@ DB 'monster_alice', 00H ; `string'
CONST	ENDS
;	COMDAT ??_C@_02CBLDBPFN@?1?1?$AA@
CONST	SEGMENT
??_C@_02CBLDBPFN@?1?1?$AA@ DB '//', 00H			; `string'
CONST	ENDS
;	COMDAT ??_C@_0BD@EJFPBDDL@data?1materials?4txt?$AA@
CONST	SEGMENT
??_C@_0BD@EJFPBDDL@data?1materials?4txt?$AA@ DB 'data/materials.txt', 00H ; `string'
CONST	ENDS
;	COMDAT ??_C@_0L@BFLOMJEF@suitvolume?$AA@
CONST	SEGMENT
??_C@_0L@BFLOMJEF@suitvolume?$AA@ DB 'suitvolume', 00H	; `string'
CONST	ENDS
;	COMDAT ??_C@_0CE@LFNOEBKB@Unable?5to?5find?5?$CFs?5in?5sentences?4t@
CONST	SEGMENT
??_C@_0CE@LFNOEBKB@Unable?5to?5find?5?$CFs?5in?5sentences?4t@ DB 'Unable '
	DB	'to find %s in sentences.txt', 0aH, 00H	; `string'
CONST	ENDS
;	COMDAT ??_C@_0CM@HHCLKDCI@Too?5many?5sentence?5groups?5in?5sent@
CONST	SEGMENT
??_C@_0CM@HHCLKDCI@Too?5many?5sentence?5groups?5in?5sent@ DB 'Too many se'
	DB	'ntence groups in sentences.txt!', 0aH, 00H	; `string'
CONST	ENDS
;	COMDAT ??_C@_0CE@OLECIHDE@Sentence?5?$CFs?5longer?5than?5?$CFd?5lette@
CONST	SEGMENT
??_C@_0CE@OLECIHDE@Sentence?5?$CFs?5longer?5than?5?$CFd?5lette@ DB 'Sente'
	DB	'nce %s longer than %d letters', 0aH, 00H	; `string'
CONST	ENDS
;	COMDAT ??_C@_0CG@HMGILMJN@Too?5many?5sentences?5in?5sentences?4@
CONST	SEGMENT
??_C@_0CG@HMGILMJN@Too?5many?5sentences?5in?5sentences?4@ DB 'Too many se'
	DB	'ntences in sentences.txt!', 0aH, 00H	; `string'
CONST	ENDS
;	COMDAT ??_C@_0BE@LOFIHEDB@sound?1sentences?4txt?$AA@
CONST	SEGMENT
??_C@_0BE@LOFIHEDB@sound?1sentences?4txt?$AA@ DB 'sound/sentences.txt', 00H ; `string'
CONST	ENDS
;	COMDAT ??_C@_0BL@PDIDECJC@No?5such?5sentence?5group?5?$CFs?6?$AA@
CONST	SEGMENT
??_C@_0BL@PDIDECJC@No?5such?5sentence?5group?5?$CFs?6?$AA@ DB 'No such se'
	DB	'ntence group %s', 0aH, 00H			; `string'
CONST	ENDS
;	COMDAT ??_C@_02DPKJAMEF@?$CFd?$AA@
CONST	SEGMENT
??_C@_02DPKJAMEF@?$CFd?$AA@ DB '%d', 00H		; `string'
CONST	ENDS
;	COMDAT ??_C@_01DCLJPIOD@?$CB?$AA@
CONST	SEGMENT
??_C@_01DCLJPIOD@?$CB?$AA@ DB '!', 00H			; `string'
CONST	ENDS
;	COMDAT ??_C@_0O@FMPBPFAO@trigger_sound?$AA@
CONST	SEGMENT
??_C@_0O@FMPBPFAO@trigger_sound?$AA@ DB 'trigger_sound', 00H ; `string'
CONST	ENDS
;	COMDAT ??_7?$CEntityFactory@VCTriggerSound@@@@6B@
CONST	SEGMENT
??_7?$CEntityFactory@VCTriggerSound@@@@6B@ DD FLAT:??_R4?$CEntityFactory@VCTriggerSound@@@@6B@ ; CEntityFactory<CTriggerSound>::`vftable'
	DD	FLAT:?Create@?$CEntityFactory@VCTriggerSound@@@@UAEPAVCBaseEntity@@PBDPAUentvars_s@@@Z
	DD	FLAT:?Destroy@?$CEntityFactory@VCTriggerSound@@@@UAEXPAVCBaseEntity@@@Z
	DD	FLAT:?GetEntitySize@?$CEntityFactory@VCTriggerSound@@@@UAEIXZ
CONST	ENDS
;	COMDAT ??_7CTriggerSound@@6B@
CONST	SEGMENT
??_7CTriggerSound@@6B@ DD FLAT:??_R4CTriggerSound@@6B@	; CTriggerSound::`vftable'
	DD	FLAT:?GetDataDescMap@CBaseDelay@@UAEPAUdatamap_s@@XZ
	DD	FLAT:?Spawn@CTriggerSound@@UAEXXZ
	DD	FLAT:?Precache@CBaseEntity@@UAEXXZ
	DD	FLAT:?KeyValue@CTriggerSound@@UAEXPAUKeyValueData_s@@@Z
	DD	FLAT:?Save@CBaseEntity@@UAEHAAVCSave@@@Z
	DD	FLAT:?Restore@CBaseEntity@@UAEHAAVCRestore@@@Z
	DD	FLAT:?ObjectCaps@CTriggerSound@@UAEHXZ
	DD	FLAT:?Activate@CBaseEntity@@UAEXXZ
	DD	FLAT:?OnChangeLevel@CBaseEntity@@UAEXXZ
	DD	FLAT:?OnTeleport@CBaseEntity@@UAEXXZ
	DD	FLAT:?PortalSleep@CBaseEntity@@UAEXM@Z
	DD	FLAT:?StartMessage@CBaseEntity@@UAEXPAVCBasePlayer@@@Z
	DD	FLAT:?GetPosition@CBaseEntity@@UAEMXZ
	DD	FLAT:?OnChangeParent@CBaseEntity@@UAEXXZ
	DD	FLAT:?OnClearParent@CBaseEntity@@UAEXXZ
	DD	FLAT:?OnRemove@CBaseEntity@@UAEXXZ
	DD	FLAT:?SetObjectCollisionBox@CBaseEntity@@UAEXXZ
	DD	FLAT:?Classify@CBaseEntity@@UAEHXZ
	DD	FLAT:?DeathNotice@CBaseEntity@@UAEXPAUentvars_s@@@Z
	DD	FLAT:?IsRigidBody@CBaseEntity@@UAEHXZ
	DD	FLAT:?SetNextThink@CBaseEntity@@UAEXM@Z
	DD	FLAT:?GetState@CBaseEntity@@UAE?AW4STATE@@PAV1@@Z
	DD	FLAT:?GetState@CBaseDelay@@UAE?AW4STATE@@XZ
	DD	FLAT:?TraceAttack@CBaseEntity@@UAEXPAUentvars_s@@MVVector@@PAUgametrace_s@@H@Z
	DD	FLAT:?TakeDamage@CBaseEntity@@UAEHPAUentvars_s@@0MH@Z
	DD	FLAT:?TakeHealth@CBaseEntity@@UAEHMH@Z
	DD	FLAT:?TakeArmor@CBaseEntity@@UAEHMH@Z
	DD	FLAT:?Killed@CBaseEntity@@UAEXPAUentvars_s@@H@Z
	DD	FLAT:?BloodColor@CBaseEntity@@UAEHXZ
	DD	FLAT:?TraceBleed@CBaseEntity@@UAEXMVVector@@PAUgametrace_s@@H@Z
	DD	FLAT:?IsTriggered@CBaseEntity@@UAEHPAV1@@Z
	DD	FLAT:?MyMonsterPointer@CBaseEntity@@UAEPAVCBaseMonster@@XZ
	DD	FLAT:?MySquadMonsterPointer@CBaseEntity@@UAEPAVCSquadMonster@@XZ
	DD	FLAT:?GetToggleState@CBaseEntity@@UAEHXZ
	DD	FLAT:?AddPoints@CBaseEntity@@UAEXHH@Z
	DD	FLAT:?AddPointsToTeam@CBaseEntity@@UAEXHH@Z
	DD	FLAT:?AddPlayerItem@CBaseEntity@@UAEHPAVCBasePlayerItem@@@Z
	DD	FLAT:?RemovePlayerItem@CBaseEntity@@UAEHPAVCBasePlayerItem@@@Z
	DD	FLAT:?GiveAmmo@CBaseEntity@@UAEHHPADH@Z
	DD	FLAT:?GetDelay@CBaseEntity@@UAEMXZ
	DD	FLAT:?IsMoving@CBaseEntity@@UAEHXZ
	DD	FLAT:?OverrideReset@CBaseEntity@@UAEXXZ
	DD	FLAT:?TransferReset@CBaseEntity@@UAEXXZ
	DD	FLAT:?DamageDecal@CBaseEntity@@UAEHH@Z
	DD	FLAT:?SetToggleState@CBaseEntity@@UAEXH@Z
	DD	FLAT:?StartSneaking@CBaseEntity@@UAEXXZ
	DD	FLAT:?StopSneaking@CBaseEntity@@UAEXXZ
	DD	FLAT:?OnControls@CBaseEntity@@UAEHPAV1@@Z
	DD	FLAT:?IsSneaking@CBaseEntity@@UAEHXZ
	DD	FLAT:?IsAlive@CBaseEntity@@UAEHXZ
	DD	FLAT:?IsBSPModel@CBaseEntity@@UAEHXZ
	DD	FLAT:?IsCustomModel@CBaseEntity@@UAEHXZ
	DD	FLAT:?ReflectGauss@CBaseEntity@@UAEHXZ
	DD	FLAT:?HasTarget@CBaseEntity@@UAEHH@Z
	DD	FLAT:?IsInWorld@CBaseEntity@@UAEHH@Z
	DD	FLAT:?IsPlayer@CBaseEntity@@UAEHXZ
	DD	FLAT:?IsNetClient@CBaseEntity@@UAEHXZ
	DD	FLAT:?IsMonster@CBaseEntity@@UAEHXZ
	DD	FLAT:?IsPushable@CBaseEntity@@UAEHXZ
	DD	FLAT:?IsProjectile@CBaseEntity@@UAEHXZ
	DD	FLAT:?IsFuncScreen@CBaseEntity@@UAEHXZ
	DD	FLAT:?IsPortal@CBaseEntity@@UAEHXZ
	DD	FLAT:?IsTank@CBaseEntity@@UAEHXZ
	DD	FLAT:?IsMover@CBaseEntity@@UAEHXZ
	DD	FLAT:?IsBreakable@CBaseEntity@@UAEHXZ
	DD	FLAT:?TeamID@CBaseEntity@@UAEPBDXZ
	DD	FLAT:?AddSpawnFlags@CBaseEntity@@UAEXH@Z
	DD	FLAT:?HasSpawnFlags@CBaseEntity@@UBE_NH@Z
	DD	FLAT:?SetFadeDistance@CBaseEntity@@UAEXH@Z
	DD	FLAT:?SetFlag@CBaseEntity@@UAEXH@Z
	DD	FLAT:?HasFlag@CBaseEntity@@UBE_NH@Z
	DD	FLAT:?RemoveFlag@CBaseEntity@@UAEXH@Z
	DD	FLAT:?SetNullModel@CBaseEntity@@UAEXXZ
	DD	FLAT:?OnPickupObject@CBaseEntity@@UAEXXZ
	DD	FLAT:?OnDropObject@CBaseEntity@@UAEXXZ
	DD	FLAT:?GetNextTarget@CBaseEntity@@UAEPAV1@XZ
	DD	FLAT:?Think@CBaseEntity@@UAEXXZ
	DD	FLAT:?Use@CBaseEntity@@UAEXPAV1@0W4USE_TYPE@@M@Z
	DD	FLAT:?Touch@CTriggerSound@@UAEXPAVCBaseEntity@@@Z
	DD	FLAT:?Blocked@CBaseEntity@@UAEXPAV1@@Z
	DD	FLAT:?MoveDone@CBaseEntity@@UAEXXZ
	DD	FLAT:?Respawn@CBaseEntity@@UAEPAV1@XZ
	DD	FLAT:?UpdateOwner@CBaseEntity@@UAEXXZ
	DD	FLAT:?FBecomeProne@CBaseEntity@@UAEHXZ
	DD	FLAT:?Center@CBaseEntity@@UAE?AVVector@@XZ
	DD	FLAT:?EyePosition@CBaseEntity@@UAE?AVVector@@XZ
	DD	FLAT:?EarPosition@CBaseEntity@@UAE?AVVector@@XZ
	DD	FLAT:?BodyTarget@CBaseEntity@@UAE?AVVector@@ABV2@@Z
	DD	FLAT:?IsPointSized@CBaseEntity@@UBEHXZ
	DD	FLAT:?Illumination@CBaseEntity@@UAEHXZ
	DD	FLAT:?FVisible@CBaseEntity@@UAEHABVVector@@@Z
	DD	FLAT:?FVisible@CBaseEntity@@UAEHPAV1@@Z
	DD	FLAT:?ShouldCollide@CBaseEntity@@UAEHPAV1@@Z
	DD	FLAT:?ClearEffects@CBaseEntity@@UAEXXZ
CONST	ENDS
;	COMDAT ??_C@_09IJFFIEBG@env_sound?$AA@
CONST	SEGMENT
??_C@_09IJFFIEBG@env_sound?$AA@ DB 'env_sound', 00H	; `string'
CONST	ENDS
;	COMDAT ??_7?$CEntityFactory@VCEnvSound@@@@6B@
CONST	SEGMENT
??_7?$CEntityFactory@VCEnvSound@@@@6B@ DD FLAT:??_R4?$CEntityFactory@VCEnvSound@@@@6B@ ; CEntityFactory<CEnvSound>::`vftable'
	DD	FLAT:?Create@?$CEntityFactory@VCEnvSound@@@@UAEPAVCBaseEntity@@PBDPAUentvars_s@@@Z
	DD	FLAT:?Destroy@?$CEntityFactory@VCEnvSound@@@@UAEXPAVCBaseEntity@@@Z
	DD	FLAT:?GetEntitySize@?$CEntityFactory@VCEnvSound@@@@UAEIXZ
CONST	ENDS
;	COMDAT ??_7CEnvSound@@6B@
CONST	SEGMENT
??_7CEnvSound@@6B@ DD FLAT:??_R4CEnvSound@@6B@		; CEnvSound::`vftable'
	DD	FLAT:?GetDataDescMap@CEnvSound@@UAEPAUdatamap_s@@XZ
	DD	FLAT:?Spawn@CEnvSound@@UAEXXZ
	DD	FLAT:?Precache@CBaseEntity@@UAEXXZ
	DD	FLAT:?KeyValue@CEnvSound@@UAEXPAUKeyValueData_s@@@Z
	DD	FLAT:?Save@CBaseEntity@@UAEHAAVCSave@@@Z
	DD	FLAT:?Restore@CBaseEntity@@UAEHAAVCRestore@@@Z
	DD	FLAT:?ObjectCaps@CPointEntity@@UAEHXZ
	DD	FLAT:?Activate@CBaseEntity@@UAEXXZ
	DD	FLAT:?OnChangeLevel@CBaseEntity@@UAEXXZ
	DD	FLAT:?OnTeleport@CBaseEntity@@UAEXXZ
	DD	FLAT:?PortalSleep@CBaseEntity@@UAEXM@Z
	DD	FLAT:?StartMessage@CBaseEntity@@UAEXPAVCBasePlayer@@@Z
	DD	FLAT:?GetPosition@CBaseEntity@@UAEMXZ
	DD	FLAT:?OnChangeParent@CBaseEntity@@UAEXXZ
	DD	FLAT:?OnClearParent@CBaseEntity@@UAEXXZ
	DD	FLAT:?OnRemove@CBaseEntity@@UAEXXZ
	DD	FLAT:?SetObjectCollisionBox@CBaseEntity@@UAEXXZ
	DD	FLAT:?Classify@CBaseEntity@@UAEHXZ
	DD	FLAT:?DeathNotice@CBaseEntity@@UAEXPAUentvars_s@@@Z
	DD	FLAT:?IsRigidBody@CBaseEntity@@UAEHXZ
	DD	FLAT:?SetNextThink@CBaseEntity@@UAEXM@Z
	DD	FLAT:?GetState@CBaseEntity@@UAE?AW4STATE@@PAV1@@Z
	DD	FLAT:?GetState@CBaseEntity@@UAE?AW4STATE@@XZ
	DD	FLAT:?TraceAttack@CBaseEntity@@UAEXPAUentvars_s@@MVVector@@PAUgametrace_s@@H@Z
	DD	FLAT:?TakeDamage@CBaseEntity@@UAEHPAUentvars_s@@0MH@Z
	DD	FLAT:?TakeHealth@CBaseEntity@@UAEHMH@Z
	DD	FLAT:?TakeArmor@CBaseEntity@@UAEHMH@Z
	DD	FLAT:?Killed@CBaseEntity@@UAEXPAUentvars_s@@H@Z
	DD	FLAT:?BloodColor@CBaseEntity@@UAEHXZ
	DD	FLAT:?TraceBleed@CBaseEntity@@UAEXMVVector@@PAUgametrace_s@@H@Z
	DD	FLAT:?IsTriggered@CBaseEntity@@UAEHPAV1@@Z
	DD	FLAT:?MyMonsterPointer@CBaseEntity@@UAEPAVCBaseMonster@@XZ
	DD	FLAT:?MySquadMonsterPointer@CBaseEntity@@UAEPAVCSquadMonster@@XZ
	DD	FLAT:?GetToggleState@CBaseEntity@@UAEHXZ
	DD	FLAT:?AddPoints@CBaseEntity@@UAEXHH@Z
	DD	FLAT:?AddPointsToTeam@CBaseEntity@@UAEXHH@Z
	DD	FLAT:?AddPlayerItem@CBaseEntity@@UAEHPAVCBasePlayerItem@@@Z
	DD	FLAT:?RemovePlayerItem@CBaseEntity@@UAEHPAVCBasePlayerItem@@@Z
	DD	FLAT:?GiveAmmo@CBaseEntity@@UAEHHPADH@Z
	DD	FLAT:?GetDelay@CBaseEntity@@UAEMXZ
	DD	FLAT:?IsMoving@CBaseEntity@@UAEHXZ
	DD	FLAT:?OverrideReset@CBaseEntity@@UAEXXZ
	DD	FLAT:?TransferReset@CBaseEntity@@UAEXXZ
	DD	FLAT:?DamageDecal@CBaseEntity@@UAEHH@Z
	DD	FLAT:?SetToggleState@CBaseEntity@@UAEXH@Z
	DD	FLAT:?StartSneaking@CBaseEntity@@UAEXXZ
	DD	FLAT:?StopSneaking@CBaseEntity@@UAEXXZ
	DD	FLAT:?OnControls@CBaseEntity@@UAEHPAV1@@Z
	DD	FLAT:?IsSneaking@CBaseEntity@@UAEHXZ
	DD	FLAT:?IsAlive@CBaseEntity@@UAEHXZ
	DD	FLAT:?IsBSPModel@CBaseEntity@@UAEHXZ
	DD	FLAT:?IsCustomModel@CBaseEntity@@UAEHXZ
	DD	FLAT:?ReflectGauss@CBaseEntity@@UAEHXZ
	DD	FLAT:?HasTarget@CBaseEntity@@UAEHH@Z
	DD	FLAT:?IsInWorld@CBaseEntity@@UAEHH@Z
	DD	FLAT:?IsPlayer@CBaseEntity@@UAEHXZ
	DD	FLAT:?IsNetClient@CBaseEntity@@UAEHXZ
	DD	FLAT:?IsMonster@CBaseEntity@@UAEHXZ
	DD	FLAT:?IsPushable@CBaseEntity@@UAEHXZ
	DD	FLAT:?IsProjectile@CBaseEntity@@UAEHXZ
	DD	FLAT:?IsFuncScreen@CBaseEntity@@UAEHXZ
	DD	FLAT:?IsPortal@CBaseEntity@@UAEHXZ
	DD	FLAT:?IsTank@CBaseEntity@@UAEHXZ
	DD	FLAT:?IsMover@CBaseEntity@@UAEHXZ
	DD	FLAT:?IsBreakable@CBaseEntity@@UAEHXZ
	DD	FLAT:?TeamID@CBaseEntity@@UAEPBDXZ
	DD	FLAT:?AddSpawnFlags@CBaseEntity@@UAEXH@Z
	DD	FLAT:?HasSpawnFlags@CBaseEntity@@UBE_NH@Z
	DD	FLAT:?SetFadeDistance@CBaseEntity@@UAEXH@Z
	DD	FLAT:?SetFlag@CBaseEntity@@UAEXH@Z
	DD	FLAT:?HasFlag@CBaseEntity@@UBE_NH@Z
	DD	FLAT:?RemoveFlag@CBaseEntity@@UAEXH@Z
	DD	FLAT:?SetNullModel@CBaseEntity@@UAEXXZ
	DD	FLAT:?OnPickupObject@CBaseEntity@@UAEXXZ
	DD	FLAT:?OnDropObject@CBaseEntity@@UAEXXZ
	DD	FLAT:?GetNextTarget@CBaseEntity@@UAEPAV1@XZ
	DD	FLAT:?Think@CEnvSound@@UAEXXZ
	DD	FLAT:?Use@CBaseEntity@@UAEXPAV1@0W4USE_TYPE@@M@Z
	DD	FLAT:?Touch@CBaseEntity@@UAEXPAV1@@Z
	DD	FLAT:?Blocked@CBaseEntity@@UAEXPAV1@@Z
	DD	FLAT:?MoveDone@CBaseEntity@@UAEXXZ
	DD	FLAT:?Respawn@CBaseEntity@@UAEPAV1@XZ
	DD	FLAT:?UpdateOwner@CBaseEntity@@UAEXXZ
	DD	FLAT:?FBecomeProne@CBaseEntity@@UAEHXZ
	DD	FLAT:?Center@CBaseEntity@@UAE?AVVector@@XZ
	DD	FLAT:?EyePosition@CBaseEntity@@UAE?AVVector@@XZ
	DD	FLAT:?EarPosition@CBaseEntity@@UAE?AVVector@@XZ
	DD	FLAT:?BodyTarget@CBaseEntity@@UAE?AVVector@@ABV2@@Z
	DD	FLAT:?IsPointSized@CBaseEntity@@UBEHXZ
	DD	FLAT:?Illumination@CBaseEntity@@UAEHXZ
	DD	FLAT:?FVisible@CBaseEntity@@UAEHABVVector@@@Z
	DD	FLAT:?FVisible@CBaseEntity@@UAEHPAV1@@Z
	DD	FLAT:?ShouldCollide@CBaseEntity@@UAEHPAV1@@Z
	DD	FLAT:?ClearEffects@CBaseEntity@@UAEXXZ
CONST	ENDS
;	COMDAT ??_C@_07CAMFAGPI@cspinup?$AA@
CONST	SEGMENT
??_C@_07CAMFAGPI@cspinup?$AA@ DB 'cspinup', 00H		; `string'
CONST	ENDS
;	COMDAT ??_C@_09EKPKCPJP@lfomodvol?$AA@
CONST	SEGMENT
??_C@_09EKPKCPJP@lfomodvol?$AA@ DB 'lfomodvol', 00H	; `string'
CONST	ENDS
;	COMDAT ??_C@_0M@HGAJBMGN@lfomodpitch?$AA@
CONST	SEGMENT
??_C@_0M@HGAJBMGN@lfomodpitch?$AA@ DB 'lfomodpitch', 00H ; `string'
CONST	ENDS
;	COMDAT ??_C@_07EHKHCNJF@lforate?$AA@
CONST	SEGMENT
??_C@_07EHKHCNJF@lforate?$AA@ DB 'lforate', 00H		; `string'
CONST	ENDS
;	COMDAT ??_C@_07FKEDAPJJ@lfotype?$AA@
CONST	SEGMENT
??_C@_07FKEDAPJJ@lfotype?$AA@ DB 'lfotype', 00H		; `string'
CONST	ENDS
;	COMDAT ??_C@_07BJADIKJG@fadeout?$AA@
CONST	SEGMENT
??_C@_07BJADIKJG@fadeout?$AA@ DB 'fadeout', 00H		; `string'
CONST	ENDS
;	COMDAT ??_C@_06JFGPOFJL@fadein?$AA@
CONST	SEGMENT
??_C@_06JFGPOFJL@fadein?$AA@ DB 'fadein', 00H		; `string'
CONST	ENDS
;	COMDAT ??_C@_08MBMKGMEC@volstart?$AA@
CONST	SEGMENT
??_C@_08MBMKGMEC@volstart?$AA@ DB 'volstart', 00H	; `string'
CONST	ENDS
;	COMDAT ??_C@_08PFGPOMOJ@spindown?$AA@
CONST	SEGMENT
??_C@_08PFGPOMOJ@spindown?$AA@ DB 'spindown', 00H	; `string'
CONST	ENDS
;	COMDAT ??_C@_06IGOPKBLH@spinup?$AA@
CONST	SEGMENT
??_C@_06IGOPKBLH@spinup?$AA@ DB 'spinup', 00H		; `string'
CONST	ENDS
;	COMDAT ??_C@_0L@BCICKNJD@pitchstart?$AA@
CONST	SEGMENT
??_C@_0L@BCICKNJD@pitchstart?$AA@ DB 'pitchstart', 00H	; `string'
CONST	ENDS
;	COMDAT ??_C@_05NCNFOFLM@pitch?$AA@
CONST	SEGMENT
??_C@_05NCNFOFLM@pitch?$AA@ DB 'pitch', 00H		; `string'
CONST	ENDS
;	COMDAT ??_C@_0BM@DBCGHFMO@?$CGCAmbientGeneric?3?3RampThink?$AA@
CONST	SEGMENT
??_C@_0BM@DBCGHFMO@?$CGCAmbientGeneric?3?3RampThink?$AA@ DB '&CAmbientGen'
	DB	'eric::RampThink', 00H			; `string'
CONST	ENDS
;	COMDAT ??_C@_0BP@KHIOGCIN@?$CGCAmbientGeneric?3?3ReInitialize?$AA@
CONST	SEGMENT
??_C@_0BP@KHIOGCIN@?$CGCAmbientGeneric?3?3ReInitialize?$AA@ DB '&CAmbient'
	DB	'Generic::ReInitialize', 00H			; `string'
CONST	ENDS
;	COMDAT ??_C@_0CE@DGMMICMH@?$CGCAmbientGeneric?3?3StartDynamicSo@
CONST	SEGMENT
??_C@_0CE@DGMMICMH@?$CGCAmbientGeneric?3?3StartDynamicSo@ DB '&CAmbientGe'
	DB	'neric::StartDynamicSound', 00H		; `string'
CONST	ENDS
;	COMDAT ??_C@_0BM@OHHKHLFG@?$CGCAmbientGeneric?3?3ToggleUse?$AA@
CONST	SEGMENT
??_C@_0BM@OHHKHLFG@?$CGCAmbientGeneric?3?3ToggleUse?$AA@ DB '&CAmbientGen'
	DB	'eric::ToggleUse', 00H			; `string'
CONST	ENDS
;	COMDAT ??_C@_0BO@MMKAKBAC@EMPTY?5AMBIENT?5AT?3?5?$CFf?0?5?$CFf?0?5?$CFf?6?$AA@
CONST	SEGMENT
??_C@_0BO@MMKAKBAC@EMPTY?5AMBIENT?5AT?3?5?$CFf?0?5?$CFf?0?5?$CFf?6?$AA@ DB 'E'
	DB	'MPTY AMBIENT AT: %f, %f, %f', 0aH, 00H	; `string'
CONST	ENDS
;	COMDAT ??_C@_0N@BFNLBOAL@ReInitialize?$AA@
CONST	SEGMENT
??_C@_0N@BFNLBOAL@ReInitialize?$AA@ DB 'ReInitialize', 00H ; `string'
CONST	ENDS
;	COMDAT ??_C@_0BC@JFAHPILA@StartDynamicSound?$AA@
CONST	SEGMENT
??_C@_0BC@JFAHPILA@StartDynamicSound?$AA@ DB 'StartDynamicSound', 00H ; `string'
CONST	ENDS
;	COMDAT ??_C@_09CHGFKFGA@ToggleUse?$AA@
CONST	SEGMENT
??_C@_09CHGFKFGA@ToggleUse?$AA@ DB 'ToggleUse', 00H	; `string'
CONST	ENDS
;	COMDAT ??_C@_09PBDJKLPI@RampThink?$AA@
CONST	SEGMENT
??_C@_09PBDJKLPI@RampThink?$AA@ DB 'RampThink', 00H	; `string'
CONST	ENDS
;	COMDAT ??_C@_0BA@JGPOPFCJ@ambient_generic?$AA@
CONST	SEGMENT
??_C@_0BA@JGPOPFCJ@ambient_generic?$AA@ DB 'ambient_generic', 00H ; `string'
CONST	ENDS
;	COMDAT ??_7?$CEntityFactory@VCAmbientGeneric@@@@6B@
CONST	SEGMENT
??_7?$CEntityFactory@VCAmbientGeneric@@@@6B@ DD FLAT:??_R4?$CEntityFactory@VCAmbientGeneric@@@@6B@ ; CEntityFactory<CAmbientGeneric>::`vftable'
	DD	FLAT:?Create@?$CEntityFactory@VCAmbientGeneric@@@@UAEPAVCBaseEntity@@PBDPAUentvars_s@@@Z
	DD	FLAT:?Destroy@?$CEntityFactory@VCAmbientGeneric@@@@UAEXPAVCBaseEntity@@@Z
	DD	FLAT:?GetEntitySize@?$CEntityFactory@VCAmbientGeneric@@@@UAEIXZ
CONST	ENDS
;	COMDAT ??_7CAmbientGeneric@@6B@
CONST	SEGMENT
??_7CAmbientGeneric@@6B@ DD FLAT:??_R4CAmbientGeneric@@6B@ ; CAmbientGeneric::`vftable'
	DD	FLAT:?GetDataDescMap@CAmbientGeneric@@UAEPAUdatamap_s@@XZ
	DD	FLAT:?Spawn@CAmbientGeneric@@UAEXXZ
	DD	FLAT:?Precache@CAmbientGeneric@@UAEXXZ
	DD	FLAT:?KeyValue@CAmbientGeneric@@UAEXPAUKeyValueData_s@@@Z
	DD	FLAT:?Save@CBaseEntity@@UAEHAAVCSave@@@Z
	DD	FLAT:?Restore@CBaseEntity@@UAEHAAVCRestore@@@Z
	DD	FLAT:?ObjectCaps@CAmbientGeneric@@UAEHXZ
	DD	FLAT:?Activate@CBaseEntity@@UAEXXZ
	DD	FLAT:?OnChangeLevel@CBaseEntity@@UAEXXZ
	DD	FLAT:?OnTeleport@CBaseEntity@@UAEXXZ
	DD	FLAT:?PortalSleep@CBaseEntity@@UAEXM@Z
	DD	FLAT:?StartMessage@CBaseEntity@@UAEXPAVCBasePlayer@@@Z
	DD	FLAT:?GetPosition@CBaseEntity@@UAEMXZ
	DD	FLAT:?OnChangeParent@CBaseEntity@@UAEXXZ
	DD	FLAT:?OnClearParent@CBaseEntity@@UAEXXZ
	DD	FLAT:?OnRemove@CBaseEntity@@UAEXXZ
	DD	FLAT:?SetObjectCollisionBox@CBaseEntity@@UAEXXZ
	DD	FLAT:?Classify@CBaseEntity@@UAEHXZ
	DD	FLAT:?DeathNotice@CBaseEntity@@UAEXPAUentvars_s@@@Z
	DD	FLAT:?IsRigidBody@CBaseEntity@@UAEHXZ
	DD	FLAT:?SetNextThink@CBaseEntity@@UAEXM@Z
	DD	FLAT:?GetState@CBaseEntity@@UAE?AW4STATE@@PAV1@@Z
	DD	FLAT:?GetState@CBaseEntity@@UAE?AW4STATE@@XZ
	DD	FLAT:?TraceAttack@CBaseEntity@@UAEXPAUentvars_s@@MVVector@@PAUgametrace_s@@H@Z
	DD	FLAT:?TakeDamage@CBaseEntity@@UAEHPAUentvars_s@@0MH@Z
	DD	FLAT:?TakeHealth@CBaseEntity@@UAEHMH@Z
	DD	FLAT:?TakeArmor@CBaseEntity@@UAEHMH@Z
	DD	FLAT:?Killed@CBaseEntity@@UAEXPAUentvars_s@@H@Z
	DD	FLAT:?BloodColor@CBaseEntity@@UAEHXZ
	DD	FLAT:?TraceBleed@CBaseEntity@@UAEXMVVector@@PAUgametrace_s@@H@Z
	DD	FLAT:?IsTriggered@CBaseEntity@@UAEHPAV1@@Z
	DD	FLAT:?MyMonsterPointer@CBaseEntity@@UAEPAVCBaseMonster@@XZ
	DD	FLAT:?MySquadMonsterPointer@CBaseEntity@@UAEPAVCSquadMonster@@XZ
	DD	FLAT:?GetToggleState@CBaseEntity@@UAEHXZ
	DD	FLAT:?AddPoints@CBaseEntity@@UAEXHH@Z
	DD	FLAT:?AddPointsToTeam@CBaseEntity@@UAEXHH@Z
	DD	FLAT:?AddPlayerItem@CBaseEntity@@UAEHPAVCBasePlayerItem@@@Z
	DD	FLAT:?RemovePlayerItem@CBaseEntity@@UAEHPAVCBasePlayerItem@@@Z
	DD	FLAT:?GiveAmmo@CBaseEntity@@UAEHHPADH@Z
	DD	FLAT:?GetDelay@CBaseEntity@@UAEMXZ
	DD	FLAT:?IsMoving@CBaseEntity@@UAEHXZ
	DD	FLAT:?OverrideReset@CBaseEntity@@UAEXXZ
	DD	FLAT:?TransferReset@CBaseEntity@@UAEXXZ
	DD	FLAT:?DamageDecal@CBaseEntity@@UAEHH@Z
	DD	FLAT:?SetToggleState@CBaseEntity@@UAEXH@Z
	DD	FLAT:?StartSneaking@CBaseEntity@@UAEXXZ
	DD	FLAT:?StopSneaking@CBaseEntity@@UAEXXZ
	DD	FLAT:?OnControls@CBaseEntity@@UAEHPAV1@@Z
	DD	FLAT:?IsSneaking@CBaseEntity@@UAEHXZ
	DD	FLAT:?IsAlive@CBaseEntity@@UAEHXZ
	DD	FLAT:?IsBSPModel@CBaseEntity@@UAEHXZ
	DD	FLAT:?IsCustomModel@CBaseEntity@@UAEHXZ
	DD	FLAT:?ReflectGauss@CBaseEntity@@UAEHXZ
	DD	FLAT:?HasTarget@CBaseEntity@@UAEHH@Z
	DD	FLAT:?IsInWorld@CBaseEntity@@UAEHH@Z
	DD	FLAT:?IsPlayer@CBaseEntity@@UAEHXZ
	DD	FLAT:?IsNetClient@CBaseEntity@@UAEHXZ
	DD	FLAT:?IsMonster@CBaseEntity@@UAEHXZ
	DD	FLAT:?IsPushable@CBaseEntity@@UAEHXZ
	DD	FLAT:?IsProjectile@CBaseEntity@@UAEHXZ
	DD	FLAT:?IsFuncScreen@CBaseEntity@@UAEHXZ
	DD	FLAT:?IsPortal@CBaseEntity@@UAEHXZ
	DD	FLAT:?IsTank@CBaseEntity@@UAEHXZ
	DD	FLAT:?IsMover@CBaseEntity@@UAEHXZ
	DD	FLAT:?IsBreakable@CBaseEntity@@UAEHXZ
	DD	FLAT:?TeamID@CBaseEntity@@UAEPBDXZ
	DD	FLAT:?AddSpawnFlags@CBaseEntity@@UAEXH@Z
	DD	FLAT:?HasSpawnFlags@CBaseEntity@@UBE_NH@Z
	DD	FLAT:?SetFadeDistance@CBaseEntity@@UAEXH@Z
	DD	FLAT:?SetFlag@CBaseEntity@@UAEXH@Z
	DD	FLAT:?HasFlag@CBaseEntity@@UBE_NH@Z
	DD	FLAT:?RemoveFlag@CBaseEntity@@UAEXH@Z
	DD	FLAT:?SetNullModel@CBaseEntity@@UAEXXZ
	DD	FLAT:?OnPickupObject@CBaseEntity@@UAEXXZ
	DD	FLAT:?OnDropObject@CBaseEntity@@UAEXXZ
	DD	FLAT:?GetNextTarget@CBaseEntity@@UAEPAV1@XZ
	DD	FLAT:?Think@CBaseEntity@@UAEXXZ
	DD	FLAT:?Use@CBaseEntity@@UAEXPAV1@0W4USE_TYPE@@M@Z
	DD	FLAT:?Touch@CBaseEntity@@UAEXPAV1@@Z
	DD	FLAT:?Blocked@CBaseEntity@@UAEXPAV1@@Z
	DD	FLAT:?MoveDone@CBaseEntity@@UAEXXZ
	DD	FLAT:?Respawn@CBaseEntity@@UAEPAV1@XZ
	DD	FLAT:?UpdateOwner@CBaseEntity@@UAEXXZ
	DD	FLAT:?FBecomeProne@CBaseEntity@@UAEHXZ
	DD	FLAT:?Center@CBaseEntity@@UAE?AVVector@@XZ
	DD	FLAT:?EyePosition@CBaseEntity@@UAE?AVVector@@XZ
	DD	FLAT:?EarPosition@CBaseEntity@@UAE?AVVector@@XZ
	DD	FLAT:?BodyTarget@CBaseEntity@@UAE?AVVector@@ABV2@@Z
	DD	FLAT:?IsPointSized@CBaseEntity@@UBEHXZ
	DD	FLAT:?Illumination@CBaseEntity@@UAEHXZ
	DD	FLAT:?FVisible@CBaseEntity@@UAEHABVVector@@@Z
	DD	FLAT:?FVisible@CBaseEntity@@UAEHPAV1@@Z
	DD	FLAT:?ShouldCollide@CBaseEntity@@UAEHPAV1@@Z
	DD	FLAT:?ClearEffects@CAmbientGeneric@@UAEXXZ
CONST	ENDS
;	COMDAT ??_7CBasePlayer@@6B@
CONST	SEGMENT
??_7CBasePlayer@@6B@ DD FLAT:??_R4CBasePlayer@@6B@	; CBasePlayer::`vftable'
	DD	FLAT:?GetDataDescMap@CBasePlayer@@UAEPAUdatamap_s@@XZ
	DD	FLAT:?Spawn@CBasePlayer@@UAEXXZ
	DD	FLAT:?Precache@CBasePlayer@@UAEXXZ
	DD	FLAT:?KeyValue@CBaseMonster@@UAEXPAUKeyValueData_s@@@Z
	DD	FLAT:?Save@CBaseEntity@@UAEHAAVCSave@@@Z
	DD	FLAT:?Restore@CBasePlayer@@UAEHAAVCRestore@@@Z
	DD	FLAT:?ObjectCaps@CBasePlayer@@UAEHXZ
	DD	FLAT:?Activate@CBaseEntity@@UAEXXZ
	DD	FLAT:?OnChangeLevel@CBaseEntity@@UAEXXZ
	DD	FLAT:?OnTeleport@CBaseEntity@@UAEXXZ
	DD	FLAT:?PortalSleep@CBaseEntity@@UAEXM@Z
	DD	FLAT:?StartMessage@CBaseEntity@@UAEXPAVCBasePlayer@@@Z
	DD	FLAT:?GetPosition@CBaseEntity@@UAEMXZ
	DD	FLAT:?OnChangeParent@CBaseEntity@@UAEXXZ
	DD	FLAT:?OnClearParent@CBaseEntity@@UAEXXZ
	DD	FLAT:?OnRemove@CBaseEntity@@UAEXXZ
	DD	FLAT:?SetObjectCollisionBox@CBaseEntity@@UAEXXZ
	DD	FLAT:?Classify@CBasePlayer@@UAEHXZ
	DD	FLAT:?DeathNotice@CBaseEntity@@UAEXPAUentvars_s@@@Z
	DD	FLAT:?IsRigidBody@CBaseEntity@@UAEHXZ
	DD	FLAT:?SetNextThink@CBaseEntity@@UAEXM@Z
	DD	FLAT:?GetState@CBaseEntity@@UAE?AW4STATE@@PAV1@@Z
	DD	FLAT:?GetState@CBaseToggle@@UAE?AW4STATE@@XZ
	DD	FLAT:?TraceAttack@CBasePlayer@@UAEXPAUentvars_s@@MVVector@@PAUgametrace_s@@H@Z
	DD	FLAT:?TakeDamage@CBasePlayer@@UAEHPAUentvars_s@@0MH@Z
	DD	FLAT:?TakeHealth@CBasePlayer@@UAEHMH@Z
	DD	FLAT:?TakeArmor@CBaseEntity@@UAEHMH@Z
	DD	FLAT:?Killed@CBasePlayer@@UAEXPAUentvars_s@@H@Z
	DD	FLAT:?BloodColor@CBaseMonster@@UAEHXZ
	DD	FLAT:?TraceBleed@CBaseEntity@@UAEXMVVector@@PAUgametrace_s@@H@Z
	DD	FLAT:?IsTriggered@CBaseEntity@@UAEHPAV1@@Z
	DD	FLAT:?MyMonsterPointer@CBaseMonster@@UAEPAV1@XZ
	DD	FLAT:?MySquadMonsterPointer@CBaseEntity@@UAEPAVCSquadMonster@@XZ
	DD	FLAT:?GetToggleState@CBaseToggle@@UAEHXZ
	DD	FLAT:?AddPoints@CBasePlayer@@UAEXHH@Z
	DD	FLAT:?AddPointsToTeam@CBasePlayer@@UAEXHH@Z
	DD	FLAT:?AddPlayerItem@CBasePlayer@@UAEHPAVCBasePlayerItem@@@Z
	DD	FLAT:?RemovePlayerItem@CBasePlayer@@UAEHPAVCBasePlayerItem@@@Z
	DD	FLAT:?GiveAmmo@CBasePlayer@@UAEHHPADH@Z
	DD	FLAT:?GetDelay@CBaseToggle@@UAEMXZ
	DD	FLAT:?IsMoving@CBaseMonster@@UAEHXZ
	DD	FLAT:?OverrideReset@CBaseEntity@@UAEXXZ
	DD	FLAT:?TransferReset@CBasePlayer@@UAEXXZ
	DD	FLAT:?DamageDecal@CBaseMonster@@UAEHH@Z
	DD	FLAT:?SetToggleState@CBaseEntity@@UAEXH@Z
	DD	FLAT:?StartSneaking@CBasePlayer@@UAEXXZ
	DD	FLAT:?StopSneaking@CBasePlayer@@UAEXXZ
	DD	FLAT:?OnControls@CBaseEntity@@UAEHPAV1@@Z
	DD	FLAT:?IsSneaking@CBasePlayer@@UAEHXZ
	DD	FLAT:?IsAlive@CBasePlayer@@UAEHXZ
	DD	FLAT:?IsBSPModel@CBaseEntity@@UAEHXZ
	DD	FLAT:?IsCustomModel@CBaseEntity@@UAEHXZ
	DD	FLAT:?ReflectGauss@CBaseEntity@@UAEHXZ
	DD	FLAT:?HasTarget@CBaseEntity@@UAEHH@Z
	DD	FLAT:?IsInWorld@CBaseEntity@@UAEHH@Z
	DD	FLAT:?IsPlayer@CBasePlayer@@UAEHXZ
	DD	FLAT:?IsNetClient@CBasePlayer@@UAEHXZ
	DD	FLAT:?IsMonster@CBaseEntity@@UAEHXZ
	DD	FLAT:?IsPushable@CBaseEntity@@UAEHXZ
	DD	FLAT:?IsProjectile@CBaseEntity@@UAEHXZ
	DD	FLAT:?IsFuncScreen@CBaseEntity@@UAEHXZ
	DD	FLAT:?IsPortal@CBaseEntity@@UAEHXZ
	DD	FLAT:?IsTank@CBaseEntity@@UAEHXZ
	DD	FLAT:?IsMover@CBaseEntity@@UAEHXZ
	DD	FLAT:?IsBreakable@CBaseEntity@@UAEHXZ
	DD	FLAT:?TeamID@CBasePlayer@@UAEPBDXZ
	DD	FLAT:?AddSpawnFlags@CBaseEntity@@UAEXH@Z
	DD	FLAT:?HasSpawnFlags@CBaseEntity@@UBE_NH@Z
	DD	FLAT:?SetFadeDistance@CBaseEntity@@UAEXH@Z
	DD	FLAT:?SetFlag@CBaseEntity@@UAEXH@Z
	DD	FLAT:?HasFlag@CBaseEntity@@UBE_NH@Z
	DD	FLAT:?RemoveFlag@CBaseEntity@@UAEXH@Z
	DD	FLAT:?SetNullModel@CBaseEntity@@UAEXXZ
	DD	FLAT:?OnPickupObject@CBaseEntity@@UAEXXZ
	DD	FLAT:?OnDropObject@CBaseEntity@@UAEXXZ
	DD	FLAT:?GetNextTarget@CBaseEntity@@UAEPAV1@XZ
	DD	FLAT:?Think@CBaseEntity@@UAEXXZ
	DD	FLAT:?Use@CBaseEntity@@UAEXPAV1@0W4USE_TYPE@@M@Z
	DD	FLAT:?Touch@CBaseEntity@@UAEXPAV1@@Z
	DD	FLAT:?Blocked@CBaseEntity@@UAEXPAV1@@Z
	DD	FLAT:?MoveDone@CBaseToggle@@UAEXXZ
	DD	FLAT:?Respawn@CBaseEntity@@UAEPAV1@XZ
	DD	FLAT:?UpdateOwner@CBaseEntity@@UAEXXZ
	DD	FLAT:?FBecomeProne@CBasePlayer@@UAEHXZ
	DD	FLAT:?Center@CBaseEntity@@UAE?AVVector@@XZ
	DD	FLAT:?EyePosition@CBaseEntity@@UAE?AVVector@@XZ
	DD	FLAT:?EarPosition@CBaseEntity@@UAE?AVVector@@XZ
	DD	FLAT:?BodyTarget@CBasePlayer@@UAE?AVVector@@ABV2@@Z
	DD	FLAT:?IsPointSized@CBaseEntity@@UBEHXZ
	DD	FLAT:?Illumination@CBasePlayer@@UAEHXZ
	DD	FLAT:?FVisible@CBaseEntity@@UAEHABVVector@@@Z
	DD	FLAT:?FVisible@CBaseEntity@@UAEHPAV1@@Z
	DD	FLAT:?ShouldCollide@CBaseEntity@@UAEHPAV1@@Z
	DD	FLAT:?ClearEffects@CBaseMonster@@UAEXXZ
	DD	FLAT:?HandleAnimEvent@CBaseMonster@@UAEXPAUMonsterEvent_t@@@Z
	DD	FLAT:?Look@CBaseMonster@@UAEXH@Z
	DD	FLAT:?RunAI@CBaseMonster@@UAEXXZ
	DD	FLAT:?ShouldFadeOnDeath@CBasePlayer@@UAEHXZ
	DD	FLAT:?ChangeYaw@CBaseMonster@@UAEMH@Z
	DD	FLAT:?MonsterThink@CBaseMonster@@UAEXXZ
	DD	FLAT:?IRelationship@CBaseMonster@@UAEHPAVCBaseEntity@@@Z
	DD	FLAT:?MonsterInit@CBaseMonster@@UAEXXZ
	DD	FLAT:?MonsterInitDead@CBaseMonster@@UAEXXZ
	DD	FLAT:?BecomeDead@CBaseMonster@@UAEXXZ
	DD	FLAT:?StartMonster@CBaseMonster@@UAEXXZ
	DD	FLAT:?BestVisibleEnemy@CBaseMonster@@UAEPAVCBaseEntity@@XZ
	DD	FLAT:?FInViewCone@CBaseMonster@@UAEHPAVVector@@@Z
	DD	FLAT:?FInViewCone@CBaseMonster@@UAEHPAVCBaseEntity@@M@Z
	DD	FLAT:?CheckLocalMove@CBaseMonster@@UAEHABVVector@@0PAVCBaseEntity@@PAM@Z
	DD	FLAT:?Move@CBaseMonster@@UAEXM@Z
	DD	FLAT:?MoveExecute@CBaseMonster@@UAEXPAVCBaseEntity@@ABVVector@@M@Z
	DD	FLAT:?ShouldAdvanceRoute@CBaseMonster@@UAEHM@Z
	DD	FLAT:?GetStoppedActivity@CBaseMonster@@UAE?AW4Activity@@XZ
	DD	FLAT:?Stop@CBaseMonster@@UAEXXZ
	DD	FLAT:?CheckRangeAttack1@CBaseMonster@@UAEHMM@Z
	DD	FLAT:?CheckRangeAttack2@CBaseMonster@@UAEHMM@Z
	DD	FLAT:?CheckMeleeAttack1@CBaseMonster@@UAEHMM@Z
	DD	FLAT:?CheckMeleeAttack2@CBaseMonster@@UAEHMM@Z
	DD	FLAT:?ScheduleFromName@CBaseMonster@@UAEPAUSchedule_t@@PBD@Z
	DD	FLAT:?StartTask@CBaseMonster@@UAEXPAUTask_t@@@Z
	DD	FLAT:?RunTask@CBaseMonster@@UAEXPAUTask_t@@@Z
	DD	FLAT:?GetScheduleOfType@CBaseMonster@@UAEPAUSchedule_t@@H@Z
	DD	FLAT:?GetSchedule@CBaseMonster@@UAEPAUSchedule_t@@XZ
	DD	FLAT:?ScheduleChange@CBaseMonster@@UAEXXZ
	DD	FLAT:?CanPlaySequence@CBaseMonster@@UAEHHH@Z
	DD	FLAT:?CanPlaySentence@CBaseMonster@@UAEHH@Z
	DD	FLAT:?PlaySentence@CBaseMonster@@UAEXPBDMMMH@Z
	DD	FLAT:?PlayScriptedSentence@CBaseMonster@@UAEXPBDMMMHPAVCBaseEntity@@H@Z
	DD	FLAT:?SentenceStop@CBaseMonster@@UAEXXZ
	DD	FLAT:?GetIdealState@CBaseMonster@@UAE?AW4MONSTERSTATE@@XZ
	DD	FLAT:?SetActivity@CBaseMonster@@UAEXW4Activity@@@Z
	DD	FLAT:?ReportAIState@CBaseMonster@@UAEXXZ
	DD	FLAT:?CheckEnemy@CBaseMonster@@UAEHPAVCBaseEntity@@@Z
	DD	FLAT:?FTriangulate@CBaseMonster@@UAEHABVVector@@0MPAVCBaseEntity@@PAV2@@Z
	DD	FLAT:?SetYawSpeed@CBaseMonster@@UAEXXZ
	DD	FLAT:?BuildNearestRoute@CBaseMonster@@UAEHVVector@@0MM@Z
	DD	FLAT:?FindCover@CBaseMonster@@UAEHVVector@@0MM@Z
	DD	FLAT:?FindRunAway@CBaseMonster@@UAEHVVector@@MM@Z
	DD	FLAT:?FValidateCover@CBaseMonster@@UAEHABVVector@@@Z
	DD	FLAT:?CoverRadius@CBaseMonster@@UAEMXZ
	DD	FLAT:?FCanCheckAttacks@CBaseMonster@@UAEHXZ
	DD	FLAT:?CheckAmmo@CBaseMonster@@UAEXXZ
	DD	FLAT:?IgnoreConditions@CBaseMonster@@UAEHXZ
	DD	FLAT:?FValidateHintType@CBaseMonster@@UAEHF@Z
	DD	FLAT:?FCanActiveIdle@CBaseMonster@@UAEHXZ
	DD	FLAT:?ISoundMask@CBaseMonster@@UAEHXZ
	DD	FLAT:?PBestSound@CBaseMonster@@UAEPAVCSound@@XZ
	DD	FLAT:?PBestScent@CBaseMonster@@UAEPAVCSound@@XZ
	DD	FLAT:?HearingSensitivity@CBaseMonster@@UAEMXZ
	DD	FLAT:?BarnacleVictimBitten@CBasePlayer@@UAEXPAUentvars_s@@@Z
	DD	FLAT:?BarnacleVictimReleased@CBasePlayer@@UAEXXZ
	DD	FLAT:?PrescheduleThink@CBaseMonster@@UAEXXZ
	DD	FLAT:?GetDeathActivity@CBaseMonster@@UAE?AW4Activity@@XZ
	DD	FLAT:?GibMonster@CBasePlayer@@UAEXXZ
	DD	FLAT:?HasHumanGibs@CBaseMonster@@UAEHXZ
	DD	FLAT:?HasAlienGibs@CBaseMonster@@UAEHXZ
	DD	FLAT:?FadeMonster@CBaseMonster@@UAEXXZ
	DD	FLAT:?GetGunPosition@CBasePlayer@@UAE?AVVector@@XZ
	DD	FLAT:?DeathSound@CBasePlayer@@UAEXXZ
	DD	FLAT:?AlertSound@CBaseMonster@@UAEXXZ
	DD	FLAT:?IdleSound@CBaseMonster@@UAEXXZ
	DD	FLAT:?PainSound@CBaseMonster@@UAEXXZ
	DD	FLAT:?StepSound@CBaseMonster@@UAEXXZ
	DD	FLAT:?StopFollowing@CBaseMonster@@UAEXH@Z
	DD	FLAT:?Jump@CBasePlayer@@UAEXXZ
	DD	FLAT:?Duck@CBasePlayer@@UAEXXZ
	DD	FLAT:?PreThink@CBasePlayer@@UAEXXZ
	DD	FLAT:?PostThink@CBasePlayer@@UAEXXZ
	DD	FLAT:?UpdateClientData@CBasePlayer@@UAEXXZ
	DD	FLAT:?ImpulseCommands@CBasePlayer@@UAEXXZ
	DD	FLAT:?CheckTutorMessage@CBasePlayer@@UAEXH@Z
CONST	ENDS
;	COMDAT ??_C@_0BJ@EIFNLFLK@?$CGCBaseEntity?3?3SUB_Remove?$AA@
CONST	SEGMENT
??_C@_0BJ@EIFNLFLK@?$CGCBaseEntity?3?3SUB_Remove?$AA@ DB '&CBaseEntity::S'
	DB	'UB_Remove', 00H				; `string'
CONST	ENDS
;	COMDAT ??_C@_0BB@EMJBJDBM@sprites?1null?4spr?$AA@
CONST	SEGMENT
??_C@_0BB@EMJBJDBM@sprites?1null?4spr?$AA@ DB 'sprites/null.spr', 00H ; `string'
CONST	ENDS
;	COMDAT ??_7CBaseMonster@@6B@
CONST	SEGMENT
??_7CBaseMonster@@6B@ DD FLAT:??_R4CBaseMonster@@6B@	; CBaseMonster::`vftable'
	DD	FLAT:?GetDataDescMap@CBaseMonster@@UAEPAUdatamap_s@@XZ
	DD	FLAT:?Spawn@CBaseEntity@@UAEXXZ
	DD	FLAT:?Precache@CBaseEntity@@UAEXXZ
	DD	FLAT:?KeyValue@CBaseMonster@@UAEXPAUKeyValueData_s@@@Z
	DD	FLAT:?Save@CBaseEntity@@UAEHAAVCSave@@@Z
	DD	FLAT:?Restore@CBaseMonster@@UAEHAAVCRestore@@@Z
	DD	FLAT:?ObjectCaps@CBaseEntity@@UAEHXZ
	DD	FLAT:?Activate@CBaseEntity@@UAEXXZ
	DD	FLAT:?OnChangeLevel@CBaseEntity@@UAEXXZ
	DD	FLAT:?OnTeleport@CBaseEntity@@UAEXXZ
	DD	FLAT:?PortalSleep@CBaseEntity@@UAEXM@Z
	DD	FLAT:?StartMessage@CBaseEntity@@UAEXPAVCBasePlayer@@@Z
	DD	FLAT:?GetPosition@CBaseEntity@@UAEMXZ
	DD	FLAT:?OnChangeParent@CBaseEntity@@UAEXXZ
	DD	FLAT:?OnClearParent@CBaseEntity@@UAEXXZ
	DD	FLAT:?OnRemove@CBaseEntity@@UAEXXZ
	DD	FLAT:?SetObjectCollisionBox@CBaseEntity@@UAEXXZ
	DD	FLAT:?Classify@CBaseMonster@@UAEHXZ
	DD	FLAT:?DeathNotice@CBaseEntity@@UAEXPAUentvars_s@@@Z
	DD	FLAT:?IsRigidBody@CBaseEntity@@UAEHXZ
	DD	FLAT:?SetNextThink@CBaseEntity@@UAEXM@Z
	DD	FLAT:?GetState@CBaseEntity@@UAE?AW4STATE@@PAV1@@Z
	DD	FLAT:?GetState@CBaseToggle@@UAE?AW4STATE@@XZ
	DD	FLAT:?TraceAttack@CBaseMonster@@UAEXPAUentvars_s@@MVVector@@PAUgametrace_s@@H@Z
	DD	FLAT:?TakeDamage@CBaseMonster@@UAEHPAUentvars_s@@0MH@Z
	DD	FLAT:?TakeHealth@CBaseMonster@@UAEHMH@Z
	DD	FLAT:?TakeArmor@CBaseEntity@@UAEHMH@Z
	DD	FLAT:?Killed@CBaseMonster@@UAEXPAUentvars_s@@H@Z
	DD	FLAT:?BloodColor@CBaseMonster@@UAEHXZ
	DD	FLAT:?TraceBleed@CBaseEntity@@UAEXMVVector@@PAUgametrace_s@@H@Z
	DD	FLAT:?IsTriggered@CBaseEntity@@UAEHPAV1@@Z
	DD	FLAT:?MyMonsterPointer@CBaseMonster@@UAEPAV1@XZ
	DD	FLAT:?MySquadMonsterPointer@CBaseEntity@@UAEPAVCSquadMonster@@XZ
	DD	FLAT:?GetToggleState@CBaseToggle@@UAEHXZ
	DD	FLAT:?AddPoints@CBaseEntity@@UAEXHH@Z
	DD	FLAT:?AddPointsToTeam@CBaseEntity@@UAEXHH@Z
	DD	FLAT:?AddPlayerItem@CBaseEntity@@UAEHPAVCBasePlayerItem@@@Z
	DD	FLAT:?RemovePlayerItem@CBaseEntity@@UAEHPAVCBasePlayerItem@@@Z
	DD	FLAT:?GiveAmmo@CBaseEntity@@UAEHHPADH@Z
	DD	FLAT:?GetDelay@CBaseToggle@@UAEMXZ
	DD	FLAT:?IsMoving@CBaseMonster@@UAEHXZ
	DD	FLAT:?OverrideReset@CBaseEntity@@UAEXXZ
	DD	FLAT:?TransferReset@CBaseEntity@@UAEXXZ
	DD	FLAT:?DamageDecal@CBaseMonster@@UAEHH@Z
	DD	FLAT:?SetToggleState@CBaseEntity@@UAEXH@Z
	DD	FLAT:?StartSneaking@CBaseEntity@@UAEXXZ
	DD	FLAT:?StopSneaking@CBaseEntity@@UAEXXZ
	DD	FLAT:?OnControls@CBaseEntity@@UAEHPAV1@@Z
	DD	FLAT:?IsSneaking@CBaseEntity@@UAEHXZ
	DD	FLAT:?IsAlive@CBaseMonster@@UAEHXZ
	DD	FLAT:?IsBSPModel@CBaseEntity@@UAEHXZ
	DD	FLAT:?IsCustomModel@CBaseEntity@@UAEHXZ
	DD	FLAT:?ReflectGauss@CBaseEntity@@UAEHXZ
	DD	FLAT:?HasTarget@CBaseEntity@@UAEHH@Z
	DD	FLAT:?IsInWorld@CBaseEntity@@UAEHH@Z
	DD	FLAT:?IsPlayer@CBaseEntity@@UAEHXZ
	DD	FLAT:?IsNetClient@CBaseEntity@@UAEHXZ
	DD	FLAT:?IsMonster@CBaseEntity@@UAEHXZ
	DD	FLAT:?IsPushable@CBaseEntity@@UAEHXZ
	DD	FLAT:?IsProjectile@CBaseEntity@@UAEHXZ
	DD	FLAT:?IsFuncScreen@CBaseEntity@@UAEHXZ
	DD	FLAT:?IsPortal@CBaseEntity@@UAEHXZ
	DD	FLAT:?IsTank@CBaseEntity@@UAEHXZ
	DD	FLAT:?IsMover@CBaseEntity@@UAEHXZ
	DD	FLAT:?IsBreakable@CBaseEntity@@UAEHXZ
	DD	FLAT:?TeamID@CBaseEntity@@UAEPBDXZ
	DD	FLAT:?AddSpawnFlags@CBaseEntity@@UAEXH@Z
	DD	FLAT:?HasSpawnFlags@CBaseEntity@@UBE_NH@Z
	DD	FLAT:?SetFadeDistance@CBaseEntity@@UAEXH@Z
	DD	FLAT:?SetFlag@CBaseEntity@@UAEXH@Z
	DD	FLAT:?HasFlag@CBaseEntity@@UBE_NH@Z
	DD	FLAT:?RemoveFlag@CBaseEntity@@UAEXH@Z
	DD	FLAT:?SetNullModel@CBaseEntity@@UAEXXZ
	DD	FLAT:?OnPickupObject@CBaseEntity@@UAEXXZ
	DD	FLAT:?OnDropObject@CBaseEntity@@UAEXXZ
	DD	FLAT:?GetNextTarget@CBaseEntity@@UAEPAV1@XZ
	DD	FLAT:?Think@CBaseEntity@@UAEXXZ
	DD	FLAT:?Use@CBaseEntity@@UAEXPAV1@0W4USE_TYPE@@M@Z
	DD	FLAT:?Touch@CBaseEntity@@UAEXPAV1@@Z
	DD	FLAT:?Blocked@CBaseEntity@@UAEXPAV1@@Z
	DD	FLAT:?MoveDone@CBaseToggle@@UAEXXZ
	DD	FLAT:?Respawn@CBaseEntity@@UAEPAV1@XZ
	DD	FLAT:?UpdateOwner@CBaseEntity@@UAEXXZ
	DD	FLAT:?FBecomeProne@CBaseMonster@@UAEHXZ
	DD	FLAT:?Center@CBaseEntity@@UAE?AVVector@@XZ
	DD	FLAT:?EyePosition@CBaseEntity@@UAE?AVVector@@XZ
	DD	FLAT:?EarPosition@CBaseEntity@@UAE?AVVector@@XZ
	DD	FLAT:?BodyTarget@CBaseMonster@@UAE?AVVector@@ABV2@@Z
	DD	FLAT:?IsPointSized@CBaseEntity@@UBEHXZ
	DD	FLAT:?Illumination@CBaseEntity@@UAEHXZ
	DD	FLAT:?FVisible@CBaseEntity@@UAEHABVVector@@@Z
	DD	FLAT:?FVisible@CBaseEntity@@UAEHPAV1@@Z
	DD	FLAT:?ShouldCollide@CBaseEntity@@UAEHPAV1@@Z
	DD	FLAT:?ClearEffects@CBaseMonster@@UAEXXZ
	DD	FLAT:?HandleAnimEvent@CBaseMonster@@UAEXPAUMonsterEvent_t@@@Z
	DD	FLAT:?Look@CBaseMonster@@UAEXH@Z
	DD	FLAT:?RunAI@CBaseMonster@@UAEXXZ
	DD	FLAT:?ShouldFadeOnDeath@CBaseMonster@@UAEHXZ
	DD	FLAT:?ChangeYaw@CBaseMonster@@UAEMH@Z
	DD	FLAT:?MonsterThink@CBaseMonster@@UAEXXZ
	DD	FLAT:?IRelationship@CBaseMonster@@UAEHPAVCBaseEntity@@@Z
	DD	FLAT:?MonsterInit@CBaseMonster@@UAEXXZ
	DD	FLAT:?MonsterInitDead@CBaseMonster@@UAEXXZ
	DD	FLAT:?BecomeDead@CBaseMonster@@UAEXXZ
	DD	FLAT:?StartMonster@CBaseMonster@@UAEXXZ
	DD	FLAT:?BestVisibleEnemy@CBaseMonster@@UAEPAVCBaseEntity@@XZ
	DD	FLAT:?FInViewCone@CBaseMonster@@UAEHPAVVector@@@Z
	DD	FLAT:?FInViewCone@CBaseMonster@@UAEHPAVCBaseEntity@@M@Z
	DD	FLAT:?CheckLocalMove@CBaseMonster@@UAEHABVVector@@0PAVCBaseEntity@@PAM@Z
	DD	FLAT:?Move@CBaseMonster@@UAEXM@Z
	DD	FLAT:?MoveExecute@CBaseMonster@@UAEXPAVCBaseEntity@@ABVVector@@M@Z
	DD	FLAT:?ShouldAdvanceRoute@CBaseMonster@@UAEHM@Z
	DD	FLAT:?GetStoppedActivity@CBaseMonster@@UAE?AW4Activity@@XZ
	DD	FLAT:?Stop@CBaseMonster@@UAEXXZ
	DD	FLAT:?CheckRangeAttack1@CBaseMonster@@UAEHMM@Z
	DD	FLAT:?CheckRangeAttack2@CBaseMonster@@UAEHMM@Z
	DD	FLAT:?CheckMeleeAttack1@CBaseMonster@@UAEHMM@Z
	DD	FLAT:?CheckMeleeAttack2@CBaseMonster@@UAEHMM@Z
	DD	FLAT:?ScheduleFromName@CBaseMonster@@UAEPAUSchedule_t@@PBD@Z
	DD	FLAT:?StartTask@CBaseMonster@@UAEXPAUTask_t@@@Z
	DD	FLAT:?RunTask@CBaseMonster@@UAEXPAUTask_t@@@Z
	DD	FLAT:?GetScheduleOfType@CBaseMonster@@UAEPAUSchedule_t@@H@Z
	DD	FLAT:?GetSchedule@CBaseMonster@@UAEPAUSchedule_t@@XZ
	DD	FLAT:?ScheduleChange@CBaseMonster@@UAEXXZ
	DD	FLAT:?CanPlaySequence@CBaseMonster@@UAEHHH@Z
	DD	FLAT:?CanPlaySentence@CBaseMonster@@UAEHH@Z
	DD	FLAT:?PlaySentence@CBaseMonster@@UAEXPBDMMMH@Z
	DD	FLAT:?PlayScriptedSentence@CBaseMonster@@UAEXPBDMMMHPAVCBaseEntity@@H@Z
	DD	FLAT:?SentenceStop@CBaseMonster@@UAEXXZ
	DD	FLAT:?GetIdealState@CBaseMonster@@UAE?AW4MONSTERSTATE@@XZ
	DD	FLAT:?SetActivity@CBaseMonster@@UAEXW4Activity@@@Z
	DD	FLAT:?ReportAIState@CBaseMonster@@UAEXXZ
	DD	FLAT:?CheckEnemy@CBaseMonster@@UAEHPAVCBaseEntity@@@Z
	DD	FLAT:?FTriangulate@CBaseMonster@@UAEHABVVector@@0MPAVCBaseEntity@@PAV2@@Z
	DD	FLAT:?SetYawSpeed@CBaseMonster@@UAEXXZ
	DD	FLAT:?BuildNearestRoute@CBaseMonster@@UAEHVVector@@0MM@Z
	DD	FLAT:?FindCover@CBaseMonster@@UAEHVVector@@0MM@Z
	DD	FLAT:?FindRunAway@CBaseMonster@@UAEHVVector@@MM@Z
	DD	FLAT:?FValidateCover@CBaseMonster@@UAEHABVVector@@@Z
	DD	FLAT:?CoverRadius@CBaseMonster@@UAEMXZ
	DD	FLAT:?FCanCheckAttacks@CBaseMonster@@UAEHXZ
	DD	FLAT:?CheckAmmo@CBaseMonster@@UAEXXZ
	DD	FLAT:?IgnoreConditions@CBaseMonster@@UAEHXZ
	DD	FLAT:?FValidateHintType@CBaseMonster@@UAEHF@Z
	DD	FLAT:?FCanActiveIdle@CBaseMonster@@UAEHXZ
	DD	FLAT:?ISoundMask@CBaseMonster@@UAEHXZ
	DD	FLAT:?PBestSound@CBaseMonster@@UAEPAVCSound@@XZ
	DD	FLAT:?PBestScent@CBaseMonster@@UAEPAVCSound@@XZ
	DD	FLAT:?HearingSensitivity@CBaseMonster@@UAEMXZ
	DD	FLAT:?BarnacleVictimBitten@CBaseMonster@@UAEXPAUentvars_s@@@Z
	DD	FLAT:?BarnacleVictimReleased@CBaseMonster@@UAEXXZ
	DD	FLAT:?PrescheduleThink@CBaseMonster@@UAEXXZ
	DD	FLAT:?GetDeathActivity@CBaseMonster@@UAE?AW4Activity@@XZ
	DD	FLAT:?GibMonster@CBaseMonster@@UAEXXZ
	DD	FLAT:?HasHumanGibs@CBaseMonster@@UAEHXZ
	DD	FLAT:?HasAlienGibs@CBaseMonster@@UAEHXZ
	DD	FLAT:?FadeMonster@CBaseMonster@@UAEXXZ
	DD	FLAT:?GetGunPosition@CBaseMonster@@UAE?AVVector@@XZ
	DD	FLAT:?DeathSound@CBaseMonster@@UAEXXZ
	DD	FLAT:?AlertSound@CBaseMonster@@UAEXXZ
	DD	FLAT:?IdleSound@CBaseMonster@@UAEXXZ
	DD	FLAT:?PainSound@CBaseMonster@@UAEXXZ
	DD	FLAT:?StepSound@CBaseMonster@@UAEXXZ
	DD	FLAT:?StopFollowing@CBaseMonster@@UAEXH@Z
CONST	ENDS
;	COMDAT ??_7CBaseToggle@@6B@
CONST	SEGMENT
??_7CBaseToggle@@6B@ DD FLAT:??_R4CBaseToggle@@6B@	; CBaseToggle::`vftable'
	DD	FLAT:?GetDataDescMap@CBaseToggle@@UAEPAUdatamap_s@@XZ
	DD	FLAT:?Spawn@CBaseEntity@@UAEXXZ
	DD	FLAT:?Precache@CBaseEntity@@UAEXXZ
	DD	FLAT:?KeyValue@CBaseToggle@@UAEXPAUKeyValueData_s@@@Z
	DD	FLAT:?Save@CBaseEntity@@UAEHAAVCSave@@@Z
	DD	FLAT:?Restore@CBaseToggle@@UAEHAAVCRestore@@@Z
	DD	FLAT:?ObjectCaps@CBaseEntity@@UAEHXZ
	DD	FLAT:?Activate@CBaseEntity@@UAEXXZ
	DD	FLAT:?OnChangeLevel@CBaseEntity@@UAEXXZ
	DD	FLAT:?OnTeleport@CBaseEntity@@UAEXXZ
	DD	FLAT:?PortalSleep@CBaseEntity@@UAEXM@Z
	DD	FLAT:?StartMessage@CBaseEntity@@UAEXPAVCBasePlayer@@@Z
	DD	FLAT:?GetPosition@CBaseEntity@@UAEMXZ
	DD	FLAT:?OnChangeParent@CBaseEntity@@UAEXXZ
	DD	FLAT:?OnClearParent@CBaseEntity@@UAEXXZ
	DD	FLAT:?OnRemove@CBaseEntity@@UAEXXZ
	DD	FLAT:?SetObjectCollisionBox@CBaseEntity@@UAEXXZ
	DD	FLAT:?Classify@CBaseEntity@@UAEHXZ
	DD	FLAT:?DeathNotice@CBaseEntity@@UAEXPAUentvars_s@@@Z
	DD	FLAT:?IsRigidBody@CBaseEntity@@UAEHXZ
	DD	FLAT:?SetNextThink@CBaseEntity@@UAEXM@Z
	DD	FLAT:?GetState@CBaseEntity@@UAE?AW4STATE@@PAV1@@Z
	DD	FLAT:?GetState@CBaseToggle@@UAE?AW4STATE@@XZ
	DD	FLAT:?TraceAttack@CBaseEntity@@UAEXPAUentvars_s@@MVVector@@PAUgametrace_s@@H@Z
	DD	FLAT:?TakeDamage@CBaseEntity@@UAEHPAUentvars_s@@0MH@Z
	DD	FLAT:?TakeHealth@CBaseEntity@@UAEHMH@Z
	DD	FLAT:?TakeArmor@CBaseEntity@@UAEHMH@Z
	DD	FLAT:?Killed@CBaseEntity@@UAEXPAUentvars_s@@H@Z
	DD	FLAT:?BloodColor@CBaseEntity@@UAEHXZ
	DD	FLAT:?TraceBleed@CBaseEntity@@UAEXMVVector@@PAUgametrace_s@@H@Z
	DD	FLAT:?IsTriggered@CBaseEntity@@UAEHPAV1@@Z
	DD	FLAT:?MyMonsterPointer@CBaseEntity@@UAEPAVCBaseMonster@@XZ
	DD	FLAT:?MySquadMonsterPointer@CBaseEntity@@UAEPAVCSquadMonster@@XZ
	DD	FLAT:?GetToggleState@CBaseToggle@@UAEHXZ
	DD	FLAT:?AddPoints@CBaseEntity@@UAEXHH@Z
	DD	FLAT:?AddPointsToTeam@CBaseEntity@@UAEXHH@Z
	DD	FLAT:?AddPlayerItem@CBaseEntity@@UAEHPAVCBasePlayerItem@@@Z
	DD	FLAT:?RemovePlayerItem@CBaseEntity@@UAEHPAVCBasePlayerItem@@@Z
	DD	FLAT:?GiveAmmo@CBaseEntity@@UAEHHPADH@Z
	DD	FLAT:?GetDelay@CBaseToggle@@UAEMXZ
	DD	FLAT:?IsMoving@CBaseEntity@@UAEHXZ
	DD	FLAT:?OverrideReset@CBaseEntity@@UAEXXZ
	DD	FLAT:?TransferReset@CBaseEntity@@UAEXXZ
	DD	FLAT:?DamageDecal@CBaseEntity@@UAEHH@Z
	DD	FLAT:?SetToggleState@CBaseEntity@@UAEXH@Z
	DD	FLAT:?StartSneaking@CBaseEntity@@UAEXXZ
	DD	FLAT:?StopSneaking@CBaseEntity@@UAEXXZ
	DD	FLAT:?OnControls@CBaseEntity@@UAEHPAV1@@Z
	DD	FLAT:?IsSneaking@CBaseEntity@@UAEHXZ
	DD	FLAT:?IsAlive@CBaseEntity@@UAEHXZ
	DD	FLAT:?IsBSPModel@CBaseEntity@@UAEHXZ
	DD	FLAT:?IsCustomModel@CBaseEntity@@UAEHXZ
	DD	FLAT:?ReflectGauss@CBaseEntity@@UAEHXZ
	DD	FLAT:?HasTarget@CBaseEntity@@UAEHH@Z
	DD	FLAT:?IsInWorld@CBaseEntity@@UAEHH@Z
	DD	FLAT:?IsPlayer@CBaseEntity@@UAEHXZ
	DD	FLAT:?IsNetClient@CBaseEntity@@UAEHXZ
	DD	FLAT:?IsMonster@CBaseEntity@@UAEHXZ
	DD	FLAT:?IsPushable@CBaseEntity@@UAEHXZ
	DD	FLAT:?IsProjectile@CBaseEntity@@UAEHXZ
	DD	FLAT:?IsFuncScreen@CBaseEntity@@UAEHXZ
	DD	FLAT:?IsPortal@CBaseEntity@@UAEHXZ
	DD	FLAT:?IsTank@CBaseEntity@@UAEHXZ
	DD	FLAT:?IsMover@CBaseEntity@@UAEHXZ
	DD	FLAT:?IsBreakable@CBaseEntity@@UAEHXZ
	DD	FLAT:?TeamID@CBaseEntity@@UAEPBDXZ
	DD	FLAT:?AddSpawnFlags@CBaseEntity@@UAEXH@Z
	DD	FLAT:?HasSpawnFlags@CBaseEntity@@UBE_NH@Z
	DD	FLAT:?SetFadeDistance@CBaseEntity@@UAEXH@Z
	DD	FLAT:?SetFlag@CBaseEntity@@UAEXH@Z
	DD	FLAT:?HasFlag@CBaseEntity@@UBE_NH@Z
	DD	FLAT:?RemoveFlag@CBaseEntity@@UAEXH@Z
	DD	FLAT:?SetNullModel@CBaseEntity@@UAEXXZ
	DD	FLAT:?OnPickupObject@CBaseEntity@@UAEXXZ
	DD	FLAT:?OnDropObject@CBaseEntity@@UAEXXZ
	DD	FLAT:?GetNextTarget@CBaseEntity@@UAEPAV1@XZ
	DD	FLAT:?Think@CBaseEntity@@UAEXXZ
	DD	FLAT:?Use@CBaseEntity@@UAEXPAV1@0W4USE_TYPE@@M@Z
	DD	FLAT:?Touch@CBaseEntity@@UAEXPAV1@@Z
	DD	FLAT:?Blocked@CBaseEntity@@UAEXPAV1@@Z
	DD	FLAT:?MoveDone@CBaseToggle@@UAEXXZ
	DD	FLAT:?Respawn@CBaseEntity@@UAEPAV1@XZ
	DD	FLAT:?UpdateOwner@CBaseEntity@@UAEXXZ
	DD	FLAT:?FBecomeProne@CBaseEntity@@UAEHXZ
	DD	FLAT:?Center@CBaseEntity@@UAE?AVVector@@XZ
	DD	FLAT:?EyePosition@CBaseEntity@@UAE?AVVector@@XZ
	DD	FLAT:?EarPosition@CBaseEntity@@UAE?AVVector@@XZ
	DD	FLAT:?BodyTarget@CBaseEntity@@UAE?AVVector@@ABV2@@Z
	DD	FLAT:?IsPointSized@CBaseEntity@@UBEHXZ
	DD	FLAT:?Illumination@CBaseEntity@@UAEHXZ
	DD	FLAT:?FVisible@CBaseEntity@@UAEHABVVector@@@Z
	DD	FLAT:?FVisible@CBaseEntity@@UAEHPAV1@@Z
	DD	FLAT:?ShouldCollide@CBaseEntity@@UAEHPAV1@@Z
	DD	FLAT:?ClearEffects@CBaseEntity@@UAEXXZ
	DD	FLAT:?HandleAnimEvent@CBaseAnimating@@UAEXPAUMonsterEvent_t@@@Z
CONST	ENDS
;	COMDAT ??_7CBaseAnimating@@6B@
CONST	SEGMENT
??_7CBaseAnimating@@6B@ DD FLAT:??_R4CBaseAnimating@@6B@ ; CBaseAnimating::`vftable'
	DD	FLAT:?GetDataDescMap@CBaseAnimating@@UAEPAUdatamap_s@@XZ
	DD	FLAT:?Spawn@CBaseEntity@@UAEXXZ
	DD	FLAT:?Precache@CBaseEntity@@UAEXXZ
	DD	FLAT:?KeyValue@CBaseDelay@@UAEXPAUKeyValueData_s@@@Z
	DD	FLAT:?Save@CBaseEntity@@UAEHAAVCSave@@@Z
	DD	FLAT:?Restore@CBaseEntity@@UAEHAAVCRestore@@@Z
	DD	FLAT:?ObjectCaps@CBaseEntity@@UAEHXZ
	DD	FLAT:?Activate@CBaseEntity@@UAEXXZ
	DD	FLAT:?OnChangeLevel@CBaseEntity@@UAEXXZ
	DD	FLAT:?OnTeleport@CBaseEntity@@UAEXXZ
	DD	FLAT:?PortalSleep@CBaseEntity@@UAEXM@Z
	DD	FLAT:?StartMessage@CBaseEntity@@UAEXPAVCBasePlayer@@@Z
	DD	FLAT:?GetPosition@CBaseEntity@@UAEMXZ
	DD	FLAT:?OnChangeParent@CBaseEntity@@UAEXXZ
	DD	FLAT:?OnClearParent@CBaseEntity@@UAEXXZ
	DD	FLAT:?OnRemove@CBaseEntity@@UAEXXZ
	DD	FLAT:?SetObjectCollisionBox@CBaseEntity@@UAEXXZ
	DD	FLAT:?Classify@CBaseEntity@@UAEHXZ
	DD	FLAT:?DeathNotice@CBaseEntity@@UAEXPAUentvars_s@@@Z
	DD	FLAT:?IsRigidBody@CBaseEntity@@UAEHXZ
	DD	FLAT:?SetNextThink@CBaseEntity@@UAEXM@Z
	DD	FLAT:?GetState@CBaseEntity@@UAE?AW4STATE@@PAV1@@Z
	DD	FLAT:?GetState@CBaseDelay@@UAE?AW4STATE@@XZ
	DD	FLAT:?TraceAttack@CBaseEntity@@UAEXPAUentvars_s@@MVVector@@PAUgametrace_s@@H@Z
	DD	FLAT:?TakeDamage@CBaseEntity@@UAEHPAUentvars_s@@0MH@Z
	DD	FLAT:?TakeHealth@CBaseEntity@@UAEHMH@Z
	DD	FLAT:?TakeArmor@CBaseEntity@@UAEHMH@Z
	DD	FLAT:?Killed@CBaseEntity@@UAEXPAUentvars_s@@H@Z
	DD	FLAT:?BloodColor@CBaseEntity@@UAEHXZ
	DD	FLAT:?TraceBleed@CBaseEntity@@UAEXMVVector@@PAUgametrace_s@@H@Z
	DD	FLAT:?IsTriggered@CBaseEntity@@UAEHPAV1@@Z
	DD	FLAT:?MyMonsterPointer@CBaseEntity@@UAEPAVCBaseMonster@@XZ
	DD	FLAT:?MySquadMonsterPointer@CBaseEntity@@UAEPAVCSquadMonster@@XZ
	DD	FLAT:?GetToggleState@CBaseEntity@@UAEHXZ
	DD	FLAT:?AddPoints@CBaseEntity@@UAEXHH@Z
	DD	FLAT:?AddPointsToTeam@CBaseEntity@@UAEXHH@Z
	DD	FLAT:?AddPlayerItem@CBaseEntity@@UAEHPAVCBasePlayerItem@@@Z
	DD	FLAT:?RemovePlayerItem@CBaseEntity@@UAEHPAVCBasePlayerItem@@@Z
	DD	FLAT:?GiveAmmo@CBaseEntity@@UAEHHPADH@Z
	DD	FLAT:?GetDelay@CBaseEntity@@UAEMXZ
	DD	FLAT:?IsMoving@CBaseEntity@@UAEHXZ
	DD	FLAT:?OverrideReset@CBaseEntity@@UAEXXZ
	DD	FLAT:?TransferReset@CBaseEntity@@UAEXXZ
	DD	FLAT:?DamageDecal@CBaseEntity@@UAEHH@Z
	DD	FLAT:?SetToggleState@CBaseEntity@@UAEXH@Z
	DD	FLAT:?StartSneaking@CBaseEntity@@UAEXXZ
	DD	FLAT:?StopSneaking@CBaseEntity@@UAEXXZ
	DD	FLAT:?OnControls@CBaseEntity@@UAEHPAV1@@Z
	DD	FLAT:?IsSneaking@CBaseEntity@@UAEHXZ
	DD	FLAT:?IsAlive@CBaseEntity@@UAEHXZ
	DD	FLAT:?IsBSPModel@CBaseEntity@@UAEHXZ
	DD	FLAT:?IsCustomModel@CBaseEntity@@UAEHXZ
	DD	FLAT:?ReflectGauss@CBaseEntity@@UAEHXZ
	DD	FLAT:?HasTarget@CBaseEntity@@UAEHH@Z
	DD	FLAT:?IsInWorld@CBaseEntity@@UAEHH@Z
	DD	FLAT:?IsPlayer@CBaseEntity@@UAEHXZ
	DD	FLAT:?IsNetClient@CBaseEntity@@UAEHXZ
	DD	FLAT:?IsMonster@CBaseEntity@@UAEHXZ
	DD	FLAT:?IsPushable@CBaseEntity@@UAEHXZ
	DD	FLAT:?IsProjectile@CBaseEntity@@UAEHXZ
	DD	FLAT:?IsFuncScreen@CBaseEntity@@UAEHXZ
	DD	FLAT:?IsPortal@CBaseEntity@@UAEHXZ
	DD	FLAT:?IsTank@CBaseEntity@@UAEHXZ
	DD	FLAT:?IsMover@CBaseEntity@@UAEHXZ
	DD	FLAT:?IsBreakable@CBaseEntity@@UAEHXZ
	DD	FLAT:?TeamID@CBaseEntity@@UAEPBDXZ
	DD	FLAT:?AddSpawnFlags@CBaseEntity@@UAEXH@Z
	DD	FLAT:?HasSpawnFlags@CBaseEntity@@UBE_NH@Z
	DD	FLAT:?SetFadeDistance@CBaseEntity@@UAEXH@Z
	DD	FLAT:?SetFlag@CBaseEntity@@UAEXH@Z
	DD	FLAT:?HasFlag@CBaseEntity@@UBE_NH@Z
	DD	FLAT:?RemoveFlag@CBaseEntity@@UAEXH@Z
	DD	FLAT:?SetNullModel@CBaseEntity@@UAEXXZ
	DD	FLAT:?OnPickupObject@CBaseEntity@@UAEXXZ
	DD	FLAT:?OnDropObject@CBaseEntity@@UAEXXZ
	DD	FLAT:?GetNextTarget@CBaseEntity@@UAEPAV1@XZ
	DD	FLAT:?Think@CBaseEntity@@UAEXXZ
	DD	FLAT:?Use@CBaseEntity@@UAEXPAV1@0W4USE_TYPE@@M@Z
	DD	FLAT:?Touch@CBaseEntity@@UAEXPAV1@@Z
	DD	FLAT:?Blocked@CBaseEntity@@UAEXPAV1@@Z
	DD	FLAT:?MoveDone@CBaseEntity@@UAEXXZ
	DD	FLAT:?Respawn@CBaseEntity@@UAEPAV1@XZ
	DD	FLAT:?UpdateOwner@CBaseEntity@@UAEXXZ
	DD	FLAT:?FBecomeProne@CBaseEntity@@UAEHXZ
	DD	FLAT:?Center@CBaseEntity@@UAE?AVVector@@XZ
	DD	FLAT:?EyePosition@CBaseEntity@@UAE?AVVector@@XZ
	DD	FLAT:?EarPosition@CBaseEntity@@UAE?AVVector@@XZ
	DD	FLAT:?BodyTarget@CBaseEntity@@UAE?AVVector@@ABV2@@Z
	DD	FLAT:?IsPointSized@CBaseEntity@@UBEHXZ
	DD	FLAT:?Illumination@CBaseEntity@@UAEHXZ
	DD	FLAT:?FVisible@CBaseEntity@@UAEHABVVector@@@Z
	DD	FLAT:?FVisible@CBaseEntity@@UAEHPAV1@@Z
	DD	FLAT:?ShouldCollide@CBaseEntity@@UAEHPAV1@@Z
	DD	FLAT:?ClearEffects@CBaseEntity@@UAEXXZ
	DD	FLAT:?HandleAnimEvent@CBaseAnimating@@UAEXPAUMonsterEvent_t@@@Z
CONST	ENDS
;	COMDAT ??_7CBaseDelay@@6B@
CONST	SEGMENT
??_7CBaseDelay@@6B@ DD FLAT:??_R4CBaseDelay@@6B@	; CBaseDelay::`vftable'
	DD	FLAT:?GetDataDescMap@CBaseDelay@@UAEPAUdatamap_s@@XZ
	DD	FLAT:?Spawn@CBaseEntity@@UAEXXZ
	DD	FLAT:?Precache@CBaseEntity@@UAEXXZ
	DD	FLAT:?KeyValue@CBaseDelay@@UAEXPAUKeyValueData_s@@@Z
	DD	FLAT:?Save@CBaseEntity@@UAEHAAVCSave@@@Z
	DD	FLAT:?Restore@CBaseEntity@@UAEHAAVCRestore@@@Z
	DD	FLAT:?ObjectCaps@CBaseEntity@@UAEHXZ
	DD	FLAT:?Activate@CBaseEntity@@UAEXXZ
	DD	FLAT:?OnChangeLevel@CBaseEntity@@UAEXXZ
	DD	FLAT:?OnTeleport@CBaseEntity@@UAEXXZ
	DD	FLAT:?PortalSleep@CBaseEntity@@UAEXM@Z
	DD	FLAT:?StartMessage@CBaseEntity@@UAEXPAVCBasePlayer@@@Z
	DD	FLAT:?GetPosition@CBaseEntity@@UAEMXZ
	DD	FLAT:?OnChangeParent@CBaseEntity@@UAEXXZ
	DD	FLAT:?OnClearParent@CBaseEntity@@UAEXXZ
	DD	FLAT:?OnRemove@CBaseEntity@@UAEXXZ
	DD	FLAT:?SetObjectCollisionBox@CBaseEntity@@UAEXXZ
	DD	FLAT:?Classify@CBaseEntity@@UAEHXZ
	DD	FLAT:?DeathNotice@CBaseEntity@@UAEXPAUentvars_s@@@Z
	DD	FLAT:?IsRigidBody@CBaseEntity@@UAEHXZ
	DD	FLAT:?SetNextThink@CBaseEntity@@UAEXM@Z
	DD	FLAT:?GetState@CBaseEntity@@UAE?AW4STATE@@PAV1@@Z
	DD	FLAT:?GetState@CBaseDelay@@UAE?AW4STATE@@XZ
	DD	FLAT:?TraceAttack@CBaseEntity@@UAEXPAUentvars_s@@MVVector@@PAUgametrace_s@@H@Z
	DD	FLAT:?TakeDamage@CBaseEntity@@UAEHPAUentvars_s@@0MH@Z
	DD	FLAT:?TakeHealth@CBaseEntity@@UAEHMH@Z
	DD	FLAT:?TakeArmor@CBaseEntity@@UAEHMH@Z
	DD	FLAT:?Killed@CBaseEntity@@UAEXPAUentvars_s@@H@Z
	DD	FLAT:?BloodColor@CBaseEntity@@UAEHXZ
	DD	FLAT:?TraceBleed@CBaseEntity@@UAEXMVVector@@PAUgametrace_s@@H@Z
	DD	FLAT:?IsTriggered@CBaseEntity@@UAEHPAV1@@Z
	DD	FLAT:?MyMonsterPointer@CBaseEntity@@UAEPAVCBaseMonster@@XZ
	DD	FLAT:?MySquadMonsterPointer@CBaseEntity@@UAEPAVCSquadMonster@@XZ
	DD	FLAT:?GetToggleState@CBaseEntity@@UAEHXZ
	DD	FLAT:?AddPoints@CBaseEntity@@UAEXHH@Z
	DD	FLAT:?AddPointsToTeam@CBaseEntity@@UAEXHH@Z
	DD	FLAT:?AddPlayerItem@CBaseEntity@@UAEHPAVCBasePlayerItem@@@Z
	DD	FLAT:?RemovePlayerItem@CBaseEntity@@UAEHPAVCBasePlayerItem@@@Z
	DD	FLAT:?GiveAmmo@CBaseEntity@@UAEHHPADH@Z
	DD	FLAT:?GetDelay@CBaseEntity@@UAEMXZ
	DD	FLAT:?IsMoving@CBaseEntity@@UAEHXZ
	DD	FLAT:?OverrideReset@CBaseEntity@@UAEXXZ
	DD	FLAT:?TransferReset@CBaseEntity@@UAEXXZ
	DD	FLAT:?DamageDecal@CBaseEntity@@UAEHH@Z
	DD	FLAT:?SetToggleState@CBaseEntity@@UAEXH@Z
	DD	FLAT:?StartSneaking@CBaseEntity@@UAEXXZ
	DD	FLAT:?StopSneaking@CBaseEntity@@UAEXXZ
	DD	FLAT:?OnControls@CBaseEntity@@UAEHPAV1@@Z
	DD	FLAT:?IsSneaking@CBaseEntity@@UAEHXZ
	DD	FLAT:?IsAlive@CBaseEntity@@UAEHXZ
	DD	FLAT:?IsBSPModel@CBaseEntity@@UAEHXZ
	DD	FLAT:?IsCustomModel@CBaseEntity@@UAEHXZ
	DD	FLAT:?ReflectGauss@CBaseEntity@@UAEHXZ
	DD	FLAT:?HasTarget@CBaseEntity@@UAEHH@Z
	DD	FLAT:?IsInWorld@CBaseEntity@@UAEHH@Z
	DD	FLAT:?IsPlayer@CBaseEntity@@UAEHXZ
	DD	FLAT:?IsNetClient@CBaseEntity@@UAEHXZ
	DD	FLAT:?IsMonster@CBaseEntity@@UAEHXZ
	DD	FLAT:?IsPushable@CBaseEntity@@UAEHXZ
	DD	FLAT:?IsProjectile@CBaseEntity@@UAEHXZ
	DD	FLAT:?IsFuncScreen@CBaseEntity@@UAEHXZ
	DD	FLAT:?IsPortal@CBaseEntity@@UAEHXZ
	DD	FLAT:?IsTank@CBaseEntity@@UAEHXZ
	DD	FLAT:?IsMover@CBaseEntity@@UAEHXZ
	DD	FLAT:?IsBreakable@CBaseEntity@@UAEHXZ
	DD	FLAT:?TeamID@CBaseEntity@@UAEPBDXZ
	DD	FLAT:?AddSpawnFlags@CBaseEntity@@UAEXH@Z
	DD	FLAT:?HasSpawnFlags@CBaseEntity@@UBE_NH@Z
	DD	FLAT:?SetFadeDistance@CBaseEntity@@UAEXH@Z
	DD	FLAT:?SetFlag@CBaseEntity@@UAEXH@Z
	DD	FLAT:?HasFlag@CBaseEntity@@UBE_NH@Z
	DD	FLAT:?RemoveFlag@CBaseEntity@@UAEXH@Z
	DD	FLAT:?SetNullModel@CBaseEntity@@UAEXXZ
	DD	FLAT:?OnPickupObject@CBaseEntity@@UAEXXZ
	DD	FLAT:?OnDropObject@CBaseEntity@@UAEXXZ
	DD	FLAT:?GetNextTarget@CBaseEntity@@UAEPAV1@XZ
	DD	FLAT:?Think@CBaseEntity@@UAEXXZ
	DD	FLAT:?Use@CBaseEntity@@UAEXPAV1@0W4USE_TYPE@@M@Z
	DD	FLAT:?Touch@CBaseEntity@@UAEXPAV1@@Z
	DD	FLAT:?Blocked@CBaseEntity@@UAEXPAV1@@Z
	DD	FLAT:?MoveDone@CBaseEntity@@UAEXXZ
	DD	FLAT:?Respawn@CBaseEntity@@UAEPAV1@XZ
	DD	FLAT:?UpdateOwner@CBaseEntity@@UAEXXZ
	DD	FLAT:?FBecomeProne@CBaseEntity@@UAEHXZ
	DD	FLAT:?Center@CBaseEntity@@UAE?AVVector@@XZ
	DD	FLAT:?EyePosition@CBaseEntity@@UAE?AVVector@@XZ
	DD	FLAT:?EarPosition@CBaseEntity@@UAE?AVVector@@XZ
	DD	FLAT:?BodyTarget@CBaseEntity@@UAE?AVVector@@ABV2@@Z
	DD	FLAT:?IsPointSized@CBaseEntity@@UBEHXZ
	DD	FLAT:?Illumination@CBaseEntity@@UAEHXZ
	DD	FLAT:?FVisible@CBaseEntity@@UAEHABVVector@@@Z
	DD	FLAT:?FVisible@CBaseEntity@@UAEHPAV1@@Z
	DD	FLAT:?ShouldCollide@CBaseEntity@@UAEHPAV1@@Z
	DD	FLAT:?ClearEffects@CBaseEntity@@UAEXXZ
CONST	ENDS
;	COMDAT ??_7CPointEntity@@6B@
CONST	SEGMENT
??_7CPointEntity@@6B@ DD FLAT:??_R4CPointEntity@@6B@	; CPointEntity::`vftable'
	DD	FLAT:?GetDataDescMap@CBaseEntity@@UAEPAUdatamap_s@@XZ
	DD	FLAT:?Spawn@CPointEntity@@UAEXXZ
	DD	FLAT:?Precache@CBaseEntity@@UAEXXZ
	DD	FLAT:?KeyValue@CBaseEntity@@UAEXPAUKeyValueData_s@@@Z
	DD	FLAT:?Save@CBaseEntity@@UAEHAAVCSave@@@Z
	DD	FLAT:?Restore@CBaseEntity@@UAEHAAVCRestore@@@Z
	DD	FLAT:?ObjectCaps@CPointEntity@@UAEHXZ
	DD	FLAT:?Activate@CBaseEntity@@UAEXXZ
	DD	FLAT:?OnChangeLevel@CBaseEntity@@UAEXXZ
	DD	FLAT:?OnTeleport@CBaseEntity@@UAEXXZ
	DD	FLAT:?PortalSleep@CBaseEntity@@UAEXM@Z
	DD	FLAT:?StartMessage@CBaseEntity@@UAEXPAVCBasePlayer@@@Z
	DD	FLAT:?GetPosition@CBaseEntity@@UAEMXZ
	DD	FLAT:?OnChangeParent@CBaseEntity@@UAEXXZ
	DD	FLAT:?OnClearParent@CBaseEntity@@UAEXXZ
	DD	FLAT:?OnRemove@CBaseEntity@@UAEXXZ
	DD	FLAT:?SetObjectCollisionBox@CBaseEntity@@UAEXXZ
	DD	FLAT:?Classify@CBaseEntity@@UAEHXZ
	DD	FLAT:?DeathNotice@CBaseEntity@@UAEXPAUentvars_s@@@Z
	DD	FLAT:?IsRigidBody@CBaseEntity@@UAEHXZ
	DD	FLAT:?SetNextThink@CBaseEntity@@UAEXM@Z
	DD	FLAT:?GetState@CBaseEntity@@UAE?AW4STATE@@PAV1@@Z
	DD	FLAT:?GetState@CBaseEntity@@UAE?AW4STATE@@XZ
	DD	FLAT:?TraceAttack@CBaseEntity@@UAEXPAUentvars_s@@MVVector@@PAUgametrace_s@@H@Z
	DD	FLAT:?TakeDamage@CBaseEntity@@UAEHPAUentvars_s@@0MH@Z
	DD	FLAT:?TakeHealth@CBaseEntity@@UAEHMH@Z
	DD	FLAT:?TakeArmor@CBaseEntity@@UAEHMH@Z
	DD	FLAT:?Killed@CBaseEntity@@UAEXPAUentvars_s@@H@Z
	DD	FLAT:?BloodColor@CBaseEntity@@UAEHXZ
	DD	FLAT:?TraceBleed@CBaseEntity@@UAEXMVVector@@PAUgametrace_s@@H@Z
	DD	FLAT:?IsTriggered@CBaseEntity@@UAEHPAV1@@Z
	DD	FLAT:?MyMonsterPointer@CBaseEntity@@UAEPAVCBaseMonster@@XZ
	DD	FLAT:?MySquadMonsterPointer@CBaseEntity@@UAEPAVCSquadMonster@@XZ
	DD	FLAT:?GetToggleState@CBaseEntity@@UAEHXZ
	DD	FLAT:?AddPoints@CBaseEntity@@UAEXHH@Z
	DD	FLAT:?AddPointsToTeam@CBaseEntity@@UAEXHH@Z
	DD	FLAT:?AddPlayerItem@CBaseEntity@@UAEHPAVCBasePlayerItem@@@Z
	DD	FLAT:?RemovePlayerItem@CBaseEntity@@UAEHPAVCBasePlayerItem@@@Z
	DD	FLAT:?GiveAmmo@CBaseEntity@@UAEHHPADH@Z
	DD	FLAT:?GetDelay@CBaseEntity@@UAEMXZ
	DD	FLAT:?IsMoving@CBaseEntity@@UAEHXZ
	DD	FLAT:?OverrideReset@CBaseEntity@@UAEXXZ
	DD	FLAT:?TransferReset@CBaseEntity@@UAEXXZ
	DD	FLAT:?DamageDecal@CBaseEntity@@UAEHH@Z
	DD	FLAT:?SetToggleState@CBaseEntity@@UAEXH@Z
	DD	FLAT:?StartSneaking@CBaseEntity@@UAEXXZ
	DD	FLAT:?StopSneaking@CBaseEntity@@UAEXXZ
	DD	FLAT:?OnControls@CBaseEntity@@UAEHPAV1@@Z
	DD	FLAT:?IsSneaking@CBaseEntity@@UAEHXZ
	DD	FLAT:?IsAlive@CBaseEntity@@UAEHXZ
	DD	FLAT:?IsBSPModel@CBaseEntity@@UAEHXZ
	DD	FLAT:?IsCustomModel@CBaseEntity@@UAEHXZ
	DD	FLAT:?ReflectGauss@CBaseEntity@@UAEHXZ
	DD	FLAT:?HasTarget@CBaseEntity@@UAEHH@Z
	DD	FLAT:?IsInWorld@CBaseEntity@@UAEHH@Z
	DD	FLAT:?IsPlayer@CBaseEntity@@UAEHXZ
	DD	FLAT:?IsNetClient@CBaseEntity@@UAEHXZ
	DD	FLAT:?IsMonster@CBaseEntity@@UAEHXZ
	DD	FLAT:?IsPushable@CBaseEntity@@UAEHXZ
	DD	FLAT:?IsProjectile@CBaseEntity@@UAEHXZ
	DD	FLAT:?IsFuncScreen@CBaseEntity@@UAEHXZ
	DD	FLAT:?IsPortal@CBaseEntity@@UAEHXZ
	DD	FLAT:?IsTank@CBaseEntity@@UAEHXZ
	DD	FLAT:?IsMover@CBaseEntity@@UAEHXZ
	DD	FLAT:?IsBreakable@CBaseEntity@@UAEHXZ
	DD	FLAT:?TeamID@CBaseEntity@@UAEPBDXZ
	DD	FLAT:?AddSpawnFlags@CBaseEntity@@UAEXH@Z
	DD	FLAT:?HasSpawnFlags@CBaseEntity@@UBE_NH@Z
	DD	FLAT:?SetFadeDistance@CBaseEntity@@UAEXH@Z
	DD	FLAT:?SetFlag@CBaseEntity@@UAEXH@Z
	DD	FLAT:?HasFlag@CBaseEntity@@UBE_NH@Z
	DD	FLAT:?RemoveFlag@CBaseEntity@@UAEXH@Z
	DD	FLAT:?SetNullModel@CBaseEntity@@UAEXXZ
	DD	FLAT:?OnPickupObject@CBaseEntity@@UAEXXZ
	DD	FLAT:?OnDropObject@CBaseEntity@@UAEXXZ
	DD	FLAT:?GetNextTarget@CBaseEntity@@UAEPAV1@XZ
	DD	FLAT:?Think@CBaseEntity@@UAEXXZ
	DD	FLAT:?Use@CBaseEntity@@UAEXPAV1@0W4USE_TYPE@@M@Z
	DD	FLAT:?Touch@CBaseEntity@@UAEXPAV1@@Z
	DD	FLAT:?Blocked@CBaseEntity@@UAEXPAV1@@Z
	DD	FLAT:?MoveDone@CBaseEntity@@UAEXXZ
	DD	FLAT:?Respawn@CBaseEntity@@UAEPAV1@XZ
	DD	FLAT:?UpdateOwner@CBaseEntity@@UAEXXZ
	DD	FLAT:?FBecomeProne@CBaseEntity@@UAEHXZ
	DD	FLAT:?Center@CBaseEntity@@UAE?AVVector@@XZ
	DD	FLAT:?EyePosition@CBaseEntity@@UAE?AVVector@@XZ
	DD	FLAT:?EarPosition@CBaseEntity@@UAE?AVVector@@XZ
	DD	FLAT:?BodyTarget@CBaseEntity@@UAE?AVVector@@ABV2@@Z
	DD	FLAT:?IsPointSized@CBaseEntity@@UBEHXZ
	DD	FLAT:?Illumination@CBaseEntity@@UAEHXZ
	DD	FLAT:?FVisible@CBaseEntity@@UAEHABVVector@@@Z
	DD	FLAT:?FVisible@CBaseEntity@@UAEHPAV1@@Z
	DD	FLAT:?ShouldCollide@CBaseEntity@@UAEHPAV1@@Z
	DD	FLAT:?ClearEffects@CBaseEntity@@UAEXXZ
CONST	ENDS
;	COMDAT ??_C@_0CH@HELFJPDL@FUNCTION?5NOT?5IN?5TABLE?$CB?3?5?$CFs?3?$CFs?5?$CI?$CF@
CONST	SEGMENT
??_C@_0CH@HELFJPDL@FUNCTION?5NOT?5IN?5TABLE?$CB?3?5?$CFs?3?$CFs?5?$CI?$CF@ DB 'F'
	DB	'UNCTION NOT IN TABLE!: %s:%s (%08lx)', 0aH, 00H ; `string'
CONST	ENDS
;	COMDAT ??_C@_0L@JIJDCONP@customname?$AA@
CONST	SEGMENT
??_C@_0L@JIJDCONP@customname?$AA@ DB 'customname', 00H	; `string'
CONST	ENDS
;	COMDAT ??_C@_0N@JILDNHAP@vlight_cache?$AA@
CONST	SEGMENT
??_C@_0N@JILDNHAP@vlight_cache?$AA@ DB 'vlight_cache', 00H ; `string'
CONST	ENDS
;	COMDAT ??_C@_0L@IKCANML@reflection?$AA@
CONST	SEGMENT
??_C@_0L@IKCANML@reflection?$AA@ DB 'reflection', 00H	; `string'
CONST	ENDS
;	COMDAT ??_C@_05IAKJCFIM@style?$AA@
CONST	SEGMENT
??_C@_05IAKJCFIM@style?$AA@ DB 'style', 00H		; `string'
CONST	ENDS
;	COMDAT ??_C@_0M@EAELDHJO@parentflags?$AA@
CONST	SEGMENT
??_C@_0M@EAELDHJO@parentflags?$AA@ DB 'parentflags', 00H ; `string'
CONST	ENDS
;	COMDAT ??_C@_08JJJAOBDI@movewith?$AA@
CONST	SEGMENT
??_C@_08JJJAOBDI@movewith?$AA@ DB 'movewith', 00H	; `string'
CONST	ENDS
;	COMDAT ??_C@_06MLKDMCBD@parent?$AA@
CONST	SEGMENT
??_C@_06MLKDMCBD@parent?$AA@ DB 'parent', 00H		; `string'
CONST	ENDS
;	COMDAT ??_7CBaseEntity@@6B@
CONST	SEGMENT
??_7CBaseEntity@@6B@ DD FLAT:??_R4CBaseEntity@@6B@	; CBaseEntity::`vftable'
	DD	FLAT:?GetDataDescMap@CBaseEntity@@UAEPAUdatamap_s@@XZ
	DD	FLAT:?Spawn@CBaseEntity@@UAEXXZ
	DD	FLAT:?Precache@CBaseEntity@@UAEXXZ
	DD	FLAT:?KeyValue@CBaseEntity@@UAEXPAUKeyValueData_s@@@Z
	DD	FLAT:?Save@CBaseEntity@@UAEHAAVCSave@@@Z
	DD	FLAT:?Restore@CBaseEntity@@UAEHAAVCRestore@@@Z
	DD	FLAT:?ObjectCaps@CBaseEntity@@UAEHXZ
	DD	FLAT:?Activate@CBaseEntity@@UAEXXZ
	DD	FLAT:?OnChangeLevel@CBaseEntity@@UAEXXZ
	DD	FLAT:?OnTeleport@CBaseEntity@@UAEXXZ
	DD	FLAT:?PortalSleep@CBaseEntity@@UAEXM@Z
	DD	FLAT:?StartMessage@CBaseEntity@@UAEXPAVCBasePlayer@@@Z
	DD	FLAT:?GetPosition@CBaseEntity@@UAEMXZ
	DD	FLAT:?OnChangeParent@CBaseEntity@@UAEXXZ
	DD	FLAT:?OnClearParent@CBaseEntity@@UAEXXZ
	DD	FLAT:?OnRemove@CBaseEntity@@UAEXXZ
	DD	FLAT:?SetObjectCollisionBox@CBaseEntity@@UAEXXZ
	DD	FLAT:?Classify@CBaseEntity@@UAEHXZ
	DD	FLAT:?DeathNotice@CBaseEntity@@UAEXPAUentvars_s@@@Z
	DD	FLAT:?IsRigidBody@CBaseEntity@@UAEHXZ
	DD	FLAT:?SetNextThink@CBaseEntity@@UAEXM@Z
	DD	FLAT:?GetState@CBaseEntity@@UAE?AW4STATE@@PAV1@@Z
	DD	FLAT:?GetState@CBaseEntity@@UAE?AW4STATE@@XZ
	DD	FLAT:?TraceAttack@CBaseEntity@@UAEXPAUentvars_s@@MVVector@@PAUgametrace_s@@H@Z
	DD	FLAT:?TakeDamage@CBaseEntity@@UAEHPAUentvars_s@@0MH@Z
	DD	FLAT:?TakeHealth@CBaseEntity@@UAEHMH@Z
	DD	FLAT:?TakeArmor@CBaseEntity@@UAEHMH@Z
	DD	FLAT:?Killed@CBaseEntity@@UAEXPAUentvars_s@@H@Z
	DD	FLAT:?BloodColor@CBaseEntity@@UAEHXZ
	DD	FLAT:?TraceBleed@CBaseEntity@@UAEXMVVector@@PAUgametrace_s@@H@Z
	DD	FLAT:?IsTriggered@CBaseEntity@@UAEHPAV1@@Z
	DD	FLAT:?MyMonsterPointer@CBaseEntity@@UAEPAVCBaseMonster@@XZ
	DD	FLAT:?MySquadMonsterPointer@CBaseEntity@@UAEPAVCSquadMonster@@XZ
	DD	FLAT:?GetToggleState@CBaseEntity@@UAEHXZ
	DD	FLAT:?AddPoints@CBaseEntity@@UAEXHH@Z
	DD	FLAT:?AddPointsToTeam@CBaseEntity@@UAEXHH@Z
	DD	FLAT:?AddPlayerItem@CBaseEntity@@UAEHPAVCBasePlayerItem@@@Z
	DD	FLAT:?RemovePlayerItem@CBaseEntity@@UAEHPAVCBasePlayerItem@@@Z
	DD	FLAT:?GiveAmmo@CBaseEntity@@UAEHHPADH@Z
	DD	FLAT:?GetDelay@CBaseEntity@@UAEMXZ
	DD	FLAT:?IsMoving@CBaseEntity@@UAEHXZ
	DD	FLAT:?OverrideReset@CBaseEntity@@UAEXXZ
	DD	FLAT:?TransferReset@CBaseEntity@@UAEXXZ
	DD	FLAT:?DamageDecal@CBaseEntity@@UAEHH@Z
	DD	FLAT:?SetToggleState@CBaseEntity@@UAEXH@Z
	DD	FLAT:?StartSneaking@CBaseEntity@@UAEXXZ
	DD	FLAT:?StopSneaking@CBaseEntity@@UAEXXZ
	DD	FLAT:?OnControls@CBaseEntity@@UAEHPAV1@@Z
	DD	FLAT:?IsSneaking@CBaseEntity@@UAEHXZ
	DD	FLAT:?IsAlive@CBaseEntity@@UAEHXZ
	DD	FLAT:?IsBSPModel@CBaseEntity@@UAEHXZ
	DD	FLAT:?IsCustomModel@CBaseEntity@@UAEHXZ
	DD	FLAT:?ReflectGauss@CBaseEntity@@UAEHXZ
	DD	FLAT:?HasTarget@CBaseEntity@@UAEHH@Z
	DD	FLAT:?IsInWorld@CBaseEntity@@UAEHH@Z
	DD	FLAT:?IsPlayer@CBaseEntity@@UAEHXZ
	DD	FLAT:?IsNetClient@CBaseEntity@@UAEHXZ
	DD	FLAT:?IsMonster@CBaseEntity@@UAEHXZ
	DD	FLAT:?IsPushable@CBaseEntity@@UAEHXZ
	DD	FLAT:?IsProjectile@CBaseEntity@@UAEHXZ
	DD	FLAT:?IsFuncScreen@CBaseEntity@@UAEHXZ
	DD	FLAT:?IsPortal@CBaseEntity@@UAEHXZ
	DD	FLAT:?IsTank@CBaseEntity@@UAEHXZ
	DD	FLAT:?IsMover@CBaseEntity@@UAEHXZ
	DD	FLAT:?IsBreakable@CBaseEntity@@UAEHXZ
	DD	FLAT:?TeamID@CBaseEntity@@UAEPBDXZ
	DD	FLAT:?AddSpawnFlags@CBaseEntity@@UAEXH@Z
	DD	FLAT:?HasSpawnFlags@CBaseEntity@@UBE_NH@Z
	DD	FLAT:?SetFadeDistance@CBaseEntity@@UAEXH@Z
	DD	FLAT:?SetFlag@CBaseEntity@@UAEXH@Z
	DD	FLAT:?HasFlag@CBaseEntity@@UBE_NH@Z
	DD	FLAT:?RemoveFlag@CBaseEntity@@UAEXH@Z
	DD	FLAT:?SetNullModel@CBaseEntity@@UAEXXZ
	DD	FLAT:?OnPickupObject@CBaseEntity@@UAEXXZ
	DD	FLAT:?OnDropObject@CBaseEntity@@UAEXXZ
	DD	FLAT:?GetNextTarget@CBaseEntity@@UAEPAV1@XZ
	DD	FLAT:?Think@CBaseEntity@@UAEXXZ
	DD	FLAT:?Use@CBaseEntity@@UAEXPAV1@0W4USE_TYPE@@M@Z
	DD	FLAT:?Touch@CBaseEntity@@UAEXPAV1@@Z
	DD	FLAT:?Blocked@CBaseEntity@@UAEXPAV1@@Z
	DD	FLAT:?MoveDone@CBaseEntity@@UAEXXZ
	DD	FLAT:?Respawn@CBaseEntity@@UAEPAV1@XZ
	DD	FLAT:?UpdateOwner@CBaseEntity@@UAEXXZ
	DD	FLAT:?FBecomeProne@CBaseEntity@@UAEHXZ
	DD	FLAT:?Center@CBaseEntity@@UAE?AVVector@@XZ
	DD	FLAT:?EyePosition@CBaseEntity@@UAE?AVVector@@XZ
	DD	FLAT:?EarPosition@CBaseEntity@@UAE?AVVector@@XZ
	DD	FLAT:?BodyTarget@CBaseEntity@@UAE?AVVector@@ABV2@@Z
	DD	FLAT:?IsPointSized@CBaseEntity@@UBEHXZ
	DD	FLAT:?Illumination@CBaseEntity@@UAEHXZ
	DD	FLAT:?FVisible@CBaseEntity@@UAEHABVVector@@@Z
	DD	FLAT:?FVisible@CBaseEntity@@UAEHPAV1@@Z
	DD	FLAT:?ShouldCollide@CBaseEntity@@UAEHPAV1@@Z
	DD	FLAT:?ClearEffects@CBaseEntity@@UAEXXZ
CONST	ENDS
;	COMDAT ??_C@_0BF@DOONGEFO@Bad?5pev?5in?5OFFSET?$CI?$CJ?6?$AA@
CONST	SEGMENT
??_C@_0BF@DOONGEFO@Bad?5pev?5in?5OFFSET?$CI?$CJ?6?$AA@ DB 'Bad pev in OFF'
	DB	'SET()', 0aH, 00H				; `string'
CONST	ENDS
;	COMDAT ??_C@_0BF@CPEPILID@Bad?5ent?5in?5OFFSET?$CI?$CJ?6?$AA@
CONST	SEGMENT
??_C@_0BF@CPEPILID@Bad?5ent?5in?5OFFSET?$CI?$CJ?6?$AA@ DB 'Bad ent in OFF'
	DB	'SET()', 0aH, 00H				; `string'
CONST	ENDS
;	COMDAT ??_7IEntityFactory@@6B@
CONST	SEGMENT
??_7IEntityFactory@@6B@ DD FLAT:??_R4IEntityFactory@@6B@ ; IEntityFactory::`vftable'
	DD	FLAT:__purecall
	DD	FLAT:__purecall
	DD	FLAT:__purecall
CONST	ENDS
;	COMDAT ??_C@_04EFCDBJNL@?$CFs?3?3?$AA@
CONST	SEGMENT
??_C@_04EFCDBJNL@?$CFs?3?3?$AA@ DB '%s::', 00H		; `string'
CONST	ENDS
;	COMDAT ??_C@_00CNPNBAHC@?$AA@
CONST	SEGMENT
??_C@_00CNPNBAHC@?$AA@ DB 00H				; `string'
CONST	ENDS
;	COMDAT xdata$x
xdata$x	SEGMENT
__unwindtable$??$GetClassPtr@VCAmbientGeneric@@@@YAPAVCAmbientGeneric@@PAV0@PBD@Z DD 0ffffffffH
	DD	FLAT:__unwindfunclet$??$GetClassPtr@VCAmbientGeneric@@@@YAPAVCAmbientGeneric@@PAV0@PBD@Z$0
__ehfuncinfo$??$GetClassPtr@VCAmbientGeneric@@@@YAPAVCAmbientGeneric@@PAV0@PBD@Z DD 019930522H
	DD	01H
	DD	FLAT:__unwindtable$??$GetClassPtr@VCAmbientGeneric@@@@YAPAVCAmbientGeneric@@PAV0@PBD@Z
	DD	2 DUP(00H)
	DD	2 DUP(00H)
	DD	00H
	DD	01H
xdata$x	ENDS
;	COMDAT xdata$x
xdata$x	SEGMENT
__unwindtable$??$GetClassPtr@VCEnvSound@@@@YAPAVCEnvSound@@PAV0@PBD@Z DD 0ffffffffH
	DD	FLAT:__unwindfunclet$??$GetClassPtr@VCEnvSound@@@@YAPAVCEnvSound@@PAV0@PBD@Z$0
__ehfuncinfo$??$GetClassPtr@VCEnvSound@@@@YAPAVCEnvSound@@PAV0@PBD@Z DD 019930522H
	DD	01H
	DD	FLAT:__unwindtable$??$GetClassPtr@VCEnvSound@@@@YAPAVCEnvSound@@PAV0@PBD@Z
	DD	2 DUP(00H)
	DD	2 DUP(00H)
	DD	00H
	DD	01H
xdata$x	ENDS
;	COMDAT xdata$x
xdata$x	SEGMENT
__unwindtable$??$GetClassPtr@VCTriggerSound@@@@YAPAVCTriggerSound@@PAV0@PBD@Z DD 0ffffffffH
	DD	FLAT:__unwindfunclet$??$GetClassPtr@VCTriggerSound@@@@YAPAVCTriggerSound@@PAV0@PBD@Z$0
__ehfuncinfo$??$GetClassPtr@VCTriggerSound@@@@YAPAVCTriggerSound@@PAV0@PBD@Z DD 019930522H
	DD	01H
	DD	FLAT:__unwindtable$??$GetClassPtr@VCTriggerSound@@@@YAPAVCTriggerSound@@PAV0@PBD@Z
	DD	2 DUP(00H)
	DD	2 DUP(00H)
	DD	00H
	DD	01H
xdata$x	ENDS
;	COMDAT xdata$x
xdata$x	SEGMENT
__unwindtable$??$GetClassPtr@VCSpeaker@@@@YAPAVCSpeaker@@PAV0@PBD@Z DD 0ffffffffH
	DD	FLAT:__unwindfunclet$??$GetClassPtr@VCSpeaker@@@@YAPAVCSpeaker@@PAV0@PBD@Z$0
__ehfuncinfo$??$GetClassPtr@VCSpeaker@@@@YAPAVCSpeaker@@PAV0@PBD@Z DD 019930522H
	DD	01H
	DD	FLAT:__unwindtable$??$GetClassPtr@VCSpeaker@@@@YAPAVCSpeaker@@PAV0@PBD@Z
	DD	2 DUP(00H)
	DD	2 DUP(00H)
	DD	00H
	DD	01H
xdata$x	ENDS
;	COMDAT xdata$x
xdata$x	SEGMENT
__unwindtable$??$GetClassPtr@VCAmbientMusic@@@@YAPAVCAmbientMusic@@PAV0@PBD@Z DD 0ffffffffH
	DD	FLAT:__unwindfunclet$??$GetClassPtr@VCAmbientMusic@@@@YAPAVCAmbientMusic@@PAV0@PBD@Z$0
__ehfuncinfo$??$GetClassPtr@VCAmbientMusic@@@@YAPAVCAmbientMusic@@PAV0@PBD@Z DD 019930522H
	DD	01H
	DD	FLAT:__unwindtable$??$GetClassPtr@VCAmbientMusic@@@@YAPAVCAmbientMusic@@PAV0@PBD@Z
	DD	2 DUP(00H)
	DD	2 DUP(00H)
	DD	00H
	DD	01H
xdata$x	ENDS
;	COMDAT xdata$x
xdata$x	SEGMENT
__unwindtable$??$DataMapInit@VCSpeaker@@@@YAPAUdatamap_s@@PAVCSpeaker@@@Z DD 0ffffffffH
	DD	FLAT:__unwindfunclet$??$DataMapInit@VCSpeaker@@@@YAPAUdatamap_s@@PAVCSpeaker@@@Z$0
	DD	0ffffffffH
	DD	FLAT:__unwindfunclet$??$DataMapInit@VCSpeaker@@@@YAPAUdatamap_s@@PAVCSpeaker@@@Z$1
__ehfuncinfo$??$DataMapInit@VCSpeaker@@@@YAPAUdatamap_s@@PAVCSpeaker@@@Z DD 019930522H
	DD	02H
	DD	FLAT:__unwindtable$??$DataMapInit@VCSpeaker@@@@YAPAUdatamap_s@@PAVCSpeaker@@@Z
	DD	2 DUP(00H)
	DD	2 DUP(00H)
	DD	00H
	DD	01H
xdata$x	ENDS
;	COMDAT xdata$x
xdata$x	SEGMENT
__unwindtable$??$GetClassPtr@VCBasePlayer@@@@YAPAVCBasePlayer@@PAV0@@Z DD 0ffffffffH
	DD	FLAT:__unwindfunclet$??$GetClassPtr@VCBasePlayer@@@@YAPAVCBasePlayer@@PAV0@@Z$0
__ehfuncinfo$??$GetClassPtr@VCBasePlayer@@@@YAPAVCBasePlayer@@PAV0@@Z DD 019930522H
	DD	01H
	DD	FLAT:__unwindtable$??$GetClassPtr@VCBasePlayer@@@@YAPAVCBasePlayer@@PAV0@@Z
	DD	2 DUP(00H)
	DD	2 DUP(00H)
	DD	00H
	DD	01H
xdata$x	ENDS
;	COMDAT xdata$x
xdata$x	SEGMENT
__unwindtable$??$GetClassPtr@VCEnvSound@@@@YAPAVCEnvSound@@PAV0@@Z DD 0ffffffffH
	DD	FLAT:__unwindfunclet$??$GetClassPtr@VCEnvSound@@@@YAPAVCEnvSound@@PAV0@@Z$0
__ehfuncinfo$??$GetClassPtr@VCEnvSound@@@@YAPAVCEnvSound@@PAV0@@Z DD 019930522H
	DD	01H
	DD	FLAT:__unwindtable$??$GetClassPtr@VCEnvSound@@@@YAPAVCEnvSound@@PAV0@@Z
	DD	2 DUP(00H)
	DD	2 DUP(00H)
	DD	00H
	DD	01H
xdata$x	ENDS
;	COMDAT xdata$x
xdata$x	SEGMENT
__unwindtable$??$DataMapInit@VCEnvSound@@@@YAPAUdatamap_s@@PAVCEnvSound@@@Z DD 0ffffffffH
	DD	FLAT:__unwindfunclet$??$DataMapInit@VCEnvSound@@@@YAPAUdatamap_s@@PAVCEnvSound@@@Z$0
__ehfuncinfo$??$DataMapInit@VCEnvSound@@@@YAPAUdatamap_s@@PAVCEnvSound@@@Z DD 019930522H
	DD	01H
	DD	FLAT:__unwindtable$??$DataMapInit@VCEnvSound@@@@YAPAUdatamap_s@@PAVCEnvSound@@@Z
	DD	2 DUP(00H)
	DD	2 DUP(00H)
	DD	00H
	DD	01H
xdata$x	ENDS
;	COMDAT xdata$x
xdata$x	SEGMENT
__unwindtable$??$DataMapInit@VCAmbientGeneric@@@@YAPAUdatamap_s@@PAVCAmbientGeneric@@@Z DD 0ffffffffH
	DD	FLAT:__unwindfunclet$??$DataMapInit@VCAmbientGeneric@@@@YAPAUdatamap_s@@PAVCAmbientGeneric@@@Z$0
	DD	0ffffffffH
	DD	FLAT:__unwindfunclet$??$DataMapInit@VCAmbientGeneric@@@@YAPAUdatamap_s@@PAVCAmbientGeneric@@@Z$1
__ehfuncinfo$??$DataMapInit@VCAmbientGeneric@@@@YAPAUdatamap_s@@PAVCAmbientGeneric@@@Z DD 019930522H
	DD	02H
	DD	FLAT:__unwindtable$??$DataMapInit@VCAmbientGeneric@@@@YAPAUdatamap_s@@PAVCAmbientGeneric@@@Z
	DD	2 DUP(00H)
	DD	2 DUP(00H)
	DD	00H
	DD	01H
xdata$x	ENDS
;	COMDAT xdata$x
xdata$x	SEGMENT
__unwindtable$??0CBasePlayer@@QAE@XZ DD 0ffffffffH
	DD	FLAT:__unwindfunclet$??0CBasePlayer@@QAE@XZ$0
__ehfuncinfo$??0CBasePlayer@@QAE@XZ DD 019930522H
	DD	01H
	DD	FLAT:__unwindtable$??0CBasePlayer@@QAE@XZ
	DD	2 DUP(00H)
	DD	2 DUP(00H)
	DD	00H
	DD	01H
xdata$x	ENDS
;	COMDAT xdata$x
xdata$x	SEGMENT
__unwindtable$??0CBaseMonster@@QAE@XZ DD 0ffffffffH
	DD	FLAT:__unwindfunclet$??0CBaseMonster@@QAE@XZ$0
__ehfuncinfo$??0CBaseMonster@@QAE@XZ DD 019930522H
	DD	01H
	DD	FLAT:__unwindtable$??0CBaseMonster@@QAE@XZ
	DD	2 DUP(00H)
	DD	2 DUP(00H)
	DD	00H
	DD	01H
xdata$x	ENDS
;	COMDAT xdata$x
xdata$x	SEGMENT
__unwindtable$??0CBaseToggle@@QAE@XZ DD 0ffffffffH
	DD	FLAT:__unwindfunclet$??0CBaseToggle@@QAE@XZ$0
__ehfuncinfo$??0CBaseToggle@@QAE@XZ DD 019930522H
	DD	01H
	DD	FLAT:__unwindtable$??0CBaseToggle@@QAE@XZ
	DD	2 DUP(00H)
	DD	2 DUP(00H)
	DD	00H
	DD	01H
xdata$x	ENDS
;	COMDAT xdata$x
xdata$x	SEGMENT
__unwindtable$??0CBaseEntity@@QAE@XZ DD 0ffffffffH
	DD	FLAT:__unwindfunclet$??0CBaseEntity@@QAE@XZ$0
__ehfuncinfo$??0CBaseEntity@@QAE@XZ DD 019930522H
	DD	01H
	DD	FLAT:__unwindtable$??0CBaseEntity@@QAE@XZ
	DD	2 DUP(00H)
	DD	2 DUP(00H)
	DD	00H
	DD	01H
xdata$x	ENDS
;	COMDAT xdata$x
xdata$x	SEGMENT
__ehfuncinfo$??1?$CUtlMemory@PADH@@QAE@XZ DD 019930522H
	DD	00H
	DD	00H
	DD	2 DUP(00H)
	DD	2 DUP(00H)
	DD	00H
	DD	05H
xdata$x	ENDS
;	COMDAT xdata$x
xdata$x	SEGMENT
__ehfuncinfo$??1?$CUtlArray@PADV?$CUtlMemory@PADH@@@@QAE@XZ DD 019930522H
	DD	00H
	DD	00H
	DD	2 DUP(00H)
	DD	2 DUP(00H)
	DD	00H
	DD	05H
xdata$x	ENDS
;	COMDAT xdata$x
xdata$x	SEGMENT
__unwindtable$??0?$CUtlArray@PADV?$CUtlMemory@PADH@@@@QAE@HH@Z DD 0ffffffffH
	DD	FLAT:__unwindfunclet$??0?$CUtlArray@PADV?$CUtlMemory@PADH@@@@QAE@HH@Z$0
__ehfuncinfo$??0?$CUtlArray@PADV?$CUtlMemory@PADH@@@@QAE@HH@Z DD 019930522H
	DD	01H
	DD	FLAT:__unwindtable$??0?$CUtlArray@PADV?$CUtlMemory@PADH@@@@QAE@HH@Z
	DD	2 DUP(00H)
	DD	2 DUP(00H)
	DD	00H
	DD	01H
xdata$x	ENDS
;	COMDAT xdata$x
xdata$x	SEGMENT
__ehfuncinfo$??1CDatadescGeneratedNameHolder@@QAE@XZ DD 019930522H
	DD	00H
	DD	00H
	DD	2 DUP(00H)
	DD	2 DUP(00H)
	DD	00H
	DD	05H
xdata$x	ENDS
CRT$XCU	SEGMENT
?g_DataMapHolder$initializer$@CAmbientGeneric_DataDescInit@@3P6AXXZA DD FLAT:??__Eg_DataMapHolder@CAmbientGeneric_DataDescInit@@YAXXZ ; CAmbientGeneric_DataDescInit::g_DataMapHolder$initializer$
CRT$XCU	ENDS
CRT$XCU	SEGMENT
?env_sound$initializer$@@3P6AXXZA DD FLAT:??__Eenv_sound@@YAXXZ ; env_sound$initializer$
CRT$XCU	ENDS
CRT$XCU	SEGMENT
?g_DataMapHolder$initializer$@CEnvSound_DataDescInit@@3P6AXXZA DD FLAT:??__Eg_DataMapHolder@CEnvSound_DataDescInit@@YAXXZ ; CEnvSound_DataDescInit::g_DataMapHolder$initializer$
CRT$XCU	ENDS
CRT$XCU	SEGMENT
?trigger_sound$initializer$@@3P6AXXZA DD FLAT:??__Etrigger_sound@@YAXXZ ; trigger_sound$initializer$
CRT$XCU	ENDS
CRT$XCU	SEGMENT
?speaker$initializer$@@3P6AXXZA DD FLAT:??__Espeaker@@YAXXZ ; speaker$initializer$
CRT$XCU	ENDS
CRT$XCU	SEGMENT
?g_DataMapHolder$initializer$@CSpeaker_DataDescInit@@3P6AXXZA DD FLAT:??__Eg_DataMapHolder@CSpeaker_DataDescInit@@YAXXZ ; CSpeaker_DataDescInit::g_DataMapHolder$initializer$
CRT$XCU	ENDS
CRT$XCU	SEGMENT
?ambient_music$initializer$@@3P6AXXZA DD FLAT:??__Eambient_music@@YAXXZ ; ambient_music$initializer$
CRT$XCU	ENDS
; Function compile flags: /Odtp /ZI
; File d:\!diffusion 2020\source code 2022\client-server\game_shared\utlmemory.h
;	COMDAT ??$Destruct@PAD@@YAXPAPAD@Z
_TEXT	SEGMENT
_pMemory$ = 8						; size = 4
??$Destruct@PAD@@YAXPAPAD@Z PROC			; Destruct<char *>, COMDAT

; 49   : {

	push	ebp
	mov	ebp, esp
	sub	esp, 64					; 00000040H
	push	ebx
	push	esi
	push	edi

; 50   : 	pMemory->~T();
; 51   : 
; 52   : #ifdef _DEBUG
; 53   : 	memset( pMemory, 0xDD, sizeof(T) );

	push	4
	push	221					; 000000ddH
	mov	eax, DWORD PTR _pMemory$[ebp]
	push	eax
	call	_memset
	add	esp, 12					; 0000000cH

; 54   : #endif
; 55   : }

	pop	edi
	pop	esi
	pop	ebx
	mov	esp, ebp
	pop	ebp
	ret	0
??$Destruct@PAD@@YAXPAPAD@Z ENDP			; Destruct<char *>
_TEXT	ENDS
; Function compile flags: /Odtp /ZI
; File d:\!diffusion 2020\source code 2022\client-server\game_shared\utlmemory.h
;	COMDAT ??$CopyConstruct@PAD@@YAXPAPADABQAD@Z
_TEXT	SEGMENT
tv71 = -72						; size = 4
$T1 = -68						; size = 4
_pMemory$ = 8						; size = 4
_src$ = 12						; size = 4
??$CopyConstruct@PAD@@YAXPAPADABQAD@Z PROC		; CopyConstruct<char *>, COMDAT

; 43   : {

	push	ebp
	mov	ebp, esp
	sub	esp, 72					; 00000048H
	push	ebx
	push	esi
	push	edi

; 44   : 	new( pMemory ) T(src);

	mov	eax, DWORD PTR _pMemory$[ebp]
	push	eax
	push	4
	call	??2@YAPAXIPAX@Z				; operator new
	add	esp, 8
	mov	DWORD PTR $T1[ebp], eax
	cmp	DWORD PTR $T1[ebp], 0
	je	SHORT $LN3@CopyConstr
	mov	ecx, DWORD PTR $T1[ebp]
	mov	edx, DWORD PTR _src$[ebp]
	mov	eax, DWORD PTR [edx]
	mov	DWORD PTR [ecx], eax
	mov	ecx, DWORD PTR $T1[ebp]
	mov	DWORD PTR tv71[ebp], ecx
	jmp	SHORT $LN1@CopyConstr
$LN3@CopyConstr:
	mov	DWORD PTR tv71[ebp], 0
$LN1@CopyConstr:

; 45   : }

	pop	edi
	pop	esi
	pop	ebx
	mov	esp, ebp
	pop	ebp
	ret	0
??$CopyConstruct@PAD@@YAXPAPADABQAD@Z ENDP		; CopyConstruct<char *>
_TEXT	ENDS
; Function compile flags: /Odtp /ZI
; File d:\!diffusion 2020\source code 2022\client-server\server\cbase.h
;	COMDAT ??$GetClassPtr@VCAmbientGeneric@@@@YAPAVCAmbientGeneric@@PAV0@PBD@Z
_TEXT	SEGMENT
tv85 = -92						; size = 4
$T2 = -88						; size = 4
$T3 = -84						; size = 4
_pev$ = -16						; size = 4
__$EHRec$ = -12						; size = 12
_newEnt$ = 8						; size = 4
_className$ = 12					; size = 4
??$GetClassPtr@VCAmbientGeneric@@@@YAPAVCAmbientGeneric@@PAV0@PBD@Z PROC ; GetClassPtr<CAmbientGeneric>, COMDAT

; 1146 : {

	push	ebp
	mov	ebp, esp
	push	-1
	push	__ehhandler$??$GetClassPtr@VCAmbientGeneric@@@@YAPAVCAmbientGeneric@@PAV0@PBD@Z
	mov	eax, DWORD PTR fs:0
	push	eax
	sub	esp, 80					; 00000050H
	push	ebx
	push	esi
	push	edi
	mov	eax, DWORD PTR ___security_cookie
	xor	eax, ebp
	push	eax
	lea	eax, DWORD PTR __$EHRec$[ebp]
	mov	DWORD PTR fs:0, eax

; 1147 : 	entvars_t *pev = (entvars_t *)newEnt;

	mov	eax, DWORD PTR _newEnt$[ebp]
	mov	DWORD PTR _pev$[ebp], eax

; 1148 : 
; 1149 : 	// allocate entity if necessary
; 1150 : 	if (pev == NULL)

	cmp	DWORD PTR _pev$[ebp], 0
	jne	SHORT $LN2@GetClassPt

; 1151 : 		pev = VARS(CREATE_ENTITY());

	call	DWORD PTR ?g_engfuncs@@3Uenginefuncs_s@@A+84
	push	eax
	call	?VARS@@YAPAUentvars_s@@PAUedict_s@@@Z	; VARS
	add	esp, 4
	mov	DWORD PTR _pev$[ebp], eax
$LN2@GetClassPt:

; 1152 : 
; 1153 : 	// get the private data
; 1154 : 	newEnt = (T *)GET_PRIVATE(ENT(pev));

	mov	eax, DWORD PTR _pev$[ebp]
	push	eax
	call	?ENT@@YAPAUedict_s@@PBUentvars_s@@@Z	; ENT
	add	esp, 4
	push	eax
	call	?GET_PRIVATE@@YAPAXPAUedict_s@@@Z	; GET_PRIVATE
	add	esp, 4
	mov	DWORD PTR _newEnt$[ebp], eax

; 1155 : 
; 1156 : 	if (newEnt == NULL) 

	cmp	DWORD PTR _newEnt$[ebp], 0
	jne	SHORT $LN3@GetClassPt

; 1157 : 	{
; 1158 : 		// allocate private data 
; 1159 : 		newEnt = new(pev) T;

	mov	eax, DWORD PTR _pev$[ebp]
	push	eax
	push	1924					; 00000784H
	call	??2CBaseEntity@@SAPAXIPAUentvars_s@@@Z	; CBaseEntity::operator new
	add	esp, 8
	mov	DWORD PTR $T2[ebp], eax
	mov	DWORD PTR __$EHRec$[ebp+8], 0
	cmp	DWORD PTR $T2[ebp], 0
	je	SHORT $LN5@GetClassPt
	mov	ecx, DWORD PTR $T2[ebp]
	call	??0CAmbientGeneric@@QAE@XZ
	mov	DWORD PTR tv85[ebp], eax
	jmp	SHORT $LN6@GetClassPt
$LN5@GetClassPt:
	mov	DWORD PTR tv85[ebp], 0
$LN6@GetClassPt:
	mov	ecx, DWORD PTR tv85[ebp]
	mov	DWORD PTR $T3[ebp], ecx
	mov	DWORD PTR __$EHRec$[ebp+8], -1
	mov	edx, DWORD PTR $T3[ebp]
	mov	DWORD PTR _newEnt$[ebp], edx

; 1160 : 		newEnt->pev = pev;

	mov	eax, DWORD PTR _newEnt$[ebp]
	mov	ecx, DWORD PTR _pev$[ebp]
	mov	DWORD PTR [eax+4], ecx
$LN3@GetClassPt:

; 1161 : 	}
; 1162 : 	newEnt->SetClassname( className );

	mov	eax, DWORD PTR _className$[ebp]
	push	eax
	mov	ecx, DWORD PTR _newEnt$[ebp]
	call	?SetClassname@CBaseEntity@@QAEXPBD@Z	; CBaseEntity::SetClassname

; 1163 : 
; 1164 : 	return newEnt;

	mov	eax, DWORD PTR _newEnt$[ebp]

; 1165 : }

	mov	ecx, DWORD PTR __$EHRec$[ebp]
	mov	DWORD PTR fs:0, ecx
	pop	ecx
	pop	edi
	pop	esi
	pop	ebx
	mov	esp, ebp
	pop	ebp
	ret	0
_TEXT	ENDS
;	COMDAT text$x
text$x	SEGMENT
__unwindfunclet$??$GetClassPtr@VCAmbientGeneric@@@@YAPAVCAmbientGeneric@@PAV0@PBD@Z$0:
	mov	eax, DWORD PTR _pev$[ebp]
	push	eax
	mov	eax, DWORD PTR $T2[ebp]
	push	eax
	call	??3CBaseEntity@@SAXPAXPAUentvars_s@@@Z	; CBaseEntity::operator delete
	add	esp, 8
	ret	0
__ehhandler$??$GetClassPtr@VCAmbientGeneric@@@@YAPAVCAmbientGeneric@@PAV0@PBD@Z:
	mov	edx, DWORD PTR [esp+8]
	lea	eax, DWORD PTR [edx+12]
	mov	ecx, DWORD PTR [edx-96]
	xor	ecx, eax
	call	@__security_check_cookie@4
	mov	eax, OFFSET __ehfuncinfo$??$GetClassPtr@VCAmbientGeneric@@@@YAPAVCAmbientGeneric@@PAV0@PBD@Z
	jmp	___CxxFrameHandler3
text$x	ENDS
??$GetClassPtr@VCAmbientGeneric@@@@YAPAVCAmbientGeneric@@PAV0@PBD@Z ENDP ; GetClassPtr<CAmbientGeneric>
; Function compile flags: /Odtp /ZI
; File d:\!diffusion 2020\source code 2022\client-server\server\cbase.h
;	COMDAT ??$GetClassPtr@VCEnvSound@@@@YAPAVCEnvSound@@PAV0@PBD@Z
_TEXT	SEGMENT
tv85 = -92						; size = 4
$T2 = -88						; size = 4
$T3 = -84						; size = 4
_pev$ = -16						; size = 4
__$EHRec$ = -12						; size = 12
_newEnt$ = 8						; size = 4
_className$ = 12					; size = 4
??$GetClassPtr@VCEnvSound@@@@YAPAVCEnvSound@@PAV0@PBD@Z PROC ; GetClassPtr<CEnvSound>, COMDAT

; 1146 : {

	push	ebp
	mov	ebp, esp
	push	-1
	push	__ehhandler$??$GetClassPtr@VCEnvSound@@@@YAPAVCEnvSound@@PAV0@PBD@Z
	mov	eax, DWORD PTR fs:0
	push	eax
	sub	esp, 80					; 00000050H
	push	ebx
	push	esi
	push	edi
	mov	eax, DWORD PTR ___security_cookie
	xor	eax, ebp
	push	eax
	lea	eax, DWORD PTR __$EHRec$[ebp]
	mov	DWORD PTR fs:0, eax

; 1147 : 	entvars_t *pev = (entvars_t *)newEnt;

	mov	eax, DWORD PTR _newEnt$[ebp]
	mov	DWORD PTR _pev$[ebp], eax

; 1148 : 
; 1149 : 	// allocate entity if necessary
; 1150 : 	if (pev == NULL)

	cmp	DWORD PTR _pev$[ebp], 0
	jne	SHORT $LN2@GetClassPt

; 1151 : 		pev = VARS(CREATE_ENTITY());

	call	DWORD PTR ?g_engfuncs@@3Uenginefuncs_s@@A+84
	push	eax
	call	?VARS@@YAPAUentvars_s@@PAUedict_s@@@Z	; VARS
	add	esp, 4
	mov	DWORD PTR _pev$[ebp], eax
$LN2@GetClassPt:

; 1152 : 
; 1153 : 	// get the private data
; 1154 : 	newEnt = (T *)GET_PRIVATE(ENT(pev));

	mov	eax, DWORD PTR _pev$[ebp]
	push	eax
	call	?ENT@@YAPAUedict_s@@PBUentvars_s@@@Z	; ENT
	add	esp, 4
	push	eax
	call	?GET_PRIVATE@@YAPAXPAUedict_s@@@Z	; GET_PRIVATE
	add	esp, 4
	mov	DWORD PTR _newEnt$[ebp], eax

; 1155 : 
; 1156 : 	if (newEnt == NULL) 

	cmp	DWORD PTR _newEnt$[ebp], 0
	jne	SHORT $LN3@GetClassPt

; 1157 : 	{
; 1158 : 		// allocate private data 
; 1159 : 		newEnt = new(pev) T;

	mov	eax, DWORD PTR _pev$[ebp]
	push	eax
	push	1812					; 00000714H
	call	??2CBaseEntity@@SAPAXIPAUentvars_s@@@Z	; CBaseEntity::operator new
	add	esp, 8
	mov	DWORD PTR $T2[ebp], eax
	mov	DWORD PTR __$EHRec$[ebp+8], 0
	cmp	DWORD PTR $T2[ebp], 0
	je	SHORT $LN5@GetClassPt
	mov	ecx, DWORD PTR $T2[ebp]
	call	??0CEnvSound@@QAE@XZ
	mov	DWORD PTR tv85[ebp], eax
	jmp	SHORT $LN6@GetClassPt
$LN5@GetClassPt:
	mov	DWORD PTR tv85[ebp], 0
$LN6@GetClassPt:
	mov	ecx, DWORD PTR tv85[ebp]
	mov	DWORD PTR $T3[ebp], ecx
	mov	DWORD PTR __$EHRec$[ebp+8], -1
	mov	edx, DWORD PTR $T3[ebp]
	mov	DWORD PTR _newEnt$[ebp], edx

; 1160 : 		newEnt->pev = pev;

	mov	eax, DWORD PTR _newEnt$[ebp]
	mov	ecx, DWORD PTR _pev$[ebp]
	mov	DWORD PTR [eax+4], ecx
$LN3@GetClassPt:

; 1161 : 	}
; 1162 : 	newEnt->SetClassname( className );

	mov	eax, DWORD PTR _className$[ebp]
	push	eax
	mov	ecx, DWORD PTR _newEnt$[ebp]
	call	?SetClassname@CBaseEntity@@QAEXPBD@Z	; CBaseEntity::SetClassname

; 1163 : 
; 1164 : 	return newEnt;

	mov	eax, DWORD PTR _newEnt$[ebp]

; 1165 : }

	mov	ecx, DWORD PTR __$EHRec$[ebp]
	mov	DWORD PTR fs:0, ecx
	pop	ecx
	pop	edi
	pop	esi
	pop	ebx
	mov	esp, ebp
	pop	ebp
	ret	0
_TEXT	ENDS
;	COMDAT text$x
text$x	SEGMENT
__unwindfunclet$??$GetClassPtr@VCEnvSound@@@@YAPAVCEnvSound@@PAV0@PBD@Z$0:
	mov	eax, DWORD PTR _pev$[ebp]
	push	eax
	mov	eax, DWORD PTR $T2[ebp]
	push	eax
	call	??3CBaseEntity@@SAXPAXPAUentvars_s@@@Z	; CBaseEntity::operator delete
	add	esp, 8
	ret	0
__ehhandler$??$GetClassPtr@VCEnvSound@@@@YAPAVCEnvSound@@PAV0@PBD@Z:
	mov	edx, DWORD PTR [esp+8]
	lea	eax, DWORD PTR [edx+12]
	mov	ecx, DWORD PTR [edx-96]
	xor	ecx, eax
	call	@__security_check_cookie@4
	mov	eax, OFFSET __ehfuncinfo$??$GetClassPtr@VCEnvSound@@@@YAPAVCEnvSound@@PAV0@PBD@Z
	jmp	___CxxFrameHandler3
text$x	ENDS
??$GetClassPtr@VCEnvSound@@@@YAPAVCEnvSound@@PAV0@PBD@Z ENDP ; GetClassPtr<CEnvSound>
; Function compile flags: /Odtp /ZI
; File d:\!diffusion 2020\source code 2022\client-server\server\cbase.h
;	COMDAT ??$GetClassPtr@VCTriggerSound@@@@YAPAVCTriggerSound@@PAV0@PBD@Z
_TEXT	SEGMENT
tv85 = -92						; size = 4
$T2 = -88						; size = 4
$T3 = -84						; size = 4
_pev$ = -16						; size = 4
__$EHRec$ = -12						; size = 12
_newEnt$ = 8						; size = 4
_className$ = 12					; size = 4
??$GetClassPtr@VCTriggerSound@@@@YAPAVCTriggerSound@@PAV0@PBD@Z PROC ; GetClassPtr<CTriggerSound>, COMDAT

; 1146 : {

	push	ebp
	mov	ebp, esp
	push	-1
	push	__ehhandler$??$GetClassPtr@VCTriggerSound@@@@YAPAVCTriggerSound@@PAV0@PBD@Z
	mov	eax, DWORD PTR fs:0
	push	eax
	sub	esp, 80					; 00000050H
	push	ebx
	push	esi
	push	edi
	mov	eax, DWORD PTR ___security_cookie
	xor	eax, ebp
	push	eax
	lea	eax, DWORD PTR __$EHRec$[ebp]
	mov	DWORD PTR fs:0, eax

; 1147 : 	entvars_t *pev = (entvars_t *)newEnt;

	mov	eax, DWORD PTR _newEnt$[ebp]
	mov	DWORD PTR _pev$[ebp], eax

; 1148 : 
; 1149 : 	// allocate entity if necessary
; 1150 : 	if (pev == NULL)

	cmp	DWORD PTR _pev$[ebp], 0
	jne	SHORT $LN2@GetClassPt

; 1151 : 		pev = VARS(CREATE_ENTITY());

	call	DWORD PTR ?g_engfuncs@@3Uenginefuncs_s@@A+84
	push	eax
	call	?VARS@@YAPAUentvars_s@@PAUedict_s@@@Z	; VARS
	add	esp, 4
	mov	DWORD PTR _pev$[ebp], eax
$LN2@GetClassPt:

; 1152 : 
; 1153 : 	// get the private data
; 1154 : 	newEnt = (T *)GET_PRIVATE(ENT(pev));

	mov	eax, DWORD PTR _pev$[ebp]
	push	eax
	call	?ENT@@YAPAUedict_s@@PBUentvars_s@@@Z	; ENT
	add	esp, 4
	push	eax
	call	?GET_PRIVATE@@YAPAXPAUedict_s@@@Z	; GET_PRIVATE
	add	esp, 4
	mov	DWORD PTR _newEnt$[ebp], eax

; 1155 : 
; 1156 : 	if (newEnt == NULL) 

	cmp	DWORD PTR _newEnt$[ebp], 0
	jne	SHORT $LN3@GetClassPt

; 1157 : 	{
; 1158 : 		// allocate private data 
; 1159 : 		newEnt = new(pev) T;

	mov	eax, DWORD PTR _pev$[ebp]
	push	eax
	push	1832					; 00000728H
	call	??2CBaseEntity@@SAPAXIPAUentvars_s@@@Z	; CBaseEntity::operator new
	add	esp, 8
	mov	DWORD PTR $T2[ebp], eax
	mov	DWORD PTR __$EHRec$[ebp+8], 0
	cmp	DWORD PTR $T2[ebp], 0
	je	SHORT $LN5@GetClassPt
	mov	ecx, DWORD PTR $T2[ebp]
	call	??0CTriggerSound@@QAE@XZ
	mov	DWORD PTR tv85[ebp], eax
	jmp	SHORT $LN6@GetClassPt
$LN5@GetClassPt:
	mov	DWORD PTR tv85[ebp], 0
$LN6@GetClassPt:
	mov	ecx, DWORD PTR tv85[ebp]
	mov	DWORD PTR $T3[ebp], ecx
	mov	DWORD PTR __$EHRec$[ebp+8], -1
	mov	edx, DWORD PTR $T3[ebp]
	mov	DWORD PTR _newEnt$[ebp], edx

; 1160 : 		newEnt->pev = pev;

	mov	eax, DWORD PTR _newEnt$[ebp]
	mov	ecx, DWORD PTR _pev$[ebp]
	mov	DWORD PTR [eax+4], ecx
$LN3@GetClassPt:

; 1161 : 	}
; 1162 : 	newEnt->SetClassname( className );

	mov	eax, DWORD PTR _className$[ebp]
	push	eax
	mov	ecx, DWORD PTR _newEnt$[ebp]
	call	?SetClassname@CBaseEntity@@QAEXPBD@Z	; CBaseEntity::SetClassname

; 1163 : 
; 1164 : 	return newEnt;

	mov	eax, DWORD PTR _newEnt$[ebp]

; 1165 : }

	mov	ecx, DWORD PTR __$EHRec$[ebp]
	mov	DWORD PTR fs:0, ecx
	pop	ecx
	pop	edi
	pop	esi
	pop	ebx
	mov	esp, ebp
	pop	ebp
	ret	0
_TEXT	ENDS
;	COMDAT text$x
text$x	SEGMENT
__unwindfunclet$??$GetClassPtr@VCTriggerSound@@@@YAPAVCTriggerSound@@PAV0@PBD@Z$0:
	mov	eax, DWORD PTR _pev$[ebp]
	push	eax
	mov	eax, DWORD PTR $T2[ebp]
	push	eax
	call	??3CBaseEntity@@SAXPAXPAUentvars_s@@@Z	; CBaseEntity::operator delete
	add	esp, 8
	ret	0
__ehhandler$??$GetClassPtr@VCTriggerSound@@@@YAPAVCTriggerSound@@PAV0@PBD@Z:
	mov	edx, DWORD PTR [esp+8]
	lea	eax, DWORD PTR [edx+12]
	mov	ecx, DWORD PTR [edx-96]
	xor	ecx, eax
	call	@__security_check_cookie@4
	mov	eax, OFFSET __ehfuncinfo$??$GetClassPtr@VCTriggerSound@@@@YAPAVCTriggerSound@@PAV0@PBD@Z
	jmp	___CxxFrameHandler3
text$x	ENDS
??$GetClassPtr@VCTriggerSound@@@@YAPAVCTriggerSound@@PAV0@PBD@Z ENDP ; GetClassPtr<CTriggerSound>
; Function compile flags: /Odtp /ZI
; File d:\!diffusion 2020\source code 2022\client-server\server\cbase.h
;	COMDAT ??$GetClassPtr@VCSpeaker@@@@YAPAVCSpeaker@@PAV0@PBD@Z
_TEXT	SEGMENT
tv85 = -92						; size = 4
$T2 = -88						; size = 4
$T3 = -84						; size = 4
_pev$ = -16						; size = 4
__$EHRec$ = -12						; size = 12
_newEnt$ = 8						; size = 4
_className$ = 12					; size = 4
??$GetClassPtr@VCSpeaker@@@@YAPAVCSpeaker@@PAV0@PBD@Z PROC ; GetClassPtr<CSpeaker>, COMDAT

; 1146 : {

	push	ebp
	mov	ebp, esp
	push	-1
	push	__ehhandler$??$GetClassPtr@VCSpeaker@@@@YAPAVCSpeaker@@PAV0@PBD@Z
	mov	eax, DWORD PTR fs:0
	push	eax
	sub	esp, 80					; 00000050H
	push	ebx
	push	esi
	push	edi
	mov	eax, DWORD PTR ___security_cookie
	xor	eax, ebp
	push	eax
	lea	eax, DWORD PTR __$EHRec$[ebp]
	mov	DWORD PTR fs:0, eax

; 1147 : 	entvars_t *pev = (entvars_t *)newEnt;

	mov	eax, DWORD PTR _newEnt$[ebp]
	mov	DWORD PTR _pev$[ebp], eax

; 1148 : 
; 1149 : 	// allocate entity if necessary
; 1150 : 	if (pev == NULL)

	cmp	DWORD PTR _pev$[ebp], 0
	jne	SHORT $LN2@GetClassPt

; 1151 : 		pev = VARS(CREATE_ENTITY());

	call	DWORD PTR ?g_engfuncs@@3Uenginefuncs_s@@A+84
	push	eax
	call	?VARS@@YAPAUentvars_s@@PAUedict_s@@@Z	; VARS
	add	esp, 4
	mov	DWORD PTR _pev$[ebp], eax
$LN2@GetClassPt:

; 1152 : 
; 1153 : 	// get the private data
; 1154 : 	newEnt = (T *)GET_PRIVATE(ENT(pev));

	mov	eax, DWORD PTR _pev$[ebp]
	push	eax
	call	?ENT@@YAPAUedict_s@@PBUentvars_s@@@Z	; ENT
	add	esp, 4
	push	eax
	call	?GET_PRIVATE@@YAPAXPAUedict_s@@@Z	; GET_PRIVATE
	add	esp, 4
	mov	DWORD PTR _newEnt$[ebp], eax

; 1155 : 
; 1156 : 	if (newEnt == NULL) 

	cmp	DWORD PTR _newEnt$[ebp], 0
	jne	SHORT $LN3@GetClassPt

; 1157 : 	{
; 1158 : 		// allocate private data 
; 1159 : 		newEnt = new(pev) T;

	mov	eax, DWORD PTR _pev$[ebp]
	push	eax
	push	1808					; 00000710H
	call	??2CBaseEntity@@SAPAXIPAUentvars_s@@@Z	; CBaseEntity::operator new
	add	esp, 8
	mov	DWORD PTR $T2[ebp], eax
	mov	DWORD PTR __$EHRec$[ebp+8], 0
	cmp	DWORD PTR $T2[ebp], 0
	je	SHORT $LN5@GetClassPt
	mov	ecx, DWORD PTR $T2[ebp]
	call	??0CSpeaker@@QAE@XZ
	mov	DWORD PTR tv85[ebp], eax
	jmp	SHORT $LN6@GetClassPt
$LN5@GetClassPt:
	mov	DWORD PTR tv85[ebp], 0
$LN6@GetClassPt:
	mov	ecx, DWORD PTR tv85[ebp]
	mov	DWORD PTR $T3[ebp], ecx
	mov	DWORD PTR __$EHRec$[ebp+8], -1
	mov	edx, DWORD PTR $T3[ebp]
	mov	DWORD PTR _newEnt$[ebp], edx

; 1160 : 		newEnt->pev = pev;

	mov	eax, DWORD PTR _newEnt$[ebp]
	mov	ecx, DWORD PTR _pev$[ebp]
	mov	DWORD PTR [eax+4], ecx
$LN3@GetClassPt:

; 1161 : 	}
; 1162 : 	newEnt->SetClassname( className );

	mov	eax, DWORD PTR _className$[ebp]
	push	eax
	mov	ecx, DWORD PTR _newEnt$[ebp]
	call	?SetClassname@CBaseEntity@@QAEXPBD@Z	; CBaseEntity::SetClassname

; 1163 : 
; 1164 : 	return newEnt;

	mov	eax, DWORD PTR _newEnt$[ebp]

; 1165 : }

	mov	ecx, DWORD PTR __$EHRec$[ebp]
	mov	DWORD PTR fs:0, ecx
	pop	ecx
	pop	edi
	pop	esi
	pop	ebx
	mov	esp, ebp
	pop	ebp
	ret	0
_TEXT	ENDS
;	COMDAT text$x
text$x	SEGMENT
__unwindfunclet$??$GetClassPtr@VCSpeaker@@@@YAPAVCSpeaker@@PAV0@PBD@Z$0:
	mov	eax, DWORD PTR _pev$[ebp]
	push	eax
	mov	eax, DWORD PTR $T2[ebp]
	push	eax
	call	??3CBaseEntity@@SAXPAXPAUentvars_s@@@Z	; CBaseEntity::operator delete
	add	esp, 8
	ret	0
__ehhandler$??$GetClassPtr@VCSpeaker@@@@YAPAVCSpeaker@@PAV0@PBD@Z:
	mov	edx, DWORD PTR [esp+8]
	lea	eax, DWORD PTR [edx+12]
	mov	ecx, DWORD PTR [edx-96]
	xor	ecx, eax
	call	@__security_check_cookie@4
	mov	eax, OFFSET __ehfuncinfo$??$GetClassPtr@VCSpeaker@@@@YAPAVCSpeaker@@PAV0@PBD@Z
	jmp	___CxxFrameHandler3
text$x	ENDS
??$GetClassPtr@VCSpeaker@@@@YAPAVCSpeaker@@PAV0@PBD@Z ENDP ; GetClassPtr<CSpeaker>
; Function compile flags: /Odtp /ZI
; File d:\!diffusion 2020\source code 2022\client-server\server\cbase.h
;	COMDAT ??$GetClassPtr@VCAmbientMusic@@@@YAPAVCAmbientMusic@@PAV0@PBD@Z
_TEXT	SEGMENT
tv85 = -92						; size = 4
$T2 = -88						; size = 4
$T3 = -84						; size = 4
_pev$ = -16						; size = 4
__$EHRec$ = -12						; size = 12
_newEnt$ = 8						; size = 4
_className$ = 12					; size = 4
??$GetClassPtr@VCAmbientMusic@@@@YAPAVCAmbientMusic@@PAV0@PBD@Z PROC ; GetClassPtr<CAmbientMusic>, COMDAT

; 1146 : {

	push	ebp
	mov	ebp, esp
	push	-1
	push	__ehhandler$??$GetClassPtr@VCAmbientMusic@@@@YAPAVCAmbientMusic@@PAV0@PBD@Z
	mov	eax, DWORD PTR fs:0
	push	eax
	sub	esp, 80					; 00000050H
	push	ebx
	push	esi
	push	edi
	mov	eax, DWORD PTR ___security_cookie
	xor	eax, ebp
	push	eax
	lea	eax, DWORD PTR __$EHRec$[ebp]
	mov	DWORD PTR fs:0, eax

; 1147 : 	entvars_t *pev = (entvars_t *)newEnt;

	mov	eax, DWORD PTR _newEnt$[ebp]
	mov	DWORD PTR _pev$[ebp], eax

; 1148 : 
; 1149 : 	// allocate entity if necessary
; 1150 : 	if (pev == NULL)

	cmp	DWORD PTR _pev$[ebp], 0
	jne	SHORT $LN2@GetClassPt

; 1151 : 		pev = VARS(CREATE_ENTITY());

	call	DWORD PTR ?g_engfuncs@@3Uenginefuncs_s@@A+84
	push	eax
	call	?VARS@@YAPAUentvars_s@@PAUedict_s@@@Z	; VARS
	add	esp, 4
	mov	DWORD PTR _pev$[ebp], eax
$LN2@GetClassPt:

; 1152 : 
; 1153 : 	// get the private data
; 1154 : 	newEnt = (T *)GET_PRIVATE(ENT(pev));

	mov	eax, DWORD PTR _pev$[ebp]
	push	eax
	call	?ENT@@YAPAUedict_s@@PBUentvars_s@@@Z	; ENT
	add	esp, 4
	push	eax
	call	?GET_PRIVATE@@YAPAXPAUedict_s@@@Z	; GET_PRIVATE
	add	esp, 4
	mov	DWORD PTR _newEnt$[ebp], eax

; 1155 : 
; 1156 : 	if (newEnt == NULL) 

	cmp	DWORD PTR _newEnt$[ebp], 0
	jne	SHORT $LN3@GetClassPt

; 1157 : 	{
; 1158 : 		// allocate private data 
; 1159 : 		newEnt = new(pev) T;

	mov	eax, DWORD PTR _pev$[ebp]
	push	eax
	push	1832					; 00000728H
	call	??2CBaseEntity@@SAPAXIPAUentvars_s@@@Z	; CBaseEntity::operator new
	add	esp, 8
	mov	DWORD PTR $T2[ebp], eax
	mov	DWORD PTR __$EHRec$[ebp+8], 0
	cmp	DWORD PTR $T2[ebp], 0
	je	SHORT $LN5@GetClassPt
	mov	ecx, DWORD PTR $T2[ebp]
	call	??0CAmbientMusic@@QAE@XZ
	mov	DWORD PTR tv85[ebp], eax
	jmp	SHORT $LN6@GetClassPt
$LN5@GetClassPt:
	mov	DWORD PTR tv85[ebp], 0
$LN6@GetClassPt:
	mov	ecx, DWORD PTR tv85[ebp]
	mov	DWORD PTR $T3[ebp], ecx
	mov	DWORD PTR __$EHRec$[ebp+8], -1
	mov	edx, DWORD PTR $T3[ebp]
	mov	DWORD PTR _newEnt$[ebp], edx

; 1160 : 		newEnt->pev = pev;

	mov	eax, DWORD PTR _newEnt$[ebp]
	mov	ecx, DWORD PTR _pev$[ebp]
	mov	DWORD PTR [eax+4], ecx
$LN3@GetClassPt:

; 1161 : 	}
; 1162 : 	newEnt->SetClassname( className );

	mov	eax, DWORD PTR _className$[ebp]
	push	eax
	mov	ecx, DWORD PTR _newEnt$[ebp]
	call	?SetClassname@CBaseEntity@@QAEXPBD@Z	; CBaseEntity::SetClassname

; 1163 : 
; 1164 : 	return newEnt;

	mov	eax, DWORD PTR _newEnt$[ebp]

; 1165 : }

	mov	ecx, DWORD PTR __$EHRec$[ebp]
	mov	DWORD PTR fs:0, ecx
	pop	ecx
	pop	edi
	pop	esi
	pop	ebx
	mov	esp, ebp
	pop	ebp
	ret	0
_TEXT	ENDS
;	COMDAT text$x
text$x	SEGMENT
__unwindfunclet$??$GetClassPtr@VCAmbientMusic@@@@YAPAVCAmbientMusic@@PAV0@PBD@Z$0:
	mov	eax, DWORD PTR _pev$[ebp]
	push	eax
	mov	eax, DWORD PTR $T2[ebp]
	push	eax
	call	??3CBaseEntity@@SAXPAXPAUentvars_s@@@Z	; CBaseEntity::operator delete
	add	esp, 8
	ret	0
__ehhandler$??$GetClassPtr@VCAmbientMusic@@@@YAPAVCAmbientMusic@@PAV0@PBD@Z:
	mov	edx, DWORD PTR [esp+8]
	lea	eax, DWORD PTR [edx+12]
	mov	ecx, DWORD PTR [edx-96]
	xor	ecx, eax
	call	@__security_check_cookie@4
	mov	eax, OFFSET __ehfuncinfo$??$GetClassPtr@VCAmbientMusic@@@@YAPAVCAmbientMusic@@PAV0@PBD@Z
	jmp	___CxxFrameHandler3
text$x	ENDS
??$GetClassPtr@VCAmbientMusic@@@@YAPAVCAmbientMusic@@PAV0@PBD@Z ENDP ; GetClassPtr<CAmbientMusic>
; Function compile flags: /Odtp /ZI
; File d:\!diffusion 2020\source code 2022\client-server\server\sound.cpp
;	COMDAT ??__Eambient_music@@YAXXZ
text$di	SEGMENT
??__Eambient_music@@YAXXZ PROC				; `dynamic initializer for 'ambient_music'', COMDAT

; 2333 : LINK_ENTITY_TO_CLASS( ambient_music, CAmbientMusic );

	push	ebp
	mov	ebp, esp
	sub	esp, 64					; 00000040H
	push	ebx
	push	esi
	push	edi
	push	OFFSET ??_C@_0O@DCFFCPNJ@ambient_music?$AA@
	mov	ecx, OFFSET ?ambient_music@@3V?$CEntityFactory@VCAmbientMusic@@@@A
	call	??0?$CEntityFactory@VCAmbientMusic@@@@QAE@PBD@Z ; CEntityFactory<CAmbientMusic>::CEntityFactory<CAmbientMusic>
	pop	edi
	pop	esi
	pop	ebx
	mov	esp, ebp
	pop	ebp
	ret	0
??__Eambient_music@@YAXXZ ENDP				; `dynamic initializer for 'ambient_music''
text$di	ENDS
; Function compile flags: /Odtp /ZI
; File d:\!diffusion 2020\source code 2022\client-server\server\util.h
;	COMDAT ?GetEntitySize@?$CEntityFactory@VCAmbientMusic@@@@UAEIXZ
_TEXT	SEGMENT
_this$ = -4						; size = 4
?GetEntitySize@?$CEntityFactory@VCAmbientMusic@@@@UAEIXZ PROC ; CEntityFactory<CAmbientMusic>::GetEntitySize, COMDAT
; _this$ = ecx

; 103  : 	{

	push	ebp
	mov	ebp, esp
	sub	esp, 68					; 00000044H
	push	ebx
	push	esi
	push	edi
	mov	DWORD PTR _this$[ebp], ecx

; 104  : 		return sizeof(T);

	mov	eax, 1832				; 00000728H

; 105  : 	}

	pop	edi
	pop	esi
	pop	ebx
	mov	esp, ebp
	pop	ebp
	ret	0
?GetEntitySize@?$CEntityFactory@VCAmbientMusic@@@@UAEIXZ ENDP ; CEntityFactory<CAmbientMusic>::GetEntitySize
_TEXT	ENDS
; Function compile flags: /Odtp /ZI
; File d:\!diffusion 2020\source code 2022\client-server\server\util.h
;	COMDAT ?Destroy@?$CEntityFactory@VCAmbientMusic@@@@UAEXPAVCBaseEntity@@@Z
_TEXT	SEGMENT
_this$ = -4						; size = 4
_pEntity$ = 8						; size = 4
?Destroy@?$CEntityFactory@VCAmbientMusic@@@@UAEXPAVCBaseEntity@@@Z PROC ; CEntityFactory<CAmbientMusic>::Destroy, COMDAT
; _this$ = ecx

; 98   : 	{

	push	ebp
	mov	ebp, esp
	sub	esp, 68					; 00000044H
	push	ebx
	push	esi
	push	edi
	mov	DWORD PTR _this$[ebp], ecx

; 99   : 		UTIL_Remove( pEntity );

	mov	eax, DWORD PTR _pEntity$[ebp]
	push	eax
	call	?UTIL_Remove@@YAXPAVCBaseEntity@@@Z	; UTIL_Remove
	add	esp, 4

; 100  : 	}

	pop	edi
	pop	esi
	pop	ebx
	mov	esp, ebp
	pop	ebp
	ret	4
?Destroy@?$CEntityFactory@VCAmbientMusic@@@@UAEXPAVCBaseEntity@@@Z ENDP ; CEntityFactory<CAmbientMusic>::Destroy
_TEXT	ENDS
; Function compile flags: /Odtp /ZI
; File d:\!diffusion 2020\source code 2022\client-server\server\util.h
;	COMDAT ?Create@?$CEntityFactory@VCAmbientMusic@@@@UAEPAVCBaseEntity@@PBDPAUentvars_s@@@Z
_TEXT	SEGMENT
_pEnt$ = -8						; size = 4
_this$ = -4						; size = 4
_pClassName$ = 8					; size = 4
_pev$ = 12						; size = 4
?Create@?$CEntityFactory@VCAmbientMusic@@@@UAEPAVCBaseEntity@@PBDPAUentvars_s@@@Z PROC ; CEntityFactory<CAmbientMusic>::Create, COMDAT
; _this$ = ecx

; 92   : 	{

	push	ebp
	mov	ebp, esp
	sub	esp, 72					; 00000048H
	push	ebx
	push	esi
	push	edi
	mov	DWORD PTR _this$[ebp], ecx

; 93   : 		T* pEnt = GetClassPtr((T*)pev, pClassName);

	mov	eax, DWORD PTR _pClassName$[ebp]
	push	eax
	mov	ecx, DWORD PTR _pev$[ebp]
	push	ecx
	call	??$GetClassPtr@VCAmbientMusic@@@@YAPAVCAmbientMusic@@PAV0@PBD@Z ; GetClassPtr<CAmbientMusic>
	add	esp, 8
	mov	DWORD PTR _pEnt$[ebp], eax

; 94   : 		return pEnt;

	mov	eax, DWORD PTR _pEnt$[ebp]

; 95   : 	}

	pop	edi
	pop	esi
	pop	ebx
	mov	esp, ebp
	pop	ebp
	ret	8
?Create@?$CEntityFactory@VCAmbientMusic@@@@UAEPAVCBaseEntity@@PBDPAUentvars_s@@@Z ENDP ; CEntityFactory<CAmbientMusic>::Create
_TEXT	ENDS
; Function compile flags: /Odtp /ZI
; File d:\!diffusion 2020\source code 2022\client-server\server\util.h
;	COMDAT ??0?$CEntityFactory@VCAmbientMusic@@@@QAE@PBD@Z
_TEXT	SEGMENT
tv76 = -72						; size = 4
_this$ = -4						; size = 4
_pClassName$ = 8					; size = 4
??0?$CEntityFactory@VCAmbientMusic@@@@QAE@PBD@Z PROC	; CEntityFactory<CAmbientMusic>::CEntityFactory<CAmbientMusic>, COMDAT
; _this$ = ecx

; 86   : 	CEntityFactory( const char *pClassName )

	push	ebp
	mov	ebp, esp
	sub	esp, 72					; 00000048H
	push	ebx
	push	esi
	push	edi
	mov	DWORD PTR _this$[ebp], ecx

; 87   : 	{

	mov	ecx, DWORD PTR _this$[ebp]
	call	??0IEntityFactory@@QAE@XZ
	mov	eax, DWORD PTR _this$[ebp]
	mov	DWORD PTR [eax], OFFSET ??_7?$CEntityFactory@VCAmbientMusic@@@@6B@

; 88   : 		EntityFactoryDictionary()->InstallFactory( this, pClassName );

	call	?EntityFactoryDictionary@@YAPAVIEntityFactoryDictionary@@XZ ; EntityFactoryDictionary
	mov	DWORD PTR tv76[ebp], eax
	mov	eax, DWORD PTR _pClassName$[ebp]
	push	eax
	mov	ecx, DWORD PTR _this$[ebp]
	push	ecx
	mov	edx, DWORD PTR tv76[ebp]
	mov	eax, DWORD PTR [edx]
	mov	ecx, DWORD PTR tv76[ebp]
	mov	edx, DWORD PTR [eax]
	call	edx

; 89   : 	}

	mov	eax, DWORD PTR _this$[ebp]
	pop	edi
	pop	esi
	pop	ebx
	mov	esp, ebp
	pop	ebp
	ret	4
??0?$CEntityFactory@VCAmbientMusic@@@@QAE@PBD@Z ENDP	; CEntityFactory<CAmbientMusic>::CEntityFactory<CAmbientMusic>
_TEXT	ENDS
; Function compile flags: /Odtp /ZI
;	COMDAT ??0CAmbientMusic@@QAE@XZ
_TEXT	SEGMENT
_this$ = -4						; size = 4
??0CAmbientMusic@@QAE@XZ PROC				; CAmbientMusic::CAmbientMusic, COMDAT
; _this$ = ecx
	push	ebp
	mov	ebp, esp
	sub	esp, 68					; 00000044H
	push	ebx
	push	esi
	push	edi
	mov	DWORD PTR _this$[ebp], ecx
	mov	ecx, DWORD PTR _this$[ebp]
	call	??0CBaseDelay@@QAE@XZ
	mov	eax, DWORD PTR _this$[ebp]
	mov	DWORD PTR [eax], OFFSET ??_7CAmbientMusic@@6B@
	mov	eax, DWORD PTR _this$[ebp]
	pop	edi
	pop	esi
	pop	ebx
	mov	esp, ebp
	pop	ebp
	ret	0
??0CAmbientMusic@@QAE@XZ ENDP				; CAmbientMusic::CAmbientMusic
_TEXT	ENDS
; Function compile flags: /Odtp /ZI
; File d:\!diffusion 2020\source code 2022\client-server\server\sound.cpp
;	COMDAT ?Think@CAmbientMusic@@UAEXXZ
_TEXT	SEGMENT
tv82 = -92						; size = 4
tv81 = -88						; size = 4
_pPlayer$1 = -20					; size = 4
_i$2 = -16						; size = 4
_f$ = -12						; size = 4
_elapsed$ = -8						; size = 4
_this$ = -4						; size = 4
?Think@CAmbientMusic@@UAEXXZ PROC			; CAmbientMusic::Think, COMDAT
; _this$ = ecx

; 2420 : {

	push	ebp
	mov	ebp, esp
	sub	esp, 92					; 0000005cH
	push	ebx
	push	esi
	push	edi
	mov	DWORD PTR _this$[ebp], ecx

; 2421 : 	float elapsed = gpGlobals->time - pev->dmgtime;

	mov	eax, DWORD PTR _this$[ebp]
	mov	ecx, DWORD PTR [eax+4]
	mov	edx, DWORD PTR ?gpGlobals@@3PAUglobalvars_t@@A ; gpGlobals
	movss	xmm0, DWORD PTR [edx]
	subss	xmm0, DWORD PTR [ecx+484]
	movss	DWORD PTR _elapsed$[ebp], xmm0

; 2422 : 	float f = elapsed / pev->frags;

	mov	eax, DWORD PTR _this$[ebp]
	mov	ecx, DWORD PTR [eax+4]
	movss	xmm0, DWORD PTR _elapsed$[ebp]
	divss	xmm0, DWORD PTR [ecx+356]
	movss	DWORD PTR _f$[ebp], xmm0

; 2423 : 	f = bound( 0.0f, f, 1.0f );

	movss	xmm0, DWORD PTR _f$[ebp]
	comiss	xmm0, DWORD PTR __real@00000000
	jb	SHORT $LN10@Think
	movss	xmm0, DWORD PTR __real@3f800000
	comiss	xmm0, DWORD PTR _f$[ebp]
	jbe	SHORT $LN8@Think
	movss	xmm0, DWORD PTR _f$[ebp]
	movss	DWORD PTR tv81[ebp], xmm0
	jmp	SHORT $LN9@Think
$LN8@Think:
	movss	xmm0, DWORD PTR __real@3f800000
	movss	DWORD PTR tv81[ebp], xmm0
$LN9@Think:
	movss	xmm0, DWORD PTR tv81[ebp]
	movss	DWORD PTR tv82[ebp], xmm0
	jmp	SHORT $LN11@Think
$LN10@Think:
	xorps	xmm0, xmm0
	movss	DWORD PTR tv82[ebp], xmm0
$LN11@Think:
	movss	xmm0, DWORD PTR tv82[ebp]
	movss	DWORD PTR _f$[ebp], xmm0

; 2424 : 
; 2425 : 	MESSAGE_BEGIN( MSG_ALL, gmsgMusicFade );

	push	0
	push	0
	mov	eax, DWORD PTR ?gmsgMusicFade@@3HA	; gmsgMusicFade
	push	eax
	push	2
	call	?MESSAGE_BEGIN@@YAXHHPBMPAUedict_s@@@Z	; MESSAGE_BEGIN
	add	esp, 16					; 00000010H

; 2426 : 		WRITE_SHORT( f * 10000 );

	movss	xmm0, DWORD PTR _f$[ebp]
	mulss	xmm0, DWORD PTR __real@461c4000
	cvttss2si eax, xmm0
	push	eax
	call	DWORD PTR ?g_engfuncs@@3Uenginefuncs_s@@A+200
	add	esp, 4

; 2427 : 	MESSAGE_END();

	call	DWORD PTR ?g_engfuncs@@3Uenginefuncs_s@@A+188

; 2428 : 
; 2429 : 	if( f == 1.0f )	// hit 100% fade

	movss	xmm0, DWORD PTR _f$[ebp]
	ucomiss	xmm0, DWORD PTR __real@3f800000
	lahf
	test	ah, 68					; 00000044H
	jp	SHORT $LN5@Think

; 2430 : 	{
; 2431 : 		// send stop to all the clients
; 2432 : 		for( int i = 1; i <= gpGlobals->maxClients; i++ )

	mov	DWORD PTR _i$2[ebp], 1
	jmp	SHORT $LN4@Think
$LN2@Think:
	mov	eax, DWORD PTR _i$2[ebp]
	add	eax, 1
	mov	DWORD PTR _i$2[ebp], eax
$LN4@Think:
	mov	eax, DWORD PTR ?gpGlobals@@3PAUglobalvars_t@@A ; gpGlobals
	mov	ecx, DWORD PTR _i$2[ebp]
	cmp	ecx, DWORD PTR [eax+144]
	jg	SHORT $LN3@Think

; 2433 : 		{
; 2434 : 			CBasePlayer *pPlayer = (CBasePlayer *)UTIL_PlayerByIndex( i );

	mov	eax, DWORD PTR _i$2[ebp]
	push	eax
	call	?UTIL_PlayerByIndex@@YAPAVCBaseEntity@@H@Z ; UTIL_PlayerByIndex
	add	esp, 4
	mov	DWORD PTR _pPlayer$1[ebp], eax

; 2435 : 			if( pPlayer ) CLIENT_COMMAND( pPlayer->edict(), "music\n" );

	cmp	DWORD PTR _pPlayer$1[ebp], 0
	je	SHORT $LN6@Think
	push	OFFSET ??_C@_06JLDPCOLD@music?6?$AA@
	mov	ecx, DWORD PTR _pPlayer$1[ebp]
	call	?edict@CBaseEntity@@QAEPAUedict_s@@XZ	; CBaseEntity::edict
	push	eax
	call	DWORD PTR ?g_engfuncs@@3Uenginefuncs_s@@A+164
	add	esp, 8
$LN6@Think:

; 2436 : 		}

	jmp	SHORT $LN2@Think
$LN3@Think:

; 2437 : 
; 2438 : 		ClearBits( pev->spawnflags, SF_START_ON );

	mov	eax, DWORD PTR _this$[ebp]
	mov	ecx, DWORD PTR [eax+4]
	mov	edx, DWORD PTR [ecx+416]
	and	edx, -2					; fffffffeH
	mov	eax, DWORD PTR _this$[ebp]
	mov	ecx, DWORD PTR [eax+4]
	mov	DWORD PTR [ecx+416], edx

; 2439 : 		pev->dmgtime = 0.0f;

	mov	eax, DWORD PTR _this$[ebp]
	mov	ecx, DWORD PTR [eax+4]
	xorps	xmm0, xmm0
	movss	DWORD PTR [ecx+484], xmm0

; 2440 : 		return;

	jmp	SHORT $LN1@Think
$LN5@Think:

; 2441 : 	}
; 2442 : 
; 2443 : 	SetNextThink( 0.01 );

	push	ecx
	movss	xmm0, DWORD PTR __real@3c23d70a
	movss	DWORD PTR [esp], xmm0
	mov	eax, DWORD PTR _this$[ebp]
	mov	edx, DWORD PTR [eax]
	mov	ecx, DWORD PTR _this$[ebp]
	mov	eax, DWORD PTR [edx+80]
	call	eax
$LN1@Think:

; 2444 : }

	pop	edi
	pop	esi
	pop	ebx
	mov	esp, ebp
	pop	ebp
	ret	0
?Think@CAmbientMusic@@UAEXXZ ENDP			; CAmbientMusic::Think
_TEXT	ENDS
; Function compile flags: /Odtp /ZI
; File d:\!diffusion 2020\source code 2022\client-server\server\sound.cpp
;	COMDAT ?Spawn@CAmbientMusic@@UAEXXZ
_TEXT	SEGMENT
_this$ = -4						; size = 4
?Spawn@CAmbientMusic@@UAEXXZ PROC			; CAmbientMusic::Spawn, COMDAT
; _this$ = ecx

; 2357 : {

	push	ebp
	mov	ebp, esp
	sub	esp, 68					; 00000044H
	push	ebx
	push	esi
	push	edi
	mov	DWORD PTR _this$[ebp], ecx

; 2358 : 	// check for possible errors
; 2359 : 	if( !pev->message && pev->netname )

	mov	eax, DWORD PTR _this$[ebp]
	mov	ecx, DWORD PTR [eax+4]
	cmp	DWORD PTR [ecx+468], 0
	jne	SHORT $LN1@Spawn
	mov	eax, DWORD PTR _this$[ebp]
	mov	ecx, DWORD PTR [eax+4]
	cmp	DWORD PTR [ecx+464], 0
	je	SHORT $LN1@Spawn

; 2360 :           {
; 2361 : 		pev->message = pev->netname;

	mov	eax, DWORD PTR _this$[ebp]
	mov	ecx, DWORD PTR [eax+4]
	mov	edx, DWORD PTR _this$[ebp]
	mov	eax, DWORD PTR [edx+4]
	mov	ecx, DWORD PTR [ecx+464]
	mov	DWORD PTR [eax+468], ecx

; 2362 : 		pev->netname = 0;

	mov	eax, DWORD PTR _this$[ebp]
	mov	ecx, DWORD PTR [eax+4]
	mov	DWORD PTR [ecx+464], 0
$LN1@Spawn:

; 2363 : 	}
; 2364 : }

	pop	edi
	pop	esi
	pop	ebx
	mov	esp, ebp
	pop	ebp
	ret	0
?Spawn@CAmbientMusic@@UAEXXZ ENDP			; CAmbientMusic::Spawn
_TEXT	ENDS
; Function compile flags: /Odtp /ZI
; File d:\!diffusion 2020\source code 2022\client-server\server\sound.cpp
;	COMDAT ?KeyValue@CAmbientMusic@@UAEXPAUKeyValueData_s@@@Z
_TEXT	SEGMENT
_this$ = -4						; size = 4
_pkvd$ = 8						; size = 4
?KeyValue@CAmbientMusic@@UAEXPAUKeyValueData_s@@@Z PROC	; CAmbientMusic::KeyValue, COMDAT
; _this$ = ecx

; 2336 : {

	push	ebp
	mov	ebp, esp
	sub	esp, 68					; 00000044H
	push	ebx
	push	esi
	push	edi
	mov	DWORD PTR _this$[ebp], ecx

; 2337 : 	if (FStrEq(pkvd->szKeyName, "m_iszIntroTrack"))

	push	OFFSET ??_C@_0BA@BFHGNAMB@m_iszIntroTrack?$AA@
	mov	eax, DWORD PTR _pkvd$[ebp]
	mov	ecx, DWORD PTR [eax+4]
	push	ecx
	call	?FStrEq@@YAHPBD0@Z			; FStrEq
	add	esp, 8
	test	eax, eax
	je	SHORT $LN2@KeyValue

; 2338 : 	{
; 2339 : 		pev->netname = ALLOC_STRING(pkvd->szValue);

	mov	eax, DWORD PTR _pkvd$[ebp]
	mov	ecx, DWORD PTR [eax+8]
	push	ecx
	call	DWORD PTR ?g_engfuncs@@3Uenginefuncs_s@@A+268
	add	esp, 4
	mov	edx, DWORD PTR _this$[ebp]
	mov	ecx, DWORD PTR [edx+4]
	mov	DWORD PTR [ecx+464], eax

; 2340 : 		pkvd->fHandled = TRUE;

	mov	eax, DWORD PTR _pkvd$[ebp]
	mov	DWORD PTR [eax+12], 1
	jmp	$LN7@KeyValue
$LN2@KeyValue:

; 2341 : 	}
; 2342 : 	else if (FStrEq(pkvd->szKeyName, "m_iszMainTrack"))

	push	OFFSET ??_C@_0P@EOMCAGLL@m_iszMainTrack?$AA@
	mov	eax, DWORD PTR _pkvd$[ebp]
	mov	ecx, DWORD PTR [eax+4]
	push	ecx
	call	?FStrEq@@YAHPBD0@Z			; FStrEq
	add	esp, 8
	test	eax, eax
	je	SHORT $LN4@KeyValue

; 2343 : 	{
; 2344 : 		pev->message = ALLOC_STRING( pkvd->szValue );

	mov	eax, DWORD PTR _pkvd$[ebp]
	mov	ecx, DWORD PTR [eax+8]
	push	ecx
	call	DWORD PTR ?g_engfuncs@@3Uenginefuncs_s@@A+268
	add	esp, 4
	mov	edx, DWORD PTR _this$[ebp]
	mov	ecx, DWORD PTR [edx+4]
	mov	DWORD PTR [ecx+468], eax

; 2345 : 		pkvd->fHandled = TRUE;

	mov	eax, DWORD PTR _pkvd$[ebp]
	mov	DWORD PTR [eax+12], 1
	jmp	SHORT $LN7@KeyValue
$LN4@KeyValue:

; 2346 : 	}
; 2347 : 	else if (FStrEq(pkvd->szKeyName, "fadetime"))

	push	OFFSET ??_C@_08BPPHHMFC@fadetime?$AA@
	mov	eax, DWORD PTR _pkvd$[ebp]
	mov	ecx, DWORD PTR [eax+4]
	push	ecx
	call	?FStrEq@@YAHPBD0@Z			; FStrEq
	add	esp, 8
	test	eax, eax
	je	SHORT $LN6@KeyValue

; 2348 : 	{
; 2349 : 		pev->frags = atoi(pkvd->szValue);

	mov	eax, DWORD PTR _pkvd$[ebp]
	mov	ecx, DWORD PTR [eax+8]
	push	ecx
	call	_atoi
	add	esp, 4
	cvtsi2ss xmm0, eax
	mov	edx, DWORD PTR _this$[ebp]
	mov	eax, DWORD PTR [edx+4]
	movss	DWORD PTR [eax+356], xmm0

; 2350 : 		pkvd->fHandled = TRUE;

	mov	eax, DWORD PTR _pkvd$[ebp]
	mov	DWORD PTR [eax+12], 1

; 2351 : 	}
; 2352 : 	else

	jmp	SHORT $LN7@KeyValue
$LN6@KeyValue:

; 2353 : 		BaseClass::KeyValue( pkvd );

	mov	eax, DWORD PTR _pkvd$[ebp]
	push	eax
	mov	ecx, DWORD PTR _this$[ebp]
	call	?KeyValue@CBaseDelay@@UAEXPAUKeyValueData_s@@@Z ; CBaseDelay::KeyValue
$LN7@KeyValue:

; 2354 : }

	pop	edi
	pop	esi
	pop	ebx
	mov	esp, ebp
	pop	ebp
	ret	4
?KeyValue@CAmbientMusic@@UAEXPAUKeyValueData_s@@@Z ENDP	; CAmbientMusic::KeyValue
_TEXT	ENDS
; Function compile flags: /Odtp /ZI
; File d:\!diffusion 2020\source code 2022\client-server\server\sound.cpp
;	COMDAT ?StartMessage@CAmbientMusic@@UAEXPAVCBasePlayer@@@Z
_TEXT	SEGMENT
_this$ = -4						; size = 4
_pPlayer$ = 8						; size = 4
?StartMessage@CAmbientMusic@@UAEXPAVCBasePlayer@@@Z PROC ; CAmbientMusic::StartMessage, COMDAT
; _this$ = ecx

; 2367 : {

	push	ebp
	mov	ebp, esp
	sub	esp, 68					; 00000044H
	push	ebx
	push	esi
	push	edi
	mov	DWORD PTR _this$[ebp], ecx

; 2368 : 	if( pev->button ) return; // fire once at spawn

	mov	eax, DWORD PTR _this$[ebp]
	mov	ecx, DWORD PTR [eax+4]
	cmp	DWORD PTR [ecx+384], 0
	je	SHORT $LN2@StartMessa
	jmp	SHORT $LN1@StartMessa
$LN2@StartMessa:

; 2369 : 
; 2370 : 	if( FBitSet( pev->spawnflags, SF_START_ON ))

	mov	eax, DWORD PTR _this$[ebp]
	mov	ecx, DWORD PTR [eax+4]
	mov	edx, DWORD PTR [ecx+416]
	and	edx, 1
	je	SHORT $LN3@StartMessa

; 2371 : 		PlayStream( pPlayer, true );

	push	1
	mov	eax, DWORD PTR _pPlayer$[ebp]
	push	eax
	mov	ecx, DWORD PTR _this$[ebp]
	call	?PlayStream@CAmbientMusic@@QAEXPAVCBasePlayer@@_N@Z ; CAmbientMusic::PlayStream
$LN3@StartMessa:

; 2372 : 	pev->button = true;

	mov	eax, DWORD PTR _this$[ebp]
	mov	ecx, DWORD PTR [eax+4]
	mov	DWORD PTR [ecx+384], 1
$LN1@StartMessa:

; 2373 : }

	pop	edi
	pop	esi
	pop	ebx
	mov	esp, ebp
	pop	ebp
	ret	4
?StartMessage@CAmbientMusic@@UAEXPAVCBasePlayer@@@Z ENDP ; CAmbientMusic::StartMessage
_TEXT	ENDS
; Function compile flags: /Odtp /ZI
; File d:\!diffusion 2020\source code 2022\client-server\server\sound.cpp
;	COMDAT ?PlayStream@CAmbientMusic@@QAEXPAVCBasePlayer@@_N@Z
_TEXT	SEGMENT
_this$ = -4						; size = 4
_pPlayer$ = 8						; size = 4
_bPlay$ = 12						; size = 1
?PlayStream@CAmbientMusic@@QAEXPAVCBasePlayer@@_N@Z PROC ; CAmbientMusic::PlayStream, COMDAT
; _this$ = ecx

; 2376 : {

	push	ebp
	mov	ebp, esp
	sub	esp, 68					; 00000044H
	push	ebx
	push	esi
	push	edi
	mov	DWORD PTR _this$[ebp], ecx

; 2377 : 	if( !pPlayer ) return; // not spawned?

	cmp	DWORD PTR _pPlayer$[ebp], 0
	jne	SHORT $LN2@PlayStream
	jmp	$LN1@PlayStream
$LN2@PlayStream:

; 2378 : 
; 2379 : 	if( bPlay )

	movzx	eax, BYTE PTR _bPlay$[ebp]
	test	eax, eax
	je	$LN3@PlayStream

; 2380 : 	{
; 2381 : 		if( pev->netname && pev->message )

	mov	eax, DWORD PTR _this$[ebp]
	mov	ecx, DWORD PTR [eax+4]
	cmp	DWORD PTR [ecx+464], 0
	je	SHORT $LN5@PlayStream
	mov	eax, DWORD PTR _this$[ebp]
	mov	ecx, DWORD PTR [eax+4]
	cmp	DWORD PTR [ecx+468], 0
	je	SHORT $LN5@PlayStream

; 2382 : 			CLIENT_COMMAND( pPlayer->edict(), "music \"%s\" \"%s\"\n", GetNetname(), GetMessage());	// intro + loop

	mov	ecx, DWORD PTR _this$[ebp]
	call	?GetMessageA@CBaseEntity@@QAEPBDXZ	; CBaseEntity::GetMessageA
	push	eax
	mov	ecx, DWORD PTR _this$[ebp]
	call	?GetNetname@CBaseEntity@@QAEPBDXZ	; CBaseEntity::GetNetname
	push	eax
	push	OFFSET ??_C@_0BB@FNHLBFJP@music?5?$CC?$CFs?$CC?5?$CC?$CFs?$CC?6?$AA@
	mov	ecx, DWORD PTR _pPlayer$[ebp]
	call	?edict@CBaseEntity@@QAEPAUedict_s@@XZ	; CBaseEntity::edict
	push	eax
	call	DWORD PTR ?g_engfuncs@@3Uenginefuncs_s@@A+164
	add	esp, 16					; 00000010H
	jmp	SHORT $LN8@PlayStream
$LN5@PlayStream:

; 2383 : 		else if( FBitSet( pev->spawnflags, SF_LOOP ))

	mov	eax, DWORD PTR _this$[ebp]
	mov	ecx, DWORD PTR [eax+4]
	mov	edx, DWORD PTR [ecx+416]
	and	edx, 2
	je	SHORT $LN7@PlayStream

; 2384 : 			CLIENT_COMMAND( pPlayer->edict(), "music \"%s\" \"%s\"\n", GetMessage(), GetMessage());	// loop

	mov	ecx, DWORD PTR _this$[ebp]
	call	?GetMessageA@CBaseEntity@@QAEPBDXZ	; CBaseEntity::GetMessageA
	push	eax
	mov	ecx, DWORD PTR _this$[ebp]
	call	?GetMessageA@CBaseEntity@@QAEPBDXZ	; CBaseEntity::GetMessageA
	push	eax
	push	OFFSET ??_C@_0BB@FNHLBFJP@music?5?$CC?$CFs?$CC?5?$CC?$CFs?$CC?6?$AA@
	mov	ecx, DWORD PTR _pPlayer$[ebp]
	call	?edict@CBaseEntity@@QAEPAUedict_s@@XZ	; CBaseEntity::edict
	push	eax
	call	DWORD PTR ?g_engfuncs@@3Uenginefuncs_s@@A+164
	add	esp, 16					; 00000010H

; 2385 : 		else

	jmp	SHORT $LN8@PlayStream
$LN7@PlayStream:

; 2386 : 			CLIENT_COMMAND( pPlayer->edict(), "music \"%s\"\n", GetMessage());			// one pass

	mov	ecx, DWORD PTR _this$[ebp]
	call	?GetMessageA@CBaseEntity@@QAEPBDXZ	; CBaseEntity::GetMessageA
	push	eax
	push	OFFSET ??_C@_0M@DKCMEMFI@music?5?$CC?$CFs?$CC?6?$AA@
	mov	ecx, DWORD PTR _pPlayer$[ebp]
	call	?edict@CBaseEntity@@QAEPAUedict_s@@XZ	; CBaseEntity::edict
	push	eax
	call	DWORD PTR ?g_engfuncs@@3Uenginefuncs_s@@A+164
	add	esp, 12					; 0000000cH
$LN8@PlayStream:
	jmp	SHORT $LN10@PlayStream
$LN3@PlayStream:

; 2387 : 	}
; 2388 : 	else if( pev->frags )

	mov	eax, DWORD PTR _this$[ebp]
	mov	ecx, DWORD PTR [eax+4]
	movss	xmm0, DWORD PTR [ecx+356]
	ucomiss	xmm0, DWORD PTR __real@00000000
	lahf
	test	ah, 68					; 00000044H
	jnp	SHORT $LN9@PlayStream

; 2389 : 	{
; 2390 : 		// run fading out like in Paranoia
; 2391 : 		pev->dmgtime = gpGlobals->time;

	mov	eax, DWORD PTR _this$[ebp]
	mov	ecx, DWORD PTR [eax+4]
	mov	edx, DWORD PTR ?gpGlobals@@3PAUglobalvars_t@@A ; gpGlobals
	mov	eax, DWORD PTR [edx]
	mov	DWORD PTR [ecx+484], eax

; 2392 : 		SetNextThink( 0.01 );

	push	ecx
	movss	xmm0, DWORD PTR __real@3c23d70a
	movss	DWORD PTR [esp], xmm0
	mov	eax, DWORD PTR _this$[ebp]
	mov	edx, DWORD PTR [eax]
	mov	ecx, DWORD PTR _this$[ebp]
	mov	eax, DWORD PTR [edx+80]
	call	eax

; 2393 : 	}
; 2394 : 	else

	jmp	SHORT $LN10@PlayStream
$LN9@PlayStream:

; 2395 : 	{
; 2396 : 		CLIENT_COMMAND( pPlayer->edict(), "music\n" );						// stop

	push	OFFSET ??_C@_06JLDPCOLD@music?6?$AA@
	mov	ecx, DWORD PTR _pPlayer$[ebp]
	call	?edict@CBaseEntity@@QAEPAUedict_s@@XZ	; CBaseEntity::edict
	push	eax
	call	DWORD PTR ?g_engfuncs@@3Uenginefuncs_s@@A+164
	add	esp, 8
$LN10@PlayStream:
$LN1@PlayStream:

; 2397 : 	}
; 2398 : }

	pop	edi
	pop	esi
	pop	ebx
	mov	esp, ebp
	pop	ebp
	ret	8
?PlayStream@CAmbientMusic@@QAEXPAVCBasePlayer@@_N@Z ENDP ; CAmbientMusic::PlayStream
_TEXT	ENDS
; Function compile flags: /Odtp /ZI
; File d:\!diffusion 2020\source code 2022\client-server\server\sound.cpp
;	COMDAT ?Use@CAmbientMusic@@UAEXPAVCBaseEntity@@0W4USE_TYPE@@M@Z
_TEXT	SEGMENT
tv129 = -77						; size = 1
_pPlayer$1 = -12					; size = 4
_i$2 = -8						; size = 4
_this$ = -4						; size = 4
_pActivator$ = 8					; size = 4
_pCaller$ = 12						; size = 4
_useType$ = 16						; size = 4
_value$ = 20						; size = 4
?Use@CAmbientMusic@@UAEXPAVCBaseEntity@@0W4USE_TYPE@@M@Z PROC ; CAmbientMusic::Use, COMDAT
; _this$ = ecx

; 2401 : {

	push	ebp
	mov	ebp, esp
	sub	esp, 80					; 00000050H
	push	ebx
	push	esi
	push	edi
	mov	DWORD PTR _this$[ebp], ecx

; 2402 : 	if( !ShouldToggle( useType ))

	mov	eax, DWORD PTR _useType$[ebp]
	push	eax
	mov	ecx, DWORD PTR _this$[ebp]
	call	?ShouldToggle@CBaseEntity@@QAEHW4USE_TYPE@@@Z ; CBaseEntity::ShouldToggle
	test	eax, eax
	jne	SHORT $LN5@Use

; 2403 : 		return;

	jmp	$LN1@Use
$LN5@Use:

; 2404 : 
; 2405 : 	if( pev->dmgtime ) return; // soundtrack is fading out	

	mov	eax, DWORD PTR _this$[ebp]
	mov	ecx, DWORD PTR [eax+4]
	movss	xmm0, DWORD PTR [ecx+484]
	ucomiss	xmm0, DWORD PTR __real@00000000
	lahf
	test	ah, 68					; 00000044H
	jnp	SHORT $LN6@Use
	jmp	$LN1@Use
$LN6@Use:

; 2406 : 
; 2407 : 	// send to all the clients
; 2408 : 	for( int i = 1; i <= gpGlobals->maxClients; i++ )

	mov	DWORD PTR _i$2[ebp], 1
	jmp	SHORT $LN4@Use
$LN2@Use:
	mov	eax, DWORD PTR _i$2[ebp]
	add	eax, 1
	mov	DWORD PTR _i$2[ebp], eax
$LN4@Use:
	mov	eax, DWORD PTR ?gpGlobals@@3PAUglobalvars_t@@A ; gpGlobals
	mov	ecx, DWORD PTR _i$2[ebp]
	cmp	ecx, DWORD PTR [eax+144]
	jg	SHORT $LN3@Use

; 2409 : 	{
; 2410 : 		CBasePlayer *pPlayer = (CBasePlayer *)UTIL_PlayerByIndex( i );

	mov	eax, DWORD PTR _i$2[ebp]
	push	eax
	call	?UTIL_PlayerByIndex@@YAPAVCBaseEntity@@H@Z ; UTIL_PlayerByIndex
	add	esp, 4
	mov	DWORD PTR _pPlayer$1[ebp], eax

; 2411 : 		PlayStream( pPlayer, !FBitSet( pev->spawnflags, SF_START_ON ));

	mov	eax, DWORD PTR _this$[ebp]
	mov	ecx, DWORD PTR [eax+4]
	mov	edx, DWORD PTR [ecx+416]
	and	edx, 1
	jne	SHORT $LN10@Use
	mov	BYTE PTR tv129[ebp], 1
	jmp	SHORT $LN11@Use
$LN10@Use:
	mov	BYTE PTR tv129[ebp], 0
$LN11@Use:
	movzx	eax, BYTE PTR tv129[ebp]
	push	eax
	mov	ecx, DWORD PTR _pPlayer$1[ebp]
	push	ecx
	mov	ecx, DWORD PTR _this$[ebp]
	call	?PlayStream@CAmbientMusic@@QAEXPAVCBasePlayer@@_N@Z ; CAmbientMusic::PlayStream

; 2412 : 	}

	jmp	SHORT $LN2@Use
$LN3@Use:

; 2413 : 
; 2414 : 	if( FBitSet( pev->spawnflags, SF_START_ON ))

	mov	eax, DWORD PTR _this$[ebp]
	mov	ecx, DWORD PTR [eax+4]
	mov	edx, DWORD PTR [ecx+416]
	and	edx, 1
	je	SHORT $LN7@Use

; 2415 : 		ClearBits( pev->spawnflags, SF_START_ON );

	mov	eax, DWORD PTR _this$[ebp]
	mov	ecx, DWORD PTR [eax+4]
	mov	edx, DWORD PTR [ecx+416]
	and	edx, -2					; fffffffeH
	mov	eax, DWORD PTR _this$[ebp]
	mov	ecx, DWORD PTR [eax+4]
	mov	DWORD PTR [ecx+416], edx
	jmp	SHORT $LN8@Use
$LN7@Use:

; 2416 : 	else SetBits( pev->spawnflags, SF_START_ON );

	mov	eax, DWORD PTR _this$[ebp]
	mov	ecx, DWORD PTR [eax+4]
	mov	edx, DWORD PTR [ecx+416]
	or	edx, 1
	mov	eax, DWORD PTR _this$[ebp]
	mov	ecx, DWORD PTR [eax+4]
	mov	DWORD PTR [ecx+416], edx
$LN8@Use:
$LN1@Use:

; 2417 : }

	pop	edi
	pop	esi
	pop	ebx
	mov	esp, ebp
	pop	ebp
	ret	16					; 00000010H
?Use@CAmbientMusic@@UAEXPAVCBaseEntity@@0W4USE_TYPE@@M@Z ENDP ; CAmbientMusic::Use
_TEXT	ENDS
; Function compile flags: /Odtp /ZI
; File d:\!diffusion 2020\source code 2022\client-server\server\sound.cpp
;	COMDAT ?GetState@CAmbientMusic@@UAE?AW4STATE@@XZ
_TEXT	SEGMENT
tv72 = -72						; size = 4
_this$ = -4						; size = 4
?GetState@CAmbientMusic@@UAE?AW4STATE@@XZ PROC		; CAmbientMusic::GetState, COMDAT
; _this$ = ecx

; 2324 : 	virtual STATE GetState( void ) { return FBitSet( pev->spawnflags, SF_START_ON ) ? STATE_ON : STATE_OFF; }

	push	ebp
	mov	ebp, esp
	sub	esp, 72					; 00000048H
	push	ebx
	push	esi
	push	edi
	mov	DWORD PTR _this$[ebp], ecx
	mov	eax, DWORD PTR _this$[ebp]
	mov	ecx, DWORD PTR [eax+4]
	mov	edx, DWORD PTR [ecx+416]
	and	edx, 1
	je	SHORT $LN3@GetState
	mov	DWORD PTR tv72[ebp], 1
	jmp	SHORT $LN4@GetState
$LN3@GetState:
	mov	DWORD PTR tv72[ebp], 0
$LN4@GetState:
	mov	eax, DWORD PTR tv72[ebp]
	pop	edi
	pop	esi
	pop	ebx
	mov	esp, ebp
	pop	ebp
	ret	0
?GetState@CAmbientMusic@@UAE?AW4STATE@@XZ ENDP		; CAmbientMusic::GetState
_TEXT	ENDS
; Function compile flags: /Odtp /ZI
;	COMDAT ??__FnameHolder@?1???$DataMapInit@VCSpeaker@@@@YAPAUdatamap_s@@PAVCSpeaker@@@Z@YAXXZ
text$yd	SEGMENT
??__FnameHolder@?1???$DataMapInit@VCSpeaker@@@@YAPAUdatamap_s@@PAVCSpeaker@@@Z@YAXXZ PROC ; `DataMapInit<CSpeaker>'::`2'::`dynamic atexit destructor for 'nameHolder'', COMDAT
	push	ebp
	mov	ebp, esp
	sub	esp, 64					; 00000040H
	push	ebx
	push	esi
	push	edi
	mov	ecx, OFFSET ?nameHolder@?1???$DataMapInit@VCSpeaker@@@@YAPAUdatamap_s@@PAVCSpeaker@@@Z@4VCDatadescGeneratedNameHolder@@A
	call	??1CDatadescGeneratedNameHolder@@QAE@XZ	; CDatadescGeneratedNameHolder::~CDatadescGeneratedNameHolder
	pop	edi
	pop	esi
	pop	ebx
	mov	esp, ebp
	pop	ebp
	ret	0
??__FnameHolder@?1???$DataMapInit@VCSpeaker@@@@YAPAUdatamap_s@@PAVCSpeaker@@@Z@YAXXZ ENDP ; `DataMapInit<CSpeaker>'::`2'::`dynamic atexit destructor for 'nameHolder''
text$yd	ENDS
; Function compile flags: /Odtp /ZI
; File d:\!diffusion 2020\source code 2022\client-server\server\sound.cpp
;	COMDAT ??__Eg_DataMapHolder@CSpeaker_DataDescInit@@YAXXZ
text$di	SEGMENT
??__Eg_DataMapHolder@CSpeaker_DataDescInit@@YAXXZ PROC	; CSpeaker_DataDescInit::`dynamic initializer for 'g_DataMapHolder'', COMDAT

; 2146 : BEGIN_DATADESC( CSpeaker )

	push	ebp
	mov	ebp, esp
	sub	esp, 64					; 00000040H
	push	ebx
	push	esi
	push	edi
	push	0
	call	??$DataMapInit@VCSpeaker@@@@YAPAUdatamap_s@@PAVCSpeaker@@@Z ; DataMapInit<CSpeaker>
	add	esp, 4
	mov	DWORD PTR ?g_DataMapHolder@CSpeaker_DataDescInit@@3PAUdatamap_s@@A, eax ; CSpeaker_DataDescInit::g_DataMapHolder
	pop	edi
	pop	esi
	pop	ebx
	mov	esp, ebp
	pop	ebp
	ret	0
??__Eg_DataMapHolder@CSpeaker_DataDescInit@@YAXXZ ENDP	; CSpeaker_DataDescInit::`dynamic initializer for 'g_DataMapHolder''
text$di	ENDS
; Function compile flags: /Odtp /ZI
; File d:\!diffusion 2020\source code 2022\client-server\server\sound.cpp
;	COMDAT ??$DataMapInit@VCSpeaker@@@@YAPAUdatamap_s@@PAVCSpeaker@@@Z
_TEXT	SEGMENT
__$EHRec$ = -12						; size = 12
___formal$ = 8						; size = 4
??$DataMapInit@VCSpeaker@@@@YAPAUdatamap_s@@PAVCSpeaker@@@Z PROC ; DataMapInit<CSpeaker>, COMDAT

; 2146 : BEGIN_DATADESC( CSpeaker )

	push	ebp
	mov	ebp, esp
	push	-1
	push	__ehhandler$??$DataMapInit@VCSpeaker@@@@YAPAUdatamap_s@@PAVCSpeaker@@@Z
	mov	eax, DWORD PTR fs:0
	push	eax
	sub	esp, 64					; 00000040H
	push	ebx
	push	esi
	push	edi
	mov	eax, DWORD PTR ___security_cookie
	xor	eax, ebp
	push	eax
	lea	eax, DWORD PTR __$EHRec$[ebp]
	mov	DWORD PTR fs:0, eax
	mov	eax, DWORD PTR __tls_index
	mov	ecx, DWORD PTR fs:__tls_array
	mov	edx, DWORD PTR [ecx+eax*4]
	mov	eax, DWORD PTR ?$TSS0@?1???$DataMapInit@VCSpeaker@@@@YAPAUdatamap_s@@PAVCSpeaker@@@Z@4HA
	cmp	eax, DWORD PTR __Init_thread_epoch[edx]
	jle	SHORT $LN2@DataMapIni
	push	OFFSET ?$TSS0@?1???$DataMapInit@VCSpeaker@@@@YAPAUdatamap_s@@PAVCSpeaker@@@Z@4HA
	call	__Init_thread_header
	add	esp, 4
	cmp	DWORD PTR ?$TSS0@?1???$DataMapInit@VCSpeaker@@@@YAPAUdatamap_s@@PAVCSpeaker@@@Z@4HA, -1
	jne	SHORT $LN2@DataMapIni
	mov	DWORD PTR __$EHRec$[ebp+8], 0
	push	OFFSET ??_C@_08IKHBFCDE@CSpeaker?$AA@
	mov	ecx, OFFSET ?nameHolder@?1???$DataMapInit@VCSpeaker@@@@YAPAUdatamap_s@@PAVCSpeaker@@@Z@4VCDatadescGeneratedNameHolder@@A
	call	??0CDatadescGeneratedNameHolder@@QAE@PBD@Z ; CDatadescGeneratedNameHolder::CDatadescGeneratedNameHolder
	push	OFFSET ??__FnameHolder@?1???$DataMapInit@VCSpeaker@@@@YAPAUdatamap_s@@PAVCSpeaker@@@Z@YAXXZ ; `DataMapInit<CSpeaker>'::`2'::`dynamic atexit destructor for 'nameHolder''
	call	_atexit
	add	esp, 4
	mov	DWORD PTR __$EHRec$[ebp+8], -1
	push	OFFSET ?$TSS0@?1???$DataMapInit@VCSpeaker@@@@YAPAUdatamap_s@@PAVCSpeaker@@@Z@4HA
	call	__Init_thread_footer
	add	esp, 4
$LN2@DataMapIni:

; 2150 : END_DATADESC()

	call	?GetBaseMap@CSpeaker@@SAPAUdatamap_s@@XZ ; CSpeaker::GetBaseMap
	mov	DWORD PTR ?m_DataMap@CSpeaker@@2Udatamap_s@@A+12, eax

; 2146 : BEGIN_DATADESC( CSpeaker )

	mov	eax, DWORD PTR __tls_index
	mov	ecx, DWORD PTR fs:__tls_array
	mov	edx, DWORD PTR [ecx+eax*4]
	mov	eax, DWORD PTR ?$TSS1@?1???$DataMapInit@VCSpeaker@@@@YAPAUdatamap_s@@PAVCSpeaker@@@Z@4HA
	cmp	eax, DWORD PTR __Init_thread_epoch[edx]
	jle	$LN3@DataMapIni
	push	OFFSET ?$TSS1@?1???$DataMapInit@VCSpeaker@@@@YAPAUdatamap_s@@PAVCSpeaker@@@Z@4HA
	call	__Init_thread_header
	add	esp, 4
	cmp	DWORD PTR ?$TSS1@?1???$DataMapInit@VCSpeaker@@@@YAPAUdatamap_s@@PAVCSpeaker@@@Z@4HA, -1
	jne	$LN3@DataMapIni
	mov	DWORD PTR __$EHRec$[ebp+8], 1

; 2147 : 	DEFINE_KEYFIELD( m_preset, FIELD_INTEGER, "preset" ),
; 2148 : 	DEFINE_FUNCTION( SpeakerThink ),

	push	OFFSET ??_C@_0N@PONONMAE@SpeakerThink?$AA@
	mov	ecx, OFFSET ?nameHolder@?1???$DataMapInit@VCSpeaker@@@@YAPAUdatamap_s@@PAVCSpeaker@@@Z@4VCDatadescGeneratedNameHolder@@A
	call	?GenerateName@CDatadescGeneratedNameHolder@@QAEPBDPBD@Z ; CDatadescGeneratedNameHolder::GenerateName
	mov	DWORD PTR ?dataDesc@?1???$DataMapInit@VCSpeaker@@@@YAPAUdatamap_s@@PAVCSpeaker@@@Z@4PAUtypedescription_s@@A+52, eax
	mov	DWORD PTR ?dataDesc@?1???$DataMapInit@VCSpeaker@@@@YAPAUdatamap_s@@PAVCSpeaker@@@Z@4PAUtypedescription_s@@A+56, 0
	mov	eax, 1
	mov	WORD PTR ?dataDesc@?1???$DataMapInit@VCSpeaker@@@@YAPAUdatamap_s@@PAVCSpeaker@@@Z@4PAUtypedescription_s@@A+60, ax
	mov	eax, 8
	mov	WORD PTR ?dataDesc@?1???$DataMapInit@VCSpeaker@@@@YAPAUdatamap_s@@PAVCSpeaker@@@Z@4PAUtypedescription_s@@A+62, ax
	mov	DWORD PTR ?dataDesc@?1???$DataMapInit@VCSpeaker@@@@YAPAUdatamap_s@@PAVCSpeaker@@@Z@4PAUtypedescription_s@@A+64, 0
	mov	DWORD PTR ?dataDesc@?1???$DataMapInit@VCSpeaker@@@@YAPAUdatamap_s@@PAVCSpeaker@@@Z@4PAUtypedescription_s@@A+68, OFFSET ?SpeakerThink@CSpeaker@@QAEXXZ ; CSpeaker::SpeakerThink

; 2149 : 	DEFINE_FUNCTION( ToggleUse ),

	mov	DWORD PTR ?dataDesc@?1???$DataMapInit@VCSpeaker@@@@YAPAUdatamap_s@@PAVCSpeaker@@@Z@4PAUtypedescription_s@@A+72, 18 ; 00000012H
	push	OFFSET ??_C@_09CHGFKFGA@ToggleUse?$AA@
	mov	ecx, OFFSET ?nameHolder@?1???$DataMapInit@VCSpeaker@@@@YAPAUdatamap_s@@PAVCSpeaker@@@Z@4VCDatadescGeneratedNameHolder@@A
	call	?GenerateName@CDatadescGeneratedNameHolder@@QAEPBDPBD@Z ; CDatadescGeneratedNameHolder::GenerateName
	mov	DWORD PTR ?dataDesc@?1???$DataMapInit@VCSpeaker@@@@YAPAUdatamap_s@@PAVCSpeaker@@@Z@4PAUtypedescription_s@@A+76, eax
	mov	DWORD PTR ?dataDesc@?1???$DataMapInit@VCSpeaker@@@@YAPAUdatamap_s@@PAVCSpeaker@@@Z@4PAUtypedescription_s@@A+80, 0
	mov	eax, 1
	mov	WORD PTR ?dataDesc@?1???$DataMapInit@VCSpeaker@@@@YAPAUdatamap_s@@PAVCSpeaker@@@Z@4PAUtypedescription_s@@A+84, ax
	mov	eax, 8
	mov	WORD PTR ?dataDesc@?1???$DataMapInit@VCSpeaker@@@@YAPAUdatamap_s@@PAVCSpeaker@@@Z@4PAUtypedescription_s@@A+86, ax
	mov	DWORD PTR ?dataDesc@?1???$DataMapInit@VCSpeaker@@@@YAPAUdatamap_s@@PAVCSpeaker@@@Z@4PAUtypedescription_s@@A+88, 0
	mov	DWORD PTR ?dataDesc@?1???$DataMapInit@VCSpeaker@@@@YAPAUdatamap_s@@PAVCSpeaker@@@Z@4PAUtypedescription_s@@A+92, OFFSET ?ToggleUse@CSpeaker@@QAEXPAVCBaseEntity@@0W4USE_TYPE@@M@Z ; CSpeaker::ToggleUse
	mov	DWORD PTR __$EHRec$[ebp+8], -1
	push	OFFSET ?$TSS1@?1???$DataMapInit@VCSpeaker@@@@YAPAUdatamap_s@@PAVCSpeaker@@@Z@4HA
	call	__Init_thread_footer
	add	esp, 4
$LN3@DataMapIni:

; 2150 : END_DATADESC()

	mov	eax, 1
	test	eax, eax
	je	SHORT $LN4@DataMapIni
	mov	DWORD PTR ?m_DataMap@CSpeaker@@2Udatamap_s@@A+4, 3
	mov	eax, 24					; 00000018H
	shl	eax, 0
	add	eax, OFFSET ?dataDesc@?1???$DataMapInit@VCSpeaker@@@@YAPAUdatamap_s@@PAVCSpeaker@@@Z@4PAUtypedescription_s@@A
	mov	DWORD PTR ?m_DataMap@CSpeaker@@2Udatamap_s@@A, eax
	jmp	SHORT $LN5@DataMapIni
$LN4@DataMapIni:
	mov	DWORD PTR ?m_DataMap@CSpeaker@@2Udatamap_s@@A+4, 1
	mov	DWORD PTR ?m_DataMap@CSpeaker@@2Udatamap_s@@A, OFFSET ?dataDesc@?1???$DataMapInit@VCSpeaker@@@@YAPAUdatamap_s@@PAVCSpeaker@@@Z@4PAUtypedescription_s@@A
$LN5@DataMapIni:
	mov	eax, OFFSET ?m_DataMap@CSpeaker@@2Udatamap_s@@A ; CSpeaker::m_DataMap
	mov	ecx, DWORD PTR __$EHRec$[ebp]
	mov	DWORD PTR fs:0, ecx
	pop	ecx
	pop	edi
	pop	esi
	pop	ebx
	mov	esp, ebp
	pop	ebp
	ret	0
_TEXT	ENDS
;	COMDAT text$x
text$x	SEGMENT
__unwindfunclet$??$DataMapInit@VCSpeaker@@@@YAPAUdatamap_s@@PAVCSpeaker@@@Z$0:
	push	OFFSET ?$TSS0@?1???$DataMapInit@VCSpeaker@@@@YAPAUdatamap_s@@PAVCSpeaker@@@Z@4HA
	call	__Init_thread_abort
	pop	ecx
	ret	0
__unwindfunclet$??$DataMapInit@VCSpeaker@@@@YAPAUdatamap_s@@PAVCSpeaker@@@Z$1:
	push	OFFSET ?$TSS1@?1???$DataMapInit@VCSpeaker@@@@YAPAUdatamap_s@@PAVCSpeaker@@@Z@4HA
	call	__Init_thread_abort
	pop	ecx
	ret	0
__ehhandler$??$DataMapInit@VCSpeaker@@@@YAPAUdatamap_s@@PAVCSpeaker@@@Z:
	mov	edx, DWORD PTR [esp+8]
	lea	eax, DWORD PTR [edx+12]
	mov	ecx, DWORD PTR [edx-80]
	xor	ecx, eax
	call	@__security_check_cookie@4
	mov	eax, OFFSET __ehfuncinfo$??$DataMapInit@VCSpeaker@@@@YAPAUdatamap_s@@PAVCSpeaker@@@Z
	jmp	___CxxFrameHandler3
text$x	ENDS
??$DataMapInit@VCSpeaker@@@@YAPAUdatamap_s@@PAVCSpeaker@@@Z ENDP ; DataMapInit<CSpeaker>
; Function compile flags: /Odtp /ZI
; File d:\!diffusion 2020\source code 2022\client-server\server\sound.cpp
;	COMDAT ??__Espeaker@@YAXXZ
text$di	SEGMENT
??__Espeaker@@YAXXZ PROC				; `dynamic initializer for 'speaker'', COMDAT

; 2144 : LINK_ENTITY_TO_CLASS( speaker, CSpeaker );

	push	ebp
	mov	ebp, esp
	sub	esp, 64					; 00000040H
	push	ebx
	push	esi
	push	edi
	push	OFFSET ??_C@_07BHDDMEGH@speaker?$AA@
	mov	ecx, OFFSET ?speaker@@3V?$CEntityFactory@VCSpeaker@@@@A
	call	??0?$CEntityFactory@VCSpeaker@@@@QAE@PBD@Z ; CEntityFactory<CSpeaker>::CEntityFactory<CSpeaker>
	pop	edi
	pop	esi
	pop	ebx
	mov	esp, ebp
	pop	ebp
	ret	0
??__Espeaker@@YAXXZ ENDP				; `dynamic initializer for 'speaker''
text$di	ENDS
; Function compile flags: /Odtp /ZI
; File d:\!diffusion 2020\source code 2022\client-server\server\util.h
;	COMDAT ?GetEntitySize@?$CEntityFactory@VCSpeaker@@@@UAEIXZ
_TEXT	SEGMENT
_this$ = -4						; size = 4
?GetEntitySize@?$CEntityFactory@VCSpeaker@@@@UAEIXZ PROC ; CEntityFactory<CSpeaker>::GetEntitySize, COMDAT
; _this$ = ecx

; 103  : 	{

	push	ebp
	mov	ebp, esp
	sub	esp, 68					; 00000044H
	push	ebx
	push	esi
	push	edi
	mov	DWORD PTR _this$[ebp], ecx

; 104  : 		return sizeof(T);

	mov	eax, 1808				; 00000710H

; 105  : 	}

	pop	edi
	pop	esi
	pop	ebx
	mov	esp, ebp
	pop	ebp
	ret	0
?GetEntitySize@?$CEntityFactory@VCSpeaker@@@@UAEIXZ ENDP ; CEntityFactory<CSpeaker>::GetEntitySize
_TEXT	ENDS
; Function compile flags: /Odtp /ZI
; File d:\!diffusion 2020\source code 2022\client-server\server\util.h
;	COMDAT ?Destroy@?$CEntityFactory@VCSpeaker@@@@UAEXPAVCBaseEntity@@@Z
_TEXT	SEGMENT
_this$ = -4						; size = 4
_pEntity$ = 8						; size = 4
?Destroy@?$CEntityFactory@VCSpeaker@@@@UAEXPAVCBaseEntity@@@Z PROC ; CEntityFactory<CSpeaker>::Destroy, COMDAT
; _this$ = ecx

; 98   : 	{

	push	ebp
	mov	ebp, esp
	sub	esp, 68					; 00000044H
	push	ebx
	push	esi
	push	edi
	mov	DWORD PTR _this$[ebp], ecx

; 99   : 		UTIL_Remove( pEntity );

	mov	eax, DWORD PTR _pEntity$[ebp]
	push	eax
	call	?UTIL_Remove@@YAXPAVCBaseEntity@@@Z	; UTIL_Remove
	add	esp, 4

; 100  : 	}

	pop	edi
	pop	esi
	pop	ebx
	mov	esp, ebp
	pop	ebp
	ret	4
?Destroy@?$CEntityFactory@VCSpeaker@@@@UAEXPAVCBaseEntity@@@Z ENDP ; CEntityFactory<CSpeaker>::Destroy
_TEXT	ENDS
; Function compile flags: /Odtp /ZI
; File d:\!diffusion 2020\source code 2022\client-server\server\util.h
;	COMDAT ?Create@?$CEntityFactory@VCSpeaker@@@@UAEPAVCBaseEntity@@PBDPAUentvars_s@@@Z
_TEXT	SEGMENT
_pEnt$ = -8						; size = 4
_this$ = -4						; size = 4
_pClassName$ = 8					; size = 4
_pev$ = 12						; size = 4
?Create@?$CEntityFactory@VCSpeaker@@@@UAEPAVCBaseEntity@@PBDPAUentvars_s@@@Z PROC ; CEntityFactory<CSpeaker>::Create, COMDAT
; _this$ = ecx

; 92   : 	{

	push	ebp
	mov	ebp, esp
	sub	esp, 72					; 00000048H
	push	ebx
	push	esi
	push	edi
	mov	DWORD PTR _this$[ebp], ecx

; 93   : 		T* pEnt = GetClassPtr((T*)pev, pClassName);

	mov	eax, DWORD PTR _pClassName$[ebp]
	push	eax
	mov	ecx, DWORD PTR _pev$[ebp]
	push	ecx
	call	??$GetClassPtr@VCSpeaker@@@@YAPAVCSpeaker@@PAV0@PBD@Z ; GetClassPtr<CSpeaker>
	add	esp, 8
	mov	DWORD PTR _pEnt$[ebp], eax

; 94   : 		return pEnt;

	mov	eax, DWORD PTR _pEnt$[ebp]

; 95   : 	}

	pop	edi
	pop	esi
	pop	ebx
	mov	esp, ebp
	pop	ebp
	ret	8
?Create@?$CEntityFactory@VCSpeaker@@@@UAEPAVCBaseEntity@@PBDPAUentvars_s@@@Z ENDP ; CEntityFactory<CSpeaker>::Create
_TEXT	ENDS
; Function compile flags: /Odtp /ZI
; File d:\!diffusion 2020\source code 2022\client-server\server\util.h
;	COMDAT ??0?$CEntityFactory@VCSpeaker@@@@QAE@PBD@Z
_TEXT	SEGMENT
tv76 = -72						; size = 4
_this$ = -4						; size = 4
_pClassName$ = 8					; size = 4
??0?$CEntityFactory@VCSpeaker@@@@QAE@PBD@Z PROC		; CEntityFactory<CSpeaker>::CEntityFactory<CSpeaker>, COMDAT
; _this$ = ecx

; 86   : 	CEntityFactory( const char *pClassName )

	push	ebp
	mov	ebp, esp
	sub	esp, 72					; 00000048H
	push	ebx
	push	esi
	push	edi
	mov	DWORD PTR _this$[ebp], ecx

; 87   : 	{

	mov	ecx, DWORD PTR _this$[ebp]
	call	??0IEntityFactory@@QAE@XZ
	mov	eax, DWORD PTR _this$[ebp]
	mov	DWORD PTR [eax], OFFSET ??_7?$CEntityFactory@VCSpeaker@@@@6B@

; 88   : 		EntityFactoryDictionary()->InstallFactory( this, pClassName );

	call	?EntityFactoryDictionary@@YAPAVIEntityFactoryDictionary@@XZ ; EntityFactoryDictionary
	mov	DWORD PTR tv76[ebp], eax
	mov	eax, DWORD PTR _pClassName$[ebp]
	push	eax
	mov	ecx, DWORD PTR _this$[ebp]
	push	ecx
	mov	edx, DWORD PTR tv76[ebp]
	mov	eax, DWORD PTR [edx]
	mov	ecx, DWORD PTR tv76[ebp]
	mov	edx, DWORD PTR [eax]
	call	edx

; 89   : 	}

	mov	eax, DWORD PTR _this$[ebp]
	pop	edi
	pop	esi
	pop	ebx
	mov	esp, ebp
	pop	ebp
	ret	4
??0?$CEntityFactory@VCSpeaker@@@@QAE@PBD@Z ENDP		; CEntityFactory<CSpeaker>::CEntityFactory<CSpeaker>
_TEXT	ENDS
; Function compile flags: /Odtp /ZI
;	COMDAT ??0CSpeaker@@QAE@XZ
_TEXT	SEGMENT
_this$ = -4						; size = 4
??0CSpeaker@@QAE@XZ PROC				; CSpeaker::CSpeaker, COMDAT
; _this$ = ecx
	push	ebp
	mov	ebp, esp
	sub	esp, 68					; 00000044H
	push	ebx
	push	esi
	push	edi
	mov	DWORD PTR _this$[ebp], ecx
	mov	ecx, DWORD PTR _this$[ebp]
	call	??0CBaseEntity@@QAE@XZ
	mov	eax, DWORD PTR _this$[ebp]
	mov	DWORD PTR [eax], OFFSET ??_7CSpeaker@@6B@
	mov	eax, DWORD PTR _this$[ebp]
	pop	edi
	pop	esi
	pop	ebx
	mov	esp, ebp
	pop	ebp
	ret	0
??0CSpeaker@@QAE@XZ ENDP				; CSpeaker::CSpeaker
_TEXT	ENDS
; Function compile flags: /Odtp /ZI
; File d:\!diffusion 2020\source code 2022\client-server\server\sound.cpp
;	COMDAT ?ObjectCaps@CSpeaker@@UAEHXZ
_TEXT	SEGMENT
_this$ = -4						; size = 4
?ObjectCaps@CSpeaker@@UAEHXZ PROC			; CSpeaker::ObjectCaps, COMDAT
; _this$ = ecx

; 2139 : 	virtual int ObjectCaps( void ) { return (BaseClass :: ObjectCaps() & ~FCAP_ACROSS_TRANSITION); }

	push	ebp
	mov	ebp, esp
	sub	esp, 68					; 00000044H
	push	ebx
	push	esi
	push	edi
	mov	DWORD PTR _this$[ebp], ecx
	mov	ecx, DWORD PTR _this$[ebp]
	call	?ObjectCaps@CBaseEntity@@UAEHXZ		; CBaseEntity::ObjectCaps
	and	eax, -3					; fffffffdH
	pop	edi
	pop	esi
	pop	ebx
	mov	esp, ebp
	pop	ebp
	ret	0
?ObjectCaps@CSpeaker@@UAEHXZ ENDP			; CSpeaker::ObjectCaps
_TEXT	ENDS
; Function compile flags: /Odtp /ZI
; File d:\!diffusion 2020\source code 2022\client-server\server\sound.cpp
;	COMDAT ?GetDataDescMap@CSpeaker@@UAEPAUdatamap_s@@XZ
_TEXT	SEGMENT
_this$ = -4						; size = 4
?GetDataDescMap@CSpeaker@@UAEPAUdatamap_s@@XZ PROC	; CSpeaker::GetDataDescMap, COMDAT
; _this$ = ecx

; 2146 : BEGIN_DATADESC( CSpeaker )

	push	ebp
	mov	ebp, esp
	sub	esp, 68					; 00000044H
	push	ebx
	push	esi
	push	edi
	mov	DWORD PTR _this$[ebp], ecx
	mov	eax, OFFSET ?m_DataMap@CSpeaker@@2Udatamap_s@@A ; CSpeaker::m_DataMap
	pop	edi
	pop	esi
	pop	ebx
	mov	esp, ebp
	pop	ebp
	ret	0
?GetDataDescMap@CSpeaker@@UAEPAUdatamap_s@@XZ ENDP	; CSpeaker::GetDataDescMap
_TEXT	ENDS
; Function compile flags: /Odtp /ZI
