; Listing generated by Microsoft (R) Optimizing Compiler Version 19.00.24247.2 

	TITLE	D:\!DIFFUSION 2020\source code 2022\client-server\server\game\spectator.cpp
	.686P
	.XMM
	include listing.inc
	.model	flat

INCLUDELIB LIBCMT
INCLUDELIB OLDNAMES

_BSS	SEGMENT
?pGoal@?1??SpectatorImpulseCommand@CBaseSpectator@@AAEXXZ@4PAUedict_s@@A DD 01H DUP (?) ; `CBaseSpectator::SpectatorImpulseCommand'::`2'::pGoal
_BSS	ENDS
PUBLIC	??_H@YGXPAXIIP6EPAX0@Z@Z			; `vector constructor iterator'
PUBLIC	??__G@YGXPAX0IIP6EPAX00@Z@Z			; `vector copy constructor iterator'
PUBLIC	?__empty_global_delete@@YAXPAX@Z		; __empty_global_delete
PUBLIC	?__empty_global_delete@@YAXPAXI@Z		; __empty_global_delete
PUBLIC	?FIND_ENTITY_BY_CLASSNAME@@YAPAUedict_s@@PAU1@PBD@Z ; FIND_ENTITY_BY_CLASSNAME
PUBLIC	?OFFSET@@YAHPBUedict_s@@@Z			; OFFSET
PUBLIC	?FNullEnt@@YAHH@Z				; FNullEnt
PUBLIC	?FNullEnt@@YAHPBUedict_s@@@Z			; FNullEnt
PUBLIC	?Spawn@CBaseSpectator@@UAEXXZ			; CBaseSpectator::Spawn
PUBLIC	?SpectatorConnect@CBaseSpectator@@QAEXXZ	; CBaseSpectator::SpectatorConnect
PUBLIC	?SpectatorDisconnect@CBaseSpectator@@QAEXXZ	; CBaseSpectator::SpectatorDisconnect
PUBLIC	?SpectatorThink@CBaseSpectator@@QAEXXZ		; CBaseSpectator::SpectatorThink
PUBLIC	?SpectatorImpulseCommand@CBaseSpectator@@AAEXXZ	; CBaseSpectator::SpectatorImpulseCommand
PUBLIC	??_C@_09CNJINBGN@classname?$AA@			; `string'
PUBLIC	??_C@_0BF@CPEPILID@Bad?5ent?5in?5OFFSET?$CI?$CJ?6?$AA@ ; `string'
PUBLIC	??_C@_0BH@IGAFCIL@info_player_deathmatch?$AA@	; `string'
PUBLIC	??_C@_0BO@HEFLNGKF@Could?5not?5find?5a?5spawn?5spot?4?6?$AA@ ; `string'
PUBLIC	??_C@_0BL@IGDIAIEK@Unknown?5spectator?5impulse?6?$AA@ ; `string'
EXTRN	?UTIL_SetOrigin@@YAXPAVCBaseEntity@@ABVVector@@@Z:PROC ; UTIL_SetOrigin
EXTRN	?SetAbsAngles@CBaseEntity@@QAEXABVVector@@@Z:PROC ; CBaseEntity::SetAbsAngles
EXTRN	?g_engfuncs@@3Uenginefuncs_s@@A:BYTE		; g_engfuncs
;	COMDAT ??_C@_0BL@IGDIAIEK@Unknown?5spectator?5impulse?6?$AA@
CONST	SEGMENT
??_C@_0BL@IGDIAIEK@Unknown?5spectator?5impulse?6?$AA@ DB 'Unknown spectat'
	DB	'or impulse', 0aH, 00H			; `string'
CONST	ENDS
;	COMDAT ??_C@_0BO@HEFLNGKF@Could?5not?5find?5a?5spawn?5spot?4?6?$AA@
CONST	SEGMENT
??_C@_0BO@HEFLNGKF@Could?5not?5find?5a?5spawn?5spot?4?6?$AA@ DB 'Could no'
	DB	't find a spawn spot.', 0aH, 00H		; `string'
CONST	ENDS
;	COMDAT ??_C@_0BH@IGAFCIL@info_player_deathmatch?$AA@
CONST	SEGMENT
??_C@_0BH@IGAFCIL@info_player_deathmatch?$AA@ DB 'info_player_deathmatch', 00H ; `string'
CONST	ENDS
;	COMDAT ??_C@_0BF@CPEPILID@Bad?5ent?5in?5OFFSET?$CI?$CJ?6?$AA@
CONST	SEGMENT
??_C@_0BF@CPEPILID@Bad?5ent?5in?5OFFSET?$CI?$CJ?6?$AA@ DB 'Bad ent in OFF'
	DB	'SET()', 0aH, 00H				; `string'
CONST	ENDS
;	COMDAT ??_C@_09CNJINBGN@classname?$AA@
CONST	SEGMENT
??_C@_09CNJINBGN@classname?$AA@ DB 'classname', 00H	; `string'
CONST	ENDS
; Function compile flags: /Odtp /ZI
; File d:\!diffusion 2020\source code 2022\client-server\server\game\spectator.cpp
;	COMDAT ?SpectatorImpulseCommand@CBaseSpectator@@AAEXXZ
_TEXT	SEGMENT
tv70 = -84						; size = 4
_bFound$ = -16						; size = 4
_pCurrentGoal$ = -12					; size = 4
_pPreviousGoal$ = -8					; size = 4
_this$ = -4						; size = 4
?SpectatorImpulseCommand@CBaseSpectator@@AAEXXZ PROC	; CBaseSpectator::SpectatorImpulseCommand, COMDAT
; _this$ = ecx

; 62   : {

	push	ebp
	mov	ebp, esp
	sub	esp, 84					; 00000054H
	push	ebx
	push	esi
	push	edi
	mov	DWORD PTR _this$[ebp], ecx

; 63   : 	static edict_t	*pGoal		= NULL;
; 64   : 	edict_t         *pPreviousGoal;
; 65   : 	edict_t         *pCurrentGoal;
; 66   : 	BOOL			bFound;
; 67   : 	
; 68   : 	switch (pev->impulse)

	mov	eax, DWORD PTR _this$[ebp]
	mov	ecx, DWORD PTR [eax+4]
	mov	edx, DWORD PTR [ecx+388]
	mov	DWORD PTR tv70[ebp], edx
	cmp	DWORD PTR tv70[ebp], 1
	je	SHORT $LN6@SpectatorI
	jmp	$LN10@SpectatorI
$LN6@SpectatorI:

; 69   : 	{
; 70   : 	case 1:
; 71   : 		// teleport the spectator to the next spawn point
; 72   : 		// note that if the spectator is tracking, this doesn't do
; 73   : 		// much
; 74   : 		pPreviousGoal = pGoal;

	mov	eax, DWORD PTR ?pGoal@?1??SpectatorImpulseCommand@CBaseSpectator@@AAEXXZ@4PAUedict_s@@A
	mov	DWORD PTR _pPreviousGoal$[ebp], eax

; 75   : 		pCurrentGoal  = pGoal;

	mov	eax, DWORD PTR ?pGoal@?1??SpectatorImpulseCommand@CBaseSpectator@@AAEXXZ@4PAUedict_s@@A
	mov	DWORD PTR _pCurrentGoal$[ebp], eax

; 76   : 		// Start at the current goal, skip the world, and stop if we looped
; 77   : 		//  back around
; 78   : 
; 79   : 		bFound = FALSE;

	mov	DWORD PTR _bFound$[ebp], 0
$LN4@SpectatorI:

; 80   : 		while (1)

	mov	eax, 1
	test	eax, eax
	je	SHORT $LN5@SpectatorI

; 81   : 		{
; 82   : 			pCurrentGoal = FIND_ENTITY_BY_CLASSNAME(pCurrentGoal, "info_player_deathmatch");

	push	OFFSET ??_C@_0BH@IGAFCIL@info_player_deathmatch?$AA@
	mov	eax, DWORD PTR _pCurrentGoal$[ebp]
	push	eax
	call	?FIND_ENTITY_BY_CLASSNAME@@YAPAUedict_s@@PAU1@PBD@Z ; FIND_ENTITY_BY_CLASSNAME
	add	esp, 8
	mov	DWORD PTR _pCurrentGoal$[ebp], eax

; 83   : 			// Looped around, failure
; 84   : 			if (pCurrentGoal == pPreviousGoal)

	mov	eax, DWORD PTR _pCurrentGoal$[ebp]
	cmp	eax, DWORD PTR _pPreviousGoal$[ebp]
	jne	SHORT $LN7@SpectatorI

; 85   : 			{
; 86   : 				ALERT(at_console, "Could not find a spawn spot.\n");

	push	OFFSET ??_C@_0BO@HEFLNGKF@Could?5not?5find?5a?5spawn?5spot?4?6?$AA@
	push	1
	call	DWORD PTR ?g_engfuncs@@3Uenginefuncs_s@@A+244
	add	esp, 8

; 87   : 				break;

	jmp	SHORT $LN5@SpectatorI
$LN7@SpectatorI:

; 88   : 			}
; 89   : 			// Found a non-world entity, set success, otherwise, look for the next one.
; 90   : 			if (!FNullEnt(pCurrentGoal))

	mov	eax, DWORD PTR _pCurrentGoal$[ebp]
	push	eax
	call	?FNullEnt@@YAHPBUedict_s@@@Z		; FNullEnt
	add	esp, 4
	test	eax, eax
	jne	SHORT $LN8@SpectatorI

; 91   : 			{
; 92   : 				bFound = TRUE;

	mov	DWORD PTR _bFound$[ebp], 1

; 93   : 				break;

	jmp	SHORT $LN5@SpectatorI
$LN8@SpectatorI:

; 94   : 			}
; 95   : 		}

	jmp	SHORT $LN4@SpectatorI
$LN5@SpectatorI:

; 96   : 
; 97   : 		if (!bFound)  // Didn't find a good spot.

	cmp	DWORD PTR _bFound$[ebp], 0
	jne	SHORT $LN9@SpectatorI

; 98   : 			break;

	jmp	SHORT $LN2@SpectatorI
$LN9@SpectatorI:

; 99   : 		
; 100  : 		pGoal = pCurrentGoal;

	mov	eax, DWORD PTR _pCurrentGoal$[ebp]
	mov	DWORD PTR ?pGoal@?1??SpectatorImpulseCommand@CBaseSpectator@@AAEXXZ@4PAUedict_s@@A, eax

; 101  : 		UTIL_SetOrigin( this, pGoal->v.origin );

	mov	eax, DWORD PTR ?pGoal@?1??SpectatorImpulseCommand@CBaseSpectator@@AAEXXZ@4PAUedict_s@@A
	add	eax, 136				; 00000088H
	push	eax
	mov	ecx, DWORD PTR _this$[ebp]
	push	ecx
	call	?UTIL_SetOrigin@@YAXPAVCBaseEntity@@ABVVector@@@Z ; UTIL_SetOrigin
	add	esp, 8

; 102  : 		SetAbsAngles( pGoal->v.angles );

	mov	eax, DWORD PTR ?pGoal@?1??SpectatorImpulseCommand@CBaseSpectator@@AAEXXZ@4PAUedict_s@@A
	add	eax, 208				; 000000d0H
	push	eax
	mov	ecx, DWORD PTR _this$[ebp]
	call	?SetAbsAngles@CBaseEntity@@QAEXABVVector@@@Z ; CBaseEntity::SetAbsAngles

; 103  : 		pev->fixangle = FALSE;

	mov	eax, DWORD PTR _this$[ebp]
	mov	ecx, DWORD PTR [eax+4]
	mov	DWORD PTR [ecx+160], 0

; 104  : 		break;

	jmp	SHORT $LN2@SpectatorI
$LN10@SpectatorI:

; 105  : 	default:
; 106  : 		ALERT(at_console, "Unknown spectator impulse\n");

	push	OFFSET ??_C@_0BL@IGDIAIEK@Unknown?5spectator?5impulse?6?$AA@
	push	1
	call	DWORD PTR ?g_engfuncs@@3Uenginefuncs_s@@A+244
	add	esp, 8
$LN2@SpectatorI:

; 107  : 		break;
; 108  : 	}
; 109  : 
; 110  : 	pev->impulse = 0;

	mov	eax, DWORD PTR _this$[ebp]
	mov	ecx, DWORD PTR [eax+4]
	mov	DWORD PTR [ecx+388], 0

; 111  : }

	pop	edi
	pop	esi
	pop	ebx
	mov	esp, ebp
	pop	ebp
	ret	0
?SpectatorImpulseCommand@CBaseSpectator@@AAEXXZ ENDP	; CBaseSpectator::SpectatorImpulseCommand
_TEXT	ENDS
; Function compile flags: /Odtp /ZI
; File d:\!diffusion 2020\source code 2022\client-server\server\game\spectator.cpp
;	COMDAT ?SpectatorThink@CBaseSpectator@@QAEXXZ
_TEXT	SEGMENT
_this$ = -4						; size = 4
?SpectatorThink@CBaseSpectator@@QAEXXZ PROC		; CBaseSpectator::SpectatorThink, COMDAT
; _this$ = ecx

; 121  : {

	push	ebp
	mov	ebp, esp
	sub	esp, 68					; 00000044H
	push	ebx
	push	esi
	push	edi
	mov	DWORD PTR _this$[ebp], ecx

; 122  : 	if (!(pev->flags & FL_SPECTATOR))

	mov	eax, DWORD PTR _this$[ebp]
	mov	ecx, DWORD PTR [eax+4]
	mov	edx, DWORD PTR [ecx+420]
	and	edx, 67108864				; 04000000H
	jne	SHORT $LN2@SpectatorT

; 123  : 		pev->flags = FL_SPECTATOR;

	mov	eax, DWORD PTR _this$[ebp]
	mov	ecx, DWORD PTR [eax+4]
	mov	DWORD PTR [ecx+420], 67108864		; 04000000H
$LN2@SpectatorT:

; 124  : 
; 125  : 	pev->solid	   = SOLID_NOT;

	mov	eax, DWORD PTR _this$[ebp]
	mov	ecx, DWORD PTR [eax+4]
	mov	DWORD PTR [ecx+268], 0

; 126  : 	pev->movetype  = MOVETYPE_NOCLIP;

	mov	eax, DWORD PTR _this$[ebp]
	mov	ecx, DWORD PTR [eax+4]
	mov	DWORD PTR [ecx+264], 8

; 127  : 
; 128  : 	if (pev->impulse)

	mov	eax, DWORD PTR _this$[ebp]
	mov	ecx, DWORD PTR [eax+4]
	cmp	DWORD PTR [ecx+388], 0
	je	SHORT $LN1@SpectatorT

; 129  : 		SpectatorImpulseCommand();

	mov	ecx, DWORD PTR _this$[ebp]
	call	?SpectatorImpulseCommand@CBaseSpectator@@AAEXXZ ; CBaseSpectator::SpectatorImpulseCommand
$LN1@SpectatorT:

; 130  : }

	pop	edi
	pop	esi
	pop	ebx
	mov	esp, ebp
	pop	ebp
	ret	0
?SpectatorThink@CBaseSpectator@@QAEXXZ ENDP		; CBaseSpectator::SpectatorThink
_TEXT	ENDS
; Function compile flags: /Odtp /ZI
; File d:\!diffusion 2020\source code 2022\client-server\server\game\spectator.cpp
;	COMDAT ?SpectatorDisconnect@CBaseSpectator@@QAEXXZ
_TEXT	SEGMENT
_this$ = -4						; size = 4
?SpectatorDisconnect@CBaseSpectator@@QAEXXZ PROC	; CBaseSpectator::SpectatorDisconnect, COMDAT
; _this$ = ecx

; 51   : {

	push	ebp
	mov	ebp, esp
	sub	esp, 68					; 00000044H
	push	ebx
	push	esi
	push	edi
	mov	DWORD PTR _this$[ebp], ecx

; 52   : }

	pop	edi
	pop	esi
	pop	ebx
	mov	esp, ebp
	pop	ebp
	ret	0
?SpectatorDisconnect@CBaseSpectator@@QAEXXZ ENDP	; CBaseSpectator::SpectatorDisconnect
_TEXT	ENDS
; Function compile flags: /Odtp /ZI
; File d:\!diffusion 2020\source code 2022\client-server\server\game\spectator.cpp
;	COMDAT ?SpectatorConnect@CBaseSpectator@@QAEXXZ
_TEXT	SEGMENT
_this$ = -4						; size = 4
?SpectatorConnect@CBaseSpectator@@QAEXXZ PROC		; CBaseSpectator::SpectatorConnect, COMDAT
; _this$ = ecx

; 35   : {

	push	ebp
	mov	ebp, esp
	sub	esp, 68					; 00000044H
	push	ebx
	push	esi
	push	edi
	mov	DWORD PTR _this$[ebp], ecx

; 36   : 	pev->flags = FL_SPECTATOR;

	mov	eax, DWORD PTR _this$[ebp]
	mov	ecx, DWORD PTR [eax+4]
	mov	DWORD PTR [ecx+420], 67108864		; 04000000H

; 37   : 	pev->solid = SOLID_NOT;

	mov	eax, DWORD PTR _this$[ebp]
	mov	ecx, DWORD PTR [eax+4]
	mov	DWORD PTR [ecx+268], 0

; 38   : 	pev->movetype = MOVETYPE_NOCLIP;

	mov	eax, DWORD PTR _this$[ebp]
	mov	ecx, DWORD PTR [eax+4]
	mov	DWORD PTR [ecx+264], 8

; 39   : 	
; 40   : 	m_pGoalEnt = NULL;

	mov	eax, DWORD PTR _this$[ebp]
	mov	DWORD PTR [eax+8], 0

; 41   : }

	pop	edi
	pop	esi
	pop	ebx
	mov	esp, ebp
	pop	ebp
	ret	0
?SpectatorConnect@CBaseSpectator@@QAEXXZ ENDP		; CBaseSpectator::SpectatorConnect
_TEXT	ENDS
; Function compile flags: /Odtp /ZI
; File d:\!diffusion 2020\source code 2022\client-server\server\game\spectator.cpp
;	COMDAT ?Spawn@CBaseSpectator@@UAEXXZ
_TEXT	SEGMENT
_this$ = -4						; size = 4
?Spawn@CBaseSpectator@@UAEXXZ PROC			; CBaseSpectator::Spawn, COMDAT
; _this$ = ecx

; 141  : {

	push	ebp
	mov	ebp, esp
	sub	esp, 68					; 00000044H
	push	ebx
	push	esi
	push	edi
	mov	DWORD PTR _this$[ebp], ecx

; 142  : 	pev->flags = FL_SPECTATOR;

	mov	eax, DWORD PTR _this$[ebp]
	mov	ecx, DWORD PTR [eax+4]
	mov	DWORD PTR [ecx+420], 67108864		; 04000000H

; 143  : 	pev->solid = SOLID_NOT;

	mov	eax, DWORD PTR _this$[ebp]
	mov	ecx, DWORD PTR [eax+4]
	mov	DWORD PTR [ecx+268], 0

; 144  : 	pev->movetype = MOVETYPE_NOCLIP;

	mov	eax, DWORD PTR _this$[ebp]
	mov	ecx, DWORD PTR [eax+4]
	mov	DWORD PTR [ecx+264], 8

; 145  : 	
; 146  : 	m_pGoalEnt = NULL;

	mov	eax, DWORD PTR _this$[ebp]
	mov	DWORD PTR [eax+8], 0

; 147  : }

	pop	edi
	pop	esi
	pop	ebx
	mov	esp, ebp
	pop	ebp
	ret	0
?Spawn@CBaseSpectator@@UAEXXZ ENDP			; CBaseSpectator::Spawn
_TEXT	ENDS
; Function compile flags: /Odtp /ZI
; File d:\!diffusion 2020\source code 2022\client-server\server\util.h
;	COMDAT ?FNullEnt@@YAHPBUedict_s@@@Z
_TEXT	SEGMENT
tv70 = -68						; size = 4
_pent$ = 8						; size = 4
?FNullEnt@@YAHPBUedict_s@@@Z PROC			; FNullEnt, COMDAT

; 196  : inline BOOL FNullEnt(const edict_t* pent)	{ return pent == NULL || FNullEnt(OFFSET(pent)); }

	push	ebp
	mov	ebp, esp
	sub	esp, 68					; 00000044H
	push	ebx
	push	esi
	push	edi
	cmp	DWORD PTR _pent$[ebp], 0
	je	SHORT $LN3@FNullEnt
	mov	eax, DWORD PTR _pent$[ebp]
	push	eax
	call	?OFFSET@@YAHPBUedict_s@@@Z		; OFFSET
	add	esp, 4
	push	eax
	call	?FNullEnt@@YAHH@Z			; FNullEnt
	add	esp, 4
	test	eax, eax
	jne	SHORT $LN3@FNullEnt
	mov	DWORD PTR tv70[ebp], 0
	jmp	SHORT $LN4@FNullEnt
$LN3@FNullEnt:
	mov	DWORD PTR tv70[ebp], 1
$LN4@FNullEnt:
	mov	eax, DWORD PTR tv70[ebp]
	pop	edi
	pop	esi
	pop	ebx
	mov	esp, ebp
	pop	ebp
	ret	0
?FNullEnt@@YAHPBUedict_s@@@Z ENDP			; FNullEnt
_TEXT	ENDS
; Function compile flags: /Odtp /ZI
; File d:\!diffusion 2020\source code 2022\client-server\server\util.h
;	COMDAT ?FNullEnt@@YAHH@Z
_TEXT	SEGMENT
tv65 = -68						; size = 4
_eoffset$ = 8						; size = 4
?FNullEnt@@YAHH@Z PROC					; FNullEnt, COMDAT

; 195  : inline BOOL FNullEnt(EOFFSET eoffset)			{ return eoffset == 0; }

	push	ebp
	mov	ebp, esp
	sub	esp, 68					; 00000044H
	push	ebx
	push	esi
	push	edi
	cmp	DWORD PTR _eoffset$[ebp], 0
	jne	SHORT $LN3@FNullEnt
	mov	DWORD PTR tv65[ebp], 1
	jmp	SHORT $LN4@FNullEnt
$LN3@FNullEnt:
	mov	DWORD PTR tv65[ebp], 0
$LN4@FNullEnt:
	mov	eax, DWORD PTR tv65[ebp]
	pop	edi
	pop	esi
	pop	ebx
	mov	esp, ebp
	pop	ebp
	ret	0
?FNullEnt@@YAHH@Z ENDP					; FNullEnt
_TEXT	ENDS
; Function compile flags: /Odtp /ZI
; File d:\!diffusion 2020\source code 2022\client-server\server\util.h
;	COMDAT ?OFFSET@@YAHPBUedict_s@@@Z
_TEXT	SEGMENT
_pent$ = 8						; size = 4
?OFFSET@@YAHPBUedict_s@@@Z PROC				; OFFSET, COMDAT

; 160  : { 

	push	ebp
	mov	ebp, esp
	sub	esp, 64					; 00000040H
	push	ebx
	push	esi
	push	edi

; 161  : #if _DEBUG
; 162  : 	if ( !pent )

	cmp	DWORD PTR _pent$[ebp], 0
	jne	SHORT $LN2@OFFSET

; 163  : 		ALERT( at_error, "Bad ent in OFFSET()\n" );

	push	OFFSET ??_C@_0BF@CPEPILID@Bad?5ent?5in?5OFFSET?$CI?$CJ?6?$AA@
	push	4
	call	DWORD PTR ?g_engfuncs@@3Uenginefuncs_s@@A+244
	add	esp, 8
$LN2@OFFSET:

; 164  : #endif
; 165  : 	return (*g_engfuncs.pfnEntOffsetOfPEntity)(pent); 

	mov	eax, DWORD PTR _pent$[ebp]
	push	eax
	call	DWORD PTR ?g_engfuncs@@3Uenginefuncs_s@@A+280
	add	esp, 4

; 166  : }

	pop	edi
	pop	esi
	pop	ebx
	mov	esp, ebp
	pop	ebp
	ret	0
?OFFSET@@YAHPBUedict_s@@@Z ENDP				; OFFSET
_TEXT	ENDS
; Function compile flags: /Odtp /ZI
; File d:\!diffusion 2020\source code 2022\client-server\server\util.h
;	COMDAT ?FIND_ENTITY_BY_CLASSNAME@@YAPAUedict_s@@PAU1@PBD@Z
_TEXT	SEGMENT
_entStart$ = 8						; size = 4
_pszName$ = 12						; size = 4
?FIND_ENTITY_BY_CLASSNAME@@YAPAUedict_s@@PAU1@PBD@Z PROC ; FIND_ENTITY_BY_CLASSNAME, COMDAT

; 109  : {

	push	ebp
	mov	ebp, esp
	sub	esp, 64					; 00000040H
	push	ebx
	push	esi
	push	edi

; 110  : 	return FIND_ENTITY_BY_STRING(entStart, "classname", pszName);

	mov	eax, DWORD PTR _pszName$[ebp]
	push	eax
	push	OFFSET ??_C@_09CNJINBGN@classname?$AA@
	mov	ecx, DWORD PTR _entStart$[ebp]
	push	ecx
	call	DWORD PTR ?g_engfuncs@@3Uenginefuncs_s@@A+56
	add	esp, 12					; 0000000cH

; 111  : }	

	pop	edi
	pop	esi
	pop	ebx
	mov	esp, ebp
	pop	ebp
	ret	0
?FIND_ENTITY_BY_CLASSNAME@@YAPAUedict_s@@PAU1@PBD@Z ENDP ; FIND_ENTITY_BY_CLASSNAME
_TEXT	ENDS
; Function compile flags: /Odtp /ZI
; File d:\!diffusion 2020\source code 2022\client-server\server\game\spectator.cpp
;	COMDAT ?__empty_global_delete@@YAXPAXI@Z
_TEXT	SEGMENT
___formal$ = 8						; size = 4
___formal$ = 12						; size = 4
?__empty_global_delete@@YAXPAXI@Z PROC			; __empty_global_delete, COMDAT

	push	ebp
	mov	ebp, esp
	sub	esp, 64					; 00000040H
	push	ebx
	push	esi
	push	edi
	pop	edi
	pop	esi
	pop	ebx
	mov	esp, ebp
	pop	ebp
	ret	0
?__empty_global_delete@@YAXPAXI@Z ENDP			; __empty_global_delete
_TEXT	ENDS
; Function compile flags: /Odtp /ZI
; File d:\!diffusion 2020\source code 2022\client-server\server\game\spectator.cpp
;	COMDAT ?__empty_global_delete@@YAXPAX@Z
_TEXT	SEGMENT
___formal$ = 8						; size = 4
?__empty_global_delete@@YAXPAX@Z PROC			; __empty_global_delete, COMDAT

	push	ebp
	mov	ebp, esp
	sub	esp, 64					; 00000040H
	push	ebx
	push	esi
	push	edi
	pop	edi
	pop	esi
	pop	ebx
	mov	esp, ebp
	pop	ebp
	ret	0
?__empty_global_delete@@YAXPAX@Z ENDP			; __empty_global_delete
_TEXT	ENDS
; Function compile flags: /Odtp /ZI
;	COMDAT ??__G@YGXPAX0IIP6EPAX00@Z@Z
_TEXT	SEGMENT
tv66 = -68						; size = 4
___t$ = 8						; size = 4
___u$ = 12						; size = 4
___s$ = 16						; size = 4
___n$ = 20						; size = 4
___f$ = 24						; size = 4
??__G@YGXPAX0IIP6EPAX00@Z@Z PROC			; `vector copy constructor iterator', COMDAT
	push	ebp
	mov	ebp, esp
	sub	esp, 68					; 00000044H
	push	ebx
	push	esi
	push	edi
$LN2@vector:
	mov	eax, DWORD PTR ___n$[ebp]
	mov	DWORD PTR tv66[ebp], eax
	mov	ecx, DWORD PTR ___n$[ebp]
	sub	ecx, 1
	mov	DWORD PTR ___n$[ebp], ecx
	cmp	DWORD PTR tv66[ebp], 0
	jbe	SHORT $LN1@vector
	mov	eax, DWORD PTR ___u$[ebp]
	push	eax
	mov	ecx, DWORD PTR ___t$[ebp]
	call	DWORD PTR ___f$[ebp]
	mov	eax, DWORD PTR ___t$[ebp]
	add	eax, DWORD PTR ___s$[ebp]
	mov	DWORD PTR ___t$[ebp], eax
	mov	eax, DWORD PTR ___u$[ebp]
	add	eax, DWORD PTR ___s$[ebp]
	mov	DWORD PTR ___u$[ebp], eax
	jmp	SHORT $LN2@vector
$LN1@vector:
	pop	edi
	pop	esi
	pop	ebx
	mov	esp, ebp
	pop	ebp
	ret	20					; 00000014H
??__G@YGXPAX0IIP6EPAX00@Z@Z ENDP			; `vector copy constructor iterator'
_TEXT	ENDS
; Function compile flags: /Odtp /ZI
;	COMDAT ??_H@YGXPAXIIP6EPAX0@Z@Z
_TEXT	SEGMENT
tv66 = -68						; size = 4
___t$ = 8						; size = 4
___s$ = 12						; size = 4
___n$ = 16						; size = 4
___f$ = 20						; size = 4
??_H@YGXPAXIIP6EPAX0@Z@Z PROC				; `vector constructor iterator', COMDAT
	push	ebp
	mov	ebp, esp
	sub	esp, 68					; 00000044H
	push	ebx
	push	esi
	push	edi
$LN2@vector:
	mov	eax, DWORD PTR ___n$[ebp]
	mov	DWORD PTR tv66[ebp], eax
	mov	ecx, DWORD PTR ___n$[ebp]
	sub	ecx, 1
	mov	DWORD PTR ___n$[ebp], ecx
	cmp	DWORD PTR tv66[ebp], 0
	jbe	SHORT $LN1@vector
	mov	ecx, DWORD PTR ___t$[ebp]
	call	DWORD PTR ___f$[ebp]
	mov	eax, DWORD PTR ___t$[ebp]
	add	eax, DWORD PTR ___s$[ebp]
	mov	DWORD PTR ___t$[ebp], eax
	jmp	SHORT $LN2@vector
$LN1@vector:
	pop	edi
	pop	esi
	pop	ebx
	mov	esp, ebp
	pop	ebp
	ret	16					; 00000010H
??_H@YGXPAXIIP6EPAX0@Z@Z ENDP				; `vector constructor iterator'
_TEXT	ENDS
END
