; Listing generated by Microsoft (R) Optimizing Compiler Version 19.00.24247.2 

	TITLE	D:\!DIFFUSION 2020\source code 2022\client-server\server\game\stats.cpp
	.686P
	.XMM
	include listing.inc
	.model	flat

INCLUDELIB LIBCMT
INCLUDELIB OLDNAMES

PUBLIC	?gStats@@3UTESTSTATS@@A				; gStats
_BSS	SEGMENT
?gStats@@3UTESTSTATS@@A DB 01cH DUP (?)			; gStats
_BSS	ENDS
PUBLIC	??_H@YGXPAXIIP6EPAX0@Z@Z			; `vector constructor iterator'
PUBLIC	??__G@YGXPAX0IIP6EPAX00@Z@Z			; `vector copy constructor iterator'
PUBLIC	?__empty_global_delete@@YAXPAX@Z		; __empty_global_delete
PUBLIC	?__empty_global_delete@@YAXPAXI@Z		; __empty_global_delete
PUBLIC	___local_stdio_printf_options
PUBLIC	__vfprintf_l
PUBLIC	_fprintf
PUBLIC	??$__vcrt_va_start_verify_argument_type@QBD@@YAXXZ ; __vcrt_va_start_verify_argument_type<char const * const>
PUBLIC	_fabsf
PUBLIC	?fabs@@YAMM@Z					; fabs
PUBLIC	?AmmoDamage@@YAMPBD@Z				; AmmoDamage
PUBLIC	?UpdateStatsFile@@YAXMPADMMH@Z			; UpdateStatsFile
PUBLIC	?UpdateStats@@YAXPAVCBasePlayer@@@Z		; UpdateStats
PUBLIC	?InitStats@@YAXPAVCBasePlayer@@@Z		; InitStats
PUBLIC	?_OptionsStorage@?1??__local_stdio_printf_options@@9@4_KA ; `__local_stdio_printf_options'::`2'::_OptionsStorage
PUBLIC	??_C@_03MDMENKFB@9mm?$AA@			; `string'
PUBLIC	??_C@_03IOICPAOD@357?$AA@			; `string'
PUBLIC	??_C@_0L@FJEALEPG@ARgrenades?$AA@		; `string'
PUBLIC	??_C@_08BPIGABHK@buckshot?$AA@			; `string'
PUBLIC	??_C@_05DGHJLCJD@bolts?$AA@			; `string'
PUBLIC	??_C@_07DCMGFMFH@rockets?$AA@			; `string'
PUBLIC	??_C@_07CEHHGMGL@uranium?$AA@			; `string'
PUBLIC	??_C@_0N@OPHHBAA@Hand?5Grenade?$AA@		; `string'
PUBLIC	??_C@_0P@LMFBIKDH@Satchel?5Charge?$AA@		; `string'
PUBLIC	??_C@_09OKDBGJNM@Trip?5Mine?$AA@		; `string'
PUBLIC	??_C@_01MCMALHOG@a?$AA@				; `string'
PUBLIC	??_C@_09KOIJDDAN@stats?4txt?$AA@		; `string'
PUBLIC	??_C@_0BO@DMLMBEMO@?$CF6?42f?0?5?$CF6?42f?0?5?$CF6?42f?0?5?$CFs?0?5?$CF2d?6?$AA@ ; `string'
PUBLIC	??_C@_05ODMCMJAJ@skill?$AA@			; `string'
PUBLIC	__real@00000000
PUBLIC	__real@40000000
PUBLIC	__real@40400000
PUBLIC	__real@41200000
EXTRN	_memcpy:PROC
EXTRN	_memset:PROC
EXTRN	_strcmp:PROC
EXTRN	_fclose:PROC
EXTRN	_fopen:PROC
EXTRN	___stdio_common_vfprintf:PROC
EXTRN	_fabs:PROC
EXTRN	?GetAmmoIndex@CBasePlayer@@SAHPBD@Z:PROC	; CBasePlayer::GetAmmoIndex
EXTRN	@__security_check_cookie@4:PROC
EXTRN	__ftol2_sse:PROC
EXTRN	?g_engfuncs@@3Uenginefuncs_s@@A:BYTE		; g_engfuncs
EXTRN	?gpGlobals@@3PAUglobalvars_t@@A:DWORD		; gpGlobals
EXTRN	?AmmoInfoArray@CBasePlayerItem@@2PAUAmmoInfo@@A:BYTE ; CBasePlayerItem::AmmoInfoArray
EXTRN	?gSkillData@@3Uskilldata_t@@A:BYTE		; gSkillData
EXTRN	___security_cookie:DWORD
EXTRN	__fltused:DWORD
;	COMDAT ?_OptionsStorage@?1??__local_stdio_printf_options@@9@4_KA
_BSS	SEGMENT
?_OptionsStorage@?1??__local_stdio_printf_options@@9@4_KA DQ 01H DUP (?) ; `__local_stdio_printf_options'::`2'::_OptionsStorage
_BSS	ENDS
;	COMDAT __real@41200000
CONST	SEGMENT
__real@41200000 DD 041200000r			; 10
CONST	ENDS
;	COMDAT __real@40400000
CONST	SEGMENT
__real@40400000 DD 040400000r			; 3
CONST	ENDS
;	COMDAT __real@40000000
CONST	SEGMENT
__real@40000000 DD 040000000r			; 2
CONST	ENDS
;	COMDAT __real@00000000
CONST	SEGMENT
__real@00000000 DD 000000000r			; 0
CONST	ENDS
;	COMDAT ??_C@_05ODMCMJAJ@skill?$AA@
CONST	SEGMENT
??_C@_05ODMCMJAJ@skill?$AA@ DB 'skill', 00H		; `string'
CONST	ENDS
;	COMDAT ??_C@_0BO@DMLMBEMO@?$CF6?42f?0?5?$CF6?42f?0?5?$CF6?42f?0?5?$CFs?0?5?$CF2d?6?$AA@
CONST	SEGMENT
??_C@_0BO@DMLMBEMO@?$CF6?42f?0?5?$CF6?42f?0?5?$CF6?42f?0?5?$CFs?0?5?$CF2d?6?$AA@ DB '%'
	DB	'6.2f, %6.2f, %6.2f, %s, %2d', 0aH, 00H	; `string'
CONST	ENDS
;	COMDAT ??_C@_09KOIJDDAN@stats?4txt?$AA@
CONST	SEGMENT
??_C@_09KOIJDDAN@stats?4txt?$AA@ DB 'stats.txt', 00H	; `string'
CONST	ENDS
;	COMDAT ??_C@_01MCMALHOG@a?$AA@
CONST	SEGMENT
??_C@_01MCMALHOG@a?$AA@ DB 'a', 00H			; `string'
CONST	ENDS
;	COMDAT ??_C@_09OKDBGJNM@Trip?5Mine?$AA@
CONST	SEGMENT
??_C@_09OKDBGJNM@Trip?5Mine?$AA@ DB 'Trip Mine', 00H	; `string'
CONST	ENDS
;	COMDAT ??_C@_0P@LMFBIKDH@Satchel?5Charge?$AA@
CONST	SEGMENT
??_C@_0P@LMFBIKDH@Satchel?5Charge?$AA@ DB 'Satchel Charge', 00H ; `string'
CONST	ENDS
;	COMDAT ??_C@_0N@OPHHBAA@Hand?5Grenade?$AA@
CONST	SEGMENT
??_C@_0N@OPHHBAA@Hand?5Grenade?$AA@ DB 'Hand Grenade', 00H ; `string'
CONST	ENDS
;	COMDAT ??_C@_07CEHHGMGL@uranium?$AA@
CONST	SEGMENT
??_C@_07CEHHGMGL@uranium?$AA@ DB 'uranium', 00H		; `string'
CONST	ENDS
;	COMDAT ??_C@_07DCMGFMFH@rockets?$AA@
CONST	SEGMENT
??_C@_07DCMGFMFH@rockets?$AA@ DB 'rockets', 00H		; `string'
CONST	ENDS
;	COMDAT ??_C@_05DGHJLCJD@bolts?$AA@
CONST	SEGMENT
??_C@_05DGHJLCJD@bolts?$AA@ DB 'bolts', 00H		; `string'
CONST	ENDS
;	COMDAT ??_C@_08BPIGABHK@buckshot?$AA@
CONST	SEGMENT
??_C@_08BPIGABHK@buckshot?$AA@ DB 'buckshot', 00H	; `string'
CONST	ENDS
;	COMDAT ??_C@_0L@FJEALEPG@ARgrenades?$AA@
CONST	SEGMENT
??_C@_0L@FJEALEPG@ARgrenades?$AA@ DB 'ARgrenades', 00H	; `string'
CONST	ENDS
;	COMDAT ??_C@_03IOICPAOD@357?$AA@
CONST	SEGMENT
??_C@_03IOICPAOD@357?$AA@ DB '357', 00H			; `string'
CONST	ENDS
;	COMDAT ??_C@_03MDMENKFB@9mm?$AA@
CONST	SEGMENT
??_C@_03MDMENKFB@9mm?$AA@ DB '9mm', 00H			; `string'
CONST	ENDS
; Function compile flags: /Odtp /ZI
; File d:\!diffusion 2020\source code 2022\client-server\server\game\stats.cpp
;	COMDAT ?InitStats@@YAXPAVCBasePlayer@@@Z
_TEXT	SEGMENT
_pPlayer$ = 8						; size = 4
?InitStats@@YAXPAVCBasePlayer@@@Z PROC			; InitStats, COMDAT

; 155  : {

	push	ebp
	mov	ebp, esp
	sub	esp, 64					; 00000040H
	push	ebx
	push	esi
	push	edi

; 156  : 	gStats.lastGameTime = gpGlobals->time;	// Fixup stats time

	mov	eax, DWORD PTR ?gpGlobals@@3PAUglobalvars_t@@A ; gpGlobals
	movss	xmm0, DWORD PTR [eax]
	movss	DWORD PTR ?gStats@@3UTESTSTATS@@A+24, xmm0

; 157  : }

	pop	edi
	pop	esi
	pop	ebx
	mov	esp, ebp
	pop	ebp
	ret	0
?InitStats@@YAXPAVCBasePlayer@@@Z ENDP			; InitStats
_TEXT	ENDS
; Function compile flags: /Odtp /ZI
; File d:\!diffusion 2020\source code 2022\client-server\server\game\stats.cpp
;	COMDAT ?UpdateStats@@YAXPAVCBasePlayer@@@Z
_TEXT	SEGMENT
tv230 = -280						; size = 4
tv277 = -276						; size = 4
_forceWrite$ = -208					; size = 4
_healthDelta$ = -204					; size = 4
_ammoDelta$ = -200					; size = 4
_health$ = -196						; size = 4
_ammo$ = -192						; size = 4
_index$1 = -188						; size = 4
_II$2 = -184						; size = 44
_p$3 = -140						; size = 4
_ammoCount$ = -136					; size = 128
_i$ = -8						; size = 4
__$ArrayPad$ = -4					; size = 4
_pPlayer$ = 8						; size = 4
?UpdateStats@@YAXPAVCBasePlayer@@@Z PROC		; UpdateStats, COMDAT

; 85   : {

	push	ebp
	mov	ebp, esp
	sub	esp, 280				; 00000118H
	mov	eax, DWORD PTR ___security_cookie
	xor	eax, ebp
	mov	DWORD PTR __$ArrayPad$[ebp], eax
	push	ebx
	push	esi
	push	edi

; 86   : 	int i;
; 87   : 
; 88   : 	int ammoCount[ MAX_AMMO_SLOTS ];
; 89   : 	memcpy( ammoCount, pPlayer->m_rgAmmo, MAX_AMMO_SLOTS * sizeof(int) );

	push	128					; 00000080H
	mov	eax, DWORD PTR _pPlayer$[ebp]
	add	eax, 3628				; 00000e2cH
	push	eax
	lea	ecx, DWORD PTR _ammoCount$[ebp]
	push	ecx
	call	_memcpy
	add	esp, 12					; 0000000cH

; 90   : 
; 91   : 	// Keep a running time, so the graph doesn't overlap
; 92   : 	
; 93   : 	if ( gpGlobals->time < gStats.lastGameTime )	// Changed level or died, don't b0rk

	mov	eax, DWORD PTR ?gpGlobals@@3PAUglobalvars_t@@A ; gpGlobals
	movss	xmm0, DWORD PTR ?gStats@@3UTESTSTATS@@A+24
	comiss	xmm0, DWORD PTR [eax]
	jbe	SHORT $LN10@UpdateStat

; 94   : 	{
; 95   : 		gStats.lastGameTime = gpGlobals->time;

	mov	eax, DWORD PTR ?gpGlobals@@3PAUglobalvars_t@@A ; gpGlobals
	movss	xmm0, DWORD PTR [eax]
	movss	DWORD PTR ?gStats@@3UTESTSTATS@@A+24, xmm0

; 96   : 		gStats.dataTime = gStats.gameTime;

	movss	xmm0, DWORD PTR ?gStats@@3UTESTSTATS@@A+20
	movss	DWORD PTR ?gStats@@3UTESTSTATS@@A+16, xmm0
$LN10@UpdateStat:

; 97   : 	}
; 98   : 
; 99   : 	gStats.gameTime += gpGlobals->time - gStats.lastGameTime;

	mov	eax, DWORD PTR ?gpGlobals@@3PAUglobalvars_t@@A ; gpGlobals
	movss	xmm0, DWORD PTR [eax]
	subss	xmm0, DWORD PTR ?gStats@@3UTESTSTATS@@A+24
	addss	xmm0, DWORD PTR ?gStats@@3UTESTSTATS@@A+20
	movss	DWORD PTR ?gStats@@3UTESTSTATS@@A+20, xmm0

; 100  : 	gStats.lastGameTime = gpGlobals->time;

	mov	eax, DWORD PTR ?gpGlobals@@3PAUglobalvars_t@@A ; gpGlobals
	movss	xmm0, DWORD PTR [eax]
	movss	DWORD PTR ?gStats@@3UTESTSTATS@@A+24, xmm0

; 101  : 
; 102  : 	for (i = 0; i < MAX_ITEM_TYPES; i++)

	mov	DWORD PTR _i$[ebp], 0
	jmp	SHORT $LN4@UpdateStat
$LN2@UpdateStat:
	mov	eax, DWORD PTR _i$[ebp]
	add	eax, 1
	mov	DWORD PTR _i$[ebp], eax
$LN4@UpdateStat:
	cmp	DWORD PTR _i$[ebp], 6
	jge	$LN3@UpdateStat

; 103  : 	{
; 104  : 		CBasePlayerItem *p = pPlayer->m_rgpPlayerItems[i];

	mov	eax, DWORD PTR _i$[ebp]
	mov	ecx, DWORD PTR _pPlayer$[ebp]
	mov	edx, DWORD PTR [ecx+eax*4+3076]
	mov	DWORD PTR _p$3[ebp], edx
$LN5@UpdateStat:

; 105  : 		while (p)

	cmp	DWORD PTR _p$3[ebp], 0
	je	$LN6@UpdateStat

; 106  : 		{
; 107  : 			ItemInfo II;
; 108  : 			
; 109  : 			memset(&II, 0, sizeof(II));

	push	44					; 0000002cH
	push	0
	lea	eax, DWORD PTR _II$2[ebp]
	push	eax
	call	_memset
	add	esp, 12					; 0000000cH

; 110  : 			p->GetItemInfo(&II);

	lea	eax, DWORD PTR _II$2[ebp]
	push	eax
	mov	ecx, DWORD PTR _p$3[ebp]
	mov	edx, DWORD PTR [ecx]
	mov	ecx, DWORD PTR _p$3[ebp]
	mov	eax, DWORD PTR [edx+388]
	call	eax

; 111  : 
; 112  : 			int index = pPlayer->GetAmmoIndex(II.pszAmmo1);

	mov	eax, DWORD PTR _II$2[ebp+8]
	push	eax
	call	?GetAmmoIndex@CBasePlayer@@SAHPBD@Z	; CBasePlayer::GetAmmoIndex
	add	esp, 4
	mov	DWORD PTR _index$1[ebp], eax

; 113  : 			if ( index >= 0 )

	cmp	DWORD PTR _index$1[ebp], 0
	jl	SHORT $LN11@UpdateStat

; 114  : 				ammoCount[ index ] += ((CBasePlayerWeapon *)p)->m_iClip;

	mov	eax, DWORD PTR _index$1[ebp]
	mov	ecx, DWORD PTR _ammoCount$[ebp+eax*4]
	mov	edx, DWORD PTR _p$3[ebp]
	add	ecx, DWORD PTR [edx+1904]
	mov	eax, DWORD PTR _index$1[ebp]
	mov	DWORD PTR _ammoCount$[ebp+eax*4], ecx
$LN11@UpdateStat:

; 115  : 			
; 116  : 			p = p->m_pNext;

	mov	eax, DWORD PTR _p$3[ebp]
	mov	ecx, DWORD PTR [eax+1860]
	mov	DWORD PTR _p$3[ebp], ecx

; 117  : 		}

	jmp	$LN5@UpdateStat
$LN6@UpdateStat:

; 118  : 	}

	jmp	$LN2@UpdateStat
$LN3@UpdateStat:

; 119  : 
; 120  : 	float ammo = 0;

	xorps	xmm0, xmm0
	movss	DWORD PTR _ammo$[ebp], xmm0

; 121  : 	for (i = 1; i < MAX_AMMO_SLOTS; i++)

	mov	DWORD PTR _i$[ebp], 1
	jmp	SHORT $LN9@UpdateStat
$LN7@UpdateStat:
	mov	eax, DWORD PTR _i$[ebp]
	add	eax, 1
	mov	DWORD PTR _i$[ebp], eax
$LN9@UpdateStat:
	cmp	DWORD PTR _i$[ebp], 32			; 00000020H
	jge	SHORT $LN8@UpdateStat

; 122  : 	{
; 123  : 		ammo += ammoCount[i] * AmmoDamage( CBasePlayerItem::AmmoInfoArray[i].pszName );

	mov	eax, DWORD PTR _i$[ebp]
	cvtsi2ss xmm0, DWORD PTR _ammoCount$[ebp+eax*4]
	mov	ecx, DWORD PTR _i$[ebp]
	mov	edx, DWORD PTR ?AmmoInfoArray@CBasePlayerItem@@2PAUAmmoInfo@@A[ecx*8]
	push	edx
	movss	DWORD PTR tv277[ebp], xmm0
	call	?AmmoDamage@@YAMPBD@Z			; AmmoDamage
	add	esp, 4
	fstp	DWORD PTR tv230[ebp]
	movss	xmm0, DWORD PTR tv277[ebp]
	mulss	xmm0, DWORD PTR tv230[ebp]
	addss	xmm0, DWORD PTR _ammo$[ebp]
	movss	DWORD PTR _ammo$[ebp], xmm0

; 124  : 	}

	jmp	SHORT $LN7@UpdateStat
$LN8@UpdateStat:

; 125  : 
; 126  : 	float health = pPlayer->pev->health + pPlayer->pev->armorvalue * 2;	// Armor is 2X health

	mov	eax, DWORD PTR _pPlayer$[ebp]
	mov	ecx, DWORD PTR [eax+4]
	mov	edx, DWORD PTR _pPlayer$[ebp]
	mov	eax, DWORD PTR [edx+4]
	movss	xmm0, DWORD PTR [eax+444]
	mulss	xmm0, DWORD PTR __real@40000000
	addss	xmm0, DWORD PTR [ecx+352]
	movss	DWORD PTR _health$[ebp], xmm0

; 127  : 	float ammoDelta = fabs( ammo - gStats.lastAmmo );

	cvtsi2ss xmm0, DWORD PTR ?gStats@@3UTESTSTATS@@A
	movss	xmm1, DWORD PTR _ammo$[ebp]
	subss	xmm1, xmm0
	push	ecx
	movss	DWORD PTR [esp], xmm1
	call	?fabs@@YAMM@Z				; fabs
	add	esp, 4
	fstp	DWORD PTR _ammoDelta$[ebp]

; 128  : 	float healthDelta = fabs( health - gStats.lastHealth );

	movss	xmm0, DWORD PTR _health$[ebp]
	subss	xmm0, DWORD PTR ?gStats@@3UTESTSTATS@@A+4
	push	ecx
	movss	DWORD PTR [esp], xmm0
	call	?fabs@@YAMM@Z				; fabs
	add	esp, 4
	fstp	DWORD PTR _healthDelta$[ebp]

; 129  : 	int forceWrite = 0;

	mov	DWORD PTR _forceWrite$[ebp], 0

; 130  : 	if ( health <= 0 && gStats.lastHealth > 0 )

	xorps	xmm0, xmm0
	comiss	xmm0, DWORD PTR _health$[ebp]
	jb	SHORT $LN12@UpdateStat
	movss	xmm0, DWORD PTR ?gStats@@3UTESTSTATS@@A+4
	comiss	xmm0, DWORD PTR __real@00000000
	jbe	SHORT $LN12@UpdateStat

; 131  : 		forceWrite = 1;

	mov	DWORD PTR _forceWrite$[ebp], 1
$LN12@UpdateStat:

; 132  : 
; 133  : 	if ( (ammoDelta > AMMO_THRESHOLD || healthDelta > HEALTH_THRESHOLD) && !forceWrite )

	movss	xmm0, DWORD PTR _ammoDelta$[ebp]
	comiss	xmm0, DWORD PTR __real@41200000
	ja	SHORT $LN15@UpdateStat
	movss	xmm0, DWORD PTR _healthDelta$[ebp]
	comiss	xmm0, DWORD PTR __real@41200000
	jbe	SHORT $LN13@UpdateStat
$LN15@UpdateStat:
	cmp	DWORD PTR _forceWrite$[ebp], 0
	jne	SHORT $LN13@UpdateStat

; 134  : 	{
; 135  : 		if ( gStats.nextOutputTime == 0 )

	movss	xmm0, DWORD PTR ?gStats@@3UTESTSTATS@@A+12
	ucomiss	xmm0, DWORD PTR __real@00000000
	lahf
	test	ah, 68					; 00000044H
	jp	SHORT $LN16@UpdateStat

; 136  : 			gStats.dataTime = gStats.gameTime;

	movss	xmm0, DWORD PTR ?gStats@@3UTESTSTATS@@A+20
	movss	DWORD PTR ?gStats@@3UTESTSTATS@@A+16, xmm0
$LN16@UpdateStat:

; 137  : 
; 138  : 		gStats.lastAmmo = ammo;

	cvttss2si eax, DWORD PTR _ammo$[ebp]
	mov	DWORD PTR ?gStats@@3UTESTSTATS@@A, eax

; 139  : 		gStats.lastHealth = health;

	movss	xmm0, DWORD PTR _health$[ebp]
	movss	DWORD PTR ?gStats@@3UTESTSTATS@@A+4, xmm0

; 140  : 
; 141  : 		gStats.nextOutputTime = gStats.gameTime + OUTPUT_LATENCY;

	movss	xmm0, DWORD PTR ?gStats@@3UTESTSTATS@@A+20
	addss	xmm0, DWORD PTR __real@40400000
	movss	DWORD PTR ?gStats@@3UTESTSTATS@@A+12, xmm0
	jmp	$LN17@UpdateStat
$LN13@UpdateStat:

; 142  : 	}
; 143  : 	else if ( (gStats.nextOutputTime != 0 && gStats.nextOutputTime < gStats.gameTime) || forceWrite )

	movss	xmm0, DWORD PTR ?gStats@@3UTESTSTATS@@A+12
	ucomiss	xmm0, DWORD PTR __real@00000000
	lahf
	test	ah, 68					; 00000044H
	jnp	SHORT $LN19@UpdateStat
	movss	xmm0, DWORD PTR ?gStats@@3UTESTSTATS@@A+20
	comiss	xmm0, DWORD PTR ?gStats@@3UTESTSTATS@@A+12
	ja	SHORT $LN18@UpdateStat
$LN19@UpdateStat:
	cmp	DWORD PTR _forceWrite$[ebp], 0
	je	$LN17@UpdateStat
$LN18@UpdateStat:

; 144  : 	{
; 145  : 		UpdateStatsFile( gStats.dataTime, (char *)STRING(gpGlobals->mapname), health, ammo, (int)CVAR_GET_FLOAT("skill") );

	push	OFFSET ??_C@_05ODMCMJAJ@skill?$AA@
	call	DWORD PTR ?g_engfuncs@@3Uenginefuncs_s@@A+228
	add	esp, 4
	call	__ftol2_sse
	push	eax
	push	ecx
	movss	xmm0, DWORD PTR _ammo$[ebp]
	movss	DWORD PTR [esp], xmm0
	push	ecx
	movss	xmm0, DWORD PTR _health$[ebp]
	movss	DWORD PTR [esp], xmm0
	mov	eax, DWORD PTR ?gpGlobals@@3PAUglobalvars_t@@A ; gpGlobals
	mov	ecx, DWORD PTR [eax+12]
	push	ecx
	call	DWORD PTR ?g_engfuncs@@3Uenginefuncs_s@@A+264
	add	esp, 4
	push	eax
	push	ecx
	movss	xmm0, DWORD PTR ?gStats@@3UTESTSTATS@@A+16
	movss	DWORD PTR [esp], xmm0
	call	?UpdateStatsFile@@YAXMPADMMH@Z		; UpdateStatsFile
	add	esp, 20					; 00000014H

; 146  : 
; 147  : 		gStats.lastAmmo = ammo;

	cvttss2si eax, DWORD PTR _ammo$[ebp]
	mov	DWORD PTR ?gStats@@3UTESTSTATS@@A, eax

; 148  : 		gStats.lastHealth = health;

	movss	xmm0, DWORD PTR _health$[ebp]
	movss	DWORD PTR ?gStats@@3UTESTSTATS@@A+4, xmm0

; 149  : 		gStats.lastOutputTime = gStats.gameTime;

	movss	xmm0, DWORD PTR ?gStats@@3UTESTSTATS@@A+20
	movss	DWORD PTR ?gStats@@3UTESTSTATS@@A+8, xmm0

; 150  : 		gStats.nextOutputTime = 0;

	xorps	xmm0, xmm0
	movss	DWORD PTR ?gStats@@3UTESTSTATS@@A+12, xmm0
$LN17@UpdateStat:

; 151  : 	}
; 152  : }

	pop	edi
	pop	esi
	pop	ebx
	mov	ecx, DWORD PTR __$ArrayPad$[ebp]
	xor	ecx, ebp
	call	@__security_check_cookie@4
	mov	esp, ebp
	pop	ebp
	ret	0
?UpdateStats@@YAXPAVCBasePlayer@@@Z ENDP		; UpdateStats
_TEXT	ENDS
; Function compile flags: /Odtp /ZI
; File d:\!diffusion 2020\source code 2022\client-server\server\game\stats.cpp
;	COMDAT ?UpdateStatsFile@@YAXMPADMMH@Z
_TEXT	SEGMENT
_fp$ = -4						; size = 4
_dataTime$ = 8						; size = 4
_pMapname$ = 12						; size = 4
_health$ = 16						; size = 4
_ammo$ = 20						; size = 4
_skillLevel$ = 24					; size = 4
?UpdateStatsFile@@YAXMPADMMH@Z PROC			; UpdateStatsFile, COMDAT

; 56   : {

	push	ebp
	mov	ebp, esp
	sub	esp, 68					; 00000044H
	push	ebx
	push	esi
	push	edi

; 57   : 	FILE *fp;
; 58   : 
; 59   : 	fp = fopen( "stats.txt", "a" );

	push	OFFSET ??_C@_01MCMALHOG@a?$AA@
	push	OFFSET ??_C@_09KOIJDDAN@stats?4txt?$AA@
	call	_fopen
	add	esp, 8
	mov	DWORD PTR _fp$[ebp], eax

; 60   : 	if ( !fp )

	cmp	DWORD PTR _fp$[ebp], 0
	jne	SHORT $LN2@UpdateStat

; 61   : 		return;

	jmp	SHORT $LN1@UpdateStat
$LN2@UpdateStat:

; 62   : 	fprintf( fp, "%6.2f, %6.2f, %6.2f, %s, %2d\n", dataTime, health, ammo, pMapname, skillLevel );

	mov	eax, DWORD PTR _skillLevel$[ebp]
	push	eax
	mov	ecx, DWORD PTR _pMapname$[ebp]
	push	ecx
	cvtss2sd xmm0, DWORD PTR _ammo$[ebp]
	sub	esp, 8
	movsd	QWORD PTR [esp], xmm0
	cvtss2sd xmm0, DWORD PTR _health$[ebp]
	sub	esp, 8
	movsd	QWORD PTR [esp], xmm0
	cvtss2sd xmm0, DWORD PTR _dataTime$[ebp]
	sub	esp, 8
	movsd	QWORD PTR [esp], xmm0
	push	OFFSET ??_C@_0BO@DMLMBEMO@?$CF6?42f?0?5?$CF6?42f?0?5?$CF6?42f?0?5?$CFs?0?5?$CF2d?6?$AA@
	mov	edx, DWORD PTR _fp$[ebp]
	push	edx
	call	_fprintf
	add	esp, 40					; 00000028H

; 63   : 	fclose( fp );

	mov	eax, DWORD PTR _fp$[ebp]
	push	eax
	call	_fclose
	add	esp, 4
$LN1@UpdateStat:

; 64   : }

	pop	edi
	pop	esi
	pop	ebx
	mov	esp, ebp
	pop	ebp
	ret	0
?UpdateStatsFile@@YAXMPADMMH@Z ENDP			; UpdateStatsFile
_TEXT	ENDS
; Function compile flags: /Odtp /ZI
; File d:\!diffusion 2020\source code 2022\client-server\server\game\stats.cpp
;	COMDAT ?AmmoDamage@@YAMPBD@Z
_TEXT	SEGMENT
_pName$ = 8						; size = 4
?AmmoDamage@@YAMPBD@Z PROC				; AmmoDamage, COMDAT

; 24   : {

	push	ebp
	mov	ebp, esp
	sub	esp, 64					; 00000040H
	push	ebx
	push	esi
	push	edi

; 25   : 	if ( !pName )

	cmp	DWORD PTR _pName$[ebp], 0
	jne	SHORT $LN2@AmmoDamage

; 26   : 		return 0;

	fldz
	jmp	$LN1@AmmoDamage
$LN2@AmmoDamage:

; 27   : 
; 28   : 	// diffusion BUGBUG - I'm not sure if the stats file is used at all, but anyway -
; 29   : 	// I got rid of skill.cfg for weapons, so this file must be adjusted somehow - I have distance-based damage right now
; 30   : 	if ( !strcmp( pName, "9mm" ) )

	push	OFFSET ??_C@_03MDMENKFB@9mm?$AA@
	mov	eax, DWORD PTR _pName$[ebp]
	push	eax
	call	_strcmp
	add	esp, 8
	test	eax, eax
	jne	SHORT $LN3@AmmoDamage

; 31   : 		return gSkillData.plrDmg9MM;

	fld	DWORD PTR ?gSkillData@@3Uskilldata_t@@A+244
	jmp	$LN1@AmmoDamage
$LN3@AmmoDamage:

; 32   : 	if ( !strcmp( pName, "357" ) )

	push	OFFSET ??_C@_03IOICPAOD@357?$AA@
	mov	eax, DWORD PTR _pName$[ebp]
	push	eax
	call	_strcmp
	add	esp, 8
	test	eax, eax
	jne	SHORT $LN4@AmmoDamage

; 33   : 		return gSkillData.plrDmg357;

	fld	DWORD PTR ?gSkillData@@3Uskilldata_t@@A+248
	jmp	$LN1@AmmoDamage
$LN4@AmmoDamage:

; 34   : 	if ( !strcmp( pName, "ARgrenades" ) )

	push	OFFSET ??_C@_0L@FJEALEPG@ARgrenades?$AA@
	mov	eax, DWORD PTR _pName$[ebp]
	push	eax
	call	_strcmp
	add	esp, 8
	test	eax, eax
	jne	SHORT $LN5@AmmoDamage

; 35   : 		return gSkillData.plrDmgM203Grenade;

	fld	DWORD PTR ?gSkillData@@3Uskilldata_t@@A+256
	jmp	$LN1@AmmoDamage
$LN5@AmmoDamage:

; 36   : 	if ( !strcmp( pName, "buckshot" ) )

	push	OFFSET ??_C@_08BPIGABHK@buckshot?$AA@
	mov	eax, DWORD PTR _pName$[ebp]
	push	eax
	call	_strcmp
	add	esp, 8
	test	eax, eax
	jne	SHORT $LN6@AmmoDamage

; 37   : 		return gSkillData.plrDmgBuckshot;

	fld	DWORD PTR ?gSkillData@@3Uskilldata_t@@A+260
	jmp	$LN1@AmmoDamage
$LN6@AmmoDamage:

; 38   : 	if ( !strcmp( pName, "bolts") )

	push	OFFSET ??_C@_05DGHJLCJD@bolts?$AA@
	mov	eax, DWORD PTR _pName$[ebp]
	push	eax
	call	_strcmp
	add	esp, 8
	test	eax, eax
	jne	SHORT $LN7@AmmoDamage

; 39   : 		return gSkillData.plrDmgCrossbowMonster;

	fld	DWORD PTR ?gSkillData@@3Uskilldata_t@@A+268
	jmp	$LN1@AmmoDamage
$LN7@AmmoDamage:

; 40   : 	if ( !strcmp( pName, "rockets") )

	push	OFFSET ??_C@_07DCMGFMFH@rockets?$AA@
	mov	eax, DWORD PTR _pName$[ebp]
	push	eax
	call	_strcmp
	add	esp, 8
	test	eax, eax
	jne	SHORT $LN8@AmmoDamage

; 41   : 		return gSkillData.plrDmgRPG;

	fld	DWORD PTR ?gSkillData@@3Uskilldata_t@@A+272
	jmp	SHORT $LN1@AmmoDamage
$LN8@AmmoDamage:

; 42   : 	if ( !strcmp( pName, "uranium") )

	push	OFFSET ??_C@_07CEHHGMGL@uranium?$AA@
	mov	eax, DWORD PTR _pName$[ebp]
	push	eax
	call	_strcmp
	add	esp, 8
	test	eax, eax
	jne	SHORT $LN9@AmmoDamage

; 43   : 		return gSkillData.plrDmgGauss;

	fld	DWORD PTR ?gSkillData@@3Uskilldata_t@@A+276
	jmp	SHORT $LN1@AmmoDamage
$LN9@AmmoDamage:

; 44   : 	if ( !strcmp( pName, "Hand Grenade") )

	push	OFFSET ??_C@_0N@OPHHBAA@Hand?5Grenade?$AA@
	mov	eax, DWORD PTR _pName$[ebp]
	push	eax
	call	_strcmp
	add	esp, 8
	test	eax, eax
	jne	SHORT $LN10@AmmoDamage

; 45   : 		return gSkillData.plrDmgHandGrenade;

	fld	DWORD PTR ?gSkillData@@3Uskilldata_t@@A+292
	jmp	SHORT $LN1@AmmoDamage
$LN10@AmmoDamage:

; 46   : 	if ( !strcmp( pName, "Satchel Charge") )

	push	OFFSET ??_C@_0P@LMFBIKDH@Satchel?5Charge?$AA@
	mov	eax, DWORD PTR _pName$[ebp]
	push	eax
	call	_strcmp
	add	esp, 8
	test	eax, eax
	jne	SHORT $LN11@AmmoDamage

; 47   : 		return gSkillData.plrDmgSatchel;

	fld	DWORD PTR ?gSkillData@@3Uskilldata_t@@A+296
	jmp	SHORT $LN1@AmmoDamage
$LN11@AmmoDamage:

; 48   : 	if ( !strcmp( pName, "Trip Mine") )

	push	OFFSET ??_C@_09OKDBGJNM@Trip?5Mine?$AA@
	mov	eax, DWORD PTR _pName$[ebp]
	push	eax
	call	_strcmp
	add	esp, 8
	test	eax, eax
	jne	SHORT $LN12@AmmoDamage

; 49   : 		return gSkillData.plrDmgTripmine;

	fld	DWORD PTR ?gSkillData@@3Uskilldata_t@@A+300
	jmp	SHORT $LN1@AmmoDamage
$LN12@AmmoDamage:

; 50   : 
; 51   : 	return 0;

	fldz
$LN1@AmmoDamage:

; 52   : }

	pop	edi
	pop	esi
	pop	ebx
	mov	esp, ebp
	pop	ebp
	ret	0
?AmmoDamage@@YAMPBD@Z ENDP				; AmmoDamage
_TEXT	ENDS
; Function compile flags: /Odtp /ZI
; File c:\program files (x86)\microsoft visual studio 14.0\vc\include\cmath
;	COMDAT ?fabs@@YAMM@Z
_TEXT	SEGMENT
__Xx$ = 8						; size = 4
?fabs@@YAMM@Z PROC					; fabs, COMDAT

; 122  : 	{

	push	ebp
	mov	ebp, esp
	sub	esp, 64					; 00000040H
	push	ebx
	push	esi
	push	edi

; 123  : 	return (_CSTD fabsf(_Xx));

	push	ecx
	movss	xmm0, DWORD PTR __Xx$[ebp]
	movss	DWORD PTR [esp], xmm0
	call	_fabsf
	add	esp, 4

; 124  : 	}

	pop	edi
	pop	esi
	pop	ebx
	mov	esp, ebp
	pop	ebp
	ret	0
?fabs@@YAMM@Z ENDP					; fabs
_TEXT	ENDS
; Function compile flags: /Odtp /ZI
; File c:\program files (x86)\windows kits\10\include\10.0.10240.0\ucrt\math.h
;	COMDAT _fabsf
_TEXT	SEGMENT
tv71 = -68						; size = 4
__X$ = 8						; size = 4
_fabsf	PROC						; COMDAT

; 657  :     {

	push	ebp
	mov	ebp, esp
	sub	esp, 68					; 00000044H
	push	ebx
	push	esi
	push	edi

; 658  :         return (float)fabs(_X);

	cvtss2sd xmm0, DWORD PTR __X$[ebp]
	sub	esp, 8
	movsd	QWORD PTR [esp], xmm0
	call	_fabs
	add	esp, 8
	fstp	DWORD PTR tv71[ebp]
	fld	DWORD PTR tv71[ebp]

; 659  :     }

	pop	edi
	pop	esi
	pop	ebx
	mov	esp, ebp
	pop	ebp
	ret	0
_fabsf	ENDP
_TEXT	ENDS
; Function compile flags: /Odtp /ZI
; File c:\program files (x86)\microsoft visual studio 14.0\vc\include\vadefs.h
;	COMDAT ??$__vcrt_va_start_verify_argument_type@QBD@@YAXXZ
_TEXT	SEGMENT
??$__vcrt_va_start_verify_argument_type@QBD@@YAXXZ PROC	; __vcrt_va_start_verify_argument_type<char const * const>, COMDAT

; 144  :         {

	push	ebp
	mov	ebp, esp
	sub	esp, 64					; 00000040H
	push	ebx
	push	esi
	push	edi

; 145  :             static_assert(!__vcrt_va_list_is_reference<_Ty>::__the_value, "va_start argument must not have reference type and must not be parenthesized");
; 146  :         }

	pop	edi
	pop	esi
	pop	ebx
	mov	esp, ebp
	pop	ebp
	ret	0
??$__vcrt_va_start_verify_argument_type@QBD@@YAXXZ ENDP	; __vcrt_va_start_verify_argument_type<char const * const>
_TEXT	ENDS
; Function compile flags: /Odtp /ZI
; File c:\program files (x86)\windows kits\10\include\10.0.10240.0\ucrt\stdio.h
;	COMDAT _fprintf
_TEXT	SEGMENT
__ArgList$ = -8						; size = 4
__Result$ = -4						; size = 4
__Stream$ = 8						; size = 4
__Format$ = 12						; size = 4
_fprintf PROC						; COMDAT

; 831  : {

	push	ebp
	mov	ebp, esp
	sub	esp, 72					; 00000048H
	push	ebx
	push	esi
	push	edi

; 832  :     int _Result;
; 833  :     va_list _ArgList;
; 834  :     __crt_va_start(_ArgList, _Format);

	call	??$__vcrt_va_start_verify_argument_type@QBD@@YAXXZ ; __vcrt_va_start_verify_argument_type<char const * const>
	lea	eax, DWORD PTR __Format$[ebp+4]
	mov	DWORD PTR __ArgList$[ebp], eax

; 835  :     _Result = _vfprintf_l(_Stream, _Format, NULL, _ArgList);

	mov	eax, DWORD PTR __ArgList$[ebp]
	push	eax
	push	0
	mov	ecx, DWORD PTR __Format$[ebp]
	push	ecx
	mov	edx, DWORD PTR __Stream$[ebp]
	push	edx
	call	__vfprintf_l
	add	esp, 16					; 00000010H
	mov	DWORD PTR __Result$[ebp], eax

; 836  :     __crt_va_end(_ArgList);

	mov	DWORD PTR __ArgList$[ebp], 0

; 837  :     return _Result;

	mov	eax, DWORD PTR __Result$[ebp]

; 838  : }

	pop	edi
	pop	esi
	pop	ebx
	mov	esp, ebp
	pop	ebp
	ret	0
_fprintf ENDP
_TEXT	ENDS
; Function compile flags: /Odtp /ZI
; File c:\program files (x86)\windows kits\10\include\10.0.10240.0\ucrt\stdio.h
;	COMDAT __vfprintf_l
_TEXT	SEGMENT
__Stream$ = 8						; size = 4
__Format$ = 12						; size = 4
__Locale$ = 16						; size = 4
__ArgList$ = 20						; size = 4
__vfprintf_l PROC					; COMDAT

; 638  : {

	push	ebp
	mov	ebp, esp
	sub	esp, 64					; 00000040H
	push	ebx
	push	esi
	push	edi

; 639  :     return __stdio_common_vfprintf(_CRT_INTERNAL_LOCAL_PRINTF_OPTIONS, _Stream, _Format, _Locale, _ArgList);

	mov	eax, DWORD PTR __ArgList$[ebp]
	push	eax
	mov	ecx, DWORD PTR __Locale$[ebp]
	push	ecx
	mov	edx, DWORD PTR __Format$[ebp]
	push	edx
	mov	eax, DWORD PTR __Stream$[ebp]
	push	eax
	call	___local_stdio_printf_options
	mov	ecx, DWORD PTR [eax+4]
	push	ecx
	mov	edx, DWORD PTR [eax]
	push	edx
	call	___stdio_common_vfprintf
	add	esp, 24					; 00000018H

; 640  : }

	pop	edi
	pop	esi
	pop	ebx
	mov	esp, ebp
	pop	ebp
	ret	0
__vfprintf_l ENDP
_TEXT	ENDS
; Function compile flags: /Odtp /ZI
; File c:\program files (x86)\windows kits\10\include\10.0.10240.0\ucrt\corecrt_stdio_config.h
;	COMDAT ___local_stdio_printf_options
_TEXT	SEGMENT
___local_stdio_printf_options PROC			; COMDAT

; 73   : {

	push	ebp
	mov	ebp, esp
	sub	esp, 64					; 00000040H
	push	ebx
	push	esi
	push	edi

; 74   :     static unsigned __int64 _OptionsStorage;
; 75   :     return &_OptionsStorage;

	mov	eax, OFFSET ?_OptionsStorage@?1??__local_stdio_printf_options@@9@4_KA ; `__local_stdio_printf_options'::`2'::_OptionsStorage

; 76   : }

	pop	edi
	pop	esi
	pop	ebx
	mov	esp, ebp
	pop	ebp
	ret	0
___local_stdio_printf_options ENDP
_TEXT	ENDS
; Function compile flags: /Odtp /ZI
; File d:\!diffusion 2020\source code 2022\client-server\server\game\stats.cpp
;	COMDAT ?__empty_global_delete@@YAXPAXI@Z
_TEXT	SEGMENT
___formal$ = 8						; size = 4
___formal$ = 12						; size = 4
?__empty_global_delete@@YAXPAXI@Z PROC			; __empty_global_delete, COMDAT

	push	ebp
	mov	ebp, esp
	sub	esp, 64					; 00000040H
	push	ebx
	push	esi
	push	edi
	pop	edi
	pop	esi
	pop	ebx
	mov	esp, ebp
	pop	ebp
	ret	0
?__empty_global_delete@@YAXPAXI@Z ENDP			; __empty_global_delete
_TEXT	ENDS
; Function compile flags: /Odtp /ZI
; File d:\!diffusion 2020\source code 2022\client-server\server\game\stats.cpp
;	COMDAT ?__empty_global_delete@@YAXPAX@Z
_TEXT	SEGMENT
___formal$ = 8						; size = 4
?__empty_global_delete@@YAXPAX@Z PROC			; __empty_global_delete, COMDAT

	push	ebp
	mov	ebp, esp
	sub	esp, 64					; 00000040H
	push	ebx
	push	esi
	push	edi
	pop	edi
	pop	esi
	pop	ebx
	mov	esp, ebp
	pop	ebp
	ret	0
?__empty_global_delete@@YAXPAX@Z ENDP			; __empty_global_delete
_TEXT	ENDS
; Function compile flags: /Odtp /ZI
;	COMDAT ??__G@YGXPAX0IIP6EPAX00@Z@Z
_TEXT	SEGMENT
tv66 = -68						; size = 4
___t$ = 8						; size = 4
___u$ = 12						; size = 4
___s$ = 16						; size = 4
___n$ = 20						; size = 4
___f$ = 24						; size = 4
??__G@YGXPAX0IIP6EPAX00@Z@Z PROC			; `vector copy constructor iterator', COMDAT
	push	ebp
	mov	ebp, esp
	sub	esp, 68					; 00000044H
	push	ebx
	push	esi
	push	edi
$LN2@vector:
	mov	eax, DWORD PTR ___n$[ebp]
	mov	DWORD PTR tv66[ebp], eax
	mov	ecx, DWORD PTR ___n$[ebp]
	sub	ecx, 1
	mov	DWORD PTR ___n$[ebp], ecx
	cmp	DWORD PTR tv66[ebp], 0
	jbe	SHORT $LN1@vector
	mov	eax, DWORD PTR ___u$[ebp]
	push	eax
	mov	ecx, DWORD PTR ___t$[ebp]
	call	DWORD PTR ___f$[ebp]
	mov	eax, DWORD PTR ___t$[ebp]
	add	eax, DWORD PTR ___s$[ebp]
	mov	DWORD PTR ___t$[ebp], eax
	mov	eax, DWORD PTR ___u$[ebp]
	add	eax, DWORD PTR ___s$[ebp]
	mov	DWORD PTR ___u$[ebp], eax
	jmp	SHORT $LN2@vector
$LN1@vector:
	pop	edi
	pop	esi
	pop	ebx
	mov	esp, ebp
	pop	ebp
	ret	20					; 00000014H
??__G@YGXPAX0IIP6EPAX00@Z@Z ENDP			; `vector copy constructor iterator'
_TEXT	ENDS
; Function compile flags: /Odtp /ZI
;	COMDAT ??_H@YGXPAXIIP6EPAX0@Z@Z
_TEXT	SEGMENT
tv66 = -68						; size = 4
___t$ = 8						; size = 4
___s$ = 12						; size = 4
___n$ = 16						; size = 4
___f$ = 20						; size = 4
??_H@YGXPAXIIP6EPAX0@Z@Z PROC				; `vector constructor iterator', COMDAT
	push	ebp
	mov	ebp, esp
	sub	esp, 68					; 00000044H
	push	ebx
	push	esi
	push	edi
$LN2@vector:
	mov	eax, DWORD PTR ___n$[ebp]
	mov	DWORD PTR tv66[ebp], eax
	mov	ecx, DWORD PTR ___n$[ebp]
	sub	ecx, 1
	mov	DWORD PTR ___n$[ebp], ecx
	cmp	DWORD PTR tv66[ebp], 0
	jbe	SHORT $LN1@vector
	mov	ecx, DWORD PTR ___t$[ebp]
	call	DWORD PTR ___f$[ebp]
	mov	eax, DWORD PTR ___t$[ebp]
	add	eax, DWORD PTR ___s$[ebp]
	mov	DWORD PTR ___t$[ebp], eax
	jmp	SHORT $LN2@vector
$LN1@vector:
	pop	edi
	pop	esi
	pop	ebx
	mov	esp, ebp
	pop	ebp
	ret	16					; 00000010H
??_H@YGXPAXIIP6EPAX0@Z@Z ENDP				; `vector constructor iterator'
_TEXT	ENDS
END
