; Listing generated by Microsoft (R) Optimizing Compiler Version 19.00.24247.2 

	TITLE	D:\!DIFFUSION 2020\source code 2022\client-server\server\util.cpp
	.686P
	.XMM
	include listing.inc
	.model	flat

INCLUDELIB LIBCMT
INCLUDELIB OLDNAMES

PUBLIC	?g_groupmask@@3HA				; g_groupmask
PUBLIC	?g_groupop@@3HA					; g_groupop
_BSS	SEGMENT
?g_groupmask@@3HA DD 01H DUP (?)			; g_groupmask
?g_groupop@@3HA DD 01H DUP (?)				; g_groupop
_BSS	ENDS
PUBLIC	??_H@YGXPAXIIP6EPAX0@Z@Z			; `vector constructor iterator'
PUBLIC	??__G@YGXPAX0IIP6EPAX00@Z@Z			; `vector copy constructor iterator'
PUBLIC	?__empty_global_delete@@YAXPAX@Z		; __empty_global_delete
PUBLIC	?__empty_global_delete@@YAXPAXI@Z		; __empty_global_delete
PUBLIC	___local_stdio_printf_options
PUBLIC	??$__vcrt_va_start_verify_argument_type@QBD@@YAXXZ ; __vcrt_va_start_verify_argument_type<char const * const>
PUBLIC	__vsnprintf_l
PUBLIC	__vsprintf_l
PUBLIC	_vsprintf
PUBLIC	_sprintf
PUBLIC	?SinCos@@YAXMPAM0@Z				; SinCos
PUBLIC	??0Vector2D@@QAE@XZ				; Vector2D::Vector2D
PUBLIC	??0Vector2D@@QAE@MM@Z				; Vector2D::Vector2D
PUBLIC	?Length@Vector2D@@QBEMXZ			; Vector2D::Length
PUBLIC	?Normalize@Vector2D@@QBE?AV1@XZ			; Vector2D::Normalize
PUBLIC	?DotProduct@@YAMABVVector2D@@0@Z		; DotProduct
PUBLIC	??0Vector@@QAE@XZ				; Vector::Vector
PUBLIC	??0Vector@@QAE@MMM@Z				; Vector::Vector
PUBLIC	??0Vector@@QAE@ABV0@@Z				; Vector::Vector
PUBLIC	??8Vector@@QBEHABV0@@Z				; Vector::operator==
PUBLIC	??HVector@@QBE?AV0@ABV0@@Z			; Vector::operator+
PUBLIC	??GVector@@QBE?AV0@ABV0@@Z			; Vector::operator-
PUBLIC	??DVector@@QBE?AV0@M@Z				; Vector::operator*
PUBLIC	??YVector@@QAEAAV0@ABV0@@Z			; Vector::operator+=
PUBLIC	?CopyToArray@Vector@@QBEXPAM@Z			; Vector::CopyToArray
PUBLIC	?Length@Vector@@QBEMXZ				; Vector::Length
PUBLIC	??BVector@@QAEPAMXZ				; Vector::operator float *
PUBLIC	??BVector@@QBEPBMXZ				; Vector::operator float const *
PUBLIC	?Normalize@Vector@@QBE?AV1@XZ			; Vector::Normalize
PUBLIC	?Make2D@Vector@@QBE?AVVector2D@@XZ		; Vector::Make2D
PUBLIC	?DotProduct@@YAMABVVector@@0@Z			; DotProduct
PUBLIC	??0Vector4D@@QAE@XZ				; Vector4D::Vector4D
PUBLIC	??0Vector4D@@QAE@ABV0@@Z			; Vector4D::Vector4D
PUBLIC	??BVector4D@@QAEPAMXZ				; Vector4D::operator float *
PUBLIC	??BVector4D@@QBE?BVVector@@XZ			; Vector4D::operator Vector const 
PUBLIC	??0matrix3x4@@QAE@ABVVector@@0M@Z		; matrix3x4::matrix3x4
PUBLIC	??Amatrix3x4@@QBEPBMH@Z				; matrix3x4::operator[]
PUBLIC	??0matrix4x4@@QAE@ABVVector@@0M@Z		; matrix4x4::matrix4x4
PUBLIC	??0matrix4x4@@QAE@ABVmatrix3x4@@@Z		; matrix4x4::matrix4x4
PUBLIC	?GetOrigin@matrix4x4@@QBE?AVVector@@XZ		; matrix4x4::GetOrigin
PUBLIC	?GetAngles@matrix4x4@@QAE?AVVector@@XZ		; matrix4x4::GetAngles
PUBLIC	??0matrix4x4@@QAE@ABV0@@Z			; matrix4x4::matrix4x4
PUBLIC	??0plane_s@@QAE@ABU0@@Z				; plane_s::plane_s
PUBLIC	??0trace_s@@QAE@ABU0@@Z				; trace_s::trace_s
PUBLIC	??0gametrace_s@@QAE@XZ				; gametrace_s::gametrace_s
PUBLIC	??0gametrace_s@@QAE@$$QAU0@@Z			; gametrace_s::gametrace_s
PUBLIC	?MESSAGE_BEGIN@@YAXHHPBMPAUedict_s@@@Z		; MESSAGE_BEGIN
PUBLIC	?GET_PRIVATE@@YAPAXPAUedict_s@@@Z		; GET_PRIVATE
PUBLIC	?Msg@@YAXPBDZZ					; Msg
PUBLIC	??2@YAPAXIPAX@Z					; operator new
PUBLIC	??3@YAXPAX0@Z					; operator delete
PUBLIC	?UtlMemory_CalcNewAllocationCount@@YAHHHHH@Z	; UtlMemory_CalcNewAllocationCount
PUBLIC	?StringLessThan@@YA_NABQBD0@Z			; StringLessThan
PUBLIC	?CaselessStringLessThan@@YA_NABQBD0@Z		; CaselessStringLessThan
PUBLIC	?CaselessStringLessThanIgnoreSlashes@@YA_NABQBD0@Z ; CaselessStringLessThanIgnoreSlashes
PUBLIC	?MESSAGE_BEGIN@@YAXHHPBMPAUentvars_s@@@Z	; MESSAGE_BEGIN
PUBLIC	?UTIL_Remove@@YAXPAVCBaseEntity@@@Z		; UTIL_Remove
PUBLIC	??0IEntityFactoryDictionary@@QAE@XZ		; IEntityFactoryDictionary::IEntityFactoryDictionary
PUBLIC	?EntityFactoryDictionary@@YAPAVIEntityFactoryDictionary@@XZ ; EntityFactoryDictionary
PUBLIC	?DBG_EntOfVars@@YAPAUedict_s@@PBUentvars_s@@@Z	; DBG_EntOfVars
PUBLIC	?ENT@@YAPAUedict_s@@PBUentvars_s@@@Z		; ENT
PUBLIC	?ENT@@YAPAUedict_s@@PAVCBaseEntity@@@Z		; ENT
PUBLIC	?ENT@@YAPAUedict_s@@H@Z				; ENT
PUBLIC	?OFFSET@@YAHPBUedict_s@@@Z			; OFFSET
PUBLIC	?OFFSET@@YAHPAUentvars_s@@@Z			; OFFSET
PUBLIC	?ENTINDEX@@YAHPAUedict_s@@@Z			; ENTINDEX
PUBLIC	?INDEXENT@@YAPAUedict_s@@H@Z			; INDEXENT
PUBLIC	?FNullEnt@@YAHH@Z				; FNullEnt
PUBLIC	?FNullEnt@@YAHPBUedict_s@@@Z			; FNullEnt
PUBLIC	?FNullEnt@@YAHPAVCBaseEntity@@@Z		; FNullEnt
PUBLIC	?Sys_LoadLibrary@@YA_NPBDPAPAUHINSTANCE__@@PBUdllfunc_s@@@Z ; Sys_LoadLibrary
PUBLIC	?Sys_GetProcAddress@@YAPAXPAUHINSTANCE__@@PBD@Z	; Sys_GetProcAddress
PUBLIC	?Sys_FreeLibrary@@YAXPAPAUHINSTANCE__@@@Z	; Sys_FreeLibrary
PUBLIC	?FStrEq@@YAHPBD0@Z				; FStrEq
PUBLIC	?FClassnameIs@@YAHPAVCBaseEntity@@PBD@Z		; FClassnameIs
PUBLIC	?DumpEntityNames_f@@YAXXZ			; DumpEntityNames_f
PUBLIC	?DumpEntitySizes_f@@YAXXZ			; DumpEntitySizes_f
PUBLIC	?DumpStrings_f@@YAXXZ				; DumpStrings_f
PUBLIC	?GetStringForUseType@@YAPBDW4USE_TYPE@@@Z	; GetStringForUseType
PUBLIC	?GetStringForState@@YAPBDW4STATE@@@Z		; GetStringForState
PUBLIC	?GetStringForGlobalState@@YAPBDW4GLOBALESTATE@@@Z ; GetStringForGlobalState
PUBLIC	?GetContentsString@@YAPBDH@Z			; GetContentsString
PUBLIC	?PrintStringForDamage@@YAXH@Z			; PrintStringForDamage
PUBLIC	?GetStateForString@@YA?AW4STATE@@PBD@Z		; GetStateForString
PUBLIC	?UTIL_SetSize@@YAXPAUentvars_s@@ABVVector@@1@Z	; UTIL_SetSize
PUBLIC	?UTIL_VecToYaw@@YAMABVVector@@@Z		; UTIL_VecToYaw
PUBLIC	?UTIL_VecToAngles@@YA?AVVector@@ABV1@@Z		; UTIL_VecToAngles
PUBLIC	?UTIL_AngleMod@@YAMM@Z				; UTIL_AngleMod
PUBLIC	?UTIL_AngleDiff@@YAMMM@Z			; UTIL_AngleDiff
PUBLIC	?UTIL_FindEntityInSphere@@YAPAVCBaseEntity@@PAV1@ABVVector@@M@Z ; UTIL_FindEntityInSphere
PUBLIC	?UTIL_FindEntityByString@@YAPAVCBaseEntity@@PAV1@PBD1@Z ; UTIL_FindEntityByString
PUBLIC	?UTIL_FindEntityByClassname@@YAPAVCBaseEntity@@PAV1@PBD@Z ; UTIL_FindEntityByClassname
PUBLIC	?UTIL_FindEntityByClassname@@YAPAVCBaseEntity@@PAV1@PBD_N2@Z ; UTIL_FindEntityByClassname
PUBLIC	?UTIL_FindEntityByTargetname@@YAPAVCBaseEntity@@PAV1@PBD@Z ; UTIL_FindEntityByTargetname
PUBLIC	?UTIL_FindEntityByTargetname@@YAPAVCBaseEntity@@PAV1@PBD0@Z ; UTIL_FindEntityByTargetname
PUBLIC	?UTIL_FindEntityGeneric@@YAPAVCBaseEntity@@PBDABVVector@@M@Z ; UTIL_FindEntityGeneric
PUBLIC	?UTIL_FindEntityByTarget@@YAPAVCBaseEntity@@PAV1@PBD@Z ; UTIL_FindEntityByTarget
PUBLIC	?UTIL_FindEntityByMonsterTarget@@YAPAVCBaseEntity@@PAV1@PBD@Z ; UTIL_FindEntityByMonsterTarget
PUBLIC	?UTIL_PlayerByIndex@@YAPAVCBaseEntity@@H@Z	; UTIL_PlayerByIndex
PUBLIC	?UTIL_MakeVectors@@YAXABVVector@@@Z		; UTIL_MakeVectors
PUBLIC	?UTIL_MonstersInSphere@@YAHPAPAVCBaseEntity@@HABVVector@@M@Z ; UTIL_MonstersInSphere
PUBLIC	?UTIL_EntitiesInBox@@YAHPAPAVCBaseEntity@@HABVVector@@1H@Z ; UTIL_EntitiesInBox
PUBLIC	?UTIL_ButtonSound@@YAPBDH@Z			; UTIL_ButtonSound
PUBLIC	?UTIL_MakeVectorsPrivate@@YAXABVVector@@PAM11@Z	; UTIL_MakeVectorsPrivate
PUBLIC	?UTIL_MakeAimVectors@@YAXABVVector@@@Z		; UTIL_MakeAimVectors
PUBLIC	?UTIL_MakeInvVectors@@YAXABVVector@@PAUglobalvars_t@@@Z ; UTIL_MakeInvVectors
PUBLIC	?UTIL_SetOrigin@@YAXPAVCBaseEntity@@ABVVector@@@Z ; UTIL_SetOrigin
PUBLIC	?UTIL_SetAngles@@YAXPAVCBaseEntity@@ABVVector@@@Z ; UTIL_SetAngles
PUBLIC	?UTIL_EmitAmbientSound@@YAXPAUedict_s@@ABVVector@@PBDMMHH@Z ; UTIL_EmitAmbientSound
PUBLIC	?UTIL_ParticleEffect@@YAXABVVector@@0KK@Z	; UTIL_ParticleEffect
PUBLIC	?UTIL_ScreenShake@@YAXABVVector@@MMMM_N@Z	; UTIL_ScreenShake
PUBLIC	?UTIL_ScreenShakeAll@@YAXABVVector@@MMM@Z	; UTIL_ScreenShakeAll
PUBLIC	?UTIL_ScreenShakeLocal@@YAXPAVCBaseEntity@@ABVVector@@MMMM_N@Z ; UTIL_ScreenShakeLocal
PUBLIC	?UTIL_ShowMessage@@YAXPBDPAVCBaseEntity@@@Z	; UTIL_ShowMessage
PUBLIC	?UTIL_ShowMessageAll@@YAXPBD@Z			; UTIL_ShowMessageAll
PUBLIC	?UTIL_ScreenFadeAll@@YAXABVVector@@MMHH@Z	; UTIL_ScreenFadeAll
PUBLIC	?UTIL_ScreenFade@@YAXPAVCBaseEntity@@ABVVector@@MMHH@Z ; UTIL_ScreenFade
PUBLIC	?UTIL_FireTargets@@YAXPBDPAVCBaseEntity@@1W4USE_TYPE@@M@Z ; UTIL_FireTargets
PUBLIC	?UTIL_FireTargets@@YAXHPAVCBaseEntity@@0W4USE_TYPE@@M@Z ; UTIL_FireTargets
PUBLIC	?UTIL_TraceLine@@YAXABVVector@@0W4IGNORE_MONSTERS@@PAUedict_s@@PAUgametrace_s@@@Z ; UTIL_TraceLine
PUBLIC	?UTIL_TraceLine@@YAXABVVector@@0W4IGNORE_MONSTERS@@W4IGNORE_GLASS@@PAUedict_s@@PAUgametrace_s@@@Z ; UTIL_TraceLine
PUBLIC	?UTIL_TraceHull@@YAXABVVector@@0W4IGNORE_MONSTERS@@HPAUedict_s@@PAUgametrace_s@@@Z ; UTIL_TraceHull
PUBLIC	?UTIL_GetGlobalTrace@@YA?AUgametrace_s@@XZ	; UTIL_GetGlobalTrace
PUBLIC	?UTIL_CopyTraceToGlobal@@YAXPAUgametrace_s@@@Z	; UTIL_CopyTraceToGlobal
PUBLIC	?UTIL_TraceModel@@YAXABVVector@@0HPAUedict_s@@PAUgametrace_s@@@Z ; UTIL_TraceModel
PUBLIC	?UTIL_TraceEntity@@YAXPAVCBaseEntity@@ABVVector@@1PAUgametrace_s@@@Z ; UTIL_TraceEntity
PUBLIC	?UTIL_GetAimVector@@YA?AVVector@@PAUedict_s@@M@Z ; UTIL_GetAimVector
PUBLIC	?UTIL_PointContents@@YAHABVVector@@@Z		; UTIL_PointContents
PUBLIC	?UTIL_IsMasterTriggered@@YAHHPAVCBaseEntity@@@Z	; UTIL_IsMasterTriggered
PUBLIC	?UTIL_BloodStream@@YAXABVVector@@0HH@Z		; UTIL_BloodStream
PUBLIC	?UTIL_BloodDrips@@YAXABVVector@@0HH@Z		; UTIL_BloodDrips
PUBLIC	?UTIL_RandomBloodVector@@YA?AVVector@@XZ	; UTIL_RandomBloodVector
PUBLIC	?UTIL_ShouldShowBlood@@YAHH@Z			; UTIL_ShouldShowBlood
PUBLIC	?UTIL_BloodDecalTrace@@YAXPAUgametrace_s@@H@Z	; UTIL_BloodDecalTrace
PUBLIC	?UTIL_BloodStudioDecalTrace@@YAXPAUgametrace_s@@H@Z ; UTIL_BloodStudioDecalTrace
PUBLIC	?UTIL_DecalTrace@@YAXPAUgametrace_s@@H@Z	; UTIL_DecalTrace
PUBLIC	?UTIL_StudioDecalTrace@@YAXPAUgametrace_s@@HH@Z	; UTIL_StudioDecalTrace
PUBLIC	?UTIL_RestoreStudioDecal@@YAXABVVector@@0HHPBDHPAUmodelstate_s@@H@Z ; UTIL_RestoreStudioDecal
PUBLIC	?UTIL_PlayerDecalTrace@@YAXPAUgametrace_s@@HHH@Z ; UTIL_PlayerDecalTrace
PUBLIC	?UTIL_GunshotDecalTrace@@YAXPAUgametrace_s@@H@Z	; UTIL_GunshotDecalTrace
PUBLIC	?UTIL_Sparks@@YAXABVVector@@@Z			; UTIL_Sparks
PUBLIC	?UTIL_DoSpark@@YAXPAUentvars_s@@ABVVector@@@Z	; UTIL_DoSpark
PUBLIC	?UTIL_DoSparkNoSound@@YAXPAUentvars_s@@ABVVector@@@Z ; UTIL_DoSparkNoSound
PUBLIC	?UTIL_Ricochet@@YAXABVVector@@M@Z		; UTIL_Ricochet
PUBLIC	?UTIL_StringToVector@@YAXPAMPBD@Z		; UTIL_StringToVector
PUBLIC	?UTIL_StringToIntArray@@YAXPAHHPBD@Z		; UTIL_StringToIntArray
PUBLIC	?UTIL_ClampVectorToBox@@YA?AVVector@@ABV1@0@Z	; UTIL_ClampVectorToBox
PUBLIC	?UTIL_Approach@@YAMMMM@Z			; UTIL_Approach
PUBLIC	?UTIL_ApproachAngle@@YAMMMM@Z			; UTIL_ApproachAngle
PUBLIC	?UTIL_AngleDistance@@YAMMM@Z			; UTIL_AngleDistance
PUBLIC	?UTIL_FindClientInPVS@@YAPAVCBaseEntity@@PAUedict_s@@@Z ; UTIL_FindClientInPVS
PUBLIC	?UTIL_VarArgs@@YAPADPADZZ			; UTIL_VarArgs
PUBLIC	?UTIL_IsValidEntity@@YAHPAUedict_s@@@Z		; UTIL_IsValidEntity
PUBLIC	?UTIL_TeamsMatch@@YAHPBD0@Z			; UTIL_TeamsMatch
PUBLIC	?UTIL_IsFacing@@YAHPAUentvars_s@@ABVVector@@@Z	; UTIL_IsFacing
PUBLIC	?UTIL_SplineFraction@@YAMMM@Z			; UTIL_SplineFraction
PUBLIC	?UTIL_WaterLevel@@YAMABVVector@@MM@Z		; UTIL_WaterLevel
PUBLIC	?UTIL_Bubbles@@YAXVVector@@0H@Z			; UTIL_Bubbles
PUBLIC	?UTIL_BubbleTrail@@YAXVVector@@0H@Z		; UTIL_BubbleTrail
PUBLIC	?UTIL_PrecacheOther@@YAXPBD@Z			; UTIL_PrecacheOther
PUBLIC	?UTIL_PrecacheSound@@YAHPBD@Z			; UTIL_PrecacheSound
PUBLIC	?UTIL_PrecacheSound@@YAHH@Z			; UTIL_PrecacheSound
PUBLIC	?UTIL_PrecacheMovie@@YAGPBDH@Z			; UTIL_PrecacheMovie
PUBLIC	?UTIL_PrecacheMovie@@YAGHH@Z			; UTIL_PrecacheMovie
PUBLIC	?UTIL_ClientPrintAll@@YAXHPBD0000@Z		; UTIL_ClientPrintAll
PUBLIC	?UTIL_GetNextBestWeapon@@YAHPAVCBasePlayer@@PAVCBasePlayerItem@@@Z ; UTIL_GetNextBestWeapon
PUBLIC	?ClientPrint@@YAXPAUentvars_s@@HPBD1111@Z	; ClientPrint
PUBLIC	?UTIL_SayText@@YAXPBDPAVCBaseEntity@@@Z		; UTIL_SayText
PUBLIC	?UTIL_SayTextAll@@YAXPBDPAVCBaseEntity@@@Z	; UTIL_SayTextAll
PUBLIC	?UTIL_SetView@@YAXH@Z				; UTIL_SetView
PUBLIC	?UTIL_SetView@@YAXPAVCBaseEntity@@H@Z		; UTIL_SetView
PUBLIC	?UTIL_SetView@@YAXPAVCBaseEntity@@0@Z		; UTIL_SetView
PUBLIC	?UTIL_HudMessageAll@@YAXABUhudtextparms_s@@PBD@Z ; UTIL_HudMessageAll
PUBLIC	?UTIL_HudMessage@@YAXPAVCBaseEntity@@ABUhudtextparms_s@@PBD@Z ; UTIL_HudMessage
PUBLIC	?UTIL_dtos1@@YAPADH@Z				; UTIL_dtos1
PUBLIC	?UTIL_dtos2@@YAPADH@Z				; UTIL_dtos2
PUBLIC	?UTIL_dtos3@@YAPADH@Z				; UTIL_dtos3
PUBLIC	?UTIL_dtos4@@YAPADH@Z				; UTIL_dtos4
PUBLIC	?UTIL_LogPrintf@@YAXPADZZ			; UTIL_LogPrintf
PUBLIC	?UTIL_DotPoints@@YAMABVVector@@00@Z		; UTIL_DotPoints
PUBLIC	?UTIL_StripToken@@YAXPBDPAD@Z			; UTIL_StripToken
PUBLIC	?UTIL_SetMovedir@@YAXPAVCBaseEntity@@@Z		; UTIL_SetMovedir
PUBLIC	?VecBModelOrigin@@YA?AVVector@@PAUentvars_s@@@Z	; VecBModelOrigin
PUBLIC	?DBG_AssertFunction@@YAXHPBD0H0@Z		; DBG_AssertFunction
PUBLIC	?EMIT_SOUND@@YAXPAUedict_s@@HPBDMM@Z		; EMIT_SOUND
PUBLIC	??0UTIL_GroupTrace@@QAE@HH@Z			; UTIL_GroupTrace::UTIL_GroupTrace
PUBLIC	??1UTIL_GroupTrace@@QAE@XZ			; UTIL_GroupTrace::~UTIL_GroupTrace
PUBLIC	?UTIL_SetGroupTrace@@YAXHH@Z			; UTIL_SetGroupTrace
PUBLIC	?UTIL_UnsetGroupTrace@@YAXXZ			; UTIL_UnsetGroupTrace
PUBLIC	?UTIL_CanRotate@@YAHPAVCBaseEntity@@@Z		; UTIL_CanRotate
PUBLIC	?UTIL_CanRotateBModel@@YAHPAVCBaseEntity@@@Z	; UTIL_CanRotateBModel
PUBLIC	?UTIL_GetModelType@@YA?AW4modtype_t@@H@Z	; UTIL_GetModelType
PUBLIC	?UITL_ExternalBmodel@@YAHH@Z			; UITL_ExternalBmodel
PUBLIC	?UTIL_GetSpriteType@@YA?AW4angletype_t@@H@Z	; UTIL_GetSpriteType
PUBLIC	?UTIL_AllowHitboxTrace@@YAHPAVCBaseEntity@@@Z	; UTIL_AllowHitboxTrace
PUBLIC	?UTIL_Teleport@@YAXPAVCBaseEntity@@AAUTeleportListEntry_t@@PBVVector@@22@Z ; UTIL_Teleport
PUBLIC	?UTIL_ParentToWorldSpace@@YAXPAVCBaseEntity@@AAVVector@@1@Z ; UTIL_ParentToWorldSpace
PUBLIC	?UTIL_GetModelBounds@@YAXHAAVVector@@0@Z	; UTIL_GetModelBounds
PUBLIC	?UTIL_SetSize@@YAXPAVCBaseEntity@@ABVVector@@1@Z ; UTIL_SetSize
PUBLIC	??0areaclip_t@@QAE@XZ				; areaclip_t::areaclip_t
PUBLIC	?UTIL_HullPointContents@@YAHPAUhull_s@@HABVVector@@@Z ; UTIL_HullPointContents
PUBLIC	?UTIL_HullForBsp@@YAPAUhull_s@@PAVCBaseEntity@@ABVVector@@1AAV3@@Z ; UTIL_HullForBsp
PUBLIC	?UTIL_AreaNode@@YAXVVector@@0HP6AXPAVCBaseEntity@@@Z@Z ; UTIL_AreaNode
PUBLIC	?UTIL_MoveBounds@@YAXABVVector@@000AAV1@1@Z	; UTIL_MoveBounds
PUBLIC	?UTIL_CombineTraces@@YA?AUtrace_s@@PAU1@0PAVCBaseEntity@@@Z ; UTIL_CombineTraces
PUBLIC	?UTIL_DropToFloor@@YAHPAVCBaseEntity@@@Z	; UTIL_DropToFloor
PUBLIC	?UTIL_WaterMove@@YAXPAVCBaseEntity@@@Z		; UTIL_WaterMove
PUBLIC	?UTIL_LoadSoundPreset@@YAHH@Z			; UTIL_LoadSoundPreset
PUBLIC	?UTIL_FunctionToName@@YAPBDPAUdatamap_s@@PAX@Z	; UTIL_FunctionToName
PUBLIC	?UTIL_FunctionFromName@@YAPAXPAUdatamap_s@@PBD@Z ; UTIL_FunctionFromName
PUBLIC	?Get@EHANDLE@@QAEPAUedict_s@@XZ			; EHANDLE::Get
PUBLIC	??BEHANDLE@@QAEHXZ				; EHANDLE::operator int
PUBLIC	?EntityToWorldTransform@CBaseEntity@@QAEAAVmatrix4x4@@XZ ; CBaseEntity::EntityToWorldTransform
PUBLIC	?GetClassname@CBaseEntity@@QAEPBDXZ		; CBaseEntity::GetClassname
PUBLIC	?GetTargetname@CBaseEntity@@QAEPBDXZ		; CBaseEntity::GetTargetname
PUBLIC	?SetMoveDir@CBaseEntity@@QAEXABVVector@@@Z	; CBaseEntity::SetMoveDir
PUBLIC	?SetBaseVelocity@CBaseEntity@@QAEXABVVector@@@Z	; CBaseEntity::SetBaseVelocity
PUBLIC	?Instance@CBaseEntity@@SAPAV1@PAUedict_s@@@Z	; CBaseEntity::Instance
PUBLIC	?GetMonsterPointer@CBaseEntity@@SAPAVCBaseMonster@@PAUedict_s@@@Z ; CBaseEntity::GetMonsterPointer
PUBLIC	?SetGroundEntity@CBaseEntity@@QAEXPAUedict_s@@@Z ; CBaseEntity::SetGroundEntity
PUBLIC	?ClearGroundEntity@CBaseEntity@@QAEXXZ		; CBaseEntity::ClearGroundEntity
PUBLIC	?MakeNonSolid@CBaseEntity@@QAEXXZ		; CBaseEntity::MakeNonSolid
PUBLIC	?RestoreSolid@CBaseEntity@@QAEXXZ		; CBaseEntity::RestoreSolid
PUBLIC	?edict@CBaseEntity@@QAEPAUedict_s@@XZ		; CBaseEntity::edict
PUBLIC	?eoffset@CBaseEntity@@QAEHXZ			; CBaseEntity::eoffset
PUBLIC	?entindex@CBaseEntity@@QAEHXZ			; CBaseEntity::entindex
PUBLIC	??0CEntityFactoryDictionary@@QAE@XZ		; CEntityFactoryDictionary::CEntityFactoryDictionary
PUBLIC	?InstallFactory@CEntityFactoryDictionary@@UAEXPAVIEntityFactory@@PBD@Z ; CEntityFactoryDictionary::InstallFactory
PUBLIC	?Create@CEntityFactoryDictionary@@UAEPAVCBaseEntity@@PBDPAUentvars_s@@@Z ; CEntityFactoryDictionary::Create
PUBLIC	?Destroy@CEntityFactoryDictionary@@UAEXPBDPAVCBaseEntity@@@Z ; CEntityFactoryDictionary::Destroy
PUBLIC	?GetCannonicalName@CEntityFactoryDictionary@@UAEPBDPBD@Z ; CEntityFactoryDictionary::GetCannonicalName
PUBLIC	?ReportEntitySizes@CEntityFactoryDictionary@@QAEXXZ ; CEntityFactoryDictionary::ReportEntitySizes
PUBLIC	?FindFactory@CEntityFactoryDictionary@@EAEPAVIEntityFactory@@PBD@Z ; CEntityFactoryDictionary::FindFactory
PUBLIC	??0?$CUtlDict@PAVIEntityFactory@@G@@QAE@HHH@Z	; CUtlDict<IEntityFactory *,unsigned short>::CUtlDict<IEntityFactory *,unsigned short>
PUBLIC	??1?$CUtlDict@PAVIEntityFactory@@G@@QAE@XZ	; CUtlDict<IEntityFactory *,unsigned short>::~CUtlDict<IEntityFactory *,unsigned short>
PUBLIC	?Element@?$CUtlDict@PAVIEntityFactory@@G@@QAEAAPAVIEntityFactory@@G@Z ; CUtlDict<IEntityFactory *,unsigned short>::Element
PUBLIC	??A?$CUtlDict@PAVIEntityFactory@@G@@QAEAAPAVIEntityFactory@@G@Z ; CUtlDict<IEntityFactory *,unsigned short>::operator[]
PUBLIC	?GetElementName@?$CUtlDict@PAVIEntityFactory@@G@@QAEPADG@Z ; CUtlDict<IEntityFactory *,unsigned short>::GetElementName
PUBLIC	?InvalidIndex@?$CUtlDict@PAVIEntityFactory@@G@@SAGXZ ; CUtlDict<IEntityFactory *,unsigned short>::InvalidIndex
PUBLIC	?Insert@?$CUtlDict@PAVIEntityFactory@@G@@QAEGPBDABQAVIEntityFactory@@@Z ; CUtlDict<IEntityFactory *,unsigned short>::Insert
PUBLIC	?Find@?$CUtlDict@PAVIEntityFactory@@G@@QBEGPBD@Z ; CUtlDict<IEntityFactory *,unsigned short>::Find
PUBLIC	?RemoveAll@?$CUtlDict@PAVIEntityFactory@@G@@QAEXXZ ; CUtlDict<IEntityFactory *,unsigned short>::RemoveAll
PUBLIC	?Purge@?$CUtlDict@PAVIEntityFactory@@G@@QAEXXZ	; CUtlDict<IEntityFactory *,unsigned short>::Purge
PUBLIC	?First@?$CUtlDict@PAVIEntityFactory@@G@@QBEGXZ	; CUtlDict<IEntityFactory *,unsigned short>::First
PUBLIC	?Next@?$CUtlDict@PAVIEntityFactory@@G@@QBEGG@Z	; CUtlDict<IEntityFactory *,unsigned short>::Next
PUBLIC	??0?$CUtlMap@PBDPAVIEntityFactory@@G@@QAE@HHP6A_NABQBD0@Z@Z ; CUtlMap<char const *,IEntityFactory *,unsigned short>::CUtlMap<char const *,IEntityFactory *,unsigned short>
PUBLIC	??A?$CUtlMap@PBDPAVIEntityFactory@@G@@QAEAAPAVIEntityFactory@@G@Z ; CUtlMap<char const *,IEntityFactory *,unsigned short>::operator[]
PUBLIC	?Key@?$CUtlMap@PBDPAVIEntityFactory@@G@@QAEAAPBDG@Z ; CUtlMap<char const *,IEntityFactory *,unsigned short>::Key
PUBLIC	?InvalidIndex@?$CUtlMap@PBDPAVIEntityFactory@@G@@SAGXZ ; CUtlMap<char const *,IEntityFactory *,unsigned short>::InvalidIndex
PUBLIC	?SetLessFunc@?$CUtlMap@PBDPAVIEntityFactory@@G@@QAEXP6A_NABQBD0@Z@Z ; CUtlMap<char const *,IEntityFactory *,unsigned short>::SetLessFunc
PUBLIC	?Insert@?$CUtlMap@PBDPAVIEntityFactory@@G@@QAEGABQBDABQAVIEntityFactory@@@Z ; CUtlMap<char const *,IEntityFactory *,unsigned short>::Insert
PUBLIC	?Find@?$CUtlMap@PBDPAVIEntityFactory@@G@@QBEGABQBD@Z ; CUtlMap<char const *,IEntityFactory *,unsigned short>::Find
PUBLIC	?RemoveAll@?$CUtlMap@PBDPAVIEntityFactory@@G@@QAEXXZ ; CUtlMap<char const *,IEntityFactory *,unsigned short>::RemoveAll
PUBLIC	?FirstInorder@?$CUtlMap@PBDPAVIEntityFactory@@G@@QBEGXZ ; CUtlMap<char const *,IEntityFactory *,unsigned short>::FirstInorder
PUBLIC	?NextInorder@?$CUtlMap@PBDPAVIEntityFactory@@G@@QBEGG@Z ; CUtlMap<char const *,IEntityFactory *,unsigned short>::NextInorder
PUBLIC	??0?$CUtlRBTree@UNode_t@?$CUtlMap@PBDPAVIEntityFactory@@G@@GVCKeyLess@2@V?$CUtlMemory@U?$UtlRBTreeNode_t@UNode_t@?$CUtlMap@PBDPAVIEntityFactory@@G@@G@@G@@@@QAE@HHABVCKeyLess@?$CUtlMap@PBDPAVIEntityFactory@@G@@@Z ; CUtlRBTree<CUtlMap<char const *,IEntityFactory *,unsigned short>::Node_t,unsigned short,CUtlMap<char const *,IEntityFactory *,unsigned short>::CKeyLess,CUtlMemory<UtlRBTreeNode_t<CUtlMap<char const *,IEntityFactory *,unsigned short>::Node_t,unsigned short>,unsigned short> >::CUtlRBTree<CUtlMap<char const *,IEntityFactory *,unsigned short>::Node_t,unsigned short,CUtlMap<char const *,IEntityFactory *,unsigned short>::CKeyLess,CUtlMemory<UtlRBTreeNode_t<CUtlMap<char const *,IEntityFactory *,unsigned short>::Node_t,unsigned short>,unsigned short> >
PUBLIC	??1?$CUtlRBTree@UNode_t@?$CUtlMap@PBDPAVIEntityFactory@@G@@GVCKeyLess@2@V?$CUtlMemory@U?$UtlRBTreeNode_t@UNode_t@?$CUtlMap@PBDPAVIEntityFactory@@G@@G@@G@@@@QAE@XZ ; CUtlRBTree<CUtlMap<char const *,IEntityFactory *,unsigned short>::Node_t,unsigned short,CUtlMap<char const *,IEntityFactory *,unsigned short>::CKeyLess,CUtlMemory<UtlRBTreeNode_t<CUtlMap<char const *,IEntityFactory *,unsigned short>::Node_t,unsigned short>,unsigned short> >::~CUtlRBTree<CUtlMap<char const *,IEntityFactory *,unsigned short>::Node_t,unsigned short,CUtlMap<char const *,IEntityFactory *,unsigned short>::CKeyLess,CUtlMemory<UtlRBTreeNode_t<CUtlMap<char const *,IEntityFactory *,unsigned short>::Node_t,unsigned short>,unsigned short> >
PUBLIC	?Element@?$CUtlRBTree@UNode_t@?$CUtlMap@PBDPAVIEntityFactory@@G@@GVCKeyLess@2@V?$CUtlMemory@U?$UtlRBTreeNode_t@UNode_t@?$CUtlMap@PBDPAVIEntityFactory@@G@@G@@G@@@@QAEAAUNode_t@?$CUtlMap@PBDPAVIEntityFactory@@G@@G@Z ; CUtlRBTree<CUtlMap<char const *,IEntityFactory *,unsigned short>::Node_t,unsigned short,CUtlMap<char const *,IEntityFactory *,unsigned short>::CKeyLess,CUtlMemory<UtlRBTreeNode_t<CUtlMap<char const *,IEntityFactory *,unsigned short>::Node_t,unsigned short>,unsigned short> >::Element
PUBLIC	?Element@?$CUtlRBTree@UNode_t@?$CUtlMap@PBDPAVIEntityFactory@@G@@GVCKeyLess@2@V?$CUtlMemory@U?$UtlRBTreeNode_t@UNode_t@?$CUtlMap@PBDPAVIEntityFactory@@G@@G@@G@@@@QBEABUNode_t@?$CUtlMap@PBDPAVIEntityFactory@@G@@G@Z ; CUtlRBTree<CUtlMap<char const *,IEntityFactory *,unsigned short>::Node_t,unsigned short,CUtlMap<char const *,IEntityFactory *,unsigned short>::CKeyLess,CUtlMemory<UtlRBTreeNode_t<CUtlMap<char const *,IEntityFactory *,unsigned short>::Node_t,unsigned short>,unsigned short> >::Element
PUBLIC	?Root@?$CUtlRBTree@UNode_t@?$CUtlMap@PBDPAVIEntityFactory@@G@@GVCKeyLess@2@V?$CUtlMemory@U?$UtlRBTreeNode_t@UNode_t@?$CUtlMap@PBDPAVIEntityFactory@@G@@G@@G@@@@QBEGXZ ; CUtlRBTree<CUtlMap<char const *,IEntityFactory *,unsigned short>::Node_t,unsigned short,CUtlMap<char const *,IEntityFactory *,unsigned short>::CKeyLess,CUtlMemory<UtlRBTreeNode_t<CUtlMap<char const *,IEntityFactory *,unsigned short>::Node_t,unsigned short>,unsigned short> >::Root
PUBLIC	?Count@?$CUtlRBTree@UNode_t@?$CUtlMap@PBDPAVIEntityFactory@@G@@GVCKeyLess@2@V?$CUtlMemory@U?$UtlRBTreeNode_t@UNode_t@?$CUtlMap@PBDPAVIEntityFactory@@G@@G@@G@@@@QBEIXZ ; CUtlRBTree<CUtlMap<char const *,IEntityFactory *,unsigned short>::Node_t,unsigned short,CUtlMap<char const *,IEntityFactory *,unsigned short>::CKeyLess,CUtlMemory<UtlRBTreeNode_t<CUtlMap<char const *,IEntityFactory *,unsigned short>::Node_t,unsigned short>,unsigned short> >::Count
PUBLIC	?Parent@?$CUtlRBTree@UNode_t@?$CUtlMap@PBDPAVIEntityFactory@@G@@GVCKeyLess@2@V?$CUtlMemory@U?$UtlRBTreeNode_t@UNode_t@?$CUtlMap@PBDPAVIEntityFactory@@G@@G@@G@@@@QBEGG@Z ; CUtlRBTree<CUtlMap<char const *,IEntityFactory *,unsigned short>::Node_t,unsigned short,CUtlMap<char const *,IEntityFactory *,unsigned short>::CKeyLess,CUtlMemory<UtlRBTreeNode_t<CUtlMap<char const *,IEntityFactory *,unsigned short>::Node_t,unsigned short>,unsigned short> >::Parent
PUBLIC	?LeftChild@?$CUtlRBTree@UNode_t@?$CUtlMap@PBDPAVIEntityFactory@@G@@GVCKeyLess@2@V?$CUtlMemory@U?$UtlRBTreeNode_t@UNode_t@?$CUtlMap@PBDPAVIEntityFactory@@G@@G@@G@@@@QBEGG@Z ; CUtlRBTree<CUtlMap<char const *,IEntityFactory *,unsigned short>::Node_t,unsigned short,CUtlMap<char const *,IEntityFactory *,unsigned short>::CKeyLess,CUtlMemory<UtlRBTreeNode_t<CUtlMap<char const *,IEntityFactory *,unsigned short>::Node_t,unsigned short>,unsigned short> >::LeftChild
PUBLIC	?RightChild@?$CUtlRBTree@UNode_t@?$CUtlMap@PBDPAVIEntityFactory@@G@@GVCKeyLess@2@V?$CUtlMemory@U?$UtlRBTreeNode_t@UNode_t@?$CUtlMap@PBDPAVIEntityFactory@@G@@G@@G@@@@QBEGG@Z ; CUtlRBTree<CUtlMap<char const *,IEntityFactory *,unsigned short>::Node_t,unsigned short,CUtlMap<char const *,IEntityFactory *,unsigned short>::CKeyLess,CUtlMemory<UtlRBTreeNode_t<CUtlMap<char const *,IEntityFactory *,unsigned short>::Node_t,unsigned short>,unsigned short> >::RightChild
PUBLIC	?IsLeftChild@?$CUtlRBTree@UNode_t@?$CUtlMap@PBDPAVIEntityFactory@@G@@GVCKeyLess@2@V?$CUtlMemory@U?$UtlRBTreeNode_t@UNode_t@?$CUtlMap@PBDPAVIEntityFactory@@G@@G@@G@@@@QBE_NG@Z ; CUtlRBTree<CUtlMap<char const *,IEntityFactory *,unsigned short>::Node_t,unsigned short,CUtlMap<char const *,IEntityFactory *,unsigned short>::CKeyLess,CUtlMemory<UtlRBTreeNode_t<CUtlMap<char const *,IEntityFactory *,unsigned short>::Node_t,unsigned short>,unsigned short> >::IsLeftChild
PUBLIC	?IsRightChild@?$CUtlRBTree@UNode_t@?$CUtlMap@PBDPAVIEntityFactory@@G@@GVCKeyLess@2@V?$CUtlMemory@U?$UtlRBTreeNode_t@UNode_t@?$CUtlMap@PBDPAVIEntityFactory@@G@@G@@G@@@@QBE_NG@Z ; CUtlRBTree<CUtlMap<char const *,IEntityFactory *,unsigned short>::Node_t,unsigned short,CUtlMap<char const *,IEntityFactory *,unsigned short>::CKeyLess,CUtlMemory<UtlRBTreeNode_t<CUtlMap<char const *,IEntityFactory *,unsigned short>::Node_t,unsigned short>,unsigned short> >::IsRightChild
PUBLIC	?IsRoot@?$CUtlRBTree@UNode_t@?$CUtlMap@PBDPAVIEntityFactory@@G@@GVCKeyLess@2@V?$CUtlMemory@U?$UtlRBTreeNode_t@UNode_t@?$CUtlMap@PBDPAVIEntityFactory@@G@@G@@G@@@@QBE_NG@Z ; CUtlRBTree<CUtlMap<char const *,IEntityFactory *,unsigned short>::Node_t,unsigned short,CUtlMap<char const *,IEntityFactory *,unsigned short>::CKeyLess,CUtlMemory<UtlRBTreeNode_t<CUtlMap<char const *,IEntityFactory *,unsigned short>::Node_t,unsigned short>,unsigned short> >::IsRoot
PUBLIC	?IsValidIndex@?$CUtlRBTree@UNode_t@?$CUtlMap@PBDPAVIEntityFactory@@G@@GVCKeyLess@2@V?$CUtlMemory@U?$UtlRBTreeNode_t@UNode_t@?$CUtlMap@PBDPAVIEntityFactory@@G@@G@@G@@@@QBE_NG@Z ; CUtlRBTree<CUtlMap<char const *,IEntityFactory *,unsigned short>::Node_t,unsigned short,CUtlMap<char const *,IEntityFactory *,unsigned short>::CKeyLess,CUtlMemory<UtlRBTreeNode_t<CUtlMap<char const *,IEntityFactory *,unsigned short>::Node_t,unsigned short>,unsigned short> >::IsValidIndex
PUBLIC	?IsValid@?$CUtlRBTree@UNode_t@?$CUtlMap@PBDPAVIEntityFactory@@G@@GVCKeyLess@2@V?$CUtlMemory@U?$UtlRBTreeNode_t@UNode_t@?$CUtlMap@PBDPAVIEntityFactory@@G@@G@@G@@@@QBE_NXZ ; CUtlRBTree<CUtlMap<char const *,IEntityFactory *,unsigned short>::Node_t,unsigned short,CUtlMap<char const *,IEntityFactory *,unsigned short>::CKeyLess,CUtlMemory<UtlRBTreeNode_t<CUtlMap<char const *,IEntityFactory *,unsigned short>::Node_t,unsigned short>,unsigned short> >::IsValid
PUBLIC	?InvalidIndex@?$CUtlRBTree@UNode_t@?$CUtlMap@PBDPAVIEntityFactory@@G@@GVCKeyLess@2@V?$CUtlMemory@U?$UtlRBTreeNode_t@UNode_t@?$CUtlMap@PBDPAVIEntityFactory@@G@@G@@G@@@@SAGXZ ; CUtlRBTree<CUtlMap<char const *,IEntityFactory *,unsigned short>::Node_t,unsigned short,CUtlMap<char const *,IEntityFactory *,unsigned short>::CKeyLess,CUtlMemory<UtlRBTreeNode_t<CUtlMap<char const *,IEntityFactory *,unsigned short>::Node_t,unsigned short>,unsigned short> >::InvalidIndex
PUBLIC	?SetLessFunc@?$CUtlRBTree@UNode_t@?$CUtlMap@PBDPAVIEntityFactory@@G@@GVCKeyLess@2@V?$CUtlMemory@U?$UtlRBTreeNode_t@UNode_t@?$CUtlMap@PBDPAVIEntityFactory@@G@@G@@G@@@@QAEXABVCKeyLess@?$CUtlMap@PBDPAVIEntityFactory@@G@@@Z ; CUtlRBTree<CUtlMap<char const *,IEntityFactory *,unsigned short>::Node_t,unsigned short,CUtlMap<char const *,IEntityFactory *,unsigned short>::CKeyLess,CUtlMemory<UtlRBTreeNode_t<CUtlMap<char const *,IEntityFactory *,unsigned short>::Node_t,unsigned short>,unsigned short> >::SetLessFunc
PUBLIC	?NewNode@?$CUtlRBTree@UNode_t@?$CUtlMap@PBDPAVIEntityFactory@@G@@GVCKeyLess@2@V?$CUtlMemory@U?$UtlRBTreeNode_t@UNode_t@?$CUtlMap@PBDPAVIEntityFactory@@G@@G@@G@@@@QAEGXZ ; CUtlRBTree<CUtlMap<char const *,IEntityFactory *,unsigned short>::Node_t,unsigned short,CUtlMap<char const *,IEntityFactory *,unsigned short>::CKeyLess,CUtlMemory<UtlRBTreeNode_t<CUtlMap<char const *,IEntityFactory *,unsigned short>::Node_t,unsigned short>,unsigned short> >::NewNode
PUBLIC	?Insert@?$CUtlRBTree@UNode_t@?$CUtlMap@PBDPAVIEntityFactory@@G@@GVCKeyLess@2@V?$CUtlMemory@U?$UtlRBTreeNode_t@UNode_t@?$CUtlMap@PBDPAVIEntityFactory@@G@@G@@G@@@@QAEGABUNode_t@?$CUtlMap@PBDPAVIEntityFactory@@G@@@Z ; CUtlRBTree<CUtlMap<char const *,IEntityFactory *,unsigned short>::Node_t,unsigned short,CUtlMap<char const *,IEntityFactory *,unsigned short>::CKeyLess,CUtlMemory<UtlRBTreeNode_t<CUtlMap<char const *,IEntityFactory *,unsigned short>::Node_t,unsigned short>,unsigned short> >::Insert
PUBLIC	?Find@?$CUtlRBTree@UNode_t@?$CUtlMap@PBDPAVIEntityFactory@@G@@GVCKeyLess@2@V?$CUtlMemory@U?$UtlRBTreeNode_t@UNode_t@?$CUtlMap@PBDPAVIEntityFactory@@G@@G@@G@@@@QBEGABUNode_t@?$CUtlMap@PBDPAVIEntityFactory@@G@@@Z ; CUtlRBTree<CUtlMap<char const *,IEntityFactory *,unsigned short>::Node_t,unsigned short,CUtlMap<char const *,IEntityFactory *,unsigned short>::CKeyLess,CUtlMemory<UtlRBTreeNode_t<CUtlMap<char const *,IEntityFactory *,unsigned short>::Node_t,unsigned short>,unsigned short> >::Find
PUBLIC	?RemoveAll@?$CUtlRBTree@UNode_t@?$CUtlMap@PBDPAVIEntityFactory@@G@@GVCKeyLess@2@V?$CUtlMemory@U?$UtlRBTreeNode_t@UNode_t@?$CUtlMap@PBDPAVIEntityFactory@@G@@G@@G@@@@QAEXXZ ; CUtlRBTree<CUtlMap<char const *,IEntityFactory *,unsigned short>::Node_t,unsigned short,CUtlMap<char const *,IEntityFactory *,unsigned short>::CKeyLess,CUtlMemory<UtlRBTreeNode_t<CUtlMap<char const *,IEntityFactory *,unsigned short>::Node_t,unsigned short>,unsigned short> >::RemoveAll
PUBLIC	?Purge@?$CUtlRBTree@UNode_t@?$CUtlMap@PBDPAVIEntityFactory@@G@@GVCKeyLess@2@V?$CUtlMemory@U?$UtlRBTreeNode_t@UNode_t@?$CUtlMap@PBDPAVIEntityFactory@@G@@G@@G@@@@QAEXXZ ; CUtlRBTree<CUtlMap<char const *,IEntityFactory *,unsigned short>::Node_t,unsigned short,CUtlMap<char const *,IEntityFactory *,unsigned short>::CKeyLess,CUtlMemory<UtlRBTreeNode_t<CUtlMap<char const *,IEntityFactory *,unsigned short>::Node_t,unsigned short>,unsigned short> >::Purge
PUBLIC	?FirstInorder@?$CUtlRBTree@UNode_t@?$CUtlMap@PBDPAVIEntityFactory@@G@@GVCKeyLess@2@V?$CUtlMemory@U?$UtlRBTreeNode_t@UNode_t@?$CUtlMap@PBDPAVIEntityFactory@@G@@G@@G@@@@QBEGXZ ; CUtlRBTree<CUtlMap<char const *,IEntityFactory *,unsigned short>::Node_t,unsigned short,CUtlMap<char const *,IEntityFactory *,unsigned short>::CKeyLess,CUtlMemory<UtlRBTreeNode_t<CUtlMap<char const *,IEntityFactory *,unsigned short>::Node_t,unsigned short>,unsigned short> >::FirstInorder
PUBLIC	?NextInorder@?$CUtlRBTree@UNode_t@?$CUtlMap@PBDPAVIEntityFactory@@G@@GVCKeyLess@2@V?$CUtlMemory@U?$UtlRBTreeNode_t@UNode_t@?$CUtlMap@PBDPAVIEntityFactory@@G@@G@@G@@@@QBEGG@Z ; CUtlRBTree<CUtlMap<char const *,IEntityFactory *,unsigned short>::Node_t,unsigned short,CUtlMap<char const *,IEntityFactory *,unsigned short>::CKeyLess,CUtlMemory<UtlRBTreeNode_t<CUtlMap<char const *,IEntityFactory *,unsigned short>::Node_t,unsigned short>,unsigned short> >::NextInorder
PUBLIC	?SetParent@?$CUtlRBTree@UNode_t@?$CUtlMap@PBDPAVIEntityFactory@@G@@GVCKeyLess@2@V?$CUtlMemory@U?$UtlRBTreeNode_t@UNode_t@?$CUtlMap@PBDPAVIEntityFactory@@G@@G@@G@@@@IAEXGG@Z ; CUtlRBTree<CUtlMap<char const *,IEntityFactory *,unsigned short>::Node_t,unsigned short,CUtlMap<char const *,IEntityFactory *,unsigned short>::CKeyLess,CUtlMemory<UtlRBTreeNode_t<CUtlMap<char const *,IEntityFactory *,unsigned short>::Node_t,unsigned short>,unsigned short> >::SetParent
PUBLIC	?SetLeftChild@?$CUtlRBTree@UNode_t@?$CUtlMap@PBDPAVIEntityFactory@@G@@GVCKeyLess@2@V?$CUtlMemory@U?$UtlRBTreeNode_t@UNode_t@?$CUtlMap@PBDPAVIEntityFactory@@G@@G@@G@@@@IAEXGG@Z ; CUtlRBTree<CUtlMap<char const *,IEntityFactory *,unsigned short>::Node_t,unsigned short,CUtlMap<char const *,IEntityFactory *,unsigned short>::CKeyLess,CUtlMemory<UtlRBTreeNode_t<CUtlMap<char const *,IEntityFactory *,unsigned short>::Node_t,unsigned short>,unsigned short> >::SetLeftChild
PUBLIC	?SetRightChild@?$CUtlRBTree@UNode_t@?$CUtlMap@PBDPAVIEntityFactory@@G@@GVCKeyLess@2@V?$CUtlMemory@U?$UtlRBTreeNode_t@UNode_t@?$CUtlMap@PBDPAVIEntityFactory@@G@@G@@G@@@@IAEXGG@Z ; CUtlRBTree<CUtlMap<char const *,IEntityFactory *,unsigned short>::Node_t,unsigned short,CUtlMap<char const *,IEntityFactory *,unsigned short>::CKeyLess,CUtlMemory<UtlRBTreeNode_t<CUtlMap<char const *,IEntityFactory *,unsigned short>::Node_t,unsigned short>,unsigned short> >::SetRightChild
PUBLIC	?LinkToParent@?$CUtlRBTree@UNode_t@?$CUtlMap@PBDPAVIEntityFactory@@G@@GVCKeyLess@2@V?$CUtlMemory@U?$UtlRBTreeNode_t@UNode_t@?$CUtlMap@PBDPAVIEntityFactory@@G@@G@@G@@@@IAEXGG_N@Z ; CUtlRBTree<CUtlMap<char const *,IEntityFactory *,unsigned short>::Node_t,unsigned short,CUtlMap<char const *,IEntityFactory *,unsigned short>::CKeyLess,CUtlMemory<UtlRBTreeNode_t<CUtlMap<char const *,IEntityFactory *,unsigned short>::Node_t,unsigned short>,unsigned short> >::LinkToParent
PUBLIC	?Links@?$CUtlRBTree@UNode_t@?$CUtlMap@PBDPAVIEntityFactory@@G@@GVCKeyLess@2@V?$CUtlMemory@U?$UtlRBTreeNode_t@UNode_t@?$CUtlMap@PBDPAVIEntityFactory@@G@@G@@G@@@@IBEABU?$UtlRBTreeLinks_t@G@@G@Z ; CUtlRBTree<CUtlMap<char const *,IEntityFactory *,unsigned short>::Node_t,unsigned short,CUtlMap<char const *,IEntityFactory *,unsigned short>::CKeyLess,CUtlMemory<UtlRBTreeNode_t<CUtlMap<char const *,IEntityFactory *,unsigned short>::Node_t,unsigned short>,unsigned short> >::Links
PUBLIC	?Links@?$CUtlRBTree@UNode_t@?$CUtlMap@PBDPAVIEntityFactory@@G@@GVCKeyLess@2@V?$CUtlMemory@U?$UtlRBTreeNode_t@UNode_t@?$CUtlMap@PBDPAVIEntityFactory@@G@@G@@G@@@@IAEAAU?$UtlRBTreeLinks_t@G@@G@Z ; CUtlRBTree<CUtlMap<char const *,IEntityFactory *,unsigned short>::Node_t,unsigned short,CUtlMap<char const *,IEntityFactory *,unsigned short>::CKeyLess,CUtlMemory<UtlRBTreeNode_t<CUtlMap<char const *,IEntityFactory *,unsigned short>::Node_t,unsigned short>,unsigned short> >::Links
PUBLIC	?IsRed@?$CUtlRBTree@UNode_t@?$CUtlMap@PBDPAVIEntityFactory@@G@@GVCKeyLess@2@V?$CUtlMemory@U?$UtlRBTreeNode_t@UNode_t@?$CUtlMap@PBDPAVIEntityFactory@@G@@G@@G@@@@IBE_NG@Z ; CUtlRBTree<CUtlMap<char const *,IEntityFactory *,unsigned short>::Node_t,unsigned short,CUtlMap<char const *,IEntityFactory *,unsigned short>::CKeyLess,CUtlMemory<UtlRBTreeNode_t<CUtlMap<char const *,IEntityFactory *,unsigned short>::Node_t,unsigned short>,unsigned short> >::IsRed
PUBLIC	?Color@?$CUtlRBTree@UNode_t@?$CUtlMap@PBDPAVIEntityFactory@@G@@GVCKeyLess@2@V?$CUtlMemory@U?$UtlRBTreeNode_t@UNode_t@?$CUtlMap@PBDPAVIEntityFactory@@G@@G@@G@@@@IBE?AW4NodeColor_t@1@G@Z ; CUtlRBTree<CUtlMap<char const *,IEntityFactory *,unsigned short>::Node_t,unsigned short,CUtlMap<char const *,IEntityFactory *,unsigned short>::CKeyLess,CUtlMemory<UtlRBTreeNode_t<CUtlMap<char const *,IEntityFactory *,unsigned short>::Node_t,unsigned short>,unsigned short> >::Color
PUBLIC	?SetColor@?$CUtlRBTree@UNode_t@?$CUtlMap@PBDPAVIEntityFactory@@G@@GVCKeyLess@2@V?$CUtlMemory@U?$UtlRBTreeNode_t@UNode_t@?$CUtlMap@PBDPAVIEntityFactory@@G@@G@@G@@@@IAEXGW4NodeColor_t@1@@Z ; CUtlRBTree<CUtlMap<char const *,IEntityFactory *,unsigned short>::Node_t,unsigned short,CUtlMap<char const *,IEntityFactory *,unsigned short>::CKeyLess,CUtlMemory<UtlRBTreeNode_t<CUtlMap<char const *,IEntityFactory *,unsigned short>::Node_t,unsigned short>,unsigned short> >::SetColor
PUBLIC	?RotateLeft@?$CUtlRBTree@UNode_t@?$CUtlMap@PBDPAVIEntityFactory@@G@@GVCKeyLess@2@V?$CUtlMemory@U?$UtlRBTreeNode_t@UNode_t@?$CUtlMap@PBDPAVIEntityFactory@@G@@G@@G@@@@IAEXG@Z ; CUtlRBTree<CUtlMap<char const *,IEntityFactory *,unsigned short>::Node_t,unsigned short,CUtlMap<char const *,IEntityFactory *,unsigned short>::CKeyLess,CUtlMemory<UtlRBTreeNode_t<CUtlMap<char const *,IEntityFactory *,unsigned short>::Node_t,unsigned short>,unsigned short> >::RotateLeft
PUBLIC	?RotateRight@?$CUtlRBTree@UNode_t@?$CUtlMap@PBDPAVIEntityFactory@@G@@GVCKeyLess@2@V?$CUtlMemory@U?$UtlRBTreeNode_t@UNode_t@?$CUtlMap@PBDPAVIEntityFactory@@G@@G@@G@@@@IAEXG@Z ; CUtlRBTree<CUtlMap<char const *,IEntityFactory *,unsigned short>::Node_t,unsigned short,CUtlMap<char const *,IEntityFactory *,unsigned short>::CKeyLess,CUtlMemory<UtlRBTreeNode_t<CUtlMap<char const *,IEntityFactory *,unsigned short>::Node_t,unsigned short>,unsigned short> >::RotateRight
PUBLIC	?InsertRebalance@?$CUtlRBTree@UNode_t@?$CUtlMap@PBDPAVIEntityFactory@@G@@GVCKeyLess@2@V?$CUtlMemory@U?$UtlRBTreeNode_t@UNode_t@?$CUtlMap@PBDPAVIEntityFactory@@G@@G@@G@@@@IAEXG@Z ; CUtlRBTree<CUtlMap<char const *,IEntityFactory *,unsigned short>::Node_t,unsigned short,CUtlMap<char const *,IEntityFactory *,unsigned short>::CKeyLess,CUtlMemory<UtlRBTreeNode_t<CUtlMap<char const *,IEntityFactory *,unsigned short>::Node_t,unsigned short>,unsigned short> >::InsertRebalance
PUBLIC	?InsertAt@?$CUtlRBTree@UNode_t@?$CUtlMap@PBDPAVIEntityFactory@@G@@GVCKeyLess@2@V?$CUtlMemory@U?$UtlRBTreeNode_t@UNode_t@?$CUtlMap@PBDPAVIEntityFactory@@G@@G@@G@@@@IAEGG_N@Z ; CUtlRBTree<CUtlMap<char const *,IEntityFactory *,unsigned short>::Node_t,unsigned short,CUtlMap<char const *,IEntityFactory *,unsigned short>::CKeyLess,CUtlMemory<UtlRBTreeNode_t<CUtlMap<char const *,IEntityFactory *,unsigned short>::Node_t,unsigned short>,unsigned short> >::InsertAt
PUBLIC	?FindInsertionPosition@?$CUtlRBTree@UNode_t@?$CUtlMap@PBDPAVIEntityFactory@@G@@GVCKeyLess@2@V?$CUtlMemory@U?$UtlRBTreeNode_t@UNode_t@?$CUtlMap@PBDPAVIEntityFactory@@G@@G@@G@@@@IAEXABUNode_t@?$CUtlMap@PBDPAVIEntityFactory@@G@@AAGAA_N@Z ; CUtlRBTree<CUtlMap<char const *,IEntityFactory *,unsigned short>::Node_t,unsigned short,CUtlMap<char const *,IEntityFactory *,unsigned short>::CKeyLess,CUtlMemory<UtlRBTreeNode_t<CUtlMap<char const *,IEntityFactory *,unsigned short>::Node_t,unsigned short>,unsigned short> >::FindInsertionPosition
PUBLIC	??0CKeyLess@?$CUtlMap@PBDPAVIEntityFactory@@G@@QAE@P6A_NABQBD0@Z@Z ; CUtlMap<char const *,IEntityFactory *,unsigned short>::CKeyLess::CKeyLess
PUBLIC	??7CKeyLess@?$CUtlMap@PBDPAVIEntityFactory@@G@@QBE_NXZ ; CUtlMap<char const *,IEntityFactory *,unsigned short>::CKeyLess::operator!
PUBLIC	??RCKeyLess@?$CUtlMap@PBDPAVIEntityFactory@@G@@QBE_NABUNode_t@1@0@Z ; CUtlMap<char const *,IEntityFactory *,unsigned short>::CKeyLess::operator()
PUBLIC	??0?$CUtlMemory@U?$UtlRBTreeNode_t@UNode_t@?$CUtlMap@PBDPAVIEntityFactory@@G@@G@@G@@QAE@HH@Z ; CUtlMemory<UtlRBTreeNode_t<CUtlMap<char const *,IEntityFactory *,unsigned short>::Node_t,unsigned short>,unsigned short>::CUtlMemory<UtlRBTreeNode_t<CUtlMap<char const *,IEntityFactory *,unsigned short>::Node_t,unsigned short>,unsigned short>
PUBLIC	??1?$CUtlMemory@U?$UtlRBTreeNode_t@UNode_t@?$CUtlMap@PBDPAVIEntityFactory@@G@@G@@G@@QAE@XZ ; CUtlMemory<UtlRBTreeNode_t<CUtlMap<char const *,IEntityFactory *,unsigned short>::Node_t,unsigned short>,unsigned short>::~CUtlMemory<UtlRBTreeNode_t<CUtlMap<char const *,IEntityFactory *,unsigned short>::Node_t,unsigned short>,unsigned short>
PUBLIC	?First@?$CUtlMemory@U?$UtlRBTreeNode_t@UNode_t@?$CUtlMap@PBDPAVIEntityFactory@@G@@G@@G@@QBE?AVIterator_t@1@XZ ; CUtlMemory<UtlRBTreeNode_t<CUtlMap<char const *,IEntityFactory *,unsigned short>::Node_t,unsigned short>,unsigned short>::First
PUBLIC	?Next@?$CUtlMemory@U?$UtlRBTreeNode_t@UNode_t@?$CUtlMap@PBDPAVIEntityFactory@@G@@G@@G@@QBE?AVIterator_t@1@ABV21@@Z ; CUtlMemory<UtlRBTreeNode_t<CUtlMap<char const *,IEntityFactory *,unsigned short>::Node_t,unsigned short>,unsigned short>::Next
PUBLIC	?GetIndex@?$CUtlMemory@U?$UtlRBTreeNode_t@UNode_t@?$CUtlMap@PBDPAVIEntityFactory@@G@@G@@G@@QBEGABVIterator_t@1@@Z ; CUtlMemory<UtlRBTreeNode_t<CUtlMap<char const *,IEntityFactory *,unsigned short>::Node_t,unsigned short>,unsigned short>::GetIndex
PUBLIC	?IsIdxAfter@?$CUtlMemory@U?$UtlRBTreeNode_t@UNode_t@?$CUtlMap@PBDPAVIEntityFactory@@G@@G@@G@@QBE_NGABVIterator_t@1@@Z ; CUtlMemory<UtlRBTreeNode_t<CUtlMap<char const *,IEntityFactory *,unsigned short>::Node_t,unsigned short>,unsigned short>::IsIdxAfter
PUBLIC	?IsValidIterator@?$CUtlMemory@U?$UtlRBTreeNode_t@UNode_t@?$CUtlMap@PBDPAVIEntityFactory@@G@@G@@G@@QBE_NABVIterator_t@1@@Z ; CUtlMemory<UtlRBTreeNode_t<CUtlMap<char const *,IEntityFactory *,unsigned short>::Node_t,unsigned short>,unsigned short>::IsValidIterator
PUBLIC	?InvalidIterator@?$CUtlMemory@U?$UtlRBTreeNode_t@UNode_t@?$CUtlMap@PBDPAVIEntityFactory@@G@@G@@G@@QBE?AVIterator_t@1@XZ ; CUtlMemory<UtlRBTreeNode_t<CUtlMap<char const *,IEntityFactory *,unsigned short>::Node_t,unsigned short>,unsigned short>::InvalidIterator
PUBLIC	??A?$CUtlMemory@U?$UtlRBTreeNode_t@UNode_t@?$CUtlMap@PBDPAVIEntityFactory@@G@@G@@G@@QAEAAU?$UtlRBTreeNode_t@UNode_t@?$CUtlMap@PBDPAVIEntityFactory@@G@@G@@G@Z ; CUtlMemory<UtlRBTreeNode_t<CUtlMap<char const *,IEntityFactory *,unsigned short>::Node_t,unsigned short>,unsigned short>::operator[]
PUBLIC	??A?$CUtlMemory@U?$UtlRBTreeNode_t@UNode_t@?$CUtlMap@PBDPAVIEntityFactory@@G@@G@@G@@QBEABU?$UtlRBTreeNode_t@UNode_t@?$CUtlMap@PBDPAVIEntityFactory@@G@@G@@G@Z ; CUtlMemory<UtlRBTreeNode_t<CUtlMap<char const *,IEntityFactory *,unsigned short>::Node_t,unsigned short>,unsigned short>::operator[]
PUBLIC	?IsIdxValid@?$CUtlMemory@U?$UtlRBTreeNode_t@UNode_t@?$CUtlMap@PBDPAVIEntityFactory@@G@@G@@G@@QBE_NG@Z ; CUtlMemory<UtlRBTreeNode_t<CUtlMap<char const *,IEntityFactory *,unsigned short>::Node_t,unsigned short>,unsigned short>::IsIdxValid
PUBLIC	?InvalidIndex@?$CUtlMemory@U?$UtlRBTreeNode_t@UNode_t@?$CUtlMap@PBDPAVIEntityFactory@@G@@G@@G@@SAGXZ ; CUtlMemory<UtlRBTreeNode_t<CUtlMap<char const *,IEntityFactory *,unsigned short>::Node_t,unsigned short>,unsigned short>::InvalidIndex
PUBLIC	?Base@?$CUtlMemory@U?$UtlRBTreeNode_t@UNode_t@?$CUtlMap@PBDPAVIEntityFactory@@G@@G@@G@@QAEPAU?$UtlRBTreeNode_t@UNode_t@?$CUtlMap@PBDPAVIEntityFactory@@G@@G@@XZ ; CUtlMemory<UtlRBTreeNode_t<CUtlMap<char const *,IEntityFactory *,unsigned short>::Node_t,unsigned short>,unsigned short>::Base
PUBLIC	?Grow@?$CUtlMemory@U?$UtlRBTreeNode_t@UNode_t@?$CUtlMap@PBDPAVIEntityFactory@@G@@G@@G@@QAEXH@Z ; CUtlMemory<UtlRBTreeNode_t<CUtlMap<char const *,IEntityFactory *,unsigned short>::Node_t,unsigned short>,unsigned short>::Grow
PUBLIC	?Purge@?$CUtlMemory@U?$UtlRBTreeNode_t@UNode_t@?$CUtlMap@PBDPAVIEntityFactory@@G@@G@@G@@QAEXXZ ; CUtlMemory<UtlRBTreeNode_t<CUtlMap<char const *,IEntityFactory *,unsigned short>::Node_t,unsigned short>,unsigned short>::Purge
PUBLIC	?IsExternallyAllocated@?$CUtlMemory@U?$UtlRBTreeNode_t@UNode_t@?$CUtlMap@PBDPAVIEntityFactory@@G@@G@@G@@QBE_NXZ ; CUtlMemory<UtlRBTreeNode_t<CUtlMap<char const *,IEntityFactory *,unsigned short>::Node_t,unsigned short>,unsigned short>::IsExternallyAllocated
PUBLIC	?IsReadOnly@?$CUtlMemory@U?$UtlRBTreeNode_t@UNode_t@?$CUtlMap@PBDPAVIEntityFactory@@G@@G@@G@@QBE_NXZ ; CUtlMemory<UtlRBTreeNode_t<CUtlMap<char const *,IEntityFactory *,unsigned short>::Node_t,unsigned short>,unsigned short>::IsReadOnly
PUBLIC	?ValidateGrowSize@?$CUtlMemory@U?$UtlRBTreeNode_t@UNode_t@?$CUtlMap@PBDPAVIEntityFactory@@G@@G@@G@@IAEXXZ ; CUtlMemory<UtlRBTreeNode_t<CUtlMap<char const *,IEntityFactory *,unsigned short>::Node_t,unsigned short>,unsigned short>::ValidateGrowSize
PUBLIC	??0Iterator_t@?$CUtlMemory@U?$UtlRBTreeNode_t@UNode_t@?$CUtlMap@PBDPAVIEntityFactory@@G@@G@@G@@QAE@G@Z ; CUtlMemory<UtlRBTreeNode_t<CUtlMap<char const *,IEntityFactory *,unsigned short>::Node_t,unsigned short>,unsigned short>::Iterator_t::Iterator_t
PUBLIC	??8Iterator_t@?$CUtlMemory@U?$UtlRBTreeNode_t@UNode_t@?$CUtlMap@PBDPAVIEntityFactory@@G@@G@@G@@QBE_NV01@@Z ; CUtlMemory<UtlRBTreeNode_t<CUtlMap<char const *,IEntityFactory *,unsigned short>::Node_t,unsigned short>,unsigned short>::Iterator_t::operator==
PUBLIC	??9Iterator_t@?$CUtlMemory@U?$UtlRBTreeNode_t@UNode_t@?$CUtlMap@PBDPAVIEntityFactory@@G@@G@@G@@QBE_NV01@@Z ; CUtlMemory<UtlRBTreeNode_t<CUtlMap<char const *,IEntityFactory *,unsigned short>::Node_t,unsigned short>,unsigned short>::Iterator_t::operator!=
PUBLIC	?ResetDbgInfo@?$CUtlRBTree@UNode_t@?$CUtlMap@PBDPAVIEntityFactory@@G@@GVCKeyLess@2@V?$CUtlMemory@U?$UtlRBTreeNode_t@UNode_t@?$CUtlMap@PBDPAVIEntityFactory@@G@@G@@G@@@@IAEXXZ ; CUtlRBTree<CUtlMap<char const *,IEntityFactory *,unsigned short>::Node_t,unsigned short,CUtlMap<char const *,IEntityFactory *,unsigned short>::CKeyLess,CUtlMemory<UtlRBTreeNode_t<CUtlMap<char const *,IEntityFactory *,unsigned short>::Node_t,unsigned short>,unsigned short> >::ResetDbgInfo
PUBLIC	??1?$CUtlMap@PBDPAVIEntityFactory@@G@@QAE@XZ	; CUtlMap<char const *,IEntityFactory *,unsigned short>::~CUtlMap<char const *,IEntityFactory *,unsigned short>
PUBLIC	??1CEntityFactoryDictionary@@QAE@XZ		; CEntityFactoryDictionary::~CEntityFactoryDictionary
PUBLIC	_custom
PUBLIC	??$__vcrt_va_start_verify_argument_type@PBD@@YAXXZ ; __vcrt_va_start_verify_argument_type<char const *>
PUBLIC	?UTIL_MoveToOrigin@@YAXPAUedict_s@@ABVVector@@MH@Z ; UTIL_MoveToOrigin
PUBLIC	?UTIL_ScreenFadeBuild@@YAXAAUScreenFade@@ABVVector@@MMHH@Z ; UTIL_ScreenFadeBuild
PUBLIC	?UTIL_ScreenFadeWrite@@YAXABUScreenFade@@PAVCBaseEntity@@@Z ; UTIL_ScreenFadeWrite
PUBLIC	?UTIL_CopyTraceToGlobal@@YAXPAUtrace_s@@@Z	; UTIL_CopyTraceToGlobal
PUBLIC	?UTIL_ConvertTrace@@YAXPAUgametrace_s@@PAUtrace_s@@@Z ; UTIL_ConvertTrace
PUBLIC	??$__vcrt_va_start_verify_argument_type@PAD@@YAXXZ ; __vcrt_va_start_verify_argument_type<char *>
PUBLIC	??0Node_t@?$CUtlMap@PBDPAVIEntityFactory@@G@@QAE@XZ ; CUtlMap<char const *,IEntityFactory *,unsigned short>::Node_t::Node_t
PUBLIC	??0Node_t@?$CUtlMap@PBDPAVIEntityFactory@@G@@QAE@ABU01@@Z ; CUtlMap<char const *,IEntityFactory *,unsigned short>::Node_t::Node_t
PUBLIC	??$CopyConstruct@UNode_t@?$CUtlMap@PBDPAVIEntityFactory@@G@@@@YAXPAUNode_t@?$CUtlMap@PBDPAVIEntityFactory@@G@@ABU01@@Z ; CopyConstruct<CUtlMap<char const *,IEntityFactory *,unsigned short>::Node_t>
PUBLIC	??$Construct@UNode_t@?$CUtlMap@PBDPAVIEntityFactory@@G@@@@YAXPAUNode_t@?$CUtlMap@PBDPAVIEntityFactory@@G@@@Z ; Construct<CUtlMap<char const *,IEntityFactory *,unsigned short>::Node_t>
PUBLIC	??$Destruct@UNode_t@?$CUtlMap@PBDPAVIEntityFactory@@G@@@@YAXPAUNode_t@?$CUtlMap@PBDPAVIEntityFactory@@G@@@Z ; Destruct<CUtlMap<char const *,IEntityFactory *,unsigned short>::Node_t>
PUBLIC	?_OptionsStorage@?1??__local_stdio_printf_options@@9@4_KA ; `__local_stdio_printf_options'::`2'::_OptionsStorage
PUBLIC	??_C@_01NBENCBCI@?$CK?$AA@			; `string'
PUBLIC	??_C@_00CNPNBAHC@?$AA@				; `string'
PUBLIC	??_7IEntityFactoryDictionary@@6B@		; IEntityFactoryDictionary::`vftable'
PUBLIC	??_C@_09CNJINBGN@classname?$AA@			; `string'
PUBLIC	??_C@_0L@FEPNPAJD@targetname?$AA@		; `string'
PUBLIC	??_C@_06JJLAMBGK@target?$AA@			; `string'
PUBLIC	??_C@_0BF@CPEPILID@Bad?5ent?5in?5OFFSET?$CI?$CJ?6?$AA@ ; `string'
PUBLIC	??_C@_0BF@DOONGEFO@Bad?5pev?5in?5OFFSET?$CI?$CJ?6?$AA@ ; `string'
PUBLIC	??_C@_04HDOCAJNK@?$CFs?$CFs?$AA@		; `string'
PUBLIC	??_7CEntityFactoryDictionary@@6B@		; CEntityFactoryDictionary::`vftable'
PUBLIC	?__LINE__Var@?0??InstallFactory@CEntityFactoryDictionary@@UAEXPAVIEntityFactory@@PBD@Z@4JA ; `CEntityFactoryDictionary::InstallFactory'::`1'::__LINE__Var
PUBLIC	??_C@_1IE@NGBBGFHJ@?$AAd?$AA?3?$AA?2?$AA?$CB?$AAd?$AAi?$AAf?$AAf?$AAu?$AAs?$AAi?$AAo?$AAn?$AA?5?$AA2?$AA0?$AA2?$AA0?$AA?2?$AAs?$AAo?$AAu?$AAr?$AAc?$AAe?$AA?5?$AAc?$AAo?$AAd?$AAe?$AA?5?$AA2@ ; `string'
PUBLIC	??_C@_1EE@DJKMNDPK@?$AAF?$AAi?$AAn?$AAd?$AAF?$AAa?$AAc?$AAt?$AAo?$AAr?$AAy?$AA?$CI?$AA?5?$AAp?$AAC?$AAl?$AAa?$AAs?$AAs?$AAN?$AAa?$AAm?$AAe?$AA?5?$AA?$CJ?$AA?5?$AA?$DN?$AA?$DN?$AA?5?$AAN?$AAU?$AAL@ ; `string'
PUBLIC	??_C@_0CN@EDMNCIHJ@Attempted?5to?5create?5unknown?5enti@ ; `string'
PUBLIC	??_C@_0CO@BCJHKPIF@Attempted?5to?5destroy?5unknown?5ent@ ; `string'
PUBLIC	??_C@_0P@FLOJJBNJ@?5?$CFs?3?5?$CFd?5bytes?6?$AA@ ; `string'
PUBLIC	??_C@_0BP@EKJAMGDB@Entity?5Factory?5not?5installed?$CB?6?$AA@ ; `string'
PUBLIC	??_C@_03OFAPEBGM@?$CFs?6?$AA@			; `string'
PUBLIC	?__LINE__Var@?0??UTIL_FunctionToName@@YAPBDPAUdatamap_s@@PAX@Z@4JA ; `UTIL_FunctionToName'::`1'::__LINE__Var
PUBLIC	??_C@_0EC@HIIDFEJP@d?3?2?$CBdiffusion?52020?2source?5code?52@ ; `string'
PUBLIC	??_C@_0DB@HMOMJHEN@sizeof?$CIpMap?9?$DOdataDesc?$FLi?$FN?4func?$CJ?5?$DN@ ; `string'
PUBLIC	?__LINE__Var@?0??UTIL_FunctionFromName@@YAPAXPAUdatamap_s@@PBD@Z@4JA ; `UTIL_FunctionFromName'::`1'::__LINE__Var
PUBLIC	??_C@_0BM@KIPIGGJD@Failed?5to?5find?5function?5?$CFs?6?$AA@ ; `string'
PUBLIC	??_C@_0DJ@CNJCBHEO@entvars_t?5pContainingEntity?5is?5N@ ; `string'
PUBLIC	??_C@_0DC@GHGLEAMP@DAMN?$CB?5?5Even?5the?5engine?5couldn?8t?5@ ; `string'
PUBLIC	??_C@_0BP@JGGHDAMF@ASSERT?5FAILED?3?6?5?$CFs?5?6?$CI?$CFs?$EA?$CFd?$CJ?6?$CFs?$AA@ ; `string'
PUBLIC	??_C@_0BM@BEAJEFCJ@ASSERT?5FAILED?3?6?5?$CFs?5?6?$CI?$CFs?$EA?$CFd?$CJ?$AA@ ; `string'
PUBLIC	??_C@_0BA@HKOJACLM@common?1null?4wav?$AA@	; `string'
PUBLIC	??_C@_0BE@CAMCEHHF@buttons?1button1?4wav?$AA@	; `string'
PUBLIC	??_C@_0BE@KGFGDFNL@buttons?1button2?4wav?$AA@	; `string'
PUBLIC	??_C@_0BE@GNAKOGHO@buttons?1button3?4wav?$AA@	; `string'
PUBLIC	??_C@_0BE@HAAPNGMG@buttons?1button4?4wav?$AA@	; `string'
PUBLIC	??_C@_0BE@LLFDAFGD@buttons?1button5?4wav?$AA@	; `string'
PUBLIC	??_C@_0BE@DNMHHHMN@buttons?1button6?4wav?$AA@	; `string'
PUBLIC	??_C@_0BE@PGJLKEGI@buttons?1button7?4wav?$AA@	; `string'
PUBLIC	??_C@_0BE@HMNBGLN@buttons?1button8?4wav?$AA@	; `string'
PUBLIC	??_C@_0BE@MMJBMFBI@buttons?1button9?4wav?$AA@	; `string'
PUBLIC	??_C@_0BF@DJOOOKGD@buttons?1button10?4wav?$AA@	; `string'
PUBLIC	??_C@_0BF@PCLCDJMG@buttons?1button11?4wav?$AA@	; `string'
PUBLIC	??_C@_0BJ@NJGHAHDG@buttons?1latchlocked1?4wav?$AA@ ; `string'
PUBLIC	??_C@_0BL@KIJJHNJN@buttons?1latchunlocked1?4wav?$AA@ ; `string'
PUBLIC	??_C@_0BJ@BHFHBCLE@buttons?1lightswitch2?4wav?$AA@ ; `string'
PUBLIC	??_C@_0BD@ENNHPNKC@buttons?1lever1?4wav?$AA@	; `string'
PUBLIC	??_C@_0BD@MLEDIPAM@buttons?1lever2?4wav?$AA@	; `string'
PUBLIC	??_C@_0BD@BPFMKJ@buttons?1lever3?4wav?$AA@	; `string'
PUBLIC	??_C@_0BD@BNBKGMBB@buttons?1lever4?4wav?$AA@	; `string'
PUBLIC	??_C@_0BD@NGEGLPLE@buttons?1lever5?4wav?$AA@	; `string'
PUBLIC	??_C@_06IPCFPMHD@USE_ON?$AA@			; `string'
PUBLIC	??_C@_07GBLDLMEB@USE_OFF?$AA@			; `string'
PUBLIC	??_C@_0L@OGLLPLDI@USE_TOGGLE?$AA@		; `string'
PUBLIC	??_C@_07BMOJKOM@USE_SET?$AA@			; `string'
PUBLIC	??_C@_09BMBMPLBD@USE_RESET?$AA@			; `string'
PUBLIC	??_C@_0L@LKEFPLIM@USE_REMOVE?$AA@		; `string'
PUBLIC	??_C@_0BC@KILIBAEO@UNKNOWN?5USE_TYPE?$CB?$AA@	; `string'
PUBLIC	??_C@_02BFICIOJL@ON?$AA@			; `string'
PUBLIC	??_C@_03MPPIHBHJ@OFF?$AA@			; `string'
PUBLIC	??_C@_07CJNHFDCG@TURN?5ON?$AA@			; `string'
PUBLIC	??_C@_08HKBEOLJF@TURN?5OFF?$AA@			; `string'
PUBLIC	??_C@_06FILEIAAK@IN?5USE?$AA@			; `string'
PUBLIC	??_C@_04NNCJDDJC@DEAD?$AA@			; `string'
PUBLIC	??_C@_0P@DDEIIOOC@UNKNOWN?5STATE?$CB?$AA@	; `string'
PUBLIC	??_C@_0BO@CJHNLOLN@Unknown?5state?5?8?$CFs?8?5specified?6?$AA@ ; `string'
PUBLIC	??_C@_08GEAGNOOL@DAMAGE?3?5?$AA@		; `string'
PUBLIC	??_C@_08KCJHNIOM@Generic?5?$AA@			; `string'
PUBLIC	??_C@_06MKGCDNFI@Crush?5?$AA@			; `string'
PUBLIC	??_C@_07KGEFKMPI@Bullet?5?$AA@			; `string'
PUBLIC	??_C@_06BAAPDDP@Slash?5?$AA@			; `string'
PUBLIC	??_C@_05CLGEDABL@Burn?5?$AA@			; `string'
PUBLIC	??_C@_07NICJCBLL@Freeze?5?$AA@			; `string'
PUBLIC	??_C@_05JGNHLHIN@Fall?5?$AA@			; `string'
PUBLIC	??_C@_06NFJFDOFB@Blast?5?$AA@			; `string'
PUBLIC	??_C@_05BJAFNHJA@Club?5?$AA@			; `string'
PUBLIC	??_C@_06HHPOOGIO@Shock?5?$AA@			; `string'
PUBLIC	??_C@_06DGDFEOFK@Sonic?5?$AA@			; `string'
PUBLIC	??_C@_0N@EDIGKLKL@Energy?5Beam?5?$AA@		; `string'
PUBLIC	??_C@_0L@DCELGEEG@Never?5Gib?5?$AA@		; `string'
PUBLIC	??_C@_0M@DBLGIPPB@Always?5Gib?5?$AA@		; `string'
PUBLIC	??_C@_06KOHKGHBA@Drown?5?$AA@			; `string'
PUBLIC	??_C@_0O@FNBCIECF@Paralyze?5Gas?5?$AA@		; `string'
PUBLIC	??_C@_0L@OHLKEAGK@Nerve?5Gas?5?$AA@		; `string'
PUBLIC	??_C@_07JHAEAOAM@Poison?5?$AA@			; `string'
PUBLIC	??_C@_0L@NJHMBGOH@Radiation?5?$AA@		; `string'
PUBLIC	??_C@_0P@GIMMOKAK@Drown?5Recover?5?$AA@		; `string'
PUBLIC	??_C@_05MINPHFNP@Acid?5?$AA@			; `string'
PUBLIC	??_C@_0L@DBFEJAOP@Slow?5Burn?5?$AA@		; `string'
PUBLIC	??_C@_0N@HOCPLMNK@Slow?5Freeze?5?$AA@		; `string'
PUBLIC	??_C@_07FOGICJJJ@Mortar?5?$AA@			; `string'
PUBLIC	??_C@_0BB@DPEOBDLP@Nuclear?5Explode?5?$AA@	; `string'
PUBLIC	??_C@_05HKAKDGKI@EMPTY?$AA@			; `string'
PUBLIC	??_C@_05CEBIDAFG@SOLID?$AA@			; `string'
PUBLIC	??_C@_05IAJGPPOC@WATER?$AA@			; `string'
PUBLIC	??_C@_05EKHECDCJ@SLIME?$AA@			; `string'
PUBLIC	??_C@_04GCFKOLE@LAVA?$AA@			; `string'
PUBLIC	??_C@_03BALFAEJD@SKY?$AA@			; `string'
PUBLIC	??_C@_06GCOFKHFL@LADDER?$AA@			; `string'
PUBLIC	??_C@_08LBLMGPPJ@FLYFIELD?$AA@			; `string'
PUBLIC	??_C@_0BB@EODHJKLI@GRAVITY_FLYFIELD?$AA@	; `string'
PUBLIC	??_C@_03KEDKDEDN@FOG?$AA@			; `string'
PUBLIC	??_C@_09EKIMMEFD@SPECIAL?51?$AA@		; `string'
PUBLIC	??_C@_09GBKBJHJA@SPECIAL?52?$AA@		; `string'
PUBLIC	??_C@_09HILKKGNB@SPECIAL?53?$AA@		; `string'
PUBLIC	??_C@_0N@PCPMIODG@NO?5CONTENTS?$CB?$AA@		; `string'
PUBLIC	??_C@_09JHJFKEJL@GLOBAL?5ON?$AA@		; `string'
PUBLIC	??_C@_0L@MPHKGGFD@GLOBAL?5OFF?$AA@		; `string'
PUBLIC	??_C@_0M@GJCHIFD@GLOBAL?5DEAD?$AA@		; `string'
PUBLIC	??_C@_06BCLBLBIN@?$CKlocus?$AA@			; `string'
PUBLIC	??_C@_0CH@BAAGDENI@UTIL_HudMessage?3?5Message?5is?5too?5@ ; `string'
PUBLIC	??_C@_02DPKJAMEF@?$CFd?$AA@			; `string'
PUBLIC	??_C@_0BM@LHAMECIN@Missing?5?8?$CJ?8?5in?5master?5?$CC?$CFs?$CC?6?$AA@ ; `string'
PUBLIC	??_C@_0BO@DJEDJFHM@Missing?5?8?$CJ?8?5in?5targetname?3?5?$CFs?$AA@ ; `string'
PUBLIC	??_C@_0CG@KKOBGNAB@Firing?3?5?$CFs?5?$CI?$CFs?$CJ?5with?5?$CFs?5and?5valu@ ; `string'
PUBLIC	??_C@_0BD@PNMHEJJE@buttons?1spark1?4wav?$AA@	; `string'
PUBLIC	??_C@_0BD@HLFDDLDK@buttons?1spark2?4wav?$AA@	; `string'
PUBLIC	??_C@_0BD@LAAPOIJP@buttons?1spark3?4wav?$AA@	; `string'
PUBLIC	??_C@_0CA@GPGNKNKH@NULL?5Ent?5in?5UTIL_PrecacheOther?6?$AA@ ; `string'
PUBLIC	??_C@_0CK@LHGCDBLH@UTIL_PrecacheSound?3?5sound?5not?5sp@ ; `string'
PUBLIC	??_C@_08PLMKPHCL@sound?1?$CFs?$AA@		; `string'
PUBLIC	??_C@_03BICDMHKB@wav?$AA@			; `string'
PUBLIC	??_C@_03LHGNACFN@mp3?$AA@			; `string'
PUBLIC	??_C@_0BH@COBPOMJP@sound?5?$CC?$CFs?$CC?5not?5found?$CB?6?$AA@ ; `string'
PUBLIC	??_C@_0BE@IENMFMOB@invalid?5name?5?$CC?$CFs?$CC?$CB?6?$AA@ ; `string'
PUBLIC	??_C@_08BKEEFKLC@media?1?$CFs?$AA@		; `string'
PUBLIC	??_C@_0CA@CLMDLIAA@Warning?3?5video?5?$CI?$CFs?$CJ?5not?5found?$CB?6?$AA@ ; `string'
PUBLIC	??_C@_02DKCKIIND@?$CFs?$AA@			; `string'
PUBLIC	??_C@_0CD@PELPNBCA@UTIL_SetView?3?5pActivator?5?$DN?$DN?5NULL@ ; `string'
PUBLIC	??_C@_0CI@GPMHCHBN@UTIL_SetView?3?5pActivator?5not?5a?5p@ ; `string'
PUBLIC	??_C@_0CE@HLOCMEGG@UTIL_GetModelBounds?3?5NULL?5model?5@ ; `string'
PUBLIC	??_C@_0CG@IENKKELO@UTIL_SetSize?3?5?$CFs?5backwards?5mins?1@ ; `string'
PUBLIC	?__LINE__Var@?0??UTIL_DropToFloor@@YAHPAVCBaseEntity@@@Z@4JA ; `UTIL_DropToFloor'::`1'::__LINE__Var
PUBLIC	??_C@_0BA@LOGAJLJO@pEntity?5?$CB?$DN?5NULL?$AA@	; `string'
PUBLIC	??_C@_0DI@FMOBHFJP@Entity?5?$CFi?5SOLID_BSP?5with?5a?5non?5b@ ; `string'
PUBLIC	??_C@_0BE@FOEPOJBH@footsteps?1wade1?4wav?$AA@	; `string'
PUBLIC	??_C@_0BE@NINLJLLJ@footsteps?1wade2?4wav?$AA@	; `string'
PUBLIC	??_C@_0BE@BDIHEIBM@footsteps?1wade3?4wav?$AA@	; `string'
PUBLIC	??_C@_0BE@OICHIKE@footsteps?1wade4?4wav?$AA@	; `string'
PUBLIC	??_C@_09ILGMALND@?$CFs?1bin?1?$CFs?$AA@		; `string'
PUBLIC	??_C@_0BI@BOKDEL@?$CFs?5loaded?5succesfully?$CB?6?$AA@ ; `string'
PUBLIC	??_C@_1JE@CIIIAKCN@?$AAd?$AA?3?$AA?2?$AA?$CB?$AAd?$AAi?$AAf?$AAf?$AAu?$AAs?$AAi?$AAo?$AAn?$AA?5?$AA2?$AA0?$AA2?$AA0?$AA?2?$AAs?$AAo?$AAu?$AAr?$AAc?$AAe?$AA?5?$AAc?$AAo?$AAd?$AAe?$AA?5?$AA2@ ; `string'
PUBLIC	??_C@_1BO@FOOHAONO@?$AAn?$AAG?$AAr?$AAo?$AAw?$AAS?$AAi?$AAz?$AAe?$AA?5?$AA?$DO?$AA?$DN?$AA?5?$AA0?$AA?$AA@ ; `string'
PUBLIC	??_C@_1BM@PFNFCCHH@?$AA?$CB?$AAI?$AAs?$AAR?$AAe?$AAa?$AAd?$AAO?$AAn?$AAl?$AAy?$AA?$CI?$AA?$CJ?$AA?$AA@ ; `string'
PUBLIC	??_C@_1BM@CKILBAKK@?$AAI?$AAs?$AAI?$AAd?$AAx?$AAV?$AAa?$AAl?$AAi?$AAd?$AA?$CI?$AAi?$AA?$CJ?$AA?$AA@ ; `string'
PUBLIC	??_C@_1JE@LJJIJLOD@?$AAd?$AA?3?$AA?2?$AA?$CB?$AAd?$AAi?$AAf?$AAf?$AAu?$AAs?$AAi?$AAo?$AAn?$AA?5?$AA2?$AA0?$AA2?$AA0?$AA?2?$AAs?$AAo?$AAu?$AAr?$AAc?$AAe?$AA?5?$AAc?$AAo?$AAd?$AAe?$AA?5?$AA2@ ; `string'
PUBLIC	??_C@_13COJANIEC@?$AA0?$AA?$AA@			; `string'
PUBLIC	??_C@_1BI@EHKAMAJG@?$AA?$CG?$AAm?$AA_?$AAL?$AAe?$AAs?$AAs?$AAF?$AAu?$AAn?$AAc?$AA?$AA@ ; `string'
PUBLIC	??_C@_1CA@DONHBKAI@?$AAI?$AAs?$AAV?$AAa?$AAl?$AAi?$AAd?$AAI?$AAn?$AAd?$AAe?$AAx?$AA?$CI?$AAi?$AA?$CJ?$AA?$AA@ ; `string'
PUBLIC	??_C@_1BE@PGFEGIPI@?$AAI?$AAs?$AAV?$AAa?$AAl?$AAi?$AAd?$AA?$CI?$AA?$CJ?$AA?$AA@ ; `string'
PUBLIC	??_C@_1BA@PKCLMAEA@?$AAn?$AAu?$AAm?$AA?5?$AA?$DO?$AA?5?$AA0?$AA?$AA@ ; `string'
PUBLIC	??_C@_1BE@OPPFELHC@?$AAm?$AA_?$AAp?$AAM?$AAe?$AAm?$AAo?$AAr?$AAy?$AA?$AA@ ; `string'
PUBLIC	??_C@_1IA@FEFGPOEE@?$AAm?$AA_?$AAE?$AAl?$AAe?$AAm?$AAe?$AAn?$AAt?$AAs?$AA?4?$AAI?$AAs?$AAV?$AAa?$AAl?$AAi?$AAd?$AAI?$AAt?$AAe?$AAr?$AAa?$AAt?$AAo?$AAr?$AA?$CI?$AA?5?$AAm?$AA_?$AAL?$AAa@ ; `string'
PUBLIC	??_C@_1EC@LMJCOEPO@?$AAm?$AA_?$AAE?$AAl?$AAe?$AAm?$AAe?$AAn?$AAt?$AAs?$AA?4?$AAI?$AAs?$AAV?$AAa?$AAl?$AAi?$AAd?$AAI?$AAt?$AAe?$AAr?$AAa?$AAt?$AAo?$AAr?$AA?$CI?$AA?5?$AAi?$AAt?$AA?5?$AA?$CJ@ ; `string'
PUBLIC	??_C@_0BG@EMENODEA@CUtlRBTree?5overflow?$CB?6?$AA@ ; `string'
PUBLIC	??_C@_1FE@NEDOCPL@?$AAm?$AA_?$AAE?$AAl?$AAe?$AAm?$AAe?$AAn?$AAt?$AAs?$AA?4?$AAI?$AAs?$AAV?$AAa?$AAl?$AAi?$AAd?$AAI?$AAt?$AAe?$AAr?$AAa?$AAt?$AAo?$AAr?$AA?$CI?$AA?5?$AAm?$AA_?$AAL?$AAa@ ; `string'
PUBLIC	??_C@_1DC@KJHFBOJD@?$AAm?$AA_?$AAR?$AAo?$AAo?$AAt?$AA?5?$AA?$DN?$AA?$DN?$AA?5?$AAI?$AAn?$AAv?$AAa?$AAl?$AAi?$AAd?$AAI?$AAn?$AAd?$AAe?$AAx?$AA?$CI?$AA?$CJ?$AA?$AA@ ; `string'
PUBLIC	??_C@_1DM@ECFCBGBK@?$AAm?$AA_?$AAF?$AAi?$AAr?$AAs?$AAt?$AAF?$AAr?$AAe?$AAe?$AA?5?$AA?$DN?$AA?$DN?$AA?5?$AAI?$AAn?$AAv?$AAa?$AAl?$AAi?$AAd?$AAI?$AAn?$AAd?$AAe?$AAx?$AA?$CI?$AA?$CJ?$AA?$AA@ ; `string'
PUBLIC	??_C@_1CG@EKJOGMPO@?$AAm?$AA_?$AAN?$AAu?$AAm?$AAE?$AAl?$AAe?$AAm?$AAe?$AAn?$AAt?$AAs?$AA?5?$AA?$DN?$AA?$DN?$AA?5?$AA0?$AA?$AA@ ; `string'
PUBLIC	?s_Sentinel@?1??Links@?$CUtlRBTree@UNode_t@?$CUtlMap@PBDPAVIEntityFactory@@G@@GVCKeyLess@2@V?$CUtlMemory@U?$UtlRBTreeNode_t@UNode_t@?$CUtlMap@PBDPAVIEntityFactory@@G@@G@@G@@@@IBEABU?$UtlRBTreeLinks_t@G@@G@Z@4U3@A ; `CUtlRBTree<CUtlMap<char const *,IEntityFactory *,unsigned short>::Node_t,unsigned short,CUtlMap<char const *,IEntityFactory *,unsigned short>::CKeyLess,CUtlMemory<UtlRBTreeNode_t<CUtlMap<char const *,IEntityFactory *,unsigned short>::Node_t,unsigned short>,unsigned short> >::Links'::`2'::s_Sentinel
PUBLIC	?$TSS0@?1??Links@?$CUtlRBTree@UNode_t@?$CUtlMap@PBDPAVIEntityFactory@@G@@GVCKeyLess@2@V?$CUtlMemory@U?$UtlRBTreeNode_t@UNode_t@?$CUtlMap@PBDPAVIEntityFactory@@G@@G@@G@@@@IBEABU?$UtlRBTreeLinks_t@G@@G@Z@4HA ; `CUtlRBTree<CUtlMap<char const *,IEntityFactory *,unsigned short>::Node_t,unsigned short,CUtlMap<char const *,IEntityFactory *,unsigned short>::CKeyLess,CUtlMemory<UtlRBTreeNode_t<CUtlMap<char const *,IEntityFactory *,unsigned short>::Node_t,unsigned short>,unsigned short> >::Links'::`2'::$TSS0
PUBLIC	??_C@_1CI@BLCAOE@?$AAi?$AA?5?$AA?$CB?$AA?$DN?$AA?5?$AAI?$AAn?$AAv?$AAa?$AAl?$AAi?$AAd?$AAI?$AAn?$AAd?$AAe?$AAx?$AA?$CI?$AA?$CJ?$AA?$AA@ ; `string'
PUBLIC	??_R4IEntityFactoryDictionary@@6B@		; IEntityFactoryDictionary::`RTTI Complete Object Locator'
PUBLIC	??_R0?AVIEntityFactoryDictionary@@@8		; IEntityFactoryDictionary `RTTI Type Descriptor'
PUBLIC	??_R3IEntityFactoryDictionary@@8		; IEntityFactoryDictionary::`RTTI Class Hierarchy Descriptor'
PUBLIC	??_R2IEntityFactoryDictionary@@8		; IEntityFactoryDictionary::`RTTI Base Class Array'
PUBLIC	??_R1A@?0A@EA@IEntityFactoryDictionary@@8	; IEntityFactoryDictionary::`RTTI Base Class Descriptor at (0,-1,0,64)'
PUBLIC	??_R4CEntityFactoryDictionary@@6B@		; CEntityFactoryDictionary::`RTTI Complete Object Locator'
PUBLIC	??_R0?AVCEntityFactoryDictionary@@@8		; CEntityFactoryDictionary `RTTI Type Descriptor'
PUBLIC	??_R3CEntityFactoryDictionary@@8		; CEntityFactoryDictionary::`RTTI Class Hierarchy Descriptor'
PUBLIC	??_R2CEntityFactoryDictionary@@8		; CEntityFactoryDictionary::`RTTI Base Class Array'
PUBLIC	??_R1A@?0A@EA@CEntityFactoryDictionary@@8	; CEntityFactoryDictionary::`RTTI Base Class Descriptor at (0,-1,0,64)'
PUBLIC	__real@00000000
PUBLIC	__real@3a83126f
PUBLIC	__real@3bb40000
PUBLIC	__real@3e4ccccd
PUBLIC	__real@3e800000
PUBLIC	__real@3f000000
PUBLIC	__real@3f400000
PUBLIC	__real@3f4ccccd
PUBLIC	__real@3f800000
PUBLIC	__real@3f91df46a2529d39
PUBLIC	__real@3fa00000
PUBLIC	__real@3fe0000000000000
PUBLIC	__real@3feeb851eb851eb8
PUBLIC	__real@3ff0000000000000
PUBLIC	__real@40000000
PUBLIC	__real@4000000000000000
PUBLIC	__real@4008000000000000
PUBLIC	__real@40400000
PUBLIC	__real@41000000
PUBLIC	__real@41200000
PUBLIC	__real@41400000
PUBLIC	__real@41700000
PUBLIC	__real@42100000
PUBLIC	__real@42652ee1
PUBLIC	__real@42fe0000
PUBLIC	__real@43340000
PUBLIC	__real@43360b61
PUBLIC	__real@435c0000
PUBLIC	__real@43800000
PUBLIC	__real@43b40000
PUBLIC	__real@44800000
PUBLIC	__real@45800000
PUBLIC	__real@46000000
PUBLIC	__real@bf4ccccd
PUBLIC	__real@bf800000
PUBLIC	__real@c0000000
PUBLIC	__real@c3340000
PUBLIC	__xmm@41f00000000000000000000000000000
PUBLIC	__xmm@80000000800000008000000080000000
EXTRN	__purecall:PROC
EXTRN	_atexit:PROC
EXTRN	___report_rangecheckfailure:PROC
EXTRN	__Init_thread_header:PROC
EXTRN	__Init_thread_abort:PROC
EXTRN	__Init_thread_footer:PROC
EXTRN	_memset:PROC
EXTRN	_strcmp:PROC
EXTRN	_strcpy:PROC
EXTRN	_strlen:PROC
EXTRN	_strncpy:PROC
EXTRN	_strdup:PROC
EXTRN	_stricmp:PROC
EXTRN	__imp__FreeLibrary@4:PROC
EXTRN	__imp__GetProcAddress@8:PROC
EXTRN	__imp__LoadLibraryA@4:PROC
EXTRN	___stdio_common_vsprintf:PROC
EXTRN	_free:PROC
EXTRN	_malloc:PROC
EXTRN	_realloc:PROC
EXTRN	_atof:PROC
EXTRN	_atoi:PROC
EXTRN	_atan2:PROC
EXTRN	_cos:PROC
EXTRN	_sin:PROC
EXTRN	_sqrt:PROC
EXTRN	??0matrix4x4@@QAE@XZ:PROC			; matrix4x4::matrix4x4
EXTRN	??4matrix4x4@@QAEAAV0@ABV0@@Z:PROC		; matrix4x4::operator=
EXTRN	?ConcatTransforms@matrix4x4@@QAE?AV1@V1@@Z:PROC	; matrix4x4::ConcatTransforms
EXTRN	?VectorAngles@@YAXABVVector@@AAV1@@Z:PROC	; VectorAngles
EXTRN	?UTIL_FileExtension@@YAPBDPBD@Z:PROC		; UTIL_FileExtension
EXTRN	?Q_isdigit@@YA_NPBD@Z:PROC			; Q_isdigit
EXTRN	?Q_strncat@@YAIPADPBDI@Z:PROC			; Q_strncat
EXTRN	?Q_strncpy@@YAIPADPBDI@Z:PROC			; Q_strncpy
EXTRN	?Q_atoi@@YAHPBD@Z:PROC				; Q_atoi
EXTRN	?Q_atof@@YAMPBD@Z:PROC				; Q_atof
EXTRN	?Q_strnicmp@@YAHPBD0H@Z:PROC			; Q_strnicmp
EXTRN	?Q_strncmp@@YAHPBD0H@Z:PROC			; Q_strncmp
EXTRN	?Q_vsnprintf@@YAHPADIPBD0@Z:PROC		; Q_vsnprintf
EXTRN	?Q_snprintf@@YAHPADIPBDZZ:PROC			; Q_snprintf
EXTRN	__wassert:PROC
EXTRN	?Dump@CStringPool@@QAEXXZ:PROC			; CStringPool::Dump
EXTRN	?CreateEntityByName@@YAPAVCBaseEntity@@PBDPAUentvars_s@@@Z:PROC ; CreateEntityByName
EXTRN	?SENTENCEG_Lookup@@YAHPBDPAD@Z:PROC		; SENTENCEG_Lookup
EXTRN	?EMIT_SOUND_DYN@@YAXPAUedict_s@@HPBDMMHH@Z:PROC	; EMIT_SOUND_DYN
EXTRN	?SetAbsOrigin@CBaseEntity@@QAEXABVVector@@@Z:PROC ; CBaseEntity::SetAbsOrigin
EXTRN	?GetAbsOrigin@CBaseEntity@@QBEABVVector@@XZ:PROC ; CBaseEntity::GetAbsOrigin
EXTRN	?GetAbsAngles@CBaseEntity@@QBEABVVector@@XZ:PROC ; CBaseEntity::GetAbsAngles
EXTRN	?SetLocalOrigin@CBaseEntity@@QAEXABVVector@@@Z:PROC ; CBaseEntity::SetLocalOrigin
EXTRN	?SetLocalAngles@CBaseEntity@@QAEXABVVector@@@Z:PROC ; CBaseEntity::SetLocalAngles
EXTRN	?SetAbsVelocity@CBaseEntity@@QAEXABVVector@@@Z:PROC ; CBaseEntity::SetAbsVelocity
EXTRN	?CalcAbsolutePosition@CBaseEntity@@QAEXXZ:PROC	; CBaseEntity::CalcAbsolutePosition
EXTRN	?GetParentToWorldTransform@CBaseEntity@@QAE?AVmatrix4x4@@XZ:PROC ; CBaseEntity::GetParentToWorldTransform
EXTRN	?GetRootParent@CBaseEntity@@QAEPAV1@XZ:PROC	; CBaseEntity::GetRootParent
EXTRN	?UpdateOnRemove@CBaseEntity@@QAEXXZ:PROC	; CBaseEntity::UpdateOnRemove
EXTRN	?AreaIntersect@CBaseEntity@@QAEHVVector@@0@Z:PROC ; CBaseEntity::AreaIntersect
EXTRN	?RelinkEntity@CBaseEntity@@QAEXHPBVVector@@H@Z:PROC ; CBaseEntity::RelinkEntity
EXTRN	?SnapEyeAngles@CBasePlayer@@QAEXABVVector@@@Z:PROC ; CBasePlayer::SnapEyeAngles
EXTRN	@__security_check_cookie@4:PROC
EXTRN	___CxxFrameHandler3:PROC
EXTRN	__Init_thread_epoch:DWORD
EXTRN	?g_vecZero@@3VVector@@B:BYTE			; g_vecZero
EXTRN	?g_engfuncs@@3Uenginefuncs_s@@A:BYTE		; g_engfuncs
EXTRN	?g_physfuncs@@3Userver_physics_api_s@@A:BYTE	; g_physfuncs
EXTRN	??_7type_info@@6B@:QWORD			; type_info::`vftable'
EXTRN	?g_GameStringPool@@3VCStringPool@@A:BYTE	; g_GameStringPool
EXTRN	?gpGlobals@@3PAUglobalvars_t@@A:DWORD		; gpGlobals
EXTRN	?g_Language@@3HA:DWORD				; g_Language
EXTRN	?g_fPhysicInitialized@@3HA:DWORD		; g_fPhysicInitialized
EXTRN	?WorldPhysic@@3PAVIPhysicLayer@@A:DWORD		; WorldPhysic
EXTRN	?gmsgTempEnt@@3HA:DWORD				; gmsgTempEnt
EXTRN	?gmsgFade@@3HA:DWORD				; gmsgFade
EXTRN	?gDecals@@3PAUDLL_DECALLIST@@A:BYTE		; gDecals
EXTRN	?gmsgHudText@@3HA:DWORD				; gmsgHudText
EXTRN	?g_sModelIndexBubbles@@3FA:WORD			; g_sModelIndexBubbles
EXTRN	?g_pGameRules@@3PAVCGameRules@@A:DWORD		; g_pGameRules
EXTRN	?gmsgTextMsg@@3HA:DWORD				; gmsgTextMsg
EXTRN	?gmsgSayText@@3HA:DWORD				; gmsgSayText
EXTRN	___security_cookie:DWORD
EXTRN	__fltused:DWORD
EXTRN	__tls_array:DWORD
EXTRN	__tls_index:DWORD
;	COMDAT ?_OptionsStorage@?1??__local_stdio_printf_options@@9@4_KA
_BSS	SEGMENT
?_OptionsStorage@?1??__local_stdio_printf_options@@9@4_KA DQ 01H DUP (?) ; `__local_stdio_printf_options'::`2'::_OptionsStorage
_BSS	ENDS
_BSS	SEGMENT
?s_EntityFactory@?1??EntityFactoryDictionary@@YAPAVIEntityFactoryDictionary@@XZ@4VCEntityFactoryDictionary@@A DB 020H DUP (?) ; `EntityFactoryDictionary'::`2'::s_EntityFactory
?$TSS0@?1??EntityFactoryDictionary@@YAPAVIEntityFactoryDictionary@@XZ@4HA DD 01H DUP (?) ; `EntityFactoryDictionary'::`2'::$TSS0
?value@?1??Msg@@YAXPBDZZ@4PADA DB 0400H DUP (?)		; `Msg'::`2'::value
?buf@?1??UTIL_dtos1@@YAPADH@Z@4PADA DB 08H DUP (?)	; `UTIL_dtos1'::`2'::buf
?buf@?1??UTIL_dtos2@@YAPADH@Z@4PADA DB 08H DUP (?)	; `UTIL_dtos2'::`2'::buf
?buf@?1??UTIL_dtos3@@YAPADH@Z@4PADA DB 08H DUP (?)	; `UTIL_dtos3'::`2'::buf
?buf@?1??UTIL_dtos4@@YAPADH@Z@4PADA DB 08H DUP (?)	; `UTIL_dtos4'::`2'::buf
?string@?1??UTIL_VarArgs@@YAPADPADZZ@4PADA DB 0400H DUP (?) ; `UTIL_VarArgs'::`2'::string
?string@?1??UTIL_LogPrintf@@YAXPADZZ@4PADA DB 0400H DUP (?) ; `UTIL_LogPrintf'::`2'::string
_BSS	ENDS
;	COMDAT ?s_Sentinel@?1??Links@?$CUtlRBTree@UNode_t@?$CUtlMap@PBDPAVIEntityFactory@@G@@GVCKeyLess@2@V?$CUtlMemory@U?$UtlRBTreeNode_t@UNode_t@?$CUtlMap@PBDPAVIEntityFactory@@G@@G@@G@@@@IBEABU?$UtlRBTreeLinks_t@G@@G@Z@4U3@A
_BSS	SEGMENT
?s_Sentinel@?1??Links@?$CUtlRBTree@UNode_t@?$CUtlMap@PBDPAVIEntityFactory@@G@@GVCKeyLess@2@V?$CUtlMemory@U?$UtlRBTreeNode_t@UNode_t@?$CUtlMap@PBDPAVIEntityFactory@@G@@G@@G@@@@IBEABU?$UtlRBTreeLinks_t@G@@G@Z@4U3@A DQ 01H DUP (?) ; `CUtlRBTree<CUtlMap<char const *,IEntityFactory *,unsigned short>::Node_t,unsigned short,CUtlMap<char const *,IEntityFactory *,unsigned short>::CKeyLess,CUtlMemory<UtlRBTreeNode_t<CUtlMap<char const *,IEntityFactory *,unsigned short>::Node_t,unsigned short>,unsigned short> >::Links'::`2'::s_Sentinel
_BSS	ENDS
;	COMDAT ?$TSS0@?1??Links@?$CUtlRBTree@UNode_t@?$CUtlMap@PBDPAVIEntityFactory@@G@@GVCKeyLess@2@V?$CUtlMemory@U?$UtlRBTreeNode_t@UNode_t@?$CUtlMap@PBDPAVIEntityFactory@@G@@G@@G@@@@IBEABU?$UtlRBTreeLinks_t@G@@G@Z@4HA
_BSS	SEGMENT
?$TSS0@?1??Links@?$CUtlRBTree@UNode_t@?$CUtlMap@PBDPAVIEntityFactory@@G@@GVCKeyLess@2@V?$CUtlMemory@U?$UtlRBTreeNode_t@UNode_t@?$CUtlMap@PBDPAVIEntityFactory@@G@@G@@G@@@@IBEABU?$UtlRBTreeLinks_t@G@@G@Z@4HA DD 01H DUP (?) ; `CUtlRBTree<CUtlMap<char const *,IEntityFactory *,unsigned short>::Node_t,unsigned short,CUtlMap<char const *,IEntityFactory *,unsigned short>::CKeyLess,CUtlMemory<UtlRBTreeNode_t<CUtlMap<char const *,IEntityFactory *,unsigned short>::Node_t,unsigned short>,unsigned short> >::Links'::`2'::$TSS0
_BSS	ENDS
;	COMDAT __xmm@80000000800000008000000080000000
CONST	SEGMENT
__xmm@80000000800000008000000080000000 DB 00H, 00H, 00H, 080H, 00H, 00H, 00H
	DB	080H, 00H, 00H, 00H, 080H, 00H, 00H, 00H, 080H
CONST	ENDS
;	COMDAT __xmm@41f00000000000000000000000000000
CONST	SEGMENT
__xmm@41f00000000000000000000000000000 DB 00H, 00H, 00H, 00H, 00H, 00H, 00H
	DB	00H, 00H, 00H, 00H, 00H, 00H, 00H, 0f0H, 'A'
CONST	ENDS
;	COMDAT __real@c3340000
CONST	SEGMENT
__real@c3340000 DD 0c3340000r			; -180
CONST	ENDS
;	COMDAT __real@c0000000
CONST	SEGMENT
__real@c0000000 DD 0c0000000r			; -2
CONST	ENDS
;	COMDAT __real@bf800000
CONST	SEGMENT
__real@bf800000 DD 0bf800000r			; -1
CONST	ENDS
;	COMDAT __real@bf4ccccd
CONST	SEGMENT
__real@bf4ccccd DD 0bf4ccccdr			; -0.8
CONST	ENDS
;	COMDAT __real@46000000
CONST	SEGMENT
__real@46000000 DD 046000000r			; 8192
CONST	ENDS
;	COMDAT __real@45800000
CONST	SEGMENT
__real@45800000 DD 045800000r			; 4096
CONST	ENDS
;	COMDAT __real@44800000
CONST	SEGMENT
__real@44800000 DD 044800000r			; 1024
CONST	ENDS
;	COMDAT __real@43b40000
CONST	SEGMENT
__real@43b40000 DD 043b40000r			; 360
CONST	ENDS
;	COMDAT __real@43800000
CONST	SEGMENT
__real@43800000 DD 043800000r			; 256
CONST	ENDS
;	COMDAT __real@435c0000
CONST	SEGMENT
__real@435c0000 DD 0435c0000r			; 220
CONST	ENDS
;	COMDAT __real@43360b61
CONST	SEGMENT
__real@43360b61 DD 043360b61r			; 182.044
CONST	ENDS
;	COMDAT __real@43340000
CONST	SEGMENT
__real@43340000 DD 043340000r			; 180
CONST	ENDS
;	COMDAT __real@42fe0000
CONST	SEGMENT
__real@42fe0000 DD 042fe0000r			; 127
CONST	ENDS
;	COMDAT __real@42652ee1
CONST	SEGMENT
__real@42652ee1 DD 042652ee1r			; 57.2958
CONST	ENDS
;	COMDAT __real@42100000
CONST	SEGMENT
__real@42100000 DD 042100000r			; 36
CONST	ENDS
;	COMDAT __real@41700000
CONST	SEGMENT
__real@41700000 DD 041700000r			; 15
CONST	ENDS
;	COMDAT __real@41400000
CONST	SEGMENT
__real@41400000 DD 041400000r			; 12
CONST	ENDS
;	COMDAT __real@41200000
CONST	SEGMENT
__real@41200000 DD 041200000r			; 10
CONST	ENDS
;	COMDAT __real@41000000
CONST	SEGMENT
__real@41000000 DD 041000000r			; 8
CONST	ENDS
;	COMDAT __real@40400000
CONST	SEGMENT
__real@40400000 DD 040400000r			; 3
CONST	ENDS
;	COMDAT __real@4008000000000000
CONST	SEGMENT
__real@4008000000000000 DQ 04008000000000000r	; 3
CONST	ENDS
;	COMDAT __real@4000000000000000
CONST	SEGMENT
__real@4000000000000000 DQ 04000000000000000r	; 2
CONST	ENDS
;	COMDAT __real@40000000
CONST	SEGMENT
__real@40000000 DD 040000000r			; 2
CONST	ENDS
;	COMDAT __real@3ff0000000000000
CONST	SEGMENT
__real@3ff0000000000000 DQ 03ff0000000000000r	; 1
CONST	ENDS
;	COMDAT __real@3feeb851eb851eb8
CONST	SEGMENT
__real@3feeb851eb851eb8 DQ 03feeb851eb851eb8r	; 0.96
CONST	ENDS
;	COMDAT __real@3fe0000000000000
CONST	SEGMENT
__real@3fe0000000000000 DQ 03fe0000000000000r	; 0.5
CONST	ENDS
;	COMDAT __real@3fa00000
CONST	SEGMENT
__real@3fa00000 DD 03fa00000r			; 1.25
CONST	ENDS
;	COMDAT __real@3f91df46a2529d39
CONST	SEGMENT
__real@3f91df46a2529d39 DQ 03f91df46a2529d39r	; 0.0174533
CONST	ENDS
;	COMDAT __real@3f800000
CONST	SEGMENT
__real@3f800000 DD 03f800000r			; 1
CONST	ENDS
;	COMDAT __real@3f4ccccd
CONST	SEGMENT
__real@3f4ccccd DD 03f4ccccdr			; 0.8
CONST	ENDS
;	COMDAT __real@3f400000
CONST	SEGMENT
__real@3f400000 DD 03f400000r			; 0.75
CONST	ENDS
;	COMDAT __real@3f000000
CONST	SEGMENT
__real@3f000000 DD 03f000000r			; 0.5
CONST	ENDS
;	COMDAT __real@3e800000
CONST	SEGMENT
__real@3e800000 DD 03e800000r			; 0.25
CONST	ENDS
;	COMDAT __real@3e4ccccd
CONST	SEGMENT
__real@3e4ccccd DD 03e4ccccdr			; 0.2
CONST	ENDS
;	COMDAT __real@3bb40000
CONST	SEGMENT
__real@3bb40000 DD 03bb40000r			; 0.00549316
CONST	ENDS
;	COMDAT __real@3a83126f
CONST	SEGMENT
__real@3a83126f DD 03a83126fr			; 0.001
CONST	ENDS
;	COMDAT __real@00000000
CONST	SEGMENT
__real@00000000 DD 000000000r			; 0
CONST	ENDS
;	COMDAT ??_R1A@?0A@EA@CEntityFactoryDictionary@@8
rdata$r	SEGMENT
??_R1A@?0A@EA@CEntityFactoryDictionary@@8 DD FLAT:??_R0?AVCEntityFactoryDictionary@@@8 ; CEntityFactoryDictionary::`RTTI Base Class Descriptor at (0,-1,0,64)'
	DD	01H
	DD	00H
	DD	0ffffffffH
	DD	00H
	DD	040H
	DD	FLAT:??_R3CEntityFactoryDictionary@@8
rdata$r	ENDS
;	COMDAT ??_R2CEntityFactoryDictionary@@8
rdata$r	SEGMENT
??_R2CEntityFactoryDictionary@@8 DD FLAT:??_R1A@?0A@EA@CEntityFactoryDictionary@@8 ; CEntityFactoryDictionary::`RTTI Base Class Array'
	DD	FLAT:??_R1A@?0A@EA@IEntityFactoryDictionary@@8
rdata$r	ENDS
;	COMDAT ??_R3CEntityFactoryDictionary@@8
rdata$r	SEGMENT
??_R3CEntityFactoryDictionary@@8 DD 00H			; CEntityFactoryDictionary::`RTTI Class Hierarchy Descriptor'
	DD	00H
	DD	02H
	DD	FLAT:??_R2CEntityFactoryDictionary@@8
rdata$r	ENDS
;	COMDAT ??_R0?AVCEntityFactoryDictionary@@@8
data$r	SEGMENT
??_R0?AVCEntityFactoryDictionary@@@8 DD FLAT:??_7type_info@@6B@ ; CEntityFactoryDictionary `RTTI Type Descriptor'
	DD	00H
	DB	'.?AVCEntityFactoryDictionary@@', 00H
data$r	ENDS
;	COMDAT ??_R4CEntityFactoryDictionary@@6B@
rdata$r	SEGMENT
??_R4CEntityFactoryDictionary@@6B@ DD 00H		; CEntityFactoryDictionary::`RTTI Complete Object Locator'
	DD	00H
	DD	00H
	DD	FLAT:??_R0?AVCEntityFactoryDictionary@@@8
	DD	FLAT:??_R3CEntityFactoryDictionary@@8
rdata$r	ENDS
;	COMDAT ??_R1A@?0A@EA@IEntityFactoryDictionary@@8
rdata$r	SEGMENT
??_R1A@?0A@EA@IEntityFactoryDictionary@@8 DD FLAT:??_R0?AVIEntityFactoryDictionary@@@8 ; IEntityFactoryDictionary::`RTTI Base Class Descriptor at (0,-1,0,64)'
	DD	00H
	DD	00H
	DD	0ffffffffH
	DD	00H
	DD	040H
	DD	FLAT:??_R3IEntityFactoryDictionary@@8
rdata$r	ENDS
;	COMDAT ??_R2IEntityFactoryDictionary@@8
rdata$r	SEGMENT
??_R2IEntityFactoryDictionary@@8 DD FLAT:??_R1A@?0A@EA@IEntityFactoryDictionary@@8 ; IEntityFactoryDictionary::`RTTI Base Class Array'
rdata$r	ENDS
;	COMDAT ??_R3IEntityFactoryDictionary@@8
rdata$r	SEGMENT
??_R3IEntityFactoryDictionary@@8 DD 00H			; IEntityFactoryDictionary::`RTTI Class Hierarchy Descriptor'
	DD	00H
	DD	01H
	DD	FLAT:??_R2IEntityFactoryDictionary@@8
rdata$r	ENDS
;	COMDAT ??_R0?AVIEntityFactoryDictionary@@@8
data$r	SEGMENT
??_R0?AVIEntityFactoryDictionary@@@8 DD FLAT:??_7type_info@@6B@ ; IEntityFactoryDictionary `RTTI Type Descriptor'
	DD	00H
	DB	'.?AVIEntityFactoryDictionary@@', 00H
data$r	ENDS
;	COMDAT ??_R4IEntityFactoryDictionary@@6B@
rdata$r	SEGMENT
??_R4IEntityFactoryDictionary@@6B@ DD 00H		; IEntityFactoryDictionary::`RTTI Complete Object Locator'
	DD	00H
	DD	00H
	DD	FLAT:??_R0?AVIEntityFactoryDictionary@@@8
	DD	FLAT:??_R3IEntityFactoryDictionary@@8
rdata$r	ENDS
;	COMDAT ??_C@_1CI@BLCAOE@?$AAi?$AA?5?$AA?$CB?$AA?$DN?$AA?5?$AAI?$AAn?$AAv?$AAa?$AAl?$AAi?$AAd?$AAI?$AAn?$AAd?$AAe?$AAx?$AA?$CI?$AA?$CJ?$AA?$AA@
CONST	SEGMENT
??_C@_1CI@BLCAOE@?$AAi?$AA?5?$AA?$CB?$AA?$DN?$AA?5?$AAI?$AAn?$AAv?$AAa?$AAl?$AAi?$AAd?$AAI?$AAn?$AAd?$AAe?$AAx?$AA?$CI?$AA?$CJ?$AA?$AA@ DB 'i'
	DB	00H, ' ', 00H, '!', 00H, '=', 00H, ' ', 00H, 'I', 00H, 'n', 00H
	DB	'v', 00H, 'a', 00H, 'l', 00H, 'i', 00H, 'd', 00H, 'I', 00H, 'n'
	DB	00H, 'd', 00H, 'e', 00H, 'x', 00H, '(', 00H, ')', 00H, 00H, 00H ; `string'
CONST	ENDS
;	COMDAT ??_C@_1CG@EKJOGMPO@?$AAm?$AA_?$AAN?$AAu?$AAm?$AAE?$AAl?$AAe?$AAm?$AAe?$AAn?$AAt?$AAs?$AA?5?$AA?$DN?$AA?$DN?$AA?5?$AA0?$AA?$AA@
CONST	SEGMENT
??_C@_1CG@EKJOGMPO@?$AAm?$AA_?$AAN?$AAu?$AAm?$AAE?$AAl?$AAe?$AAm?$AAe?$AAn?$AAt?$AAs?$AA?5?$AA?$DN?$AA?$DN?$AA?5?$AA0?$AA?$AA@ DB 'm'
	DB	00H, '_', 00H, 'N', 00H, 'u', 00H, 'm', 00H, 'E', 00H, 'l', 00H
	DB	'e', 00H, 'm', 00H, 'e', 00H, 'n', 00H, 't', 00H, 's', 00H, ' '
	DB	00H, '=', 00H, '=', 00H, ' ', 00H, '0', 00H, 00H, 00H ; `string'
CONST	ENDS
;	COMDAT ??_C@_1DM@ECFCBGBK@?$AAm?$AA_?$AAF?$AAi?$AAr?$AAs?$AAt?$AAF?$AAr?$AAe?$AAe?$AA?5?$AA?$DN?$AA?$DN?$AA?5?$AAI?$AAn?$AAv?$AAa?$AAl?$AAi?$AAd?$AAI?$AAn?$AAd?$AAe?$AAx?$AA?$CI?$AA?$CJ?$AA?$AA@
CONST	SEGMENT
??_C@_1DM@ECFCBGBK@?$AAm?$AA_?$AAF?$AAi?$AAr?$AAs?$AAt?$AAF?$AAr?$AAe?$AAe?$AA?5?$AA?$DN?$AA?$DN?$AA?5?$AAI?$AAn?$AAv?$AAa?$AAl?$AAi?$AAd?$AAI?$AAn?$AAd?$AAe?$AAx?$AA?$CI?$AA?$CJ?$AA?$AA@ DB 'm'
	DB	00H, '_', 00H, 'F', 00H, 'i', 00H, 'r', 00H, 's', 00H, 't', 00H
	DB	'F', 00H, 'r', 00H, 'e', 00H, 'e', 00H, ' ', 00H, '=', 00H, '='
	DB	00H, ' ', 00H, 'I', 00H, 'n', 00H, 'v', 00H, 'a', 00H, 'l', 00H
	DB	'i', 00H, 'd', 00H, 'I', 00H, 'n', 00H, 'd', 00H, 'e', 00H, 'x'
	DB	00H, '(', 00H, ')', 00H, 00H, 00H		; `string'
CONST	ENDS
;	COMDAT ??_C@_1DC@KJHFBOJD@?$AAm?$AA_?$AAR?$AAo?$AAo?$AAt?$AA?5?$AA?$DN?$AA?$DN?$AA?5?$AAI?$AAn?$AAv?$AAa?$AAl?$AAi?$AAd?$AAI?$AAn?$AAd?$AAe?$AAx?$AA?$CI?$AA?$CJ?$AA?$AA@
CONST	SEGMENT
??_C@_1DC@KJHFBOJD@?$AAm?$AA_?$AAR?$AAo?$AAo?$AAt?$AA?5?$AA?$DN?$AA?$DN?$AA?5?$AAI?$AAn?$AAv?$AAa?$AAl?$AAi?$AAd?$AAI?$AAn?$AAd?$AAe?$AAx?$AA?$CI?$AA?$CJ?$AA?$AA@ DB 'm'
	DB	00H, '_', 00H, 'R', 00H, 'o', 00H, 'o', 00H, 't', 00H, ' ', 00H
	DB	'=', 00H, '=', 00H, ' ', 00H, 'I', 00H, 'n', 00H, 'v', 00H, 'a'
	DB	00H, 'l', 00H, 'i', 00H, 'd', 00H, 'I', 00H, 'n', 00H, 'd', 00H
	DB	'e', 00H, 'x', 00H, '(', 00H, ')', 00H, 00H, 00H ; `string'
CONST	ENDS
;	COMDAT ??_C@_1FE@NEDOCPL@?$AAm?$AA_?$AAE?$AAl?$AAe?$AAm?$AAe?$AAn?$AAt?$AAs?$AA?4?$AAI?$AAs?$AAV?$AAa?$AAl?$AAi?$AAd?$AAI?$AAt?$AAe?$AAr?$AAa?$AAt?$AAo?$AAr?$AA?$CI?$AA?5?$AAm?$AA_?$AAL?$AAa@
CONST	SEGMENT
??_C@_1FE@NEDOCPL@?$AAm?$AA_?$AAE?$AAl?$AAe?$AAm?$AAe?$AAn?$AAt?$AAs?$AA?4?$AAI?$AAs?$AAV?$AAa?$AAl?$AAi?$AAd?$AAI?$AAt?$AAe?$AAr?$AAa?$AAt?$AAo?$AAr?$AA?$CI?$AA?5?$AAm?$AA_?$AAL?$AAa@ DB 'm'
	DB	00H, '_', 00H, 'E', 00H, 'l', 00H, 'e', 00H, 'm', 00H, 'e', 00H
	DB	'n', 00H, 't', 00H, 's', 00H, '.', 00H, 'I', 00H, 's', 00H, 'V'
	DB	00H, 'a', 00H, 'l', 00H, 'i', 00H, 'd', 00H, 'I', 00H, 't', 00H
	DB	'e', 00H, 'r', 00H, 'a', 00H, 't', 00H, 'o', 00H, 'r', 00H, '('
	DB	00H, ' ', 00H, 'm', 00H, '_', 00H, 'L', 00H, 'a', 00H, 's', 00H
	DB	't', 00H, 'A', 00H, 'l', 00H, 'l', 00H, 'o', 00H, 'c', 00H, ' '
	DB	00H, ')', 00H, 00H, 00H			; `string'
CONST	ENDS
;	COMDAT ??_C@_0BG@EMENODEA@CUtlRBTree?5overflow?$CB?6?$AA@
CONST	SEGMENT
??_C@_0BG@EMENODEA@CUtlRBTree?5overflow?$CB?6?$AA@ DB 'CUtlRBTree overflo'
	DB	'w!', 0aH, 00H				; `string'
CONST	ENDS
;	COMDAT ??_C@_1EC@LMJCOEPO@?$AAm?$AA_?$AAE?$AAl?$AAe?$AAm?$AAe?$AAn?$AAt?$AAs?$AA?4?$AAI?$AAs?$AAV?$AAa?$AAl?$AAi?$AAd?$AAI?$AAt?$AAe?$AAr?$AAa?$AAt?$AAo?$AAr?$AA?$CI?$AA?5?$AAi?$AAt?$AA?5?$AA?$CJ@
CONST	SEGMENT
??_C@_1EC@LMJCOEPO@?$AAm?$AA_?$AAE?$AAl?$AAe?$AAm?$AAe?$AAn?$AAt?$AAs?$AA?4?$AAI?$AAs?$AAV?$AAa?$AAl?$AAi?$AAd?$AAI?$AAt?$AAe?$AAr?$AAa?$AAt?$AAo?$AAr?$AA?$CI?$AA?5?$AAi?$AAt?$AA?5?$AA?$CJ@ DB 'm'
	DB	00H, '_', 00H, 'E', 00H, 'l', 00H, 'e', 00H, 'm', 00H, 'e', 00H
	DB	'n', 00H, 't', 00H, 's', 00H, '.', 00H, 'I', 00H, 's', 00H, 'V'
	DB	00H, 'a', 00H, 'l', 00H, 'i', 00H, 'd', 00H, 'I', 00H, 't', 00H
	DB	'e', 00H, 'r', 00H, 'a', 00H, 't', 00H, 'o', 00H, 'r', 00H, '('
	DB	00H, ' ', 00H, 'i', 00H, 't', 00H, ' ', 00H, ')', 00H, 00H, 00H ; `string'
CONST	ENDS
;	COMDAT ??_C@_1IA@FEFGPOEE@?$AAm?$AA_?$AAE?$AAl?$AAe?$AAm?$AAe?$AAn?$AAt?$AAs?$AA?4?$AAI?$AAs?$AAV?$AAa?$AAl?$AAi?$AAd?$AAI?$AAt?$AAe?$AAr?$AAa?$AAt?$AAo?$AAr?$AA?$CI?$AA?5?$AAm?$AA_?$AAL?$AAa@
CONST	SEGMENT
??_C@_1IA@FEFGPOEE@?$AAm?$AA_?$AAE?$AAl?$AAe?$AAm?$AAe?$AAn?$AAt?$AAs?$AA?4?$AAI?$AAs?$AAV?$AAa?$AAl?$AAi?$AAd?$AAI?$AAt?$AAe?$AAr?$AAa?$AAt?$AAo?$AAr?$AA?$CI?$AA?5?$AAm?$AA_?$AAL?$AAa@ DB 'm'
	DB	00H, '_', 00H, 'E', 00H, 'l', 00H, 'e', 00H, 'm', 00H, 'e', 00H
	DB	'n', 00H, 't', 00H, 's', 00H, '.', 00H, 'I', 00H, 's', 00H, 'V'
	DB	00H, 'a', 00H, 'l', 00H, 'i', 00H, 'd', 00H, 'I', 00H, 't', 00H
	DB	'e', 00H, 'r', 00H, 'a', 00H, 't', 00H, 'o', 00H, 'r', 00H, '('
	DB	00H, ' ', 00H, 'm', 00H, '_', 00H, 'L', 00H, 'a', 00H, 's', 00H
	DB	't', 00H, 'A', 00H, 'l', 00H, 'l', 00H, 'o', 00H, 'c', 00H, ' '
	DB	00H, ')', 00H, ' ', 00H, '|', 00H, '|', 00H, ' ', 00H, 'm', 00H
	DB	'_', 00H, 'N', 00H, 'u', 00H, 'm', 00H, 'E', 00H, 'l', 00H, 'e'
	DB	00H, 'm', 00H, 'e', 00H, 'n', 00H, 't', 00H, 's', 00H, ' ', 00H
	DB	'=', 00H, '=', 00H, ' ', 00H, '0', 00H, 00H, 00H ; `string'
CONST	ENDS
;	COMDAT ??_C@_1BE@OPPFELHC@?$AAm?$AA_?$AAp?$AAM?$AAe?$AAm?$AAo?$AAr?$AAy?$AA?$AA@
CONST	SEGMENT
??_C@_1BE@OPPFELHC@?$AAm?$AA_?$AAp?$AAM?$AAe?$AAm?$AAo?$AAr?$AAy?$AA?$AA@ DB 'm'
	DB	00H, '_', 00H, 'p', 00H, 'M', 00H, 'e', 00H, 'm', 00H, 'o', 00H
	DB	'r', 00H, 'y', 00H, 00H, 00H			; `string'
CONST	ENDS
;	COMDAT ??_C@_1BA@PKCLMAEA@?$AAn?$AAu?$AAm?$AA?5?$AA?$DO?$AA?5?$AA0?$AA?$AA@
CONST	SEGMENT
??_C@_1BA@PKCLMAEA@?$AAn?$AAu?$AAm?$AA?5?$AA?$DO?$AA?5?$AA0?$AA?$AA@ DB 'n'
	DB	00H, 'u', 00H, 'm', 00H, ' ', 00H, '>', 00H, ' ', 00H, '0', 00H
	DB	00H, 00H					; `string'
CONST	ENDS
;	COMDAT ??_C@_1BE@PGFEGIPI@?$AAI?$AAs?$AAV?$AAa?$AAl?$AAi?$AAd?$AA?$CI?$AA?$CJ?$AA?$AA@
CONST	SEGMENT
??_C@_1BE@PGFEGIPI@?$AAI?$AAs?$AAV?$AAa?$AAl?$AAi?$AAd?$AA?$CI?$AA?$CJ?$AA?$AA@ DB 'I'
	DB	00H, 's', 00H, 'V', 00H, 'a', 00H, 'l', 00H, 'i', 00H, 'd', 00H
	DB	'(', 00H, ')', 00H, 00H, 00H			; `string'
CONST	ENDS
;	COMDAT ??_C@_1CA@DONHBKAI@?$AAI?$AAs?$AAV?$AAa?$AAl?$AAi?$AAd?$AAI?$AAn?$AAd?$AAe?$AAx?$AA?$CI?$AAi?$AA?$CJ?$AA?$AA@
CONST	SEGMENT
??_C@_1CA@DONHBKAI@?$AAI?$AAs?$AAV?$AAa?$AAl?$AAi?$AAd?$AAI?$AAn?$AAd?$AAe?$AAx?$AA?$CI?$AAi?$AA?$CJ?$AA?$AA@ DB 'I'
	DB	00H, 's', 00H, 'V', 00H, 'a', 00H, 'l', 00H, 'i', 00H, 'd', 00H
	DB	'I', 00H, 'n', 00H, 'd', 00H, 'e', 00H, 'x', 00H, '(', 00H, 'i'
	DB	00H, ')', 00H, 00H, 00H			; `string'
CONST	ENDS
;	COMDAT ??_C@_1BI@EHKAMAJG@?$AA?$CG?$AAm?$AA_?$AAL?$AAe?$AAs?$AAs?$AAF?$AAu?$AAn?$AAc?$AA?$AA@
CONST	SEGMENT
??_C@_1BI@EHKAMAJG@?$AA?$CG?$AAm?$AA_?$AAL?$AAe?$AAs?$AAs?$AAF?$AAu?$AAn?$AAc?$AA?$AA@ DB '&'
	DB	00H, 'm', 00H, '_', 00H, 'L', 00H, 'e', 00H, 's', 00H, 's', 00H
	DB	'F', 00H, 'u', 00H, 'n', 00H, 'c', 00H, 00H, 00H ; `string'
CONST	ENDS
;	COMDAT ??_C@_13COJANIEC@?$AA0?$AA?$AA@
CONST	SEGMENT
??_C@_13COJANIEC@?$AA0?$AA?$AA@ DB '0', 00H, 00H, 00H	; `string'
CONST	ENDS
;	COMDAT ??_C@_1JE@LJJIJLOD@?$AAd?$AA?3?$AA?2?$AA?$CB?$AAd?$AAi?$AAf?$AAf?$AAu?$AAs?$AAi?$AAo?$AAn?$AA?5?$AA2?$AA0?$AA2?$AA0?$AA?2?$AAs?$AAo?$AAu?$AAr?$AAc?$AAe?$AA?5?$AAc?$AAo?$AAd?$AAe?$AA?5?$AA2@
CONST	SEGMENT
??_C@_1JE@LJJIJLOD@?$AAd?$AA?3?$AA?2?$AA?$CB?$AAd?$AAi?$AAf?$AAf?$AAu?$AAs?$AAi?$AAo?$AAn?$AA?5?$AA2?$AA0?$AA2?$AA0?$AA?2?$AAs?$AAo?$AAu?$AAr?$AAc?$AAe?$AA?5?$AAc?$AAo?$AAd?$AAe?$AA?5?$AA2@ DB 'd'
	DB	00H, ':', 00H, '\', 00H, '!', 00H, 'd', 00H, 'i', 00H, 'f', 00H
	DB	'f', 00H, 'u', 00H, 's', 00H, 'i', 00H, 'o', 00H, 'n', 00H, ' '
	DB	00H, '2', 00H, '0', 00H, '2', 00H, '0', 00H, '\', 00H, 's', 00H
	DB	'o', 00H, 'u', 00H, 'r', 00H, 'c', 00H, 'e', 00H, ' ', 00H, 'c'
	DB	00H, 'o', 00H, 'd', 00H, 'e', 00H, ' ', 00H, '2', 00H, '0', 00H
	DB	'2', 00H, '2', 00H, '\', 00H, 'c', 00H, 'l', 00H, 'i', 00H, 'e'
	DB	00H, 'n', 00H, 't', 00H, '-', 00H, 's', 00H, 'e', 00H, 'r', 00H
	DB	'v', 00H, 'e', 00H, 'r', 00H, '\', 00H, 'g', 00H, 'a', 00H, 'm'
	DB	00H, 'e', 00H, '_', 00H, 's', 00H, 'h', 00H, 'a', 00H, 'r', 00H
	DB	'e', 00H, 'd', 00H, '\', 00H, 'u', 00H, 't', 00H, 'l', 00H, 'r'
	DB	00H, 'b', 00H, 't', 00H, 'r', 00H, 'e', 00H, 'e', 00H, '.', 00H
	DB	'h', 00H, 00H, 00H				; `string'
CONST	ENDS
;	COMDAT ??_C@_1BM@CKILBAKK@?$AAI?$AAs?$AAI?$AAd?$AAx?$AAV?$AAa?$AAl?$AAi?$AAd?$AA?$CI?$AAi?$AA?$CJ?$AA?$AA@
CONST	SEGMENT
??_C@_1BM@CKILBAKK@?$AAI?$AAs?$AAI?$AAd?$AAx?$AAV?$AAa?$AAl?$AAi?$AAd?$AA?$CI?$AAi?$AA?$CJ?$AA?$AA@ DB 'I'
	DB	00H, 's', 00H, 'I', 00H, 'd', 00H, 'x', 00H, 'V', 00H, 'a', 00H
	DB	'l', 00H, 'i', 00H, 'd', 00H, '(', 00H, 'i', 00H, ')', 00H, 00H
	DB	00H						; `string'
CONST	ENDS
;	COMDAT ??_C@_1BM@PFNFCCHH@?$AA?$CB?$AAI?$AAs?$AAR?$AAe?$AAa?$AAd?$AAO?$AAn?$AAl?$AAy?$AA?$CI?$AA?$CJ?$AA?$AA@
CONST	SEGMENT
??_C@_1BM@PFNFCCHH@?$AA?$CB?$AAI?$AAs?$AAR?$AAe?$AAa?$AAd?$AAO?$AAn?$AAl?$AAy?$AA?$CI?$AA?$CJ?$AA?$AA@ DB '!'
	DB	00H, 'I', 00H, 's', 00H, 'R', 00H, 'e', 00H, 'a', 00H, 'd', 00H
	DB	'O', 00H, 'n', 00H, 'l', 00H, 'y', 00H, '(', 00H, ')', 00H, 00H
	DB	00H						; `string'
CONST	ENDS
;	COMDAT ??_C@_1BO@FOOHAONO@?$AAn?$AAG?$AAr?$AAo?$AAw?$AAS?$AAi?$AAz?$AAe?$AA?5?$AA?$DO?$AA?$DN?$AA?5?$AA0?$AA?$AA@
CONST	SEGMENT
??_C@_1BO@FOOHAONO@?$AAn?$AAG?$AAr?$AAo?$AAw?$AAS?$AAi?$AAz?$AAe?$AA?5?$AA?$DO?$AA?$DN?$AA?5?$AA0?$AA?$AA@ DB 'n'
	DB	00H, 'G', 00H, 'r', 00H, 'o', 00H, 'w', 00H, 'S', 00H, 'i', 00H
	DB	'z', 00H, 'e', 00H, ' ', 00H, '>', 00H, '=', 00H, ' ', 00H, '0'
	DB	00H, 00H, 00H				; `string'
CONST	ENDS
;	COMDAT ??_C@_1JE@CIIIAKCN@?$AAd?$AA?3?$AA?2?$AA?$CB?$AAd?$AAi?$AAf?$AAf?$AAu?$AAs?$AAi?$AAo?$AAn?$AA?5?$AA2?$AA0?$AA2?$AA0?$AA?2?$AAs?$AAo?$AAu?$AAr?$AAc?$AAe?$AA?5?$AAc?$AAo?$AAd?$AAe?$AA?5?$AA2@
CONST	SEGMENT
??_C@_1JE@CIIIAKCN@?$AAd?$AA?3?$AA?2?$AA?$CB?$AAd?$AAi?$AAf?$AAf?$AAu?$AAs?$AAi?$AAo?$AAn?$AA?5?$AA2?$AA0?$AA2?$AA0?$AA?2?$AAs?$AAo?$AAu?$AAr?$AAc?$AAe?$AA?5?$AAc?$AAo?$AAd?$AAe?$AA?5?$AA2@ DB 'd'
	DB	00H, ':', 00H, '\', 00H, '!', 00H, 'd', 00H, 'i', 00H, 'f', 00H
	DB	'f', 00H, 'u', 00H, 's', 00H, 'i', 00H, 'o', 00H, 'n', 00H, ' '
	DB	00H, '2', 00H, '0', 00H, '2', 00H, '0', 00H, '\', 00H, 's', 00H
	DB	'o', 00H, 'u', 00H, 'r', 00H, 'c', 00H, 'e', 00H, ' ', 00H, 'c'
	DB	00H, 'o', 00H, 'd', 00H, 'e', 00H, ' ', 00H, '2', 00H, '0', 00H
	DB	'2', 00H, '2', 00H, '\', 00H, 'c', 00H, 'l', 00H, 'i', 00H, 'e'
	DB	00H, 'n', 00H, 't', 00H, '-', 00H, 's', 00H, 'e', 00H, 'r', 00H
	DB	'v', 00H, 'e', 00H, 'r', 00H, '\', 00H, 'g', 00H, 'a', 00H, 'm'
	DB	00H, 'e', 00H, '_', 00H, 's', 00H, 'h', 00H, 'a', 00H, 'r', 00H
	DB	'e', 00H, 'd', 00H, '\', 00H, 'u', 00H, 't', 00H, 'l', 00H, 'm'
	DB	00H, 'e', 00H, 'm', 00H, 'o', 00H, 'r', 00H, 'y', 00H, '.', 00H
	DB	'h', 00H, 00H, 00H				; `string'
CONST	ENDS
;	COMDAT ??_C@_0BI@BOKDEL@?$CFs?5loaded?5succesfully?$CB?6?$AA@
CONST	SEGMENT
??_C@_0BI@BOKDEL@?$CFs?5loaded?5succesfully?$CB?6?$AA@ DB '%s loaded succ'
	DB	'esfully!', 0aH, 00H				; `string'
CONST	ENDS
;	COMDAT ??_C@_09ILGMALND@?$CFs?1bin?1?$CFs?$AA@
CONST	SEGMENT
??_C@_09ILGMALND@?$CFs?1bin?1?$CFs?$AA@ DB '%s/bin/%s', 00H ; `string'
CONST	ENDS
;	COMDAT ??_C@_0BE@OICHIKE@footsteps?1wade4?4wav?$AA@
CONST	SEGMENT
??_C@_0BE@OICHIKE@footsteps?1wade4?4wav?$AA@ DB 'footsteps/wade4.wav', 00H ; `string'
CONST	ENDS
;	COMDAT ??_C@_0BE@BDIHEIBM@footsteps?1wade3?4wav?$AA@
CONST	SEGMENT
??_C@_0BE@BDIHEIBM@footsteps?1wade3?4wav?$AA@ DB 'footsteps/wade3.wav', 00H ; `string'
CONST	ENDS
;	COMDAT ??_C@_0BE@NINLJLLJ@footsteps?1wade2?4wav?$AA@
CONST	SEGMENT
??_C@_0BE@NINLJLLJ@footsteps?1wade2?4wav?$AA@ DB 'footsteps/wade2.wav', 00H ; `string'
CONST	ENDS
;	COMDAT ??_C@_0BE@FOEPOJBH@footsteps?1wade1?4wav?$AA@
CONST	SEGMENT
??_C@_0BE@FOEPOJBH@footsteps?1wade1?4wav?$AA@ DB 'footsteps/wade1.wav', 00H ; `string'
CONST	ENDS
;	COMDAT ??_C@_0DI@FMOBHFJP@Entity?5?$CFi?5SOLID_BSP?5with?5a?5non?5b@
CONST	SEGMENT
??_C@_0DI@FMOBHFJP@Entity?5?$CFi?5SOLID_BSP?5with?5a?5non?5b@ DB 'Entity '
	DB	'%i SOLID_BSP with a non bsp model %i (name: %s)', 0aH, 00H ; `string'
CONST	ENDS
;	COMDAT ??_C@_0BA@LOGAJLJO@pEntity?5?$CB?$DN?5NULL?$AA@
CONST	SEGMENT
??_C@_0BA@LOGAJLJO@pEntity?5?$CB?$DN?5NULL?$AA@ DB 'pEntity != NULL', 00H ; `string'
CONST	ENDS
;	COMDAT ?__LINE__Var@?0??UTIL_DropToFloor@@YAHPAVCBaseEntity@@@Z@4JA
_DATA	SEGMENT
?__LINE__Var@?0??UTIL_DropToFloor@@YAHPAVCBaseEntity@@@Z@4JA DD 0b43H ; `UTIL_DropToFloor'::`1'::__LINE__Var
_DATA	ENDS
;	COMDAT ??_C@_0CG@IENKKELO@UTIL_SetSize?3?5?$CFs?5backwards?5mins?1@
CONST	SEGMENT
??_C@_0CG@IENKKELO@UTIL_SetSize?3?5?$CFs?5backwards?5mins?1@ DB 'UTIL_Set'
	DB	'Size: %s backwards mins/maxs', 0aH, 00H	; `string'
CONST	ENDS
;	COMDAT ??_C@_0CE@HLOCMEGG@UTIL_GetModelBounds?3?5NULL?5model?5@
CONST	SEGMENT
??_C@_0CE@HLOCMEGG@UTIL_GetModelBounds?3?5NULL?5model?5@ DB 'UTIL_GetMode'
	DB	'lBounds: NULL model %i', 0aH, 00H		; `string'
CONST	ENDS
;	COMDAT ??_C@_0CI@GPMHCHBN@UTIL_SetView?3?5pActivator?5not?5a?5p@
CONST	SEGMENT
??_C@_0CI@GPMHCHBN@UTIL_SetView?3?5pActivator?5not?5a?5p@ DB 'UTIL_SetVie'
	DB	'w: pActivator not a player!', 0aH, 00H	; `string'
CONST	ENDS
;	COMDAT ??_C@_0CD@PELPNBCA@UTIL_SetView?3?5pActivator?5?$DN?$DN?5NULL@
CONST	SEGMENT
??_C@_0CD@PELPNBCA@UTIL_SetView?3?5pActivator?5?$DN?$DN?5NULL@ DB 'UTIL_S'
	DB	'etView: pActivator == NULL!', 0aH, 00H	; `string'
CONST	ENDS
;	COMDAT ??_C@_02DKCKIIND@?$CFs?$AA@
CONST	SEGMENT
??_C@_02DKCKIIND@?$CFs?$AA@ DB '%s', 00H		; `string'
CONST	ENDS
;	COMDAT ??_C@_0CA@CLMDLIAA@Warning?3?5video?5?$CI?$CFs?$CJ?5not?5found?$CB?6?$AA@
CONST	SEGMENT
??_C@_0CA@CLMDLIAA@Warning?3?5video?5?$CI?$CFs?$CJ?5not?5found?$CB?6?$AA@ DB 'W'
	DB	'arning: video (%s) not found!', 0aH, 00H	; `string'
CONST	ENDS
;	COMDAT ??_C@_08BKEEFKLC@media?1?$CFs?$AA@
CONST	SEGMENT
??_C@_08BKEEFKLC@media?1?$CFs?$AA@ DB 'media/%s', 00H	; `string'
CONST	ENDS
;	COMDAT ??_C@_0BE@IENMFMOB@invalid?5name?5?$CC?$CFs?$CC?$CB?6?$AA@
CONST	SEGMENT
??_C@_0BE@IENMFMOB@invalid?5name?5?$CC?$CFs?$CC?$CB?6?$AA@ DB 'invalid na'
	DB	'me "%s"!', 0aH, 00H				; `string'
CONST	ENDS
;	COMDAT ??_C@_0BH@COBPOMJP@sound?5?$CC?$CFs?$CC?5not?5found?$CB?6?$AA@
CONST	SEGMENT
??_C@_0BH@COBPOMJP@sound?5?$CC?$CFs?$CC?5not?5found?$CB?6?$AA@ DB 'sound '
	DB	'"%s" not found!', 0aH, 00H			; `string'
CONST	ENDS
;	COMDAT ??_C@_03LHGNACFN@mp3?$AA@
CONST	SEGMENT
??_C@_03LHGNACFN@mp3?$AA@ DB 'mp3', 00H			; `string'
CONST	ENDS
;	COMDAT ??_C@_03BICDMHKB@wav?$AA@
CONST	SEGMENT
??_C@_03BICDMHKB@wav?$AA@ DB 'wav', 00H			; `string'
CONST	ENDS
;	COMDAT ??_C@_08PLMKPHCL@sound?1?$CFs?$AA@
CONST	SEGMENT
??_C@_08PLMKPHCL@sound?1?$CFs?$AA@ DB 'sound/%s', 00H	; `string'
CONST	ENDS
;	COMDAT ??_C@_0CK@LHGCDBLH@UTIL_PrecacheSound?3?5sound?5not?5sp@
CONST	SEGMENT
??_C@_0CK@LHGCDBLH@UTIL_PrecacheSound?3?5sound?5not?5sp@ DB 'UTIL_Precach'
	DB	'eSound: sound not specified!', 0aH, 00H	; `string'
CONST	ENDS
;	COMDAT ??_C@_0CA@GPGNKNKH@NULL?5Ent?5in?5UTIL_PrecacheOther?6?$AA@
CONST	SEGMENT
??_C@_0CA@GPGNKNKH@NULL?5Ent?5in?5UTIL_PrecacheOther?6?$AA@ DB 'NULL Ent '
	DB	'in UTIL_PrecacheOther', 0aH, 00H		; `string'
CONST	ENDS
;	COMDAT ??_C@_0BD@LAAPOIJP@buttons?1spark3?4wav?$AA@
CONST	SEGMENT
??_C@_0BD@LAAPOIJP@buttons?1spark3?4wav?$AA@ DB 'buttons/spark3.wav', 00H ; `string'
CONST	ENDS
;	COMDAT ??_C@_0BD@HLFDDLDK@buttons?1spark2?4wav?$AA@
CONST	SEGMENT
??_C@_0BD@HLFDDLDK@buttons?1spark2?4wav?$AA@ DB 'buttons/spark2.wav', 00H ; `string'
CONST	ENDS
;	COMDAT ??_C@_0BD@PNMHEJJE@buttons?1spark1?4wav?$AA@
CONST	SEGMENT
??_C@_0BD@PNMHEJJE@buttons?1spark1?4wav?$AA@ DB 'buttons/spark1.wav', 00H ; `string'
CONST	ENDS
;	COMDAT ??_C@_0CG@KKOBGNAB@Firing?3?5?$CFs?5?$CI?$CFs?$CJ?5with?5?$CFs?5and?5valu@
CONST	SEGMENT
??_C@_0CG@KKOBGNAB@Firing?3?5?$CFs?5?$CI?$CFs?$CJ?5with?5?$CFs?5and?5valu@ DB 'F'
	DB	'iring: %s (%s) with %s and value %g', 0aH, 00H ; `string'
CONST	ENDS
;	COMDAT ??_C@_0BO@DJEDJFHM@Missing?5?8?$CJ?8?5in?5targetname?3?5?$CFs?$AA@
CONST	SEGMENT
??_C@_0BO@DJEDJFHM@Missing?5?8?$CJ?8?5in?5targetname?3?5?$CFs?$AA@ DB 'Mi'
	DB	'ssing '')'' in targetname: %s', 00H		; `string'
CONST	ENDS
;	COMDAT ??_C@_0BM@LHAMECIN@Missing?5?8?$CJ?8?5in?5master?5?$CC?$CFs?$CC?6?$AA@
CONST	SEGMENT
??_C@_0BM@LHAMECIN@Missing?5?8?$CJ?8?5in?5master?5?$CC?$CFs?$CC?6?$AA@ DB 'M'
	DB	'issing '')'' in master "%s"', 0aH, 00H	; `string'
CONST	ENDS
;	COMDAT ??_C@_02DPKJAMEF@?$CFd?$AA@
CONST	SEGMENT
??_C@_02DPKJAMEF@?$CFd?$AA@ DB '%d', 00H		; `string'
CONST	ENDS
;	COMDAT ??_C@_0CH@BAAGDENI@UTIL_HudMessage?3?5Message?5is?5too?5@
CONST	SEGMENT
??_C@_0CH@BAAGDENI@UTIL_HudMessage?3?5Message?5is?5too?5@ DB 'UTIL_HudMes'
	DB	'sage: Message is too long!', 0aH, 00H	; `string'
CONST	ENDS
;	COMDAT ??_C@_06BCLBLBIN@?$CKlocus?$AA@
CONST	SEGMENT
??_C@_06BCLBLBIN@?$CKlocus?$AA@ DB '*locus', 00H	; `string'
CONST	ENDS
;	COMDAT ??_C@_0M@GJCHIFD@GLOBAL?5DEAD?$AA@
CONST	SEGMENT
??_C@_0M@GJCHIFD@GLOBAL?5DEAD?$AA@ DB 'GLOBAL DEAD', 00H ; `string'
CONST	ENDS
;	COMDAT ??_C@_0L@MPHKGGFD@GLOBAL?5OFF?$AA@
CONST	SEGMENT
??_C@_0L@MPHKGGFD@GLOBAL?5OFF?$AA@ DB 'GLOBAL OFF', 00H	; `string'
CONST	ENDS
;	COMDAT ??_C@_09JHJFKEJL@GLOBAL?5ON?$AA@
CONST	SEGMENT
??_C@_09JHJFKEJL@GLOBAL?5ON?$AA@ DB 'GLOBAL ON', 00H	; `string'
CONST	ENDS
;	COMDAT ??_C@_0N@PCPMIODG@NO?5CONTENTS?$CB?$AA@
CONST	SEGMENT
??_C@_0N@PCPMIODG@NO?5CONTENTS?$CB?$AA@ DB 'NO CONTENTS!', 00H ; `string'
CONST	ENDS
;	COMDAT ??_C@_09HILKKGNB@SPECIAL?53?$AA@
CONST	SEGMENT
??_C@_09HILKKGNB@SPECIAL?53?$AA@ DB 'SPECIAL 3', 00H	; `string'
CONST	ENDS
;	COMDAT ??_C@_09GBKBJHJA@SPECIAL?52?$AA@
CONST	SEGMENT
??_C@_09GBKBJHJA@SPECIAL?52?$AA@ DB 'SPECIAL 2', 00H	; `string'
CONST	ENDS
;	COMDAT ??_C@_09EKIMMEFD@SPECIAL?51?$AA@
CONST	SEGMENT
??_C@_09EKIMMEFD@SPECIAL?51?$AA@ DB 'SPECIAL 1', 00H	; `string'
CONST	ENDS
;	COMDAT ??_C@_03KEDKDEDN@FOG?$AA@
CONST	SEGMENT
??_C@_03KEDKDEDN@FOG?$AA@ DB 'FOG', 00H			; `string'
CONST	ENDS
;	COMDAT ??_C@_0BB@EODHJKLI@GRAVITY_FLYFIELD?$AA@
CONST	SEGMENT
??_C@_0BB@EODHJKLI@GRAVITY_FLYFIELD?$AA@ DB 'GRAVITY_FLYFIELD', 00H ; `string'
CONST	ENDS
;	COMDAT ??_C@_08LBLMGPPJ@FLYFIELD?$AA@
CONST	SEGMENT
??_C@_08LBLMGPPJ@FLYFIELD?$AA@ DB 'FLYFIELD', 00H	; `string'
CONST	ENDS
;	COMDAT ??_C@_06GCOFKHFL@LADDER?$AA@
CONST	SEGMENT
??_C@_06GCOFKHFL@LADDER?$AA@ DB 'LADDER', 00H		; `string'
CONST	ENDS
;	COMDAT ??_C@_03BALFAEJD@SKY?$AA@
CONST	SEGMENT
??_C@_03BALFAEJD@SKY?$AA@ DB 'SKY', 00H			; `string'
CONST	ENDS
;	COMDAT ??_C@_04GCFKOLE@LAVA?$AA@
CONST	SEGMENT
??_C@_04GCFKOLE@LAVA?$AA@ DB 'LAVA', 00H		; `string'
CONST	ENDS
;	COMDAT ??_C@_05EKHECDCJ@SLIME?$AA@
CONST	SEGMENT
??_C@_05EKHECDCJ@SLIME?$AA@ DB 'SLIME', 00H		; `string'
CONST	ENDS
;	COMDAT ??_C@_05IAJGPPOC@WATER?$AA@
CONST	SEGMENT
??_C@_05IAJGPPOC@WATER?$AA@ DB 'WATER', 00H		; `string'
CONST	ENDS
;	COMDAT ??_C@_05CEBIDAFG@SOLID?$AA@
CONST	SEGMENT
??_C@_05CEBIDAFG@SOLID?$AA@ DB 'SOLID', 00H		; `string'
CONST	ENDS
;	COMDAT ??_C@_05HKAKDGKI@EMPTY?$AA@
CONST	SEGMENT
??_C@_05HKAKDGKI@EMPTY?$AA@ DB 'EMPTY', 00H		; `string'
CONST	ENDS
;	COMDAT ??_C@_0BB@DPEOBDLP@Nuclear?5Explode?5?$AA@
CONST	SEGMENT
??_C@_0BB@DPEOBDLP@Nuclear?5Explode?5?$AA@ DB 'Nuclear Explode ', 00H ; `string'
CONST	ENDS
;	COMDAT ??_C@_07FOGICJJJ@Mortar?5?$AA@
CONST	SEGMENT
??_C@_07FOGICJJJ@Mortar?5?$AA@ DB 'Mortar ', 00H	; `string'
CONST	ENDS
;	COMDAT ??_C@_0N@HOCPLMNK@Slow?5Freeze?5?$AA@
CONST	SEGMENT
??_C@_0N@HOCPLMNK@Slow?5Freeze?5?$AA@ DB 'Slow Freeze ', 00H ; `string'
CONST	ENDS
;	COMDAT ??_C@_0L@DBFEJAOP@Slow?5Burn?5?$AA@
CONST	SEGMENT
??_C@_0L@DBFEJAOP@Slow?5Burn?5?$AA@ DB 'Slow Burn ', 00H ; `string'
CONST	ENDS
;	COMDAT ??_C@_05MINPHFNP@Acid?5?$AA@
CONST	SEGMENT
??_C@_05MINPHFNP@Acid?5?$AA@ DB 'Acid ', 00H		; `string'
CONST	ENDS
;	COMDAT ??_C@_0P@GIMMOKAK@Drown?5Recover?5?$AA@
CONST	SEGMENT
??_C@_0P@GIMMOKAK@Drown?5Recover?5?$AA@ DB 'Drown Recover ', 00H ; `string'
CONST	ENDS
;	COMDAT ??_C@_0L@NJHMBGOH@Radiation?5?$AA@
CONST	SEGMENT
??_C@_0L@NJHMBGOH@Radiation?5?$AA@ DB 'Radiation ', 00H	; `string'
CONST	ENDS
;	COMDAT ??_C@_07JHAEAOAM@Poison?5?$AA@
CONST	SEGMENT
??_C@_07JHAEAOAM@Poison?5?$AA@ DB 'Poison ', 00H	; `string'
CONST	ENDS
;	COMDAT ??_C@_0L@OHLKEAGK@Nerve?5Gas?5?$AA@
CONST	SEGMENT
??_C@_0L@OHLKEAGK@Nerve?5Gas?5?$AA@ DB 'Nerve Gas ', 00H ; `string'
CONST	ENDS
;	COMDAT ??_C@_0O@FNBCIECF@Paralyze?5Gas?5?$AA@
CONST	SEGMENT
??_C@_0O@FNBCIECF@Paralyze?5Gas?5?$AA@ DB 'Paralyze Gas ', 00H ; `string'
CONST	ENDS
;	COMDAT ??_C@_06KOHKGHBA@Drown?5?$AA@
CONST	SEGMENT
??_C@_06KOHKGHBA@Drown?5?$AA@ DB 'Drown ', 00H		; `string'
CONST	ENDS
;	COMDAT ??_C@_0M@DBLGIPPB@Always?5Gib?5?$AA@
CONST	SEGMENT
??_C@_0M@DBLGIPPB@Always?5Gib?5?$AA@ DB 'Always Gib ', 00H ; `string'
CONST	ENDS
;	COMDAT ??_C@_0L@DCELGEEG@Never?5Gib?5?$AA@
CONST	SEGMENT
??_C@_0L@DCELGEEG@Never?5Gib?5?$AA@ DB 'Never Gib ', 00H ; `string'
CONST	ENDS
;	COMDAT ??_C@_0N@EDIGKLKL@Energy?5Beam?5?$AA@
CONST	SEGMENT
??_C@_0N@EDIGKLKL@Energy?5Beam?5?$AA@ DB 'Energy Beam ', 00H ; `string'
CONST	ENDS
;	COMDAT ??_C@_06DGDFEOFK@Sonic?5?$AA@
CONST	SEGMENT
??_C@_06DGDFEOFK@Sonic?5?$AA@ DB 'Sonic ', 00H		; `string'
CONST	ENDS
;	COMDAT ??_C@_06HHPOOGIO@Shock?5?$AA@
CONST	SEGMENT
??_C@_06HHPOOGIO@Shock?5?$AA@ DB 'Shock ', 00H		; `string'
CONST	ENDS
;	COMDAT ??_C@_05BJAFNHJA@Club?5?$AA@
CONST	SEGMENT
??_C@_05BJAFNHJA@Club?5?$AA@ DB 'Club ', 00H		; `string'
CONST	ENDS
;	COMDAT ??_C@_06NFJFDOFB@Blast?5?$AA@
CONST	SEGMENT
??_C@_06NFJFDOFB@Blast?5?$AA@ DB 'Blast ', 00H		; `string'
CONST	ENDS
;	COMDAT ??_C@_05JGNHLHIN@Fall?5?$AA@
CONST	SEGMENT
??_C@_05JGNHLHIN@Fall?5?$AA@ DB 'Fall ', 00H		; `string'
CONST	ENDS
;	COMDAT ??_C@_07NICJCBLL@Freeze?5?$AA@
CONST	SEGMENT
??_C@_07NICJCBLL@Freeze?5?$AA@ DB 'Freeze ', 00H	; `string'
CONST	ENDS
;	COMDAT ??_C@_05CLGEDABL@Burn?5?$AA@
CONST	SEGMENT
??_C@_05CLGEDABL@Burn?5?$AA@ DB 'Burn ', 00H		; `string'
CONST	ENDS
;	COMDAT ??_C@_06BAAPDDP@Slash?5?$AA@
CONST	SEGMENT
??_C@_06BAAPDDP@Slash?5?$AA@ DB 'Slash ', 00H		; `string'
CONST	ENDS
;	COMDAT ??_C@_07KGEFKMPI@Bullet?5?$AA@
CONST	SEGMENT
??_C@_07KGEFKMPI@Bullet?5?$AA@ DB 'Bullet ', 00H	; `string'
CONST	ENDS
;	COMDAT ??_C@_06MKGCDNFI@Crush?5?$AA@
CONST	SEGMENT
??_C@_06MKGCDNFI@Crush?5?$AA@ DB 'Crush ', 00H		; `string'
CONST	ENDS
;	COMDAT ??_C@_08KCJHNIOM@Generic?5?$AA@
CONST	SEGMENT
??_C@_08KCJHNIOM@Generic?5?$AA@ DB 'Generic ', 00H	; `string'
CONST	ENDS
;	COMDAT ??_C@_08GEAGNOOL@DAMAGE?3?5?$AA@
CONST	SEGMENT
??_C@_08GEAGNOOL@DAMAGE?3?5?$AA@ DB 'DAMAGE: ', 00H	; `string'
CONST	ENDS
;	COMDAT ??_C@_0BO@CJHNLOLN@Unknown?5state?5?8?$CFs?8?5specified?6?$AA@
CONST	SEGMENT
??_C@_0BO@CJHNLOLN@Unknown?5state?5?8?$CFs?8?5specified?6?$AA@ DB 'Unknow'
	DB	'n state ''%s'' specified', 0aH, 00H		; `string'
CONST	ENDS
;	COMDAT ??_C@_0P@DDEIIOOC@UNKNOWN?5STATE?$CB?$AA@
CONST	SEGMENT
??_C@_0P@DDEIIOOC@UNKNOWN?5STATE?$CB?$AA@ DB 'UNKNOWN STATE!', 00H ; `string'
CONST	ENDS
;	COMDAT ??_C@_04NNCJDDJC@DEAD?$AA@
CONST	SEGMENT
??_C@_04NNCJDDJC@DEAD?$AA@ DB 'DEAD', 00H		; `string'
CONST	ENDS
;	COMDAT ??_C@_06FILEIAAK@IN?5USE?$AA@
CONST	SEGMENT
??_C@_06FILEIAAK@IN?5USE?$AA@ DB 'IN USE', 00H		; `string'
CONST	ENDS
;	COMDAT ??_C@_08HKBEOLJF@TURN?5OFF?$AA@
CONST	SEGMENT
??_C@_08HKBEOLJF@TURN?5OFF?$AA@ DB 'TURN OFF', 00H	; `string'
CONST	ENDS
;	COMDAT ??_C@_07CJNHFDCG@TURN?5ON?$AA@
CONST	SEGMENT
??_C@_07CJNHFDCG@TURN?5ON?$AA@ DB 'TURN ON', 00H	; `string'
CONST	ENDS
;	COMDAT ??_C@_03MPPIHBHJ@OFF?$AA@
CONST	SEGMENT
??_C@_03MPPIHBHJ@OFF?$AA@ DB 'OFF', 00H			; `string'
CONST	ENDS
;	COMDAT ??_C@_02BFICIOJL@ON?$AA@
CONST	SEGMENT
??_C@_02BFICIOJL@ON?$AA@ DB 'ON', 00H			; `string'
CONST	ENDS
;	COMDAT ??_C@_0BC@KILIBAEO@UNKNOWN?5USE_TYPE?$CB?$AA@
CONST	SEGMENT
??_C@_0BC@KILIBAEO@UNKNOWN?5USE_TYPE?$CB?$AA@ DB 'UNKNOWN USE_TYPE!', 00H ; `string'
CONST	ENDS
;	COMDAT ??_C@_0L@LKEFPLIM@USE_REMOVE?$AA@
CONST	SEGMENT
??_C@_0L@LKEFPLIM@USE_REMOVE?$AA@ DB 'USE_REMOVE', 00H	; `string'
CONST	ENDS
;	COMDAT ??_C@_09BMBMPLBD@USE_RESET?$AA@
CONST	SEGMENT
??_C@_09BMBMPLBD@USE_RESET?$AA@ DB 'USE_RESET', 00H	; `string'
CONST	ENDS
;	COMDAT ??_C@_07BMOJKOM@USE_SET?$AA@
CONST	SEGMENT
??_C@_07BMOJKOM@USE_SET?$AA@ DB 'USE_SET', 00H		; `string'
CONST	ENDS
;	COMDAT ??_C@_0L@OGLLPLDI@USE_TOGGLE?$AA@
CONST	SEGMENT
??_C@_0L@OGLLPLDI@USE_TOGGLE?$AA@ DB 'USE_TOGGLE', 00H	; `string'
CONST	ENDS
;	COMDAT ??_C@_07GBLDLMEB@USE_OFF?$AA@
CONST	SEGMENT
??_C@_07GBLDLMEB@USE_OFF?$AA@ DB 'USE_OFF', 00H		; `string'
CONST	ENDS
;	COMDAT ??_C@_06IPCFPMHD@USE_ON?$AA@
CONST	SEGMENT
??_C@_06IPCFPMHD@USE_ON?$AA@ DB 'USE_ON', 00H		; `string'
CONST	ENDS
;	COMDAT ??_C@_0BD@NGEGLPLE@buttons?1lever5?4wav?$AA@
CONST	SEGMENT
??_C@_0BD@NGEGLPLE@buttons?1lever5?4wav?$AA@ DB 'buttons/lever5.wav', 00H ; `string'
CONST	ENDS
;	COMDAT ??_C@_0BD@BNBKGMBB@buttons?1lever4?4wav?$AA@
CONST	SEGMENT
??_C@_0BD@BNBKGMBB@buttons?1lever4?4wav?$AA@ DB 'buttons/lever4.wav', 00H ; `string'
CONST	ENDS
;	COMDAT ??_C@_0BD@BPFMKJ@buttons?1lever3?4wav?$AA@
CONST	SEGMENT
??_C@_0BD@BPFMKJ@buttons?1lever3?4wav?$AA@ DB 'buttons/lever3.wav', 00H ; `string'
CONST	ENDS
;	COMDAT ??_C@_0BD@MLEDIPAM@buttons?1lever2?4wav?$AA@
CONST	SEGMENT
??_C@_0BD@MLEDIPAM@buttons?1lever2?4wav?$AA@ DB 'buttons/lever2.wav', 00H ; `string'
CONST	ENDS
;	COMDAT ??_C@_0BD@ENNHPNKC@buttons?1lever1?4wav?$AA@
CONST	SEGMENT
??_C@_0BD@ENNHPNKC@buttons?1lever1?4wav?$AA@ DB 'buttons/lever1.wav', 00H ; `string'
CONST	ENDS
;	COMDAT ??_C@_0BJ@BHFHBCLE@buttons?1lightswitch2?4wav?$AA@
CONST	SEGMENT
??_C@_0BJ@BHFHBCLE@buttons?1lightswitch2?4wav?$AA@ DB 'buttons/lightswitc'
	DB	'h2.wav', 00H				; `string'
CONST	ENDS
;	COMDAT ??_C@_0BL@KIJJHNJN@buttons?1latchunlocked1?4wav?$AA@
CONST	SEGMENT
??_C@_0BL@KIJJHNJN@buttons?1latchunlocked1?4wav?$AA@ DB 'buttons/latchunl'
	DB	'ocked1.wav', 00H				; `string'
CONST	ENDS
;	COMDAT ??_C@_0BJ@NJGHAHDG@buttons?1latchlocked1?4wav?$AA@
CONST	SEGMENT
??_C@_0BJ@NJGHAHDG@buttons?1latchlocked1?4wav?$AA@ DB 'buttons/latchlocke'
	DB	'd1.wav', 00H				; `string'
CONST	ENDS
;	COMDAT ??_C@_0BF@PCLCDJMG@buttons?1button11?4wav?$AA@
CONST	SEGMENT
??_C@_0BF@PCLCDJMG@buttons?1button11?4wav?$AA@ DB 'buttons/button11.wav', 00H ; `string'
CONST	ENDS
;	COMDAT ??_C@_0BF@DJOOOKGD@buttons?1button10?4wav?$AA@
CONST	SEGMENT
??_C@_0BF@DJOOOKGD@buttons?1button10?4wav?$AA@ DB 'buttons/button10.wav', 00H ; `string'
CONST	ENDS
;	COMDAT ??_C@_0BE@MMJBMFBI@buttons?1button9?4wav?$AA@
CONST	SEGMENT
??_C@_0BE@MMJBMFBI@buttons?1button9?4wav?$AA@ DB 'buttons/button9.wav', 00H ; `string'
CONST	ENDS
;	COMDAT ??_C@_0BE@HMNBGLN@buttons?1button8?4wav?$AA@
CONST	SEGMENT
??_C@_0BE@HMNBGLN@buttons?1button8?4wav?$AA@ DB 'buttons/button8.wav', 00H ; `string'
CONST	ENDS
;	COMDAT ??_C@_0BE@PGJLKEGI@buttons?1button7?4wav?$AA@
CONST	SEGMENT
??_C@_0BE@PGJLKEGI@buttons?1button7?4wav?$AA@ DB 'buttons/button7.wav', 00H ; `string'
CONST	ENDS
;	COMDAT ??_C@_0BE@DNMHHHMN@buttons?1button6?4wav?$AA@
CONST	SEGMENT
??_C@_0BE@DNMHHHMN@buttons?1button6?4wav?$AA@ DB 'buttons/button6.wav', 00H ; `string'
CONST	ENDS
;	COMDAT ??_C@_0BE@LLFDAFGD@buttons?1button5?4wav?$AA@
CONST	SEGMENT
??_C@_0BE@LLFDAFGD@buttons?1button5?4wav?$AA@ DB 'buttons/button5.wav', 00H ; `string'
CONST	ENDS
;	COMDAT ??_C@_0BE@HAAPNGMG@buttons?1button4?4wav?$AA@
CONST	SEGMENT
??_C@_0BE@HAAPNGMG@buttons?1button4?4wav?$AA@ DB 'buttons/button4.wav', 00H ; `string'
CONST	ENDS
;	COMDAT ??_C@_0BE@GNAKOGHO@buttons?1button3?4wav?$AA@
CONST	SEGMENT
??_C@_0BE@GNAKOGHO@buttons?1button3?4wav?$AA@ DB 'buttons/button3.wav', 00H ; `string'
CONST	ENDS
;	COMDAT ??_C@_0BE@KGFGDFNL@buttons?1button2?4wav?$AA@
CONST	SEGMENT
??_C@_0BE@KGFGDFNL@buttons?1button2?4wav?$AA@ DB 'buttons/button2.wav', 00H ; `string'
CONST	ENDS
;	COMDAT ??_C@_0BE@CAMCEHHF@buttons?1button1?4wav?$AA@
CONST	SEGMENT
??_C@_0BE@CAMCEHHF@buttons?1button1?4wav?$AA@ DB 'buttons/button1.wav', 00H ; `string'
CONST	ENDS
;	COMDAT ??_C@_0BA@HKOJACLM@common?1null?4wav?$AA@
CONST	SEGMENT
??_C@_0BA@HKOJACLM@common?1null?4wav?$AA@ DB 'common/null.wav', 00H ; `string'
CONST	ENDS
;	COMDAT ??_C@_0BM@BEAJEFCJ@ASSERT?5FAILED?3?6?5?$CFs?5?6?$CI?$CFs?$EA?$CFd?$CJ?$AA@
CONST	SEGMENT
??_C@_0BM@BEAJEFCJ@ASSERT?5FAILED?3?6?5?$CFs?5?6?$CI?$CFs?$EA?$CFd?$CJ?$AA@ DB 'A'
	DB	'SSERT FAILED:', 0aH, ' %s ', 0aH, '(%s@%d)', 00H ; `string'
CONST	ENDS
;	COMDAT ??_C@_0BP@JGGHDAMF@ASSERT?5FAILED?3?6?5?$CFs?5?6?$CI?$CFs?$EA?$CFd?$CJ?6?$CFs?$AA@
CONST	SEGMENT
??_C@_0BP@JGGHDAMF@ASSERT?5FAILED?3?6?5?$CFs?5?6?$CI?$CFs?$EA?$CFd?$CJ?6?$CFs?$AA@ DB 'A'
	DB	'SSERT FAILED:', 0aH, ' %s ', 0aH, '(%s@%d)', 0aH, '%s', 00H ; `string'
CONST	ENDS
;	COMDAT ??_C@_0DC@GHGLEAMP@DAMN?$CB?5?5Even?5the?5engine?5couldn?8t?5@
CONST	SEGMENT
??_C@_0DC@GHGLEAMP@DAMN?$CB?5?5Even?5the?5engine?5couldn?8t?5@ DB 'DAMN! '
	DB	' Even the engine couldn''t FindEntityByVars!', 00H ; `string'
CONST	ENDS
;	COMDAT ??_C@_0DJ@CNJCBHEO@entvars_t?5pContainingEntity?5is?5N@
CONST	SEGMENT
??_C@_0DJ@CNJCBHEO@entvars_t?5pContainingEntity?5is?5N@ DB 'entvars_t pCo'
	DB	'ntainingEntity is NULL, calling into engine', 00H ; `string'
CONST	ENDS
;	COMDAT ??_C@_0BM@KIPIGGJD@Failed?5to?5find?5function?5?$CFs?6?$AA@
CONST	SEGMENT
??_C@_0BM@KIPIGGJD@Failed?5to?5find?5function?5?$CFs?6?$AA@ DB 'Failed to'
	DB	' find function %s', 0aH, 00H		; `string'
CONST	ENDS
;	COMDAT ?__LINE__Var@?0??UTIL_FunctionFromName@@YAPAXPAUdatamap_s@@PBD@Z@4JA
_DATA	SEGMENT
?__LINE__Var@?0??UTIL_FunctionFromName@@YAPAXPAUdatamap_s@@PBD@Z@4JA DD 0d5H ; `UTIL_FunctionFromName'::`1'::__LINE__Var
_DATA	ENDS
;	COMDAT ??_C@_0DB@HMOMJHEN@sizeof?$CIpMap?9?$DOdataDesc?$FLi?$FN?4func?$CJ?5?$DN@
CONST	SEGMENT
??_C@_0DB@HMOMJHEN@sizeof?$CIpMap?9?$DOdataDesc?$FLi?$FN?4func?$CJ?5?$DN@ DB 's'
	DB	'izeof(pMap->dataDesc[i].func) == sizeof(void *)', 00H ; `string'
CONST	ENDS
;	COMDAT ??_C@_0EC@HIIDFEJP@d?3?2?$CBdiffusion?52020?2source?5code?52@
CONST	SEGMENT
??_C@_0EC@HIIDFEJP@d?3?2?$CBdiffusion?52020?2source?5code?52@ DB 'd:\!dif'
	DB	'fusion 2020\source code 2022\client-server\server\util.cpp', 00H ; `string'
CONST	ENDS
;	COMDAT ?__LINE__Var@?0??UTIL_FunctionToName@@YAPBDPAUdatamap_s@@PAX@Z@4JA
_DATA	SEGMENT
?__LINE__Var@?0??UTIL_FunctionToName@@YAPBDPAUdatamap_s@@PAX@Z@4JA DD 0bcH ; `UTIL_FunctionToName'::`1'::__LINE__Var
_DATA	ENDS
;	COMDAT ??_C@_03OFAPEBGM@?$CFs?6?$AA@
CONST	SEGMENT
??_C@_03OFAPEBGM@?$CFs?6?$AA@ DB '%s', 0aH, 00H		; `string'
CONST	ENDS
;	COMDAT ??_C@_0BP@EKJAMGDB@Entity?5Factory?5not?5installed?$CB?6?$AA@
CONST	SEGMENT
??_C@_0BP@EKJAMGDB@Entity?5Factory?5not?5installed?$CB?6?$AA@ DB 'Entity '
	DB	'Factory not installed!', 0aH, 00H		; `string'
CONST	ENDS
;	COMDAT ??_C@_0P@FLOJJBNJ@?5?$CFs?3?5?$CFd?5bytes?6?$AA@
CONST	SEGMENT
??_C@_0P@FLOJJBNJ@?5?$CFs?3?5?$CFd?5bytes?6?$AA@ DB ' %s: %d bytes', 0aH, 00H ; `string'
CONST	ENDS
;	COMDAT ??_C@_0CO@BCJHKPIF@Attempted?5to?5destroy?5unknown?5ent@
CONST	SEGMENT
??_C@_0CO@BCJHKPIF@Attempted?5to?5destroy?5unknown?5ent@ DB 'Attempted to'
	DB	' destroy unknown entity type %s!', 0aH, 00H	; `string'
CONST	ENDS
;	COMDAT ??_C@_0CN@EDMNCIHJ@Attempted?5to?5create?5unknown?5enti@
CONST	SEGMENT
??_C@_0CN@EDMNCIHJ@Attempted?5to?5create?5unknown?5enti@ DB 'Attempted to'
	DB	' create unknown entity type %s!', 0aH, 00H	; `string'
CONST	ENDS
;	COMDAT ??_C@_1EE@DJKMNDPK@?$AAF?$AAi?$AAn?$AAd?$AAF?$AAa?$AAc?$AAt?$AAo?$AAr?$AAy?$AA?$CI?$AA?5?$AAp?$AAC?$AAl?$AAa?$AAs?$AAs?$AAN?$AAa?$AAm?$AAe?$AA?5?$AA?$CJ?$AA?5?$AA?$DN?$AA?$DN?$AA?5?$AAN?$AAU?$AAL@
CONST	SEGMENT
??_C@_1EE@DJKMNDPK@?$AAF?$AAi?$AAn?$AAd?$AAF?$AAa?$AAc?$AAt?$AAo?$AAr?$AAy?$AA?$CI?$AA?5?$AAp?$AAC?$AAl?$AAa?$AAs?$AAs?$AAN?$AAa?$AAm?$AAe?$AA?5?$AA?$CJ?$AA?5?$AA?$DN?$AA?$DN?$AA?5?$AAN?$AAU?$AAL@ DB 'F'
	DB	00H, 'i', 00H, 'n', 00H, 'd', 00H, 'F', 00H, 'a', 00H, 'c', 00H
	DB	't', 00H, 'o', 00H, 'r', 00H, 'y', 00H, '(', 00H, ' ', 00H, 'p'
	DB	00H, 'C', 00H, 'l', 00H, 'a', 00H, 's', 00H, 's', 00H, 'N', 00H
	DB	'a', 00H, 'm', 00H, 'e', 00H, ' ', 00H, ')', 00H, ' ', 00H, '='
	DB	00H, '=', 00H, ' ', 00H, 'N', 00H, 'U', 00H, 'L', 00H, 'L', 00H
	DB	00H, 00H					; `string'
CONST	ENDS
;	COMDAT ??_C@_1IE@NGBBGFHJ@?$AAd?$AA?3?$AA?2?$AA?$CB?$AAd?$AAi?$AAf?$AAf?$AAu?$AAs?$AAi?$AAo?$AAn?$AA?5?$AA2?$AA0?$AA2?$AA0?$AA?2?$AAs?$AAo?$AAu?$AAr?$AAc?$AAe?$AA?5?$AAc?$AAo?$AAd?$AAe?$AA?5?$AA2@
CONST	SEGMENT
??_C@_1IE@NGBBGFHJ@?$AAd?$AA?3?$AA?2?$AA?$CB?$AAd?$AAi?$AAf?$AAf?$AAu?$AAs?$AAi?$AAo?$AAn?$AA?5?$AA2?$AA0?$AA2?$AA0?$AA?2?$AAs?$AAo?$AAu?$AAr?$AAc?$AAe?$AA?5?$AAc?$AAo?$AAd?$AAe?$AA?5?$AA2@ DB 'd'
	DB	00H, ':', 00H, '\', 00H, '!', 00H, 'd', 00H, 'i', 00H, 'f', 00H
	DB	'f', 00H, 'u', 00H, 's', 00H, 'i', 00H, 'o', 00H, 'n', 00H, ' '
	DB	00H, '2', 00H, '0', 00H, '2', 00H, '0', 00H, '\', 00H, 's', 00H
	DB	'o', 00H, 'u', 00H, 'r', 00H, 'c', 00H, 'e', 00H, ' ', 00H, 'c'
	DB	00H, 'o', 00H, 'd', 00H, 'e', 00H, ' ', 00H, '2', 00H, '0', 00H
	DB	'2', 00H, '2', 00H, '\', 00H, 'c', 00H, 'l', 00H, 'i', 00H, 'e'
	DB	00H, 'n', 00H, 't', 00H, '-', 00H, 's', 00H, 'e', 00H, 'r', 00H
	DB	'v', 00H, 'e', 00H, 'r', 00H, '\', 00H, 's', 00H, 'e', 00H, 'r'
	DB	00H, 'v', 00H, 'e', 00H, 'r', 00H, '\', 00H, 'u', 00H, 't', 00H
	DB	'i', 00H, 'l', 00H, '.', 00H, 'c', 00H, 'p', 00H, 'p', 00H, 00H
	DB	00H						; `string'
CONST	ENDS
;	COMDAT ?__LINE__Var@?0??InstallFactory@CEntityFactoryDictionary@@UAEXPAVIEntityFactory@@PBD@Z@4JA
_DATA	SEGMENT
?__LINE__Var@?0??InstallFactory@CEntityFactoryDictionary@@UAEXPAVIEntityFactory@@PBD@Z@4JA DD 05aH ; `CEntityFactoryDictionary::InstallFactory'::`1'::__LINE__Var
_DATA	ENDS
;	COMDAT ??_7CEntityFactoryDictionary@@6B@
CONST	SEGMENT
??_7CEntityFactoryDictionary@@6B@ DD FLAT:??_R4CEntityFactoryDictionary@@6B@ ; CEntityFactoryDictionary::`vftable'
	DD	FLAT:?InstallFactory@CEntityFactoryDictionary@@UAEXPAVIEntityFactory@@PBD@Z
	DD	FLAT:?Create@CEntityFactoryDictionary@@UAEPAVCBaseEntity@@PBDPAUentvars_s@@@Z
	DD	FLAT:?Destroy@CEntityFactoryDictionary@@UAEXPBDPAVCBaseEntity@@@Z
	DD	FLAT:?FindFactory@CEntityFactoryDictionary@@EAEPAVIEntityFactory@@PBD@Z
	DD	FLAT:?GetCannonicalName@CEntityFactoryDictionary@@UAEPBDPBD@Z
CONST	ENDS
;	COMDAT ??_C@_04HDOCAJNK@?$CFs?$CFs?$AA@
CONST	SEGMENT
??_C@_04HDOCAJNK@?$CFs?$CFs?$AA@ DB '%s%s', 00H		; `string'
CONST	ENDS
;	COMDAT ??_C@_0BF@DOONGEFO@Bad?5pev?5in?5OFFSET?$CI?$CJ?6?$AA@
CONST	SEGMENT
??_C@_0BF@DOONGEFO@Bad?5pev?5in?5OFFSET?$CI?$CJ?6?$AA@ DB 'Bad pev in OFF'
	DB	'SET()', 0aH, 00H				; `string'
CONST	ENDS
;	COMDAT ??_C@_0BF@CPEPILID@Bad?5ent?5in?5OFFSET?$CI?$CJ?6?$AA@
CONST	SEGMENT
??_C@_0BF@CPEPILID@Bad?5ent?5in?5OFFSET?$CI?$CJ?6?$AA@ DB 'Bad ent in OFF'
	DB	'SET()', 0aH, 00H				; `string'
CONST	ENDS
;	COMDAT ??_C@_06JJLAMBGK@target?$AA@
CONST	SEGMENT
??_C@_06JJLAMBGK@target?$AA@ DB 'target', 00H		; `string'
CONST	ENDS
;	COMDAT ??_C@_0L@FEPNPAJD@targetname?$AA@
CONST	SEGMENT
??_C@_0L@FEPNPAJD@targetname?$AA@ DB 'targetname', 00H	; `string'
CONST	ENDS
;	COMDAT ??_C@_09CNJINBGN@classname?$AA@
CONST	SEGMENT
??_C@_09CNJINBGN@classname?$AA@ DB 'classname', 00H	; `string'
CONST	ENDS
;	COMDAT ??_7IEntityFactoryDictionary@@6B@
CONST	SEGMENT
??_7IEntityFactoryDictionary@@6B@ DD FLAT:??_R4IEntityFactoryDictionary@@6B@ ; IEntityFactoryDictionary::`vftable'
	DD	FLAT:__purecall
	DD	FLAT:__purecall
	DD	FLAT:__purecall
	DD	FLAT:__purecall
	DD	FLAT:__purecall
CONST	ENDS
;	COMDAT ??_C@_00CNPNBAHC@?$AA@
CONST	SEGMENT
??_C@_00CNPNBAHC@?$AA@ DB 00H				; `string'
CONST	ENDS
;	COMDAT ??_C@_01NBENCBCI@?$CK?$AA@
CONST	SEGMENT
??_C@_01NBENCBCI@?$CK?$AA@ DB '*', 00H			; `string'
CONST	ENDS
;	COMDAT xdata$x
xdata$x	SEGMENT
__unwindtable$??$Construct@UNode_t@?$CUtlMap@PBDPAVIEntityFactory@@G@@@@YAXPAUNode_t@?$CUtlMap@PBDPAVIEntityFactory@@G@@@Z DD 0ffffffffH
	DD	FLAT:__unwindfunclet$??$Construct@UNode_t@?$CUtlMap@PBDPAVIEntityFactory@@G@@@@YAXPAUNode_t@?$CUtlMap@PBDPAVIEntityFactory@@G@@@Z$0
__ehfuncinfo$??$Construct@UNode_t@?$CUtlMap@PBDPAVIEntityFactory@@G@@@@YAXPAUNode_t@?$CUtlMap@PBDPAVIEntityFactory@@G@@@Z DD 019930522H
	DD	01H
	DD	FLAT:__unwindtable$??$Construct@UNode_t@?$CUtlMap@PBDPAVIEntityFactory@@G@@@@YAXPAUNode_t@?$CUtlMap@PBDPAVIEntityFactory@@G@@@Z
	DD	2 DUP(00H)
	DD	2 DUP(00H)
	DD	00H
	DD	01H
xdata$x	ENDS
;	COMDAT xdata$x
xdata$x	SEGMENT
__unwindtable$??$CopyConstruct@UNode_t@?$CUtlMap@PBDPAVIEntityFactory@@G@@@@YAXPAUNode_t@?$CUtlMap@PBDPAVIEntityFactory@@G@@ABU01@@Z DD 0ffffffffH
	DD	FLAT:__unwindfunclet$??$CopyConstruct@UNode_t@?$CUtlMap@PBDPAVIEntityFactory@@G@@@@YAXPAUNode_t@?$CUtlMap@PBDPAVIEntityFactory@@G@@ABU01@@Z$0
__ehfuncinfo$??$CopyConstruct@UNode_t@?$CUtlMap@PBDPAVIEntityFactory@@G@@@@YAXPAUNode_t@?$CUtlMap@PBDPAVIEntityFactory@@G@@ABU01@@Z DD 019930522H
	DD	01H
	DD	FLAT:__unwindtable$??$CopyConstruct@UNode_t@?$CUtlMap@PBDPAVIEntityFactory@@G@@@@YAXPAUNode_t@?$CUtlMap@PBDPAVIEntityFactory@@G@@ABU01@@Z
	DD	2 DUP(00H)
	DD	2 DUP(00H)
	DD	00H
	DD	01H
xdata$x	ENDS
;	COMDAT xdata$x
xdata$x	SEGMENT
__ehfuncinfo$??1?$CUtlMemory@U?$UtlRBTreeNode_t@UNode_t@?$CUtlMap@PBDPAVIEntityFactory@@G@@G@@G@@QAE@XZ DD 019930522H
	DD	00H
	DD	00H
	DD	2 DUP(00H)
	DD	2 DUP(00H)
	DD	00H
	DD	05H
xdata$x	ENDS
;	COMDAT xdata$x
xdata$x	SEGMENT
__unwindtable$?Links@?$CUtlRBTree@UNode_t@?$CUtlMap@PBDPAVIEntityFactory@@G@@GVCKeyLess@2@V?$CUtlMemory@U?$UtlRBTreeNode_t@UNode_t@?$CUtlMap@PBDPAVIEntityFactory@@G@@G@@G@@@@IBEABU?$UtlRBTreeLinks_t@G@@G@Z DD 0ffffffffH
	DD	FLAT:__unwindfunclet$?Links@?$CUtlRBTree@UNode_t@?$CUtlMap@PBDPAVIEntityFactory@@G@@GVCKeyLess@2@V?$CUtlMemory@U?$UtlRBTreeNode_t@UNode_t@?$CUtlMap@PBDPAVIEntityFactory@@G@@G@@G@@@@IBEABU?$UtlRBTreeLinks_t@G@@G@Z$0
__ehfuncinfo$?Links@?$CUtlRBTree@UNode_t@?$CUtlMap@PBDPAVIEntityFactory@@G@@GVCKeyLess@2@V?$CUtlMemory@U?$UtlRBTreeNode_t@UNode_t@?$CUtlMap@PBDPAVIEntityFactory@@G@@G@@G@@@@IBEABU?$UtlRBTreeLinks_t@G@@G@Z DD 019930522H
	DD	01H
	DD	FLAT:__unwindtable$?Links@?$CUtlRBTree@UNode_t@?$CUtlMap@PBDPAVIEntityFactory@@G@@GVCKeyLess@2@V?$CUtlMemory@U?$UtlRBTreeNode_t@UNode_t@?$CUtlMap@PBDPAVIEntityFactory@@G@@G@@G@@@@IBEABU?$UtlRBTreeLinks_t@G@@G@Z
	DD	2 DUP(00H)
	DD	2 DUP(00H)
	DD	00H
	DD	01H
xdata$x	ENDS
;	COMDAT xdata$x
xdata$x	SEGMENT
__ehfuncinfo$??1?$CUtlRBTree@UNode_t@?$CUtlMap@PBDPAVIEntityFactory@@G@@GVCKeyLess@2@V?$CUtlMemory@U?$UtlRBTreeNode_t@UNode_t@?$CUtlMap@PBDPAVIEntityFactory@@G@@G@@G@@@@QAE@XZ DD 019930522H
	DD	00H
	DD	00H
	DD	2 DUP(00H)
	DD	2 DUP(00H)
	DD	00H
	DD	05H
xdata$x	ENDS
;	COMDAT xdata$x
xdata$x	SEGMENT
__unwindtable$??0?$CUtlRBTree@UNode_t@?$CUtlMap@PBDPAVIEntityFactory@@G@@GVCKeyLess@2@V?$CUtlMemory@U?$UtlRBTreeNode_t@UNode_t@?$CUtlMap@PBDPAVIEntityFactory@@G@@G@@G@@@@QAE@HHABVCKeyLess@?$CUtlMap@PBDPAVIEntityFactory@@G@@@Z DD 0ffffffffH
	DD	FLAT:__unwindfunclet$??0?$CUtlRBTree@UNode_t@?$CUtlMap@PBDPAVIEntityFactory@@G@@GVCKeyLess@2@V?$CUtlMemory@U?$UtlRBTreeNode_t@UNode_t@?$CUtlMap@PBDPAVIEntityFactory@@G@@G@@G@@@@QAE@HHABVCKeyLess@?$CUtlMap@PBDPAVIEntityFactory@@G@@@Z$0
__ehfuncinfo$??0?$CUtlRBTree@UNode_t@?$CUtlMap@PBDPAVIEntityFactory@@G@@GVCKeyLess@2@V?$CUtlMemory@U?$UtlRBTreeNode_t@UNode_t@?$CUtlMap@PBDPAVIEntityFactory@@G@@G@@G@@@@QAE@HHABVCKeyLess@?$CUtlMap@PBDPAVIEntityFactory@@G@@@Z DD 019930522H
	DD	01H
	DD	FLAT:__unwindtable$??0?$CUtlRBTree@UNode_t@?$CUtlMap@PBDPAVIEntityFactory@@G@@GVCKeyLess@2@V?$CUtlMemory@U?$UtlRBTreeNode_t@UNode_t@?$CUtlMap@PBDPAVIEntityFactory@@G@@G@@G@@@@QAE@HHABVCKeyLess@?$CUtlMap@PBDPAVIEntityFactory@@G@@@Z
	DD	2 DUP(00H)
	DD	2 DUP(00H)
	DD	00H
	DD	01H
xdata$x	ENDS
;	COMDAT xdata$x
xdata$x	SEGMENT
__ehfuncinfo$??1?$CUtlDict@PAVIEntityFactory@@G@@QAE@XZ DD 019930522H
	DD	00H
	DD	00H
	DD	2 DUP(00H)
	DD	2 DUP(00H)
	DD	00H
	DD	05H
xdata$x	ENDS
;	COMDAT xdata$x
xdata$x	SEGMENT
__unwindtable$??0?$CUtlDict@PAVIEntityFactory@@G@@QAE@HHH@Z DD 0ffffffffH
	DD	FLAT:__unwindfunclet$??0?$CUtlDict@PAVIEntityFactory@@G@@QAE@HHH@Z$0
__ehfuncinfo$??0?$CUtlDict@PAVIEntityFactory@@G@@QAE@HHH@Z DD 019930522H
	DD	01H
	DD	FLAT:__unwindtable$??0?$CUtlDict@PAVIEntityFactory@@G@@QAE@HHH@Z
	DD	2 DUP(00H)
	DD	2 DUP(00H)
	DD	00H
	DD	01H
xdata$x	ENDS
;	COMDAT xdata$x
xdata$x	SEGMENT
__ehfuncinfo$??1UTIL_GroupTrace@@QAE@XZ DD 019930522H
	DD	00H
	DD	00H
	DD	2 DUP(00H)
	DD	2 DUP(00H)
	DD	00H
	DD	05H
xdata$x	ENDS
;	COMDAT xdata$x
xdata$x	SEGMENT
__unwindtable$?EntityFactoryDictionary@@YAPAVIEntityFactoryDictionary@@XZ DD 0ffffffffH
	DD	FLAT:__unwindfunclet$?EntityFactoryDictionary@@YAPAVIEntityFactoryDictionary@@XZ$0
__ehfuncinfo$?EntityFactoryDictionary@@YAPAVIEntityFactoryDictionary@@XZ DD 019930522H
	DD	01H
	DD	FLAT:__unwindtable$?EntityFactoryDictionary@@YAPAVIEntityFactoryDictionary@@XZ
	DD	2 DUP(00H)
	DD	2 DUP(00H)
	DD	00H
	DD	01H
xdata$x	ENDS
; Function compile flags: /Odtp /ZI
; File d:\!diffusion 2020\source code 2022\client-server\game_shared\utlmemory.h
;	COMDAT ??$Destruct@UNode_t@?$CUtlMap@PBDPAVIEntityFactory@@G@@@@YAXPAUNode_t@?$CUtlMap@PBDPAVIEntityFactory@@G@@@Z
_TEXT	SEGMENT
_pMemory$ = 8						; size = 4
??$Destruct@UNode_t@?$CUtlMap@PBDPAVIEntityFactory@@G@@@@YAXPAUNode_t@?$CUtlMap@PBDPAVIEntityFactory@@G@@@Z PROC ; Destruct<CUtlMap<char const *,IEntityFactory *,unsigned short>::Node_t>, COMDAT

; 49   : {

	push	ebp
	mov	ebp, esp
	sub	esp, 64					; 00000040H
	push	ebx
	push	esi
	push	edi

; 50   : 	pMemory->~T();
; 51   : 
; 52   : #ifdef _DEBUG
; 53   : 	memset( pMemory, 0xDD, sizeof(T) );

	push	8
	push	221					; 000000ddH
	mov	eax, DWORD PTR _pMemory$[ebp]
	push	eax
	call	_memset
	add	esp, 12					; 0000000cH

; 54   : #endif
; 55   : }

	pop	edi
	pop	esi
	pop	ebx
	mov	esp, ebp
	pop	ebp
	ret	0
??$Destruct@UNode_t@?$CUtlMap@PBDPAVIEntityFactory@@G@@@@YAXPAUNode_t@?$CUtlMap@PBDPAVIEntityFactory@@G@@@Z ENDP ; Destruct<CUtlMap<char const *,IEntityFactory *,unsigned short>::Node_t>
_TEXT	ENDS
; Function compile flags: /Odtp /ZI
; File d:\!diffusion 2020\source code 2022\client-server\game_shared\utlmemory.h
;	COMDAT ??$Construct@UNode_t@?$CUtlMap@PBDPAVIEntityFactory@@G@@@@YAXPAUNode_t@?$CUtlMap@PBDPAVIEntityFactory@@G@@@Z
_TEXT	SEGMENT
tv76 = -88						; size = 4
$T2 = -84						; size = 4
$T3 = -80						; size = 4
__$EHRec$ = -12						; size = 12
_pMemory$ = 8						; size = 4
??$Construct@UNode_t@?$CUtlMap@PBDPAVIEntityFactory@@G@@@@YAXPAUNode_t@?$CUtlMap@PBDPAVIEntityFactory@@G@@@Z PROC ; Construct<CUtlMap<char const *,IEntityFactory *,unsigned short>::Node_t>, COMDAT

; 37   : {

	push	ebp
	mov	ebp, esp
	push	-1
	push	__ehhandler$??$Construct@UNode_t@?$CUtlMap@PBDPAVIEntityFactory@@G@@@@YAXPAUNode_t@?$CUtlMap@PBDPAVIEntityFactory@@G@@@Z
	mov	eax, DWORD PTR fs:0
	push	eax
	sub	esp, 76					; 0000004cH
	push	ebx
	push	esi
	push	edi
	mov	eax, DWORD PTR ___security_cookie
	xor	eax, ebp
	push	eax
	lea	eax, DWORD PTR __$EHRec$[ebp]
	mov	DWORD PTR fs:0, eax

; 38   : 	new( pMemory ) T;

	mov	eax, DWORD PTR _pMemory$[ebp]
	push	eax
	push	8
	call	??2@YAPAXIPAX@Z				; operator new
	add	esp, 8
	mov	DWORD PTR $T2[ebp], eax
	mov	DWORD PTR __$EHRec$[ebp+8], 0
	cmp	DWORD PTR $T2[ebp], 0
	je	SHORT $LN3@Construct
	mov	ecx, DWORD PTR $T2[ebp]
	call	??0Node_t@?$CUtlMap@PBDPAVIEntityFactory@@G@@QAE@XZ ; CUtlMap<char const *,IEntityFactory *,unsigned short>::Node_t::Node_t
	mov	DWORD PTR tv76[ebp], eax
	jmp	SHORT $LN4@Construct
$LN3@Construct:
	mov	DWORD PTR tv76[ebp], 0
$LN4@Construct:
	mov	ecx, DWORD PTR tv76[ebp]
	mov	DWORD PTR $T3[ebp], ecx
	mov	DWORD PTR __$EHRec$[ebp+8], -1

; 39   : }

	mov	ecx, DWORD PTR __$EHRec$[ebp]
	mov	DWORD PTR fs:0, ecx
	pop	ecx
	pop	edi
	pop	esi
	pop	ebx
	mov	esp, ebp
	pop	ebp
	ret	0
_TEXT	ENDS
;	COMDAT text$x
text$x	SEGMENT
__unwindfunclet$??$Construct@UNode_t@?$CUtlMap@PBDPAVIEntityFactory@@G@@@@YAXPAUNode_t@?$CUtlMap@PBDPAVIEntityFactory@@G@@@Z$0:
	mov	eax, DWORD PTR _pMemory$[ebp]
	push	eax
	mov	eax, DWORD PTR $T2[ebp]
	push	eax
	call	??3@YAXPAX0@Z				; operator delete
	add	esp, 8
	ret	0
__ehhandler$??$Construct@UNode_t@?$CUtlMap@PBDPAVIEntityFactory@@G@@@@YAXPAUNode_t@?$CUtlMap@PBDPAVIEntityFactory@@G@@@Z:
	mov	edx, DWORD PTR [esp+8]
	lea	eax, DWORD PTR [edx+12]
	mov	ecx, DWORD PTR [edx-92]
	xor	ecx, eax
	call	@__security_check_cookie@4
	mov	eax, OFFSET __ehfuncinfo$??$Construct@UNode_t@?$CUtlMap@PBDPAVIEntityFactory@@G@@@@YAXPAUNode_t@?$CUtlMap@PBDPAVIEntityFactory@@G@@@Z
	jmp	___CxxFrameHandler3
text$x	ENDS
??$Construct@UNode_t@?$CUtlMap@PBDPAVIEntityFactory@@G@@@@YAXPAUNode_t@?$CUtlMap@PBDPAVIEntityFactory@@G@@@Z ENDP ; Construct<CUtlMap<char const *,IEntityFactory *,unsigned short>::Node_t>
; Function compile flags: /Odtp /ZI
; File d:\!diffusion 2020\source code 2022\client-server\game_shared\utlmemory.h
;	COMDAT ??$CopyConstruct@UNode_t@?$CUtlMap@PBDPAVIEntityFactory@@G@@@@YAXPAUNode_t@?$CUtlMap@PBDPAVIEntityFactory@@G@@ABU01@@Z
_TEXT	SEGMENT
tv77 = -88						; size = 4
$T2 = -84						; size = 4
$T3 = -80						; size = 4
__$EHRec$ = -12						; size = 12
_pMemory$ = 8						; size = 4
_src$ = 12						; size = 4
??$CopyConstruct@UNode_t@?$CUtlMap@PBDPAVIEntityFactory@@G@@@@YAXPAUNode_t@?$CUtlMap@PBDPAVIEntityFactory@@G@@ABU01@@Z PROC ; CopyConstruct<CUtlMap<char const *,IEntityFactory *,unsigned short>::Node_t>, COMDAT

; 43   : {

	push	ebp
	mov	ebp, esp
	push	-1
	push	__ehhandler$??$CopyConstruct@UNode_t@?$CUtlMap@PBDPAVIEntityFactory@@G@@@@YAXPAUNode_t@?$CUtlMap@PBDPAVIEntityFactory@@G@@ABU01@@Z
	mov	eax, DWORD PTR fs:0
	push	eax
	sub	esp, 76					; 0000004cH
	push	ebx
	push	esi
	push	edi
	mov	eax, DWORD PTR ___security_cookie
	xor	eax, ebp
	push	eax
	lea	eax, DWORD PTR __$EHRec$[ebp]
	mov	DWORD PTR fs:0, eax

; 44   : 	new( pMemory ) T(src);

	mov	eax, DWORD PTR _pMemory$[ebp]
	push	eax
	push	8
	call	??2@YAPAXIPAX@Z				; operator new
	add	esp, 8
	mov	DWORD PTR $T2[ebp], eax
	mov	DWORD PTR __$EHRec$[ebp+8], 0
	cmp	DWORD PTR $T2[ebp], 0
	je	SHORT $LN3@CopyConstr
	mov	ecx, DWORD PTR _src$[ebp]
	push	ecx
	mov	ecx, DWORD PTR $T2[ebp]
	call	??0Node_t@?$CUtlMap@PBDPAVIEntityFactory@@G@@QAE@ABU01@@Z ; CUtlMap<char const *,IEntityFactory *,unsigned short>::Node_t::Node_t
	mov	DWORD PTR tv77[ebp], eax
	jmp	SHORT $LN4@CopyConstr
$LN3@CopyConstr:
	mov	DWORD PTR tv77[ebp], 0
$LN4@CopyConstr:
	mov	edx, DWORD PTR tv77[ebp]
	mov	DWORD PTR $T3[ebp], edx
	mov	DWORD PTR __$EHRec$[ebp+8], -1

; 45   : }

	mov	ecx, DWORD PTR __$EHRec$[ebp]
	mov	DWORD PTR fs:0, ecx
	pop	ecx
	pop	edi
	pop	esi
	pop	ebx
	mov	esp, ebp
	pop	ebp
	ret	0
_TEXT	ENDS
;	COMDAT text$x
text$x	SEGMENT
__unwindfunclet$??$CopyConstruct@UNode_t@?$CUtlMap@PBDPAVIEntityFactory@@G@@@@YAXPAUNode_t@?$CUtlMap@PBDPAVIEntityFactory@@G@@ABU01@@Z$0:
	mov	eax, DWORD PTR _pMemory$[ebp]
	push	eax
	mov	eax, DWORD PTR $T2[ebp]
	push	eax
	call	??3@YAXPAX0@Z				; operator delete
	add	esp, 8
	ret	0
__ehhandler$??$CopyConstruct@UNode_t@?$CUtlMap@PBDPAVIEntityFactory@@G@@@@YAXPAUNode_t@?$CUtlMap@PBDPAVIEntityFactory@@G@@ABU01@@Z:
	mov	edx, DWORD PTR [esp+8]
	lea	eax, DWORD PTR [edx+12]
	mov	ecx, DWORD PTR [edx-92]
	xor	ecx, eax
	call	@__security_check_cookie@4
	mov	eax, OFFSET __ehfuncinfo$??$CopyConstruct@UNode_t@?$CUtlMap@PBDPAVIEntityFactory@@G@@@@YAXPAUNode_t@?$CUtlMap@PBDPAVIEntityFactory@@G@@ABU01@@Z
	jmp	___CxxFrameHandler3
text$x	ENDS
??$CopyConstruct@UNode_t@?$CUtlMap@PBDPAVIEntityFactory@@G@@@@YAXPAUNode_t@?$CUtlMap@PBDPAVIEntityFactory@@G@@ABU01@@Z ENDP ; CopyConstruct<CUtlMap<char const *,IEntityFactory *,unsigned short>::Node_t>
; Function compile flags: /Odtp /ZI
; File d:\!diffusion 2020\source code 2022\client-server\game_shared\utlmap.h
;	COMDAT ??0Node_t@?$CUtlMap@PBDPAVIEntityFactory@@G@@QAE@ABU01@@Z
_TEXT	SEGMENT
_this$ = -4						; size = 4
_from$ = 8						; size = 4
??0Node_t@?$CUtlMap@PBDPAVIEntityFactory@@G@@QAE@ABU01@@Z PROC ; CUtlMap<char const *,IEntityFactory *,unsigned short>::Node_t::Node_t, COMDAT
; _this$ = ecx

; 166  : 		{

	push	ebp
	mov	ebp, esp
	sub	esp, 68					; 00000044H
	push	ebx
	push	esi
	push	edi
	mov	DWORD PTR _this$[ebp], ecx

; 164  : 		  : key( from.key ),

	mov	eax, DWORD PTR _this$[ebp]
	mov	ecx, DWORD PTR _from$[ebp]
	mov	edx, DWORD PTR [ecx]
	mov	DWORD PTR [eax], edx

; 165  : 			elem( from.elem )

	mov	eax, DWORD PTR _this$[ebp]
	mov	ecx, DWORD PTR _from$[ebp]
	mov	edx, DWORD PTR [ecx+4]
	mov	DWORD PTR [eax+4], edx

; 167  : 		}

	mov	eax, DWORD PTR _this$[ebp]
	pop	edi
	pop	esi
	pop	ebx
	mov	esp, ebp
	pop	ebp
	ret	4
??0Node_t@?$CUtlMap@PBDPAVIEntityFactory@@G@@QAE@ABU01@@Z ENDP ; CUtlMap<char const *,IEntityFactory *,unsigned short>::Node_t::Node_t
_TEXT	ENDS
; Function compile flags: /Odtp /ZI
; File d:\!diffusion 2020\source code 2022\client-server\game_shared\utlmap.h
;	COMDAT ??0Node_t@?$CUtlMap@PBDPAVIEntityFactory@@G@@QAE@XZ
_TEXT	SEGMENT
_this$ = -4						; size = 4
??0Node_t@?$CUtlMap@PBDPAVIEntityFactory@@G@@QAE@XZ PROC ; CUtlMap<char const *,IEntityFactory *,unsigned short>::Node_t::Node_t, COMDAT
; _this$ = ecx

; 159  : 		Node_t()

	push	ebp
	mov	ebp, esp
	sub	esp, 68					; 00000044H
	push	ebx
	push	esi
	push	edi
	mov	DWORD PTR _this$[ebp], ecx

; 160  : 		{
; 161  : 		}

	mov	eax, DWORD PTR _this$[ebp]
	pop	edi
	pop	esi
	pop	ebx
	mov	esp, ebp
	pop	ebp
	ret	0
??0Node_t@?$CUtlMap@PBDPAVIEntityFactory@@G@@QAE@XZ ENDP ; CUtlMap<char const *,IEntityFactory *,unsigned short>::Node_t::Node_t
_TEXT	ENDS
; Function compile flags: /Odtp /ZI
; File d:\!diffusion 2020\source code 2022\client-server\server\util.cpp
;	COMDAT ?UTIL_RecursiveWalkNodes@@YAXPAUareaclip_t@@PAUareanode_s@@@Z
_TEXT	SEGMENT
_pCheck$1 = -16						; size = 4
_next$ = -12						; size = 4
_start$ = -8						; size = 4
_l$ = -4						; size = 4
_clip$ = 8						; size = 4
_node$ = 12						; size = 4
?UTIL_RecursiveWalkNodes@@YAXPAUareaclip_t@@PAUareanode_s@@@Z PROC ; UTIL_RecursiveWalkNodes, COMDAT

; 2826 : {

	push	ebp
	mov	ebp, esp
	sub	esp, 88					; 00000058H
	push	ebx
	push	esi
	push	edi

; 2827 : 	link_t	*l, *start, *next;
; 2828 : 
; 2829 : 	// touch linked edicts
; 2830 : 	if( clip->area_type == AREA_SOLID )

	mov	eax, DWORD PTR _clip$[ebp]
	cmp	DWORD PTR [eax+28], 0
	jne	SHORT $LN5@UTIL_Recur

; 2831 : 		start = &node->solid_edicts;

	mov	eax, DWORD PTR _node$[ebp]
	add	eax, 24					; 00000018H
	mov	DWORD PTR _start$[ebp], eax
	jmp	SHORT $LN10@UTIL_Recur
$LN5@UTIL_Recur:

; 2832 : 	else if( clip->area_type == AREA_TRIGGERS )

	mov	eax, DWORD PTR _clip$[ebp]
	cmp	DWORD PTR [eax+28], 1
	jne	SHORT $LN7@UTIL_Recur

; 2833 : 		start = &node->trigger_edicts;

	mov	eax, DWORD PTR _node$[ebp]
	add	eax, 16					; 00000010H
	mov	DWORD PTR _start$[ebp], eax
	jmp	SHORT $LN10@UTIL_Recur
$LN7@UTIL_Recur:

; 2834 : 	else if( clip->area_type == AREA_WATER )

	mov	eax, DWORD PTR _clip$[ebp]
	cmp	DWORD PTR [eax+28], 2
	jne	SHORT $LN9@UTIL_Recur

; 2835 : 		start = &node->solid_edicts;

	mov	eax, DWORD PTR _node$[ebp]
	add	eax, 24					; 00000018H
	mov	DWORD PTR _start$[ebp], eax

; 2836 : 	else return;

	jmp	SHORT $LN10@UTIL_Recur
$LN9@UTIL_Recur:
	jmp	$LN1@UTIL_Recur
$LN10@UTIL_Recur:

; 2837 : 
; 2838 : 	// touch linked edicts
; 2839 : 	for( l = start->next; l != start; l = next )

	mov	eax, DWORD PTR _start$[ebp]
	mov	ecx, DWORD PTR [eax+4]
	mov	DWORD PTR _l$[ebp], ecx
	jmp	SHORT $LN4@UTIL_Recur
$LN2@UTIL_Recur:
	mov	eax, DWORD PTR _next$[ebp]
	mov	DWORD PTR _l$[ebp], eax
$LN4@UTIL_Recur:
	mov	eax, DWORD PTR _l$[ebp]
	cmp	eax, DWORD PTR _start$[ebp]
	je	$LN3@UTIL_Recur

; 2840 : 	{
; 2841 : 		next = l->next;

	mov	eax, DWORD PTR _l$[ebp]
	mov	ecx, DWORD PTR [eax+4]
	mov	DWORD PTR _next$[ebp], ecx

; 2842 : 
; 2843 : 		CBaseEntity *pCheck = CBaseEntity :: Instance( EDICT_FROM_AREA( l ));

	mov	eax, DWORD PTR _l$[ebp]
	sub	eax, 8
	push	eax
	call	?Instance@CBaseEntity@@SAPAV1@PAUedict_s@@@Z ; CBaseEntity::Instance
	add	esp, 4
	mov	DWORD PTR _pCheck$1[ebp], eax

; 2844 : 
; 2845 : 		if( clip->area_type == AREA_SOLID && pCheck->pev->solid == SOLID_NOT )

	mov	eax, DWORD PTR _clip$[ebp]
	cmp	DWORD PTR [eax+28], 0
	jne	SHORT $LN11@UTIL_Recur
	mov	eax, DWORD PTR _pCheck$1[ebp]
	mov	ecx, DWORD PTR [eax+4]
	cmp	DWORD PTR [ecx+268], 0
	jne	SHORT $LN11@UTIL_Recur

; 2846 : 			continue;

	jmp	SHORT $LN2@UTIL_Recur
$LN11@UTIL_Recur:

; 2847 : 
; 2848 : 		if( clip->area_type == AREA_WATER && pCheck->pev->solid != SOLID_NOT )

	mov	eax, DWORD PTR _clip$[ebp]
	cmp	DWORD PTR [eax+28], 2
	jne	SHORT $LN12@UTIL_Recur
	mov	eax, DWORD PTR _pCheck$1[ebp]
	mov	ecx, DWORD PTR [eax+4]
	cmp	DWORD PTR [ecx+268], 0
	je	SHORT $LN12@UTIL_Recur

; 2849 : 			continue;

	jmp	SHORT $LN2@UTIL_Recur
$LN12@UTIL_Recur:

; 2850 : 
; 2851 : 		if( pCheck && pCheck->AreaIntersect( clip->vecAbsMin, clip->vecAbsMax ))

	cmp	DWORD PTR _pCheck$1[ebp], 0
	je	SHORT $LN14@UTIL_Recur
	mov	eax, DWORD PTR _clip$[ebp]
	add	eax, 12					; 0000000cH
	sub	esp, 12					; 0000000cH
	mov	ecx, esp
	push	eax
	call	??0Vector@@QAE@ABV0@@Z			; Vector::Vector
	mov	ecx, DWORD PTR _clip$[ebp]
	sub	esp, 12					; 0000000cH
	mov	edx, esp
	push	ecx
	mov	ecx, edx
	call	??0Vector@@QAE@ABV0@@Z			; Vector::Vector
	mov	ecx, DWORD PTR _pCheck$1[ebp]
	call	?AreaIntersect@CBaseEntity@@QAEHVVector@@0@Z ; CBaseEntity::AreaIntersect
	test	eax, eax
	je	SHORT $LN14@UTIL_Recur

; 2852 : 		{
; 2853 : 			if( clip->m_pfnCallback )

	mov	eax, DWORD PTR _clip$[ebp]
	cmp	DWORD PTR [eax+24], 0
	je	SHORT $LN14@UTIL_Recur

; 2854 : 				clip->m_pfnCallback( pCheck );

	mov	eax, DWORD PTR _pCheck$1[ebp]
	push	eax
	mov	ecx, DWORD PTR _clip$[ebp]
	mov	edx, DWORD PTR [ecx+24]
	call	edx
	add	esp, 4
$LN14@UTIL_Recur:

; 2855 : 		}
; 2856 : 	}

	jmp	$LN2@UTIL_Recur
$LN3@UTIL_Recur:

; 2857 : 	
; 2858 : 	// recurse down both sides
; 2859 : 	if( node->axis == -1 ) return;

	mov	eax, DWORD PTR _node$[ebp]
	cmp	DWORD PTR [eax], -1
	jne	SHORT $LN15@UTIL_Recur
	jmp	SHORT $LN1@UTIL_Recur
$LN15@UTIL_Recur:

; 2860 : 
; 2861 : 	if( clip->vecAbsMax[node->axis] > node->dist )

	mov	ecx, DWORD PTR _clip$[ebp]
	add	ecx, 12					; 0000000cH
	call	??BVector@@QAEPAMXZ			; Vector::operator float *
	mov	ecx, DWORD PTR _node$[ebp]
	mov	edx, DWORD PTR [ecx]
	mov	ecx, DWORD PTR _node$[ebp]
	movss	xmm0, DWORD PTR [eax+edx*4]
	comiss	xmm0, DWORD PTR [ecx+4]
	jbe	SHORT $LN16@UTIL_Recur

; 2862 : 		UTIL_RecursiveWalkNodes( clip, node->children[0] );

	mov	eax, 4
	imul	ecx, eax, 0
	mov	edx, DWORD PTR _node$[ebp]
	mov	eax, DWORD PTR [edx+ecx+8]
	push	eax
	mov	ecx, DWORD PTR _clip$[ebp]
	push	ecx
	call	?UTIL_RecursiveWalkNodes@@YAXPAUareaclip_t@@PAUareanode_s@@@Z ; UTIL_RecursiveWalkNodes
	add	esp, 8
$LN16@UTIL_Recur:

; 2863 : 	if( clip->vecAbsMin[node->axis] < node->dist )

	mov	ecx, DWORD PTR _clip$[ebp]
	call	??BVector@@QAEPAMXZ			; Vector::operator float *
	mov	ecx, DWORD PTR _node$[ebp]
	mov	edx, DWORD PTR [ecx]
	mov	ecx, DWORD PTR _node$[ebp]
	movss	xmm0, DWORD PTR [ecx+4]
	comiss	xmm0, DWORD PTR [eax+edx*4]
	jbe	SHORT $LN17@UTIL_Recur

; 2864 : 		UTIL_RecursiveWalkNodes( clip, node->children[1] );

	mov	eax, 4
	shl	eax, 0
	mov	ecx, DWORD PTR _node$[ebp]
	mov	edx, DWORD PTR [ecx+eax+8]
	push	edx
	mov	eax, DWORD PTR _clip$[ebp]
	push	eax
	call	?UTIL_RecursiveWalkNodes@@YAXPAUareaclip_t@@PAUareanode_s@@@Z ; UTIL_RecursiveWalkNodes
	add	esp, 8
$LN17@UTIL_Recur:
$LN1@UTIL_Recur:

; 2865 : }

	pop	edi
	pop	esi
	pop	ebx
	mov	esp, ebp
	pop	ebp
	ret	0
?UTIL_RecursiveWalkNodes@@YAXPAUareaclip_t@@PAUareanode_s@@@Z ENDP ; UTIL_RecursiveWalkNodes
_TEXT	ENDS
; Function compile flags: /Odtp /ZI
; File c:\program files (x86)\microsoft visual studio 14.0\vc\include\vadefs.h
;	COMDAT ??$__vcrt_va_start_verify_argument_type@PAD@@YAXXZ
_TEXT	SEGMENT
??$__vcrt_va_start_verify_argument_type@PAD@@YAXXZ PROC	; __vcrt_va_start_verify_argument_type<char *>, COMDAT

; 144  :         {

	push	ebp
	mov	ebp, esp
	sub	esp, 64					; 00000040H
	push	ebx
	push	esi
	push	edi

; 145  :             static_assert(!__vcrt_va_list_is_reference<_Ty>::__the_value, "va_start argument must not have reference type and must not be parenthesized");
; 146  :         }

	pop	edi
	pop	esi
	pop	ebx
	mov	esp, ebp
	pop	ebp
	ret	0
??$__vcrt_va_start_verify_argument_type@PAD@@YAXXZ ENDP	; __vcrt_va_start_verify_argument_type<char *>
_TEXT	ENDS
; Function compile flags: /Odtp /ZI
; File d:\!diffusion 2020\source code 2022\client-server\server\util.cpp
;	COMDAT ?UTIL_ConvertTrace@@YAXPAUgametrace_s@@PAUtrace_s@@@Z
_TEXT	SEGMENT
_dst$ = 8						; size = 4
_src$ = 12						; size = 4
?UTIL_ConvertTrace@@YAXPAUgametrace_s@@PAUtrace_s@@@Z PROC ; UTIL_ConvertTrace, COMDAT

; 1494 : {

	push	ebp
	mov	ebp, esp
	sub	esp, 64					; 00000040H
	push	ebx
	push	esi
	push	edi

; 1495 : 	dst->fAllSolid = src->allsolid;

	mov	eax, DWORD PTR _dst$[ebp]
	mov	ecx, DWORD PTR _src$[ebp]
	mov	edx, DWORD PTR [ecx]
	mov	DWORD PTR [eax], edx

; 1496 : 	dst->fStartSolid = src->startsolid;

	mov	eax, DWORD PTR _dst$[ebp]
	mov	ecx, DWORD PTR _src$[ebp]
	mov	edx, DWORD PTR [ecx+4]
	mov	DWORD PTR [eax+4], edx

; 1497 : 	dst->fInOpen = src->inopen;

	mov	eax, DWORD PTR _dst$[ebp]
	mov	ecx, DWORD PTR _src$[ebp]
	mov	edx, DWORD PTR [ecx+8]
	mov	DWORD PTR [eax+8], edx

; 1498 : 	dst->fInWater = src->inwater;

	mov	eax, DWORD PTR _dst$[ebp]
	mov	ecx, DWORD PTR _src$[ebp]
	mov	edx, DWORD PTR [ecx+12]
	mov	DWORD PTR [eax+12], edx

; 1499 : 	dst->flFraction = src->fraction;

	mov	eax, DWORD PTR _dst$[ebp]
	mov	ecx, DWORD PTR _src$[ebp]
	mov	edx, DWORD PTR [ecx+16]
	mov	DWORD PTR [eax+16], edx

; 1500 : 	dst->vecEndPos = src->endpos;

	mov	eax, DWORD PTR _src$[ebp]
	add	eax, 20					; 00000014H
	mov	ecx, DWORD PTR _dst$[ebp]
	add	ecx, 20					; 00000014H
	mov	edx, DWORD PTR [eax]
	mov	DWORD PTR [ecx], edx
	mov	edx, DWORD PTR [eax+4]
	mov	DWORD PTR [ecx+4], edx
	mov	eax, DWORD PTR [eax+8]
	mov	DWORD PTR [ecx+8], eax

; 1501 : 	dst->flPlaneDist = src->plane.dist;

	mov	eax, DWORD PTR _dst$[ebp]
	mov	ecx, DWORD PTR _src$[ebp]
	mov	edx, DWORD PTR [ecx+44]
	mov	DWORD PTR [eax+32], edx

; 1502 : 	dst->vecPlaneNormal = src->plane.normal;

	mov	eax, DWORD PTR _src$[ebp]
	add	eax, 32					; 00000020H
	mov	ecx, DWORD PTR _dst$[ebp]
	add	ecx, 36					; 00000024H
	mov	edx, DWORD PTR [eax]
	mov	DWORD PTR [ecx], edx
	mov	edx, DWORD PTR [eax+4]
	mov	DWORD PTR [ecx+4], edx
	mov	eax, DWORD PTR [eax+8]
	mov	DWORD PTR [ecx+8], eax

; 1503 : 	dst->pHit = src->ent;

	mov	eax, DWORD PTR _dst$[ebp]
	mov	ecx, DWORD PTR _src$[ebp]
	mov	edx, DWORD PTR [ecx+48]
	mov	DWORD PTR [eax+48], edx

; 1504 : 	dst->iHitgroup = src->hitgroup;

	mov	eax, DWORD PTR _dst$[ebp]
	mov	ecx, DWORD PTR _src$[ebp]
	mov	edx, DWORD PTR [ecx+52]
	mov	DWORD PTR [eax+52], edx

; 1505 : 
; 1506 : 	// reset trace flags
; 1507 : 	gpGlobals->trace_flags = 0;

	mov	eax, DWORD PTR ?gpGlobals@@3PAUglobalvars_t@@A ; gpGlobals
	mov	DWORD PTR [eax+132], 0

; 1508 : }

	pop	edi
	pop	esi
	pop	ebx
	mov	esp, ebp
	pop	ebp
	ret	0
?UTIL_ConvertTrace@@YAXPAUgametrace_s@@PAUtrace_s@@@Z ENDP ; UTIL_ConvertTrace
_TEXT	ENDS
; Function compile flags: /Odtp /ZI
; File d:\!diffusion 2020\source code 2022\client-server\server\util.cpp
;	COMDAT ?UTIL_CopyTraceToGlobal@@YAXPAUtrace_s@@@Z
_TEXT	SEGMENT
_trace$ = 8						; size = 4
?UTIL_CopyTraceToGlobal@@YAXPAUtrace_s@@@Z PROC		; UTIL_CopyTraceToGlobal, COMDAT

; 1469 : {

	push	ebp
	mov	ebp, esp
	sub	esp, 64					; 00000040H
	push	ebx
	push	esi
	push	edi

; 1470 : 	gpGlobals->trace_allsolid = trace->allsolid;

	mov	eax, DWORD PTR _trace$[ebp]
	cvtsi2ss xmm0, DWORD PTR [eax]
	mov	ecx, DWORD PTR ?gpGlobals@@3PAUglobalvars_t@@A ; gpGlobals
	movss	DWORD PTR [ecx+76], xmm0

; 1471 : 	gpGlobals->trace_startsolid = trace->startsolid;

	mov	eax, DWORD PTR _trace$[ebp]
	cvtsi2ss xmm0, DWORD PTR [eax+4]
	mov	ecx, DWORD PTR ?gpGlobals@@3PAUglobalvars_t@@A ; gpGlobals
	movss	DWORD PTR [ecx+80], xmm0

; 1472 : 	gpGlobals->trace_fraction = trace->fraction;

	mov	eax, DWORD PTR ?gpGlobals@@3PAUglobalvars_t@@A ; gpGlobals
	mov	ecx, DWORD PTR _trace$[ebp]
	mov	edx, DWORD PTR [ecx+16]
	mov	DWORD PTR [eax+84], edx

; 1473 : 	gpGlobals->trace_plane_dist = trace->plane.dist;

	mov	eax, DWORD PTR ?gpGlobals@@3PAUglobalvars_t@@A ; gpGlobals
	mov	ecx, DWORD PTR _trace$[ebp]
	mov	edx, DWORD PTR [ecx+44]
	mov	DWORD PTR [eax+112], edx

; 1474 : 	gpGlobals->trace_inopen = trace->inopen;

	mov	eax, DWORD PTR _trace$[ebp]
	cvtsi2ss xmm0, DWORD PTR [eax+8]
	mov	ecx, DWORD PTR ?gpGlobals@@3PAUglobalvars_t@@A ; gpGlobals
	movss	DWORD PTR [ecx+120], xmm0

; 1475 : 	gpGlobals->trace_inwater = trace->inwater;

	mov	eax, DWORD PTR _trace$[ebp]
	cvtsi2ss xmm0, DWORD PTR [eax+12]
	mov	ecx, DWORD PTR ?gpGlobals@@3PAUglobalvars_t@@A ; gpGlobals
	movss	DWORD PTR [ecx+124], xmm0

; 1476 : 	gpGlobals->trace_endpos = trace->endpos;

	mov	eax, DWORD PTR _trace$[ebp]
	add	eax, 20					; 00000014H
	mov	ecx, DWORD PTR ?gpGlobals@@3PAUglobalvars_t@@A ; gpGlobals
	add	ecx, 88					; 00000058H
	mov	edx, DWORD PTR [eax]
	mov	DWORD PTR [ecx], edx
	mov	edx, DWORD PTR [eax+4]
	mov	DWORD PTR [ecx+4], edx
	mov	eax, DWORD PTR [eax+8]
	mov	DWORD PTR [ecx+8], eax

; 1477 : 	gpGlobals->trace_plane_normal = trace->plane.normal;

	mov	eax, DWORD PTR _trace$[ebp]
	add	eax, 32					; 00000020H
	mov	ecx, DWORD PTR ?gpGlobals@@3PAUglobalvars_t@@A ; gpGlobals
	add	ecx, 100				; 00000064H
	mov	edx, DWORD PTR [eax]
	mov	DWORD PTR [ecx], edx
	mov	edx, DWORD PTR [eax+4]
	mov	DWORD PTR [ecx+4], edx
	mov	eax, DWORD PTR [eax+8]
	mov	DWORD PTR [ecx+8], eax

; 1478 : 	gpGlobals->trace_hitgroup = trace->hitgroup;

	mov	eax, DWORD PTR ?gpGlobals@@3PAUglobalvars_t@@A ; gpGlobals
	mov	ecx, DWORD PTR _trace$[ebp]
	mov	edx, DWORD PTR [ecx+52]
	mov	DWORD PTR [eax+128], edx

; 1479 : 	gpGlobals->trace_flags = 0;	// clear trace flags

	mov	eax, DWORD PTR ?gpGlobals@@3PAUglobalvars_t@@A ; gpGlobals
	mov	DWORD PTR [eax+132], 0

; 1480 : 
; 1481 : 	if( !FNullEnt( trace->ent ))

	mov	eax, DWORD PTR _trace$[ebp]
	mov	ecx, DWORD PTR [eax+48]
	push	ecx
	call	?FNullEnt@@YAHPBUedict_s@@@Z		; FNullEnt
	add	esp, 4
	test	eax, eax
	jne	SHORT $LN2@UTIL_CopyT

; 1482 : 		gpGlobals->trace_ent = trace->ent;

	mov	eax, DWORD PTR ?gpGlobals@@3PAUglobalvars_t@@A ; gpGlobals
	mov	ecx, DWORD PTR _trace$[ebp]
	mov	edx, DWORD PTR [ecx+48]
	mov	DWORD PTR [eax+116], edx
	jmp	SHORT $LN3@UTIL_CopyT
$LN2@UTIL_CopyT:

; 1483 : 	else gpGlobals->trace_ent = ENT(0); // world

	push	0
	call	?ENT@@YAPAUedict_s@@H@Z			; ENT
	add	esp, 4
	mov	ecx, DWORD PTR ?gpGlobals@@3PAUglobalvars_t@@A ; gpGlobals
	mov	DWORD PTR [ecx+116], eax
$LN3@UTIL_CopyT:

; 1484 : }

	pop	edi
	pop	esi
	pop	ebx
	mov	esp, ebp
	pop	ebp
	ret	0
?UTIL_CopyTraceToGlobal@@YAXPAUtrace_s@@@Z ENDP		; UTIL_CopyTraceToGlobal
_TEXT	ENDS
; Function compile flags: /Odtp /ZI
; File d:\!diffusion 2020\source code 2022\client-server\server\util.cpp
;	COMDAT ?UTIL_ScreenFadeWrite@@YAXABUScreenFade@@PAVCBaseEntity@@@Z
_TEXT	SEGMENT
_fade$ = 8						; size = 4
_pEntity$ = 12						; size = 4
?UTIL_ScreenFadeWrite@@YAXABUScreenFade@@PAVCBaseEntity@@@Z PROC ; UTIL_ScreenFadeWrite, COMDAT

; 1171 : {

	push	ebp
	mov	ebp, esp
	sub	esp, 64					; 00000040H
	push	ebx
	push	esi
	push	edi

; 1172 : 	if ( !pEntity || !pEntity->IsNetClient() )

	cmp	DWORD PTR _pEntity$[ebp], 0
	je	SHORT $LN3@UTIL_Scree
	mov	eax, DWORD PTR _pEntity$[ebp]
	mov	edx, DWORD PTR [eax]
	mov	ecx, DWORD PTR _pEntity$[ebp]
	mov	eax, DWORD PTR [edx+224]
	call	eax
	test	eax, eax
	jne	SHORT $LN2@UTIL_Scree
$LN3@UTIL_Scree:

; 1173 : 		return;

	jmp	$LN1@UTIL_Scree
$LN2@UTIL_Scree:

; 1174 : 
; 1175 : 	MESSAGE_BEGIN( MSG_ONE, gmsgFade, NULL, pEntity->edict() );		// use the magic #1 for "one client"

	mov	ecx, DWORD PTR _pEntity$[ebp]
	call	?edict@CBaseEntity@@QAEPAUedict_s@@XZ	; CBaseEntity::edict
	push	eax
	push	0
	mov	eax, DWORD PTR ?gmsgFade@@3HA		; gmsgFade
	push	eax
	push	1
	call	?MESSAGE_BEGIN@@YAXHHPBMPAUedict_s@@@Z	; MESSAGE_BEGIN
	add	esp, 16					; 00000010H

; 1176 : 		
; 1177 : 		WRITE_SHORT( fade.duration );		// fade lasts this long

	mov	eax, DWORD PTR _fade$[ebp]
	movzx	ecx, WORD PTR [eax]
	push	ecx
	call	DWORD PTR ?g_engfuncs@@3Uenginefuncs_s@@A+200
	add	esp, 4

; 1178 : 		WRITE_SHORT( fade.holdTime );		// fade lasts this long

	mov	eax, DWORD PTR _fade$[ebp]
	movzx	ecx, WORD PTR [eax+2]
	push	ecx
	call	DWORD PTR ?g_engfuncs@@3Uenginefuncs_s@@A+200
	add	esp, 4

; 1179 : 		WRITE_SHORT( fade.fadeFlags );		// fade type (in / out)

	mov	eax, DWORD PTR _fade$[ebp]
	movsx	ecx, WORD PTR [eax+4]
	push	ecx
	call	DWORD PTR ?g_engfuncs@@3Uenginefuncs_s@@A+200
	add	esp, 4

; 1180 : 		WRITE_BYTE( fade.r );				// fade red

	mov	eax, DWORD PTR _fade$[ebp]
	movzx	ecx, BYTE PTR [eax+6]
	push	ecx
	call	DWORD PTR ?g_engfuncs@@3Uenginefuncs_s@@A+192
	add	esp, 4

; 1181 : 		WRITE_BYTE( fade.g );				// fade green

	mov	eax, DWORD PTR _fade$[ebp]
	movzx	ecx, BYTE PTR [eax+7]
	push	ecx
	call	DWORD PTR ?g_engfuncs@@3Uenginefuncs_s@@A+192
	add	esp, 4

; 1182 : 		WRITE_BYTE( fade.b );				// fade blue

	mov	eax, DWORD PTR _fade$[ebp]
	movzx	ecx, BYTE PTR [eax+8]
	push	ecx
	call	DWORD PTR ?g_engfuncs@@3Uenginefuncs_s@@A+192
	add	esp, 4

; 1183 : 		WRITE_BYTE( fade.a );				// fade blue

	mov	eax, DWORD PTR _fade$[ebp]
	movzx	ecx, BYTE PTR [eax+9]
	push	ecx
	call	DWORD PTR ?g_engfuncs@@3Uenginefuncs_s@@A+192
	add	esp, 4

; 1184 : 
; 1185 : 	MESSAGE_END();

	call	DWORD PTR ?g_engfuncs@@3Uenginefuncs_s@@A+188
$LN1@UTIL_Scree:

; 1186 : }

	pop	edi
	pop	esi
	pop	ebx
	mov	esp, ebp
	pop	ebp
	ret	0
?UTIL_ScreenFadeWrite@@YAXABUScreenFade@@PAVCBaseEntity@@@Z ENDP ; UTIL_ScreenFadeWrite
_TEXT	ENDS
; Function compile flags: /Odtp /ZI
; File d:\!diffusion 2020\source code 2022\client-server\server\util.cpp
;	COMDAT ?UTIL_ScreenFadeBuild@@YAXAAUScreenFade@@ABVVector@@MMHH@Z
_TEXT	SEGMENT
_fade$ = 8						; size = 4
_color$ = 12						; size = 4
_fadeTime$ = 16						; size = 4
_fadeHold$ = 20						; size = 4
_alpha$ = 24						; size = 4
_flags$ = 28						; size = 4
?UTIL_ScreenFadeBuild@@YAXAAUScreenFade@@ABVVector@@MMHH@Z PROC ; UTIL_ScreenFadeBuild, COMDAT

; 1160 : {

	push	ebp
	mov	ebp, esp
	sub	esp, 64					; 00000040H
	push	ebx
	push	esi
	push	edi

; 1161 : 	fade.duration = FixedUnsigned16( fadeTime, 1<<12 );		// 4.12 fixed

	push	ecx
	movss	xmm0, DWORD PTR __real@45800000
	movss	DWORD PTR [esp], xmm0
	push	ecx
	movss	xmm0, DWORD PTR _fadeTime$[ebp]
	movss	DWORD PTR [esp], xmm0
	call	?FixedUnsigned16@@YAGMM@Z		; FixedUnsigned16
	add	esp, 8
	mov	ecx, DWORD PTR _fade$[ebp]
	mov	WORD PTR [ecx], ax

; 1162 : 	fade.holdTime = FixedUnsigned16( fadeHold, 1<<12 );		// 4.12 fixed

	push	ecx
	movss	xmm0, DWORD PTR __real@45800000
	movss	DWORD PTR [esp], xmm0
	push	ecx
	movss	xmm0, DWORD PTR _fadeHold$[ebp]
	movss	DWORD PTR [esp], xmm0
	call	?FixedUnsigned16@@YAGMM@Z		; FixedUnsigned16
	add	esp, 8
	mov	ecx, DWORD PTR _fade$[ebp]
	mov	WORD PTR [ecx+2], ax

; 1163 : 	fade.r = (int)color.x;

	mov	eax, DWORD PTR _color$[ebp]
	cvttss2si ecx, DWORD PTR [eax]
	mov	edx, DWORD PTR _fade$[ebp]
	mov	BYTE PTR [edx+6], cl

; 1164 : 	fade.g = (int)color.y;

	mov	eax, DWORD PTR _color$[ebp]
	cvttss2si ecx, DWORD PTR [eax+4]
	mov	edx, DWORD PTR _fade$[ebp]
	mov	BYTE PTR [edx+7], cl

; 1165 : 	fade.b = (int)color.z;

	mov	eax, DWORD PTR _color$[ebp]
	cvttss2si ecx, DWORD PTR [eax+8]
	mov	edx, DWORD PTR _fade$[ebp]
	mov	BYTE PTR [edx+8], cl

; 1166 : 	fade.a = alpha;

	mov	eax, DWORD PTR _fade$[ebp]
	mov	cl, BYTE PTR _alpha$[ebp]
	mov	BYTE PTR [eax+9], cl

; 1167 : 	fade.fadeFlags = flags;

	mov	eax, DWORD PTR _fade$[ebp]
	mov	cx, WORD PTR _flags$[ebp]
	mov	WORD PTR [eax+4], cx

; 1168 : }

	pop	edi
	pop	esi
	pop	ebx
	mov	esp, ebp
	pop	ebp
	ret	0
?UTIL_ScreenFadeBuild@@YAXAAUScreenFade@@ABVVector@@MMHH@Z ENDP ; UTIL_ScreenFadeBuild
_TEXT	ENDS
; Function compile flags: /Odtp /ZI
; File d:\!diffusion 2020\source code 2022\client-server\server\util.cpp
;	COMDAT ?FixedSigned16@@YAFMM@Z
_TEXT	SEGMENT
_output$ = -4						; size = 4
_value$ = 8						; size = 4
_scale$ = 12						; size = 4
?FixedSigned16@@YAFMM@Z PROC				; FixedSigned16, COMDAT

; 1051 : {

	push	ebp
	mov	ebp, esp
	sub	esp, 68					; 00000044H
	push	ebx
	push	esi
	push	edi

; 1052 : 	int output;
; 1053 : 
; 1054 : 	output = value * scale;

	movss	xmm0, DWORD PTR _value$[ebp]
	mulss	xmm0, DWORD PTR _scale$[ebp]
	cvttss2si eax, xmm0
	mov	DWORD PTR _output$[ebp], eax

; 1055 : 
; 1056 : 	if ( output > 32767 )

	cmp	DWORD PTR _output$[ebp], 32767		; 00007fffH
	jle	SHORT $LN2@FixedSigne

; 1057 : 		output = 32767;

	mov	DWORD PTR _output$[ebp], 32767		; 00007fffH
$LN2@FixedSigne:

; 1058 : 
; 1059 : 	if ( output < -32768 )

	cmp	DWORD PTR _output$[ebp], -32768		; ffff8000H
	jge	SHORT $LN3@FixedSigne

; 1060 : 		output = -32768;

	mov	DWORD PTR _output$[ebp], -32768		; ffff8000H
$LN3@FixedSigne:

; 1061 : 
; 1062 : 	return (short)output;

	mov	ax, WORD PTR _output$[ebp]

; 1063 : }

	pop	edi
	pop	esi
	pop	ebx
	mov	esp, ebp
	pop	ebp
	ret	0
?FixedSigned16@@YAFMM@Z ENDP				; FixedSigned16
_TEXT	ENDS
; Function compile flags: /Odtp /ZI
; File d:\!diffusion 2020\source code 2022\client-server\server\util.cpp
;	COMDAT ?FixedUnsigned16@@YAGMM@Z
_TEXT	SEGMENT
_output$ = -4						; size = 4
_value$ = 8						; size = 4
_scale$ = 12						; size = 4
?FixedUnsigned16@@YAGMM@Z PROC				; FixedUnsigned16, COMDAT

; 1038 : {

	push	ebp
	mov	ebp, esp
	sub	esp, 68					; 00000044H
	push	ebx
	push	esi
	push	edi

; 1039 : 	int output;
; 1040 : 
; 1041 : 	output = value * scale;

	movss	xmm0, DWORD PTR _value$[ebp]
	mulss	xmm0, DWORD PTR _scale$[ebp]
	cvttss2si eax, xmm0
	mov	DWORD PTR _output$[ebp], eax

; 1042 : 	if ( output < 0 )

	cmp	DWORD PTR _output$[ebp], 0
	jge	SHORT $LN2@FixedUnsig

; 1043 : 		output = 0;

	mov	DWORD PTR _output$[ebp], 0
$LN2@FixedUnsig:

; 1044 : 	if ( output > 0xFFFF )

	cmp	DWORD PTR _output$[ebp], 65535		; 0000ffffH
	jle	SHORT $LN3@FixedUnsig

; 1045 : 		output = 0xFFFF;

	mov	DWORD PTR _output$[ebp], 65535		; 0000ffffH
$LN3@FixedUnsig:

; 1046 : 
; 1047 : 	return (unsigned short)output;

	mov	ax, WORD PTR _output$[ebp]

; 1048 : }

	pop	edi
	pop	esi
	pop	ebx
	mov	esp, ebp
	pop	ebp
	ret	0
?FixedUnsigned16@@YAGMM@Z ENDP				; FixedUnsigned16
_TEXT	ENDS
; Function compile flags: /Odtp /ZI
; File d:\!diffusion 2020\source code 2022\client-server\server\util.cpp
;	COMDAT ?UTIL_MoveToOrigin@@YAXPAUedict_s@@ABVVector@@MH@Z
_TEXT	SEGMENT
_rgfl$ = -16						; size = 12
__$ArrayPad$ = -4					; size = 4
_pent$ = 8						; size = 4
_vecGoal$ = 12						; size = 4
_flDist$ = 16						; size = 4
_iMoveType$ = 20					; size = 4
?UTIL_MoveToOrigin@@YAXPAUedict_s@@ABVVector@@MH@Z PROC	; UTIL_MoveToOrigin, COMDAT

; 554  : {

	push	ebp
	mov	ebp, esp
	sub	esp, 80					; 00000050H
	mov	eax, DWORD PTR ___security_cookie
	xor	eax, ebp
	mov	DWORD PTR __$ArrayPad$[ebp], eax
	push	ebx
	push	esi
	push	edi

; 555  : 	float rgfl[3];
; 556  : 	vecGoal.CopyToArray(rgfl);

	lea	eax, DWORD PTR _rgfl$[ebp]
	push	eax
	mov	ecx, DWORD PTR _vecGoal$[ebp]
	call	?CopyToArray@Vector@@QBEXPAM@Z		; Vector::CopyToArray

; 557  : 	MOVE_TO_ORIGIN ( pent, rgfl, flDist, iMoveType ); 

	mov	eax, DWORD PTR _iMoveType$[ebp]
	push	eax
	push	ecx
	movss	xmm0, DWORD PTR _flDist$[ebp]
	movss	DWORD PTR [esp], xmm0
	lea	ecx, DWORD PTR _rgfl$[ebp]
	push	ecx
	mov	edx, DWORD PTR _pent$[ebp]
	push	edx
	call	DWORD PTR ?g_engfuncs@@3Uenginefuncs_s@@A+44
	add	esp, 16					; 00000010H

; 558  : }

	pop	edi
	pop	esi
	pop	ebx
	mov	ecx, DWORD PTR __$ArrayPad$[ebp]
	xor	ecx, ebp
	call	@__security_check_cookie@4
	mov	esp, ebp
	pop	ebp
	ret	0
?UTIL_MoveToOrigin@@YAXPAUedict_s@@ABVVector@@MH@Z ENDP	; UTIL_MoveToOrigin
_TEXT	ENDS
; Function compile flags: /Odtp /ZI
; File c:\program files (x86)\microsoft visual studio 14.0\vc\include\vadefs.h
;	COMDAT ??$__vcrt_va_start_verify_argument_type@PBD@@YAXXZ
_TEXT	SEGMENT
??$__vcrt_va_start_verify_argument_type@PBD@@YAXXZ PROC	; __vcrt_va_start_verify_argument_type<char const *>, COMDAT

; 144  :         {

	push	ebp
	mov	ebp, esp
	sub	esp, 64					; 00000040H
	push	ebx
	push	esi
	push	edi

; 145  :             static_assert(!__vcrt_va_list_is_reference<_Ty>::__the_value, "va_start argument must not have reference type and must not be parenthesized");
; 146  :         }

	pop	edi
	pop	esi
	pop	ebx
	mov	esp, ebp
	pop	ebp
	ret	0
??$__vcrt_va_start_verify_argument_type@PBD@@YAXXZ ENDP	; __vcrt_va_start_verify_argument_type<char const *>
_TEXT	ENDS
; Function compile flags: /Odtp /ZI
; File d:\!diffusion 2020\source code 2022\client-server\server\util.cpp
;	COMDAT _custom
_TEXT	SEGMENT
tv66 = -68						; size = 4
_pev$ = 8						; size = 4
_custom	PROC						; COMDAT

; 174  : {

	push	ebp
	mov	ebp, esp
	sub	esp, 68					; 00000044H
	push	ebx
	push	esi
	push	edi

; 175  : 	EntityFactoryDictionary()->Create( STRING( pev->classname ), pev );

	call	?EntityFactoryDictionary@@YAPAVIEntityFactoryDictionary@@XZ ; EntityFactoryDictionary
	mov	DWORD PTR tv66[ebp], eax
	mov	eax, DWORD PTR _pev$[ebp]
	push	eax
	mov	ecx, DWORD PTR _pev$[ebp]
	mov	edx, DWORD PTR [ecx]
	push	edx
	call	DWORD PTR ?g_engfuncs@@3Uenginefuncs_s@@A+264
	add	esp, 4
	push	eax
	mov	eax, DWORD PTR tv66[ebp]
	mov	edx, DWORD PTR [eax]
	mov	ecx, DWORD PTR tv66[ebp]
	mov	eax, DWORD PTR [edx+4]
	call	eax

; 176  : }

	pop	edi
	pop	esi
	pop	ebx
	mov	esp, ebp
	pop	ebp
	ret	0
_custom	ENDP
_TEXT	ENDS
; Function compile flags: /Odtp /ZI
;	COMDAT ??__Fs_EntityFactory@?1??EntityFactoryDictionary@@YAPAVIEntityFactoryDictionary@@XZ@YAXXZ
text$yd	SEGMENT
??__Fs_EntityFactory@?1??EntityFactoryDictionary@@YAPAVIEntityFactoryDictionary@@XZ@YAXXZ PROC ; `EntityFactoryDictionary'::`2'::`dynamic atexit destructor for 's_EntityFactory'', COMDAT
	push	ebp
	mov	ebp, esp
	sub	esp, 64					; 00000040H
	push	ebx
	push	esi
	push	edi
	mov	ecx, OFFSET ?s_EntityFactory@?1??EntityFactoryDictionary@@YAPAVIEntityFactoryDictionary@@XZ@4VCEntityFactoryDictionary@@A
	call	??1CEntityFactoryDictionary@@QAE@XZ
	pop	edi
	pop	esi
	pop	ebx
	mov	esp, ebp
	pop	ebp
	ret	0
??__Fs_EntityFactory@?1??EntityFactoryDictionary@@YAPAVIEntityFactoryDictionary@@XZ@YAXXZ ENDP ; `EntityFactoryDictionary'::`2'::`dynamic atexit destructor for 's_EntityFactory''
text$yd	ENDS
; Function compile flags: /Odtp /ZI
;	COMDAT ??1CEntityFactoryDictionary@@QAE@XZ
_TEXT	SEGMENT
_this$ = -4						; size = 4
??1CEntityFactoryDictionary@@QAE@XZ PROC		; CEntityFactoryDictionary::~CEntityFactoryDictionary, COMDAT
; _this$ = ecx
	push	ebp
	mov	ebp, esp
	sub	esp, 68					; 00000044H
	push	ebx
	push	esi
	push	edi
	mov	DWORD PTR _this$[ebp], ecx
	mov	ecx, DWORD PTR _this$[ebp]
	add	ecx, 4
	call	??1?$CUtlDict@PAVIEntityFactory@@G@@QAE@XZ ; CUtlDict<IEntityFactory *,unsigned short>::~CUtlDict<IEntityFactory *,unsigned short>
	pop	edi
	pop	esi
	pop	ebx
	mov	esp, ebp
	pop	ebp
	ret	0
??1CEntityFactoryDictionary@@QAE@XZ ENDP		; CEntityFactoryDictionary::~CEntityFactoryDictionary
_TEXT	ENDS
; Function compile flags: /Odtp /ZI
;	COMDAT ??1?$CUtlMap@PBDPAVIEntityFactory@@G@@QAE@XZ
_TEXT	SEGMENT
_this$ = -4						; size = 4
??1?$CUtlMap@PBDPAVIEntityFactory@@G@@QAE@XZ PROC	; CUtlMap<char const *,IEntityFactory *,unsigned short>::~CUtlMap<char const *,IEntityFactory *,unsigned short>, COMDAT
; _this$ = ecx
	push	ebp
	mov	ebp, esp
	sub	esp, 68					; 00000044H
	push	ebx
	push	esi
	push	edi
	mov	DWORD PTR _this$[ebp], ecx
	mov	ecx, DWORD PTR _this$[ebp]
	call	??1?$CUtlRBTree@UNode_t@?$CUtlMap@PBDPAVIEntityFactory@@G@@GVCKeyLess@2@V?$CUtlMemory@U?$UtlRBTreeNode_t@UNode_t@?$CUtlMap@PBDPAVIEntityFactory@@G@@G@@G@@@@QAE@XZ ; CUtlRBTree<CUtlMap<char const *,IEntityFactory *,unsigned short>::Node_t,unsigned short,CUtlMap<char const *,IEntityFactory *,unsigned short>::CKeyLess,CUtlMemory<UtlRBTreeNode_t<CUtlMap<char const *,IEntityFactory *,unsigned short>::Node_t,unsigned short>,unsigned short> >::~CUtlRBTree<CUtlMap<char const *,IEntityFactory *,unsigned short>::Node_t,unsigned short,CUtlMap<char const *,IEntityFactory *,unsigned short>::CKeyLess,CUtlMemory<UtlRBTreeNode_t<CUtlMap<char const *,IEntityFactory *,unsigned short>::Node_t,unsigned short>,unsigned short> >
	pop	edi
	pop	esi
	pop	ebx
	mov	esp, ebp
	pop	ebp
	ret	0
??1?$CUtlMap@PBDPAVIEntityFactory@@G@@QAE@XZ ENDP	; CUtlMap<char const *,IEntityFactory *,unsigned short>::~CUtlMap<char const *,IEntityFactory *,unsigned short>
_TEXT	ENDS
; Function compile flags: /Odtp /ZI
; File d:\!diffusion 2020\source code 2022\client-server\game_shared\utlrbtree.h
;	COMDAT ?ResetDbgInfo@?$CUtlRBTree@UNode_t@?$CUtlMap@PBDPAVIEntityFactory@@G@@GVCKeyLess@2@V?$CUtlMemory@U?$UtlRBTreeNode_t@UNode_t@?$CUtlMap@PBDPAVIEntityFactory@@G@@G@@G@@@@IAEXXZ
_TEXT	SEGMENT
_this$ = -4						; size = 4
?ResetDbgInfo@?$CUtlRBTree@UNode_t@?$CUtlMap@PBDPAVIEntityFactory@@G@@GVCKeyLess@2@V?$CUtlMemory@U?$UtlRBTreeNode_t@UNode_t@?$CUtlMap@PBDPAVIEntityFactory@@G@@G@@G@@@@IAEXXZ PROC ; CUtlRBTree<CUtlMap<char const *,IEntityFactory *,unsigned short>::Node_t,unsigned short,CUtlMap<char const *,IEntityFactory *,unsigned short>::CKeyLess,CUtlMemory<UtlRBTreeNode_t<CUtlMap<char const *,IEntityFactory *,unsigned short>::Node_t,unsigned short>,unsigned short> >::ResetDbgInfo, COMDAT
; _this$ = ecx

; 293  : 	{

	push	ebp
	mov	ebp, esp
	sub	esp, 68					; 00000044H
	push	ebx
	push	esi
	push	edi
	mov	DWORD PTR _this$[ebp], ecx

; 294  : 		m_pElements = (Node_t*)m_Elements.Base();

	mov	ecx, DWORD PTR _this$[ebp]
	add	ecx, 4
	call	?Base@?$CUtlMemory@U?$UtlRBTreeNode_t@UNode_t@?$CUtlMap@PBDPAVIEntityFactory@@G@@G@@G@@QAEPAU?$UtlRBTreeNode_t@UNode_t@?$CUtlMap@PBDPAVIEntityFactory@@G@@G@@XZ ; CUtlMemory<UtlRBTreeNode_t<CUtlMap<char const *,IEntityFactory *,unsigned short>::Node_t,unsigned short>,unsigned short>::Base
	mov	ecx, DWORD PTR _this$[ebp]
	mov	DWORD PTR [ecx+24], eax

; 295  : 	}

	pop	edi
	pop	esi
	pop	ebx
	mov	esp, ebp
	pop	ebp
	ret	0
?ResetDbgInfo@?$CUtlRBTree@UNode_t@?$CUtlMap@PBDPAVIEntityFactory@@G@@GVCKeyLess@2@V?$CUtlMemory@U?$UtlRBTreeNode_t@UNode_t@?$CUtlMap@PBDPAVIEntityFactory@@G@@G@@G@@@@IAEXXZ ENDP ; CUtlRBTree<CUtlMap<char const *,IEntityFactory *,unsigned short>::Node_t,unsigned short,CUtlMap<char const *,IEntityFactory *,unsigned short>::CKeyLess,CUtlMemory<UtlRBTreeNode_t<CUtlMap<char const *,IEntityFactory *,unsigned short>::Node_t,unsigned short>,unsigned short> >::ResetDbgInfo
_TEXT	ENDS
; Function compile flags: /Odtp /ZI
; File d:\!diffusion 2020\source code 2022\client-server\game_shared\utlmemory.h
;	COMDAT ??9Iterator_t@?$CUtlMemory@U?$UtlRBTreeNode_t@UNode_t@?$CUtlMap@PBDPAVIEntityFactory@@G@@G@@G@@QBE_NV01@@Z
_TEXT	SEGMENT
tv68 = -72						; size = 4
_this$ = -4						; size = 4
_it$ = 8						; size = 2
??9Iterator_t@?$CUtlMemory@U?$UtlRBTreeNode_t@UNode_t@?$CUtlMap@PBDPAVIEntityFactory@@G@@G@@G@@QBE_NV01@@Z PROC ; CUtlMemory<UtlRBTreeNode_t<CUtlMap<char const *,IEntityFactory *,unsigned short>::Node_t,unsigned short>,unsigned short>::Iterator_t::operator!=, COMDAT
; _this$ = ecx

; 86   : 		bool operator!=( const Iterator_t it ) const	{ return index != it.index; }

	push	ebp
	mov	ebp, esp
	sub	esp, 72					; 00000048H
	push	ebx
	push	esi
	push	edi
	mov	DWORD PTR _this$[ebp], ecx
	mov	eax, DWORD PTR _this$[ebp]
	movzx	ecx, WORD PTR [eax]
	movzx	edx, WORD PTR _it$[ebp]
	cmp	ecx, edx
	je	SHORT $LN3@operator
	mov	DWORD PTR tv68[ebp], 1
	jmp	SHORT $LN4@operator
$LN3@operator:
	mov	DWORD PTR tv68[ebp], 0
$LN4@operator:
	mov	al, BYTE PTR tv68[ebp]
	pop	edi
	pop	esi
	pop	ebx
	mov	esp, ebp
	pop	ebp
	ret	4
??9Iterator_t@?$CUtlMemory@U?$UtlRBTreeNode_t@UNode_t@?$CUtlMap@PBDPAVIEntityFactory@@G@@G@@G@@QBE_NV01@@Z ENDP ; CUtlMemory<UtlRBTreeNode_t<CUtlMap<char const *,IEntityFactory *,unsigned short>::Node_t,unsigned short>,unsigned short>::Iterator_t::operator!=
_TEXT	ENDS
; Function compile flags: /Odtp /ZI
; File d:\!diffusion 2020\source code 2022\client-server\game_shared\utlmemory.h
;	COMDAT ??8Iterator_t@?$CUtlMemory@U?$UtlRBTreeNode_t@UNode_t@?$CUtlMap@PBDPAVIEntityFactory@@G@@G@@G@@QBE_NV01@@Z
_TEXT	SEGMENT
tv68 = -72						; size = 4
_this$ = -4						; size = 4
_it$ = 8						; size = 2
??8Iterator_t@?$CUtlMemory@U?$UtlRBTreeNode_t@UNode_t@?$CUtlMap@PBDPAVIEntityFactory@@G@@G@@G@@QBE_NV01@@Z PROC ; CUtlMemory<UtlRBTreeNode_t<CUtlMap<char const *,IEntityFactory *,unsigned short>::Node_t,unsigned short>,unsigned short>::Iterator_t::operator==, COMDAT
; _this$ = ecx

; 85   : 		bool operator==( const Iterator_t it ) const	{ return index == it.index; }

	push	ebp
	mov	ebp, esp
	sub	esp, 72					; 00000048H
	push	ebx
	push	esi
	push	edi
	mov	DWORD PTR _this$[ebp], ecx
	mov	eax, DWORD PTR _this$[ebp]
	movzx	ecx, WORD PTR [eax]
	movzx	edx, WORD PTR _it$[ebp]
	cmp	ecx, edx
	jne	SHORT $LN3@operator
	mov	DWORD PTR tv68[ebp], 1
	jmp	SHORT $LN4@operator
$LN3@operator:
	mov	DWORD PTR tv68[ebp], 0
$LN4@operator:
	mov	al, BYTE PTR tv68[ebp]
	pop	edi
	pop	esi
	pop	ebx
	mov	esp, ebp
	pop	ebp
	ret	4
??8Iterator_t@?$CUtlMemory@U?$UtlRBTreeNode_t@UNode_t@?$CUtlMap@PBDPAVIEntityFactory@@G@@G@@G@@QBE_NV01@@Z ENDP ; CUtlMemory<UtlRBTreeNode_t<CUtlMap<char const *,IEntityFactory *,unsigned short>::Node_t,unsigned short>,unsigned short>::Iterator_t::operator==
_TEXT	ENDS
; Function compile flags: /Odtp /ZI
; File d:\!diffusion 2020\source code 2022\client-server\game_shared\utlmemory.h
;	COMDAT ??0Iterator_t@?$CUtlMemory@U?$UtlRBTreeNode_t@UNode_t@?$CUtlMap@PBDPAVIEntityFactory@@G@@G@@G@@QAE@G@Z
_TEXT	SEGMENT
_this$ = -4						; size = 4
_i$ = 8							; size = 2
??0Iterator_t@?$CUtlMemory@U?$UtlRBTreeNode_t@UNode_t@?$CUtlMap@PBDPAVIEntityFactory@@G@@G@@G@@QAE@G@Z PROC ; CUtlMemory<UtlRBTreeNode_t<CUtlMap<char const *,IEntityFactory *,unsigned short>::Node_t,unsigned short>,unsigned short>::Iterator_t::Iterator_t, COMDAT
; _this$ = ecx

; 82   : 		Iterator_t( I i ) : index( i ) {}

	push	ebp
	mov	ebp, esp
	sub	esp, 68					; 00000044H
	push	ebx
	push	esi
	push	edi
	mov	DWORD PTR _this$[ebp], ecx
	mov	eax, DWORD PTR _this$[ebp]
	mov	cx, WORD PTR _i$[ebp]
	mov	WORD PTR [eax], cx
	mov	eax, DWORD PTR _this$[ebp]
	pop	edi
	pop	esi
	pop	ebx
	mov	esp, ebp
	pop	ebp
	ret	4
??0Iterator_t@?$CUtlMemory@U?$UtlRBTreeNode_t@UNode_t@?$CUtlMap@PBDPAVIEntityFactory@@G@@G@@G@@QAE@G@Z ENDP ; CUtlMemory<UtlRBTreeNode_t<CUtlMap<char const *,IEntityFactory *,unsigned short>::Node_t,unsigned short>,unsigned short>::Iterator_t::Iterator_t
_TEXT	ENDS
; Function compile flags: /Odtp /ZI
; File d:\!diffusion 2020\source code 2022\client-server\game_shared\utlmemory.h
;	COMDAT ?ValidateGrowSize@?$CUtlMemory@U?$UtlRBTreeNode_t@UNode_t@?$CUtlMap@PBDPAVIEntityFactory@@G@@G@@G@@IAEXXZ
_TEXT	SEGMENT
_this$ = -4						; size = 4
?ValidateGrowSize@?$CUtlMemory@U?$UtlRBTreeNode_t@UNode_t@?$CUtlMap@PBDPAVIEntityFactory@@G@@G@@G@@IAEXXZ PROC ; CUtlMemory<UtlRBTreeNode_t<CUtlMap<char const *,IEntityFactory *,unsigned short>::Node_t,unsigned short>,unsigned short>::ValidateGrowSize, COMDAT
; _this$ = ecx

; 148  : 	{

	push	ebp
	mov	ebp, esp
	sub	esp, 68					; 00000044H
	push	ebx
	push	esi
	push	edi
	mov	DWORD PTR _this$[ebp], ecx

; 149  : #ifdef _X360
; 150  : 		if ( m_nGrowSize && m_nGrowSize != EXTERNAL_BUFFER_MARKER )
; 151  : 		{
; 152  : 			// Max grow size at 128 bytes on XBOX
; 153  : 			const int MAX_GROW = 128;
; 154  : 			if ( m_nGrowSize * sizeof(T) > MAX_GROW )
; 155  : 			{
; 156  : 				m_nGrowSize = max( 1, MAX_GROW / sizeof(T) );
; 157  : 			}
; 158  : 		}
; 159  : #endif
; 160  : 	}

	pop	edi
	pop	esi
	pop	ebx
	mov	esp, ebp
	pop	ebp
	ret	0
?ValidateGrowSize@?$CUtlMemory@U?$UtlRBTreeNode_t@UNode_t@?$CUtlMap@PBDPAVIEntityFactory@@G@@G@@G@@IAEXXZ ENDP ; CUtlMemory<UtlRBTreeNode_t<CUtlMap<char const *,IEntityFactory *,unsigned short>::Node_t,unsigned short>,unsigned short>::ValidateGrowSize
_TEXT	ENDS
; Function compile flags: /Odtp /ZI
; File d:\!diffusion 2020\source code 2022\client-server\game_shared\utlmemory.h
;	COMDAT ?IsReadOnly@?$CUtlMemory@U?$UtlRBTreeNode_t@UNode_t@?$CUtlMap@PBDPAVIEntityFactory@@G@@G@@G@@QBE_NXZ
_TEXT	SEGMENT
tv66 = -72						; size = 4
_this$ = -4						; size = 4
?IsReadOnly@?$CUtlMemory@U?$UtlRBTreeNode_t@UNode_t@?$CUtlMap@PBDPAVIEntityFactory@@G@@G@@G@@QBE_NXZ PROC ; CUtlMemory<UtlRBTreeNode_t<CUtlMap<char const *,IEntityFactory *,unsigned short>::Node_t,unsigned short>,unsigned short>::IsReadOnly, COMDAT
; _this$ = ecx

; 467  : {

	push	ebp
	mov	ebp, esp
	sub	esp, 72					; 00000048H
	push	ebx
	push	esi
	push	edi
	mov	DWORD PTR _this$[ebp], ecx

; 468  : 	return (m_nGrowSize == EXTERNAL_CONST_BUFFER_MARKER);

	mov	eax, DWORD PTR _this$[ebp]
	cmp	DWORD PTR [eax+8], -2			; fffffffeH
	jne	SHORT $LN3@IsReadOnly
	mov	DWORD PTR tv66[ebp], 1
	jmp	SHORT $LN4@IsReadOnly
$LN3@IsReadOnly:
	mov	DWORD PTR tv66[ebp], 0
$LN4@IsReadOnly:
	mov	al, BYTE PTR tv66[ebp]

; 469  : }

	pop	edi
	pop	esi
	pop	ebx
	mov	esp, ebp
	pop	ebp
	ret	0
?IsReadOnly@?$CUtlMemory@U?$UtlRBTreeNode_t@UNode_t@?$CUtlMap@PBDPAVIEntityFactory@@G@@G@@G@@QBE_NXZ ENDP ; CUtlMemory<UtlRBTreeNode_t<CUtlMap<char const *,IEntityFactory *,unsigned short>::Node_t,unsigned short>,unsigned short>::IsReadOnly
_TEXT	ENDS
; Function compile flags: /Odtp /ZI
; File d:\!diffusion 2020\source code 2022\client-server\game_shared\utlmemory.h
;	COMDAT ?IsExternallyAllocated@?$CUtlMemory@U?$UtlRBTreeNode_t@UNode_t@?$CUtlMap@PBDPAVIEntityFactory@@G@@G@@G@@QBE_NXZ
_TEXT	SEGMENT
tv66 = -72						; size = 4
_this$ = -4						; size = 4
?IsExternallyAllocated@?$CUtlMemory@U?$UtlRBTreeNode_t@UNode_t@?$CUtlMap@PBDPAVIEntityFactory@@G@@G@@G@@QBE_NXZ PROC ; CUtlMemory<UtlRBTreeNode_t<CUtlMap<char const *,IEntityFactory *,unsigned short>::Node_t,unsigned short>,unsigned short>::IsExternallyAllocated, COMDAT
; _this$ = ecx

; 457  : {

	push	ebp
	mov	ebp, esp
	sub	esp, 72					; 00000048H
	push	ebx
	push	esi
	push	edi
	mov	DWORD PTR _this$[ebp], ecx

; 458  : 	return (m_nGrowSize < 0);

	mov	eax, DWORD PTR _this$[ebp]
	cmp	DWORD PTR [eax+8], 0
	jge	SHORT $LN3@IsExternal
	mov	DWORD PTR tv66[ebp], 1
	jmp	SHORT $LN4@IsExternal
$LN3@IsExternal:
	mov	DWORD PTR tv66[ebp], 0
$LN4@IsExternal:
	mov	al, BYTE PTR tv66[ebp]

; 459  : }

	pop	edi
	pop	esi
	pop	ebx
	mov	esp, ebp
	pop	ebp
	ret	0
?IsExternallyAllocated@?$CUtlMemory@U?$UtlRBTreeNode_t@UNode_t@?$CUtlMap@PBDPAVIEntityFactory@@G@@G@@G@@QBE_NXZ ENDP ; CUtlMemory<UtlRBTreeNode_t<CUtlMap<char const *,IEntityFactory *,unsigned short>::Node_t,unsigned short>,unsigned short>::IsExternallyAllocated
_TEXT	ENDS
; Function compile flags: /Odtp /ZI
; File d:\!diffusion 2020\source code 2022\client-server\game_shared\utlmemory.h
;	COMDAT ?Purge@?$CUtlMemory@U?$UtlRBTreeNode_t@UNode_t@?$CUtlMap@PBDPAVIEntityFactory@@G@@G@@G@@QAEXXZ
_TEXT	SEGMENT
_this$ = -4						; size = 4
?Purge@?$CUtlMemory@U?$UtlRBTreeNode_t@UNode_t@?$CUtlMap@PBDPAVIEntityFactory@@G@@G@@G@@QAEXXZ PROC ; CUtlMemory<UtlRBTreeNode_t<CUtlMap<char const *,IEntityFactory *,unsigned short>::Node_t,unsigned short>,unsigned short>::Purge, COMDAT
; _this$ = ecx

; 645  : {

	push	ebp
	mov	ebp, esp
	sub	esp, 68					; 00000044H
	push	ebx
	push	esi
	push	edi
	mov	DWORD PTR _this$[ebp], ecx

; 646  : 	if ( !IsExternallyAllocated() )

	mov	ecx, DWORD PTR _this$[ebp]
	call	?IsExternallyAllocated@?$CUtlMemory@U?$UtlRBTreeNode_t@UNode_t@?$CUtlMap@PBDPAVIEntityFactory@@G@@G@@G@@QBE_NXZ ; CUtlMemory<UtlRBTreeNode_t<CUtlMap<char const *,IEntityFactory *,unsigned short>::Node_t,unsigned short>,unsigned short>::IsExternallyAllocated
	movzx	eax, al
	test	eax, eax
	jne	SHORT $LN1@Purge

; 647  : 	{
; 648  : 		if (m_pMemory)

	mov	eax, DWORD PTR _this$[ebp]
	cmp	DWORD PTR [eax], 0
	je	SHORT $LN3@Purge

; 649  : 		{
; 650  : 			free( (void*)m_pMemory );

	mov	eax, DWORD PTR _this$[ebp]
	mov	ecx, DWORD PTR [eax]
	push	ecx
	call	_free
	add	esp, 4

; 651  : 			m_pMemory = 0;

	mov	eax, DWORD PTR _this$[ebp]
	mov	DWORD PTR [eax], 0
$LN3@Purge:

; 652  : 		}
; 653  : 		m_nAllocationCount = 0;

	mov	eax, DWORD PTR _this$[ebp]
	mov	DWORD PTR [eax+4], 0
$LN1@Purge:

; 654  : 	}
; 655  : }

	pop	edi
	pop	esi
	pop	ebx
	mov	esp, ebp
	pop	ebp
	ret	0
?Purge@?$CUtlMemory@U?$UtlRBTreeNode_t@UNode_t@?$CUtlMap@PBDPAVIEntityFactory@@G@@G@@G@@QAEXXZ ENDP ; CUtlMemory<UtlRBTreeNode_t<CUtlMap<char const *,IEntityFactory *,unsigned short>::Node_t,unsigned short>,unsigned short>::Purge
_TEXT	ENDS
; Function compile flags: /Odtp /ZI
; File d:\!diffusion 2020\source code 2022\client-server\game_shared\utlmemory.h
;	COMDAT ?Grow@?$CUtlMemory@U?$UtlRBTreeNode_t@UNode_t@?$CUtlMap@PBDPAVIEntityFactory@@G@@G@@G@@QAEXH@Z
_TEXT	SEGMENT
_nAllocationRequested$ = -8				; size = 4
_this$ = -4						; size = 4
_num$ = 8						; size = 4
?Grow@?$CUtlMemory@U?$UtlRBTreeNode_t@UNode_t@?$CUtlMap@PBDPAVIEntityFactory@@G@@G@@G@@QAEXH@Z PROC ; CUtlMemory<UtlRBTreeNode_t<CUtlMap<char const *,IEntityFactory *,unsigned short>::Node_t,unsigned short>,unsigned short>::Grow, COMDAT
; _this$ = ecx

; 560  : {

	push	ebp
	mov	ebp, esp
	sub	esp, 72					; 00000048H
	push	ebx
	push	esi
	push	edi
	mov	DWORD PTR _this$[ebp], ecx

; 561  : 	assert( num > 0 );

	cmp	DWORD PTR _num$[ebp], 0
	jg	SHORT $LN12@Grow
	push	561					; 00000231H
	push	OFFSET ??_C@_1JE@CIIIAKCN@?$AAd?$AA?3?$AA?2?$AA?$CB?$AAd?$AAi?$AAf?$AAf?$AAu?$AAs?$AAi?$AAo?$AAn?$AA?5?$AA2?$AA0?$AA2?$AA0?$AA?2?$AAs?$AAo?$AAu?$AAr?$AAc?$AAe?$AA?5?$AAc?$AAo?$AAd?$AAe?$AA?5?$AA2@
	push	OFFSET ??_C@_1BA@PKCLMAEA@?$AAn?$AAu?$AAm?$AA?5?$AA?$DO?$AA?5?$AA0?$AA?$AA@
	call	__wassert
	add	esp, 12					; 0000000cH
$LN12@Grow:

; 562  : 
; 563  : 	if ( IsExternallyAllocated() )

	mov	ecx, DWORD PTR _this$[ebp]
	call	?IsExternallyAllocated@?$CUtlMemory@U?$UtlRBTreeNode_t@UNode_t@?$CUtlMap@PBDPAVIEntityFactory@@G@@G@@G@@QBE_NXZ ; CUtlMemory<UtlRBTreeNode_t<CUtlMap<char const *,IEntityFactory *,unsigned short>::Node_t,unsigned short>,unsigned short>::IsExternallyAllocated
	movzx	eax, al
	test	eax, eax
	je	SHORT $LN4@Grow

; 564  : 	{
; 565  : 		// Can't grow a buffer whose memory was externally allocated 
; 566  : 		assert(0);

	xor	eax, eax
	jne	SHORT $LN13@Grow
	push	566					; 00000236H
	push	OFFSET ??_C@_1JE@CIIIAKCN@?$AAd?$AA?3?$AA?2?$AA?$CB?$AAd?$AAi?$AAf?$AAf?$AAu?$AAs?$AAi?$AAo?$AAn?$AA?5?$AA2?$AA0?$AA2?$AA0?$AA?2?$AAs?$AAo?$AAu?$AAr?$AAc?$AAe?$AA?5?$AAc?$AAo?$AAd?$AAe?$AA?5?$AA2@
	push	OFFSET ??_C@_13COJANIEC@?$AA0?$AA?$AA@
	call	__wassert
	add	esp, 12					; 0000000cH
$LN13@Grow:

; 567  : 		return;

	jmp	$LN1@Grow
$LN4@Grow:

; 568  : 	}
; 569  : 
; 570  : 	// Make sure we have at least numallocated + num allocations.
; 571  : 	// Use the grow rules specified for this memory (in m_nGrowSize)
; 572  : 	int nAllocationRequested = m_nAllocationCount + num;

	mov	eax, DWORD PTR _this$[ebp]
	mov	ecx, DWORD PTR [eax+4]
	add	ecx, DWORD PTR _num$[ebp]
	mov	DWORD PTR _nAllocationRequested$[ebp], ecx

; 573  : 
; 574  : 	m_nAllocationCount = UtlMemory_CalcNewAllocationCount( m_nAllocationCount, m_nGrowSize, nAllocationRequested, sizeof(T) );

	push	16					; 00000010H
	mov	eax, DWORD PTR _nAllocationRequested$[ebp]
	push	eax
	mov	ecx, DWORD PTR _this$[ebp]
	mov	edx, DWORD PTR [ecx+8]
	push	edx
	mov	eax, DWORD PTR _this$[ebp]
	mov	ecx, DWORD PTR [eax+4]
	push	ecx
	call	?UtlMemory_CalcNewAllocationCount@@YAHHHHH@Z ; UtlMemory_CalcNewAllocationCount
	add	esp, 16					; 00000010H
	mov	edx, DWORD PTR _this$[ebp]
	mov	DWORD PTR [edx+4], eax

; 575  : 
; 576  : 	// if m_nAllocationRequested wraps index type I, recalculate
; 577  : 	if ( ( int )( I )m_nAllocationCount < nAllocationRequested )

	mov	eax, DWORD PTR _this$[ebp]
	movzx	ecx, WORD PTR [eax+4]
	cmp	ecx, DWORD PTR _nAllocationRequested$[ebp]
	jge	SHORT $LN5@Grow

; 578  : 	{
; 579  : 		if ( ( int )( I )m_nAllocationCount == 0 && ( int )( I )( m_nAllocationCount - 1 ) >= nAllocationRequested )

	mov	eax, DWORD PTR _this$[ebp]
	movzx	ecx, WORD PTR [eax+4]
	test	ecx, ecx
	jne	SHORT $LN6@Grow
	mov	eax, DWORD PTR _this$[ebp]
	mov	ecx, DWORD PTR [eax+4]
	sub	ecx, 1
	movzx	edx, cx
	cmp	edx, DWORD PTR _nAllocationRequested$[ebp]
	jl	SHORT $LN6@Grow

; 580  : 		{
; 581  : 			--m_nAllocationCount; // deal w/ the common case of m_nAllocationCount == MAX_USHORT + 1

	mov	eax, DWORD PTR _this$[ebp]
	mov	ecx, DWORD PTR [eax+4]
	sub	ecx, 1
	mov	edx, DWORD PTR _this$[ebp]
	mov	DWORD PTR [edx+4], ecx

; 582  : 		}
; 583  : 		else

	jmp	SHORT $LN5@Grow
$LN6@Grow:

; 584  : 		{
; 585  : 			if ( ( int )( I )nAllocationRequested != nAllocationRequested )

	movzx	eax, WORD PTR _nAllocationRequested$[ebp]
	cmp	eax, DWORD PTR _nAllocationRequested$[ebp]
	je	SHORT $LN2@Grow

; 586  : 			{
; 587  : 				// we've been asked to grow memory to a size s.t. the index type can't address the requested amount of memory
; 588  : 				assert( 0 );

	xor	eax, eax
	jne	SHORT $LN14@Grow
	push	588					; 0000024cH
	push	OFFSET ??_C@_1JE@CIIIAKCN@?$AAd?$AA?3?$AA?2?$AA?$CB?$AAd?$AAi?$AAf?$AAf?$AAu?$AAs?$AAi?$AAo?$AAn?$AA?5?$AA2?$AA0?$AA2?$AA0?$AA?2?$AAs?$AAo?$AAu?$AAr?$AAc?$AAe?$AA?5?$AAc?$AAo?$AAd?$AAe?$AA?5?$AA2@
	push	OFFSET ??_C@_13COJANIEC@?$AA0?$AA?$AA@
	call	__wassert
	add	esp, 12					; 0000000cH
$LN14@Grow:

; 589  : 				return;

	jmp	$LN1@Grow
$LN2@Grow:

; 590  : 			}
; 591  : 			while ( ( int )( I )m_nAllocationCount < nAllocationRequested )

	mov	eax, DWORD PTR _this$[ebp]
	movzx	ecx, WORD PTR [eax+4]
	cmp	ecx, DWORD PTR _nAllocationRequested$[ebp]
	jge	SHORT $LN5@Grow

; 592  : 			{
; 593  : 				m_nAllocationCount = ( m_nAllocationCount + nAllocationRequested ) / 2;

	mov	eax, DWORD PTR _this$[ebp]
	mov	eax, DWORD PTR [eax+4]
	add	eax, DWORD PTR _nAllocationRequested$[ebp]
	cdq
	sub	eax, edx
	sar	eax, 1
	mov	ecx, DWORD PTR _this$[ebp]
	mov	DWORD PTR [ecx+4], eax

; 594  : 			}

	jmp	SHORT $LN2@Grow
$LN5@Grow:

; 595  : 		}
; 596  : 	}
; 597  : 
; 598  : 	if (m_pMemory)

	mov	eax, DWORD PTR _this$[ebp]
	cmp	DWORD PTR [eax], 0
	je	SHORT $LN9@Grow

; 599  : 	{
; 600  : 		m_pMemory = (T*)realloc( m_pMemory, m_nAllocationCount * sizeof(T) );

	mov	eax, DWORD PTR _this$[ebp]
	mov	ecx, DWORD PTR [eax+4]
	shl	ecx, 4
	push	ecx
	mov	edx, DWORD PTR _this$[ebp]
	mov	eax, DWORD PTR [edx]
	push	eax
	call	_realloc
	add	esp, 8
	mov	ecx, DWORD PTR _this$[ebp]
	mov	DWORD PTR [ecx], eax

; 601  : 		assert( m_pMemory );

	mov	eax, DWORD PTR _this$[ebp]
	cmp	DWORD PTR [eax], 0
	jne	SHORT $LN15@Grow
	push	601					; 00000259H
	push	OFFSET ??_C@_1JE@CIIIAKCN@?$AAd?$AA?3?$AA?2?$AA?$CB?$AAd?$AAi?$AAf?$AAf?$AAu?$AAs?$AAi?$AAo?$AAn?$AA?5?$AA2?$AA0?$AA2?$AA0?$AA?2?$AAs?$AAo?$AAu?$AAr?$AAc?$AAe?$AA?5?$AAc?$AAo?$AAd?$AAe?$AA?5?$AA2@
	push	OFFSET ??_C@_1BE@OPPFELHC@?$AAm?$AA_?$AAp?$AAM?$AAe?$AAm?$AAo?$AAr?$AAy?$AA?$AA@
	call	__wassert
	add	esp, 12					; 0000000cH
$LN15@Grow:

; 602  : 	}
; 603  : 	else

	jmp	SHORT $LN1@Grow
$LN9@Grow:

; 604  : 	{
; 605  : 		m_pMemory = (T*)malloc( m_nAllocationCount * sizeof(T) );

	mov	eax, DWORD PTR _this$[ebp]
	mov	ecx, DWORD PTR [eax+4]
	shl	ecx, 4
	push	ecx
	call	_malloc
	add	esp, 4
	mov	edx, DWORD PTR _this$[ebp]
	mov	DWORD PTR [edx], eax

; 606  : 		assert( m_pMemory );

	mov	eax, DWORD PTR _this$[ebp]
	cmp	DWORD PTR [eax], 0
	jne	SHORT $LN1@Grow
	push	606					; 0000025eH
	push	OFFSET ??_C@_1JE@CIIIAKCN@?$AAd?$AA?3?$AA?2?$AA?$CB?$AAd?$AAi?$AAf?$AAf?$AAu?$AAs?$AAi?$AAo?$AAn?$AA?5?$AA2?$AA0?$AA2?$AA0?$AA?2?$AAs?$AAo?$AAu?$AAr?$AAc?$AAe?$AA?5?$AAc?$AAo?$AAd?$AAe?$AA?5?$AA2@
	push	OFFSET ??_C@_1BE@OPPFELHC@?$AAm?$AA_?$AAp?$AAM?$AAe?$AAm?$AAo?$AAr?$AAy?$AA?$AA@
	call	__wassert
	add	esp, 12					; 0000000cH
$LN1@Grow:

; 607  : 	}
; 608  : }

	pop	edi
	pop	esi
	pop	ebx
	mov	esp, ebp
	pop	ebp
	ret	4
?Grow@?$CUtlMemory@U?$UtlRBTreeNode_t@UNode_t@?$CUtlMap@PBDPAVIEntityFactory@@G@@G@@G@@QAEXH@Z ENDP ; CUtlMemory<UtlRBTreeNode_t<CUtlMap<char const *,IEntityFactory *,unsigned short>::Node_t,unsigned short>,unsigned short>::Grow
_TEXT	ENDS
; Function compile flags: /Odtp /ZI
; File d:\!diffusion 2020\source code 2022\client-server\game_shared\utlmemory.h
;	COMDAT ?Base@?$CUtlMemory@U?$UtlRBTreeNode_t@UNode_t@?$CUtlMap@PBDPAVIEntityFactory@@G@@G@@G@@QAEPAU?$UtlRBTreeNode_t@UNode_t@?$CUtlMap@PBDPAVIEntityFactory@@G@@G@@XZ
_TEXT	SEGMENT
_this$ = -4						; size = 4
?Base@?$CUtlMemory@U?$UtlRBTreeNode_t@UNode_t@?$CUtlMap@PBDPAVIEntityFactory@@G@@G@@G@@QAEPAU?$UtlRBTreeNode_t@UNode_t@?$CUtlMap@PBDPAVIEntityFactory@@G@@G@@XZ PROC ; CUtlMemory<UtlRBTreeNode_t<CUtlMap<char const *,IEntityFactory *,unsigned short>::Node_t,unsigned short>,unsigned short>::Base, COMDAT
; _this$ = ecx

; 487  : {

	push	ebp
	mov	ebp, esp
	sub	esp, 68					; 00000044H
	push	ebx
	push	esi
	push	edi
	mov	DWORD PTR _this$[ebp], ecx

; 488  : 	assert( !IsReadOnly() );

	mov	ecx, DWORD PTR _this$[ebp]
	call	?IsReadOnly@?$CUtlMemory@U?$UtlRBTreeNode_t@UNode_t@?$CUtlMap@PBDPAVIEntityFactory@@G@@G@@G@@QBE_NXZ ; CUtlMemory<UtlRBTreeNode_t<CUtlMap<char const *,IEntityFactory *,unsigned short>::Node_t,unsigned short>,unsigned short>::IsReadOnly
	movzx	eax, al
	test	eax, eax
	je	SHORT $LN3@Base
	push	488					; 000001e8H
	push	OFFSET ??_C@_1JE@CIIIAKCN@?$AAd?$AA?3?$AA?2?$AA?$CB?$AAd?$AAi?$AAf?$AAf?$AAu?$AAs?$AAi?$AAo?$AAn?$AA?5?$AA2?$AA0?$AA2?$AA0?$AA?2?$AAs?$AAo?$AAu?$AAr?$AAc?$AAe?$AA?5?$AAc?$AAo?$AAd?$AAe?$AA?5?$AA2@
	push	OFFSET ??_C@_1BM@PFNFCCHH@?$AA?$CB?$AAI?$AAs?$AAR?$AAe?$AAa?$AAd?$AAO?$AAn?$AAl?$AAy?$AA?$CI?$AA?$CJ?$AA?$AA@
	call	__wassert
	add	esp, 12					; 0000000cH
$LN3@Base:

; 489  : 	return m_pMemory;

	mov	eax, DWORD PTR _this$[ebp]
	mov	eax, DWORD PTR [eax]

; 490  : }

	pop	edi
	pop	esi
	pop	ebx
	mov	esp, ebp
	pop	ebp
	ret	0
?Base@?$CUtlMemory@U?$UtlRBTreeNode_t@UNode_t@?$CUtlMap@PBDPAVIEntityFactory@@G@@G@@G@@QAEPAU?$UtlRBTreeNode_t@UNode_t@?$CUtlMap@PBDPAVIEntityFactory@@G@@G@@XZ ENDP ; CUtlMemory<UtlRBTreeNode_t<CUtlMap<char const *,IEntityFactory *,unsigned short>::Node_t,unsigned short>,unsigned short>::Base
_TEXT	ENDS
; Function compile flags: /Odtp /ZI
; File d:\!diffusion 2020\source code 2022\client-server\game_shared\utlmemory.h
;	COMDAT ?InvalidIndex@?$CUtlMemory@U?$UtlRBTreeNode_t@UNode_t@?$CUtlMap@PBDPAVIEntityFactory@@G@@G@@G@@SAGXZ
_TEXT	SEGMENT
?InvalidIndex@?$CUtlMemory@U?$UtlRBTreeNode_t@UNode_t@?$CUtlMap@PBDPAVIEntityFactory@@G@@G@@G@@SAGXZ PROC ; CUtlMemory<UtlRBTreeNode_t<CUtlMap<char const *,IEntityFactory *,unsigned short>::Node_t,unsigned short>,unsigned short>::InvalidIndex, COMDAT

; 103  : 	static I InvalidIndex() { return ( I )-1; }

	push	ebp
	mov	ebp, esp
	sub	esp, 64					; 00000040H
	push	ebx
	push	esi
	push	edi
	mov	eax, 65535				; 0000ffffH
	pop	edi
	pop	esi
	pop	ebx
	mov	esp, ebp
	pop	ebp
	ret	0
?InvalidIndex@?$CUtlMemory@U?$UtlRBTreeNode_t@UNode_t@?$CUtlMap@PBDPAVIEntityFactory@@G@@G@@G@@SAGXZ ENDP ; CUtlMemory<UtlRBTreeNode_t<CUtlMap<char const *,IEntityFactory *,unsigned short>::Node_t,unsigned short>,unsigned short>::InvalidIndex
_TEXT	ENDS
; Function compile flags: /Odtp /ZI
; File d:\!diffusion 2020\source code 2022\client-server\game_shared\utlmemory.h
;	COMDAT ?IsIdxValid@?$CUtlMemory@U?$UtlRBTreeNode_t@UNode_t@?$CUtlMap@PBDPAVIEntityFactory@@G@@G@@G@@QBE_NG@Z
_TEXT	SEGMENT
tv69 = -72						; size = 4
_this$ = -4						; size = 4
_i$ = 8							; size = 2
?IsIdxValid@?$CUtlMemory@U?$UtlRBTreeNode_t@UNode_t@?$CUtlMap@PBDPAVIEntityFactory@@G@@G@@G@@QBE_NG@Z PROC ; CUtlMemory<UtlRBTreeNode_t<CUtlMap<char const *,IEntityFactory *,unsigned short>::Node_t,unsigned short>,unsigned short>::IsIdxValid, COMDAT
; _this$ = ecx

; 520  : {

	push	ebp
	mov	ebp, esp
	sub	esp, 72					; 00000048H
	push	ebx
	push	esi
	push	edi
	mov	DWORD PTR _this$[ebp], ecx

; 521  : 	return ( ((int) i) >= 0 ) && ( ((int) i) < m_nAllocationCount );

	movzx	eax, WORD PTR _i$[ebp]
	test	eax, eax
	jl	SHORT $LN3@IsIdxValid
	movzx	ecx, WORD PTR _i$[ebp]
	mov	edx, DWORD PTR _this$[ebp]
	cmp	ecx, DWORD PTR [edx+4]
	jge	SHORT $LN3@IsIdxValid
	mov	DWORD PTR tv69[ebp], 1
	jmp	SHORT $LN4@IsIdxValid
$LN3@IsIdxValid:
	mov	DWORD PTR tv69[ebp], 0
$LN4@IsIdxValid:
	mov	al, BYTE PTR tv69[ebp]

; 522  : }

	pop	edi
	pop	esi
	pop	ebx
	mov	esp, ebp
	pop	ebp
	ret	4
?IsIdxValid@?$CUtlMemory@U?$UtlRBTreeNode_t@UNode_t@?$CUtlMap@PBDPAVIEntityFactory@@G@@G@@G@@QBE_NG@Z ENDP ; CUtlMemory<UtlRBTreeNode_t<CUtlMap<char const *,IEntityFactory *,unsigned short>::Node_t,unsigned short>,unsigned short>::IsIdxValid
_TEXT	ENDS
; Function compile flags: /Odtp /ZI
; File d:\!diffusion 2020\source code 2022\client-server\game_shared\utlmemory.h
;	COMDAT ??A?$CUtlMemory@U?$UtlRBTreeNode_t@UNode_t@?$CUtlMap@PBDPAVIEntityFactory@@G@@G@@G@@QBEABU?$UtlRBTreeNode_t@UNode_t@?$CUtlMap@PBDPAVIEntityFactory@@G@@G@@G@Z
_TEXT	SEGMENT
_this$ = -4						; size = 4
_i$ = 8							; size = 2
??A?$CUtlMemory@U?$UtlRBTreeNode_t@UNode_t@?$CUtlMap@PBDPAVIEntityFactory@@G@@G@@G@@QBEABU?$UtlRBTreeNode_t@UNode_t@?$CUtlMap@PBDPAVIEntityFactory@@G@@G@@G@Z PROC ; CUtlMemory<UtlRBTreeNode_t<CUtlMap<char const *,IEntityFactory *,unsigned short>::Node_t,unsigned short>,unsigned short>::operator[], COMDAT
; _this$ = ecx

; 431  : {

	push	ebp
	mov	ebp, esp
	sub	esp, 68					; 00000044H
	push	ebx
	push	esi
	push	edi
	mov	DWORD PTR _this$[ebp], ecx

; 432  : 	assert( IsIdxValid(i) );

	movzx	eax, WORD PTR _i$[ebp]
	push	eax
	mov	ecx, DWORD PTR _this$[ebp]
	call	?IsIdxValid@?$CUtlMemory@U?$UtlRBTreeNode_t@UNode_t@?$CUtlMap@PBDPAVIEntityFactory@@G@@G@@G@@QBE_NG@Z ; CUtlMemory<UtlRBTreeNode_t<CUtlMap<char const *,IEntityFactory *,unsigned short>::Node_t,unsigned short>,unsigned short>::IsIdxValid
	movzx	ecx, al
	test	ecx, ecx
	jne	SHORT $LN3@operator
	push	432					; 000001b0H
	push	OFFSET ??_C@_1JE@CIIIAKCN@?$AAd?$AA?3?$AA?2?$AA?$CB?$AAd?$AAi?$AAf?$AAf?$AAu?$AAs?$AAi?$AAo?$AAn?$AA?5?$AA2?$AA0?$AA2?$AA0?$AA?2?$AAs?$AAo?$AAu?$AAr?$AAc?$AAe?$AA?5?$AAc?$AAo?$AAd?$AAe?$AA?5?$AA2@
	push	OFFSET ??_C@_1BM@CKILBAKK@?$AAI?$AAs?$AAI?$AAd?$AAx?$AAV?$AAa?$AAl?$AAi?$AAd?$AA?$CI?$AAi?$AA?$CJ?$AA?$AA@
	call	__wassert
	add	esp, 12					; 0000000cH
$LN3@operator:

; 433  : 	return m_pMemory[i];

	movzx	eax, WORD PTR _i$[ebp]
	shl	eax, 4
	mov	ecx, DWORD PTR _this$[ebp]
	add	eax, DWORD PTR [ecx]

; 434  : }

	pop	edi
	pop	esi
	pop	ebx
	mov	esp, ebp
	pop	ebp
	ret	4
??A?$CUtlMemory@U?$UtlRBTreeNode_t@UNode_t@?$CUtlMap@PBDPAVIEntityFactory@@G@@G@@G@@QBEABU?$UtlRBTreeNode_t@UNode_t@?$CUtlMap@PBDPAVIEntityFactory@@G@@G@@G@Z ENDP ; CUtlMemory<UtlRBTreeNode_t<CUtlMap<char const *,IEntityFactory *,unsigned short>::Node_t,unsigned short>,unsigned short>::operator[]
_TEXT	ENDS
; Function compile flags: /Odtp /ZI
; File d:\!diffusion 2020\source code 2022\client-server\game_shared\utlmemory.h
;	COMDAT ??A?$CUtlMemory@U?$UtlRBTreeNode_t@UNode_t@?$CUtlMap@PBDPAVIEntityFactory@@G@@G@@G@@QAEAAU?$UtlRBTreeNode_t@UNode_t@?$CUtlMap@PBDPAVIEntityFactory@@G@@G@@G@Z
_TEXT	SEGMENT
_this$ = -4						; size = 4
_i$ = 8							; size = 2
??A?$CUtlMemory@U?$UtlRBTreeNode_t@UNode_t@?$CUtlMap@PBDPAVIEntityFactory@@G@@G@@G@@QAEAAU?$UtlRBTreeNode_t@UNode_t@?$CUtlMap@PBDPAVIEntityFactory@@G@@G@@G@Z PROC ; CUtlMemory<UtlRBTreeNode_t<CUtlMap<char const *,IEntityFactory *,unsigned short>::Node_t,unsigned short>,unsigned short>::operator[], COMDAT
; _this$ = ecx

; 423  : {

	push	ebp
	mov	ebp, esp
	sub	esp, 68					; 00000044H
	push	ebx
	push	esi
	push	edi
	mov	DWORD PTR _this$[ebp], ecx

; 424  : 	assert( !IsReadOnly() );

	mov	ecx, DWORD PTR _this$[ebp]
	call	?IsReadOnly@?$CUtlMemory@U?$UtlRBTreeNode_t@UNode_t@?$CUtlMap@PBDPAVIEntityFactory@@G@@G@@G@@QBE_NXZ ; CUtlMemory<UtlRBTreeNode_t<CUtlMap<char const *,IEntityFactory *,unsigned short>::Node_t,unsigned short>,unsigned short>::IsReadOnly
	movzx	eax, al
	test	eax, eax
	je	SHORT $LN3@operator
	push	424					; 000001a8H
	push	OFFSET ??_C@_1JE@CIIIAKCN@?$AAd?$AA?3?$AA?2?$AA?$CB?$AAd?$AAi?$AAf?$AAf?$AAu?$AAs?$AAi?$AAo?$AAn?$AA?5?$AA2?$AA0?$AA2?$AA0?$AA?2?$AAs?$AAo?$AAu?$AAr?$AAc?$AAe?$AA?5?$AAc?$AAo?$AAd?$AAe?$AA?5?$AA2@
	push	OFFSET ??_C@_1BM@PFNFCCHH@?$AA?$CB?$AAI?$AAs?$AAR?$AAe?$AAa?$AAd?$AAO?$AAn?$AAl?$AAy?$AA?$CI?$AA?$CJ?$AA?$AA@
	call	__wassert
	add	esp, 12					; 0000000cH
$LN3@operator:

; 425  : 	assert( IsIdxValid(i) );

	movzx	eax, WORD PTR _i$[ebp]
	push	eax
	mov	ecx, DWORD PTR _this$[ebp]
	call	?IsIdxValid@?$CUtlMemory@U?$UtlRBTreeNode_t@UNode_t@?$CUtlMap@PBDPAVIEntityFactory@@G@@G@@G@@QBE_NG@Z ; CUtlMemory<UtlRBTreeNode_t<CUtlMap<char const *,IEntityFactory *,unsigned short>::Node_t,unsigned short>,unsigned short>::IsIdxValid
	movzx	ecx, al
	test	ecx, ecx
	jne	SHORT $LN4@operator
	push	425					; 000001a9H
	push	OFFSET ??_C@_1JE@CIIIAKCN@?$AAd?$AA?3?$AA?2?$AA?$CB?$AAd?$AAi?$AAf?$AAf?$AAu?$AAs?$AAi?$AAo?$AAn?$AA?5?$AA2?$AA0?$AA2?$AA0?$AA?2?$AAs?$AAo?$AAu?$AAr?$AAc?$AAe?$AA?5?$AAc?$AAo?$AAd?$AAe?$AA?5?$AA2@
	push	OFFSET ??_C@_1BM@CKILBAKK@?$AAI?$AAs?$AAI?$AAd?$AAx?$AAV?$AAa?$AAl?$AAi?$AAd?$AA?$CI?$AAi?$AA?$CJ?$AA?$AA@
	call	__wassert
	add	esp, 12					; 0000000cH
$LN4@operator:

; 426  : 	return m_pMemory[i];

	movzx	eax, WORD PTR _i$[ebp]
	shl	eax, 4
	mov	ecx, DWORD PTR _this$[ebp]
	add	eax, DWORD PTR [ecx]

; 427  : }

	pop	edi
	pop	esi
	pop	ebx
	mov	esp, ebp
	pop	ebp
	ret	4
??A?$CUtlMemory@U?$UtlRBTreeNode_t@UNode_t@?$CUtlMap@PBDPAVIEntityFactory@@G@@G@@G@@QAEAAU?$UtlRBTreeNode_t@UNode_t@?$CUtlMap@PBDPAVIEntityFactory@@G@@G@@G@Z ENDP ; CUtlMemory<UtlRBTreeNode_t<CUtlMap<char const *,IEntityFactory *,unsigned short>::Node_t,unsigned short>,unsigned short>::operator[]
_TEXT	ENDS
; Function compile flags: /Odtp /ZI
; File d:\!diffusion 2020\source code 2022\client-server\game_shared\utlmemory.h
;	COMDAT ?InvalidIterator@?$CUtlMemory@U?$UtlRBTreeNode_t@UNode_t@?$CUtlMap@PBDPAVIEntityFactory@@G@@G@@G@@QBE?AVIterator_t@1@XZ
_TEXT	SEGMENT
_this$ = -4						; size = 4
___$ReturnUdt$ = 8					; size = 4
?InvalidIterator@?$CUtlMemory@U?$UtlRBTreeNode_t@UNode_t@?$CUtlMap@PBDPAVIEntityFactory@@G@@G@@G@@QBE?AVIterator_t@1@XZ PROC ; CUtlMemory<UtlRBTreeNode_t<CUtlMap<char const *,IEntityFactory *,unsigned short>::Node_t,unsigned short>,unsigned short>::InvalidIterator, COMDAT
; _this$ = ecx

; 93   : 	Iterator_t InvalidIterator() const					{ return Iterator_t( InvalidIndex() ); }

	push	ebp
	mov	ebp, esp
	sub	esp, 68					; 00000044H
	push	ebx
	push	esi
	push	edi
	mov	DWORD PTR _this$[ebp], ecx
	call	?InvalidIndex@?$CUtlMemory@U?$UtlRBTreeNode_t@UNode_t@?$CUtlMap@PBDPAVIEntityFactory@@G@@G@@G@@SAGXZ ; CUtlMemory<UtlRBTreeNode_t<CUtlMap<char const *,IEntityFactory *,unsigned short>::Node_t,unsigned short>,unsigned short>::InvalidIndex
	movzx	eax, ax
	push	eax
	mov	ecx, DWORD PTR ___$ReturnUdt$[ebp]
	call	??0Iterator_t@?$CUtlMemory@U?$UtlRBTreeNode_t@UNode_t@?$CUtlMap@PBDPAVIEntityFactory@@G@@G@@G@@QAE@G@Z ; CUtlMemory<UtlRBTreeNode_t<CUtlMap<char const *,IEntityFactory *,unsigned short>::Node_t,unsigned short>,unsigned short>::Iterator_t::Iterator_t
	mov	eax, DWORD PTR ___$ReturnUdt$[ebp]
	pop	edi
	pop	esi
	pop	ebx
	mov	esp, ebp
	pop	ebp
	ret	4
?InvalidIterator@?$CUtlMemory@U?$UtlRBTreeNode_t@UNode_t@?$CUtlMap@PBDPAVIEntityFactory@@G@@G@@G@@QBE?AVIterator_t@1@XZ ENDP ; CUtlMemory<UtlRBTreeNode_t<CUtlMap<char const *,IEntityFactory *,unsigned short>::Node_t,unsigned short>,unsigned short>::InvalidIterator
_TEXT	ENDS
; Function compile flags: /Odtp /ZI
; File d:\!diffusion 2020\source code 2022\client-server\game_shared\utlmemory.h
;	COMDAT ?IsValidIterator@?$CUtlMemory@U?$UtlRBTreeNode_t@UNode_t@?$CUtlMap@PBDPAVIEntityFactory@@G@@G@@G@@QBE_NABVIterator_t@1@@Z
_TEXT	SEGMENT
_this$ = -4						; size = 4
_it$ = 8						; size = 4
?IsValidIterator@?$CUtlMemory@U?$UtlRBTreeNode_t@UNode_t@?$CUtlMap@PBDPAVIEntityFactory@@G@@G@@G@@QBE_NABVIterator_t@1@@Z PROC ; CUtlMemory<UtlRBTreeNode_t<CUtlMap<char const *,IEntityFactory *,unsigned short>::Node_t,unsigned short>,unsigned short>::IsValidIterator, COMDAT
; _this$ = ecx

; 92   : 	bool IsValidIterator( const Iterator_t &it ) const	{ return IsIdxValid( it.index ); }

	push	ebp
	mov	ebp, esp
	sub	esp, 68					; 00000044H
	push	ebx
	push	esi
	push	edi
	mov	DWORD PTR _this$[ebp], ecx
	mov	eax, DWORD PTR _it$[ebp]
	movzx	ecx, WORD PTR [eax]
	push	ecx
	mov	ecx, DWORD PTR _this$[ebp]
	call	?IsIdxValid@?$CUtlMemory@U?$UtlRBTreeNode_t@UNode_t@?$CUtlMap@PBDPAVIEntityFactory@@G@@G@@G@@QBE_NG@Z ; CUtlMemory<UtlRBTreeNode_t<CUtlMap<char const *,IEntityFactory *,unsigned short>::Node_t,unsigned short>,unsigned short>::IsIdxValid
	pop	edi
	pop	esi
	pop	ebx
	mov	esp, ebp
	pop	ebp
	ret	4
?IsValidIterator@?$CUtlMemory@U?$UtlRBTreeNode_t@UNode_t@?$CUtlMap@PBDPAVIEntityFactory@@G@@G@@G@@QBE_NABVIterator_t@1@@Z ENDP ; CUtlMemory<UtlRBTreeNode_t<CUtlMap<char const *,IEntityFactory *,unsigned short>::Node_t,unsigned short>,unsigned short>::IsValidIterator
_TEXT	ENDS
; Function compile flags: /Odtp /ZI
; File d:\!diffusion 2020\source code 2022\client-server\game_shared\utlmemory.h
;	COMDAT ?IsIdxAfter@?$CUtlMemory@U?$UtlRBTreeNode_t@UNode_t@?$CUtlMap@PBDPAVIEntityFactory@@G@@G@@G@@QBE_NGABVIterator_t@1@@Z
_TEXT	SEGMENT
tv68 = -72						; size = 4
_this$ = -4						; size = 4
_i$ = 8							; size = 2
_it$ = 12						; size = 4
?IsIdxAfter@?$CUtlMemory@U?$UtlRBTreeNode_t@UNode_t@?$CUtlMap@PBDPAVIEntityFactory@@G@@G@@G@@QBE_NGABVIterator_t@1@@Z PROC ; CUtlMemory<UtlRBTreeNode_t<CUtlMap<char const *,IEntityFactory *,unsigned short>::Node_t,unsigned short>,unsigned short>::IsIdxAfter, COMDAT
; _this$ = ecx

; 91   : 	bool IsIdxAfter( I i, const Iterator_t &it ) const	{ return i > it.index; }

	push	ebp
	mov	ebp, esp
	sub	esp, 72					; 00000048H
	push	ebx
	push	esi
	push	edi
	mov	DWORD PTR _this$[ebp], ecx
	movzx	eax, WORD PTR _i$[ebp]
	mov	ecx, DWORD PTR _it$[ebp]
	movzx	edx, WORD PTR [ecx]
	cmp	eax, edx
	jle	SHORT $LN3@IsIdxAfter
	mov	DWORD PTR tv68[ebp], 1
	jmp	SHORT $LN4@IsIdxAfter
$LN3@IsIdxAfter:
	mov	DWORD PTR tv68[ebp], 0
$LN4@IsIdxAfter:
	mov	al, BYTE PTR tv68[ebp]
	pop	edi
	pop	esi
	pop	ebx
	mov	esp, ebp
	pop	ebp
	ret	8
?IsIdxAfter@?$CUtlMemory@U?$UtlRBTreeNode_t@UNode_t@?$CUtlMap@PBDPAVIEntityFactory@@G@@G@@G@@QBE_NGABVIterator_t@1@@Z ENDP ; CUtlMemory<UtlRBTreeNode_t<CUtlMap<char const *,IEntityFactory *,unsigned short>::Node_t,unsigned short>,unsigned short>::IsIdxAfter
_TEXT	ENDS
; Function compile flags: /Odtp /ZI
; File d:\!diffusion 2020\source code 2022\client-server\game_shared\utlmemory.h
;	COMDAT ?GetIndex@?$CUtlMemory@U?$UtlRBTreeNode_t@UNode_t@?$CUtlMap@PBDPAVIEntityFactory@@G@@G@@G@@QBEGABVIterator_t@1@@Z
_TEXT	SEGMENT
_this$ = -4						; size = 4
_it$ = 8						; size = 4
?GetIndex@?$CUtlMemory@U?$UtlRBTreeNode_t@UNode_t@?$CUtlMap@PBDPAVIEntityFactory@@G@@G@@G@@QBEGABVIterator_t@1@@Z PROC ; CUtlMemory<UtlRBTreeNode_t<CUtlMap<char const *,IEntityFactory *,unsigned short>::Node_t,unsigned short>,unsigned short>::GetIndex, COMDAT
; _this$ = ecx

; 90   : 	I GetIndex( const Iterator_t &it ) const			{ return it.index; }

	push	ebp
	mov	ebp, esp
	sub	esp, 68					; 00000044H
	push	ebx
	push	esi
	push	edi
	mov	DWORD PTR _this$[ebp], ecx
	mov	eax, DWORD PTR _it$[ebp]
	mov	ax, WORD PTR [eax]
	pop	edi
	pop	esi
	pop	ebx
	mov	esp, ebp
	pop	ebp
	ret	4
?GetIndex@?$CUtlMemory@U?$UtlRBTreeNode_t@UNode_t@?$CUtlMap@PBDPAVIEntityFactory@@G@@G@@G@@QBEGABVIterator_t@1@@Z ENDP ; CUtlMemory<UtlRBTreeNode_t<CUtlMap<char const *,IEntityFactory *,unsigned short>::Node_t,unsigned short>,unsigned short>::GetIndex
_TEXT	ENDS
; Function compile flags: /Odtp /ZI
; File d:\!diffusion 2020\source code 2022\client-server\game_shared\utlmemory.h
;	COMDAT ?Next@?$CUtlMemory@U?$UtlRBTreeNode_t@UNode_t@?$CUtlMap@PBDPAVIEntityFactory@@G@@G@@G@@QBE?AVIterator_t@1@ABV21@@Z
_TEXT	SEGMENT
tv80 = -72						; size = 4
_this$ = -4						; size = 4
___$ReturnUdt$ = 8					; size = 4
_it$ = 12						; size = 4
?Next@?$CUtlMemory@U?$UtlRBTreeNode_t@UNode_t@?$CUtlMap@PBDPAVIEntityFactory@@G@@G@@G@@QBE?AVIterator_t@1@ABV21@@Z PROC ; CUtlMemory<UtlRBTreeNode_t<CUtlMap<char const *,IEntityFactory *,unsigned short>::Node_t,unsigned short>,unsigned short>::Next, COMDAT
; _this$ = ecx

; 89   : 	Iterator_t Next( const Iterator_t &it ) const		{ return Iterator_t( IsIdxValid( it.index + 1 ) ? it.index + 1 : InvalidIndex() ); }

	push	ebp
	mov	ebp, esp
	sub	esp, 72					; 00000048H
	push	ebx
	push	esi
	push	edi
	mov	DWORD PTR _this$[ebp], ecx
	mov	eax, DWORD PTR _it$[ebp]
	movzx	ecx, WORD PTR [eax]
	add	ecx, 1
	push	ecx
	mov	ecx, DWORD PTR _this$[ebp]
	call	?IsIdxValid@?$CUtlMemory@U?$UtlRBTreeNode_t@UNode_t@?$CUtlMap@PBDPAVIEntityFactory@@G@@G@@G@@QBE_NG@Z ; CUtlMemory<UtlRBTreeNode_t<CUtlMap<char const *,IEntityFactory *,unsigned short>::Node_t,unsigned short>,unsigned short>::IsIdxValid
	movzx	edx, al
	test	edx, edx
	je	SHORT $LN3@Next
	mov	eax, DWORD PTR _it$[ebp]
	movzx	ecx, WORD PTR [eax]
	add	ecx, 1
	mov	DWORD PTR tv80[ebp], ecx
	jmp	SHORT $LN4@Next
$LN3@Next:
	call	?InvalidIndex@?$CUtlMemory@U?$UtlRBTreeNode_t@UNode_t@?$CUtlMap@PBDPAVIEntityFactory@@G@@G@@G@@SAGXZ ; CUtlMemory<UtlRBTreeNode_t<CUtlMap<char const *,IEntityFactory *,unsigned short>::Node_t,unsigned short>,unsigned short>::InvalidIndex
	movzx	edx, ax
	mov	DWORD PTR tv80[ebp], edx
$LN4@Next:
	movzx	eax, WORD PTR tv80[ebp]
	push	eax
	mov	ecx, DWORD PTR ___$ReturnUdt$[ebp]
	call	??0Iterator_t@?$CUtlMemory@U?$UtlRBTreeNode_t@UNode_t@?$CUtlMap@PBDPAVIEntityFactory@@G@@G@@G@@QAE@G@Z ; CUtlMemory<UtlRBTreeNode_t<CUtlMap<char const *,IEntityFactory *,unsigned short>::Node_t,unsigned short>,unsigned short>::Iterator_t::Iterator_t
	mov	eax, DWORD PTR ___$ReturnUdt$[ebp]
	pop	edi
	pop	esi
	pop	ebx
	mov	esp, ebp
	pop	ebp
	ret	8
?Next@?$CUtlMemory@U?$UtlRBTreeNode_t@UNode_t@?$CUtlMap@PBDPAVIEntityFactory@@G@@G@@G@@QBE?AVIterator_t@1@ABV21@@Z ENDP ; CUtlMemory<UtlRBTreeNode_t<CUtlMap<char const *,IEntityFactory *,unsigned short>::Node_t,unsigned short>,unsigned short>::Next
_TEXT	ENDS
; Function compile flags: /Odtp /ZI
; File d:\!diffusion 2020\source code 2022\client-server\game_shared\utlmemory.h
;	COMDAT ?First@?$CUtlMemory@U?$UtlRBTreeNode_t@UNode_t@?$CUtlMap@PBDPAVIEntityFactory@@G@@G@@G@@QBE?AVIterator_t@1@XZ
_TEXT	SEGMENT
tv73 = -72						; size = 4
_this$ = -4						; size = 4
___$ReturnUdt$ = 8					; size = 4
?First@?$CUtlMemory@U?$UtlRBTreeNode_t@UNode_t@?$CUtlMap@PBDPAVIEntityFactory@@G@@G@@G@@QBE?AVIterator_t@1@XZ PROC ; CUtlMemory<UtlRBTreeNode_t<CUtlMap<char const *,IEntityFactory *,unsigned short>::Node_t,unsigned short>,unsigned short>::First, COMDAT
; _this$ = ecx

; 88   : 	Iterator_t First() const							{ return Iterator_t( IsIdxValid( 0 ) ? 0 : InvalidIndex() ); }

	push	ebp
	mov	ebp, esp
	sub	esp, 72					; 00000048H
	push	ebx
	push	esi
	push	edi
	mov	DWORD PTR _this$[ebp], ecx
	push	0
	mov	ecx, DWORD PTR _this$[ebp]
	call	?IsIdxValid@?$CUtlMemory@U?$UtlRBTreeNode_t@UNode_t@?$CUtlMap@PBDPAVIEntityFactory@@G@@G@@G@@QBE_NG@Z ; CUtlMemory<UtlRBTreeNode_t<CUtlMap<char const *,IEntityFactory *,unsigned short>::Node_t,unsigned short>,unsigned short>::IsIdxValid
	movzx	eax, al
	test	eax, eax
	je	SHORT $LN3@First
	mov	DWORD PTR tv73[ebp], 0
	jmp	SHORT $LN4@First
$LN3@First:
	call	?InvalidIndex@?$CUtlMemory@U?$UtlRBTreeNode_t@UNode_t@?$CUtlMap@PBDPAVIEntityFactory@@G@@G@@G@@SAGXZ ; CUtlMemory<UtlRBTreeNode_t<CUtlMap<char const *,IEntityFactory *,unsigned short>::Node_t,unsigned short>,unsigned short>::InvalidIndex
	movzx	ecx, ax
	mov	DWORD PTR tv73[ebp], ecx
$LN4@First:
	movzx	edx, WORD PTR tv73[ebp]
	push	edx
	mov	ecx, DWORD PTR ___$ReturnUdt$[ebp]
	call	??0Iterator_t@?$CUtlMemory@U?$UtlRBTreeNode_t@UNode_t@?$CUtlMap@PBDPAVIEntityFactory@@G@@G@@G@@QAE@G@Z ; CUtlMemory<UtlRBTreeNode_t<CUtlMap<char const *,IEntityFactory *,unsigned short>::Node_t,unsigned short>,unsigned short>::Iterator_t::Iterator_t
	mov	eax, DWORD PTR ___$ReturnUdt$[ebp]
	pop	edi
	pop	esi
	pop	ebx
	mov	esp, ebp
	pop	ebp
	ret	4
?First@?$CUtlMemory@U?$UtlRBTreeNode_t@UNode_t@?$CUtlMap@PBDPAVIEntityFactory@@G@@G@@G@@QBE?AVIterator_t@1@XZ ENDP ; CUtlMemory<UtlRBTreeNode_t<CUtlMap<char const *,IEntityFactory *,unsigned short>::Node_t,unsigned short>,unsigned short>::First
_TEXT	ENDS
; Function compile flags: /Odtp /ZI
; File d:\!diffusion 2020\source code 2022\client-server\game_shared\utlmemory.h
;	COMDAT ??1?$CUtlMemory@U?$UtlRBTreeNode_t@UNode_t@?$CUtlMap@PBDPAVIEntityFactory@@G@@G@@G@@QAE@XZ
_TEXT	SEGMENT
_this$ = -16						; size = 4
__$EHRec$ = -12						; size = 12
??1?$CUtlMemory@U?$UtlRBTreeNode_t@UNode_t@?$CUtlMap@PBDPAVIEntityFactory@@G@@G@@G@@QAE@XZ PROC ; CUtlMemory<UtlRBTreeNode_t<CUtlMap<char const *,IEntityFactory *,unsigned short>::Node_t,unsigned short>,unsigned short>::~CUtlMemory<UtlRBTreeNode_t<CUtlMap<char const *,IEntityFactory *,unsigned short>::Node_t,unsigned short>,unsigned short>, COMDAT
; _this$ = ecx

; 322  : {

	push	ebp
	mov	ebp, esp
	push	-1
	push	__ehhandler$??1?$CUtlMemory@U?$UtlRBTreeNode_t@UNode_t@?$CUtlMap@PBDPAVIEntityFactory@@G@@G@@G@@QAE@XZ
	mov	eax, DWORD PTR fs:0
	push	eax
	sub	esp, 68					; 00000044H
	push	ebx
	push	esi
	push	edi
	mov	eax, DWORD PTR ___security_cookie
	xor	eax, ebp
	push	eax
	lea	eax, DWORD PTR __$EHRec$[ebp]
	mov	DWORD PTR fs:0, eax
	mov	DWORD PTR _this$[ebp], ecx

; 323  : 	Purge();

	mov	ecx, DWORD PTR _this$[ebp]
	call	?Purge@?$CUtlMemory@U?$UtlRBTreeNode_t@UNode_t@?$CUtlMap@PBDPAVIEntityFactory@@G@@G@@G@@QAEXXZ ; CUtlMemory<UtlRBTreeNode_t<CUtlMap<char const *,IEntityFactory *,unsigned short>::Node_t,unsigned short>,unsigned short>::Purge

; 324  : }

	mov	ecx, DWORD PTR __$EHRec$[ebp]
	mov	DWORD PTR fs:0, ecx
	pop	ecx
	pop	edi
	pop	esi
	pop	ebx
	mov	esp, ebp
	pop	ebp
	ret	0
_TEXT	ENDS
;	COMDAT text$x
text$x	SEGMENT
__ehhandler$??1?$CUtlMemory@U?$UtlRBTreeNode_t@UNode_t@?$CUtlMap@PBDPAVIEntityFactory@@G@@G@@G@@QAE@XZ:
	mov	edx, DWORD PTR [esp+8]
	lea	eax, DWORD PTR [edx+12]
	mov	ecx, DWORD PTR [edx-84]
	xor	ecx, eax
	call	@__security_check_cookie@4
	mov	eax, OFFSET __ehfuncinfo$??1?$CUtlMemory@U?$UtlRBTreeNode_t@UNode_t@?$CUtlMap@PBDPAVIEntityFactory@@G@@G@@G@@QAE@XZ
	jmp	___CxxFrameHandler3
text$x	ENDS
??1?$CUtlMemory@U?$UtlRBTreeNode_t@UNode_t@?$CUtlMap@PBDPAVIEntityFactory@@G@@G@@G@@QAE@XZ ENDP ; CUtlMemory<UtlRBTreeNode_t<CUtlMap<char const *,IEntityFactory *,unsigned short>::Node_t,unsigned short>,unsigned short>::~CUtlMemory<UtlRBTreeNode_t<CUtlMap<char const *,IEntityFactory *,unsigned short>::Node_t,unsigned short>,unsigned short>
; Function compile flags: /Odtp /ZI
; File d:\!diffusion 2020\source code 2022\client-server\game_shared\utlmemory.h
;	COMDAT ??0?$CUtlMemory@U?$UtlRBTreeNode_t@UNode_t@?$CUtlMap@PBDPAVIEntityFactory@@G@@G@@G@@QAE@HH@Z
_TEXT	SEGMENT
_this$ = -4						; size = 4
_nGrowSize$ = 8						; size = 4
_nInitAllocationCount$ = 12				; size = 4
??0?$CUtlMemory@U?$UtlRBTreeNode_t@UNode_t@?$CUtlMap@PBDPAVIEntityFactory@@G@@G@@G@@QAE@HH@Z PROC ; CUtlMemory<UtlRBTreeNode_t<CUtlMap<char const *,IEntityFactory *,unsigned short>::Node_t,unsigned short>,unsigned short>::CUtlMemory<UtlRBTreeNode_t<CUtlMap<char const *,IEntityFactory *,unsigned short>::Node_t,unsigned short>,unsigned short>, COMDAT
; _this$ = ecx

; 295  : {

	push	ebp
	mov	ebp, esp
	sub	esp, 68					; 00000044H
	push	ebx
	push	esi
	push	edi
	mov	DWORD PTR _this$[ebp], ecx

; 293  : CUtlMemory<T,I>::CUtlMemory( int nGrowSize, int nInitAllocationCount ) : m_pMemory(0), 

	mov	eax, DWORD PTR _this$[ebp]
	mov	DWORD PTR [eax], 0

; 294  : 	m_nAllocationCount( nInitAllocationCount ), m_nGrowSize( nGrowSize )

	mov	eax, DWORD PTR _this$[ebp]
	mov	ecx, DWORD PTR _nInitAllocationCount$[ebp]
	mov	DWORD PTR [eax+4], ecx
	mov	eax, DWORD PTR _this$[ebp]
	mov	ecx, DWORD PTR _nGrowSize$[ebp]
	mov	DWORD PTR [eax+8], ecx

; 296  : 	ValidateGrowSize();

	mov	ecx, DWORD PTR _this$[ebp]
	call	?ValidateGrowSize@?$CUtlMemory@U?$UtlRBTreeNode_t@UNode_t@?$CUtlMap@PBDPAVIEntityFactory@@G@@G@@G@@IAEXXZ ; CUtlMemory<UtlRBTreeNode_t<CUtlMap<char const *,IEntityFactory *,unsigned short>::Node_t,unsigned short>,unsigned short>::ValidateGrowSize

; 297  : 	assert( nGrowSize >= 0 );

	cmp	DWORD PTR _nGrowSize$[ebp], 0
	jge	SHORT $LN4@CUtlMemory
	push	297					; 00000129H
	push	OFFSET ??_C@_1JE@CIIIAKCN@?$AAd?$AA?3?$AA?2?$AA?$CB?$AAd?$AAi?$AAf?$AAf?$AAu?$AAs?$AAi?$AAo?$AAn?$AA?5?$AA2?$AA0?$AA2?$AA0?$AA?2?$AAs?$AAo?$AAu?$AAr?$AAc?$AAe?$AA?5?$AAc?$AAo?$AAd?$AAe?$AA?5?$AA2@
	push	OFFSET ??_C@_1BO@FOOHAONO@?$AAn?$AAG?$AAr?$AAo?$AAw?$AAS?$AAi?$AAz?$AAe?$AA?5?$AA?$DO?$AA?$DN?$AA?5?$AA0?$AA?$AA@
	call	__wassert
	add	esp, 12					; 0000000cH
$LN4@CUtlMemory:

; 298  : 	if (m_nAllocationCount)

	mov	eax, DWORD PTR _this$[ebp]
	cmp	DWORD PTR [eax+4], 0
	je	SHORT $LN1@CUtlMemory

; 299  : 	{
; 300  : 		m_pMemory = (T*)malloc( m_nAllocationCount * sizeof(T) );

	mov	eax, DWORD PTR _this$[ebp]
	mov	ecx, DWORD PTR [eax+4]
	shl	ecx, 4
	push	ecx
	call	_malloc
	add	esp, 4
	mov	edx, DWORD PTR _this$[ebp]
	mov	DWORD PTR [edx], eax
$LN1@CUtlMemory:

; 301  : 	}
; 302  : }

	mov	eax, DWORD PTR _this$[ebp]
	pop	edi
	pop	esi
	pop	ebx
	mov	esp, ebp
	pop	ebp
	ret	8
??0?$CUtlMemory@U?$UtlRBTreeNode_t@UNode_t@?$CUtlMap@PBDPAVIEntityFactory@@G@@G@@G@@QAE@HH@Z ENDP ; CUtlMemory<UtlRBTreeNode_t<CUtlMap<char const *,IEntityFactory *,unsigned short>::Node_t,unsigned short>,unsigned short>::CUtlMemory<UtlRBTreeNode_t<CUtlMap<char const *,IEntityFactory *,unsigned short>::Node_t,unsigned short>,unsigned short>
_TEXT	ENDS
; Function compile flags: /Odtp /ZI
; File d:\!diffusion 2020\source code 2022\client-server\game_shared\utlmap.h
;	COMDAT ??RCKeyLess@?$CUtlMap@PBDPAVIEntityFactory@@G@@QBE_NABUNode_t@1@0@Z
_TEXT	SEGMENT
_this$ = -4						; size = 4
_left$ = 8						; size = 4
_right$ = 12						; size = 4
??RCKeyLess@?$CUtlMap@PBDPAVIEntityFactory@@G@@QBE_NABUNode_t@1@0@Z PROC ; CUtlMap<char const *,IEntityFactory *,unsigned short>::CKeyLess::operator(), COMDAT
; _this$ = ecx

; 184  : 		{

	push	ebp
	mov	ebp, esp
	sub	esp, 68					; 00000044H
	push	ebx
	push	esi
	push	edi
	mov	DWORD PTR _this$[ebp], ecx

; 185  : 			return m_LessFunc( left.key, right.key );

	mov	eax, DWORD PTR _right$[ebp]
	push	eax
	mov	ecx, DWORD PTR _left$[ebp]
	push	ecx
	mov	edx, DWORD PTR _this$[ebp]
	mov	eax, DWORD PTR [edx]
	call	eax
	add	esp, 8

; 186  : 		}

	pop	edi
	pop	esi
	pop	ebx
	mov	esp, ebp
	pop	ebp
	ret	8
??RCKeyLess@?$CUtlMap@PBDPAVIEntityFactory@@G@@QBE_NABUNode_t@1@0@Z ENDP ; CUtlMap<char const *,IEntityFactory *,unsigned short>::CKeyLess::operator()
_TEXT	ENDS
; Function compile flags: /Odtp /ZI
; File d:\!diffusion 2020\source code 2022\client-server\game_shared\utlmap.h
;	COMDAT ??7CKeyLess@?$CUtlMap@PBDPAVIEntityFactory@@G@@QBE_NXZ
_TEXT	SEGMENT
tv66 = -72						; size = 4
_this$ = -4						; size = 4
??7CKeyLess@?$CUtlMap@PBDPAVIEntityFactory@@G@@QBE_NXZ PROC ; CUtlMap<char const *,IEntityFactory *,unsigned short>::CKeyLess::operator!, COMDAT
; _this$ = ecx

; 179  : 		{

	push	ebp
	mov	ebp, esp
	sub	esp, 72					; 00000048H
	push	ebx
	push	esi
	push	edi
	mov	DWORD PTR _this$[ebp], ecx

; 180  : 			return !m_LessFunc;

	mov	eax, DWORD PTR _this$[ebp]
	cmp	DWORD PTR [eax], 0
	jne	SHORT $LN3@operator
	mov	DWORD PTR tv66[ebp], 1
	jmp	SHORT $LN4@operator
$LN3@operator:
	mov	DWORD PTR tv66[ebp], 0
$LN4@operator:
	mov	al, BYTE PTR tv66[ebp]

; 181  : 		}

	pop	edi
	pop	esi
	pop	ebx
	mov	esp, ebp
	pop	ebp
	ret	0
??7CKeyLess@?$CUtlMap@PBDPAVIEntityFactory@@G@@QBE_NXZ ENDP ; CUtlMap<char const *,IEntityFactory *,unsigned short>::CKeyLess::operator!
_TEXT	ENDS
; Function compile flags: /Odtp /ZI
; File d:\!diffusion 2020\source code 2022\client-server\game_shared\utlmap.h
;	COMDAT ??0CKeyLess@?$CUtlMap@PBDPAVIEntityFactory@@G@@QAE@P6A_NABQBD0@Z@Z
_TEXT	SEGMENT
_this$ = -4						; size = 4
_lessFunc$ = 8						; size = 4
??0CKeyLess@?$CUtlMap@PBDPAVIEntityFactory@@G@@QAE@P6A_NABQBD0@Z@Z PROC ; CUtlMap<char const *,IEntityFactory *,unsigned short>::CKeyLess::CKeyLess, COMDAT
; _this$ = ecx

; 176  : 		CKeyLess( LessFunc_t lessFunc ) : m_LessFunc(lessFunc) {}

	push	ebp
	mov	ebp, esp
	sub	esp, 68					; 00000044H
	push	ebx
	push	esi
	push	edi
	mov	DWORD PTR _this$[ebp], ecx
	mov	eax, DWORD PTR _this$[ebp]
	mov	ecx, DWORD PTR _lessFunc$[ebp]
	mov	DWORD PTR [eax], ecx
	mov	eax, DWORD PTR _this$[ebp]
	pop	edi
	pop	esi
	pop	ebx
	mov	esp, ebp
	pop	ebp
	ret	4
??0CKeyLess@?$CUtlMap@PBDPAVIEntityFactory@@G@@QAE@P6A_NABQBD0@Z@Z ENDP ; CUtlMap<char const *,IEntityFactory *,unsigned short>::CKeyLess::CKeyLess
_TEXT	ENDS
; Function compile flags: /Odtp /ZI
; File d:\!diffusion 2020\source code 2022\client-server\game_shared\utlrbtree.h
;	COMDAT ?FindInsertionPosition@?$CUtlRBTree@UNode_t@?$CUtlMap@PBDPAVIEntityFactory@@G@@GVCKeyLess@2@V?$CUtlMemory@U?$UtlRBTreeNode_t@UNode_t@?$CUtlMap@PBDPAVIEntityFactory@@G@@G@@G@@@@IAEXABUNode_t@?$CUtlMap@PBDPAVIEntityFactory@@G@@AAGAA_N@Z
_TEXT	SEGMENT
_current$ = -8						; size = 2
_this$ = -4						; size = 4
_insert$ = 8						; size = 4
_parent$ = 12						; size = 4
_leftchild$ = 16					; size = 4
?FindInsertionPosition@?$CUtlRBTree@UNode_t@?$CUtlMap@PBDPAVIEntityFactory@@G@@GVCKeyLess@2@V?$CUtlMemory@U?$UtlRBTreeNode_t@UNode_t@?$CUtlMap@PBDPAVIEntityFactory@@G@@G@@G@@@@IAEXABUNode_t@?$CUtlMap@PBDPAVIEntityFactory@@G@@AAGAA_N@Z PROC ; CUtlRBTree<CUtlMap<char const *,IEntityFactory *,unsigned short>::Node_t,unsigned short,CUtlMap<char const *,IEntityFactory *,unsigned short>::CKeyLess,CUtlMemory<UtlRBTreeNode_t<CUtlMap<char const *,IEntityFactory *,unsigned short>::Node_t,unsigned short>,unsigned short> >::FindInsertionPosition, COMDAT
; _this$ = ecx

; 1444 : {

	push	ebp
	mov	ebp, esp
	sub	esp, 72					; 00000048H
	push	ebx
	push	esi
	push	edi
	mov	DWORD PTR _this$[ebp], ecx

; 1445 : 	assert( &m_LessFunc );

	cmp	DWORD PTR _this$[ebp], 0
	jne	SHORT $LN7@FindInsert
	push	1445					; 000005a5H
	push	OFFSET ??_C@_1JE@LJJIJLOD@?$AAd?$AA?3?$AA?2?$AA?$CB?$AAd?$AAi?$AAf?$AAf?$AAu?$AAs?$AAi?$AAo?$AAn?$AA?5?$AA2?$AA0?$AA2?$AA0?$AA?2?$AAs?$AAo?$AAu?$AAr?$AAc?$AAe?$AA?5?$AAc?$AAo?$AAd?$AAe?$AA?5?$AA2@
	push	OFFSET ??_C@_1BI@EHKAMAJG@?$AA?$CG?$AAm?$AA_?$AAL?$AAe?$AAs?$AAs?$AAF?$AAu?$AAn?$AAc?$AA?$AA@
	call	__wassert
	add	esp, 12					; 0000000cH
$LN7@FindInsert:

; 1446 : 
; 1447 : 	/* find where node belongs */
; 1448 : 	I current = m_Root;

	mov	eax, DWORD PTR _this$[ebp]
	mov	cx, WORD PTR [eax+16]
	mov	WORD PTR _current$[ebp], cx

; 1449 : 	parent = InvalidIndex();

	call	?InvalidIndex@?$CUtlRBTree@UNode_t@?$CUtlMap@PBDPAVIEntityFactory@@G@@GVCKeyLess@2@V?$CUtlMemory@U?$UtlRBTreeNode_t@UNode_t@?$CUtlMap@PBDPAVIEntityFactory@@G@@G@@G@@@@SAGXZ ; CUtlRBTree<CUtlMap<char const *,IEntityFactory *,unsigned short>::Node_t,unsigned short,CUtlMap<char const *,IEntityFactory *,unsigned short>::CKeyLess,CUtlMemory<UtlRBTreeNode_t<CUtlMap<char const *,IEntityFactory *,unsigned short>::Node_t,unsigned short>,unsigned short> >::InvalidIndex
	mov	ecx, DWORD PTR _parent$[ebp]
	mov	WORD PTR [ecx], ax

; 1450 : 	leftchild = false;

	mov	eax, DWORD PTR _leftchild$[ebp]
	mov	BYTE PTR [eax], 0
$LN2@FindInsert:

; 1451 : 	while (current != InvalidIndex()) 

	movzx	esi, WORD PTR _current$[ebp]
	call	?InvalidIndex@?$CUtlRBTree@UNode_t@?$CUtlMap@PBDPAVIEntityFactory@@G@@GVCKeyLess@2@V?$CUtlMemory@U?$UtlRBTreeNode_t@UNode_t@?$CUtlMap@PBDPAVIEntityFactory@@G@@G@@G@@@@SAGXZ ; CUtlRBTree<CUtlMap<char const *,IEntityFactory *,unsigned short>::Node_t,unsigned short,CUtlMap<char const *,IEntityFactory *,unsigned short>::CKeyLess,CUtlMemory<UtlRBTreeNode_t<CUtlMap<char const *,IEntityFactory *,unsigned short>::Node_t,unsigned short>,unsigned short> >::InvalidIndex
	movzx	eax, ax
	cmp	esi, eax
	je	SHORT $LN1@FindInsert

; 1452 : 	{
; 1453 : 		parent = current;

	mov	eax, DWORD PTR _parent$[ebp]
	mov	cx, WORD PTR _current$[ebp]
	mov	WORD PTR [eax], cx

; 1454 : 		if (m_LessFunc( insert, Element(current) ))

	movzx	eax, WORD PTR _current$[ebp]
	push	eax
	mov	ecx, DWORD PTR _this$[ebp]
	call	?Element@?$CUtlRBTree@UNode_t@?$CUtlMap@PBDPAVIEntityFactory@@G@@GVCKeyLess@2@V?$CUtlMemory@U?$UtlRBTreeNode_t@UNode_t@?$CUtlMap@PBDPAVIEntityFactory@@G@@G@@G@@@@QAEAAUNode_t@?$CUtlMap@PBDPAVIEntityFactory@@G@@G@Z ; CUtlRBTree<CUtlMap<char const *,IEntityFactory *,unsigned short>::Node_t,unsigned short,CUtlMap<char const *,IEntityFactory *,unsigned short>::CKeyLess,CUtlMemory<UtlRBTreeNode_t<CUtlMap<char const *,IEntityFactory *,unsigned short>::Node_t,unsigned short>,unsigned short> >::Element
	push	eax
	mov	ecx, DWORD PTR _insert$[ebp]
	push	ecx
	mov	ecx, DWORD PTR _this$[ebp]
	call	??RCKeyLess@?$CUtlMap@PBDPAVIEntityFactory@@G@@QBE_NABUNode_t@1@0@Z ; CUtlMap<char const *,IEntityFactory *,unsigned short>::CKeyLess::operator()
	movzx	edx, al
	test	edx, edx
	je	SHORT $LN4@FindInsert

; 1455 : 		{
; 1456 : 			leftchild = true; current = LeftChild(current);

	mov	eax, DWORD PTR _leftchild$[ebp]
	mov	BYTE PTR [eax], 1
	movzx	eax, WORD PTR _current$[ebp]
	push	eax
	mov	ecx, DWORD PTR _this$[ebp]
	call	?LeftChild@?$CUtlRBTree@UNode_t@?$CUtlMap@PBDPAVIEntityFactory@@G@@GVCKeyLess@2@V?$CUtlMemory@U?$UtlRBTreeNode_t@UNode_t@?$CUtlMap@PBDPAVIEntityFactory@@G@@G@@G@@@@QBEGG@Z ; CUtlRBTree<CUtlMap<char const *,IEntityFactory *,unsigned short>::Node_t,unsigned short,CUtlMap<char const *,IEntityFactory *,unsigned short>::CKeyLess,CUtlMemory<UtlRBTreeNode_t<CUtlMap<char const *,IEntityFactory *,unsigned short>::Node_t,unsigned short>,unsigned short> >::LeftChild
	mov	WORD PTR _current$[ebp], ax

; 1457 : 		}
; 1458 : 		else

	jmp	SHORT $LN5@FindInsert
$LN4@FindInsert:

; 1459 : 		{
; 1460 : 			leftchild = false; current = RightChild(current);

	mov	eax, DWORD PTR _leftchild$[ebp]
	mov	BYTE PTR [eax], 0
	movzx	eax, WORD PTR _current$[ebp]
	push	eax
	mov	ecx, DWORD PTR _this$[ebp]
	call	?RightChild@?$CUtlRBTree@UNode_t@?$CUtlMap@PBDPAVIEntityFactory@@G@@GVCKeyLess@2@V?$CUtlMemory@U?$UtlRBTreeNode_t@UNode_t@?$CUtlMap@PBDPAVIEntityFactory@@G@@G@@G@@@@QBEGG@Z ; CUtlRBTree<CUtlMap<char const *,IEntityFactory *,unsigned short>::Node_t,unsigned short,CUtlMap<char const *,IEntityFactory *,unsigned short>::CKeyLess,CUtlMemory<UtlRBTreeNode_t<CUtlMap<char const *,IEntityFactory *,unsigned short>::Node_t,unsigned short>,unsigned short> >::RightChild
	mov	WORD PTR _current$[ebp], ax
$LN5@FindInsert:

; 1461 : 		}
; 1462 : 	}

	jmp	SHORT $LN2@FindInsert
$LN1@FindInsert:

; 1463 : }

	pop	edi
	pop	esi
	pop	ebx
	mov	esp, ebp
	pop	ebp
	ret	12					; 0000000cH
?FindInsertionPosition@?$CUtlRBTree@UNode_t@?$CUtlMap@PBDPAVIEntityFactory@@G@@GVCKeyLess@2@V?$CUtlMemory@U?$UtlRBTreeNode_t@UNode_t@?$CUtlMap@PBDPAVIEntityFactory@@G@@G@@G@@@@IAEXABUNode_t@?$CUtlMap@PBDPAVIEntityFactory@@G@@AAGAA_N@Z ENDP ; CUtlRBTree<CUtlMap<char const *,IEntityFactory *,unsigned short>::Node_t,unsigned short,CUtlMap<char const *,IEntityFactory *,unsigned short>::CKeyLess,CUtlMemory<UtlRBTreeNode_t<CUtlMap<char const *,IEntityFactory *,unsigned short>::Node_t,unsigned short>,unsigned short> >::FindInsertionPosition
_TEXT	ENDS
; Function compile flags: /Odtp /ZI
; File d:\!diffusion 2020\source code 2022\client-server\game_shared\utlrbtree.h
;	COMDAT ?InsertAt@?$CUtlRBTree@UNode_t@?$CUtlMap@PBDPAVIEntityFactory@@G@@GVCKeyLess@2@V?$CUtlMemory@U?$UtlRBTreeNode_t@UNode_t@?$CUtlMap@PBDPAVIEntityFactory@@G@@G@@G@@@@IAEGG_N@Z
_TEXT	SEGMENT
_i$ = -8						; size = 2
_this$ = -4						; size = 4
_parent$ = 8						; size = 2
_leftchild$ = 12					; size = 1
?InsertAt@?$CUtlRBTree@UNode_t@?$CUtlMap@PBDPAVIEntityFactory@@G@@GVCKeyLess@2@V?$CUtlMemory@U?$UtlRBTreeNode_t@UNode_t@?$CUtlMap@PBDPAVIEntityFactory@@G@@G@@G@@@@IAEGG_N@Z PROC ; CUtlRBTree<CUtlMap<char const *,IEntityFactory *,unsigned short>::Node_t,unsigned short,CUtlMap<char const *,IEntityFactory *,unsigned short>::CKeyLess,CUtlMemory<UtlRBTreeNode_t<CUtlMap<char const *,IEntityFactory *,unsigned short>::Node_t,unsigned short>,unsigned short> >::InsertAt, COMDAT
; _this$ = ecx

; 843  : {

	push	ebp
	mov	ebp, esp
	sub	esp, 72					; 00000048H
	push	ebx
	push	esi
	push	edi
	mov	DWORD PTR _this$[ebp], ecx

; 844  : 	I i = NewNode();

	mov	ecx, DWORD PTR _this$[ebp]
	call	?NewNode@?$CUtlRBTree@UNode_t@?$CUtlMap@PBDPAVIEntityFactory@@G@@GVCKeyLess@2@V?$CUtlMemory@U?$UtlRBTreeNode_t@UNode_t@?$CUtlMap@PBDPAVIEntityFactory@@G@@G@@G@@@@QAEGXZ ; CUtlRBTree<CUtlMap<char const *,IEntityFactory *,unsigned short>::Node_t,unsigned short,CUtlMap<char const *,IEntityFactory *,unsigned short>::CKeyLess,CUtlMemory<UtlRBTreeNode_t<CUtlMap<char const *,IEntityFactory *,unsigned short>::Node_t,unsigned short>,unsigned short> >::NewNode
	mov	WORD PTR _i$[ebp], ax

; 845  : 	LinkToParent( i, parent, leftchild );

	movzx	eax, BYTE PTR _leftchild$[ebp]
	push	eax
	movzx	ecx, WORD PTR _parent$[ebp]
	push	ecx
	movzx	edx, WORD PTR _i$[ebp]
	push	edx
	mov	ecx, DWORD PTR _this$[ebp]
	call	?LinkToParent@?$CUtlRBTree@UNode_t@?$CUtlMap@PBDPAVIEntityFactory@@G@@GVCKeyLess@2@V?$CUtlMemory@U?$UtlRBTreeNode_t@UNode_t@?$CUtlMap@PBDPAVIEntityFactory@@G@@G@@G@@@@IAEXGG_N@Z ; CUtlRBTree<CUtlMap<char const *,IEntityFactory *,unsigned short>::Node_t,unsigned short,CUtlMap<char const *,IEntityFactory *,unsigned short>::CKeyLess,CUtlMemory<UtlRBTreeNode_t<CUtlMap<char const *,IEntityFactory *,unsigned short>::Node_t,unsigned short>,unsigned short> >::LinkToParent

; 846  : 	++m_NumElements;

	mov	eax, DWORD PTR _this$[ebp]
	mov	cx, WORD PTR [eax+18]
	add	cx, 1
	mov	edx, DWORD PTR _this$[ebp]
	mov	WORD PTR [edx+18], cx

; 847  : 
; 848  : 	assert(IsValid());

	mov	ecx, DWORD PTR _this$[ebp]
	call	?IsValid@?$CUtlRBTree@UNode_t@?$CUtlMap@PBDPAVIEntityFactory@@G@@GVCKeyLess@2@V?$CUtlMemory@U?$UtlRBTreeNode_t@UNode_t@?$CUtlMap@PBDPAVIEntityFactory@@G@@G@@G@@@@QBE_NXZ ; CUtlRBTree<CUtlMap<char const *,IEntityFactory *,unsigned short>::Node_t,unsigned short,CUtlMap<char const *,IEntityFactory *,unsigned short>::CKeyLess,CUtlMemory<UtlRBTreeNode_t<CUtlMap<char const *,IEntityFactory *,unsigned short>::Node_t,unsigned short>,unsigned short> >::IsValid
	movzx	eax, al
	test	eax, eax
	jne	SHORT $LN3@InsertAt
	push	848					; 00000350H
	push	OFFSET ??_C@_1JE@LJJIJLOD@?$AAd?$AA?3?$AA?2?$AA?$CB?$AAd?$AAi?$AAf?$AAf?$AAu?$AAs?$AAi?$AAo?$AAn?$AA?5?$AA2?$AA0?$AA2?$AA0?$AA?2?$AAs?$AAo?$AAu?$AAr?$AAc?$AAe?$AA?5?$AAc?$AAo?$AAd?$AAe?$AA?5?$AA2@
	push	OFFSET ??_C@_1BE@PGFEGIPI@?$AAI?$AAs?$AAV?$AAa?$AAl?$AAi?$AAd?$AA?$CI?$AA?$CJ?$AA?$AA@
	call	__wassert
	add	esp, 12					; 0000000cH
$LN3@InsertAt:

; 849  : 
; 850  : 	return i;

	mov	ax, WORD PTR _i$[ebp]

; 851  : }

	pop	edi
	pop	esi
	pop	ebx
	mov	esp, ebp
	pop	ebp
	ret	8
?InsertAt@?$CUtlRBTree@UNode_t@?$CUtlMap@PBDPAVIEntityFactory@@G@@GVCKeyLess@2@V?$CUtlMemory@U?$UtlRBTreeNode_t@UNode_t@?$CUtlMap@PBDPAVIEntityFactory@@G@@G@@G@@@@IAEGG_N@Z ENDP ; CUtlRBTree<CUtlMap<char const *,IEntityFactory *,unsigned short>::Node_t,unsigned short,CUtlMap<char const *,IEntityFactory *,unsigned short>::CKeyLess,CUtlMemory<UtlRBTreeNode_t<CUtlMap<char const *,IEntityFactory *,unsigned short>::Node_t,unsigned short>,unsigned short> >::InsertAt
_TEXT	ENDS
; Function compile flags: /Odtp /ZI
; File d:\!diffusion 2020\source code 2022\client-server\game_shared\utlrbtree.h
;	COMDAT ?InsertRebalance@?$CUtlRBTree@UNode_t@?$CUtlMap@PBDPAVIEntityFactory@@G@@GVCKeyLess@2@V?$CUtlMemory@U?$UtlRBTreeNode_t@UNode_t@?$CUtlMap@PBDPAVIEntityFactory@@G@@G@@G@@@@IAEXG@Z
_TEXT	SEGMENT
_uncle$1 = -20						; size = 2
_uncle$2 = -16						; size = 2
_grandparent$3 = -12					; size = 2
_parent$4 = -8						; size = 2
_this$ = -4						; size = 4
_elem$ = 8						; size = 2
?InsertRebalance@?$CUtlRBTree@UNode_t@?$CUtlMap@PBDPAVIEntityFactory@@G@@GVCKeyLess@2@V?$CUtlMemory@U?$UtlRBTreeNode_t@UNode_t@?$CUtlMap@PBDPAVIEntityFactory@@G@@G@@G@@@@IAEXG@Z PROC ; CUtlRBTree<CUtlMap<char const *,IEntityFactory *,unsigned short>::Node_t,unsigned short,CUtlMap<char const *,IEntityFactory *,unsigned short>::CKeyLess,CUtlMemory<UtlRBTreeNode_t<CUtlMap<char const *,IEntityFactory *,unsigned short>::Node_t,unsigned short>,unsigned short> >::InsertRebalance, COMDAT
; _this$ = ecx

; 768  : {

	push	ebp
	mov	ebp, esp
	sub	esp, 84					; 00000054H
	push	ebx
	push	esi
	push	edi
	mov	DWORD PTR _this$[ebp], ecx
$LN2@InsertReba:

; 769  : 	while ( !IsRoot(elem) && (Color(Parent(elem)) == RED) )

	movzx	eax, WORD PTR _elem$[ebp]
	push	eax
	mov	ecx, DWORD PTR _this$[ebp]
	call	?IsRoot@?$CUtlRBTree@UNode_t@?$CUtlMap@PBDPAVIEntityFactory@@G@@GVCKeyLess@2@V?$CUtlMemory@U?$UtlRBTreeNode_t@UNode_t@?$CUtlMap@PBDPAVIEntityFactory@@G@@G@@G@@@@QBE_NG@Z ; CUtlRBTree<CUtlMap<char const *,IEntityFactory *,unsigned short>::Node_t,unsigned short,CUtlMap<char const *,IEntityFactory *,unsigned short>::CKeyLess,CUtlMemory<UtlRBTreeNode_t<CUtlMap<char const *,IEntityFactory *,unsigned short>::Node_t,unsigned short>,unsigned short> >::IsRoot
	movzx	ecx, al
	test	ecx, ecx
	jne	$LN3@InsertReba
	movzx	eax, WORD PTR _elem$[ebp]
	push	eax
	mov	ecx, DWORD PTR _this$[ebp]
	call	?Parent@?$CUtlRBTree@UNode_t@?$CUtlMap@PBDPAVIEntityFactory@@G@@GVCKeyLess@2@V?$CUtlMemory@U?$UtlRBTreeNode_t@UNode_t@?$CUtlMap@PBDPAVIEntityFactory@@G@@G@@G@@@@QBEGG@Z ; CUtlRBTree<CUtlMap<char const *,IEntityFactory *,unsigned short>::Node_t,unsigned short,CUtlMap<char const *,IEntityFactory *,unsigned short>::CKeyLess,CUtlMemory<UtlRBTreeNode_t<CUtlMap<char const *,IEntityFactory *,unsigned short>::Node_t,unsigned short>,unsigned short> >::Parent
	movzx	ecx, ax
	push	ecx
	mov	ecx, DWORD PTR _this$[ebp]
	call	?Color@?$CUtlRBTree@UNode_t@?$CUtlMap@PBDPAVIEntityFactory@@G@@GVCKeyLess@2@V?$CUtlMemory@U?$UtlRBTreeNode_t@UNode_t@?$CUtlMap@PBDPAVIEntityFactory@@G@@G@@G@@@@IBE?AW4NodeColor_t@1@G@Z ; CUtlRBTree<CUtlMap<char const *,IEntityFactory *,unsigned short>::Node_t,unsigned short,CUtlMap<char const *,IEntityFactory *,unsigned short>::CKeyLess,CUtlMemory<UtlRBTreeNode_t<CUtlMap<char const *,IEntityFactory *,unsigned short>::Node_t,unsigned short>,unsigned short> >::Color
	test	eax, eax
	jne	$LN3@InsertReba

; 770  : 	{
; 771  : 		I parent = Parent(elem);

	movzx	eax, WORD PTR _elem$[ebp]
	push	eax
	mov	ecx, DWORD PTR _this$[ebp]
	call	?Parent@?$CUtlRBTree@UNode_t@?$CUtlMap@PBDPAVIEntityFactory@@G@@GVCKeyLess@2@V?$CUtlMemory@U?$UtlRBTreeNode_t@UNode_t@?$CUtlMap@PBDPAVIEntityFactory@@G@@G@@G@@@@QBEGG@Z ; CUtlRBTree<CUtlMap<char const *,IEntityFactory *,unsigned short>::Node_t,unsigned short,CUtlMap<char const *,IEntityFactory *,unsigned short>::CKeyLess,CUtlMemory<UtlRBTreeNode_t<CUtlMap<char const *,IEntityFactory *,unsigned short>::Node_t,unsigned short>,unsigned short> >::Parent
	mov	WORD PTR _parent$4[ebp], ax

; 772  : 		I grandparent = Parent(parent);

	movzx	eax, WORD PTR _parent$4[ebp]
	push	eax
	mov	ecx, DWORD PTR _this$[ebp]
	call	?Parent@?$CUtlRBTree@UNode_t@?$CUtlMap@PBDPAVIEntityFactory@@G@@GVCKeyLess@2@V?$CUtlMemory@U?$UtlRBTreeNode_t@UNode_t@?$CUtlMap@PBDPAVIEntityFactory@@G@@G@@G@@@@QBEGG@Z ; CUtlRBTree<CUtlMap<char const *,IEntityFactory *,unsigned short>::Node_t,unsigned short,CUtlMap<char const *,IEntityFactory *,unsigned short>::CKeyLess,CUtlMemory<UtlRBTreeNode_t<CUtlMap<char const *,IEntityFactory *,unsigned short>::Node_t,unsigned short>,unsigned short> >::Parent
	mov	WORD PTR _grandparent$3[ebp], ax

; 773  : 
; 774  : 		/* we have a violation */
; 775  : 		if (IsLeftChild(parent))

	movzx	eax, WORD PTR _parent$4[ebp]
	push	eax
	mov	ecx, DWORD PTR _this$[ebp]
	call	?IsLeftChild@?$CUtlRBTree@UNode_t@?$CUtlMap@PBDPAVIEntityFactory@@G@@GVCKeyLess@2@V?$CUtlMemory@U?$UtlRBTreeNode_t@UNode_t@?$CUtlMap@PBDPAVIEntityFactory@@G@@G@@G@@@@QBE_NG@Z ; CUtlRBTree<CUtlMap<char const *,IEntityFactory *,unsigned short>::Node_t,unsigned short,CUtlMap<char const *,IEntityFactory *,unsigned short>::CKeyLess,CUtlMemory<UtlRBTreeNode_t<CUtlMap<char const *,IEntityFactory *,unsigned short>::Node_t,unsigned short>,unsigned short> >::IsLeftChild
	movzx	ecx, al
	test	ecx, ecx
	je	$LN4@InsertReba

; 776  : 		{
; 777  : 			I uncle = RightChild(grandparent);

	movzx	eax, WORD PTR _grandparent$3[ebp]
	push	eax
	mov	ecx, DWORD PTR _this$[ebp]
	call	?RightChild@?$CUtlRBTree@UNode_t@?$CUtlMap@PBDPAVIEntityFactory@@G@@GVCKeyLess@2@V?$CUtlMemory@U?$UtlRBTreeNode_t@UNode_t@?$CUtlMap@PBDPAVIEntityFactory@@G@@G@@G@@@@QBEGG@Z ; CUtlRBTree<CUtlMap<char const *,IEntityFactory *,unsigned short>::Node_t,unsigned short,CUtlMap<char const *,IEntityFactory *,unsigned short>::CKeyLess,CUtlMemory<UtlRBTreeNode_t<CUtlMap<char const *,IEntityFactory *,unsigned short>::Node_t,unsigned short>,unsigned short> >::RightChild
	mov	WORD PTR _uncle$2[ebp], ax

; 778  : 			if (IsRed(uncle)) 

	movzx	eax, WORD PTR _uncle$2[ebp]
	push	eax
	mov	ecx, DWORD PTR _this$[ebp]
	call	?IsRed@?$CUtlRBTree@UNode_t@?$CUtlMap@PBDPAVIEntityFactory@@G@@GVCKeyLess@2@V?$CUtlMemory@U?$UtlRBTreeNode_t@UNode_t@?$CUtlMap@PBDPAVIEntityFactory@@G@@G@@G@@@@IBE_NG@Z ; CUtlRBTree<CUtlMap<char const *,IEntityFactory *,unsigned short>::Node_t,unsigned short,CUtlMap<char const *,IEntityFactory *,unsigned short>::CKeyLess,CUtlMemory<UtlRBTreeNode_t<CUtlMap<char const *,IEntityFactory *,unsigned short>::Node_t,unsigned short>,unsigned short> >::IsRed
	movzx	ecx, al
	test	ecx, ecx
	je	SHORT $LN6@InsertReba

; 779  : 			{
; 780  : 				/* uncle is RED */
; 781  : 				SetColor(parent, BLACK);

	push	1
	movzx	eax, WORD PTR _parent$4[ebp]
	push	eax
	mov	ecx, DWORD PTR _this$[ebp]
	call	?SetColor@?$CUtlRBTree@UNode_t@?$CUtlMap@PBDPAVIEntityFactory@@G@@GVCKeyLess@2@V?$CUtlMemory@U?$UtlRBTreeNode_t@UNode_t@?$CUtlMap@PBDPAVIEntityFactory@@G@@G@@G@@@@IAEXGW4NodeColor_t@1@@Z ; CUtlRBTree<CUtlMap<char const *,IEntityFactory *,unsigned short>::Node_t,unsigned short,CUtlMap<char const *,IEntityFactory *,unsigned short>::CKeyLess,CUtlMemory<UtlRBTreeNode_t<CUtlMap<char const *,IEntityFactory *,unsigned short>::Node_t,unsigned short>,unsigned short> >::SetColor

; 782  : 				SetColor(uncle, BLACK);

	push	1
	movzx	eax, WORD PTR _uncle$2[ebp]
	push	eax
	mov	ecx, DWORD PTR _this$[ebp]
	call	?SetColor@?$CUtlRBTree@UNode_t@?$CUtlMap@PBDPAVIEntityFactory@@G@@GVCKeyLess@2@V?$CUtlMemory@U?$UtlRBTreeNode_t@UNode_t@?$CUtlMap@PBDPAVIEntityFactory@@G@@G@@G@@@@IAEXGW4NodeColor_t@1@@Z ; CUtlRBTree<CUtlMap<char const *,IEntityFactory *,unsigned short>::Node_t,unsigned short,CUtlMap<char const *,IEntityFactory *,unsigned short>::CKeyLess,CUtlMemory<UtlRBTreeNode_t<CUtlMap<char const *,IEntityFactory *,unsigned short>::Node_t,unsigned short>,unsigned short> >::SetColor

; 783  : 				SetColor(grandparent, RED);

	push	0
	movzx	eax, WORD PTR _grandparent$3[ebp]
	push	eax
	mov	ecx, DWORD PTR _this$[ebp]
	call	?SetColor@?$CUtlRBTree@UNode_t@?$CUtlMap@PBDPAVIEntityFactory@@G@@GVCKeyLess@2@V?$CUtlMemory@U?$UtlRBTreeNode_t@UNode_t@?$CUtlMap@PBDPAVIEntityFactory@@G@@G@@G@@@@IAEXGW4NodeColor_t@1@@Z ; CUtlRBTree<CUtlMap<char const *,IEntityFactory *,unsigned short>::Node_t,unsigned short,CUtlMap<char const *,IEntityFactory *,unsigned short>::CKeyLess,CUtlMemory<UtlRBTreeNode_t<CUtlMap<char const *,IEntityFactory *,unsigned short>::Node_t,unsigned short>,unsigned short> >::SetColor

; 784  : 				elem = grandparent;

	mov	ax, WORD PTR _grandparent$3[ebp]
	mov	WORD PTR _elem$[ebp], ax

; 785  : 			} 
; 786  : 			else 

	jmp	SHORT $LN7@InsertReba
$LN6@InsertReba:

; 787  : 			{
; 788  : 				/* uncle is BLACK */
; 789  : 				if (IsRightChild(elem))

	movzx	eax, WORD PTR _elem$[ebp]
	push	eax
	mov	ecx, DWORD PTR _this$[ebp]
	call	?IsRightChild@?$CUtlRBTree@UNode_t@?$CUtlMap@PBDPAVIEntityFactory@@G@@GVCKeyLess@2@V?$CUtlMemory@U?$UtlRBTreeNode_t@UNode_t@?$CUtlMap@PBDPAVIEntityFactory@@G@@G@@G@@@@QBE_NG@Z ; CUtlRBTree<CUtlMap<char const *,IEntityFactory *,unsigned short>::Node_t,unsigned short,CUtlMap<char const *,IEntityFactory *,unsigned short>::CKeyLess,CUtlMemory<UtlRBTreeNode_t<CUtlMap<char const *,IEntityFactory *,unsigned short>::Node_t,unsigned short>,unsigned short> >::IsRightChild
	movzx	ecx, al
	test	ecx, ecx
	je	SHORT $LN8@InsertReba

; 790  : 				{
; 791  : 					/* make x a left child, will change parent and grandparent */
; 792  : 					elem = parent;

	mov	ax, WORD PTR _parent$4[ebp]
	mov	WORD PTR _elem$[ebp], ax

; 793  : 					RotateLeft(elem);

	movzx	eax, WORD PTR _elem$[ebp]
	push	eax
	mov	ecx, DWORD PTR _this$[ebp]
	call	?RotateLeft@?$CUtlRBTree@UNode_t@?$CUtlMap@PBDPAVIEntityFactory@@G@@GVCKeyLess@2@V?$CUtlMemory@U?$UtlRBTreeNode_t@UNode_t@?$CUtlMap@PBDPAVIEntityFactory@@G@@G@@G@@@@IAEXG@Z ; CUtlRBTree<CUtlMap<char const *,IEntityFactory *,unsigned short>::Node_t,unsigned short,CUtlMap<char const *,IEntityFactory *,unsigned short>::CKeyLess,CUtlMemory<UtlRBTreeNode_t<CUtlMap<char const *,IEntityFactory *,unsigned short>::Node_t,unsigned short>,unsigned short> >::RotateLeft

; 794  : 					parent = Parent(elem);

	movzx	eax, WORD PTR _elem$[ebp]
	push	eax
	mov	ecx, DWORD PTR _this$[ebp]
	call	?Parent@?$CUtlRBTree@UNode_t@?$CUtlMap@PBDPAVIEntityFactory@@G@@GVCKeyLess@2@V?$CUtlMemory@U?$UtlRBTreeNode_t@UNode_t@?$CUtlMap@PBDPAVIEntityFactory@@G@@G@@G@@@@QBEGG@Z ; CUtlRBTree<CUtlMap<char const *,IEntityFactory *,unsigned short>::Node_t,unsigned short,CUtlMap<char const *,IEntityFactory *,unsigned short>::CKeyLess,CUtlMemory<UtlRBTreeNode_t<CUtlMap<char const *,IEntityFactory *,unsigned short>::Node_t,unsigned short>,unsigned short> >::Parent
	mov	WORD PTR _parent$4[ebp], ax

; 795  : 					grandparent = Parent(parent);

	movzx	eax, WORD PTR _parent$4[ebp]
	push	eax
	mov	ecx, DWORD PTR _this$[ebp]
	call	?Parent@?$CUtlRBTree@UNode_t@?$CUtlMap@PBDPAVIEntityFactory@@G@@GVCKeyLess@2@V?$CUtlMemory@U?$UtlRBTreeNode_t@UNode_t@?$CUtlMap@PBDPAVIEntityFactory@@G@@G@@G@@@@QBEGG@Z ; CUtlRBTree<CUtlMap<char const *,IEntityFactory *,unsigned short>::Node_t,unsigned short,CUtlMap<char const *,IEntityFactory *,unsigned short>::CKeyLess,CUtlMemory<UtlRBTreeNode_t<CUtlMap<char const *,IEntityFactory *,unsigned short>::Node_t,unsigned short>,unsigned short> >::Parent
	mov	WORD PTR _grandparent$3[ebp], ax
$LN8@InsertReba:

; 796  : 				}
; 797  : 				/* recolor and rotate */
; 798  : 				SetColor(parent, BLACK);

	push	1
	movzx	eax, WORD PTR _parent$4[ebp]
	push	eax
	mov	ecx, DWORD PTR _this$[ebp]
	call	?SetColor@?$CUtlRBTree@UNode_t@?$CUtlMap@PBDPAVIEntityFactory@@G@@GVCKeyLess@2@V?$CUtlMemory@U?$UtlRBTreeNode_t@UNode_t@?$CUtlMap@PBDPAVIEntityFactory@@G@@G@@G@@@@IAEXGW4NodeColor_t@1@@Z ; CUtlRBTree<CUtlMap<char const *,IEntityFactory *,unsigned short>::Node_t,unsigned short,CUtlMap<char const *,IEntityFactory *,unsigned short>::CKeyLess,CUtlMemory<UtlRBTreeNode_t<CUtlMap<char const *,IEntityFactory *,unsigned short>::Node_t,unsigned short>,unsigned short> >::SetColor

; 799  : 				SetColor(grandparent, RED);

	push	0
	movzx	eax, WORD PTR _grandparent$3[ebp]
	push	eax
	mov	ecx, DWORD PTR _this$[ebp]
	call	?SetColor@?$CUtlRBTree@UNode_t@?$CUtlMap@PBDPAVIEntityFactory@@G@@GVCKeyLess@2@V?$CUtlMemory@U?$UtlRBTreeNode_t@UNode_t@?$CUtlMap@PBDPAVIEntityFactory@@G@@G@@G@@@@IAEXGW4NodeColor_t@1@@Z ; CUtlRBTree<CUtlMap<char const *,IEntityFactory *,unsigned short>::Node_t,unsigned short,CUtlMap<char const *,IEntityFactory *,unsigned short>::CKeyLess,CUtlMemory<UtlRBTreeNode_t<CUtlMap<char const *,IEntityFactory *,unsigned short>::Node_t,unsigned short>,unsigned short> >::SetColor

; 800  : 				RotateRight(grandparent);

	movzx	eax, WORD PTR _grandparent$3[ebp]
	push	eax
	mov	ecx, DWORD PTR _this$[ebp]
	call	?RotateRight@?$CUtlRBTree@UNode_t@?$CUtlMap@PBDPAVIEntityFactory@@G@@GVCKeyLess@2@V?$CUtlMemory@U?$UtlRBTreeNode_t@UNode_t@?$CUtlMap@PBDPAVIEntityFactory@@G@@G@@G@@@@IAEXG@Z ; CUtlRBTree<CUtlMap<char const *,IEntityFactory *,unsigned short>::Node_t,unsigned short,CUtlMap<char const *,IEntityFactory *,unsigned short>::CKeyLess,CUtlMemory<UtlRBTreeNode_t<CUtlMap<char const *,IEntityFactory *,unsigned short>::Node_t,unsigned short>,unsigned short> >::RotateRight
$LN7@InsertReba:

; 801  : 			}
; 802  : 		} 
; 803  : 		else 

	jmp	$LN5@InsertReba
$LN4@InsertReba:

; 804  : 		{
; 805  : 			/* mirror image of above code */
; 806  : 			I uncle = LeftChild(grandparent);

	movzx	eax, WORD PTR _grandparent$3[ebp]
	push	eax
	mov	ecx, DWORD PTR _this$[ebp]
	call	?LeftChild@?$CUtlRBTree@UNode_t@?$CUtlMap@PBDPAVIEntityFactory@@G@@GVCKeyLess@2@V?$CUtlMemory@U?$UtlRBTreeNode_t@UNode_t@?$CUtlMap@PBDPAVIEntityFactory@@G@@G@@G@@@@QBEGG@Z ; CUtlRBTree<CUtlMap<char const *,IEntityFactory *,unsigned short>::Node_t,unsigned short,CUtlMap<char const *,IEntityFactory *,unsigned short>::CKeyLess,CUtlMemory<UtlRBTreeNode_t<CUtlMap<char const *,IEntityFactory *,unsigned short>::Node_t,unsigned short>,unsigned short> >::LeftChild
	mov	WORD PTR _uncle$1[ebp], ax

; 807  : 			if (IsRed(uncle)) 

	movzx	eax, WORD PTR _uncle$1[ebp]
	push	eax
	mov	ecx, DWORD PTR _this$[ebp]
	call	?IsRed@?$CUtlRBTree@UNode_t@?$CUtlMap@PBDPAVIEntityFactory@@G@@GVCKeyLess@2@V?$CUtlMemory@U?$UtlRBTreeNode_t@UNode_t@?$CUtlMap@PBDPAVIEntityFactory@@G@@G@@G@@@@IBE_NG@Z ; CUtlRBTree<CUtlMap<char const *,IEntityFactory *,unsigned short>::Node_t,unsigned short,CUtlMap<char const *,IEntityFactory *,unsigned short>::CKeyLess,CUtlMemory<UtlRBTreeNode_t<CUtlMap<char const *,IEntityFactory *,unsigned short>::Node_t,unsigned short>,unsigned short> >::IsRed
	movzx	ecx, al
	test	ecx, ecx
	je	SHORT $LN9@InsertReba

; 808  : 			{
; 809  : 				/* uncle is RED */
; 810  : 				SetColor(parent, BLACK);

	push	1
	movzx	eax, WORD PTR _parent$4[ebp]
	push	eax
	mov	ecx, DWORD PTR _this$[ebp]
	call	?SetColor@?$CUtlRBTree@UNode_t@?$CUtlMap@PBDPAVIEntityFactory@@G@@GVCKeyLess@2@V?$CUtlMemory@U?$UtlRBTreeNode_t@UNode_t@?$CUtlMap@PBDPAVIEntityFactory@@G@@G@@G@@@@IAEXGW4NodeColor_t@1@@Z ; CUtlRBTree<CUtlMap<char const *,IEntityFactory *,unsigned short>::Node_t,unsigned short,CUtlMap<char const *,IEntityFactory *,unsigned short>::CKeyLess,CUtlMemory<UtlRBTreeNode_t<CUtlMap<char const *,IEntityFactory *,unsigned short>::Node_t,unsigned short>,unsigned short> >::SetColor

; 811  : 				SetColor(uncle, BLACK);

	push	1
	movzx	eax, WORD PTR _uncle$1[ebp]
	push	eax
	mov	ecx, DWORD PTR _this$[ebp]
	call	?SetColor@?$CUtlRBTree@UNode_t@?$CUtlMap@PBDPAVIEntityFactory@@G@@GVCKeyLess@2@V?$CUtlMemory@U?$UtlRBTreeNode_t@UNode_t@?$CUtlMap@PBDPAVIEntityFactory@@G@@G@@G@@@@IAEXGW4NodeColor_t@1@@Z ; CUtlRBTree<CUtlMap<char const *,IEntityFactory *,unsigned short>::Node_t,unsigned short,CUtlMap<char const *,IEntityFactory *,unsigned short>::CKeyLess,CUtlMemory<UtlRBTreeNode_t<CUtlMap<char const *,IEntityFactory *,unsigned short>::Node_t,unsigned short>,unsigned short> >::SetColor

; 812  : 				SetColor(grandparent, RED);

	push	0
	movzx	eax, WORD PTR _grandparent$3[ebp]
	push	eax
	mov	ecx, DWORD PTR _this$[ebp]
	call	?SetColor@?$CUtlRBTree@UNode_t@?$CUtlMap@PBDPAVIEntityFactory@@G@@GVCKeyLess@2@V?$CUtlMemory@U?$UtlRBTreeNode_t@UNode_t@?$CUtlMap@PBDPAVIEntityFactory@@G@@G@@G@@@@IAEXGW4NodeColor_t@1@@Z ; CUtlRBTree<CUtlMap<char const *,IEntityFactory *,unsigned short>::Node_t,unsigned short,CUtlMap<char const *,IEntityFactory *,unsigned short>::CKeyLess,CUtlMemory<UtlRBTreeNode_t<CUtlMap<char const *,IEntityFactory *,unsigned short>::Node_t,unsigned short>,unsigned short> >::SetColor

; 813  : 				elem = grandparent;

	mov	ax, WORD PTR _grandparent$3[ebp]
	mov	WORD PTR _elem$[ebp], ax

; 814  : 			} 
; 815  : 			else 

	jmp	SHORT $LN5@InsertReba
$LN9@InsertReba:

; 816  : 			{
; 817  : 				/* uncle is BLACK */
; 818  : 				if (IsLeftChild(elem))

	movzx	eax, WORD PTR _elem$[ebp]
	push	eax
	mov	ecx, DWORD PTR _this$[ebp]
	call	?IsLeftChild@?$CUtlRBTree@UNode_t@?$CUtlMap@PBDPAVIEntityFactory@@G@@GVCKeyLess@2@V?$CUtlMemory@U?$UtlRBTreeNode_t@UNode_t@?$CUtlMap@PBDPAVIEntityFactory@@G@@G@@G@@@@QBE_NG@Z ; CUtlRBTree<CUtlMap<char const *,IEntityFactory *,unsigned short>::Node_t,unsigned short,CUtlMap<char const *,IEntityFactory *,unsigned short>::CKeyLess,CUtlMemory<UtlRBTreeNode_t<CUtlMap<char const *,IEntityFactory *,unsigned short>::Node_t,unsigned short>,unsigned short> >::IsLeftChild
	movzx	ecx, al
	test	ecx, ecx
	je	SHORT $LN11@InsertReba

; 819  : 				{
; 820  : 					/* make x a right child, will change parent and grandparent */
; 821  : 					elem = parent;

	mov	ax, WORD PTR _parent$4[ebp]
	mov	WORD PTR _elem$[ebp], ax

; 822  : 					RotateRight(parent);

	movzx	eax, WORD PTR _parent$4[ebp]
	push	eax
	mov	ecx, DWORD PTR _this$[ebp]
	call	?RotateRight@?$CUtlRBTree@UNode_t@?$CUtlMap@PBDPAVIEntityFactory@@G@@GVCKeyLess@2@V?$CUtlMemory@U?$UtlRBTreeNode_t@UNode_t@?$CUtlMap@PBDPAVIEntityFactory@@G@@G@@G@@@@IAEXG@Z ; CUtlRBTree<CUtlMap<char const *,IEntityFactory *,unsigned short>::Node_t,unsigned short,CUtlMap<char const *,IEntityFactory *,unsigned short>::CKeyLess,CUtlMemory<UtlRBTreeNode_t<CUtlMap<char const *,IEntityFactory *,unsigned short>::Node_t,unsigned short>,unsigned short> >::RotateRight

; 823  : 					parent = Parent(elem);

	movzx	eax, WORD PTR _elem$[ebp]
	push	eax
	mov	ecx, DWORD PTR _this$[ebp]
	call	?Parent@?$CUtlRBTree@UNode_t@?$CUtlMap@PBDPAVIEntityFactory@@G@@GVCKeyLess@2@V?$CUtlMemory@U?$UtlRBTreeNode_t@UNode_t@?$CUtlMap@PBDPAVIEntityFactory@@G@@G@@G@@@@QBEGG@Z ; CUtlRBTree<CUtlMap<char const *,IEntityFactory *,unsigned short>::Node_t,unsigned short,CUtlMap<char const *,IEntityFactory *,unsigned short>::CKeyLess,CUtlMemory<UtlRBTreeNode_t<CUtlMap<char const *,IEntityFactory *,unsigned short>::Node_t,unsigned short>,unsigned short> >::Parent
	mov	WORD PTR _parent$4[ebp], ax

; 824  : 					grandparent = Parent(parent);

	movzx	eax, WORD PTR _parent$4[ebp]
	push	eax
	mov	ecx, DWORD PTR _this$[ebp]
	call	?Parent@?$CUtlRBTree@UNode_t@?$CUtlMap@PBDPAVIEntityFactory@@G@@GVCKeyLess@2@V?$CUtlMemory@U?$UtlRBTreeNode_t@UNode_t@?$CUtlMap@PBDPAVIEntityFactory@@G@@G@@G@@@@QBEGG@Z ; CUtlRBTree<CUtlMap<char const *,IEntityFactory *,unsigned short>::Node_t,unsigned short,CUtlMap<char const *,IEntityFactory *,unsigned short>::CKeyLess,CUtlMemory<UtlRBTreeNode_t<CUtlMap<char const *,IEntityFactory *,unsigned short>::Node_t,unsigned short>,unsigned short> >::Parent
	mov	WORD PTR _grandparent$3[ebp], ax
$LN11@InsertReba:

; 825  : 				}
; 826  : 				/* recolor and rotate */
; 827  : 				SetColor(parent, BLACK);

	push	1
	movzx	eax, WORD PTR _parent$4[ebp]
	push	eax
	mov	ecx, DWORD PTR _this$[ebp]
	call	?SetColor@?$CUtlRBTree@UNode_t@?$CUtlMap@PBDPAVIEntityFactory@@G@@GVCKeyLess@2@V?$CUtlMemory@U?$UtlRBTreeNode_t@UNode_t@?$CUtlMap@PBDPAVIEntityFactory@@G@@G@@G@@@@IAEXGW4NodeColor_t@1@@Z ; CUtlRBTree<CUtlMap<char const *,IEntityFactory *,unsigned short>::Node_t,unsigned short,CUtlMap<char const *,IEntityFactory *,unsigned short>::CKeyLess,CUtlMemory<UtlRBTreeNode_t<CUtlMap<char const *,IEntityFactory *,unsigned short>::Node_t,unsigned short>,unsigned short> >::SetColor

; 828  : 				SetColor(grandparent, RED);

	push	0
	movzx	eax, WORD PTR _grandparent$3[ebp]
	push	eax
	mov	ecx, DWORD PTR _this$[ebp]
	call	?SetColor@?$CUtlRBTree@UNode_t@?$CUtlMap@PBDPAVIEntityFactory@@G@@GVCKeyLess@2@V?$CUtlMemory@U?$UtlRBTreeNode_t@UNode_t@?$CUtlMap@PBDPAVIEntityFactory@@G@@G@@G@@@@IAEXGW4NodeColor_t@1@@Z ; CUtlRBTree<CUtlMap<char const *,IEntityFactory *,unsigned short>::Node_t,unsigned short,CUtlMap<char const *,IEntityFactory *,unsigned short>::CKeyLess,CUtlMemory<UtlRBTreeNode_t<CUtlMap<char const *,IEntityFactory *,unsigned short>::Node_t,unsigned short>,unsigned short> >::SetColor

; 829  : 				RotateLeft(grandparent);

	movzx	eax, WORD PTR _grandparent$3[ebp]
	push	eax
	mov	ecx, DWORD PTR _this$[ebp]
	call	?RotateLeft@?$CUtlRBTree@UNode_t@?$CUtlMap@PBDPAVIEntityFactory@@G@@GVCKeyLess@2@V?$CUtlMemory@U?$UtlRBTreeNode_t@UNode_t@?$CUtlMap@PBDPAVIEntityFactory@@G@@G@@G@@@@IAEXG@Z ; CUtlRBTree<CUtlMap<char const *,IEntityFactory *,unsigned short>::Node_t,unsigned short,CUtlMap<char const *,IEntityFactory *,unsigned short>::CKeyLess,CUtlMemory<UtlRBTreeNode_t<CUtlMap<char const *,IEntityFactory *,unsigned short>::Node_t,unsigned short>,unsigned short> >::RotateLeft
$LN5@InsertReba:

; 830  : 			}
; 831  : 		}
; 832  : 	}

	jmp	$LN2@InsertReba
$LN3@InsertReba:

; 833  : 	SetColor( m_Root, BLACK );

	push	1
	mov	eax, DWORD PTR _this$[ebp]
	movzx	ecx, WORD PTR [eax+16]
	push	ecx
	mov	ecx, DWORD PTR _this$[ebp]
	call	?SetColor@?$CUtlRBTree@UNode_t@?$CUtlMap@PBDPAVIEntityFactory@@G@@GVCKeyLess@2@V?$CUtlMemory@U?$UtlRBTreeNode_t@UNode_t@?$CUtlMap@PBDPAVIEntityFactory@@G@@G@@G@@@@IAEXGW4NodeColor_t@1@@Z ; CUtlRBTree<CUtlMap<char const *,IEntityFactory *,unsigned short>::Node_t,unsigned short,CUtlMap<char const *,IEntityFactory *,unsigned short>::CKeyLess,CUtlMemory<UtlRBTreeNode_t<CUtlMap<char const *,IEntityFactory *,unsigned short>::Node_t,unsigned short>,unsigned short> >::SetColor

; 834  : }

	pop	edi
	pop	esi
	pop	ebx
	mov	esp, ebp
	pop	ebp
	ret	4
?InsertRebalance@?$CUtlRBTree@UNode_t@?$CUtlMap@PBDPAVIEntityFactory@@G@@GVCKeyLess@2@V?$CUtlMemory@U?$UtlRBTreeNode_t@UNode_t@?$CUtlMap@PBDPAVIEntityFactory@@G@@G@@G@@@@IAEXG@Z ENDP ; CUtlRBTree<CUtlMap<char const *,IEntityFactory *,unsigned short>::Node_t,unsigned short,CUtlMap<char const *,IEntityFactory *,unsigned short>::CKeyLess,CUtlMemory<UtlRBTreeNode_t<CUtlMap<char const *,IEntityFactory *,unsigned short>::Node_t,unsigned short>,unsigned short> >::InsertRebalance
_TEXT	ENDS
; Function compile flags: /Odtp /ZI
; File d:\!diffusion 2020\source code 2022\client-server\game_shared\utlrbtree.h
;	COMDAT ?RotateRight@?$CUtlRBTree@UNode_t@?$CUtlMap@PBDPAVIEntityFactory@@G@@GVCKeyLess@2@V?$CUtlMemory@U?$UtlRBTreeNode_t@UNode_t@?$CUtlMap@PBDPAVIEntityFactory@@G@@G@@G@@@@IAEXG@Z
_TEXT	SEGMENT
_leftchild$ = -8					; size = 2
_this$ = -4						; size = 4
_elem$ = 8						; size = 2
?RotateRight@?$CUtlRBTree@UNode_t@?$CUtlMap@PBDPAVIEntityFactory@@G@@GVCKeyLess@2@V?$CUtlMemory@U?$UtlRBTreeNode_t@UNode_t@?$CUtlMap@PBDPAVIEntityFactory@@G@@G@@G@@@@IAEXG@Z PROC ; CUtlRBTree<CUtlMap<char const *,IEntityFactory *,unsigned short>::Node_t,unsigned short,CUtlMap<char const *,IEntityFactory *,unsigned short>::CKeyLess,CUtlMemory<UtlRBTreeNode_t<CUtlMap<char const *,IEntityFactory *,unsigned short>::Node_t,unsigned short>,unsigned short> >::RotateRight, COMDAT
; _this$ = ecx

; 738  : {

	push	ebp
	mov	ebp, esp
	sub	esp, 72					; 00000048H
	push	ebx
	push	esi
	push	edi
	mov	DWORD PTR _this$[ebp], ecx

; 739  : 	I leftchild = LeftChild(elem);

	movzx	eax, WORD PTR _elem$[ebp]
	push	eax
	mov	ecx, DWORD PTR _this$[ebp]
	call	?LeftChild@?$CUtlRBTree@UNode_t@?$CUtlMap@PBDPAVIEntityFactory@@G@@GVCKeyLess@2@V?$CUtlMemory@U?$UtlRBTreeNode_t@UNode_t@?$CUtlMap@PBDPAVIEntityFactory@@G@@G@@G@@@@QBEGG@Z ; CUtlRBTree<CUtlMap<char const *,IEntityFactory *,unsigned short>::Node_t,unsigned short,CUtlMap<char const *,IEntityFactory *,unsigned short>::CKeyLess,CUtlMemory<UtlRBTreeNode_t<CUtlMap<char const *,IEntityFactory *,unsigned short>::Node_t,unsigned short>,unsigned short> >::LeftChild
	mov	WORD PTR _leftchild$[ebp], ax

; 740  : 	SetLeftChild( elem, RightChild(leftchild) );

	movzx	eax, WORD PTR _leftchild$[ebp]
	push	eax
	mov	ecx, DWORD PTR _this$[ebp]
	call	?RightChild@?$CUtlRBTree@UNode_t@?$CUtlMap@PBDPAVIEntityFactory@@G@@GVCKeyLess@2@V?$CUtlMemory@U?$UtlRBTreeNode_t@UNode_t@?$CUtlMap@PBDPAVIEntityFactory@@G@@G@@G@@@@QBEGG@Z ; CUtlRBTree<CUtlMap<char const *,IEntityFactory *,unsigned short>::Node_t,unsigned short,CUtlMap<char const *,IEntityFactory *,unsigned short>::CKeyLess,CUtlMemory<UtlRBTreeNode_t<CUtlMap<char const *,IEntityFactory *,unsigned short>::Node_t,unsigned short>,unsigned short> >::RightChild
	movzx	ecx, ax
	push	ecx
	movzx	edx, WORD PTR _elem$[ebp]
	push	edx
	mov	ecx, DWORD PTR _this$[ebp]
	call	?SetLeftChild@?$CUtlRBTree@UNode_t@?$CUtlMap@PBDPAVIEntityFactory@@G@@GVCKeyLess@2@V?$CUtlMemory@U?$UtlRBTreeNode_t@UNode_t@?$CUtlMap@PBDPAVIEntityFactory@@G@@G@@G@@@@IAEXGG@Z ; CUtlRBTree<CUtlMap<char const *,IEntityFactory *,unsigned short>::Node_t,unsigned short,CUtlMap<char const *,IEntityFactory *,unsigned short>::CKeyLess,CUtlMemory<UtlRBTreeNode_t<CUtlMap<char const *,IEntityFactory *,unsigned short>::Node_t,unsigned short>,unsigned short> >::SetLeftChild

; 741  : 	if (RightChild(leftchild) != InvalidIndex())

	movzx	eax, WORD PTR _leftchild$[ebp]
	push	eax
	mov	ecx, DWORD PTR _this$[ebp]
	call	?RightChild@?$CUtlRBTree@UNode_t@?$CUtlMap@PBDPAVIEntityFactory@@G@@GVCKeyLess@2@V?$CUtlMemory@U?$UtlRBTreeNode_t@UNode_t@?$CUtlMap@PBDPAVIEntityFactory@@G@@G@@G@@@@QBEGG@Z ; CUtlRBTree<CUtlMap<char const *,IEntityFactory *,unsigned short>::Node_t,unsigned short,CUtlMap<char const *,IEntityFactory *,unsigned short>::CKeyLess,CUtlMemory<UtlRBTreeNode_t<CUtlMap<char const *,IEntityFactory *,unsigned short>::Node_t,unsigned short>,unsigned short> >::RightChild
	movzx	esi, ax
	call	?InvalidIndex@?$CUtlRBTree@UNode_t@?$CUtlMap@PBDPAVIEntityFactory@@G@@GVCKeyLess@2@V?$CUtlMemory@U?$UtlRBTreeNode_t@UNode_t@?$CUtlMap@PBDPAVIEntityFactory@@G@@G@@G@@@@SAGXZ ; CUtlRBTree<CUtlMap<char const *,IEntityFactory *,unsigned short>::Node_t,unsigned short,CUtlMap<char const *,IEntityFactory *,unsigned short>::CKeyLess,CUtlMemory<UtlRBTreeNode_t<CUtlMap<char const *,IEntityFactory *,unsigned short>::Node_t,unsigned short>,unsigned short> >::InvalidIndex
	movzx	ecx, ax
	cmp	esi, ecx
	je	SHORT $LN2@RotateRigh

; 742  : 		SetParent( RightChild(leftchild), elem );

	movzx	eax, WORD PTR _elem$[ebp]
	push	eax
	movzx	ecx, WORD PTR _leftchild$[ebp]
	push	ecx
	mov	ecx, DWORD PTR _this$[ebp]
	call	?RightChild@?$CUtlRBTree@UNode_t@?$CUtlMap@PBDPAVIEntityFactory@@G@@GVCKeyLess@2@V?$CUtlMemory@U?$UtlRBTreeNode_t@UNode_t@?$CUtlMap@PBDPAVIEntityFactory@@G@@G@@G@@@@QBEGG@Z ; CUtlRBTree<CUtlMap<char const *,IEntityFactory *,unsigned short>::Node_t,unsigned short,CUtlMap<char const *,IEntityFactory *,unsigned short>::CKeyLess,CUtlMemory<UtlRBTreeNode_t<CUtlMap<char const *,IEntityFactory *,unsigned short>::Node_t,unsigned short>,unsigned short> >::RightChild
	movzx	edx, ax
	push	edx
	mov	ecx, DWORD PTR _this$[ebp]
	call	?SetParent@?$CUtlRBTree@UNode_t@?$CUtlMap@PBDPAVIEntityFactory@@G@@GVCKeyLess@2@V?$CUtlMemory@U?$UtlRBTreeNode_t@UNode_t@?$CUtlMap@PBDPAVIEntityFactory@@G@@G@@G@@@@IAEXGG@Z ; CUtlRBTree<CUtlMap<char const *,IEntityFactory *,unsigned short>::Node_t,unsigned short,CUtlMap<char const *,IEntityFactory *,unsigned short>::CKeyLess,CUtlMemory<UtlRBTreeNode_t<CUtlMap<char const *,IEntityFactory *,unsigned short>::Node_t,unsigned short>,unsigned short> >::SetParent
$LN2@RotateRigh:

; 743  : 
; 744  : 	if (leftchild != InvalidIndex())

	movzx	esi, WORD PTR _leftchild$[ebp]
	call	?InvalidIndex@?$CUtlRBTree@UNode_t@?$CUtlMap@PBDPAVIEntityFactory@@G@@GVCKeyLess@2@V?$CUtlMemory@U?$UtlRBTreeNode_t@UNode_t@?$CUtlMap@PBDPAVIEntityFactory@@G@@G@@G@@@@SAGXZ ; CUtlRBTree<CUtlMap<char const *,IEntityFactory *,unsigned short>::Node_t,unsigned short,CUtlMap<char const *,IEntityFactory *,unsigned short>::CKeyLess,CUtlMemory<UtlRBTreeNode_t<CUtlMap<char const *,IEntityFactory *,unsigned short>::Node_t,unsigned short>,unsigned short> >::InvalidIndex
	movzx	eax, ax
	cmp	esi, eax
	je	SHORT $LN3@RotateRigh

; 745  : 		SetParent( leftchild, Parent(elem) );

	movzx	eax, WORD PTR _elem$[ebp]
	push	eax
	mov	ecx, DWORD PTR _this$[ebp]
	call	?Parent@?$CUtlRBTree@UNode_t@?$CUtlMap@PBDPAVIEntityFactory@@G@@GVCKeyLess@2@V?$CUtlMemory@U?$UtlRBTreeNode_t@UNode_t@?$CUtlMap@PBDPAVIEntityFactory@@G@@G@@G@@@@QBEGG@Z ; CUtlRBTree<CUtlMap<char const *,IEntityFactory *,unsigned short>::Node_t,unsigned short,CUtlMap<char const *,IEntityFactory *,unsigned short>::CKeyLess,CUtlMemory<UtlRBTreeNode_t<CUtlMap<char const *,IEntityFactory *,unsigned short>::Node_t,unsigned short>,unsigned short> >::Parent
	movzx	ecx, ax
	push	ecx
	movzx	edx, WORD PTR _leftchild$[ebp]
	push	edx
	mov	ecx, DWORD PTR _this$[ebp]
	call	?SetParent@?$CUtlRBTree@UNode_t@?$CUtlMap@PBDPAVIEntityFactory@@G@@GVCKeyLess@2@V?$CUtlMemory@U?$UtlRBTreeNode_t@UNode_t@?$CUtlMap@PBDPAVIEntityFactory@@G@@G@@G@@@@IAEXGG@Z ; CUtlRBTree<CUtlMap<char const *,IEntityFactory *,unsigned short>::Node_t,unsigned short,CUtlMap<char const *,IEntityFactory *,unsigned short>::CKeyLess,CUtlMemory<UtlRBTreeNode_t<CUtlMap<char const *,IEntityFactory *,unsigned short>::Node_t,unsigned short>,unsigned short> >::SetParent
$LN3@RotateRigh:

; 746  : 	if (!IsRoot(elem))

	movzx	eax, WORD PTR _elem$[ebp]
	push	eax
	mov	ecx, DWORD PTR _this$[ebp]
	call	?IsRoot@?$CUtlRBTree@UNode_t@?$CUtlMap@PBDPAVIEntityFactory@@G@@GVCKeyLess@2@V?$CUtlMemory@U?$UtlRBTreeNode_t@UNode_t@?$CUtlMap@PBDPAVIEntityFactory@@G@@G@@G@@@@QBE_NG@Z ; CUtlRBTree<CUtlMap<char const *,IEntityFactory *,unsigned short>::Node_t,unsigned short,CUtlMap<char const *,IEntityFactory *,unsigned short>::CKeyLess,CUtlMemory<UtlRBTreeNode_t<CUtlMap<char const *,IEntityFactory *,unsigned short>::Node_t,unsigned short>,unsigned short> >::IsRoot
	movzx	ecx, al
	test	ecx, ecx
	jne	SHORT $LN4@RotateRigh

; 747  : 	{
; 748  : 		if (IsRightChild(elem))

	movzx	eax, WORD PTR _elem$[ebp]
	push	eax
	mov	ecx, DWORD PTR _this$[ebp]
	call	?IsRightChild@?$CUtlRBTree@UNode_t@?$CUtlMap@PBDPAVIEntityFactory@@G@@GVCKeyLess@2@V?$CUtlMemory@U?$UtlRBTreeNode_t@UNode_t@?$CUtlMap@PBDPAVIEntityFactory@@G@@G@@G@@@@QBE_NG@Z ; CUtlRBTree<CUtlMap<char const *,IEntityFactory *,unsigned short>::Node_t,unsigned short,CUtlMap<char const *,IEntityFactory *,unsigned short>::CKeyLess,CUtlMemory<UtlRBTreeNode_t<CUtlMap<char const *,IEntityFactory *,unsigned short>::Node_t,unsigned short>,unsigned short> >::IsRightChild
	movzx	ecx, al
	test	ecx, ecx
	je	SHORT $LN6@RotateRigh

; 749  : 			SetRightChild( Parent(elem), leftchild );

	movzx	eax, WORD PTR _leftchild$[ebp]
	push	eax
	movzx	ecx, WORD PTR _elem$[ebp]
	push	ecx
	mov	ecx, DWORD PTR _this$[ebp]
	call	?Parent@?$CUtlRBTree@UNode_t@?$CUtlMap@PBDPAVIEntityFactory@@G@@GVCKeyLess@2@V?$CUtlMemory@U?$UtlRBTreeNode_t@UNode_t@?$CUtlMap@PBDPAVIEntityFactory@@G@@G@@G@@@@QBEGG@Z ; CUtlRBTree<CUtlMap<char const *,IEntityFactory *,unsigned short>::Node_t,unsigned short,CUtlMap<char const *,IEntityFactory *,unsigned short>::CKeyLess,CUtlMemory<UtlRBTreeNode_t<CUtlMap<char const *,IEntityFactory *,unsigned short>::Node_t,unsigned short>,unsigned short> >::Parent
	movzx	edx, ax
	push	edx
	mov	ecx, DWORD PTR _this$[ebp]
	call	?SetRightChild@?$CUtlRBTree@UNode_t@?$CUtlMap@PBDPAVIEntityFactory@@G@@GVCKeyLess@2@V?$CUtlMemory@U?$UtlRBTreeNode_t@UNode_t@?$CUtlMap@PBDPAVIEntityFactory@@G@@G@@G@@@@IAEXGG@Z ; CUtlRBTree<CUtlMap<char const *,IEntityFactory *,unsigned short>::Node_t,unsigned short,CUtlMap<char const *,IEntityFactory *,unsigned short>::CKeyLess,CUtlMemory<UtlRBTreeNode_t<CUtlMap<char const *,IEntityFactory *,unsigned short>::Node_t,unsigned short>,unsigned short> >::SetRightChild

; 750  : 		else

	jmp	SHORT $LN7@RotateRigh
$LN6@RotateRigh:

; 751  : 			SetLeftChild( Parent(elem), leftchild );

	movzx	eax, WORD PTR _leftchild$[ebp]
	push	eax
	movzx	ecx, WORD PTR _elem$[ebp]
	push	ecx
	mov	ecx, DWORD PTR _this$[ebp]
	call	?Parent@?$CUtlRBTree@UNode_t@?$CUtlMap@PBDPAVIEntityFactory@@G@@GVCKeyLess@2@V?$CUtlMemory@U?$UtlRBTreeNode_t@UNode_t@?$CUtlMap@PBDPAVIEntityFactory@@G@@G@@G@@@@QBEGG@Z ; CUtlRBTree<CUtlMap<char const *,IEntityFactory *,unsigned short>::Node_t,unsigned short,CUtlMap<char const *,IEntityFactory *,unsigned short>::CKeyLess,CUtlMemory<UtlRBTreeNode_t<CUtlMap<char const *,IEntityFactory *,unsigned short>::Node_t,unsigned short>,unsigned short> >::Parent
	movzx	edx, ax
	push	edx
	mov	ecx, DWORD PTR _this$[ebp]
	call	?SetLeftChild@?$CUtlRBTree@UNode_t@?$CUtlMap@PBDPAVIEntityFactory@@G@@GVCKeyLess@2@V?$CUtlMemory@U?$UtlRBTreeNode_t@UNode_t@?$CUtlMap@PBDPAVIEntityFactory@@G@@G@@G@@@@IAEXGG@Z ; CUtlRBTree<CUtlMap<char const *,IEntityFactory *,unsigned short>::Node_t,unsigned short,CUtlMap<char const *,IEntityFactory *,unsigned short>::CKeyLess,CUtlMemory<UtlRBTreeNode_t<CUtlMap<char const *,IEntityFactory *,unsigned short>::Node_t,unsigned short>,unsigned short> >::SetLeftChild
$LN7@RotateRigh:

; 752  : 	}
; 753  : 	else

	jmp	SHORT $LN5@RotateRigh
$LN4@RotateRigh:

; 754  : 		m_Root = leftchild;

	mov	eax, DWORD PTR _this$[ebp]
	mov	cx, WORD PTR _leftchild$[ebp]
	mov	WORD PTR [eax+16], cx
$LN5@RotateRigh:

; 755  : 
; 756  : 	SetRightChild( leftchild, elem );

	movzx	eax, WORD PTR _elem$[ebp]
	push	eax
	movzx	ecx, WORD PTR _leftchild$[ebp]
	push	ecx
	mov	ecx, DWORD PTR _this$[ebp]
	call	?SetRightChild@?$CUtlRBTree@UNode_t@?$CUtlMap@PBDPAVIEntityFactory@@G@@GVCKeyLess@2@V?$CUtlMemory@U?$UtlRBTreeNode_t@UNode_t@?$CUtlMap@PBDPAVIEntityFactory@@G@@G@@G@@@@IAEXGG@Z ; CUtlRBTree<CUtlMap<char const *,IEntityFactory *,unsigned short>::Node_t,unsigned short,CUtlMap<char const *,IEntityFactory *,unsigned short>::CKeyLess,CUtlMemory<UtlRBTreeNode_t<CUtlMap<char const *,IEntityFactory *,unsigned short>::Node_t,unsigned short>,unsigned short> >::SetRightChild

; 757  : 	if (elem != InvalidIndex())

	movzx	esi, WORD PTR _elem$[ebp]
	call	?InvalidIndex@?$CUtlRBTree@UNode_t@?$CUtlMap@PBDPAVIEntityFactory@@G@@GVCKeyLess@2@V?$CUtlMemory@U?$UtlRBTreeNode_t@UNode_t@?$CUtlMap@PBDPAVIEntityFactory@@G@@G@@G@@@@SAGXZ ; CUtlRBTree<CUtlMap<char const *,IEntityFactory *,unsigned short>::Node_t,unsigned short,CUtlMap<char const *,IEntityFactory *,unsigned short>::CKeyLess,CUtlMemory<UtlRBTreeNode_t<CUtlMap<char const *,IEntityFactory *,unsigned short>::Node_t,unsigned short>,unsigned short> >::InvalidIndex
	movzx	eax, ax
	cmp	esi, eax
	je	SHORT $LN1@RotateRigh

; 758  : 		SetParent( elem, leftchild );

	movzx	eax, WORD PTR _leftchild$[ebp]
	push	eax
	movzx	ecx, WORD PTR _elem$[ebp]
	push	ecx
	mov	ecx, DWORD PTR _this$[ebp]
	call	?SetParent@?$CUtlRBTree@UNode_t@?$CUtlMap@PBDPAVIEntityFactory@@G@@GVCKeyLess@2@V?$CUtlMemory@U?$UtlRBTreeNode_t@UNode_t@?$CUtlMap@PBDPAVIEntityFactory@@G@@G@@G@@@@IAEXGG@Z ; CUtlRBTree<CUtlMap<char const *,IEntityFactory *,unsigned short>::Node_t,unsigned short,CUtlMap<char const *,IEntityFactory *,unsigned short>::CKeyLess,CUtlMemory<UtlRBTreeNode_t<CUtlMap<char const *,IEntityFactory *,unsigned short>::Node_t,unsigned short>,unsigned short> >::SetParent
$LN1@RotateRigh:

; 759  : }

	pop	edi
	pop	esi
	pop	ebx
	mov	esp, ebp
	pop	ebp
	ret	4
?RotateRight@?$CUtlRBTree@UNode_t@?$CUtlMap@PBDPAVIEntityFactory@@G@@GVCKeyLess@2@V?$CUtlMemory@U?$UtlRBTreeNode_t@UNode_t@?$CUtlMap@PBDPAVIEntityFactory@@G@@G@@G@@@@IAEXG@Z ENDP ; CUtlRBTree<CUtlMap<char const *,IEntityFactory *,unsigned short>::Node_t,unsigned short,CUtlMap<char const *,IEntityFactory *,unsigned short>::CKeyLess,CUtlMemory<UtlRBTreeNode_t<CUtlMap<char const *,IEntityFactory *,unsigned short>::Node_t,unsigned short>,unsigned short> >::RotateRight
_TEXT	ENDS
; Function compile flags: /Odtp /ZI
; File d:\!diffusion 2020\source code 2022\client-server\game_shared\utlrbtree.h
;	COMDAT ?RotateLeft@?$CUtlRBTree@UNode_t@?$CUtlMap@PBDPAVIEntityFactory@@G@@GVCKeyLess@2@V?$CUtlMemory@U?$UtlRBTreeNode_t@UNode_t@?$CUtlMap@PBDPAVIEntityFactory@@G@@G@@G@@@@IAEXG@Z
_TEXT	SEGMENT
_rightchild$ = -8					; size = 2
_this$ = -4						; size = 4
_elem$ = 8						; size = 2
?RotateLeft@?$CUtlRBTree@UNode_t@?$CUtlMap@PBDPAVIEntityFactory@@G@@GVCKeyLess@2@V?$CUtlMemory@U?$UtlRBTreeNode_t@UNode_t@?$CUtlMap@PBDPAVIEntityFactory@@G@@G@@G@@@@IAEXG@Z PROC ; CUtlRBTree<CUtlMap<char const *,IEntityFactory *,unsigned short>::Node_t,unsigned short,CUtlMap<char const *,IEntityFactory *,unsigned short>::CKeyLess,CUtlMemory<UtlRBTreeNode_t<CUtlMap<char const *,IEntityFactory *,unsigned short>::Node_t,unsigned short>,unsigned short> >::RotateLeft, COMDAT
; _this$ = ecx

; 708  : {

	push	ebp
	mov	ebp, esp
	sub	esp, 72					; 00000048H
	push	ebx
	push	esi
	push	edi
	mov	DWORD PTR _this$[ebp], ecx

; 709  : 	I rightchild = RightChild(elem);

	movzx	eax, WORD PTR _elem$[ebp]
	push	eax
	mov	ecx, DWORD PTR _this$[ebp]
	call	?RightChild@?$CUtlRBTree@UNode_t@?$CUtlMap@PBDPAVIEntityFactory@@G@@GVCKeyLess@2@V?$CUtlMemory@U?$UtlRBTreeNode_t@UNode_t@?$CUtlMap@PBDPAVIEntityFactory@@G@@G@@G@@@@QBEGG@Z ; CUtlRBTree<CUtlMap<char const *,IEntityFactory *,unsigned short>::Node_t,unsigned short,CUtlMap<char const *,IEntityFactory *,unsigned short>::CKeyLess,CUtlMemory<UtlRBTreeNode_t<CUtlMap<char const *,IEntityFactory *,unsigned short>::Node_t,unsigned short>,unsigned short> >::RightChild
	mov	WORD PTR _rightchild$[ebp], ax

; 710  : 	SetRightChild( elem, LeftChild(rightchild) );

	movzx	eax, WORD PTR _rightchild$[ebp]
	push	eax
	mov	ecx, DWORD PTR _this$[ebp]
	call	?LeftChild@?$CUtlRBTree@UNode_t@?$CUtlMap@PBDPAVIEntityFactory@@G@@GVCKeyLess@2@V?$CUtlMemory@U?$UtlRBTreeNode_t@UNode_t@?$CUtlMap@PBDPAVIEntityFactory@@G@@G@@G@@@@QBEGG@Z ; CUtlRBTree<CUtlMap<char const *,IEntityFactory *,unsigned short>::Node_t,unsigned short,CUtlMap<char const *,IEntityFactory *,unsigned short>::CKeyLess,CUtlMemory<UtlRBTreeNode_t<CUtlMap<char const *,IEntityFactory *,unsigned short>::Node_t,unsigned short>,unsigned short> >::LeftChild
	movzx	ecx, ax
	push	ecx
	movzx	edx, WORD PTR _elem$[ebp]
	push	edx
	mov	ecx, DWORD PTR _this$[ebp]
	call	?SetRightChild@?$CUtlRBTree@UNode_t@?$CUtlMap@PBDPAVIEntityFactory@@G@@GVCKeyLess@2@V?$CUtlMemory@U?$UtlRBTreeNode_t@UNode_t@?$CUtlMap@PBDPAVIEntityFactory@@G@@G@@G@@@@IAEXGG@Z ; CUtlRBTree<CUtlMap<char const *,IEntityFactory *,unsigned short>::Node_t,unsigned short,CUtlMap<char const *,IEntityFactory *,unsigned short>::CKeyLess,CUtlMemory<UtlRBTreeNode_t<CUtlMap<char const *,IEntityFactory *,unsigned short>::Node_t,unsigned short>,unsigned short> >::SetRightChild

; 711  : 	if (LeftChild(rightchild) != InvalidIndex())

	movzx	eax, WORD PTR _rightchild$[ebp]
	push	eax
	mov	ecx, DWORD PTR _this$[ebp]
	call	?LeftChild@?$CUtlRBTree@UNode_t@?$CUtlMap@PBDPAVIEntityFactory@@G@@GVCKeyLess@2@V?$CUtlMemory@U?$UtlRBTreeNode_t@UNode_t@?$CUtlMap@PBDPAVIEntityFactory@@G@@G@@G@@@@QBEGG@Z ; CUtlRBTree<CUtlMap<char const *,IEntityFactory *,unsigned short>::Node_t,unsigned short,CUtlMap<char const *,IEntityFactory *,unsigned short>::CKeyLess,CUtlMemory<UtlRBTreeNode_t<CUtlMap<char const *,IEntityFactory *,unsigned short>::Node_t,unsigned short>,unsigned short> >::LeftChild
	movzx	esi, ax
	call	?InvalidIndex@?$CUtlRBTree@UNode_t@?$CUtlMap@PBDPAVIEntityFactory@@G@@GVCKeyLess@2@V?$CUtlMemory@U?$UtlRBTreeNode_t@UNode_t@?$CUtlMap@PBDPAVIEntityFactory@@G@@G@@G@@@@SAGXZ ; CUtlRBTree<CUtlMap<char const *,IEntityFactory *,unsigned short>::Node_t,unsigned short,CUtlMap<char const *,IEntityFactory *,unsigned short>::CKeyLess,CUtlMemory<UtlRBTreeNode_t<CUtlMap<char const *,IEntityFactory *,unsigned short>::Node_t,unsigned short>,unsigned short> >::InvalidIndex
	movzx	ecx, ax
	cmp	esi, ecx
	je	SHORT $LN2@RotateLeft

; 712  : 		SetParent( LeftChild(rightchild), elem );

	movzx	eax, WORD PTR _elem$[ebp]
	push	eax
	movzx	ecx, WORD PTR _rightchild$[ebp]
	push	ecx
	mov	ecx, DWORD PTR _this$[ebp]
	call	?LeftChild@?$CUtlRBTree@UNode_t@?$CUtlMap@PBDPAVIEntityFactory@@G@@GVCKeyLess@2@V?$CUtlMemory@U?$UtlRBTreeNode_t@UNode_t@?$CUtlMap@PBDPAVIEntityFactory@@G@@G@@G@@@@QBEGG@Z ; CUtlRBTree<CUtlMap<char const *,IEntityFactory *,unsigned short>::Node_t,unsigned short,CUtlMap<char const *,IEntityFactory *,unsigned short>::CKeyLess,CUtlMemory<UtlRBTreeNode_t<CUtlMap<char const *,IEntityFactory *,unsigned short>::Node_t,unsigned short>,unsigned short> >::LeftChild
	movzx	edx, ax
	push	edx
	mov	ecx, DWORD PTR _this$[ebp]
	call	?SetParent@?$CUtlRBTree@UNode_t@?$CUtlMap@PBDPAVIEntityFactory@@G@@GVCKeyLess@2@V?$CUtlMemory@U?$UtlRBTreeNode_t@UNode_t@?$CUtlMap@PBDPAVIEntityFactory@@G@@G@@G@@@@IAEXGG@Z ; CUtlRBTree<CUtlMap<char const *,IEntityFactory *,unsigned short>::Node_t,unsigned short,CUtlMap<char const *,IEntityFactory *,unsigned short>::CKeyLess,CUtlMemory<UtlRBTreeNode_t<CUtlMap<char const *,IEntityFactory *,unsigned short>::Node_t,unsigned short>,unsigned short> >::SetParent
$LN2@RotateLeft:

; 713  : 
; 714  : 	if (rightchild != InvalidIndex())

	movzx	esi, WORD PTR _rightchild$[ebp]
	call	?InvalidIndex@?$CUtlRBTree@UNode_t@?$CUtlMap@PBDPAVIEntityFactory@@G@@GVCKeyLess@2@V?$CUtlMemory@U?$UtlRBTreeNode_t@UNode_t@?$CUtlMap@PBDPAVIEntityFactory@@G@@G@@G@@@@SAGXZ ; CUtlRBTree<CUtlMap<char const *,IEntityFactory *,unsigned short>::Node_t,unsigned short,CUtlMap<char const *,IEntityFactory *,unsigned short>::CKeyLess,CUtlMemory<UtlRBTreeNode_t<CUtlMap<char const *,IEntityFactory *,unsigned short>::Node_t,unsigned short>,unsigned short> >::InvalidIndex
	movzx	eax, ax
	cmp	esi, eax
	je	SHORT $LN3@RotateLeft

; 715  : 		SetParent( rightchild, Parent(elem) );

	movzx	eax, WORD PTR _elem$[ebp]
	push	eax
	mov	ecx, DWORD PTR _this$[ebp]
	call	?Parent@?$CUtlRBTree@UNode_t@?$CUtlMap@PBDPAVIEntityFactory@@G@@GVCKeyLess@2@V?$CUtlMemory@U?$UtlRBTreeNode_t@UNode_t@?$CUtlMap@PBDPAVIEntityFactory@@G@@G@@G@@@@QBEGG@Z ; CUtlRBTree<CUtlMap<char const *,IEntityFactory *,unsigned short>::Node_t,unsigned short,CUtlMap<char const *,IEntityFactory *,unsigned short>::CKeyLess,CUtlMemory<UtlRBTreeNode_t<CUtlMap<char const *,IEntityFactory *,unsigned short>::Node_t,unsigned short>,unsigned short> >::Parent
	movzx	ecx, ax
	push	ecx
	movzx	edx, WORD PTR _rightchild$[ebp]
	push	edx
	mov	ecx, DWORD PTR _this$[ebp]
	call	?SetParent@?$CUtlRBTree@UNode_t@?$CUtlMap@PBDPAVIEntityFactory@@G@@GVCKeyLess@2@V?$CUtlMemory@U?$UtlRBTreeNode_t@UNode_t@?$CUtlMap@PBDPAVIEntityFactory@@G@@G@@G@@@@IAEXGG@Z ; CUtlRBTree<CUtlMap<char const *,IEntityFactory *,unsigned short>::Node_t,unsigned short,CUtlMap<char const *,IEntityFactory *,unsigned short>::CKeyLess,CUtlMemory<UtlRBTreeNode_t<CUtlMap<char const *,IEntityFactory *,unsigned short>::Node_t,unsigned short>,unsigned short> >::SetParent
$LN3@RotateLeft:

; 716  : 	if (!IsRoot(elem))

	movzx	eax, WORD PTR _elem$[ebp]
	push	eax
	mov	ecx, DWORD PTR _this$[ebp]
	call	?IsRoot@?$CUtlRBTree@UNode_t@?$CUtlMap@PBDPAVIEntityFactory@@G@@GVCKeyLess@2@V?$CUtlMemory@U?$UtlRBTreeNode_t@UNode_t@?$CUtlMap@PBDPAVIEntityFactory@@G@@G@@G@@@@QBE_NG@Z ; CUtlRBTree<CUtlMap<char const *,IEntityFactory *,unsigned short>::Node_t,unsigned short,CUtlMap<char const *,IEntityFactory *,unsigned short>::CKeyLess,CUtlMemory<UtlRBTreeNode_t<CUtlMap<char const *,IEntityFactory *,unsigned short>::Node_t,unsigned short>,unsigned short> >::IsRoot
	movzx	ecx, al
	test	ecx, ecx
	jne	SHORT $LN4@RotateLeft

; 717  : 	{
; 718  : 		if (IsLeftChild(elem))

	movzx	eax, WORD PTR _elem$[ebp]
	push	eax
	mov	ecx, DWORD PTR _this$[ebp]
	call	?IsLeftChild@?$CUtlRBTree@UNode_t@?$CUtlMap@PBDPAVIEntityFactory@@G@@GVCKeyLess@2@V?$CUtlMemory@U?$UtlRBTreeNode_t@UNode_t@?$CUtlMap@PBDPAVIEntityFactory@@G@@G@@G@@@@QBE_NG@Z ; CUtlRBTree<CUtlMap<char const *,IEntityFactory *,unsigned short>::Node_t,unsigned short,CUtlMap<char const *,IEntityFactory *,unsigned short>::CKeyLess,CUtlMemory<UtlRBTreeNode_t<CUtlMap<char const *,IEntityFactory *,unsigned short>::Node_t,unsigned short>,unsigned short> >::IsLeftChild
	movzx	ecx, al
	test	ecx, ecx
	je	SHORT $LN6@RotateLeft
