; Listing generated by Microsoft (R) Optimizing Compiler Version 19.00.24247.2 

	TITLE	D:\!DIFFUSION 2020\source code 2022\client-server\server\util.cpp
	.686P
	.XMM
	include listing.inc
	.model	flat

INCLUDELIB LIBCMT
INCLUDELIB OLDNAMES

PUBLIC	?g_groupmask@@3HA				; g_groupmask
PUBLIC	?g_groupop@@3HA					; g_groupop
_BSS	SEGMENT
?g_groupmask@@3HA DD 01H DUP (?)			; g_groupmask
?g_groupop@@3HA DD 01H DUP (?)				; g_groupop
_BSS	ENDS
PUBLIC	??_H@YGXPAXIIP6EPAX0@Z@Z			; `vector constructor iterator'
PUBLIC	??__G@YGXPAX0IIP6EPAX00@Z@Z			; `vector copy constructor iterator'
PUBLIC	?__empty_global_delete@@YAXPAX@Z		; __empty_global_delete
PUBLIC	?__empty_global_delete@@YAXPAXI@Z		; __empty_global_delete
PUBLIC	___local_stdio_printf_options
PUBLIC	??$__vcrt_va_start_verify_argument_type@QBD@@YAXXZ ; __vcrt_va_start_verify_argument_type<char const * const>
PUBLIC	__vsnprintf_l
PUBLIC	__vsprintf_l
PUBLIC	_vsprintf
PUBLIC	_sprintf
PUBLIC	?SinCos@@YAXMPAM0@Z				; SinCos
PUBLIC	??0Vector2D@@QAE@XZ				; Vector2D::Vector2D
PUBLIC	??0Vector2D@@QAE@MM@Z				; Vector2D::Vector2D
PUBLIC	?Length@Vector2D@@QBEMXZ			; Vector2D::Length
PUBLIC	?Normalize@Vector2D@@QBE?AV1@XZ			; Vector2D::Normalize
PUBLIC	?DotProduct@@YAMABVVector2D@@0@Z		; DotProduct
PUBLIC	??0Vector@@QAE@XZ				; Vector::Vector
PUBLIC	??0Vector@@QAE@MMM@Z				; Vector::Vector
PUBLIC	??0Vector@@QAE@ABV0@@Z				; Vector::Vector
PUBLIC	??8Vector@@QBEHABV0@@Z				; Vector::operator==
PUBLIC	??HVector@@QBE?AV0@ABV0@@Z			; Vector::operator+
PUBLIC	??GVector@@QBE?AV0@ABV0@@Z			; Vector::operator-
PUBLIC	??DVector@@QBE?AV0@M@Z				; Vector::operator*
PUBLIC	??YVector@@QAEAAV0@ABV0@@Z			; Vector::operator+=
PUBLIC	?CopyToArray@Vector@@QBEXPAM@Z			; Vector::CopyToArray
PUBLIC	?Length@Vector@@QBEMXZ				; Vector::Length
PUBLIC	??BVector@@QAEPAMXZ				; Vector::operator float *
PUBLIC	??BVector@@QBEPBMXZ				; Vector::operator float const *
PUBLIC	?Normalize@Vector@@QBE?AV1@XZ			; Vector::Normalize
PUBLIC	?Make2D@Vector@@QBE?AVVector2D@@XZ		; Vector::Make2D
PUBLIC	?DotProduct@@YAMABVVector@@0@Z			; DotProduct
PUBLIC	??0Vector4D@@QAE@XZ				; Vector4D::Vector4D
PUBLIC	??0Vector4D@@QAE@ABV0@@Z			; Vector4D::Vector4D
PUBLIC	??BVector4D@@QAEPAMXZ				; Vector4D::operator float *
PUBLIC	??BVector4D@@QBE?BVVector@@XZ			; Vector4D::operator Vector const 
PUBLIC	??0matrix3x4@@QAE@ABVVector@@0M@Z		; matrix3x4::matrix3x4
PUBLIC	??Amatrix3x4@@QBEPBMH@Z				; matrix3x4::operator[]
PUBLIC	??0matrix4x4@@QAE@ABVVector@@0M@Z		; matrix4x4::matrix4x4
PUBLIC	??0matrix4x4@@QAE@ABVmatrix3x4@@@Z		; matrix4x4::matrix4x4
PUBLIC	?GetOrigin@matrix4x4@@QBE?AVVector@@XZ		; matrix4x4::GetOrigin
PUBLIC	?GetAngles@matrix4x4@@QAE?AVVector@@XZ		; matrix4x4::GetAngles
PUBLIC	??0matrix4x4@@QAE@ABV0@@Z			; matrix4x4::matrix4x4
PUBLIC	??0plane_s@@QAE@ABU0@@Z				; plane_s::plane_s
PUBLIC	??0trace_s@@QAE@ABU0@@Z				; trace_s::trace_s
PUBLIC	??0gametrace_s@@QAE@XZ				; gametrace_s::gametrace_s
PUBLIC	??0gametrace_s@@QAE@$$QAU0@@Z			; gametrace_s::gametrace_s
PUBLIC	?MESSAGE_BEGIN@@YAXHHPBMPAUedict_s@@@Z		; MESSAGE_BEGIN
PUBLIC	?GET_PRIVATE@@YAPAXPAUedict_s@@@Z		; GET_PRIVATE
PUBLIC	?Msg@@YAXPBDZZ					; Msg
PUBLIC	??2@YAPAXIPAX@Z					; operator new
PUBLIC	??3@YAXPAX0@Z					; operator delete
PUBLIC	?UtlMemory_CalcNewAllocationCount@@YAHHHHH@Z	; UtlMemory_CalcNewAllocationCount
PUBLIC	?StringLessThan@@YA_NABQBD0@Z			; StringLessThan
PUBLIC	?CaselessStringLessThan@@YA_NABQBD0@Z		; CaselessStringLessThan
PUBLIC	?CaselessStringLessThanIgnoreSlashes@@YA_NABQBD0@Z ; CaselessStringLessThanIgnoreSlashes
PUBLIC	?MESSAGE_BEGIN@@YAXHHPBMPAUentvars_s@@@Z	; MESSAGE_BEGIN
PUBLIC	?UTIL_Remove@@YAXPAVCBaseEntity@@@Z		; UTIL_Remove
PUBLIC	??0IEntityFactoryDictionary@@QAE@XZ		; IEntityFactoryDictionary::IEntityFactoryDictionary
PUBLIC	?EntityFactoryDictionary@@YAPAVIEntityFactoryDictionary@@XZ ; EntityFactoryDictionary
PUBLIC	?DBG_EntOfVars@@YAPAUedict_s@@PBUentvars_s@@@Z	; DBG_EntOfVars
PUBLIC	?ENT@@YAPAUedict_s@@PBUentvars_s@@@Z		; ENT
PUBLIC	?ENT@@YAPAUedict_s@@PAVCBaseEntity@@@Z		; ENT
PUBLIC	?ENT@@YAPAUedict_s@@H@Z				; ENT
PUBLIC	?OFFSET@@YAHPBUedict_s@@@Z			; OFFSET
PUBLIC	?OFFSET@@YAHPAUentvars_s@@@Z			; OFFSET
PUBLIC	?ENTINDEX@@YAHPAUedict_s@@@Z			; ENTINDEX
PUBLIC	?INDEXENT@@YAPAUedict_s@@H@Z			; INDEXENT
PUBLIC	?FNullEnt@@YAHH@Z				; FNullEnt
PUBLIC	?FNullEnt@@YAHPBUedict_s@@@Z			; FNullEnt
PUBLIC	?FNullEnt@@YAHPAVCBaseEntity@@@Z		; FNullEnt
PUBLIC	?Sys_LoadLibrary@@YA_NPBDPAPAUHINSTANCE__@@PBUdllfunc_s@@@Z ; Sys_LoadLibrary
PUBLIC	?Sys_GetProcAddress@@YAPAXPAUHINSTANCE__@@PBD@Z	; Sys_GetProcAddress
PUBLIC	?Sys_FreeLibrary@@YAXPAPAUHINSTANCE__@@@Z	; Sys_FreeLibrary
PUBLIC	?FStrEq@@YAHPBD0@Z				; FStrEq
PUBLIC	?FClassnameIs@@YAHPAVCBaseEntity@@PBD@Z		; FClassnameIs
PUBLIC	?DumpEntityNames_f@@YAXXZ			; DumpEntityNames_f
PUBLIC	?DumpEntitySizes_f@@YAXXZ			; DumpEntitySizes_f
PUBLIC	?DumpStrings_f@@YAXXZ				; DumpStrings_f
PUBLIC	?GetStringForUseType@@YAPBDW4USE_TYPE@@@Z	; GetStringForUseType
PUBLIC	?GetStringForState@@YAPBDW4STATE@@@Z		; GetStringForState
PUBLIC	?GetStringForGlobalState@@YAPBDW4GLOBALESTATE@@@Z ; GetStringForGlobalState
PUBLIC	?GetContentsString@@YAPBDH@Z			; GetContentsString
PUBLIC	?PrintStringForDamage@@YAXH@Z			; PrintStringForDamage
PUBLIC	?GetStateForString@@YA?AW4STATE@@PBD@Z		; GetStateForString
PUBLIC	?UTIL_SetSize@@YAXPAUentvars_s@@ABVVector@@1@Z	; UTIL_SetSize
PUBLIC	?UTIL_VecToYaw@@YAMABVVector@@@Z		; UTIL_VecToYaw
PUBLIC	?UTIL_VecToAngles@@YA?AVVector@@ABV1@@Z		; UTIL_VecToAngles
PUBLIC	?UTIL_AngleMod@@YAMM@Z				; UTIL_AngleMod
PUBLIC	?UTIL_AngleDiff@@YAMMM@Z			; UTIL_AngleDiff
PUBLIC	?UTIL_FindEntityInSphere@@YAPAVCBaseEntity@@PAV1@ABVVector@@M@Z ; UTIL_FindEntityInSphere
PUBLIC	?UTIL_FindEntityByString@@YAPAVCBaseEntity@@PAV1@PBD1@Z ; UTIL_FindEntityByString
PUBLIC	?UTIL_FindEntityByClassname@@YAPAVCBaseEntity@@PAV1@PBD@Z ; UTIL_FindEntityByClassname
PUBLIC	?UTIL_FindEntityByClassname@@YAPAVCBaseEntity@@PAV1@PBD_N2@Z ; UTIL_FindEntityByClassname
PUBLIC	?UTIL_FindEntityByTargetname@@YAPAVCBaseEntity@@PAV1@PBD@Z ; UTIL_FindEntityByTargetname
PUBLIC	?UTIL_FindEntityByTargetname@@YAPAVCBaseEntity@@PAV1@PBD0@Z ; UTIL_FindEntityByTargetname
PUBLIC	?UTIL_FindEntityGeneric@@YAPAVCBaseEntity@@PBDABVVector@@M@Z ; UTIL_FindEntityGeneric
PUBLIC	?UTIL_FindEntityByTarget@@YAPAVCBaseEntity@@PAV1@PBD@Z ; UTIL_FindEntityByTarget
PUBLIC	?UTIL_FindEntityByMonsterTarget@@YAPAVCBaseEntity@@PAV1@PBD@Z ; UTIL_FindEntityByMonsterTarget
PUBLIC	?UTIL_PlayerByIndex@@YAPAVCBaseEntity@@H@Z	; UTIL_PlayerByIndex
PUBLIC	?UTIL_MakeVectors@@YAXABVVector@@@Z		; UTIL_MakeVectors
PUBLIC	?UTIL_MonstersInSphere@@YAHPAPAVCBaseEntity@@HABVVector@@M@Z ; UTIL_MonstersInSphere
PUBLIC	?UTIL_EntitiesInBox@@YAHPAPAVCBaseEntity@@HABVVector@@1H@Z ; UTIL_EntitiesInBox
PUBLIC	?UTIL_ButtonSound@@YAPBDH@Z			; UTIL_ButtonSound
PUBLIC	?UTIL_MakeVectorsPrivate@@YAXABVVector@@PAM11@Z	; UTIL_MakeVectorsPrivate
PUBLIC	?UTIL_MakeAimVectors@@YAXABVVector@@@Z		; UTIL_MakeAimVectors
PUBLIC	?UTIL_MakeInvVectors@@YAXABVVector@@PAUglobalvars_t@@@Z ; UTIL_MakeInvVectors
PUBLIC	?UTIL_SetOrigin@@YAXPAVCBaseEntity@@ABVVector@@@Z ; UTIL_SetOrigin
PUBLIC	?UTIL_SetAngles@@YAXPAVCBaseEntity@@ABVVector@@@Z ; UTIL_SetAngles
PUBLIC	?UTIL_EmitAmbientSound@@YAXPAUedict_s@@ABVVector@@PBDMMHH@Z ; UTIL_EmitAmbientSound
PUBLIC	?UTIL_ParticleEffect@@YAXABVVector@@0KK@Z	; UTIL_ParticleEffect
PUBLIC	?UTIL_ScreenShake@@YAXABVVector@@MMMM_N@Z	; UTIL_ScreenShake
PUBLIC	?UTIL_ScreenShakeAll@@YAXABVVector@@MMM@Z	; UTIL_ScreenShakeAll
PUBLIC	?UTIL_ScreenShakeLocal@@YAXPAVCBaseEntity@@ABVVector@@MMMM_N@Z ; UTIL_ScreenShakeLocal
PUBLIC	?UTIL_ShowMessage@@YAXPBDPAVCBaseEntity@@@Z	; UTIL_ShowMessage
PUBLIC	?UTIL_ShowMessageAll@@YAXPBD@Z			; UTIL_ShowMessageAll
PUBLIC	?UTIL_ScreenFadeAll@@YAXABVVector@@MMHH@Z	; UTIL_ScreenFadeAll
PUBLIC	?UTIL_ScreenFade@@YAXPAVCBaseEntity@@ABVVector@@MMHH@Z ; UTIL_ScreenFade
PUBLIC	?UTIL_FireTargets@@YAXPBDPAVCBaseEntity@@1W4USE_TYPE@@M@Z ; UTIL_FireTargets
PUBLIC	?UTIL_FireTargets@@YAXHPAVCBaseEntity@@0W4USE_TYPE@@M@Z ; UTIL_FireTargets
PUBLIC	?UTIL_TraceLine@@YAXABVVector@@0W4IGNORE_MONSTERS@@PAUedict_s@@PAUgametrace_s@@@Z ; UTIL_TraceLine
PUBLIC	?UTIL_TraceLine@@YAXABVVector@@0W4IGNORE_MONSTERS@@W4IGNORE_GLASS@@PAUedict_s@@PAUgametrace_s@@@Z ; UTIL_TraceLine
PUBLIC	?UTIL_TraceHull@@YAXABVVector@@0W4IGNORE_MONSTERS@@HPAUedict_s@@PAUgametrace_s@@@Z ; UTIL_TraceHull
PUBLIC	?UTIL_GetGlobalTrace@@YA?AUgametrace_s@@XZ	; UTIL_GetGlobalTrace
PUBLIC	?UTIL_CopyTraceToGlobal@@YAXPAUgametrace_s@@@Z	; UTIL_CopyTraceToGlobal
PUBLIC	?UTIL_TraceModel@@YAXABVVector@@0HPAUedict_s@@PAUgametrace_s@@@Z ; UTIL_TraceModel
PUBLIC	?UTIL_TraceEntity@@YAXPAVCBaseEntity@@ABVVector@@1PAUgametrace_s@@@Z ; UTIL_TraceEntity
PUBLIC	?UTIL_GetAimVector@@YA?AVVector@@PAUedict_s@@M@Z ; UTIL_GetAimVector
PUBLIC	?UTIL_PointContents@@YAHABVVector@@@Z		; UTIL_PointContents
PUBLIC	?UTIL_IsMasterTriggered@@YAHHPAVCBaseEntity@@@Z	; UTIL_IsMasterTriggered
PUBLIC	?UTIL_BloodStream@@YAXABVVector@@0HH@Z		; UTIL_BloodStream
PUBLIC	?UTIL_BloodDrips@@YAXABVVector@@0HH@Z		; UTIL_BloodDrips
PUBLIC	?UTIL_RandomBloodVector@@YA?AVVector@@XZ	; UTIL_RandomBloodVector
PUBLIC	?UTIL_ShouldShowBlood@@YAHH@Z			; UTIL_ShouldShowBlood
PUBLIC	?UTIL_BloodDecalTrace@@YAXPAUgametrace_s@@H@Z	; UTIL_BloodDecalTrace
PUBLIC	?UTIL_BloodStudioDecalTrace@@YAXPAUgametrace_s@@H@Z ; UTIL_BloodStudioDecalTrace
PUBLIC	?UTIL_DecalTrace@@YAXPAUgametrace_s@@H@Z	; UTIL_DecalTrace
PUBLIC	?UTIL_StudioDecalTrace@@YAXPAUgametrace_s@@HH@Z	; UTIL_StudioDecalTrace
PUBLIC	?UTIL_RestoreStudioDecal@@YAXABVVector@@0HHPBDHPAUmodelstate_s@@H@Z ; UTIL_RestoreStudioDecal
PUBLIC	?UTIL_PlayerDecalTrace@@YAXPAUgametrace_s@@HHH@Z ; UTIL_PlayerDecalTrace
PUBLIC	?UTIL_GunshotDecalTrace@@YAXPAUgametrace_s@@H@Z	; UTIL_GunshotDecalTrace
PUBLIC	?UTIL_Sparks@@YAXABVVector@@@Z			; UTIL_Sparks
PUBLIC	?UTIL_DoSpark@@YAXPAUentvars_s@@ABVVector@@@Z	; UTIL_DoSpark
PUBLIC	?UTIL_DoSparkNoSound@@YAXPAUentvars_s@@ABVVector@@@Z ; UTIL_DoSparkNoSound
PUBLIC	?UTIL_Ricochet@@YAXABVVector@@M@Z		; UTIL_Ricochet
PUBLIC	?UTIL_StringToVector@@YAXPAMPBD@Z		; UTIL_StringToVector
PUBLIC	?UTIL_StringToIntArray@@YAXPAHHPBD@Z		; UTIL_StringToIntArray
PUBLIC	?UTIL_ClampVectorToBox@@YA?AVVector@@ABV1@0@Z	; UTIL_ClampVectorToBox
PUBLIC	?UTIL_Approach@@YAMMMM@Z			; UTIL_Approach
PUBLIC	?UTIL_ApproachAngle@@YAMMMM@Z			; UTIL_ApproachAngle
PUBLIC	?UTIL_AngleDistance@@YAMMM@Z			; UTIL_AngleDistance
PUBLIC	?UTIL_FindClientInPVS@@YAPAVCBaseEntity@@PAUedict_s@@@Z ; UTIL_FindClientInPVS
PUBLIC	?UTIL_VarArgs@@YAPADPADZZ			; UTIL_VarArgs
PUBLIC	?UTIL_IsValidEntity@@YAHPAUedict_s@@@Z		; UTIL_IsValidEntity
PUBLIC	?UTIL_TeamsMatch@@YAHPBD0@Z			; UTIL_TeamsMatch
PUBLIC	?UTIL_IsFacing@@YAHPAUentvars_s@@ABVVector@@@Z	; UTIL_IsFacing
PUBLIC	?UTIL_SplineFraction@@YAMMM@Z			; UTIL_SplineFraction
PUBLIC	?UTIL_WaterLevel@@YAMABVVector@@MM@Z		; UTIL_WaterLevel
PUBLIC	?UTIL_Bubbles@@YAXVVector@@0H@Z			; UTIL_Bubbles
PUBLIC	?UTIL_BubbleTrail@@YAXVVector@@0H@Z		; UTIL_BubbleTrail
PUBLIC	?UTIL_PrecacheOther@@YAXPBD@Z			; UTIL_PrecacheOther
PUBLIC	?UTIL_PrecacheSound@@YAHPBD@Z			; UTIL_PrecacheSound
PUBLIC	?UTIL_PrecacheSound@@YAHH@Z			; UTIL_PrecacheSound
PUBLIC	?UTIL_PrecacheMovie@@YAGPBDH@Z			; UTIL_PrecacheMovie
PUBLIC	?UTIL_PrecacheMovie@@YAGHH@Z			; UTIL_PrecacheMovie
PUBLIC	?UTIL_ClientPrintAll@@YAXHPBD0000@Z		; UTIL_ClientPrintAll
PUBLIC	?UTIL_GetNextBestWeapon@@YAHPAVCBasePlayer@@PAVCBasePlayerItem@@@Z ; UTIL_GetNextBestWeapon
PUBLIC	?ClientPrint@@YAXPAUentvars_s@@HPBD1111@Z	; ClientPrint
PUBLIC	?UTIL_SayText@@YAXPBDPAVCBaseEntity@@@Z		; UTIL_SayText
PUBLIC	?UTIL_SayTextAll@@YAXPBDPAVCBaseEntity@@@Z	; UTIL_SayTextAll
PUBLIC	?UTIL_SetView@@YAXH@Z				; UTIL_SetView
PUBLIC	?UTIL_SetView@@YAXPAVCBaseEntity@@H@Z		; UTIL_SetView
PUBLIC	?UTIL_SetView@@YAXPAVCBaseEntity@@0@Z		; UTIL_SetView
PUBLIC	?UTIL_HudMessageAll@@YAXABUhudtextparms_s@@PBD@Z ; UTIL_HudMessageAll
PUBLIC	?UTIL_HudMessage@@YAXPAVCBaseEntity@@ABUhudtextparms_s@@PBD@Z ; UTIL_HudMessage
PUBLIC	?UTIL_dtos1@@YAPADH@Z				; UTIL_dtos1
PUBLIC	?UTIL_dtos2@@YAPADH@Z				; UTIL_dtos2
PUBLIC	?UTIL_dtos3@@YAPADH@Z				; UTIL_dtos3
PUBLIC	?UTIL_dtos4@@YAPADH@Z				; UTIL_dtos4
PUBLIC	?UTIL_LogPrintf@@YAXPADZZ			; UTIL_LogPrintf
PUBLIC	?UTIL_DotPoints@@YAMABVVector@@00@Z		; UTIL_DotPoints
PUBLIC	?UTIL_StripToken@@YAXPBDPAD@Z			; UTIL_StripToken
PUBLIC	?UTIL_SetMovedir@@YAXPAVCBaseEntity@@@Z		; UTIL_SetMovedir
PUBLIC	?VecBModelOrigin@@YA?AVVector@@PAUentvars_s@@@Z	; VecBModelOrigin
PUBLIC	?DBG_AssertFunction@@YAXHPBD0H0@Z		; DBG_AssertFunction
PUBLIC	?EMIT_SOUND@@YAXPAUedict_s@@HPBDMM@Z		; EMIT_SOUND
PUBLIC	??0UTIL_GroupTrace@@QAE@HH@Z			; UTIL_GroupTrace::UTIL_GroupTrace
PUBLIC	??1UTIL_GroupTrace@@QAE@XZ			; UTIL_GroupTrace::~UTIL_GroupTrace
PUBLIC	?UTIL_SetGroupTrace@@YAXHH@Z			; UTIL_SetGroupTrace
PUBLIC	?UTIL_UnsetGroupTrace@@YAXXZ			; UTIL_UnsetGroupTrace
PUBLIC	?UTIL_CanRotate@@YAHPAVCBaseEntity@@@Z		; UTIL_CanRotate
PUBLIC	?UTIL_CanRotateBModel@@YAHPAVCBaseEntity@@@Z	; UTIL_CanRotateBModel
PUBLIC	?UTIL_GetModelType@@YA?AW4modtype_t@@H@Z	; UTIL_GetModelType
PUBLIC	?UITL_ExternalBmodel@@YAHH@Z			; UITL_ExternalBmodel
PUBLIC	?UTIL_GetSpriteType@@YA?AW4angletype_t@@H@Z	; UTIL_GetSpriteType
PUBLIC	?UTIL_AllowHitboxTrace@@YAHPAVCBaseEntity@@@Z	; UTIL_AllowHitboxTrace
PUBLIC	?UTIL_Teleport@@YAXPAVCBaseEntity@@AAUTeleportListEntry_t@@PBVVector@@22@Z ; UTIL_Teleport
PUBLIC	?UTIL_ParentToWorldSpace@@YAXPAVCBaseEntity@@AAVVector@@1@Z ; UTIL_ParentToWorldSpace
PUBLIC	?UTIL_GetModelBounds@@YAXHAAVVector@@0@Z	; UTIL_GetModelBounds
PUBLIC	?UTIL_SetSize@@YAXPAVCBaseEntity@@ABVVector@@1@Z ; UTIL_SetSize
PUBLIC	??0areaclip_t@@QAE@XZ				; areaclip_t::areaclip_t
PUBLIC	?UTIL_HullPointContents@@YAHPAUhull_s@@HABVVector@@@Z ; UTIL_HullPointContents
PUBLIC	?UTIL_HullForBsp@@YAPAUhull_s@@PAVCBaseEntity@@ABVVector@@1AAV3@@Z ; UTIL_HullForBsp
PUBLIC	?UTIL_AreaNode@@YAXVVector@@0HP6AXPAVCBaseEntity@@@Z@Z ; UTIL_AreaNode
PUBLIC	?UTIL_MoveBounds@@YAXABVVector@@000AAV1@1@Z	; UTIL_MoveBounds
PUBLIC	?UTIL_CombineTraces@@YA?AUtrace_s@@PAU1@0PAVCBaseEntity@@@Z ; UTIL_CombineTraces
PUBLIC	?UTIL_DropToFloor@@YAHPAVCBaseEntity@@@Z	; UTIL_DropToFloor
PUBLIC	?UTIL_WaterMove@@YAXPAVCBaseEntity@@@Z		; UTIL_WaterMove
PUBLIC	?UTIL_LoadSoundPreset@@YAHH@Z			; UTIL_LoadSoundPreset
PUBLIC	?UTIL_FunctionToName@@YAPBDPAUdatamap_s@@PAX@Z	; UTIL_FunctionToName
PUBLIC	?UTIL_FunctionFromName@@YAPAXPAUdatamap_s@@PBD@Z ; UTIL_FunctionFromName
PUBLIC	?Get@EHANDLE@@QAEPAUedict_s@@XZ			; EHANDLE::Get
PUBLIC	??BEHANDLE@@QAEHXZ				; EHANDLE::operator int
PUBLIC	?EntityToWorldTransform@CBaseEntity@@QAEAAVmatrix4x4@@XZ ; CBaseEntity::EntityToWorldTransform
PUBLIC	?GetClassname@CBaseEntity@@QAEPBDXZ		; CBaseEntity::GetClassname
PUBLIC	?GetTargetname@CBaseEntity@@QAEPBDXZ		; CBaseEntity::GetTargetname
PUBLIC	?SetMoveDir@CBaseEntity@@QAEXABVVector@@@Z	; CBaseEntity::SetMoveDir
PUBLIC	?SetBaseVelocity@CBaseEntity@@QAEXABVVector@@@Z	; CBaseEntity::SetBaseVelocity
PUBLIC	?Instance@CBaseEntity@@SAPAV1@PAUedict_s@@@Z	; CBaseEntity::Instance
PUBLIC	?GetMonsterPointer@CBaseEntity@@SAPAVCBaseMonster@@PAUedict_s@@@Z ; CBaseEntity::GetMonsterPointer
PUBLIC	?SetGroundEntity@CBaseEntity@@QAEXPAUedict_s@@@Z ; CBaseEntity::SetGroundEntity
PUBLIC	?ClearGroundEntity@CBaseEntity@@QAEXXZ		; CBaseEntity::ClearGroundEntity
PUBLIC	?MakeNonSolid@CBaseEntity@@QAEXXZ		; CBaseEntity::MakeNonSolid
PUBLIC	?RestoreSolid@CBaseEntity@@QAEXXZ		; CBaseEntity::RestoreSolid
PUBLIC	?edict@CBaseEntity@@QAEPAUedict_s@@XZ		; CBaseEntity::edict
PUBLIC	?eoffset@CBaseEntity@@QAEHXZ			; CBaseEntity::eoffset
PUBLIC	?entindex@CBaseEntity@@QAEHXZ			; CBaseEntity::entindex
PUBLIC	??0CEntityFactoryDictionary@@QAE@XZ		; CEntityFactoryDictionary::CEntityFactoryDictionary
PUBLIC	?InstallFactory@CEntityFactoryDictionary@@UAEXPAVIEntityFactory@@PBD@Z ; CEntityFactoryDictionary::InstallFactory
PUBLIC	?Create@CEntityFactoryDictionary@@UAEPAVCBaseEntity@@PBDPAUentvars_s@@@Z ; CEntityFactoryDictionary::Create
PUBLIC	?Destroy@CEntityFactoryDictionary@@UAEXPBDPAVCBaseEntity@@@Z ; CEntityFactoryDictionary::Destroy
PUBLIC	?GetCannonicalName@CEntityFactoryDictionary@@UAEPBDPBD@Z ; CEntityFactoryDictionary::GetCannonicalName
PUBLIC	?ReportEntitySizes@CEntityFactoryDictionary@@QAEXXZ ; CEntityFactoryDictionary::ReportEntitySizes
PUBLIC	?FindFactory@CEntityFactoryDictionary@@EAEPAVIEntityFactory@@PBD@Z ; CEntityFactoryDictionary::FindFactory
PUBLIC	??0?$CUtlDict@PAVIEntityFactory@@G@@QAE@HHH@Z	; CUtlDict<IEntityFactory *,unsigned short>::CUtlDict<IEntityFactory *,unsigned short>
PUBLIC	??1?$CUtlDict@PAVIEntityFactory@@G@@QAE@XZ	; CUtlDict<IEntityFactory *,unsigned short>::~CUtlDict<IEntityFactory *,unsigned short>
PUBLIC	?Element@?$CUtlDict@PAVIEntityFactory@@G@@QAEAAPAVIEntityFactory@@G@Z ; CUtlDict<IEntityFactory *,unsigned short>::Element
PUBLIC	??A?$CUtlDict@PAVIEntityFactory@@G@@QAEAAPAVIEntityFactory@@G@Z ; CUtlDict<IEntityFactory *,unsigned short>::operator[]
PUBLIC	?GetElementName@?$CUtlDict@PAVIEntityFactory@@G@@QAEPADG@Z ; CUtlDict<IEntityFactory *,unsigned short>::GetElementName
PUBLIC	?InvalidIndex@?$CUtlDict@PAVIEntityFactory@@G@@SAGXZ ; CUtlDict<IEntityFactory *,unsigned short>::InvalidIndex
PUBLIC	?Insert@?$CUtlDict@PAVIEntityFactory@@G@@QAEGPBDABQAVIEntityFactory@@@Z ; CUtlDict<IEntityFactory *,unsigned short>::Insert
PUBLIC	?Find@?$CUtlDict@PAVIEntityFactory@@G@@QBEGPBD@Z ; CUtlDict<IEntityFactory *,unsigned short>::Find
PUBLIC	?RemoveAll@?$CUtlDict@PAVIEntityFactory@@G@@QAEXXZ ; CUtlDict<IEntityFactory *,unsigned short>::RemoveAll
PUBLIC	?Purge@?$CUtlDict@PAVIEntityFactory@@G@@QAEXXZ	; CUtlDict<IEntityFactory *,unsigned short>::Purge
PUBLIC	?First@?$CUtlDict@PAVIEntityFactory@@G@@QBEGXZ	; CUtlDict<IEntityFactory *,unsigned short>::First
PUBLIC	?Next@?$CUtlDict@PAVIEntityFactory@@G@@QBEGG@Z	; CUtlDict<IEntityFactory *,unsigned short>::Next
PUBLIC	??0?$CUtlMap@PBDPAVIEntityFactory@@G@@QAE@HHP6A_NABQBD0@Z@Z ; CUtlMap<char const *,IEntityFactory *,unsigned short>::CUtlMap<char const *,IEntityFactory *,unsigned short>
PUBLIC	??A?$CUtlMap@PBDPAVIEntityFactory@@G@@QAEAAPAVIEntityFactory@@G@Z ; CUtlMap<char const *,IEntityFactory *,unsigned short>::operator[]
PUBLIC	?Key@?$CUtlMap@PBDPAVIEntityFactory@@G@@QAEAAPBDG@Z ; CUtlMap<char const *,IEntityFactory *,unsigned short>::Key
PUBLIC	?InvalidIndex@?$CUtlMap@PBDPAVIEntityFactory@@G@@SAGXZ ; CUtlMap<char const *,IEntityFactory *,unsigned short>::InvalidIndex
PUBLIC	?SetLessFunc@?$CUtlMap@PBDPAVIEntityFactory@@G@@QAEXP6A_NABQBD0@Z@Z ; CUtlMap<char const *,IEntityFactory *,unsigned short>::SetLessFunc
PUBLIC	?Insert@?$CUtlMap@PBDPAVIEntityFactory@@G@@QAEGABQBDABQAVIEntityFactory@@@Z ; CUtlMap<char const *,IEntityFactory *,unsigned short>::Insert
PUBLIC	?Find@?$CUtlMap@PBDPAVIEntityFactory@@G@@QBEGABQBD@Z ; CUtlMap<char const *,IEntityFactory *,unsigned short>::Find
PUBLIC	?RemoveAll@?$CUtlMap@PBDPAVIEntityFactory@@G@@QAEXXZ ; CUtlMap<char const *,IEntityFactory *,unsigned short>::RemoveAll
PUBLIC	?FirstInorder@?$CUtlMap@PBDPAVIEntityFactory@@G@@QBEGXZ ; CUtlMap<char const *,IEntityFactory *,unsigned short>::FirstInorder
PUBLIC	?NextInorder@?$CUtlMap@PBDPAVIEntityFactory@@G@@QBEGG@Z ; CUtlMap<char const *,IEntityFactory *,unsigned short>::NextInorder
PUBLIC	??0?$CUtlRBTree@UNode_t@?$CUtlMap@PBDPAVIEntityFactory@@G@@GVCKeyLess@2@V?$CUtlMemory@U?$UtlRBTreeNode_t@UNode_t@?$CUtlMap@PBDPAVIEntityFactory@@G@@G@@G@@@@QAE@HHABVCKeyLess@?$CUtlMap@PBDPAVIEntityFactory@@G@@@Z ; CUtlRBTree<CUtlMap<char const *,IEntityFactory *,unsigned short>::Node_t,unsigned short,CUtlMap<char const *,IEntityFactory *,unsigned short>::CKeyLess,CUtlMemory<UtlRBTreeNode_t<CUtlMap<char const *,IEntityFactory *,unsigned short>::Node_t,unsigned short>,unsigned short> >::CUtlRBTree<CUtlMap<char const *,IEntityFactory *,unsigned short>::Node_t,unsigned short,CUtlMap<char const *,IEntityFactory *,unsigned short>::CKeyLess,CUtlMemory<UtlRBTreeNode_t<CUtlMap<char const *,IEntityFactory *,unsigned short>::Node_t,unsigned short>,unsigned short> >
PUBLIC	??1?$CUtlRBTree@UNode_t@?$CUtlMap@PBDPAVIEntityFactory@@G@@GVCKeyLess@2@V?$CUtlMemory@U?$UtlRBTreeNode_t@UNode_t@?$CUtlMap@PBDPAVIEntityFactory@@G@@G@@G@@@@QAE@XZ ; CUtlRBTree<CUtlMap<char const *,IEntityFactory *,unsigned short>::Node_t,unsigned short,CUtlMap<char const *,IEntityFactory *,unsigned short>::CKeyLess,CUtlMemory<UtlRBTreeNode_t<CUtlMap<char const *,IEntityFactory *,unsigned short>::Node_t,unsigned short>,unsigned short> >::~CUtlRBTree<CUtlMap<char const *,IEntityFactory *,unsigned short>::Node_t,unsigned short,CUtlMap<char const *,IEntityFactory *,unsigned short>::CKeyLess,CUtlMemory<UtlRBTreeNode_t<CUtlMap<char const *,IEntityFactory *,unsigned short>::Node_t,unsigned short>,unsigned short> >
PUBLIC	?Element@?$CUtlRBTree@UNode_t@?$CUtlMap@PBDPAVIEntityFactory@@G@@GVCKeyLess@2@V?$CUtlMemory@U?$UtlRBTreeNode_t@UNode_t@?$CUtlMap@PBDPAVIEntityFactory@@G@@G@@G@@@@QAEAAUNode_t@?$CUtlMap@PBDPAVIEntityFactory@@G@@G@Z ; CUtlRBTree<CUtlMap<char const *,IEntityFactory *,unsigned short>::Node_t,unsigned short,CUtlMap<char const *,IEntityFactory *,unsigned short>::CKeyLess,CUtlMemory<UtlRBTreeNode_t<CUtlMap<char const *,IEntityFactory *,unsigned short>::Node_t,unsigned short>,unsigned short> >::Element
PUBLIC	?Element@?$CUtlRBTree@UNode_t@?$CUtlMap@PBDPAVIEntityFactory@@G@@GVCKeyLess@2@V?$CUtlMemory@U?$UtlRBTreeNode_t@UNode_t@?$CUtlMap@PBDPAVIEntityFactory@@G@@G@@G@@@@QBEABUNode_t@?$CUtlMap@PBDPAVIEntityFactory@@G@@G@Z ; CUtlRBTree<CUtlMap<char const *,IEntityFactory *,unsigned short>::Node_t,unsigned short,CUtlMap<char const *,IEntityFactory *,unsigned short>::CKeyLess,CUtlMemory<UtlRBTreeNode_t<CUtlMap<char const *,IEntityFactory *,unsigned short>::Node_t,unsigned short>,unsigned short> >::Element
PUBLIC	?Root@?$CUtlRBTree@UNode_t@?$CUtlMap@PBDPAVIEntityFactory@@G@@GVCKeyLess@2@V?$CUtlMemory@U?$UtlRBTreeNode_t@UNode_t@?$CUtlMap@PBDPAVIEntityFactory@@G@@G@@G@@@@QBEGXZ ; CUtlRBTree<CUtlMap<char const *,IEntityFactory *,unsigned short>::Node_t,unsigned short,CUtlMap<char const *,IEntityFactory *,unsigned short>::CKeyLess,CUtlMemory<UtlRBTreeNode_t<CUtlMap<char const *,IEntityFactory *,unsigned short>::Node_t,unsigned short>,unsigned short> >::Root
PUBLIC	?Count@?$CUtlRBTree@UNode_t@?$CUtlMap@PBDPAVIEntityFactory@@G@@GVCKeyLess@2@V?$CUtlMemory@U?$UtlRBTreeNode_t@UNode_t@?$CUtlMap@PBDPAVIEntityFactory@@G@@G@@G@@@@QBEIXZ ; CUtlRBTree<CUtlMap<char const *,IEntityFactory *,unsigned short>::Node_t,unsigned short,CUtlMap<char const *,IEntityFactory *,unsigned short>::CKeyLess,CUtlMemory<UtlRBTreeNode_t<CUtlMap<char const *,IEntityFactory *,unsigned short>::Node_t,unsigned short>,unsigned short> >::Count
PUBLIC	?Parent@?$CUtlRBTree@UNode_t@?$CUtlMap@PBDPAVIEntityFactory@@G@@GVCKeyLess@2@V?$CUtlMemory@U?$UtlRBTreeNode_t@UNode_t@?$CUtlMap@PBDPAVIEntityFactory@@G@@G@@G@@@@QBEGG@Z ; CUtlRBTree<CUtlMap<char const *,IEntityFactory *,unsigned short>::Node_t,unsigned short,CUtlMap<char const *,IEntityFactory *,unsigned short>::CKeyLess,CUtlMemory<UtlRBTreeNode_t<CUtlMap<char const *,IEntityFactory *,unsigned short>::Node_t,unsigned short>,unsigned short> >::Parent
PUBLIC	?LeftChild@?$CUtlRBTree@UNode_t@?$CUtlMap@PBDPAVIEntityFactory@@G@@GVCKeyLess@2@V?$CUtlMemory@U?$UtlRBTreeNode_t@UNode_t@?$CUtlMap@PBDPAVIEntityFactory@@G@@G@@G@@@@QBEGG@Z ; CUtlRBTree<CUtlMap<char const *,IEntityFactory *,unsigned short>::Node_t,unsigned short,CUtlMap<char const *,IEntityFactory *,unsigned short>::CKeyLess,CUtlMemory<UtlRBTreeNode_t<CUtlMap<char const *,IEntityFactory *,unsigned short>::Node_t,unsigned short>,unsigned short> >::LeftChild
PUBLIC	?RightChild@?$CUtlRBTree@UNode_t@?$CUtlMap@PBDPAVIEntityFactory@@G@@GVCKeyLess@2@V?$CUtlMemory@U?$UtlRBTreeNode_t@UNode_t@?$CUtlMap@PBDPAVIEntityFactory@@G@@G@@G@@@@QBEGG@Z ; CUtlRBTree<CUtlMap<char const *,IEntityFactory *,unsigned short>::Node_t,unsigned short,CUtlMap<char const *,IEntityFactory *,unsigned short>::CKeyLess,CUtlMemory<UtlRBTreeNode_t<CUtlMap<char const *,IEntityFactory *,unsigned short>::Node_t,unsigned short>,unsigned short> >::RightChild
PUBLIC	?IsLeftChild@?$CUtlRBTree@UNode_t@?$CUtlMap@PBDPAVIEntityFactory@@G@@GVCKeyLess@2@V?$CUtlMemory@U?$UtlRBTreeNode_t@UNode_t@?$CUtlMap@PBDPAVIEntityFactory@@G@@G@@G@@@@QBE_NG@Z ; CUtlRBTree<CUtlMap<char const *,IEntityFactory *,unsigned short>::Node_t,unsigned short,CUtlMap<char const *,IEntityFactory *,unsigned short>::CKeyLess,CUtlMemory<UtlRBTreeNode_t<CUtlMap<char const *,IEntityFactory *,unsigned short>::Node_t,unsigned short>,unsigned short> >::IsLeftChild
PUBLIC	?IsRightChild@?$CUtlRBTree@UNode_t@?$CUtlMap@PBDPAVIEntityFactory@@G@@GVCKeyLess@2@V?$CUtlMemory@U?$UtlRBTreeNode_t@UNode_t@?$CUtlMap@PBDPAVIEntityFactory@@G@@G@@G@@@@QBE_NG@Z ; CUtlRBTree<CUtlMap<char const *,IEntityFactory *,unsigned short>::Node_t,unsigned short,CUtlMap<char const *,IEntityFactory *,unsigned short>::CKeyLess,CUtlMemory<UtlRBTreeNode_t<CUtlMap<char const *,IEntityFactory *,unsigned short>::Node_t,unsigned short>,unsigned short> >::IsRightChild
PUBLIC	?IsRoot@?$CUtlRBTree@UNode_t@?$CUtlMap@PBDPAVIEntityFactory@@G@@GVCKeyLess@2@V?$CUtlMemory@U?$UtlRBTreeNode_t@UNode_t@?$CUtlMap@PBDPAVIEntityFactory@@G@@G@@G@@@@QBE_NG@Z ; CUtlRBTree<CUtlMap<char const *,IEntityFactory *,unsigned short>::Node_t,unsigned short,CUtlMap<char const *,IEntityFactory *,unsigned short>::CKeyLess,CUtlMemory<UtlRBTreeNode_t<CUtlMap<char const *,IEntityFactory *,unsigned short>::Node_t,unsigned short>,unsigned short> >::IsRoot
PUBLIC	?IsValidIndex@?$CUtlRBTree@UNode_t@?$CUtlMap@PBDPAVIEntityFactory@@G@@GVCKeyLess@2@V?$CUtlMemory@U?$UtlRBTreeNode_t@UNode_t@?$CUtlMap@PBDPAVIEntityFactory@@G@@G@@G@@@@QBE_NG@Z ; CUtlRBTree<CUtlMap<char const *,IEntityFactory *,unsigned short>::Node_t,unsigned short,CUtlMap<char const *,IEntityFactory *,unsigned short>::CKeyLess,CUtlMemory<UtlRBTreeNode_t<CUtlMap<char const *,IEntityFactory *,unsigned short>::Node_t,unsigned short>,unsigned short> >::IsValidIndex
PUBLIC	?IsValid@?$CUtlRBTree@UNode_t@?$CUtlMap@PBDPAVIEntityFactory@@G@@GVCKeyLess@2@V?$CUtlMemory@U?$UtlRBTreeNode_t@UNode_t@?$CUtlMap@PBDPAVIEntityFactory@@G@@G@@G@@@@QBE_NXZ ; CUtlRBTree<CUtlMap<char const *,IEntityFactory *,unsigned short>::Node_t,unsigned short,CUtlMap<char const *,IEntityFactory *,unsigned short>::CKeyLess,CUtlMemory<UtlRBTreeNode_t<CUtlMap<char const *,IEntityFactory *,unsigned short>::Node_t,unsigned short>,unsigned short> >::IsValid
PUBLIC	?InvalidIndex@?$CUtlRBTree@UNode_t@?$CUtlMap@PBDPAVIEntityFactory@@G@@GVCKeyLess@2@V?$CUtlMemory@U?$UtlRBTreeNode_t@UNode_t@?$CUtlMap@PBDPAVIEntityFactory@@G@@G@@G@@@@SAGXZ ; CUtlRBTree<CUtlMap<char const *,IEntityFactory *,unsigned short>::Node_t,unsigned short,CUtlMap<char const *,IEntityFactory *,unsigned short>::CKeyLess,CUtlMemory<UtlRBTreeNode_t<CUtlMap<char const *,IEntityFactory *,unsigned short>::Node_t,unsigned short>,unsigned short> >::InvalidIndex
PUBLIC	?SetLessFunc@?$CUtlRBTree@UNode_t@?$CUtlMap@PBDPAVIEntityFactory@@G@@GVCKeyLess@2@V?$CUtlMemory@U?$UtlRBTreeNode_t@UNode_t@?$CUtlMap@PBDPAVIEntityFactory@@G@@G@@G@@@@QAEXABVCKeyLess@?$CUtlMap@PBDPAVIEntityFactory@@G@@@Z ; CUtlRBTree<CUtlMap<char const *,IEntityFactory *,unsigned short>::Node_t,unsigned short,CUtlMap<char const *,IEntityFactory *,unsigned short>::CKeyLess,CUtlMemory<UtlRBTreeNode_t<CUtlMap<char const *,IEntityFactory *,unsigned short>::Node_t,unsigned short>,unsigned short> >::SetLessFunc
PUBLIC	?NewNode@?$CUtlRBTree@UNode_t@?$CUtlMap@PBDPAVIEntityFactory@@G@@GVCKeyLess@2@V?$CUtlMemory@U?$UtlRBTreeNode_t@UNode_t@?$CUtlMap@PBDPAVIEntityFactory@@G@@G@@G@@@@QAEGXZ ; CUtlRBTree<CUtlMap<char const *,IEntityFactory *,unsigned short>::Node_t,unsigned short,CUtlMap<char const *,IEntityFactory *,unsigned short>::CKeyLess,CUtlMemory<UtlRBTreeNode_t<CUtlMap<char const *,IEntityFactory *,unsigned short>::Node_t,unsigned short>,unsigned short> >::NewNode
PUBLIC	?Insert@?$CUtlRBTree@UNode_t@?$CUtlMap@PBDPAVIEntityFactory@@G@@GVCKeyLess@2@V?$CUtlMemory@U?$UtlRBTreeNode_t@UNode_t@?$CUtlMap@PBDPAVIEntityFactory@@G@@G@@G@@@@QAEGABUNode_t@?$CUtlMap@PBDPAVIEntityFactory@@G@@@Z ; CUtlRBTree<CUtlMap<char const *,IEntityFactory *,unsigned short>::Node_t,unsigned short,CUtlMap<char const *,IEntityFactory *,unsigned short>::CKeyLess,CUtlMemory<UtlRBTreeNode_t<CUtlMap<char const *,IEntityFactory *,unsigned short>::Node_t,unsigned short>,unsigned short> >::Insert
PUBLIC	?Find@?$CUtlRBTree@UNode_t@?$CUtlMap@PBDPAVIEntityFactory@@G@@GVCKeyLess@2@V?$CUtlMemory@U?$UtlRBTreeNode_t@UNode_t@?$CUtlMap@PBDPAVIEntityFactory@@G@@G@@G@@@@QBEGABUNode_t@?$CUtlMap@PBDPAVIEntityFactory@@G@@@Z ; CUtlRBTree<CUtlMap<char const *,IEntityFactory *,unsigned short>::Node_t,unsigned short,CUtlMap<char const *,IEntityFactory *,unsigned short>::CKeyLess,CUtlMemory<UtlRBTreeNode_t<CUtlMap<char const *,IEntityFactory *,unsigned short>::Node_t,unsigned short>,unsigned short> >::Find
PUBLIC	?RemoveAll@?$CUtlRBTree@UNode_t@?$CUtlMap@PBDPAVIEntityFactory@@G@@GVCKeyLess@2@V?$CUtlMemory@U?$UtlRBTreeNode_t@UNode_t@?$CUtlMap@PBDPAVIEntityFactory@@G@@G@@G@@@@QAEXXZ ; CUtlRBTree<CUtlMap<char const *,IEntityFactory *,unsigned short>::Node_t,unsigned short,CUtlMap<char const *,IEntityFactory *,unsigned short>::CKeyLess,CUtlMemory<UtlRBTreeNode_t<CUtlMap<char const *,IEntityFactory *,unsigned short>::Node_t,unsigned short>,unsigned short> >::RemoveAll
PUBLIC	?Purge@?$CUtlRBTree@UNode_t@?$CUtlMap@PBDPAVIEntityFactory@@G@@GVCKeyLess@2@V?$CUtlMemory@U?$UtlRBTreeNode_t@UNode_t@?$CUtlMap@PBDPAVIEntityFactory@@G@@G@@G@@@@QAEXXZ ; CUtlRBTree<CUtlMap<char const *,IEntityFactory *,unsigned short>::Node_t,unsigned short,CUtlMap<char const *,IEntityFactory *,unsigned short>::CKeyLess,CUtlMemory<UtlRBTreeNode_t<CUtlMap<char const *,IEntityFactory *,unsigned short>::Node_t,unsigned short>,unsigned short> >::Purge
PUBLIC	?FirstInorder@?$CUtlRBTree@UNode_t@?$CUtlMap@PBDPAVIEntityFactory@@G@@GVCKeyLess@2@V?$CUtlMemory@U?$UtlRBTreeNode_t@UNode_t@?$CUtlMap@PBDPAVIEntityFactory@@G@@G@@G@@@@QBEGXZ ; CUtlRBTree<CUtlMap<char const *,IEntityFactory *,unsigned short>::Node_t,unsigned short,CUtlMap<char const *,IEntityFactory *,unsigned short>::CKeyLess,CUtlMemory<UtlRBTreeNode_t<CUtlMap<char const *,IEntityFactory *,unsigned short>::Node_t,unsigned short>,unsigned short> >::FirstInorder
PUBLIC	?NextInorder@?$CUtlRBTree@UNode_t@?$CUtlMap@PBDPAVIEntityFactory@@G@@GVCKeyLess@2@V?$CUtlMemory@U?$UtlRBTreeNode_t@UNode_t@?$CUtlMap@PBDPAVIEntityFactory@@G@@G@@G@@@@QBEGG@Z ; CUtlRBTree<CUtlMap<char const *,IEntityFactory *,unsigned short>::Node_t,unsigned short,CUtlMap<char const *,IEntityFactory *,unsigned short>::CKeyLess,CUtlMemory<UtlRBTreeNode_t<CUtlMap<char const *,IEntityFactory *,unsigned short>::Node_t,unsigned short>,unsigned short> >::NextInorder
PUBLIC	?SetParent@?$CUtlRBTree@UNode_t@?$CUtlMap@PBDPAVIEntityFactory@@G@@GVCKeyLess@2@V?$CUtlMemory@U?$UtlRBTreeNode_t@UNode_t@?$CUtlMap@PBDPAVIEntityFactory@@G@@G@@G@@@@IAEXGG@Z ; CUtlRBTree<CUtlMap<char const *,IEntityFactory *,unsigned short>::Node_t,unsigned short,CUtlMap<char const *,IEntityFactory *,unsigned short>::CKeyLess,CUtlMemory<UtlRBTreeNode_t<CUtlMap<char const *,IEntityFactory *,unsigned short>::Node_t,unsigned short>,unsigned short> >::SetParent
PUBLIC	?SetLeftChild@?$CUtlRBTree@UNode_t@?$CUtlMap@PBDPAVIEntityFactory@@G@@GVCKeyLess@2@V?$CUtlMemory@U?$UtlRBTreeNode_t@UNode_t@?$CUtlMap@PBDPAVIEntityFactory@@G@@G@@G@@@@IAEXGG@Z ; CUtlRBTree<CUtlMap<char const *,IEntityFactory *,unsigned short>::Node_t,unsigned short,CUtlMap<char const *,IEntityFactory *,unsigned short>::CKeyLess,CUtlMemory<UtlRBTreeNode_t<CUtlMap<char const *,IEntityFactory *,unsigned short>::Node_t,unsigned short>,unsigned short> >::SetLeftChild
PUBLIC	?SetRightChild@?$CUtlRBTree@UNode_t@?$CUtlMap@PBDPAVIEntityFactory@@G@@GVCKeyLess@2@V?$CUtlMemory@U?$UtlRBTreeNode_t@UNode_t@?$CUtlMap@PBDPAVIEntityFactory@@G@@G@@G@@@@IAEXGG@Z ; CUtlRBTree<CUtlMap<char const *,IEntityFactory *,unsigned short>::Node_t,unsigned short,CUtlMap<char const *,IEntityFactory *,unsigned short>::CKeyLess,CUtlMemory<UtlRBTreeNode_t<CUtlMap<char const *,IEntityFactory *,unsigned short>::Node_t,unsigned short>,unsigned short> >::SetRightChild
PUBLIC	?LinkToParent@?$CUtlRBTree@UNode_t@?$CUtlMap@PBDPAVIEntityFactory@@G@@GVCKeyLess@2@V?$CUtlMemory@U?$UtlRBTreeNode_t@UNode_t@?$CUtlMap@PBDPAVIEntityFactory@@G@@G@@G@@@@IAEXGG_N@Z ; CUtlRBTree<CUtlMap<char const *,IEntityFactory *,unsigned short>::Node_t,unsigned short,CUtlMap<char const *,IEntityFactory *,unsigned short>::CKeyLess,CUtlMemory<UtlRBTreeNode_t<CUtlMap<char const *,IEntityFactory *,unsigned short>::Node_t,unsigned short>,unsigned short> >::LinkToParent
PUBLIC	?Links@?$CUtlRBTree@UNode_t@?$CUtlMap@PBDPAVIEntityFactory@@G@@GVCKeyLess@2@V?$CUtlMemory@U?$UtlRBTreeNode_t@UNode_t@?$CUtlMap@PBDPAVIEntityFactory@@G@@G@@G@@@@IBEABU?$UtlRBTreeLinks_t@G@@G@Z ; CUtlRBTree<CUtlMap<char const *,IEntityFactory *,unsigned short>::Node_t,unsigned short,CUtlMap<char const *,IEntityFactory *,unsigned short>::CKeyLess,CUtlMemory<UtlRBTreeNode_t<CUtlMap<char const *,IEntityFactory *,unsigned short>::Node_t,unsigned short>,unsigned short> >::Links
PUBLIC	?Links@?$CUtlRBTree@UNode_t@?$CUtlMap@PBDPAVIEntityFactory@@G@@GVCKeyLess@2@V?$CUtlMemory@U?$UtlRBTreeNode_t@UNode_t@?$CUtlMap@PBDPAVIEntityFactory@@G@@G@@G@@@@IAEAAU?$UtlRBTreeLinks_t@G@@G@Z ; CUtlRBTree<CUtlMap<char const *,IEntityFactory *,unsigned short>::Node_t,unsigned short,CUtlMap<char const *,IEntityFactory *,unsigned short>::CKeyLess,CUtlMemory<UtlRBTreeNode_t<CUtlMap<char const *,IEntityFactory *,unsigned short>::Node_t,unsigned short>,unsigned short> >::Links
PUBLIC	?IsRed@?$CUtlRBTree@UNode_t@?$CUtlMap@PBDPAVIEntityFactory@@G@@GVCKeyLess@2@V?$CUtlMemory@U?$UtlRBTreeNode_t@UNode_t@?$CUtlMap@PBDPAVIEntityFactory@@G@@G@@G@@@@IBE_NG@Z ; CUtlRBTree<CUtlMap<char const *,IEntityFactory *,unsigned short>::Node_t,unsigned short,CUtlMap<char const *,IEntityFactory *,unsigned short>::CKeyLess,CUtlMemory<UtlRBTreeNode_t<CUtlMap<char const *,IEntityFactory *,unsigned short>::Node_t,unsigned short>,unsigned short> >::IsRed
PUBLIC	?Color@?$CUtlRBTree@UNode_t@?$CUtlMap@PBDPAVIEntityFactory@@G@@GVCKeyLess@2@V?$CUtlMemory@U?$UtlRBTreeNode_t@UNode_t@?$CUtlMap@PBDPAVIEntityFactory@@G@@G@@G@@@@IBE?AW4NodeColor_t@1@G@Z ; CUtlRBTree<CUtlMap<char const *,IEntityFactory *,unsigned short>::Node_t,unsigned short,CUtlMap<char const *,IEntityFactory *,unsigned short>::CKeyLess,CUtlMemory<UtlRBTreeNode_t<CUtlMap<char const *,IEntityFactory *,unsigned short>::Node_t,unsigned short>,unsigned short> >::Color
PUBLIC	?SetColor@?$CUtlRBTree@UNode_t@?$CUtlMap@PBDPAVIEntityFactory@@G@@GVCKeyLess@2@V?$CUtlMemory@U?$UtlRBTreeNode_t@UNode_t@?$CUtlMap@PBDPAVIEntityFactory@@G@@G@@G@@@@IAEXGW4NodeColor_t@1@@Z ; CUtlRBTree<CUtlMap<char const *,IEntityFactory *,unsigned short>::Node_t,unsigned short,CUtlMap<char const *,IEntityFactory *,unsigned short>::CKeyLess,CUtlMemory<UtlRBTreeNode_t<CUtlMap<char const *,IEntityFactory *,unsigned short>::Node_t,unsigned short>,unsigned short> >::SetColor
PUBLIC	?RotateLeft@?$CUtlRBTree@UNode_t@?$CUtlMap@PBDPAVIEntityFactory@@G@@GVCKeyLess@2@V?$CUtlMemory@U?$UtlRBTreeNode_t@UNode_t@?$CUtlMap@PBDPAVIEntityFactory@@G@@G@@G@@@@IAEXG@Z ; CUtlRBTree<CUtlMap<char const *,IEntityFactory *,unsigned short>::Node_t,unsigned short,CUtlMap<char const *,IEntityFactory *,unsigned short>::CKeyLess,CUtlMemory<UtlRBTreeNode_t<CUtlMap<char const *,IEntityFactory *,unsigned short>::Node_t,unsigned short>,unsigned short> >::RotateLeft
PUBLIC	?RotateRight@?$CUtlRBTree@UNode_t@?$CUtlMap@PBDPAVIEntityFactory@@G@@GVCKeyLess@2@V?$CUtlMemory@U?$UtlRBTreeNode_t@UNode_t@?$CUtlMap@PBDPAVIEntityFactory@@G@@G@@G@@@@IAEXG@Z ; CUtlRBTree<CUtlMap<char const *,IEntityFactory *,unsigned short>::Node_t,unsigned short,CUtlMap<char const *,IEntityFactory *,unsigned short>::CKeyLess,CUtlMemory<UtlRBTreeNode_t<CUtlMap<char const *,IEntityFactory *,unsigned short>::Node_t,unsigned short>,unsigned short> >::RotateRight
PUBLIC	?InsertRebalance@?$CUtlRBTree@UNode_t@?$CUtlMap@PBDPAVIEntityFactory@@G@@GVCKeyLess@2@V?$CUtlMemory@U?$UtlRBTreeNode_t@UNode_t@?$CUtlMap@PBDPAVIEntityFactory@@G@@G@@G@@@@IAEXG@Z ; CUtlRBTree<CUtlMap<char const *,IEntityFactory *,unsigned short>::Node_t,unsigned short,CUtlMap<char const *,IEntityFactory *,unsigned short>::CKeyLess,CUtlMemory<UtlRBTreeNode_t<CUtlMap<char const *,IEntityFactory *,unsigned short>::Node_t,unsigned short>,unsigned short> >::InsertRebalance
PUBLIC	?InsertAt@?$CUtlRBTree@UNode_t@?$CUtlMap@PBDPAVIEntityFactory@@G@@GVCKeyLess@2@V?$CUtlMemory@U?$UtlRBTreeNode_t@UNode_t@?$CUtlMap@PBDPAVIEntityFactory@@G@@G@@G@@@@IAEGG_N@Z ; CUtlRBTree<CUtlMap<char const *,IEntityFactory *,unsigned short>::Node_t,unsigned short,CUtlMap<char const *,IEntityFactory *,unsigned short>::CKeyLess,CUtlMemory<UtlRBTreeNode_t<CUtlMap<char const *,IEntityFactory *,unsigned short>::Node_t,unsigned short>,unsigned short> >::InsertAt
PUBLIC	?FindInsertionPosition@?$CUtlRBTree@UNode_t@?$CUtlMap@PBDPAVIEntityFactory@@G@@GVCKeyLess@2@V?$CUtlMemory@U?$UtlRBTreeNode_t@UNode_t@?$CUtlMap@PBDPAVIEntityFactory@@G@@G@@G@@@@IAEXABUNode_t@?$CUtlMap@PBDPAVIEntityFactory@@G@@AAGAA_N@Z ; CUtlRBTree<CUtlMap<char const *,IEntityFactory *,unsigned short>::Node_t,unsigned short,CUtlMap<char const *,IEntityFactory *,unsigned short>::CKeyLess,CUtlMemory<UtlRBTreeNode_t<CUtlMap<char const *,IEntityFactory *,unsigned short>::Node_t,unsigned short>,unsigned short> >::FindInsertionPosition
PUBLIC	??0CKeyLess@?$CUtlMap@PBDPAVIEntityFactory@@G@@QAE@P6A_NABQBD0@Z@Z ; CUtlMap<char const *,IEntityFactory *,unsigned short>::CKeyLess::CKeyLess
PUBLIC	??7CKeyLess@?$CUtlMap@PBDPAVIEntityFactory@@G@@QBE_NXZ ; CUtlMap<char const *,IEntityFactory *,unsigned short>::CKeyLess::operator!
PUBLIC	??RCKeyLess@?$CUtlMap@PBDPAVIEntityFactory@@G@@QBE_NABUNode_t@1@0@Z ; CUtlMap<char const *,IEntityFactory *,unsigned short>::CKeyLess::operator()
PUBLIC	??0?$CUtlMemory@U?$UtlRBTreeNode_t@UNode_t@?$CUtlMap@PBDPAVIEntityFactory@@G@@G@@G@@QAE@HH@Z ; CUtlMemory<UtlRBTreeNode_t<CUtlMap<char const *,IEntityFactory *,unsigned short>::Node_t,unsigned short>,unsigned short>::CUtlMemory<UtlRBTreeNode_t<CUtlMap<char const *,IEntityFactory *,unsigned short>::Node_t,unsigned short>,unsigned short>
PUBLIC	??1?$CUtlMemory@U?$UtlRBTreeNode_t@UNode_t@?$CUtlMap@PBDPAVIEntityFactory@@G@@G@@G@@QAE@XZ ; CUtlMemory<UtlRBTreeNode_t<CUtlMap<char const *,IEntityFactory *,unsigned short>::Node_t,unsigned short>,unsigned short>::~CUtlMemory<UtlRBTreeNode_t<CUtlMap<char const *,IEntityFactory *,unsigned short>::Node_t,unsigned short>,unsigned short>
PUBLIC	?First@?$CUtlMemory@U?$UtlRBTreeNode_t@UNode_t@?$CUtlMap@PBDPAVIEntityFactory@@G@@G@@G@@QBE?AVIterator_t@1@XZ ; CUtlMemory<UtlRBTreeNode_t<CUtlMap<char const *,IEntityFactory *,unsigned short>::Node_t,unsigned short>,unsigned short>::First
PUBLIC	?Next@?$CUtlMemory@U?$UtlRBTreeNode_t@UNode_t@?$CUtlMap@PBDPAVIEntityFactory@@G@@G@@G@@QBE?AVIterator_t@1@ABV21@@Z ; CUtlMemory<UtlRBTreeNode_t<CUtlMap<char const *,IEntityFactory *,unsigned short>::Node_t,unsigned short>,unsigned short>::Next
PUBLIC	?GetIndex@?$CUtlMemory@U?$UtlRBTreeNode_t@UNode_t@?$CUtlMap@PBDPAVIEntityFactory@@G@@G@@G@@QBEGABVIterator_t@1@@Z ; CUtlMemory<UtlRBTreeNode_t<CUtlMap<char const *,IEntityFactory *,unsigned short>::Node_t,unsigned short>,unsigned short>::GetIndex
PUBLIC	?IsIdxAfter@?$CUtlMemory@U?$UtlRBTreeNode_t@UNode_t@?$CUtlMap@PBDPAVIEntityFactory@@G@@G@@G@@QBE_NGABVIterator_t@1@@Z ; CUtlMemory<UtlRBTreeNode_t<CUtlMap<char const *,IEntityFactory *,unsigned short>::Node_t,unsigned short>,unsigned short>::IsIdxAfter
PUBLIC	?IsValidIterator@?$CUtlMemory@U?$UtlRBTreeNode_t@UNode_t@?$CUtlMap@PBDPAVIEntityFactory@@G@@G@@G@@QBE_NABVIterator_t@1@@Z ; CUtlMemory<UtlRBTreeNode_t<CUtlMap<char const *,IEntityFactory *,unsigned short>::Node_t,unsigned short>,unsigned short>::IsValidIterator
PUBLIC	?InvalidIterator@?$CUtlMemory@U?$UtlRBTreeNode_t@UNode_t@?$CUtlMap@PBDPAVIEntityFactory@@G@@G@@G@@QBE?AVIterator_t@1@XZ ; CUtlMemory<UtlRBTreeNode_t<CUtlMap<char const *,IEntityFactory *,unsigned short>::Node_t,unsigned short>,unsigned short>::InvalidIterator
PUBLIC	??A?$CUtlMemory@U?$UtlRBTreeNode_t@UNode_t@?$CUtlMap@PBDPAVIEntityFactory@@G@@G@@G@@QAEAAU?$UtlRBTreeNode_t@UNode_t@?$CUtlMap@PBDPAVIEntityFactory@@G@@G@@G@Z ; CUtlMemory<UtlRBTreeNode_t<CUtlMap<char const *,IEntityFactory *,unsigned short>::Node_t,unsigned short>,unsigned short>::operator[]
PUBLIC	??A?$CUtlMemory@U?$UtlRBTreeNode_t@UNode_t@?$CUtlMap@PBDPAVIEntityFactory@@G@@G@@G@@QBEABU?$UtlRBTreeNode_t@UNode_t@?$CUtlMap@PBDPAVIEntityFactory@@G@@G@@G@Z ; CUtlMemory<UtlRBTreeNode_t<CUtlMap<char const *,IEntityFactory *,unsigned short>::Node_t,unsigned short>,unsigned short>::operator[]
PUBLIC	?IsIdxValid@?$CUtlMemory@U?$UtlRBTreeNode_t@UNode_t@?$CUtlMap@PBDPAVIEntityFactory@@G@@G@@G@@QBE_NG@Z ; CUtlMemory<UtlRBTreeNode_t<CUtlMap<char const *,IEntityFactory *,unsigned short>::Node_t,unsigned short>,unsigned short>::IsIdxValid
PUBLIC	?InvalidIndex@?$CUtlMemory@U?$UtlRBTreeNode_t@UNode_t@?$CUtlMap@PBDPAVIEntityFactory@@G@@G@@G@@SAGXZ ; CUtlMemory<UtlRBTreeNode_t<CUtlMap<char const *,IEntityFactory *,unsigned short>::Node_t,unsigned short>,unsigned short>::InvalidIndex
PUBLIC	?Base@?$CUtlMemory@U?$UtlRBTreeNode_t@UNode_t@?$CUtlMap@PBDPAVIEntityFactory@@G@@G@@G@@QAEPAU?$UtlRBTreeNode_t@UNode_t@?$CUtlMap@PBDPAVIEntityFactory@@G@@G@@XZ ; CUtlMemory<UtlRBTreeNode_t<CUtlMap<char const *,IEntityFactory *,unsigned short>::Node_t,unsigned short>,unsigned short>::Base
PUBLIC	?Grow@?$CUtlMemory@U?$UtlRBTreeNode_t@UNode_t@?$CUtlMap@PBDPAVIEntityFactory@@G@@G@@G@@QAEXH@Z ; CUtlMemory<UtlRBTreeNode_t<CUtlMap<char const *,IEntityFactory *,unsigned short>::Node_t,unsigned short>,unsigned short>::Grow
PUBLIC	?Purge@?$CUtlMemory@U?$UtlRBTreeNode_t@UNode_t@?$CUtlMap@PBDPAVIEntityFactory@@G@@G@@G@@QAEXXZ ; CUtlMemory<UtlRBTreeNode_t<CUtlMap<char const *,IEntityFactory *,unsigned short>::Node_t,unsigned short>,unsigned short>::Purge
PUBLIC	?IsExternallyAllocated@?$CUtlMemory@U?$UtlRBTreeNode_t@UNode_t@?$CUtlMap@PBDPAVIEntityFactory@@G@@G@@G@@QBE_NXZ ; CUtlMemory<UtlRBTreeNode_t<CUtlMap<char const *,IEntityFactory *,unsigned short>::Node_t,unsigned short>,unsigned short>::IsExternallyAllocated
PUBLIC	?IsReadOnly@?$CUtlMemory@U?$UtlRBTreeNode_t@UNode_t@?$CUtlMap@PBDPAVIEntityFactory@@G@@G@@G@@QBE_NXZ ; CUtlMemory<UtlRBTreeNode_t<CUtlMap<char const *,IEntityFactory *,unsigned short>::Node_t,unsigned short>,unsigned short>::IsReadOnly
PUBLIC	?ValidateGrowSize@?$CUtlMemory@U?$UtlRBTreeNode_t@UNode_t@?$CUtlMap@PBDPAVIEntityFactory@@G@@G@@G@@IAEXXZ ; CUtlMemory<UtlRBTreeNode_t<CUtlMap<char const *,IEntityFactory *,unsigned short>::Node_t,unsigned short>,unsigned short>::ValidateGrowSize
PUBLIC	??0Iterator_t@?$CUtlMemory@U?$UtlRBTreeNode_t@UNode_t@?$CUtlMap@PBDPAVIEntityFactory@@G@@G@@G@@QAE@G@Z ; CUtlMemory<UtlRBTreeNode_t<CUtlMap<char const *,IEntityFactory *,unsigned short>::Node_t,unsigned short>,unsigned short>::Iterator_t::Iterator_t
PUBLIC	??8Iterator_t@?$CUtlMemory@U?$UtlRBTreeNode_t@UNode_t@?$CUtlMap@PBDPAVIEntityFactory@@G@@G@@G@@QBE_NV01@@Z ; CUtlMemory<UtlRBTreeNode_t<CUtlMap<char const *,IEntityFactory *,unsigned short>::Node_t,unsigned short>,unsigned short>::Iterator_t::operator==
PUBLIC	??9Iterator_t@?$CUtlMemory@U?$UtlRBTreeNode_t@UNode_t@?$CUtlMap@PBDPAVIEntityFactory@@G@@G@@G@@QBE_NV01@@Z ; CUtlMemory<UtlRBTreeNode_t<CUtlMap<char const *,IEntityFactory *,unsigned short>::Node_t,unsigned short>,unsigned short>::Iterator_t::operator!=
PUBLIC	?ResetDbgInfo@?$CUtlRBTree@UNode_t@?$CUtlMap@PBDPAVIEntityFactory@@G@@GVCKeyLess@2@V?$CUtlMemory@U?$UtlRBTreeNode_t@UNode_t@?$CUtlMap@PBDPAVIEntityFactory@@G@@G@@G@@@@IAEXXZ ; CUtlRBTree<CUtlMap<char const *,IEntityFactory *,unsigned short>::Node_t,unsigned short,CUtlMap<char const *,IEntityFactory *,unsigned short>::CKeyLess,CUtlMemory<UtlRBTreeNode_t<CUtlMap<char const *,IEntityFactory *,unsigned short>::Node_t,unsigned short>,unsigned short> >::ResetDbgInfo
PUBLIC	??1?$CUtlMap@PBDPAVIEntityFactory@@G@@QAE@XZ	; CUtlMap<char const *,IEntityFactory *,unsigned short>::~CUtlMap<char const *,IEntityFactory *,unsigned short>
PUBLIC	??1CEntityFactoryDictionary@@QAE@XZ		; CEntityFactoryDictionary::~CEntityFactoryDictionary
PUBLIC	_custom
PUBLIC	??$__vcrt_va_start_verify_argument_type@PBD@@YAXXZ ; __vcrt_va_start_verify_argument_type<char const *>
PUBLIC	?UTIL_MoveToOrigin@@YAXPAUedict_s@@ABVVector@@MH@Z ; UTIL_MoveToOrigin
PUBLIC	?UTIL_ScreenFadeBuild@@YAXAAUScreenFade@@ABVVector@@MMHH@Z ; UTIL_ScreenFadeBuild
PUBLIC	?UTIL_ScreenFadeWrite@@YAXABUScreenFade@@PAVCBaseEntity@@@Z ; UTIL_ScreenFadeWrite
PUBLIC	?UTIL_CopyTraceToGlobal@@YAXPAUtrace_s@@@Z	; UTIL_CopyTraceToGlobal
PUBLIC	?UTIL_ConvertTrace@@YAXPAUgametrace_s@@PAUtrace_s@@@Z ; UTIL_ConvertTrace
PUBLIC	??$__vcrt_va_start_verify_argument_type@PAD@@YAXXZ ; __vcrt_va_start_verify_argument_type<char *>
PUBLIC	??0Node_t@?$CUtlMap@PBDPAVIEntityFactory@@G@@QAE@XZ ; CUtlMap<char const *,IEntityFactory *,unsigned short>::Node_t::Node_t
PUBLIC	??0Node_t@?$CUtlMap@PBDPAVIEntityFactory@@G@@QAE@ABU01@@Z ; CUtlMap<char const *,IEntityFactory *,unsigned short>::Node_t::Node_t
PUBLIC	??$CopyConstruct@UNode_t@?$CUtlMap@PBDPAVIEntityFactory@@G@@@@YAXPAUNode_t@?$CUtlMap@PBDPAVIEntityFactory@@G@@ABU01@@Z ; CopyConstruct<CUtlMap<char const *,IEntityFactory *,unsigned short>::Node_t>
PUBLIC	??$Construct@UNode_t@?$CUtlMap@PBDPAVIEntityFactory@@G@@@@YAXPAUNode_t@?$CUtlMap@PBDPAVIEntityFactory@@G@@@Z ; Construct<CUtlMap<char const *,IEntityFactory *,unsigned short>::Node_t>
PUBLIC	??$Destruct@UNode_t@?$CUtlMap@PBDPAVIEntityFactory@@G@@@@YAXPAUNode_t@?$CUtlMap@PBDPAVIEntityFactory@@G@@@Z ; Destruct<CUtlMap<char const *,IEntityFactory *,unsigned short>::Node_t>
PUBLIC	?_OptionsStorage@?1??__local_stdio_printf_options@@9@4_KA ; `__local_stdio_printf_options'::`2'::_OptionsStorage
PUBLIC	??_C@_01NBENCBCI@?$CK?$AA@			; `string'
PUBLIC	??_C@_00CNPNBAHC@?$AA@				; `string'
PUBLIC	??_7IEntityFactoryDictionary@@6B@		; IEntityFactoryDictionary::`vftable'
PUBLIC	??_C@_09CNJINBGN@classname?$AA@			; `string'
PUBLIC	??_C@_0L@FEPNPAJD@targetname?$AA@		; `string'
PUBLIC	??_C@_06JJLAMBGK@target?$AA@			; `string'
PUBLIC	??_C@_0BF@CPEPILID@Bad?5ent?5in?5OFFSET?$CI?$CJ?6?$AA@ ; `string'
PUBLIC	??_C@_0BF@DOONGEFO@Bad?5pev?5in?5OFFSET?$CI?$CJ?6?$AA@ ; `string'
PUBLIC	??_C@_04HDOCAJNK@?$CFs?$CFs?$AA@		; `string'
PUBLIC	??_7CEntityFactoryDictionary@@6B@		; CEntityFactoryDictionary::`vftable'
PUBLIC	?__LINE__Var@?0??InstallFactory@CEntityFactoryDictionary@@UAEXPAVIEntityFactory@@PBD@Z@4JA ; `CEntityFactoryDictionary::InstallFactory'::`1'::__LINE__Var
PUBLIC	??_C@_1IE@NGBBGFHJ@?$AAd?$AA?3?$AA?2?$AA?$CB?$AAd?$AAi?$AAf?$AAf?$AAu?$AAs?$AAi?$AAo?$AAn?$AA?5?$AA2?$AA0?$AA2?$AA0?$AA?2?$AAs?$AAo?$AAu?$AAr?$AAc?$AAe?$AA?5?$AAc?$AAo?$AAd?$AAe?$AA?5?$AA2@ ; `string'
PUBLIC	??_C@_1EE@DJKMNDPK@?$AAF?$AAi?$AAn?$AAd?$AAF?$AAa?$AAc?$AAt?$AAo?$AAr?$AAy?$AA?$CI?$AA?5?$AAp?$AAC?$AAl?$AAa?$AAs?$AAs?$AAN?$AAa?$AAm?$AAe?$AA?5?$AA?$CJ?$AA?5?$AA?$DN?$AA?$DN?$AA?5?$AAN?$AAU?$AAL@ ; `string'
PUBLIC	??_C@_0CN@EDMNCIHJ@Attempted?5to?5create?5unknown?5enti@ ; `string'
PUBLIC	??_C@_0CO@BCJHKPIF@Attempted?5to?5destroy?5unknown?5ent@ ; `string'
PUBLIC	??_C@_0P@FLOJJBNJ@?5?$CFs?3?5?$CFd?5bytes?6?$AA@ ; `string'
PUBLIC	??_C@_0BP@EKJAMGDB@Entity?5Factory?5not?5installed?$CB?6?$AA@ ; `string'
PUBLIC	??_C@_03OFAPEBGM@?$CFs?6?$AA@			; `string'
PUBLIC	?__LINE__Var@?0??UTIL_FunctionToName@@YAPBDPAUdatamap_s@@PAX@Z@4JA ; `UTIL_FunctionToName'::`1'::__LINE__Var
PUBLIC	??_C@_0EC@HIIDFEJP@d?3?2?$CBdiffusion?52020?2source?5code?52@ ; `string'
PUBLIC	??_C@_0DB@HMOMJHEN@sizeof?$CIpMap?9?$DOdataDesc?$FLi?$FN?4func?$CJ?5?$DN@ ; `string'
PUBLIC	?__LINE__Var@?0??UTIL_FunctionFromName@@YAPAXPAUdatamap_s@@PBD@Z@4JA ; `UTIL_FunctionFromName'::`1'::__LINE__Var
PUBLIC	??_C@_0BM@KIPIGGJD@Failed?5to?5find?5function?5?$CFs?6?$AA@ ; `string'
PUBLIC	??_C@_0DJ@CNJCBHEO@entvars_t?5pContainingEntity?5is?5N@ ; `string'
PUBLIC	??_C@_0DC@GHGLEAMP@DAMN?$CB?5?5Even?5the?5engine?5couldn?8t?5@ ; `string'
PUBLIC	??_C@_0BP@JGGHDAMF@ASSERT?5FAILED?3?6?5?$CFs?5?6?$CI?$CFs?$EA?$CFd?$CJ?6?$CFs?$AA@ ; `string'
PUBLIC	??_C@_0BM@BEAJEFCJ@ASSERT?5FAILED?3?6?5?$CFs?5?6?$CI?$CFs?$EA?$CFd?$CJ?$AA@ ; `string'
PUBLIC	??_C@_0BA@HKOJACLM@common?1null?4wav?$AA@	; `string'
PUBLIC	??_C@_0BE@CAMCEHHF@buttons?1button1?4wav?$AA@	; `string'
PUBLIC	??_C@_0BE@KGFGDFNL@buttons?1button2?4wav?$AA@	; `string'
PUBLIC	??_C@_0BE@GNAKOGHO@buttons?1button3?4wav?$AA@	; `string'
PUBLIC	??_C@_0BE@HAAPNGMG@buttons?1button4?4wav?$AA@	; `string'
PUBLIC	??_C@_0BE@LLFDAFGD@buttons?1button5?4wav?$AA@	; `string'
PUBLIC	??_C@_0BE@DNMHHHMN@buttons?1button6?4wav?$AA@	; `string'
PUBLIC	??_C@_0BE@PGJLKEGI@buttons?1button7?4wav?$AA@	; `string'
PUBLIC	??_C@_0BE@HMNBGLN@buttons?1button8?4wav?$AA@	; `string'
PUBLIC	??_C@_0BE@MMJBMFBI@buttons?1button9?4wav?$AA@	; `string'
PUBLIC	??_C@_0BF@DJOOOKGD@buttons?1button10?4wav?$AA@	; `string'
PUBLIC	??_C@_0BF@PCLCDJMG@buttons?1button11?4wav?$AA@	; `string'
PUBLIC	??_C@_0BJ@NJGHAHDG@buttons?1latchlocked1?4wav?$AA@ ; `string'
PUBLIC	??_C@_0BL@KIJJHNJN@buttons?1latchunlocked1?4wav?$AA@ ; `string'
PUBLIC	??_C@_0BJ@BHFHBCLE@buttons?1lightswitch2?4wav?$AA@ ; `string'
PUBLIC	??_C@_0BD@ENNHPNKC@buttons?1lever1?4wav?$AA@	; `string'
PUBLIC	??_C@_0BD@MLEDIPAM@buttons?1lever2?4wav?$AA@	; `string'
PUBLIC	??_C@_0BD@BPFMKJ@buttons?1lever3?4wav?$AA@	; `string'
PUBLIC	??_C@_0BD@BNBKGMBB@buttons?1lever4?4wav?$AA@	; `string'
PUBLIC	??_C@_0BD@NGEGLPLE@buttons?1lever5?4wav?$AA@	; `string'
PUBLIC	??_C@_06IPCFPMHD@USE_ON?$AA@			; `string'
PUBLIC	??_C@_07GBLDLMEB@USE_OFF?$AA@			; `string'
PUBLIC	??_C@_0L@OGLLPLDI@USE_TOGGLE?$AA@		; `string'
PUBLIC	??_C@_07BMOJKOM@USE_SET?$AA@			; `string'
PUBLIC	??_C@_09BMBMPLBD@USE_RESET?$AA@			; `string'
PUBLIC	??_C@_0L@LKEFPLIM@USE_REMOVE?$AA@		; `string'
PUBLIC	??_C@_0BC@KILIBAEO@UNKNOWN?5USE_TYPE?$CB?$AA@	; `string'
PUBLIC	??_C@_02BFICIOJL@ON?$AA@			; `string'
PUBLIC	??_C@_03MPPIHBHJ@OFF?$AA@			; `string'
PUBLIC	??_C@_07CJNHFDCG@TURN?5ON?$AA@			; `string'
PUBLIC	??_C@_08HKBEOLJF@TURN?5OFF?$AA@			; `string'
PUBLIC	??_C@_06FILEIAAK@IN?5USE?$AA@			; `string'
PUBLIC	??_C@_04NNCJDDJC@DEAD?$AA@			; `string'
PUBLIC	??_C@_0P@DDEIIOOC@UNKNOWN?5STATE?$CB?$AA@	; `string'
PUBLIC	??_C@_0BO@CJHNLOLN@Unknown?5state?5?8?$CFs?8?5specified?6?$AA@ ; `string'
PUBLIC	??_C@_08GEAGNOOL@DAMAGE?3?5?$AA@		; `string'
PUBLIC	??_C@_08KCJHNIOM@Generic?5?$AA@			; `string'
PUBLIC	??_C@_06MKGCDNFI@Crush?5?$AA@			; `string'
PUBLIC	??_C@_07KGEFKMPI@Bullet?5?$AA@			; `string'
PUBLIC	??_C@_06BAAPDDP@Slash?5?$AA@			; `string'
PUBLIC	??_C@_05CLGEDABL@Burn?5?$AA@			; `string'
PUBLIC	??_C@_07NICJCBLL@Freeze?5?$AA@			; `string'
PUBLIC	??_C@_05JGNHLHIN@Fall?5?$AA@			; `string'
PUBLIC	??_C@_06NFJFDOFB@Blast?5?$AA@			; `string'
PUBLIC	??_C@_05BJAFNHJA@Club?5?$AA@			; `string'
PUBLIC	??_C@_06HHPOOGIO@Shock?5?$AA@			; `string'
PUBLIC	??_C@_06DGDFEOFK@Sonic?5?$AA@			; `string'
PUBLIC	??_C@_0N@EDIGKLKL@Energy?5Beam?5?$AA@		; `string'
PUBLIC	??_C@_0L@DCELGEEG@Never?5Gib?5?$AA@		; `string'
PUBLIC	??_C@_0M@DBLGIPPB@Always?5Gib?5?$AA@		; `string'
PUBLIC	??_C@_06KOHKGHBA@Drown?5?$AA@			; `string'
PUBLIC	??_C@_0O@FNBCIECF@Paralyze?5Gas?5?$AA@		; `string'
PUBLIC	??_C@_0L@OHLKEAGK@Nerve?5Gas?5?$AA@		; `string'
PUBLIC	??_C@_07JHAEAOAM@Poison?5?$AA@			; `string'
PUBLIC	??_C@_0L@NJHMBGOH@Radiation?5?$AA@		; `string'
PUBLIC	??_C@_0P@GIMMOKAK@Drown?5Recover?5?$AA@		; `string'
PUBLIC	??_C@_05MINPHFNP@Acid?5?$AA@			; `string'
PUBLIC	??_C@_0L@DBFEJAOP@Slow?5Burn?5?$AA@		; `string'
PUBLIC	??_C@_0N@HOCPLMNK@Slow?5Freeze?5?$AA@		; `string'
PUBLIC	??_C@_07FOGICJJJ@Mortar?5?$AA@			; `string'
PUBLIC	??_C@_0BB@DPEOBDLP@Nuclear?5Explode?5?$AA@	; `string'
PUBLIC	??_C@_05HKAKDGKI@EMPTY?$AA@			; `string'
PUBLIC	??_C@_05CEBIDAFG@SOLID?$AA@			; `string'
PUBLIC	??_C@_05IAJGPPOC@WATER?$AA@			; `string'
PUBLIC	??_C@_05EKHECDCJ@SLIME?$AA@			; `string'
PUBLIC	??_C@_04GCFKOLE@LAVA?$AA@			; `string'
PUBLIC	??_C@_03BALFAEJD@SKY?$AA@			; `string'
PUBLIC	??_C@_06GCOFKHFL@LADDER?$AA@			; `string'
PUBLIC	??_C@_08LBLMGPPJ@FLYFIELD?$AA@			; `string'
PUBLIC	??_C@_0BB@EODHJKLI@GRAVITY_FLYFIELD?$AA@	; `string'
PUBLIC	??_C@_03KEDKDEDN@FOG?$AA@			; `string'
PUBLIC	??_C@_09EKIMMEFD@SPECIAL?51?$AA@		; `string'
PUBLIC	??_C@_09GBKBJHJA@SPECIAL?52?$AA@		; `string'
PUBLIC	??_C@_09HILKKGNB@SPECIAL?53?$AA@		; `string'
PUBLIC	??_C@_0N@PCPMIODG@NO?5CONTENTS?$CB?$AA@		; `string'
PUBLIC	??_C@_09JHJFKEJL@GLOBAL?5ON?$AA@		; `string'
PUBLIC	??_C@_0L@MPHKGGFD@GLOBAL?5OFF?$AA@		; `string'
PUBLIC	??_C@_0M@GJCHIFD@GLOBAL?5DEAD?$AA@		; `string'
PUBLIC	??_C@_06BCLBLBIN@?$CKlocus?$AA@			; `string'
PUBLIC	??_C@_0CH@BAAGDENI@UTIL_HudMessage?3?5Message?5is?5too?5@ ; `string'
PUBLIC	??_C@_02DPKJAMEF@?$CFd?$AA@			; `string'
PUBLIC	??_C@_0BM@LHAMECIN@Missing?5?8?$CJ?8?5in?5master?5?$CC?$CFs?$CC?6?$AA@ ; `string'
PUBLIC	??_C@_0BO@DJEDJFHM@Missing?5?8?$CJ?8?5in?5targetname?3?5?$CFs?$AA@ ; `string'
PUBLIC	??_C@_0CG@KKOBGNAB@Firing?3?5?$CFs?5?$CI?$CFs?$CJ?5with?5?$CFs?5and?5valu@ ; `string'
PUBLIC	??_C@_0BD@PNMHEJJE@buttons?1spark1?4wav?$AA@	; `string'
PUBLIC	??_C@_0BD@HLFDDLDK@buttons?1spark2?4wav?$AA@	; `string'
PUBLIC	??_C@_0BD@LAAPOIJP@buttons?1spark3?4wav?$AA@	; `string'
PUBLIC	??_C@_0CA@GPGNKNKH@NULL?5Ent?5in?5UTIL_PrecacheOther?6?$AA@ ; `string'
PUBLIC	??_C@_0CK@LHGCDBLH@UTIL_PrecacheSound?3?5sound?5not?5sp@ ; `string'
PUBLIC	??_C@_08PLMKPHCL@sound?1?$CFs?$AA@		; `string'
PUBLIC	??_C@_03BICDMHKB@wav?$AA@			; `string'
PUBLIC	??_C@_03LHGNACFN@mp3?$AA@			; `string'
PUBLIC	??_C@_0BH@COBPOMJP@sound?5?$CC?$CFs?$CC?5not?5found?$CB?6?$AA@ ; `string'
PUBLIC	??_C@_0BE@IENMFMOB@invalid?5name?5?$CC?$CFs?$CC?$CB?6?$AA@ ; `string'
PUBLIC	??_C@_08BKEEFKLC@media?1?$CFs?$AA@		; `string'
PUBLIC	??_C@_0CA@CLMDLIAA@Warning?3?5video?5?$CI?$CFs?$CJ?5not?5found?$CB?6?$AA@ ; `string'
PUBLIC	??_C@_02DKCKIIND@?$CFs?$AA@			; `string'
PUBLIC	??_C@_0CD@PELPNBCA@UTIL_SetView?3?5pActivator?5?$DN?$DN?5NULL@ ; `string'
PUBLIC	??_C@_0CI@GPMHCHBN@UTIL_SetView?3?5pActivator?5not?5a?5p@ ; `string'
PUBLIC	??_C@_0CE@HLOCMEGG@UTIL_GetModelBounds?3?5NULL?5model?5@ ; `string'
PUBLIC	??_C@_0CG@IENKKELO@UTIL_SetSize?3?5?$CFs?5backwards?5mins?1@ ; `string'
PUBLIC	?__LINE__Var@?0??UTIL_DropToFloor@@YAHPAVCBaseEntity@@@Z@4JA ; `UTIL_DropToFloor'::`1'::__LINE__Var
PUBLIC	??_C@_0BA@LOGAJLJO@pEntity?5?$CB?$DN?5NULL?$AA@	; `string'
PUBLIC	??_C@_0DI@FMOBHFJP@Entity?5?$CFi?5SOLID_BSP?5with?5a?5non?5b@ ; `string'
PUBLIC	??_C@_0BE@FOEPOJBH@footsteps?1wade1?4wav?$AA@	; `string'
PUBLIC	??_C@_0BE@NINLJLLJ@footsteps?1wade2?4wav?$AA@	; `string'
PUBLIC	??_C@_0BE@BDIHEIBM@footsteps?1wade3?4wav?$AA@	; `string'
PUBLIC	??_C@_0BE@OICHIKE@footsteps?1wade4?4wav?$AA@	; `string'
PUBLIC	??_C@_09ILGMALND@?$CFs?1bin?1?$CFs?$AA@		; `string'
PUBLIC	??_C@_0BI@BOKDEL@?$CFs?5loaded?5succesfully?$CB?6?$AA@ ; `string'
PUBLIC	??_C@_1JE@CIIIAKCN@?$AAd?$AA?3?$AA?2?$AA?$CB?$AAd?$AAi?$AAf?$AAf?$AAu?$AAs?$AAi?$AAo?$AAn?$AA?5?$AA2?$AA0?$AA2?$AA0?$AA?2?$AAs?$AAo?$AAu?$AAr?$AAc?$AAe?$AA?5?$AAc?$AAo?$AAd?$AAe?$AA?5?$AA2@ ; `string'
PUBLIC	??_C@_1BO@FOOHAONO@?$AAn?$AAG?$AAr?$AAo?$AAw?$AAS?$AAi?$AAz?$AAe?$AA?5?$AA?$DO?$AA?$DN?$AA?5?$AA0?$AA?$AA@ ; `string'
PUBLIC	??_C@_1BM@PFNFCCHH@?$AA?$CB?$AAI?$AAs?$AAR?$AAe?$AAa?$AAd?$AAO?$AAn?$AAl?$AAy?$AA?$CI?$AA?$CJ?$AA?$AA@ ; `string'
PUBLIC	??_C@_1BM@CKILBAKK@?$AAI?$AAs?$AAI?$AAd?$AAx?$AAV?$AAa?$AAl?$AAi?$AAd?$AA?$CI?$AAi?$AA?$CJ?$AA?$AA@ ; `string'
PUBLIC	??_C@_1JE@LJJIJLOD@?$AAd?$AA?3?$AA?2?$AA?$CB?$AAd?$AAi?$AAf?$AAf?$AAu?$AAs?$AAi?$AAo?$AAn?$AA?5?$AA2?$AA0?$AA2?$AA0?$AA?2?$AAs?$AAo?$AAu?$AAr?$AAc?$AAe?$AA?5?$AAc?$AAo?$AAd?$AAe?$AA?5?$AA2@ ; `string'
PUBLIC	??_C@_13COJANIEC@?$AA0?$AA?$AA@			; `string'
PUBLIC	??_C@_1BI@EHKAMAJG@?$AA?$CG?$AAm?$AA_?$AAL?$AAe?$AAs?$AAs?$AAF?$AAu?$AAn?$AAc?$AA?$AA@ ; `string'
PUBLIC	??_C@_1CA@DONHBKAI@?$AAI?$AAs?$AAV?$AAa?$AAl?$AAi?$AAd?$AAI?$AAn?$AAd?$AAe?$AAx?$AA?$CI?$AAi?$AA?$CJ?$AA?$AA@ ; `string'
PUBLIC	??_C@_1BE@PGFEGIPI@?$AAI?$AAs?$AAV?$AAa?$AAl?$AAi?$AAd?$AA?$CI?$AA?$CJ?$AA?$AA@ ; `string'
PUBLIC	??_C@_1BA@PKCLMAEA@?$AAn?$AAu?$AAm?$AA?5?$AA?$DO?$AA?5?$AA0?$AA?$AA@ ; `string'
PUBLIC	??_C@_1BE@OPPFELHC@?$AAm?$AA_?$AAp?$AAM?$AAe?$AAm?$AAo?$AAr?$AAy?$AA?$AA@ ; `string'
PUBLIC	??_C@_1IA@FEFGPOEE@?$AAm?$AA_?$AAE?$AAl?$AAe?$AAm?$AAe?$AAn?$AAt?$AAs?$AA?4?$AAI?$AAs?$AAV?$AAa?$AAl?$AAi?$AAd?$AAI?$AAt?$AAe?$AAr?$AAa?$AAt?$AAo?$AAr?$AA?$CI?$AA?5?$AAm?$AA_?$AAL?$AAa@ ; `string'
PUBLIC	??_C@_1EC@LMJCOEPO@?$AAm?$AA_?$AAE?$AAl?$AAe?$AAm?$AAe?$AAn?$AAt?$AAs?$AA?4?$AAI?$AAs?$AAV?$AAa?$AAl?$AAi?$AAd?$AAI?$AAt?$AAe?$AAr?$AAa?$AAt?$AAo?$AAr?$AA?$CI?$AA?5?$AAi?$AAt?$AA?5?$AA?$CJ@ ; `string'
PUBLIC	??_C@_0BG@EMENODEA@CUtlRBTree?5overflow?$CB?6?$AA@ ; `string'
PUBLIC	??_C@_1FE@NEDOCPL@?$AAm?$AA_?$AAE?$AAl?$AAe?$AAm?$AAe?$AAn?$AAt?$AAs?$AA?4?$AAI?$AAs?$AAV?$AAa?$AAl?$AAi?$AAd?$AAI?$AAt?$AAe?$AAr?$AAa?$AAt?$AAo?$AAr?$AA?$CI?$AA?5?$AAm?$AA_?$AAL?$AAa@ ; `string'
PUBLIC	??_C@_1DC@KJHFBOJD@?$AAm?$AA_?$AAR?$AAo?$AAo?$AAt?$AA?5?$AA?$DN?$AA?$DN?$AA?5?$AAI?$AAn?$AAv?$AAa?$AAl?$AAi?$AAd?$AAI?$AAn?$AAd?$AAe?$AAx?$AA?$CI?$AA?$CJ?$AA?$AA@ ; `string'
PUBLIC	??_C@_1DM@ECFCBGBK@?$AAm?$AA_?$AAF?$AAi?$AAr?$AAs?$AAt?$AAF?$AAr?$AAe?$AAe?$AA?5?$AA?$DN?$AA?$DN?$AA?5?$AAI?$AAn?$AAv?$AAa?$AAl?$AAi?$AAd?$AAI?$AAn?$AAd?$AAe?$AAx?$AA?$CI?$AA?$CJ?$AA?$AA@ ; `string'
PUBLIC	??_C@_1CG@EKJOGMPO@?$AAm?$AA_?$AAN?$AAu?$AAm?$AAE?$AAl?$AAe?$AAm?$AAe?$AAn?$AAt?$AAs?$AA?5?$AA?$DN?$AA?$DN?$AA?5?$AA0?$AA?$AA@ ; `string'
PUBLIC	?s_Sentinel@?1??Links@?$CUtlRBTree@UNode_t@?$CUtlMap@PBDPAVIEntityFactory@@G@@GVCKeyLess@2@V?$CUtlMemory@U?$UtlRBTreeNode_t@UNode_t@?$CUtlMap@PBDPAVIEntityFactory@@G@@G@@G@@@@IBEABU?$UtlRBTreeLinks_t@G@@G@Z@4U3@A ; `CUtlRBTree<CUtlMap<char const *,IEntityFactory *,unsigned short>::Node_t,unsigned short,CUtlMap<char const *,IEntityFactory *,unsigned short>::CKeyLess,CUtlMemory<UtlRBTreeNode_t<CUtlMap<char const *,IEntityFactory *,unsigned short>::Node_t,unsigned short>,unsigned short> >::Links'::`2'::s_Sentinel
PUBLIC	?$TSS0@?1??Links@?$CUtlRBTree@UNode_t@?$CUtlMap@PBDPAVIEntityFactory@@G@@GVCKeyLess@2@V?$CUtlMemory@U?$UtlRBTreeNode_t@UNode_t@?$CUtlMap@PBDPAVIEntityFactory@@G@@G@@G@@@@IBEABU?$UtlRBTreeLinks_t@G@@G@Z@4HA ; `CUtlRBTree<CUtlMap<char const *,IEntityFactory *,unsigned short>::Node_t,unsigned short,CUtlMap<char const *,IEntityFactory *,unsigned short>::CKeyLess,CUtlMemory<UtlRBTreeNode_t<CUtlMap<char const *,IEntityFactory *,unsigned short>::Node_t,unsigned short>,unsigned short> >::Links'::`2'::$TSS0
PUBLIC	??_C@_1CI@BLCAOE@?$AAi?$AA?5?$AA?$CB?$AA?$DN?$AA?5?$AAI?$AAn?$AAv?$AAa?$AAl?$AAi?$AAd?$AAI?$AAn?$AAd?$AAe?$AAx?$AA?$CI?$AA?$CJ?$AA?$AA@ ; `string'
PUBLIC	??_R4IEntityFactoryDictionary@@6B@		; IEntityFactoryDictionary::`RTTI Complete Object Locator'
PUBLIC	??_R0?AVIEntityFactoryDictionary@@@8		; IEntityFactoryDictionary `RTTI Type Descriptor'
PUBLIC	??_R3IEntityFactoryDictionary@@8		; IEntityFactoryDictionary::`RTTI Class Hierarchy Descriptor'
PUBLIC	??_R2IEntityFactoryDictionary@@8		; IEntityFactoryDictionary::`RTTI Base Class Array'
PUBLIC	??_R1A@?0A@EA@IEntityFactoryDictionary@@8	; IEntityFactoryDictionary::`RTTI Base Class Descriptor at (0,-1,0,64)'
PUBLIC	??_R4CEntityFactoryDictionary@@6B@		; CEntityFactoryDictionary::`RTTI Complete Object Locator'
PUBLIC	??_R0?AVCEntityFactoryDictionary@@@8		; CEntityFactoryDictionary `RTTI Type Descriptor'
PUBLIC	??_R3CEntityFactoryDictionary@@8		; CEntityFactoryDictionary::`RTTI Class Hierarchy Descriptor'
PUBLIC	??_R2CEntityFactoryDictionary@@8		; CEntityFactoryDictionary::`RTTI Base Class Array'
PUBLIC	??_R1A@?0A@EA@CEntityFactoryDictionary@@8	; CEntityFactoryDictionary::`RTTI Base Class Descriptor at (0,-1,0,64)'
PUBLIC	__real@00000000
PUBLIC	__real@3a83126f
PUBLIC	__real@3bb40000
PUBLIC	__real@3e4ccccd
PUBLIC	__real@3e800000
PUBLIC	__real@3f000000
PUBLIC	__real@3f400000
PUBLIC	__real@3f4ccccd
PUBLIC	__real@3f800000
PUBLIC	__real@3f91df46a2529d39
PUBLIC	__real@3fa00000
PUBLIC	__real@3fe0000000000000
PUBLIC	__real@3feeb851eb851eb8
PUBLIC	__real@3ff0000000000000
PUBLIC	__real@40000000
PUBLIC	__real@4000000000000000
PUBLIC	__real@4008000000000000
PUBLIC	__real@40400000
PUBLIC	__real@41000000
PUBLIC	__real@41200000
PUBLIC	__real@41400000
PUBLIC	__real@41700000
PUBLIC	__real@42100000
PUBLIC	__real@42652ee1
PUBLIC	__real@42fe0000
PUBLIC	__real@43340000
PUBLIC	__real@43360b61
PUBLIC	__real@435c0000
PUBLIC	__real@43800000
PUBLIC	__real@43b40000
PUBLIC	__real@44800000
PUBLIC	__real@45800000
PUBLIC	__real@46000000
PUBLIC	__real@bf4ccccd
PUBLIC	__real@bf800000
PUBLIC	__real@c0000000
PUBLIC	__real@c3340000
PUBLIC	__xmm@41f00000000000000000000000000000
PUBLIC	__xmm@80000000800000008000000080000000
EXTRN	__purecall:PROC
EXTRN	_atexit:PROC
EXTRN	___report_rangecheckfailure:PROC
EXTRN	__Init_thread_header:PROC
EXTRN	__Init_thread_abort:PROC
EXTRN	__Init_thread_footer:PROC
EXTRN	_memset:PROC
EXTRN	_strcmp:PROC
EXTRN	_strcpy:PROC
EXTRN	_strlen:PROC
EXTRN	_strncpy:PROC
EXTRN	_strdup:PROC
EXTRN	_stricmp:PROC
EXTRN	__imp__FreeLibrary@4:PROC
EXTRN	__imp__GetProcAddress@8:PROC
EXTRN	__imp__LoadLibraryA@4:PROC
EXTRN	___stdio_common_vsprintf:PROC
EXTRN	_free:PROC
EXTRN	_malloc:PROC
EXTRN	_realloc:PROC
EXTRN	_atof:PROC
EXTRN	_atoi:PROC
EXTRN	_atan2:PROC
EXTRN	_cos:PROC
EXTRN	_sin:PROC
EXTRN	_sqrt:PROC
EXTRN	??0matrix4x4@@QAE@XZ:PROC			; matrix4x4::matrix4x4
EXTRN	??4matrix4x4@@QAEAAV0@ABV0@@Z:PROC		; matrix4x4::operator=
EXTRN	?ConcatTransforms@matrix4x4@@QAE?AV1@V1@@Z:PROC	; matrix4x4::ConcatTransforms
EXTRN	?VectorAngles@@YAXABVVector@@AAV1@@Z:PROC	; VectorAngles
EXTRN	?UTIL_FileExtension@@YAPBDPBD@Z:PROC		; UTIL_FileExtension
EXTRN	?Q_isdigit@@YA_NPBD@Z:PROC			; Q_isdigit
EXTRN	?Q_strncat@@YAIPADPBDI@Z:PROC			; Q_strncat
EXTRN	?Q_strncpy@@YAIPADPBDI@Z:PROC			; Q_strncpy
EXTRN	?Q_atoi@@YAHPBD@Z:PROC				; Q_atoi
EXTRN	?Q_atof@@YAMPBD@Z:PROC				; Q_atof
EXTRN	?Q_strnicmp@@YAHPBD0H@Z:PROC			; Q_strnicmp
EXTRN	?Q_strncmp@@YAHPBD0H@Z:PROC			; Q_strncmp
EXTRN	?Q_vsnprintf@@YAHPADIPBD0@Z:PROC		; Q_vsnprintf
EXTRN	?Q_snprintf@@YAHPADIPBDZZ:PROC			; Q_snprintf
EXTRN	__wassert:PROC
EXTRN	?Dump@CStringPool@@QAEXXZ:PROC			; CStringPool::Dump
EXTRN	?CreateEntityByName@@YAPAVCBaseEntity@@PBDPAUentvars_s@@@Z:PROC ; CreateEntityByName
EXTRN	?SENTENCEG_Lookup@@YAHPBDPAD@Z:PROC		; SENTENCEG_Lookup
EXTRN	?EMIT_SOUND_DYN@@YAXPAUedict_s@@HPBDMMHH@Z:PROC	; EMIT_SOUND_DYN
EXTRN	?SetAbsOrigin@CBaseEntity@@QAEXABVVector@@@Z:PROC ; CBaseEntity::SetAbsOrigin
EXTRN	?GetAbsOrigin@CBaseEntity@@QBEABVVector@@XZ:PROC ; CBaseEntity::GetAbsOrigin
EXTRN	?GetAbsAngles@CBaseEntity@@QBEABVVector@@XZ:PROC ; CBaseEntity::GetAbsAngles
EXTRN	?SetLocalOrigin@CBaseEntity@@QAEXABVVector@@@Z:PROC ; CBaseEntity::SetLocalOrigin
EXTRN	?SetLocalAngles@CBaseEntity@@QAEXABVVector@@@Z:PROC ; CBaseEntity::SetLocalAngles
EXTRN	?SetAbsVelocity@CBaseEntity@@QAEXABVVector@@@Z:PROC ; CBaseEntity::SetAbsVelocity
EXTRN	?CalcAbsolutePosition@CBaseEntity@@QAEXXZ:PROC	; CBaseEntity::CalcAbsolutePosition
EXTRN	?GetParentToWorldTransform@CBaseEntity@@QAE?AVmatrix4x4@@XZ:PROC ; CBaseEntity::GetParentToWorldTransform
EXTRN	?GetRootParent@CBaseEntity@@QAEPAV1@XZ:PROC	; CBaseEntity::GetRootParent
EXTRN	?UpdateOnRemove@CBaseEntity@@QAEXXZ:PROC	; CBaseEntity::UpdateOnRemove
EXTRN	?AreaIntersect@CBaseEntity@@QAEHVVector@@0@Z:PROC ; CBaseEntity::AreaIntersect
EXTRN	?RelinkEntity@CBaseEntity@@QAEXHPBVVector@@H@Z:PROC ; CBaseEntity::RelinkEntity
EXTRN	?SnapEyeAngles@CBasePlayer@@QAEXABVVector@@@Z:PROC ; CBasePlayer::SnapEyeAngles
EXTRN	@__security_check_cookie@4:PROC
EXTRN	___CxxFrameHandler3:PROC
EXTRN	__Init_thread_epoch:DWORD
EXTRN	?g_vecZero@@3VVector@@B:BYTE			; g_vecZero
EXTRN	?g_engfuncs@@3Uenginefuncs_s@@A:BYTE		; g_engfuncs
EXTRN	?g_physfuncs@@3Userver_physics_api_s@@A:BYTE	; g_physfuncs
EXTRN	??_7type_info@@6B@:QWORD			; type_info::`vftable'
EXTRN	?g_GameStringPool@@3VCStringPool@@A:BYTE	; g_GameStringPool
EXTRN	?gpGlobals@@3PAUglobalvars_t@@A:DWORD		; gpGlobals
EXTRN	?g_Language@@3HA:DWORD				; g_Language
EXTRN	?g_fPhysicInitialized@@3HA:DWORD		; g_fPhysicInitialized
EXTRN	?WorldPhysic@@3PAVIPhysicLayer@@A:DWORD		; WorldPhysic
EXTRN	?gmsgTempEnt@@3HA:DWORD				; gmsgTempEnt
EXTRN	?gmsgFade@@3HA:DWORD				; gmsgFade
EXTRN	?gDecals@@3PAUDLL_DECALLIST@@A:BYTE		; gDecals
EXTRN	?gmsgHudText@@3HA:DWORD				; gmsgHudText
EXTRN	?g_sModelIndexBubbles@@3FA:WORD			; g_sModelIndexBubbles
EXTRN	?g_pGameRules@@3PAVCGameRules@@A:DWORD		; g_pGameRules
EXTRN	?gmsgTextMsg@@3HA:DWORD				; gmsgTextMsg
EXTRN	?gmsgSayText@@3HA:DWORD				; gmsgSayText
EXTRN	___security_cookie:DWORD
EXTRN	__fltused:DWORD
EXTRN	__tls_array:DWORD
EXTRN	__tls_index:DWORD
;	COMDAT ?_OptionsStorage@?1??__local_stdio_printf_options@@9@4_KA
_BSS	SEGMENT
?_OptionsStorage@?1??__local_stdio_printf_options@@9@4_KA DQ 01H DUP (?) ; `__local_stdio_printf_options'::`2'::_OptionsStorage
_BSS	ENDS
_BSS	SEGMENT
?s_EntityFactory@?1??EntityFactoryDictionary@@YAPAVIEntityFactoryDictionary@@XZ@4VCEntityFactoryDictionary@@A DB 020H DUP (?) ; `EntityFactoryDictionary'::`2'::s_EntityFactory
?$TSS0@?1??EntityFactoryDictionary@@YAPAVIEntityFactoryDictionary@@XZ@4HA DD 01H DUP (?) ; `EntityFactoryDictionary'::`2'::$TSS0
?value@?1??Msg@@YAXPBDZZ@4PADA DB 0400H DUP (?)		; `Msg'::`2'::value
?buf@?1??UTIL_dtos1@@YAPADH@Z@4PADA DB 08H DUP (?)	; `UTIL_dtos1'::`2'::buf
?buf@?1??UTIL_dtos2@@YAPADH@Z@4PADA DB 08H DUP (?)	; `UTIL_dtos2'::`2'::buf
?buf@?1??UTIL_dtos3@@YAPADH@Z@4PADA DB 08H DUP (?)	; `UTIL_dtos3'::`2'::buf
?buf@?1??UTIL_dtos4@@YAPADH@Z@4PADA DB 08H DUP (?)	; `UTIL_dtos4'::`2'::buf
?string@?1??UTIL_VarArgs@@YAPADPADZZ@4PADA DB 0400H DUP (?) ; `UTIL_VarArgs'::`2'::string
?string@?1??UTIL_LogPrintf@@YAXPADZZ@4PADA DB 0400H DUP (?) ; `UTIL_LogPrintf'::`2'::string
_BSS	ENDS
;	COMDAT ?s_Sentinel@?1??Links@?$CUtlRBTree@UNode_t@?$CUtlMap@PBDPAVIEntityFactory@@G@@GVCKeyLess@2@V?$CUtlMemory@U?$UtlRBTreeNode_t@UNode_t@?$CUtlMap@PBDPAVIEntityFactory@@G@@G@@G@@@@IBEABU?$UtlRBTreeLinks_t@G@@G@Z@4U3@A
_BSS	SEGMENT
?s_Sentinel@?1??Links@?$CUtlRBTree@UNode_t@?$CUtlMap@PBDPAVIEntityFactory@@G@@GVCKeyLess@2@V?$CUtlMemory@U?$UtlRBTreeNode_t@UNode_t@?$CUtlMap@PBDPAVIEntityFactory@@G@@G@@G@@@@IBEABU?$UtlRBTreeLinks_t@G@@G@Z@4U3@A DQ 01H DUP (?) ; `CUtlRBTree<CUtlMap<char const *,IEntityFactory *,unsigned short>::Node_t,unsigned short,CUtlMap<char const *,IEntityFactory *,unsigned short>::CKeyLess,CUtlMemory<UtlRBTreeNode_t<CUtlMap<char const *,IEntityFactory *,unsigned short>::Node_t,unsigned short>,unsigned short> >::Links'::`2'::s_Sentinel
_BSS	ENDS
;	COMDAT ?$TSS0@?1??Links@?$CUtlRBTree@UNode_t@?$CUtlMap@PBDPAVIEntityFactory@@G@@GVCKeyLess@2@V?$CUtlMemory@U?$UtlRBTreeNode_t@UNode_t@?$CUtlMap@PBDPAVIEntityFactory@@G@@G@@G@@@@IBEABU?$UtlRBTreeLinks_t@G@@G@Z@4HA
_BSS	SEGMENT
?$TSS0@?1??Links@?$CUtlRBTree@UNode_t@?$CUtlMap@PBDPAVIEntityFactory@@G@@GVCKeyLess@2@V?$CUtlMemory@U?$UtlRBTreeNode_t@UNode_t@?$CUtlMap@PBDPAVIEntityFactory@@G@@G@@G@@@@IBEABU?$UtlRBTreeLinks_t@G@@G@Z@4HA DD 01H DUP (?) ; `CUtlRBTree<CUtlMap<char const *,IEntityFactory *,unsigned short>::Node_t,unsigned short,CUtlMap<char const *,IEntityFactory *,unsigned short>::CKeyLess,CUtlMemory<UtlRBTreeNode_t<CUtlMap<char const *,IEntityFactory *,unsigned short>::Node_t,unsigned short>,unsigned short> >::Links'::`2'::$TSS0
_BSS	ENDS
;	COMDAT __xmm@80000000800000008000000080000000
CONST	SEGMENT
__xmm@80000000800000008000000080000000 DB 00H, 00H, 00H, 080H, 00H, 00H, 00H
	DB	080H, 00H, 00H, 00H, 080H, 00H, 00H, 00H, 080H
CONST	ENDS
;	COMDAT __xmm@41f00000000000000000000000000000
CONST	SEGMENT
__xmm@41f00000000000000000000000000000 DB 00H, 00H, 00H, 00H, 00H, 00H, 00H
	DB	00H, 00H, 00H, 00H, 00H, 00H, 00H, 0f0H, 'A'
CONST	ENDS
;	COMDAT __real@c3340000
CONST	SEGMENT
__real@c3340000 DD 0c3340000r			; -180
CONST	ENDS
;	COMDAT __real@c0000000
CONST	SEGMENT
__real@c0000000 DD 0c0000000r			; -2
CONST	ENDS
;	COMDAT __real@bf800000
CONST	SEGMENT
__real@bf800000 DD 0bf800000r			; -1
CONST	ENDS
;	COMDAT __real@bf4ccccd
CONST	SEGMENT
__real@bf4ccccd DD 0bf4ccccdr			; -0.8
CONST	ENDS
;	COMDAT __real@46000000
CONST	SEGMENT
__real@46000000 DD 046000000r			; 8192
CONST	ENDS
;	COMDAT __real@45800000
CONST	SEGMENT
__real@45800000 DD 045800000r			; 4096
CONST	ENDS
;	COMDAT __real@44800000
CONST	SEGMENT
__real@44800000 DD 044800000r			; 1024
CONST	ENDS
;	COMDAT __real@43b40000
CONST	SEGMENT
__real@43b40000 DD 043b40000r			; 360
CONST	ENDS
;	COMDAT __real@43800000
CONST	SEGMENT
__real@43800000 DD 043800000r			; 256
CONST	ENDS
;	COMDAT __real@435c0000
CONST	SEGMENT
__real@435c0000 DD 0435c0000r			; 220
CONST	ENDS
;	COMDAT __real@43360b61
CONST	SEGMENT
__real@43360b61 DD 043360b61r			; 182.044
CONST	ENDS
;	COMDAT __real@43340000
CONST	SEGMENT
__real@43340000 DD 043340000r			; 180
CONST	ENDS
;	COMDAT __real@42fe0000
CONST	SEGMENT
__real@42fe0000 DD 042fe0000r			; 127
CONST	ENDS
;	COMDAT __real@42652ee1
CONST	SEGMENT
__real@42652ee1 DD 042652ee1r			; 57.2958
CONST	ENDS
;	COMDAT __real@42100000
CONST	SEGMENT
__real@42100000 DD 042100000r			; 36
CONST	ENDS
;	COMDAT __real@41700000
CONST	SEGMENT
__real@41700000 DD 041700000r			; 15
CONST	ENDS
;	COMDAT __real@41400000
CONST	SEGMENT
__real@41400000 DD 041400000r			; 12
CONST	ENDS
;	COMDAT __real@41200000
CONST	SEGMENT
__real@41200000 DD 041200000r			; 10
CONST	ENDS
;	COMDAT __real@41000000
CONST	SEGMENT
__real@41000000 DD 041000000r			; 8
CONST	ENDS
;	COMDAT __real@40400000
CONST	SEGMENT
__real@40400000 DD 040400000r			; 3
CONST	ENDS
;	COMDAT __real@4008000000000000
CONST	SEGMENT
__real@4008000000000000 DQ 04008000000000000r	; 3
CONST	ENDS
;	COMDAT __real@4000000000000000
CONST	SEGMENT
__real@4000000000000000 DQ 04000000000000000r	; 2
CONST	ENDS
;	COMDAT __real@40000000
CONST	SEGMENT
__real@40000000 DD 040000000r			; 2
CONST	ENDS
;	COMDAT __real@3ff0000000000000
CONST	SEGMENT
__real@3ff0000000000000 DQ 03ff0000000000000r	; 1
CONST	ENDS
;	COMDAT __real@3feeb851eb851eb8
CONST	SEGMENT
__real@3feeb851eb851eb8 DQ 03feeb851eb851eb8r	; 0.96
CONST	ENDS
;	COMDAT __real@3fe0000000000000
CONST	SEGMENT
__real@3fe0000000000000 DQ 03fe0000000000000r	; 0.5
CONST	ENDS
;	COMDAT __real@3fa00000
CONST	SEGMENT
__real@3fa00000 DD 03fa00000r			; 1.25
CONST	ENDS
;	COMDAT __real@3f91df46a2529d39
CONST	SEGMENT
__real@3f91df46a2529d39 DQ 03f91df46a2529d39r	; 0.0174533
CONST	ENDS
;	COMDAT __real@3f800000
CONST	SEGMENT
__real@3f800000 DD 03f800000r			; 1
CONST	ENDS
;	COMDAT __real@3f4ccccd
CONST	SEGMENT
__real@3f4ccccd DD 03f4ccccdr			; 0.8
CONST	ENDS
;	COMDAT __real@3f400000
CONST	SEGMENT
__real@3f400000 DD 03f400000r			; 0.75
CONST	ENDS
;	COMDAT __real@3f000000
CONST	SEGMENT
__real@3f000000 DD 03f000000r			; 0.5
CONST	ENDS
;	COMDAT __real@3e800000
CONST	SEGMENT
__real@3e800000 DD 03e800000r			; 0.25
CONST	ENDS
;	COMDAT __real@3e4ccccd
CONST	SEGMENT
__real@3e4ccccd DD 03e4ccccdr			; 0.2
CONST	ENDS
;	COMDAT __real@3bb40000
CONST	SEGMENT
__real@3bb40000 DD 03bb40000r			; 0.00549316
CONST	ENDS
;	COMDAT __real@3a83126f
CONST	SEGMENT
__real@3a83126f DD 03a83126fr			; 0.001
CONST	ENDS
;	COMDAT __real@00000000
CONST	SEGMENT
__real@00000000 DD 000000000r			; 0
CONST	ENDS
;	COMDAT ??_R1A@?0A@EA@CEntityFactoryDictionary@@8
rdata$r	SEGMENT
??_R1A@?0A@EA@CEntityFactoryDictionary@@8 DD FLAT:??_R0?AVCEntityFactoryDictionary@@@8 ; CEntityFactoryDictionary::`RTTI Base Class Descriptor at (0,-1,0,64)'
	DD	01H
	DD	00H
	DD	0ffffffffH
	DD	00H
	DD	040H
	DD	FLAT:??_R3CEntityFactoryDictionary@@8
rdata$r	ENDS
;	COMDAT ??_R2CEntityFactoryDictionary@@8
rdata$r	SEGMENT
??_R2CEntityFactoryDictionary@@8 DD FLAT:??_R1A@?0A@EA@CEntityFactoryDictionary@@8 ; CEntityFactoryDictionary::`RTTI Base Class Array'
	DD	FLAT:??_R1A@?0A@EA@IEntityFactoryDictionary@@8
rdata$r	ENDS
;	COMDAT ??_R3CEntityFactoryDictionary@@8
rdata$r	SEGMENT
??_R3CEntityFactoryDictionary@@8 DD 00H			; CEntityFactoryDictionary::`RTTI Class Hierarchy Descriptor'
	DD	00H
	DD	02H
	DD	FLAT:??_R2CEntityFactoryDictionary@@8
rdata$r	ENDS
;	COMDAT ??_R0?AVCEntityFactoryDictionary@@@8
data$r	SEGMENT
??_R0?AVCEntityFactoryDictionary@@@8 DD FLAT:??_7type_info@@6B@ ; CEntityFactoryDictionary `RTTI Type Descriptor'
	DD	00H
	DB	'.?AVCEntityFactoryDictionary@@', 00H
data$r	ENDS
;	COMDAT ??_R4CEntityFactoryDictionary@@6B@
rdata$r	SEGMENT
??_R4CEntityFactoryDictionary@@6B@ DD 00H		; CEntityFactoryDictionary::`RTTI Complete Object Locator'
	DD	00H
	DD	00H
	DD	FLAT:??_R0?AVCEntityFactoryDictionary@@@8
	DD	FLAT:??_R3CEntityFactoryDictionary@@8
rdata$r	ENDS
;	COMDAT ??_R1A@?0A@EA@IEntityFactoryDictionary@@8
rdata$r	SEGMENT
??_R1A@?0A@EA@IEntityFactoryDictionary@@8 DD FLAT:??_R0?AVIEntityFactoryDictionary@@@8 ; IEntityFactoryDictionary::`RTTI Base Class Descriptor at (0,-1,0,64)'
	DD	00H
	DD	00H
	DD	0ffffffffH
	DD	00H
	DD	040H
	DD	FLAT:??_R3IEntityFactoryDictionary@@8
rdata$r	ENDS
;	COMDAT ??_R2IEntityFactoryDictionary@@8
rdata$r	SEGMENT
??_R2IEntityFactoryDictionary@@8 DD FLAT:??_R1A@?0A@EA@IEntityFactoryDictionary@@8 ; IEntityFactoryDictionary::`RTTI Base Class Array'
rdata$r	ENDS
;	COMDAT ??_R3IEntityFactoryDictionary@@8
rdata$r	SEGMENT
??_R3IEntityFactoryDictionary@@8 DD 00H			; IEntityFactoryDictionary::`RTTI Class Hierarchy Descriptor'
	DD	00H
	DD	01H
	DD	FLAT:??_R2IEntityFactoryDictionary@@8
rdata$r	ENDS
;	COMDAT ??_R0?AVIEntityFactoryDictionary@@@8
data$r	SEGMENT
??_R0?AVIEntityFactoryDictionary@@@8 DD FLAT:??_7type_info@@6B@ ; IEntityFactoryDictionary `RTTI Type Descriptor'
	DD	00H
	DB	'.?AVIEntityFactoryDictionary@@', 00H
data$r	ENDS
;	COMDAT ??_R4IEntityFactoryDictionary@@6B@
rdata$r	SEGMENT
??_R4IEntityFactoryDictionary@@6B@ DD 00H		; IEntityFactoryDictionary::`RTTI Complete Object Locator'
	DD	00H
	DD	00H
	DD	FLAT:??_R0?AVIEntityFactoryDictionary@@@8
	DD	FLAT:??_R3IEntityFactoryDictionary@@8
rdata$r	ENDS
;	COMDAT ??_C@_1CI@BLCAOE@?$AAi?$AA?5?$AA?$CB?$AA?$DN?$AA?5?$AAI?$AAn?$AAv?$AAa?$AAl?$AAi?$AAd?$AAI?$AAn?$AAd?$AAe?$AAx?$AA?$CI?$AA?$CJ?$AA?$AA@
CONST	SEGMENT
??_C@_1CI@BLCAOE@?$AAi?$AA?5?$AA?$CB?$AA?$DN?$AA?5?$AAI?$AAn?$AAv?$AAa?$AAl?$AAi?$AAd?$AAI?$AAn?$AAd?$AAe?$AAx?$AA?$CI?$AA?$CJ?$AA?$AA@ DB 'i'
	DB	00H, ' ', 00H, '!', 00H, '=', 00H, ' ', 00H, 'I', 00H, 'n', 00H
	DB	'v', 00H, 'a', 00H, 'l', 00H, 'i', 00H, 'd', 00H, 'I', 00H, 'n'
	DB	00H, 'd', 00H, 'e', 00H, 'x', 00H, '(', 00H, ')', 00H, 00H, 00H ; `string'
CONST	ENDS
;	COMDAT ??_C@_1CG@EKJOGMPO@?$AAm?$AA_?$AAN?$AAu?$AAm?$AAE?$AAl?$AAe?$AAm?$AAe?$AAn?$AAt?$AAs?$AA?5?$AA?$DN?$AA?$DN?$AA?5?$AA0?$AA?$AA@
CONST	SEGMENT
??_C@_1CG@EKJOGMPO@?$AAm?$AA_?$AAN?$AAu?$AAm?$AAE?$AAl?$AAe?$AAm?$AAe?$AAn?$AAt?$AAs?$AA?5?$AA?$DN?$AA?$DN?$AA?5?$AA0?$AA?$AA@ DB 'm'
	DB	00H, '_', 00H, 'N', 00H, 'u', 00H, 'm', 00H, 'E', 00H, 'l', 00H
	DB	'e', 00H, 'm', 00H, 'e', 00H, 'n', 00H, 't', 00H, 's', 00H, ' '
	DB	00H, '=', 00H, '=', 00H, ' ', 00H, '0', 00H, 00H, 00H ; `string'
CONST	ENDS
;	COMDAT ??_C@_1DM@ECFCBGBK@?$AAm?$AA_?$AAF?$AAi?$AAr?$AAs?$AAt?$AAF?$AAr?$AAe?$AAe?$AA?5?$AA?$DN?$AA?$DN?$AA?5?$AAI?$AAn?$AAv?$AAa?$AAl?$AAi?$AAd?$AAI?$AAn?$AAd?$AAe?$AAx?$AA?$CI?$AA?$CJ?$AA?$AA@
CONST	SEGMENT
??_C@_1DM@ECFCBGBK@?$AAm?$AA_?$AAF?$AAi?$AAr?$AAs?$AAt?$AAF?$AAr?$AAe?$AAe?$AA?5?$AA?$DN?$AA?$DN?$AA?5?$AAI?$AAn?$AAv?$AAa?$AAl?$AAi?$AAd?$AAI?$AAn?$AAd?$AAe?$AAx?$AA?$CI?$AA?$CJ?$AA?$AA@ DB 'm'
	DB	00H, '_', 00H, 'F', 00H, 'i', 00H, 'r', 00H, 's', 00H, 't', 00H
	DB	'F', 00H, 'r', 00H, 'e', 00H, 'e', 00H, ' ', 00H, '=', 00H, '='
	DB	00H, ' ', 00H, 'I', 00H, 'n', 00H, 'v', 00H, 'a', 00H, 'l', 00H
	DB	'i', 00H, 'd', 00H, 'I', 00H, 'n', 00H, 'd', 00H, 'e', 00H, 'x'
	DB	00H, '(', 00H, ')', 00H, 00H, 00H		; `string'
CONST	ENDS
;	COMDAT ??_C@_1DC@KJHFBOJD@?$AAm?$AA_?$AAR?$AAo?$AAo?$AAt?$AA?5?$AA?$DN?$AA?$DN?$AA?5?$AAI?$AAn?$AAv?$AAa?$AAl?$AAi?$AAd?$AAI?$AAn?$AAd?$AAe?$AAx?$AA?$CI?$AA?$CJ?$AA?$AA@
CONST	SEGMENT
??_C@_1DC@KJHFBOJD@?$AAm?$AA_?$AAR?$AAo?$AAo?$AAt?$AA?5?$AA?$DN?$AA?$DN?$AA?5?$AAI?$AAn?$AAv?$AAa?$AAl?$AAi?$AAd?$AAI?$AAn?$AAd?$AAe?$AAx?$AA?$CI?$AA?$CJ?$AA?$AA@ DB 'm'
	DB	00H, '_', 00H, 'R', 00H, 'o', 00H, 'o', 00H, 't', 00H, ' ', 00H
	DB	'=', 00H, '=', 00H, ' ', 00H, 'I', 00H, 'n', 00H, 'v', 00H, 'a'
	DB	00H, 'l', 00H, 'i', 00H, 'd', 00H, 'I', 00H, 'n', 00H, 'd', 00H
	DB	'e', 00H, 'x', 00H, '(', 00H, ')', 00H, 00H, 00H ; `string'
CONST	ENDS
;	COMDAT ??_C@_1FE@NEDOCPL@?$AAm?$AA_?$AAE?$AAl?$AAe?$AAm?$AAe?$AAn?$AAt?$AAs?$AA?4?$AAI?$AAs?$AAV?$AAa?$AAl?$AAi?$AAd?$AAI?$AAt?$AAe?$AAr?$AAa?$AAt?$AAo?$AAr?$AA?$CI?$AA?5?$AAm?$AA_?$AAL?$AAa@
CONST	SEGMENT
??_C@_1FE@NEDOCPL@?$AAm?$AA_?$AAE?$AAl?$AAe?$AAm?$AAe?$AAn?$AAt?$AAs?$AA?4?$AAI?$AAs?$AAV?$AAa?$AAl?$AAi?$AAd?$AAI?$AAt?$AAe?$AAr?$AAa?$AAt?$AAo?$AAr?$AA?$CI?$AA?5?$AAm?$AA_?$AAL?$AAa@ DB 'm'
	DB	00H, '_', 00H, 'E', 00H, 'l', 00H, 'e', 00H, 'm', 00H, 'e', 00H
	DB	'n', 00H, 't', 00H, 's', 00H, '.', 00H, 'I', 00H, 's', 00H, 'V'
	DB	00H, 'a', 00H, 'l', 00H, 'i', 00H, 'd', 00H, 'I', 00H, 't', 00H
	DB	'e', 00H, 'r', 00H, 'a', 00H, 't', 00H, 'o', 00H, 'r', 00H, '('
	DB	00H, ' ', 00H, 'm', 00H, '_', 00H, 'L', 00H, 'a', 00H, 's', 00H
	DB	't', 00H, 'A', 00H, 'l', 00H, 'l', 00H, 'o', 00H, 'c', 00H, ' '
	DB	00H, ')', 00H, 00H, 00H			; `string'
CONST	ENDS
;	COMDAT ??_C@_0BG@EMENODEA@CUtlRBTree?5overflow?$CB?6?$AA@
CONST	SEGMENT
??_C@_0BG@EMENODEA@CUtlRBTree?5overflow?$CB?6?$AA@ DB 'CUtlRBTree overflo'
	DB	'w!', 0aH, 00H				; `string'
CONST	ENDS
;	COMDAT ??_C@_1EC@LMJCOEPO@?$AAm?$AA_?$AAE?$AAl?$AAe?$AAm?$AAe?$AAn?$AAt?$AAs?$AA?4?$AAI?$AAs?$AAV?$AAa?$AAl?$AAi?$AAd?$AAI?$AAt?$AAe?$AAr?$AAa?$AAt?$AAo?$AAr?$AA?$CI?$AA?5?$AAi?$AAt?$AA?5?$AA?$CJ@
CONST	SEGMENT
??_C@_1EC@LMJCOEPO@?$AAm?$AA_?$AAE?$AAl?$AAe?$AAm?$AAe?$AAn?$AAt?$AAs?$AA?4?$AAI?$AAs?$AAV?$AAa?$AAl?$AAi?$AAd?$AAI?$AAt?$AAe?$AAr?$AAa?$AAt?$AAo?$AAr?$AA?$CI?$AA?5?$AAi?$AAt?$AA?5?$AA?$CJ@ DB 'm'
	DB	00H, '_', 00H, 'E', 00H, 'l', 00H, 'e', 00H, 'm', 00H, 'e', 00H
	DB	'n', 00H, 't', 00H, 's', 00H, '.', 00H, 'I', 00H, 's', 00H, 'V'
	DB	00H, 'a', 00H, 'l', 00H, 'i', 00H, 'd', 00H, 'I', 00H, 't', 00H
	DB	'e', 00H, 'r', 00H, 'a', 00H, 't', 00H, 'o', 00H, 'r', 00H, '('
	DB	00H, ' ', 00H, 'i', 00H, 't', 00H, ' ', 00H, ')', 00H, 00H, 00H ; `string'
CONST	ENDS
;	COMDAT ??_C@_1IA@FEFGPOEE@?$AAm?$AA_?$AAE?$AAl?$AAe?$AAm?$AAe?$AAn?$AAt?$AAs?$AA?4?$AAI?$AAs?$AAV?$AAa?$AAl?$AAi?$AAd?$AAI?$AAt?$AAe?$AAr?$AAa?$AAt?$AAo?$AAr?$AA?$CI?$AA?5?$AAm?$AA_?$AAL?$AAa@
CONST	SEGMENT
??_C@_1IA@FEFGPOEE@?$AAm?$AA_?$AAE?$AAl?$AAe?$AAm?$AAe?$AAn?$AAt?$AAs?$AA?4?$AAI?$AAs?$AAV?$AAa?$AAl?$AAi?$AAd?$AAI?$AAt?$AAe?$AAr?$AAa?$AAt?$AAo?$AAr?$AA?$CI?$AA?5?$AAm?$AA_?$AAL?$AAa@ DB 'm'
	DB	00H, '_', 00H, 'E', 00H, 'l', 00H, 'e', 00H, 'm', 00H, 'e', 00H
	DB	'n', 00H, 't', 00H, 's', 00H, '.', 00H, 'I', 00H, 's', 00H, 'V'
	DB	00H, 'a', 00H, 'l', 00H, 'i', 00H, 'd', 00H, 'I', 00H, 't', 00H
	DB	'e', 00H, 'r', 00H, 'a', 00H, 't', 00H, 'o', 00H, 'r', 00H, '('
	DB	00H, ' ', 00H, 'm', 00H, '_', 00H, 'L', 00H, 'a', 00H, 's', 00H
	DB	't', 00H, 'A', 00H, 'l', 00H, 'l', 00H, 'o', 00H, 'c', 00H, ' '
	DB	00H, ')', 00H, ' ', 00H, '|', 00H, '|', 00H, ' ', 00H, 'm', 00H
	DB	'_', 00H, 'N', 00H, 'u', 00H, 'm', 00H, 'E', 00H, 'l', 00H, 'e'
	DB	00H, 'm', 00H, 'e', 00H, 'n', 00H, 't', 00H, 's', 00H, ' ', 00H
	DB	'=', 00H, '=', 00H, ' ', 00H, '0', 00H, 00H, 00H ; `string'
CONST	ENDS
;	COMDAT ??_C@_1BE@OPPFELHC@?$AAm?$AA_?$AAp?$AAM?$AAe?$AAm?$AAo?$AAr?$AAy?$AA?$AA@
CONST	SEGMENT
??_C@_1BE@OPPFELHC@?$AAm?$AA_?$AAp?$AAM?$AAe?$AAm?$AAo?$AAr?$AAy?$AA?$AA@ DB 'm'
	DB	00H, '_', 00H, 'p', 00H, 'M', 00H, 'e', 00H, 'm', 00H, 'o', 00H
	DB	'r', 00H, 'y', 00H, 00H, 00H			; `string'
CONST	ENDS
;	COMDAT ??_C@_1BA@PKCLMAEA@?$AAn?$AAu?$AAm?$AA?5?$AA?$DO?$AA?5?$AA0?$AA?$AA@
CONST	SEGMENT
??_C@_1BA@PKCLMAEA@?$AAn?$AAu?$AAm?$AA?5?$AA?$DO?$AA?5?$AA0?$AA?$AA@ DB 'n'
	DB	00H, 'u', 00H, 'm', 00H, ' ', 00H, '>', 00H, ' ', 00H, '0', 00H
	DB	00H, 00H					; `string'
CONST	ENDS
;	COMDAT ??_C@_1BE@PGFEGIPI@?$AAI?$AAs?$AAV?$AAa?$AAl?$AAi?$AAd?$AA?$CI?$AA?$CJ?$AA?$AA@
CONST	SEGMENT
??_C@_1BE@PGFEGIPI@?$AAI?$AAs?$AAV?$AAa?$AAl?$AAi?$AAd?$AA?$CI?$AA?$CJ?$AA?$AA@ DB 'I'
	DB	00H, 's', 00H, 'V', 00H, 'a', 00H, 'l', 00H, 'i', 00H, 'd', 00H
	DB	'(', 00H, ')', 00H, 00H, 00H			; `string'
CONST	ENDS
;	COMDAT ??_C@_1CA@DONHBKAI@?$AAI?$AAs?$AAV?$AAa?$AAl?$AAi?$AAd?$AAI?$AAn?$AAd?$AAe?$AAx?$AA?$CI?$AAi?$AA?$CJ?$AA?$AA@
CONST	SEGMENT
??_C@_1CA@DONHBKAI@?$AAI?$AAs?$AAV?$AAa?$AAl?$AAi?$AAd?$AAI?$AAn?$AAd?$AAe?$AAx?$AA?$CI?$AAi?$AA?$CJ?$AA?$AA@ DB 'I'
	DB	00H, 's', 00H, 'V', 00H, 'a', 00H, 'l', 00H, 'i', 00H, 'd', 00H
	DB	'I', 00H, 'n', 00H, 'd', 00H, 'e', 00H, 'x', 00H, '(', 00H, 'i'
	DB	00H, ')', 00H, 00H, 00H			; `string'
CONST	ENDS
;	COMDAT ??_C@_1BI@EHKAMAJG@?$AA?$CG?$AAm?$AA_?$AAL?$AAe?$AAs?$AAs?$AAF?$AAu?$AAn?$AAc?$AA?$AA@
CONST	SEGMENT
??_C@_1BI@EHKAMAJG@?$AA?$CG?$AAm?$AA_?$AAL?$AAe?$AAs?$AAs?$AAF?$AAu?$AAn?$AAc?$AA?$AA@ DB '&'
	DB	00H, 'm', 00H, '_', 00H, 'L', 00H, 'e', 00H, 's', 00H, 's', 00H
	DB	'F', 00H, 'u', 00H, 'n', 00H, 'c', 00H, 00H, 00H ; `string'
CONST	ENDS
;	COMDAT ??_C@_13COJANIEC@?$AA0?$AA?$AA@
CONST	SEGMENT
??_C@_13COJANIEC@?$AA0?$AA?$AA@ DB '0', 00H, 00H, 00H	; `string'
CONST	ENDS
;	COMDAT ??_C@_1JE@LJJIJLOD@?$AAd?$AA?3?$AA?2?$AA?$CB?$AAd?$AAi?$AAf?$AAf?$AAu?$AAs?$AAi?$AAo?$AAn?$AA?5?$AA2?$AA0?$AA2?$AA0?$AA?2?$AAs?$AAo?$AAu?$AAr?$AAc?$AAe?$AA?5?$AAc?$AAo?$AAd?$AAe?$AA?5?$AA2@
CONST	SEGMENT
??_C@_1JE@LJJIJLOD@?$AAd?$AA?3?$AA?2?$AA?$CB?$AAd?$AAi?$AAf?$AAf?$AAu?$AAs?$AAi?$AAo?$AAn?$AA?5?$AA2?$AA0?$AA2?$AA0?$AA?2?$AAs?$AAo?$AAu?$AAr?$AAc?$AAe?$AA?5?$AAc?$AAo?$AAd?$AAe?$AA?5?$AA2@ DB 'd'
	DB	00H, ':', 00H, '\', 00H, '!', 00H, 'd', 00H, 'i', 00H, 'f', 00H
	DB	'f', 00H, 'u', 00H, 's', 00H, 'i', 00H, 'o', 00H, 'n', 00H, ' '
	DB	00H, '2', 00H, '0', 00H, '2', 00H, '0', 00H, '\', 00H, 's', 00H
	DB	'o', 00H, 'u', 00H, 'r', 00H, 'c', 00H, 'e', 00H, ' ', 00H, 'c'
	DB	00H, 'o', 00H, 'd', 00H, 'e', 00H, ' ', 00H, '2', 00H, '0', 00H
	DB	'2', 00H, '2', 00H, '\', 00H, 'c', 00H, 'l', 00H, 'i', 00H, 'e'
	DB	00H, 'n', 00H, 't', 00H, '-', 00H, 's', 00H, 'e', 00H, 'r', 00H
	DB	'v', 00H, 'e', 00H, 'r', 00H, '\', 00H, 'g', 00H, 'a', 00H, 'm'
	DB	00H, 'e', 00H, '_', 00H, 's', 00H, 'h', 00H, 'a', 00H, 'r', 00H
	DB	'e', 00H, 'd', 00H, '\', 00H, 'u', 00H, 't', 00H, 'l', 00H, 'r'
	DB	00H, 'b', 00H, 't', 00H, 'r', 00H, 'e', 00H, 'e', 00H, '.', 00H
	DB	'h', 00H, 00H, 00H				; `string'
CONST	ENDS
;	COMDAT ??_C@_1BM@CKILBAKK@?$AAI?$AAs?$AAI?$AAd?$AAx?$AAV?$AAa?$AAl?$AAi?$AAd?$AA?$CI?$AAi?$AA?$CJ?$AA?$AA@
CONST	SEGMENT
??_C@_1BM@CKILBAKK@?$AAI?$AAs?$AAI?$AAd?$AAx?$AAV?$AAa?$AAl?$AAi?$AAd?$AA?$CI?$AAi?$AA?$CJ?$AA?$AA@ DB 'I'
	DB	00H, 's', 00H, 'I', 00H, 'd', 00H, 'x', 00H, 'V', 00H, 'a', 00H
	DB	'l', 00H, 'i', 00H, 'd', 00H, '(', 00H, 'i', 00H, ')', 00H, 00H
	DB	00H						; `string'
CONST	ENDS
;	COMDAT ??_C@_1BM@PFNFCCHH@?$AA?$CB?$AAI?$AAs?$AAR?$AAe?$AAa?$AAd?$AAO?$AAn?$AAl?$AAy?$AA?$CI?$AA?$CJ?$AA?$AA@
CONST	SEGMENT
??_C@_1BM@PFNFCCHH@?$AA?$CB?$AAI?$AAs?$AAR?$AAe?$AAa?$AAd?$AAO?$AAn?$AAl?$AAy?$AA?$CI?$AA?$CJ?$AA?$AA@ DB '!'
	DB	00H, 'I', 00H, 's', 00H, 'R', 00H, 'e', 00H, 'a', 00H, 'd', 00H
	DB	'O', 00H, 'n', 00H, 'l', 00H, 'y', 00H, '(', 00H, ')', 00H, 00H
	DB	00H						; `string'
CONST	ENDS
;	COMDAT ??_C@_1BO@FOOHAONO@?$AAn?$AAG?$AAr?$AAo?$AAw?$AAS?$AAi?$AAz?$AAe?$AA?5?$AA?$DO?$AA?$DN?$AA?5?$AA0?$AA?$AA@
CONST	SEGMENT
??_C@_1BO@FOOHAONO@?$AAn?$AAG?$AAr?$AAo?$AAw?$AAS?$AAi?$AAz?$AAe?$AA?5?$AA?$DO?$AA?$DN?$AA?5?$AA0?$AA?$AA@ DB 'n'
	DB	00H, 'G', 00H, 'r', 00H, 'o', 00H, 'w', 00H, 'S', 00H, 'i', 00H
	DB	'z', 00H, 'e', 00H, ' ', 00H, '>', 00H, '=', 00H, ' ', 00H, '0'
	DB	00H, 00H, 00H				; `string'
CONST	ENDS
;	COMDAT ??_C@_1JE@CIIIAKCN@?$AAd?$AA?3?$AA?2?$AA?$CB?$AAd?$AAi?$AAf?$AAf?$AAu?$AAs?$AAi?$AAo?$AAn?$AA?5?$AA2?$AA0?$AA2?$AA0?$AA?2?$AAs?$AAo?$AAu?$AAr?$AAc?$AAe?$AA?5?$AAc?$AAo?$AAd?$AAe?$AA?5?$AA2@
CONST	SEGMENT
??_C@_1JE@CIIIAKCN@?$AAd?$AA?3?$AA?2?$AA?$CB?$AAd?$AAi?$AAf?$AAf?$AAu?$AAs?$AAi?$AAo?$AAn?$AA?5?$AA2?$AA0?$AA2?$AA0?$AA?2?$AAs?$AAo?$AAu?$AAr?$AAc?$AAe?$AA?5?$AAc?$AAo?$AAd?$AAe?$AA?5?$AA2@ DB 'd'
	DB	00H, ':', 00H, '\', 00H, '!', 00H, 'd', 00H, 'i', 00H, 'f', 00H
	DB	'f', 00H, 'u', 00H, 's', 00H, 'i', 00H, 'o', 00H, 'n', 00H, ' '
	DB	00H, '2', 00H, '0', 00H, '2', 00H, '0', 00H, '\', 00H, 's', 00H
	DB	'o', 00H, 'u', 00H, 'r', 00H, 'c', 00H, 'e', 00H, ' ', 00H, 'c'
	DB	00H, 'o', 00H, 'd', 00H, 'e', 00H, ' ', 00H, '2', 00H, '0', 00H
	DB	'2', 00H, '2', 00H, '\', 00H, 'c', 00H, 'l', 00H, 'i', 00H, 'e'
	DB	00H, 'n', 00H, 't', 00H, '-', 00H, 's', 00H, 'e', 00H, 'r', 00H
	DB	'v', 00H, 'e', 00H, 'r', 00H, '\', 00H, 'g', 00H, 'a', 00H, 'm'
	DB	00H, 'e', 00H, '_', 00H, 's', 00H, 'h', 00H, 'a', 00H, 'r', 00H
	DB	'e', 00H, 'd', 00H, '\', 00H, 'u', 00H, 't', 00H, 'l', 00H, 'm'
	DB	00H, 'e', 00H, 'm', 00H, 'o', 00H, 'r', 00H, 'y', 00H, '.', 00H
	DB	'h', 00H, 00H, 00H				; `string'
CONST	ENDS
;	COMDAT ??_C@_0BI@BOKDEL@?$CFs?5loaded?5succesfully?$CB?6?$AA@
CONST	SEGMENT
??_C@_0BI@BOKDEL@?$CFs?5loaded?5succesfully?$CB?6?$AA@ DB '%s loaded succ'
	DB	'esfully!', 0aH, 00H				; `string'
CONST	ENDS
;	COMDAT ??_C@_09ILGMALND@?$CFs?1bin?1?$CFs?$AA@
CONST	SEGMENT
??_C@_09ILGMALND@?$CFs?1bin?1?$CFs?$AA@ DB '%s/bin/%s', 00H ; `string'
CONST	ENDS
;	COMDAT ??_C@_0BE@OICHIKE@footsteps?1wade4?4wav?$AA@
CONST	SEGMENT
??_C@_0BE@OICHIKE@footsteps?1wade4?4wav?$AA@ DB 'footsteps/wade4.wav', 00H ; `string'
CONST	ENDS
;	COMDAT ??_C@_0BE@BDIHEIBM@footsteps?1wade3?4wav?$AA@
CONST	SEGMENT
??_C@_0BE@BDIHEIBM@footsteps?1wade3?4wav?$AA@ DB 'footsteps/wade3.wav', 00H ; `string'
CONST	ENDS
;	COMDAT ??_C@_0BE@NINLJLLJ@footsteps?1wade2?4wav?$AA@
CONST	SEGMENT
??_C@_0BE@NINLJLLJ@footsteps?1wade2?4wav?$AA@ DB 'footsteps/wade2.wav', 00H ; `string'
CONST	ENDS
;	COMDAT ??_C@_0BE@FOEPOJBH@footsteps?1wade1?4wav?$AA@
CONST	SEGMENT
??_C@_0BE@FOEPOJBH@footsteps?1wade1?4wav?$AA@ DB 'footsteps/wade1.wav', 00H ; `string'
CONST	ENDS
;	COMDAT ??_C@_0DI@FMOBHFJP@Entity?5?$CFi?5SOLID_BSP?5with?5a?5non?5b@
CONST	SEGMENT
??_C@_0DI@FMOBHFJP@Entity?5?$CFi?5SOLID_BSP?5with?5a?5non?5b@ DB 'Entity '
	DB	'%i SOLID_BSP with a non bsp model %i (name: %s)', 0aH, 00H ; `string'
CONST	ENDS
;	COMDAT ??_C@_0BA@LOGAJLJO@pEntity?5?$CB?$DN?5NULL?$AA@
CONST	SEGMENT
??_C@_0BA@LOGAJLJO@pEntity?5?$CB?$DN?5NULL?$AA@ DB 'pEntity != NULL', 00H ; `string'
CONST	ENDS
;	COMDAT ?__LINE__Var@?0??UTIL_DropToFloor@@YAHPAVCBaseEntity@@@Z@4JA
_DATA	SEGMENT
?__LINE__Var@?0??UTIL_DropToFloor@@YAHPAVCBaseEntity@@@Z@4JA DD 0b43H ; `UTIL_DropToFloor'::`1'::__LINE__Var
_DATA	ENDS
;	COMDAT ??_C@_0CG@IENKKELO@UTIL_SetSize?3?5?$CFs?5backwards?5mins?1@
CONST	SEGMENT
??_C@_0CG@IENKKELO@UTIL_SetSize?3?5?$CFs?5backwards?5mins?1@ DB 'UTIL_Set'
	DB	'Size: %s backwards mins/maxs', 0aH, 00H	; `string'
CONST	ENDS
;	COMDAT ??_C@_0CE@HLOCMEGG@UTIL_GetModelBounds?3?5NULL?5model?5@
CONST	SEGMENT
??_C@_0CE@HLOCMEGG@UTIL_GetModelBounds?3?5NULL?5model?5@ DB 'UTIL_GetMode'
	DB	'lBounds: NULL model %i', 0aH, 00H		; `string'
CONST	ENDS
;	COMDAT ??_C@_0CI@GPMHCHBN@UTIL_SetView?3?5pActivator?5not?5a?5p@
CONST	SEGMENT
??_C@_0CI@GPMHCHBN@UTIL_SetView?3?5pActivator?5not?5a?5p@ DB 'UTIL_SetVie'
	DB	'w: pActivator not a player!', 0aH, 00H	; `string'
CONST	ENDS
;	COMDAT ??_C@_0CD@PELPNBCA@UTIL_SetView?3?5pActivator?5?$DN?$DN?5NULL@
CONST	SEGMENT
??_C@_0CD@PELPNBCA@UTIL_SetView?3?5pActivator?5?$DN?$DN?5NULL@ DB 'UTIL_S'
	DB	'etView: pActivator == NULL!', 0aH, 00H	; `string'
CONST	ENDS
;	COMDAT ??_C@_02DKCKIIND@?$CFs?$AA@
CONST	SEGMENT
??_C@_02DKCKIIND@?$CFs?$AA@ DB '%s', 00H		; `string'
CONST	ENDS
;	COMDAT ??_C@_0CA@CLMDLIAA@Warning?3?5video?5?$CI?$CFs?$CJ?5not?5found?$CB?6?$AA@
CONST	SEGMENT
??_C@_0CA@CLMDLIAA@Warning?3?5video?5?$CI?$CFs?$CJ?5not?5found?$CB?6?$AA@ DB 'W'
	DB	'arning: video (%s) not found!', 0aH, 00H	; `string'
CONST	ENDS
;	COMDAT ??_C@_08BKEEFKLC@media?1?$CFs?$AA@
CONST	SEGMENT
??_C@_08BKEEFKLC@media?1?$CFs?$AA@ DB 'media/%s', 00H	; `string'
CONST	ENDS
;	COMDAT ??_C@_0BE@IENMFMOB@invalid?5name?5?$CC?$CFs?$CC?$CB?6?$AA@
CONST	SEGMENT
??_C@_0BE@IENMFMOB@invalid?5name?5?$CC?$CFs?$CC?$CB?6?$AA@ DB 'invalid na'
	DB	'me "%s"!', 0aH, 00H				; `string'
CONST	ENDS
;	COMDAT ??_C@_0BH@COBPOMJP@sound?5?$CC?$CFs?$CC?5not?5found?$CB?6?$AA@
CONST	SEGMENT
??_C@_0BH@COBPOMJP@sound?5?$CC?$CFs?$CC?5not?5found?$CB?6?$AA@ DB 'sound '
	DB	'"%s" not found!', 0aH, 00H			; `string'
CONST	ENDS
;	COMDAT ??_C@_03LHGNACFN@mp3?$AA@
CONST	SEGMENT
??_C@_03LHGNACFN@mp3?$AA@ DB 'mp3', 00H			; `string'
CONST	ENDS
;	COMDAT ??_C@_03BICDMHKB@wav?$AA@
CONST	SEGMENT
??_C@_03BICDMHKB@wav?$AA@ DB 'wav', 00H			; `string'
CONST	ENDS
;	COMDAT ??_C@_08PLMKPHCL@sound?1?$CFs?$AA@
CONST	SEGMENT
??_C@_08PLMKPHCL@sound?1?$CFs?$AA@ DB 'sound/%s', 00H	; `string'
CONST	ENDS
;	COMDAT ??_C@_0CK@LHGCDBLH@UTIL_PrecacheSound?3?5sound?5not?5sp@
CONST	SEGMENT
??_C@_0CK@LHGCDBLH@UTIL_PrecacheSound?3?5sound?5not?5sp@ DB 'UTIL_Precach'
	DB	'eSound: sound not specified!', 0aH, 00H	; `string'
CONST	ENDS
;	COMDAT ??_C@_0CA@GPGNKNKH@NULL?5Ent?5in?5UTIL_PrecacheOther?6?$AA@
CONST	SEGMENT
??_C@_0CA@GPGNKNKH@NULL?5Ent?5in?5UTIL_PrecacheOther?6?$AA@ DB 'NULL Ent '
	DB	'in UTIL_PrecacheOther', 0aH, 00H		; `string'
CONST	ENDS
;	COMDAT ??_C@_0BD@LAAPOIJP@buttons?1spark3?4wav?$AA@
CONST	SEGMENT
??_C@_0BD@LAAPOIJP@buttons?1spark3?4wav?$AA@ DB 'buttons/spark3.wav', 00H ; `string'
CONST	ENDS
;	COMDAT ??_C@_0BD@HLFDDLDK@buttons?1spark2?4wav?$AA@
CONST	SEGMENT
??_C@_0BD@HLFDDLDK@buttons?1spark2?4wav?$AA@ DB 'buttons/spark2.wav', 00H ; `string'
CONST	ENDS
;	COMDAT ??_C@_0BD@PNMHEJJE@buttons?1spark1?4wav?$AA@
CONST	SEGMENT
??_C@_0BD@PNMHEJJE@buttons?1spark1?4wav?$AA@ DB 'buttons/spark1.wav', 00H ; `string'
CONST	ENDS
;	COMDAT ??_C@_0CG@KKOBGNAB@Firing?3?5?$CFs?5?$CI?$CFs?$CJ?5with?5?$CFs?5and?5valu@
CONST	SEGMENT
??_C@_0CG@KKOBGNAB@Firing?3?5?$CFs?5?$CI?$CFs?$CJ?5with?5?$CFs?5and?5valu@ DB 'F'
	DB	'iring: %s (%s) with %s and value %g', 0aH, 00H ; `string'
CONST	ENDS
;	COMDAT ??_C@_0BO@DJEDJFHM@Missing?5?8?$CJ?8?5in?5targetname?3?5?$CFs?$AA@
CONST	SEGMENT
??_C@_0BO@DJEDJFHM@Missing?5?8?$CJ?8?5in?5targetname?3?5?$CFs?$AA@ DB 'Mi'
	DB	'ssing '')'' in targetname: %s', 00H		; `string'
CONST	ENDS
;	COMDAT ??_C@_0BM@LHAMECIN@Missing?5?8?$CJ?8?5in?5master?5?$CC?$CFs?$CC?6?$AA@
CONST	SEGMENT
??_C@_0BM@LHAMECIN@Missing?5?8?$CJ?8?5in?5master?5?$CC?$CFs?$CC?6?$AA@ DB 'M'
	DB	'issing '')'' in master "%s"', 0aH, 00H	; `string'
CONST	ENDS
;	COMDAT ??_C@_02DPKJAMEF@?$CFd?$AA@
CONST	SEGMENT
??_C@_02DPKJAMEF@?$CFd?$AA@ DB '%d', 00H		; `string'
CONST	ENDS
;	COMDAT ??_C@_0CH@BAAGDENI@UTIL_HudMessage?3?5Message?5is?5too?5@
CONST	SEGMENT
??_C@_0CH@BAAGDENI@UTIL_HudMessage?3?5Message?5is?5too?5@ DB 'UTIL_HudMes'
	DB	'sage: Message is too long!', 0aH, 00H	; `string'
CONST	ENDS
;	COMDAT ??_C@_06BCLBLBIN@?$CKlocus?$AA@
CONST	SEGMENT
??_C@_06BCLBLBIN@?$CKlocus?$AA@ DB '*locus', 00H	; `string'
CONST	ENDS
;	COMDAT ??_C@_0M@GJCHIFD@GLOBAL?5DEAD?$AA@
CONST	SEGMENT
??_C@_0M@GJCHIFD@GLOBAL?5DEAD?$AA@ DB 'GLOBAL DEAD', 00H ; `string'
CONST	ENDS
;	COMDAT ??_C@_0L@MPHKGGFD@GLOBAL?5OFF?$AA@
CONST	SEGMENT
??_C@_0L@MPHKGGFD@GLOBAL?5OFF?$AA@ DB 'GLOBAL OFF', 00H	; `string'
CONST	ENDS
;	COMDAT ??_C@_09JHJFKEJL@GLOBAL?5ON?$AA@
CONST	SEGMENT
??_C@_09JHJFKEJL@GLOBAL?5ON?$AA@ DB 'GLOBAL ON', 00H	; `string'
CONST	ENDS
;	COMDAT ??_C@_0N@PCPMIODG@NO?5CONTENTS?$CB?$AA@
CONST	SEGMENT
??_C@_0N@PCPMIODG@NO?5CONTENTS?$CB?$AA@ DB 'NO CONTENTS!', 00H ; `string'
CONST	ENDS
;	COMDAT ??_C@_09HILKKGNB@SPECIAL?53?$AA@
CONST	SEGMENT
??_C@_09HILKKGNB@SPECIAL?53?$AA@ DB 'SPECIAL 3', 00H	; `string'
CONST	ENDS
;	COMDAT ??_C@_09GBKBJHJA@SPECIAL?52?$AA@
CONST	SEGMENT
??_C@_09GBKBJHJA@SPECIAL?52?$AA@ DB 'SPECIAL 2', 00H	; `string'
CONST	ENDS
;	COMDAT ??_C@_09EKIMMEFD@SPECIAL?51?$AA@
CONST	SEGMENT
??_C@_09EKIMMEFD@SPECIAL?51?$AA@ DB 'SPECIAL 1', 00H	; `string'
CONST	ENDS
;	COMDAT ??_C@_03KEDKDEDN@FOG?$AA@
CONST	SEGMENT
??_C@_03KEDKDEDN@FOG?$AA@ DB 'FOG', 00H			; `string'
CONST	ENDS
;	COMDAT ??_C@_0BB@EODHJKLI@GRAVITY_FLYFIELD?$AA@
CONST	SEGMENT
??_C@_0BB@EODHJKLI@GRAVITY_FLYFIELD?$AA@ DB 'GRAVITY_FLYFIELD', 00H ; `string'
CONST	ENDS
;	COMDAT ??_C@_08LBLMGPPJ@FLYFIELD?$AA@
CONST	SEGMENT
??_C@_08LBLMGPPJ@FLYFIELD?$AA@ DB 'FLYFIELD', 00H	; `string'
CONST	ENDS
;	COMDAT ??_C@_06GCOFKHFL@LADDER?$AA@
CONST	SEGMENT
??_C@_06GCOFKHFL@LADDER?$AA@ DB 'LADDER', 00H		; `string'
CONST	ENDS
;	COMDAT ??_C@_03BALFAEJD@SKY?$AA@
CONST	SEGMENT
??_C@_03BALFAEJD@SKY?$AA@ DB 'SKY', 00H			; `string'
CONST	ENDS
;	COMDAT ??_C@_04GCFKOLE@LAVA?$AA@
CONST	SEGMENT
??_C@_04GCFKOLE@LAVA?$AA@ DB 'LAVA', 00H		; `string'
CONST	ENDS
;	COMDAT ??_C@_05EKHECDCJ@SLIME?$AA@
CONST	SEGMENT
??_C@_05EKHECDCJ@SLIME?$AA@ DB 'SLIME', 00H		; `string'
CONST	ENDS
;	COMDAT ??_C@_05IAJGPPOC@WATER?$AA@
CONST	SEGMENT
??_C@_05IAJGPPOC@WATER?$AA@ DB 'WATER', 00H		; `string'
CONST	ENDS
;	COMDAT ??_C@_05CEBIDAFG@SOLID?$AA@
CONST	SEGMENT
??_C@_05CEBIDAFG@SOLID?$AA@ DB 'SOLID', 00H		; `string'
CONST	ENDS
;	COMDAT ??_C@_05HKAKDGKI@EMPTY?$AA@
CONST	SEGMENT
??_C@_05HKAKDGKI@EMPTY?$AA@ DB 'EMPTY', 00H		; `string'
CONST	ENDS
;	COMDAT ??_C@_0BB@DPEOBDLP@Nuclear?5Explode?5?$AA@
CONST	SEGMENT
??_C@_0BB@DPEOBDLP@Nuclear?5Explode?5?$AA@ DB 'Nuclear Explode ', 00H ; `string'
CONST	ENDS
;	COMDAT ??_C@_07FOGICJJJ@Mortar?5?$AA@
CONST	SEGMENT
??_C@_07FOGICJJJ@Mortar?5?$AA@ DB 'Mortar ', 00H	; `string'
CONST	ENDS
;	COMDAT ??_C@_0N@HOCPLMNK@Slow?5Freeze?5?$AA@
CONST	SEGMENT
??_C@_0N@HOCPLMNK@Slow?5Freeze?5?$AA@ DB 'Slow Freeze ', 00H ; `string'
CONST	ENDS
;	COMDAT ??_C@_0L@DBFEJAOP@Slow?5Burn?5?$AA@
CONST	SEGMENT
??_C@_0L@DBFEJAOP@Slow?5Burn?5?$AA@ DB 'Slow Burn ', 00H ; `string'
CONST	ENDS
;	COMDAT ??_C@_05MINPHFNP@Acid?5?$AA@
CONST	SEGMENT
??_C@_05MINPHFNP@Acid?5?$AA@ DB 'Acid ', 00H		; `string'
CONST	ENDS
;	COMDAT ??_C@_0P@GIMMOKAK@Drown?5Recover?5?$AA@
CONST	SEGMENT
??_C@_0P@GIMMOKAK@Drown?5Recover?5?$AA@ DB 'Drown Recover ', 00H ; `string'
CONST	ENDS
;	COMDAT ??_C@_0L@NJHMBGOH@Radiation?5?$AA@
CONST	SEGMENT
??_C@_0L@NJHMBGOH@Radiation?5?$AA@ DB 'Radiation ', 00H	; `string'
CONST	ENDS
;	COMDAT ??_C@_07JHAEAOAM@Poison?5?$AA@
CONST	SEGMENT
??_C@_07JHAEAOAM@Poison?5?$AA@ DB 'Poison ', 00H	; `string'
CONST	ENDS
;	COMDAT ??_C@_0L@OHLKEAGK@Nerve?5Gas?5?$AA@
CONST	SEGMENT
??_C@_0L@OHLKEAGK@Nerve?5Gas?5?$AA@ DB 'Nerve Gas ', 00H ; `string'
CONST	ENDS
;	COMDAT ??_C@_0O@FNBCIECF@Paralyze?5Gas?5?$AA@
CONST	SEGMENT
??_C@_0O@FNBCIECF@Paralyze?5Gas?5?$AA@ DB 'Paralyze Gas ', 00H ; `string'
CONST	ENDS
;	COMDAT ??_C@_06KOHKGHBA@Drown?5?$AA@
CONST	SEGMENT
??_C@_06KOHKGHBA@Drown?5?$AA@ DB 'Drown ', 00H		; `string'
CONST	ENDS
;	COMDAT ??_C@_0M@DBLGIPPB@Always?5Gib?5?$AA@
CONST	SEGMENT
??_C@_0M@DBLGIPPB@Always?5Gib?5?$AA@ DB 'Always Gib ', 00H ; `string'
CONST	ENDS
;	COMDAT ??_C@_0L@DCELGEEG@Never?5Gib?5?$AA@
CONST	SEGMENT
??_C@_0L@DCELGEEG@Never?5Gib?5?$AA@ DB 'Never Gib ', 00H ; `string'
CONST	ENDS
;	COMDAT ??_C@_0N@EDIGKLKL@Energy?5Beam?5?$AA@
CONST	SEGMENT
??_C@_0N@EDIGKLKL@Energy?5Beam?5?$AA@ DB 'Energy Beam ', 00H ; `string'
CONST	ENDS
;	COMDAT ??_C@_06DGDFEOFK@Sonic?5?$AA@
CONST	SEGMENT
??_C@_06DGDFEOFK@Sonic?5?$AA@ DB 'Sonic ', 00H		; `string'
CONST	ENDS
;	COMDAT ??_C@_06HHPOOGIO@Shock?5?$AA@
CONST	SEGMENT
??_C@_06HHPOOGIO@Shock?5?$AA@ DB 'Shock ', 00H		; `string'
CONST	ENDS
;	COMDAT ??_C@_05BJAFNHJA@Club?5?$AA@
CONST	SEGMENT
??_C@_05BJAFNHJA@Club?5?$AA@ DB 'Club ', 00H		; `string'
CONST	ENDS
;	COMDAT ??_C@_06NFJFDOFB@Blast?5?$AA@
CONST	SEGMENT
??_C@_06NFJFDOFB@Blast?5?$AA@ DB 'Blast ', 00H		; `string'
CONST	ENDS
;	COMDAT ??_C@_05JGNHLHIN@Fall?5?$AA@
CONST	SEGMENT
??_C@_05JGNHLHIN@Fall?5?$AA@ DB 'Fall ', 00H		; `string'
CONST	ENDS
;	COMDAT ??_C@_07NICJCBLL@Freeze?5?$AA@
CONST	SEGMENT
??_C@_07NICJCBLL@Freeze?5?$AA@ DB 'Freeze ', 00H	; `string'
CONST	ENDS
;	COMDAT ??_C@_05CLGEDABL@Burn?5?$AA@
CONST	SEGMENT
??_C@_05CLGEDABL@Burn?5?$AA@ DB 'Burn ', 00H		; `string'
CONST	ENDS
;	COMDAT ??_C@_06BAAPDDP@Slash?5?$AA@
CONST	SEGMENT
??_C@_06BAAPDDP@Slash?5?$AA@ DB 'Slash ', 00H		; `string'
CONST	ENDS
;	COMDAT ??_C@_07KGEFKMPI@Bullet?5?$AA@
CONST	SEGMENT
??_C@_07KGEFKMPI@Bullet?5?$AA@ DB 'Bullet ', 00H	; `string'
CONST	ENDS
;	COMDAT ??_C@_06MKGCDNFI@Crush?5?$AA@
CONST	SEGMENT
??_C@_06MKGCDNFI@Crush?5?$AA@ DB 'Crush ', 00H		; `string'
CONST	ENDS
;	COMDAT ??_C@_08KCJHNIOM@Generic?5?$AA@
CONST	SEGMENT
??_C@_08KCJHNIOM@Generic?5?$AA@ DB 'Generic ', 00H	; `string'
CONST	ENDS
;	COMDAT ??_C@_08GEAGNOOL@DAMAGE?3?5?$AA@
CONST	SEGMENT
??_C@_08GEAGNOOL@DAMAGE?3?5?$AA@ DB 'DAMAGE: ', 00H	; `string'
CONST	ENDS
;	COMDAT ??_C@_0BO@CJHNLOLN@Unknown?5state?5?8?$CFs?8?5specified?6?$AA@
CONST	SEGMENT
??_C@_0BO@CJHNLOLN@Unknown?5state?5?8?$CFs?8?5specified?6?$AA@ DB 'Unknow'
	DB	'n state ''%s'' specified', 0aH, 00H		; `string'
CONST	ENDS
;	COMDAT ??_C@_0P@DDEIIOOC@UNKNOWN?5STATE?$CB?$AA@
CONST	SEGMENT
??_C@_0P@DDEIIOOC@UNKNOWN?5STATE?$CB?$AA@ DB 'UNKNOWN STATE!', 00H ; `string'
CONST	ENDS
;	COMDAT ??_C@_04NNCJDDJC@DEAD?$AA@
CONST	SEGMENT
??_C@_04NNCJDDJC@DEAD?$AA@ DB 'DEAD', 00H		; `string'
CONST	ENDS
;	COMDAT ??_C@_06FILEIAAK@IN?5USE?$AA@
CONST	SEGMENT
??_C@_06FILEIAAK@IN?5USE?$AA@ DB 'IN USE', 00H		; `string'
CONST	ENDS
;	COMDAT ??_C@_08HKBEOLJF@TURN?5OFF?$AA@
CONST	SEGMENT
??_C@_08HKBEOLJF@TURN?5OFF?$AA@ DB 'TURN OFF', 00H	; `string'
CONST	ENDS
;	COMDAT ??_C@_07CJNHFDCG@TURN?5ON?$AA@
CONST	SEGMENT
??_C@_07CJNHFDCG@TURN?5ON?$AA@ DB 'TURN ON', 00H	; `string'
CONST	ENDS
;	COMDAT ??_C@_03MPPIHBHJ@OFF?$AA@
CONST	SEGMENT
??_C@_03MPPIHBHJ@OFF?$AA@ DB 'OFF', 00H			; `string'
CONST	ENDS
;	COMDAT ??_C@_02BFICIOJL@ON?$AA@
CONST	SEGMENT
??_C@_02BFICIOJL@ON?$AA@ DB 'ON', 00H			; `string'
CONST	ENDS
;	COMDAT ??_C@_0BC@KILIBAEO@UNKNOWN?5USE_TYPE?$CB?$AA@
CONST	SEGMENT
??_C@_0BC@KILIBAEO@UNKNOWN?5USE_TYPE?$CB?$AA@ DB 'UNKNOWN USE_TYPE!', 00H ; `string'
CONST	ENDS
;	COMDAT ??_C@_0L@LKEFPLIM@USE_REMOVE?$AA@
CONST	SEGMENT
??_C@_0L@LKEFPLIM@USE_REMOVE?$AA@ DB 'USE_REMOVE', 00H	; `string'
CONST	ENDS
;	COMDAT ??_C@_09BMBMPLBD@USE_RESET?$AA@
CONST	SEGMENT
??_C@_09BMBMPLBD@USE_RESET?$AA@ DB 'USE_RESET', 00H	; `string'
CONST	ENDS
;	COMDAT ??_C@_07BMOJKOM@USE_SET?$AA@
CONST	SEGMENT
??_C@_07BMOJKOM@USE_SET?$AA@ DB 'USE_SET', 00H		; `string'
CONST	ENDS
;	COMDAT ??_C@_0L@OGLLPLDI@USE_TOGGLE?$AA@
CONST	SEGMENT
??_C@_0L@OGLLPLDI@USE_TOGGLE?$AA@ DB 'USE_TOGGLE', 00H	; `string'
CONST	ENDS
;	COMDAT ??_C@_07GBLDLMEB@USE_OFF?$AA@
CONST	SEGMENT
??_C@_07GBLDLMEB@USE_OFF?$AA@ DB 'USE_OFF', 00H		; `string'
CONST	ENDS
;	COMDAT ??_C@_06IPCFPMHD@USE_ON?$AA@
CONST	SEGMENT
??_C@_06IPCFPMHD@USE_ON?$AA@ DB 'USE_ON', 00H		; `string'
CONST	ENDS
;	COMDAT ??_C@_0BD@NGEGLPLE@buttons?1lever5?4wav?$AA@
CONST	SEGMENT
??_C@_0BD@NGEGLPLE@buttons?1lever5?4wav?$AA@ DB 'buttons/lever5.wav', 00H ; `string'
CONST	ENDS
;	COMDAT ??_C@_0BD@BNBKGMBB@buttons?1lever4?4wav?$AA@
CONST	SEGMENT
??_C@_0BD@BNBKGMBB@buttons?1lever4?4wav?$AA@ DB 'buttons/lever4.wav', 00H ; `string'
CONST	ENDS
;	COMDAT ??_C@_0BD@BPFMKJ@buttons?1lever3?4wav?$AA@
CONST	SEGMENT
??_C@_0BD@BPFMKJ@buttons?1lever3?4wav?$AA@ DB 'buttons/lever3.wav', 00H ; `string'
CONST	ENDS
;	COMDAT ??_C@_0BD@MLEDIPAM@buttons?1lever2?4wav?$AA@
CONST	SEGMENT
??_C@_0BD@MLEDIPAM@buttons?1lever2?4wav?$AA@ DB 'buttons/lever2.wav', 00H ; `string'
CONST	ENDS
;	COMDAT ??_C@_0BD@ENNHPNKC@buttons?1lever1?4wav?$AA@
CONST	SEGMENT
??_C@_0BD@ENNHPNKC@buttons?1lever1?4wav?$AA@ DB 'buttons/lever1.wav', 00H ; `string'
CONST	ENDS
;	COMDAT ??_C@_0BJ@BHFHBCLE@buttons?1lightswitch2?4wav?$AA@
CONST	SEGMENT
??_C@_0BJ@BHFHBCLE@buttons?1lightswitch2?4wav?$AA@ DB 'buttons/lightswitc'
	DB	'h2.wav', 00H				; `string'
CONST	ENDS
;	COMDAT ??_C@_0BL@KIJJHNJN@buttons?1latchunlocked1?4wav?$AA@
CONST	SEGMENT
??_C@_0BL@KIJJHNJN@buttons?1latchunlocked1?4wav?$AA@ DB 'buttons/latchunl'
	DB	'ocked1.wav', 00H				; `string'
CONST	ENDS
;	COMDAT ??_C@_0BJ@NJGHAHDG@buttons?1latchlocked1?4wav?$AA@
CONST	SEGMENT
??_C@_0BJ@NJGHAHDG@buttons?1latchlocked1?4wav?$AA@ DB 'buttons/latchlocke'
	DB	'd1.wav', 00H				; `string'
CONST	ENDS
;	COMDAT ??_C@_0BF@PCLCDJMG@buttons?1button11?4wav?$AA@
CONST	SEGMENT
??_C@_0BF@PCLCDJMG@buttons?1button11?4wav?$AA@ DB 'buttons/button11.wav', 00H ; `string'
CONST	ENDS
;	COMDAT ??_C@_0BF@DJOOOKGD@buttons?1button10?4wav?$AA@
CONST	SEGMENT
??_C@_0BF@DJOOOKGD@buttons?1button10?4wav?$AA@ DB 'buttons/button10.wav', 00H ; `string'
CONST	ENDS
;	COMDAT ??_C@_0BE@MMJBMFBI@buttons?1button9?4wav?$AA@
CONST	SEGMENT
??_C@_0BE@MMJBMFBI@buttons?1button9?4wav?$AA@ DB 'buttons/button9.wav', 00H ; `string'
CONST	ENDS
;	COMDAT ??_C@_0BE@HMNBGLN@buttons?1button8?4wav?$AA@
CONST	SEGMENT
??_C@_0BE@HMNBGLN@buttons?1button8?4wav?$AA@ DB 'buttons/button8.wav', 00H ; `string'
CONST	ENDS
;	COMDAT ??_C@_0BE@PGJLKEGI@buttons?1button7?4wav?$AA@
CONST	SEGMENT
??_C@_0BE@PGJLKEGI@buttons?1button7?4wav?$AA@ DB 'buttons/button7.wav', 00H ; `string'
CONST	ENDS
;	COMDAT ??_C@_0BE@DNMHHHMN@buttons?1button6?4wav?$AA@
CONST	SEGMENT
??_C@_0BE@DNMHHHMN@buttons?1button6?4wav?$AA@ DB 'buttons/button6.wav', 00H ; `string'
CONST	ENDS
;	COMDAT ??_C@_0BE@LLFDAFGD@buttons?1button5?4wav?$AA@
CONST	SEGMENT
??_C@_0BE@LLFDAFGD@buttons?1button5?4wav?$AA@ DB 'buttons/button5.wav', 00H ; `string'
CONST	ENDS
;	COMDAT ??_C@_0BE@HAAPNGMG@buttons?1button4?4wav?$AA@
CONST	SEGMENT
??_C@_0BE@HAAPNGMG@buttons?1button4?4wav?$AA@ DB 'buttons/button4.wav', 00H ; `string'
CONST	ENDS
;	COMDAT ??_C@_0BE@GNAKOGHO@buttons?1button3?4wav?$AA@
CONST	SEGMENT
??_C@_0BE@GNAKOGHO@buttons?1button3?4wav?$AA@ DB 'buttons/button3.wav', 00H ; `string'
CONST	ENDS
;	COMDAT ??_C@_0BE@KGFGDFNL@buttons?1button2?4wav?$AA@
CONST	SEGMENT
??_C@_0BE@KGFGDFNL@buttons?1button2?4wav?$AA@ DB 'buttons/button2.wav', 00H ; `string'
CONST	ENDS
;	COMDAT ??_C@_0BE@CAMCEHHF@buttons?1button1?4wav?$AA@
CONST	SEGMENT
??_C@_0BE@CAMCEHHF@buttons?1button1?4wav?$AA@ DB 'buttons/button1.wav', 00H ; `string'
CONST	ENDS
;	COMDAT ??_C@_0BA@HKOJACLM@common?1null?4wav?$AA@
CONST	SEGMENT
??_C@_0BA@HKOJACLM@common?1null?4wav?$AA@ DB 'common/null.wav', 00H ; `string'
CONST	ENDS
;	COMDAT ??_C@_0BM@BEAJEFCJ@ASSERT?5FAILED?3?6?5?$CFs?5?6?$CI?$CFs?$EA?$CFd?$CJ?$AA@
CONST	SEGMENT
??_C@_0BM@BEAJEFCJ@ASSERT?5FAILED?3?6?5?$CFs?5?6?$CI?$CFs?$EA?$CFd?$CJ?$AA@ DB 'A'
	DB	'SSERT FAILED:', 0aH, ' %s ', 0aH, '(%s@%d)', 00H ; `string'
CONST	ENDS
;	COMDAT ??_C@_0BP@JGGHDAMF@ASSERT?5FAILED?3?6?5?$CFs?5?6?$CI?$CFs?$EA?$CFd?$CJ?6?$CFs?$AA@
CONST	SEGMENT
??_C@_0BP@JGGHDAMF@ASSERT?5FAILED?3?6?5?$CFs?5?6?$CI?$CFs?$EA?$CFd?$CJ?6?$CFs?$AA@ DB 'A'
	DB	'SSERT FAILED:', 0aH, ' %s ', 0aH, '(%s@%d)', 0aH, '%s', 00H ; `string'
CONST	ENDS
;	COMDAT ??_C@_0DC@GHGLEAMP@DAMN?$CB?5?5Even?5the?5engine?5couldn?8t?5@
CONST	SEGMENT
??_C@_0DC@GHGLEAMP@DAMN?$CB?5?5Even?5the?5engine?5couldn?8t?5@ DB 'DAMN! '
	DB	' Even the engine couldn''t FindEntityByVars!', 00H ; `string'
CONST	ENDS
;	COMDAT ??_C@_0DJ@CNJCBHEO@entvars_t?5pContainingEntity?5is?5N@
CONST	SEGMENT
??_C@_0DJ@CNJCBHEO@entvars_t?5pContainingEntity?5is?5N@ DB 'entvars_t pCo'
	DB	'ntainingEntity is NULL, calling into engine', 00H ; `string'
CONST	ENDS
;	COMDAT ??_C@_0BM@KIPIGGJD@Failed?5to?5find?5function?5?$CFs?6?$AA@
CONST	SEGMENT
??_C@_0BM@KIPIGGJD@Failed?5to?5find?5function?5?$CFs?6?$AA@ DB 'Failed to'
	DB	' find function %s', 0aH, 00H		; `string'
CONST	ENDS
;	COMDAT ?__LINE__Var@?0??UTIL_FunctionFromName@@YAPAXPAUdatamap_s@@PBD@Z@4JA
_DATA	SEGMENT
?__LINE__Var@?0??UTIL_FunctionFromName@@YAPAXPAUdatamap_s@@PBD@Z@4JA DD 0d5H ; `UTIL_FunctionFromName'::`1'::__LINE__Var
_DATA	ENDS
;	COMDAT ??_C@_0DB@HMOMJHEN@sizeof?$CIpMap?9?$DOdataDesc?$FLi?$FN?4func?$CJ?5?$DN@
CONST	SEGMENT
??_C@_0DB@HMOMJHEN@sizeof?$CIpMap?9?$DOdataDesc?$FLi?$FN?4func?$CJ?5?$DN@ DB 's'
	DB	'izeof(pMap->dataDesc[i].func) == sizeof(void *)', 00H ; `string'
CONST	ENDS
;	COMDAT ??_C@_0EC@HIIDFEJP@d?3?2?$CBdiffusion?52020?2source?5code?52@
CONST	SEGMENT
??_C@_0EC@HIIDFEJP@d?3?2?$CBdiffusion?52020?2source?5code?52@ DB 'd:\!dif'
	DB	'fusion 2020\source code 2022\client-server\server\util.cpp', 00H ; `string'
CONST	ENDS
;	COMDAT ?__LINE__Var@?0??UTIL_FunctionToName@@YAPBDPAUdatamap_s@@PAX@Z@4JA
_DATA	SEGMENT
?__LINE__Var@?0??UTIL_FunctionToName@@YAPBDPAUdatamap_s@@PAX@Z@4JA DD 0bcH ; `UTIL_FunctionToName'::`1'::__LINE__Var
_DATA	ENDS
;	COMDAT ??_C@_03OFAPEBGM@?$CFs?6?$AA@
CONST	SEGMENT
??_C@_03OFAPEBGM@?$CFs?6?$AA@ DB '%s', 0aH, 00H		; `string'
CONST	ENDS
;	COMDAT ??_C@_0BP@EKJAMGDB@Entity?5Factory?5not?5installed?$CB?6?$AA@
CONST	SEGMENT
??_C@_0BP@EKJAMGDB@Entity?5Factory?5not?5installed?$CB?6?$AA@ DB 'Entity '
	DB	'Factory not installed!', 0aH, 00H		; `string'
CONST	ENDS
;	COMDAT ??_C@_0P@FLOJJBNJ@?5?$CFs?3?5?$CFd?5bytes?6?$AA@
CONST	SEGMENT
??_C@_0P@FLOJJBNJ@?5?$CFs?3?5?$CFd?5bytes?6?$AA@ DB ' %s: %d bytes', 0aH, 00H ; `string'
CONST	ENDS
;	COMDAT ??_C@_0CO@BCJHKPIF@Attempted?5to?5destroy?5unknown?5ent@
CONST	SEGMENT
??_C@_0CO@BCJHKPIF@Attempted?5to?5destroy?5unknown?5ent@ DB 'Attempted to'
	DB	' destroy unknown entity type %s!', 0aH, 00H	; `string'
CONST	ENDS
;	COMDAT ??_C@_0CN@EDMNCIHJ@Attempted?5to?5create?5unknown?5enti@
CONST	SEGMENT
??_C@_0CN@EDMNCIHJ@Attempted?5to?5create?5unknown?5enti@ DB 'Attempted to'
	DB	' create unknown entity type %s!', 0aH, 00H	; `string'
CONST	ENDS
;	COMDAT ??_C@_1EE@DJKMNDPK@?$AAF?$AAi?$AAn?$AAd?$AAF?$AAa?$AAc?$AAt?$AAo?$AAr?$AAy?$AA?$CI?$AA?5?$AAp?$AAC?$AAl?$AAa?$AAs?$AAs?$AAN?$AAa?$AAm?$AAe?$AA?5?$AA?$CJ?$AA?5?$AA?$DN?$AA?$DN?$AA?5?$AAN?$AAU?$AAL@
CONST	SEGMENT
??_C@_1EE@DJKMNDPK@?$AAF?$AAi?$AAn?$AAd?$AAF?$AAa?$AAc?$AAt?$AAo?$AAr?$AAy?$AA?$CI?$AA?5?$AAp?$AAC?$AAl?$AAa?$AAs?$AAs?$AAN?$AAa?$AAm?$AAe?$AA?5?$AA?$CJ?$AA?5?$AA?$DN?$AA?$DN?$AA?5?$AAN?$AAU?$AAL@ DB 'F'
	DB	00H, 'i', 00H, 'n', 00H, 'd', 00H, 'F', 00H, 'a', 00H, 'c', 00H
	DB	't', 00H, 'o', 00H, 'r', 00H, 'y', 00H, '(', 00H, ' ', 00H, 'p'
	DB	00H, 'C', 00H, 'l', 00H, 'a', 00H, 's', 00H, 's', 00H, 'N', 00H
	DB	'a', 00H, 'm', 00H, 'e', 00H, ' ', 00H, ')', 00H, ' ', 00H, '='
	DB	00H, '=', 00H, ' ', 00H, 'N', 00H, 'U', 00H, 'L', 00H, 'L', 00H
	DB	00H, 00H					; `string'
CONST	ENDS
;	COMDAT ??_C@_1IE@NGBBGFHJ@?$AAd?$AA?3?$AA?2?$AA?$CB?$AAd?$AAi?$AAf?$AAf?$AAu?$AAs?$AAi?$AAo?$AAn?$AA?5?$AA2?$AA0?$AA2?$AA0?$AA?2?$AAs?$AAo?$AAu?$AAr?$AAc?$AAe?$AA?5?$AAc?$AAo?$AAd?$AAe?$AA?5?$AA2@
CONST	SEGMENT
??_C@_1IE@NGBBGFHJ@?$AAd?$AA?3?$AA?2?$AA?$CB?$AAd?$AAi?$AAf?$AAf?$AAu?$AAs?$AAi?$AAo?$AAn?$AA?5?$AA2?$AA0?$AA2?$AA0?$AA?2?$AAs?$AAo?$AAu?$AAr?$AAc?$AAe?$AA?5?$AAc?$AAo?$AAd?$AAe?$AA?5?$AA2@ DB 'd'
	DB	00H, ':', 00H, '\', 00H, '!', 00H, 'd', 00H, 'i', 00H, 'f', 00H
	DB	'f', 00H, 'u', 00H, 's', 00H, 'i', 00H, 'o', 00H, 'n', 00H, ' '
	DB	00H, '2', 00H, '0', 00H, '2', 00H, '0', 00H, '\', 00H, 's', 00H
	DB	'o', 00H, 'u', 00H, 'r', 00H, 'c', 00H, 'e', 00H, ' ', 00H, 'c'
	DB	00H, 'o', 00H, 'd', 00H, 'e', 00H, ' ', 00H, '2', 00H, '0', 00H
	DB	'2', 00H, '2', 00H, '\', 00H, 'c', 00H, 'l', 00H, 'i', 00H, 'e'
	DB	00H, 'n', 00H, 't', 00H, '-', 00H, 's', 00H, 'e', 00H, 'r', 00H
	DB	'v', 00H, 'e', 00H, 'r', 00H, '\', 00H, 's', 00H, 'e', 00H, 'r'
	DB	00H, 'v', 00H, 'e', 00H, 'r', 00H, '\', 00H, 'u', 00H, 't', 00H
	DB	'i', 00H, 'l', 00H, '.', 00H, 'c', 00H, 'p', 00H, 'p', 00H, 00H
	DB	00H						; `string'
CONST	ENDS
;	COMDAT ?__LINE__Var@?0??InstallFactory@CEntityFactoryDictionary@@UAEXPAVIEntityFactory@@PBD@Z@4JA
_DATA	SEGMENT
?__LINE__Var@?0??InstallFactory@CEntityFactoryDictionary@@UAEXPAVIEntityFactory@@PBD@Z@4JA DD 05aH ; `CEntityFactoryDictionary::InstallFactory'::`1'::__LINE__Var
_DATA	ENDS
;	COMDAT ??_7CEntityFactoryDictionary@@6B@
CONST	SEGMENT
??_7CEntityFactoryDictionary@@6B@ DD FLAT:??_R4CEntityFactoryDictionary@@6B@ ; CEntityFactoryDictionary::`vftable'
	DD	FLAT:?InstallFactory@CEntityFactoryDictionary@@UAEXPAVIEntityFactory@@PBD@Z
	DD	FLAT:?Create@CEntityFactoryDictionary@@UAEPAVCBaseEntity@@PBDPAUentvars_s@@@Z
	DD	FLAT:?Destroy@CEntityFactoryDictionary@@UAEXPBDPAVCBaseEntity@@@Z
	DD	FLAT:?FindFactory@CEntityFactoryDictionary@@EAEPAVIEntityFactory@@PBD@Z
	DD	FLAT:?GetCannonicalName@CEntityFactoryDictionary@@UAEPBDPBD@Z
CONST	ENDS
;	COMDAT ??_C@_04HDOCAJNK@?$CFs?$CFs?$AA@
CONST	SEGMENT
??_C@_04HDOCAJNK@?$CFs?$CFs?$AA@ DB '%s%s', 00H		; `string'
CONST	ENDS
;	COMDAT ??_C@_0BF@DOONGEFO@Bad?5pev?5in?5OFFSET?$CI?$CJ?6?$AA@
CONST	SEGMENT
??_C@_0BF@DOONGEFO@Bad?5pev?5in?5OFFSET?$CI?$CJ?6?$AA@ DB 'Bad pev in OFF'
	DB	'SET()', 0aH, 00H				; `string'
CONST	ENDS
;	COMDAT ??_C@_0BF@CPEPILID@Bad?5ent?5in?5OFFSET?$CI?$CJ?6?$AA@
CONST	SEGMENT
??_C@_0BF@CPEPILID@Bad?5ent?5in?5OFFSET?$CI?$CJ?6?$AA@ DB 'Bad ent in OFF'
	DB	'SET()', 0aH, 00H				; `string'
CONST	ENDS
;	COMDAT ??_C@_06JJLAMBGK@target?$AA@
CONST	SEGMENT
??_C@_06JJLAMBGK@target?$AA@ DB 'target', 00H		; `string'
CONST	ENDS
;	COMDAT ??_C@_0L@FEPNPAJD@targetname?$AA@
CONST	SEGMENT
??_C@_0L@FEPNPAJD@targetname?$AA@ DB 'targetname', 00H	; `string'
CONST	ENDS
;	COMDAT ??_C@_09CNJINBGN@classname?$AA@
CONST	SEGMENT
??_C@_09CNJINBGN@classname?$AA@ DB 'classname', 00H	; `string'
CONST	ENDS
;	COMDAT ??_7IEntityFactoryDictionary@@6B@
CONST	SEGMENT
??_7IEntityFactoryDictionary@@6B@ DD FLAT:??_R4IEntityFactoryDictionary@@6B@ ; IEntityFactoryDictionary::`vftable'
	DD	FLAT:__purecall
	DD	FLAT:__purecall
	DD	FLAT:__purecall
	DD	FLAT:__purecall
	DD	FLAT:__purecall
CONST	ENDS
;	COMDAT ??_C@_00CNPNBAHC@?$AA@
CONST	SEGMENT
??_C@_00CNPNBAHC@?$AA@ DB 00H				; `string'
CONST	ENDS
;	COMDAT ??_C@_01NBENCBCI@?$CK?$AA@
CONST	SEGMENT
??_C@_01NBENCBCI@?$CK?$AA@ DB '*', 00H			; `string'
CONST	ENDS
;	COMDAT xdata$x
xdata$x	SEGMENT
__unwindtable$??$Construct@UNode_t@?$CUtlMap@PBDPAVIEntityFactory@@G@@@@YAXPAUNode_t@?$CUtlMap@PBDPAVIEntityFactory@@G@@@Z DD 0ffffffffH
	DD	FLAT:__unwindfunclet$??$Construct@UNode_t@?$CUtlMap@PBDPAVIEntityFactory@@G@@@@YAXPAUNode_t@?$CUtlMap@PBDPAVIEntityFactory@@G@@@Z$0
__ehfuncinfo$??$Construct@UNode_t@?$CUtlMap@PBDPAVIEntityFactory@@G@@@@YAXPAUNode_t@?$CUtlMap@PBDPAVIEntityFactory@@G@@@Z DD 019930522H
	DD	01H
	DD	FLAT:__unwindtable$??$Construct@UNode_t@?$CUtlMap@PBDPAVIEntityFactory@@G@@@@YAXPAUNode_t@?$CUtlMap@PBDPAVIEntityFactory@@G@@@Z
	DD	2 DUP(00H)
	DD	2 DUP(00H)
	DD	00H
	DD	01H
xdata$x	ENDS
;	COMDAT xdata$x
xdata$x	SEGMENT
__unwindtable$??$CopyConstruct@UNode_t@?$CUtlMap@PBDPAVIEntityFactory@@G@@@@YAXPAUNode_t@?$CUtlMap@PBDPAVIEntityFactory@@G@@ABU01@@Z DD 0ffffffffH
	DD	FLAT:__unwindfunclet$??$CopyConstruct@UNode_t@?$CUtlMap@PBDPAVIEntityFactory@@G@@@@YAXPAUNode_t@?$CUtlMap@PBDPAVIEntityFactory@@G@@ABU01@@Z$0
__ehfuncinfo$??$CopyConstruct@UNode_t@?$CUtlMap@PBDPAVIEntityFactory@@G@@@@YAXPAUNode_t@?$CUtlMap@PBDPAVIEntityFactory@@G@@ABU01@@Z DD 019930522H
	DD	01H
	DD	FLAT:__unwindtable$??$CopyConstruct@UNode_t@?$CUtlMap@PBDPAVIEntityFactory@@G@@@@YAXPAUNode_t@?$CUtlMap@PBDPAVIEntityFactory@@G@@ABU01@@Z
	DD	2 DUP(00H)
	DD	2 DUP(00H)
	DD	00H
	DD	01H
xdata$x	ENDS
;	COMDAT xdata$x
xdata$x	SEGMENT
__ehfuncinfo$??1?$CUtlMemory@U?$UtlRBTreeNode_t@UNode_t@?$CUtlMap@PBDPAVIEntityFactory@@G@@G@@G@@QAE@XZ DD 019930522H
	DD	00H
	DD	00H
	DD	2 DUP(00H)
	DD	2 DUP(00H)
	DD	00H
	DD	05H
xdata$x	ENDS
;	COMDAT xdata$x
xdata$x	SEGMENT
__unwindtable$?Links@?$CUtlRBTree@UNode_t@?$CUtlMap@PBDPAVIEntityFactory@@G@@GVCKeyLess@2@V?$CUtlMemory@U?$UtlRBTreeNode_t@UNode_t@?$CUtlMap@PBDPAVIEntityFactory@@G@@G@@G@@@@IBEABU?$UtlRBTreeLinks_t@G@@G@Z DD 0ffffffffH
	DD	FLAT:__unwindfunclet$?Links@?$CUtlRBTree@UNode_t@?$CUtlMap@PBDPAVIEntityFactory@@G@@GVCKeyLess@2@V?$CUtlMemory@U?$UtlRBTreeNode_t@UNode_t@?$CUtlMap@PBDPAVIEntityFactory@@G@@G@@G@@@@IBEABU?$UtlRBTreeLinks_t@G@@G@Z$0
__ehfuncinfo$?Links@?$CUtlRBTree@UNode_t@?$CUtlMap@PBDPAVIEntityFactory@@G@@GVCKeyLess@2@V?$CUtlMemory@U?$UtlRBTreeNode_t@UNode_t@?$CUtlMap@PBDPAVIEntityFactory@@G@@G@@G@@@@IBEABU?$UtlRBTreeLinks_t@G@@G@Z DD 019930522H
	DD	01H
	DD	FLAT:__unwindtable$?Links@?$CUtlRBTree@UNode_t@?$CUtlMap@PBDPAVIEntityFactory@@G@@GVCKeyLess@2@V?$CUtlMemory@U?$UtlRBTreeNode_t@UNode_t@?$CUtlMap@PBDPAVIEntityFactory@@G@@G@@G@@@@IBEABU?$UtlRBTreeLinks_t@G@@G@Z
	DD	2 DUP(00H)
	DD	2 DUP(00H)
	DD	00H
	DD	01H
xdata$x	ENDS
;	COMDAT xdata$x
xdata$x	SEGMENT
__ehfuncinfo$??1?$CUtlRBTree@UNode_t@?$CUtlMap@PBDPAVIEntityFactory@@G@@GVCKeyLess@2@V?$CUtlMemory@U?$UtlRBTreeNode_t@UNode_t@?$CUtlMap@PBDPAVIEntityFactory@@G@@G@@G@@@@QAE@XZ DD 019930522H
	DD	00H
	DD	00H
	DD	2 DUP(00H)
	DD	2 DUP(00H)
	DD	00H
	DD	05H
xdata$x	ENDS
;	COMDAT xdata$x
xdata$x	SEGMENT
__unwindtable$??0?$CUtlRBTree@UNode_t@?$CUtlMap@PBDPAVIEntityFactory@@G@@GVCKeyLess@2@V?$CUtlMemory@U?$UtlRBTreeNode_t@UNode_t@?$CUtlMap@PBDPAVIEntityFactory@@G@@G@@G@@@@QAE@HHABVCKeyLess@?$CUtlMap@PBDPAVIEntityFactory@@G@@@Z DD 0ffffffffH
	DD	FLAT:__unwindfunclet$??0?$CUtlRBTree@UNode_t@?$CUtlMap@PBDPAVIEntityFactory@@G@@GVCKeyLess@2@V?$CUtlMemory@U?$UtlRBTreeNode_t@UNode_t@?$CUtlMap@PBDPAVIEntityFactory@@G@@G@@G@@@@QAE@HHABVCKeyLess@?$CUtlMap@PBDPAVIEntityFactory@@G@@@Z$0
__ehfuncinfo$??0?$CUtlRBTree@UNode_t@?$CUtlMap@PBDPAVIEntityFactory@@G@@GVCKeyLess@2@V?$CUtlMemory@U?$UtlRBTreeNode_t@UNode_t@?$CUtlMap@PBDPAVIEntityFactory@@G@@G@@G@@@@QAE@HHABVCKeyLess@?$CUtlMap@PBDPAVIEntityFactory@@G@@@Z DD 019930522H
	DD	01H
	DD	FLAT:__unwindtable$??0?$CUtlRBTree@UNode_t@?$CUtlMap@PBDPAVIEntityFactory@@G@@GVCKeyLess@2@V?$CUtlMemory@U?$UtlRBTreeNode_t@UNode_t@?$CUtlMap@PBDPAVIEntityFactory@@G@@G@@G@@@@QAE@HHABVCKeyLess@?$CUtlMap@PBDPAVIEntityFactory@@G@@@Z
	DD	2 DUP(00H)
	DD	2 DUP(00H)
	DD	00H
	DD	01H
xdata$x	ENDS
;	COMDAT xdata$x
xdata$x	SEGMENT
__ehfuncinfo$??1?$CUtlDict@PAVIEntityFactory@@G@@QAE@XZ DD 019930522H
	DD	00H
	DD	00H
	DD	2 DUP(00H)
	DD	2 DUP(00H)
	DD	00H
	DD	05H
xdata$x	ENDS
;	COMDAT xdata$x
xdata$x	SEGMENT
__unwindtable$??0?$CUtlDict@PAVIEntityFactory@@G@@QAE@HHH@Z DD 0ffffffffH
	DD	FLAT:__unwindfunclet$??0?$CUtlDict@PAVIEntityFactory@@G@@QAE@HHH@Z$0
__ehfuncinfo$??0?$CUtlDict@PAVIEntityFactory@@G@@QAE@HHH@Z DD 019930522H
	DD	01H
	DD	FLAT:__unwindtable$??0?$CUtlDict@PAVIEntityFactory@@G@@QAE@HHH@Z
	DD	2 DUP(00H)
	DD	2 DUP(00H)
	DD	00H
	DD	01H
xdata$x	ENDS
;	COMDAT xdata$x
xdata$x	SEGMENT
__ehfuncinfo$??1UTIL_GroupTrace@@QAE@XZ DD 019930522H
	DD	00H
	DD	00H
	DD	2 DUP(00H)
	DD	2 DUP(00H)
	DD	00H
	DD	05H
xdata$x	ENDS
;	COMDAT xdata$x
xdata$x	SEGMENT
__unwindtable$?EntityFactoryDictionary@@YAPAVIEntityFactoryDictionary@@XZ DD 0ffffffffH
	DD	FLAT:__unwindfunclet$?EntityFactoryDictionary@@YAPAVIEntityFactoryDictionary@@XZ$0
__ehfuncinfo$?EntityFactoryDictionary@@YAPAVIEntityFactoryDictionary@@XZ DD 019930522H
	DD	01H
	DD	FLAT:__unwindtable$?EntityFactoryDictionary@@YAPAVIEntityFactoryDictionary@@XZ
	DD	2 DUP(00H)
	DD	2 DUP(00H)
	DD	00H
	DD	01H
xdata$x	ENDS
; Function compile flags: /Odtp /ZI
; File d:\!diffusion 2020\source code 2022\client-server\game_shared\utlmemory.h
;	COMDAT ??$Destruct@UNode_t@?$CUtlMap@PBDPAVIEntityFactory@@G@@@@YAXPAUNode_t@?$CUtlMap@PBDPAVIEntityFactory@@G@@@Z
_TEXT	SEGMENT
_pMemory$ = 8						; size = 4
??$Destruct@UNode_t@?$CUtlMap@PBDPAVIEntityFactory@@G@@@@YAXPAUNode_t@?$CUtlMap@PBDPAVIEntityFactory@@G@@@Z PROC ; Destruct<CUtlMap<char const *,IEntityFactory *,unsigned short>::Node_t>, COMDAT

; 49   : {

	push	ebp
	mov	ebp, esp
	sub	esp, 64					; 00000040H
	push	ebx
	push	esi
	push	edi

; 50   : 	pMemory->~T();
; 51   : 
; 52   : #ifdef _DEBUG
; 53   : 	memset( pMemory, 0xDD, sizeof(T) );

	push	8
	push	221					; 000000ddH
	mov	eax, DWORD PTR _pMemory$[ebp]
	push	eax
	call	_memset
	add	esp, 12					; 0000000cH

; 54   : #endif
; 55   : }

	pop	edi
	pop	esi
	pop	ebx
	mov	esp, ebp
	pop	ebp
	ret	0
??$Destruct@UNode_t@?$CUtlMap@PBDPAVIEntityFactory@@G@@@@YAXPAUNode_t@?$CUtlMap@PBDPAVIEntityFactory@@G@@@Z ENDP ; Destruct<CUtlMap<char const *,IEntityFactory *,unsigned short>::Node_t>
_TEXT	ENDS
; Function compile flags: /Odtp /ZI
; File d:\!diffusion 2020\source code 2022\client-server\game_shared\utlmemory.h
;	COMDAT ??$Construct@UNode_t@?$CUtlMap@PBDPAVIEntityFactory@@G@@@@YAXPAUNode_t@?$CUtlMap@PBDPAVIEntityFactory@@G@@@Z
_TEXT	SEGMENT
tv76 = -88						; size = 4
$T2 = -84						; size = 4
$T3 = -80						; size = 4
__$EHRec$ = -12						; size = 12
_pMemory$ = 8						; size = 4
??$Construct@UNode_t@?$CUtlMap@PBDPAVIEntityFactory@@G@@@@YAXPAUNode_t@?$CUtlMap@PBDPAVIEntityFactory@@G@@@Z PROC ; Construct<CUtlMap<char const *,IEntityFactory *,unsigned short>::Node_t>, COMDAT

; 37   : {

	push	ebp
	mov	ebp, esp
	push	-1
	push	__ehhandler$??$Construct@UNode_t@?$CUtlMap@PBDPAVIEntityFactory@@G@@@@YAXPAUNode_t@?$CUtlMap@PBDPAVIEntityFactory@@G@@@Z
	mov	eax, DWORD PTR fs:0
	push	eax
	sub	esp, 76					; 0000004cH
	push	ebx
	push	esi
	push	edi
	mov	eax, DWORD PTR ___security_cookie
	xor	eax, ebp
	push	eax
	lea	eax, DWORD PTR __$EHRec$[ebp]
	mov	DWORD PTR fs:0, eax

; 38   : 	new( pMemory ) T;

	mov	eax, DWORD PTR _pMemory$[ebp]
	push	eax
	push	8
	call	??2@YAPAXIPAX@Z				; operator new
	add	esp, 8
	mov	DWORD PTR $T2[ebp], eax
	mov	DWORD PTR __$EHRec$[ebp+8], 0
	cmp	DWORD PTR $T2[ebp], 0
	je	SHORT $LN3@Construct
	mov	ecx, DWORD PTR $T2[ebp]
	call	??0Node_t@?$CUtlMap@PBDPAVIEntityFactory@@G@@QAE@XZ ; CUtlMap<char const *,IEntityFactory *,unsigned short>::Node_t::Node_t
	mov	DWORD PTR tv76[ebp], eax
	jmp	SHORT $LN4@Construct
$LN3@Construct:
	mov	DWORD PTR tv76[ebp], 0
$LN4@Construct:
	mov	ecx, DWORD PTR tv76[ebp]
	mov	DWORD PTR $T3[ebp], ecx
	mov	DWORD PTR __$EHRec$[ebp+8], -1

; 39   : }

	mov	ecx, DWORD PTR __$EHRec$[ebp]
	mov	DWORD PTR fs:0, ecx
	pop	ecx
	pop	edi
	pop	esi
	pop	ebx
	mov	esp, ebp
	pop	ebp
	ret	0
_TEXT	ENDS
;	COMDAT text$x
text$x	SEGMENT
__unwindfunclet$??$Construct@UNode_t@?$CUtlMap@PBDPAVIEntityFactory@@G@@@@YAXPAUNode_t@?$CUtlMap@PBDPAVIEntityFactory@@G@@@Z$0:
	mov	eax, DWORD PTR _pMemory$[ebp]
	push	eax
	mov	eax, DWORD PTR $T2[ebp]
	push	eax
	call	??3@YAXPAX0@Z				; operator delete
	add	esp, 8
	ret	0
__ehhandler$??$Construct@UNode_t@?$CUtlMap@PBDPAVIEntityFactory@@G@@@@YAXPAUNode_t@?$CUtlMap@PBDPAVIEntityFactory@@G@@@Z:
	mov	edx, DWORD PTR [esp+8]
	lea	eax, DWORD PTR [edx+12]
	mov	ecx, DWORD PTR [edx-92]
	xor	ecx, eax
	call	@__security_check_cookie@4
	mov	eax, OFFSET __ehfuncinfo$??$Construct@UNode_t@?$CUtlMap@PBDPAVIEntityFactory@@G@@@@YAXPAUNode_t@?$CUtlMap@PBDPAVIEntityFactory@@G@@@Z
	jmp	___CxxFrameHandler3
text$x	ENDS
??$Construct@UNode_t@?$CUtlMap@PBDPAVIEntityFactory@@G@@@@YAXPAUNode_t@?$CUtlMap@PBDPAVIEntityFactory@@G@@@Z ENDP ; Construct<CUtlMap<char const *,IEntityFactory *,unsigned short>::Node_t>
; Function compile flags: /Odtp /ZI
; File d:\!diffusion 2020\source code 2022\client-server\game_shared\utlmemory.h
;	COMDAT ??$CopyConstruct@UNode_t@?$CUtlMap@PBDPAVIEntityFactory@@G@@@@YAXPAUNode_t@?$CUtlMap@PBDPAVIEntityFactory@@G@@ABU01@@Z
_TEXT	SEGMENT
tv77 = -88						; size = 4
$T2 = -84						; size = 4
$T3 = -80						; size = 4
__$EHRec$ = -12						; size = 12
_pMemory$ = 8						; size = 4
_src$ = 12						; size = 4
??$CopyConstruct@UNode_t@?$CUtlMap@PBDPAVIEntityFactory@@G@@@@YAXPAUNode_t@?$CUtlMap@PBDPAVIEntityFactory@@G@@ABU01@@Z PROC ; CopyConstruct<CUtlMap<char const *,IEntityFactory *,unsigned short>::Node_t>, COMDAT

; 43   : {

	push	ebp
	mov	ebp, esp
	push	-1
	push	__ehhandler$??$CopyConstruct@UNode_t@?$CUtlMap@PBDPAVIEntityFactory@@G@@@@YAXPAUNode_t@?$CUtlMap@PBDPAVIEntityFactory@@G@@ABU01@@Z
	mov	eax, DWORD PTR fs:0
	push	eax
	sub	esp, 76					; 0000004cH
	push	ebx
	push	esi
	push	edi
	mov	eax, DWORD PTR ___security_cookie
	xor	eax, ebp
	push	eax
	lea	eax, DWORD PTR __$EHRec$[ebp]
	mov	DWORD PTR fs:0, eax

; 44   : 	new( pMemory ) T(src);

	mov	eax, DWORD PTR _pMemory$[ebp]
	push	eax
	push	8
	call	??2@YAPAXIPAX@Z				; operator new
	add	esp, 8
	mov	DWORD PTR $T2[ebp], eax
	mov	DWORD PTR __$EHRec$[ebp+8], 0
	cmp	DWORD PTR $T2[ebp], 0
	je	SHORT $LN3@CopyConstr
	mov	ecx, DWORD PTR _src$[ebp]
	push	ecx
	mov	ecx, DWORD PTR $T2[ebp]
	call	??0Node_t@?$CUtlMap@PBDPAVIEntityFactory@@G@@QAE@ABU01@@Z ; CUtlMap<char const *,IEntityFactory *,unsigned short>::Node_t::Node_t
	mov	DWORD PTR tv77[ebp], eax
	jmp	SHORT $LN4@CopyConstr
$LN3@CopyConstr:
	mov	DWORD PTR tv77[ebp], 0
$LN4@CopyConstr:
	mov	edx, DWORD PTR tv77[ebp]
	mov	DWORD PTR $T3[ebp], edx
	mov	DWORD PTR __$EHRec$[ebp+8], -1

; 45   : }

	mov	ecx, DWORD PTR __$EHRec$[ebp]
	mov	DWORD PTR fs:0, ecx
	pop	ecx
	pop	edi
	pop	esi
	pop	ebx
	mov	esp, ebp
	pop	ebp
	ret	0
_TEXT	ENDS
;	COMDAT text$x
text$x	SEGMENT
__unwindfunclet$??$CopyConstruct@UNode_t@?$CUtlMap@PBDPAVIEntityFactory@@G@@@@YAXPAUNode_t@?$CUtlMap@PBDPAVIEntityFactory@@G@@ABU01@@Z$0:
	mov	eax, DWORD PTR _pMemory$[ebp]
	push	eax
	mov	eax, DWORD PTR $T2[ebp]
	push	eax
	call	??3@YAXPAX0@Z				; operator delete
	add	esp, 8
	ret	0
__ehhandler$??$CopyConstruct@UNode_t@?$CUtlMap@PBDPAVIEntityFactory@@G@@@@YAXPAUNode_t@?$CUtlMap@PBDPAVIEntityFactory@@G@@ABU01@@Z:
	mov	edx, DWORD PTR [esp+8]
	lea	eax, DWORD PTR [edx+12]
	mov	ecx, DWORD PTR [edx-92]
	xor	ecx, eax
	call	@__security_check_cookie@4
	mov	eax, OFFSET __ehfuncinfo$??$CopyConstruct@UNode_t@?$CUtlMap@PBDPAVIEntityFactory@@G@@@@YAXPAUNode_t@?$CUtlMap@PBDPAVIEntityFactory@@G@@ABU01@@Z
	jmp	___CxxFrameHandler3
text$x	ENDS
??$CopyConstruct@UNode_t@?$CUtlMap@PBDPAVIEntityFactory@@G@@@@YAXPAUNode_t@?$CUtlMap@PBDPAVIEntityFactory@@G@@ABU01@@Z ENDP ; CopyConstruct<CUtlMap<char const *,IEntityFactory *,unsigned short>::Node_t>
; Function compile flags: /Odtp /ZI
; File d:\!diffusion 2020\source code 2022\client-server\game_shared\utlmap.h
;	COMDAT ??0Node_t@?$CUtlMap@PBDPAVIEntityFactory@@G@@QAE@ABU01@@Z
_TEXT	SEGMENT
_this$ = -4						; size = 4
_from$ = 8						; size = 4
??0Node_t@?$CUtlMap@PBDPAVIEntityFactory@@G@@QAE@ABU01@@Z PROC ; CUtlMap<char const *,IEntityFactory *,unsigned short>::Node_t::Node_t, COMDAT
; _this$ = ecx

; 166  : 		{

	push	ebp
	mov	ebp, esp
	sub	esp, 68					; 00000044H
	push	ebx
	push	esi
	push	edi
	mov	DWORD PTR _this$[ebp], ecx

; 164  : 		  : key( from.key ),

	mov	eax, DWORD PTR _this$[ebp]
	mov	ecx, DWORD PTR _from$[ebp]
	mov	edx, DWORD PTR [ecx]
	mov	DWORD PTR [eax], edx

; 165  : 			elem( from.elem )

	mov	eax, DWORD PTR _this$[ebp]
	mov	ecx, DWORD PTR _from$[ebp]
	mov	edx, DWORD PTR [ecx+4]
	mov	DWORD PTR [eax+4], edx

; 167  : 		}

	mov	eax, DWORD PTR _this$[ebp]
	pop	edi
	pop	esi
	pop	ebx
	mov	esp, ebp
	pop	ebp
	ret	4
??0Node_t@?$CUtlMap@PBDPAVIEntityFactory@@G@@QAE@ABU01@@Z ENDP ; CUtlMap<char const *,IEntityFactory *,unsigned short>::Node_t::Node_t
_TEXT	ENDS
; Function compile flags: /Odtp /ZI
; File d:\!diffusion 2020\source code 2022\client-server\game_shared\utlmap.h
;	COMDAT ??0Node_t@?$CUtlMap@PBDPAVIEntityFactory@@G@@QAE@XZ
_TEXT	SEGMENT
_this$ = -4						; size = 4
??0Node_t@?$CUtlMap@PBDPAVIEntityFactory@@G@@QAE@XZ PROC ; CUtlMap<char const *,IEntityFactory *,unsigned short>::Node_t::Node_t, COMDAT
; _this$ = ecx

; 159  : 		Node_t()

	push	ebp
	mov	ebp, esp
	sub	esp, 68					; 00000044H
	push	ebx
	push	esi
	push	edi
	mov	DWORD PTR _this$[ebp], ecx

; 160  : 		{
; 161  : 		}

	mov	eax, DWORD PTR _this$[ebp]
	pop	edi
	pop	esi
	pop	ebx
	mov	esp, ebp
	pop	ebp
	ret	0
??0Node_t@?$CUtlMap@PBDPAVIEntityFactory@@G@@QAE@XZ ENDP ; CUtlMap<char const *,IEntityFactory *,unsigned short>::Node_t::Node_t
_TEXT	ENDS
; Function compile flags: /Odtp /ZI
; File d:\!diffusion 2020\source code 2022\client-server\server\util.cpp
;	COMDAT ?UTIL_RecursiveWalkNodes@@YAXPAUareaclip_t@@PAUareanode_s@@@Z
_TEXT	SEGMENT
_pCheck$1 = -16						; size = 4
_next$ = -12						; size = 4
_start$ = -8						; size = 4
_l$ = -4						; size = 4
_clip$ = 8						; size = 4
_node$ = 12						; size = 4
?UTIL_RecursiveWalkNodes@@YAXPAUareaclip_t@@PAUareanode_s@@@Z PROC ; UTIL_RecursiveWalkNodes, COMDAT

; 2826 : {

	push	ebp
	mov	ebp, esp
	sub	esp, 88					; 00000058H
	push	ebx
	push	esi
	push	edi

; 2827 : 	link_t	*l, *start, *next;
; 2828 : 
; 2829 : 	// touch linked edicts
; 2830 : 	if( clip->area_type == AREA_SOLID )

	mov	eax, DWORD PTR _clip$[ebp]
	cmp	DWORD PTR [eax+28], 0
	jne	SHORT $LN5@UTIL_Recur

; 2831 : 		start = &node->solid_edicts;

	mov	eax, DWORD PTR _node$[ebp]
	add	eax, 24					; 00000018H
	mov	DWORD PTR _start$[ebp], eax
	jmp	SHORT $LN10@UTIL_Recur
$LN5@UTIL_Recur:

; 2832 : 	else if( clip->area_type == AREA_TRIGGERS )

	mov	eax, DWORD PTR _clip$[ebp]
	cmp	DWORD PTR [eax+28], 1
	jne	SHORT $LN7@UTIL_Recur

; 2833 : 		start = &node->trigger_edicts;

	mov	eax, DWORD PTR _node$[ebp]
	add	eax, 16					; 00000010H
	mov	DWORD PTR _start$[ebp], eax
	jmp	SHORT $LN10@UTIL_Recur
$LN7@UTIL_Recur:

; 2834 : 	else if( clip->area_type == AREA_WATER )

	mov	eax, DWORD PTR _clip$[ebp]
	cmp	DWORD PTR [eax+28], 2
	jne	SHORT $LN9@UTIL_Recur

; 2835 : 		start = &node->solid_edicts;

	mov	eax, DWORD PTR _node$[ebp]
	add	eax, 24					; 00000018H
	mov	DWORD PTR _start$[ebp], eax

; 2836 : 	else return;

	jmp	SHORT $LN10@UTIL_Recur
$LN9@UTIL_Recur:
	jmp	$LN1@UTIL_Recur
$LN10@UTIL_Recur:

; 2837 : 
; 2838 : 	// touch linked edicts
; 2839 : 	for( l = start->next; l != start; l = next )

	mov	eax, DWORD PTR _start$[ebp]
	mov	ecx, DWORD PTR [eax+4]
	mov	DWORD PTR _l$[ebp], ecx
	jmp	SHORT $LN4@UTIL_Recur
$LN2@UTIL_Recur:
	mov	eax, DWORD PTR _next$[ebp]
	mov	DWORD PTR _l$[ebp], eax
$LN4@UTIL_Recur:
	mov	eax, DWORD PTR _l$[ebp]
	cmp	eax, DWORD PTR _start$[ebp]
	je	$LN3@UTIL_Recur

; 2840 : 	{
; 2841 : 		next = l->next;

	mov	eax, DWORD PTR _l$[ebp]
	mov	ecx, DWORD PTR [eax+4]
	mov	DWORD PTR _next$[ebp], ecx

; 2842 : 
; 2843 : 		CBaseEntity *pCheck = CBaseEntity :: Instance( EDICT_FROM_AREA( l ));

	mov	eax, DWORD PTR _l$[ebp]
	sub	eax, 8
	push	eax
	call	?Instance@CBaseEntity@@SAPAV1@PAUedict_s@@@Z ; CBaseEntity::Instance
	add	esp, 4
	mov	DWORD PTR _pCheck$1[ebp], eax

; 2844 : 
; 2845 : 		if( clip->area_type == AREA_SOLID && pCheck->pev->solid == SOLID_NOT )

	mov	eax, DWORD PTR _clip$[ebp]
	cmp	DWORD PTR [eax+28], 0
	jne	SHORT $LN11@UTIL_Recur
	mov	eax, DWORD PTR _pCheck$1[ebp]
	mov	ecx, DWORD PTR [eax+4]
	cmp	DWORD PTR [ecx+268], 0
	jne	SHORT $LN11@UTIL_Recur

; 2846 : 			continue;

	jmp	SHORT $LN2@UTIL_Recur
$LN11@UTIL_Recur:

; 2847 : 
; 2848 : 		if( clip->area_type == AREA_WATER && pCheck->pev->solid != SOLID_NOT )

	mov	eax, DWORD PTR _clip$[ebp]
	cmp	DWORD PTR [eax+28], 2
	jne	SHORT $LN12@UTIL_Recur
	mov	eax, DWORD PTR _pCheck$1[ebp]
	mov	ecx, DWORD PTR [eax+4]
	cmp	DWORD PTR [ecx+268], 0
	je	SHORT $LN12@UTIL_Recur

; 2849 : 			continue;

	jmp	SHORT $LN2@UTIL_Recur
$LN12@UTIL_Recur:

; 2850 : 
; 2851 : 		if( pCheck && pCheck->AreaIntersect( clip->vecAbsMin, clip->vecAbsMax ))

	cmp	DWORD PTR _pCheck$1[ebp], 0
	je	SHORT $LN14@UTIL_Recur
	mov	eax, DWORD PTR _clip$[ebp]
	add	eax, 12					; 0000000cH
	sub	esp, 12					; 0000000cH
	mov	ecx, esp
	push	eax
	call	??0Vector@@QAE@ABV0@@Z			; Vector::Vector
	mov	ecx, DWORD PTR _clip$[ebp]
	sub	esp, 12					; 0000000cH
	mov	edx, esp
	push	ecx
	mov	ecx, edx
	call	??0Vector@@QAE@ABV0@@Z			; Vector::Vector
	mov	ecx, DWORD PTR _pCheck$1[ebp]
	call	?AreaIntersect@CBaseEntity@@QAEHVVector@@0@Z ; CBaseEntity::AreaIntersect
	test	eax, eax
	je	SHORT $LN14@UTIL_Recur

; 2852 : 		{
; 2853 : 			if( clip->m_pfnCallback )

	mov	eax, DWORD PTR _clip$[ebp]
	cmp	DWORD PTR [eax+24], 0
	je	SHORT $LN14@UTIL_Recur

; 2854 : 				clip->m_pfnCallback( pCheck );

	mov	eax, DWORD PTR _pCheck$1[ebp]
	push	eax
	mov	ecx, DWORD PTR _clip$[ebp]
	mov	edx, DWORD PTR [ecx+24]
	call	edx
	add	esp, 4
$LN14@UTIL_Recur:

; 2855 : 		}
; 2856 : 	}

	jmp	$LN2@UTIL_Recur
$LN3@UTIL_Recur:

; 2857 : 	
; 2858 : 	// recurse down both sides
; 2859 : 	if( node->axis == -1 ) return;

	mov	eax, DWORD PTR _node$[ebp]
	cmp	DWORD PTR [eax], -1
	jne	SHORT $LN15@UTIL_Recur
	jmp	SHORT $LN1@UTIL_Recur
$LN15@UTIL_Recur:

; 2860 : 
; 2861 : 	if( clip->vecAbsMax[node->axis] > node->dist )

	mov	ecx, DWORD PTR _clip$[ebp]
	add	ecx, 12					; 0000000cH
	call	??BVector@@QAEPAMXZ			; Vector::operator float *
	mov	ecx, DWORD PTR _node$[ebp]
	mov	edx, DWORD PTR [ecx]
	mov	ecx, DWORD PTR _node$[ebp]
	movss	xmm0, DWORD PTR [eax+edx*4]
	comiss	xmm0, DWORD PTR [ecx+4]
	jbe	SHORT $LN16@UTIL_Recur

; 2862 : 		UTIL_RecursiveWalkNodes( clip, node->children[0] );

	mov	eax, 4
	imul	ecx, eax, 0
	mov	edx, DWORD PTR _node$[ebp]
	mov	eax, DWORD PTR [edx+ecx+8]
	push	eax
	mov	ecx, DWORD PTR _clip$[ebp]
	push	ecx
	call	?UTIL_RecursiveWalkNodes@@YAXPAUareaclip_t@@PAUareanode_s@@@Z ; UTIL_RecursiveWalkNodes
	add	esp, 8
$LN16@UTIL_Recur:

; 2863 : 	if( clip->vecAbsMin[node->axis] < node->dist )

	mov	ecx, DWORD PTR _clip$[ebp]
	call	??BVector@@QAEPAMXZ			; Vector::operator float *
	mov	ecx, DWORD PTR _node$[ebp]
	mov	edx, DWORD PTR [ecx]
	mov	ecx, DWORD PTR _node$[ebp]
	movss	xmm0, DWORD PTR [ecx+4]
	comiss	xmm0, DWORD PTR [eax+edx*4]
	jbe	SHORT $LN17@UTIL_Recur

; 2864 : 		UTIL_RecursiveWalkNodes( clip, node->children[1] );

	mov	eax, 4
	shl	eax, 0
	mov	ecx, DWORD PTR _node$[ebp]
	mov	edx, DWORD PTR [ecx+eax+8]
	push	edx
	mov	eax, DWORD PTR _clip$[ebp]
	push	eax
	call	?UTIL_RecursiveWalkNodes@@YAXPAUareaclip_t@@PAUareanode_s@@@Z ; UTIL_RecursiveWalkNodes
	add	esp, 8
$LN17@UTIL_Recur:
$LN1@UTIL_Recur:

; 2865 : }

	pop	edi
	pop	esi
	pop	ebx
	mov	esp, ebp
	pop	ebp
	ret	0
?UTIL_RecursiveWalkNodes@@YAXPAUareaclip_t@@PAUareanode_s@@@Z ENDP ; UTIL_RecursiveWalkNodes
_TEXT	ENDS
; Function compile flags: /Odtp /ZI
; File c:\program files (x86)\microsoft visual studio 14.0\vc\include\vadefs.h
;	COMDAT ??$__vcrt_va_start_verify_argument_type@PAD@@YAXXZ
_TEXT	SEGMENT
??$__vcrt_va_start_verify_argument_type@PAD@@YAXXZ PROC	; __vcrt_va_start_verify_argument_type<char *>, COMDAT

; 144  :         {

	push	ebp
	mov	ebp, esp
	sub	esp, 64					; 00000040H
	push	ebx
	push	esi
	push	edi

; 145  :             static_assert(!__vcrt_va_list_is_reference<_Ty>::__the_value, "va_start argument must not have reference type and must not be parenthesized");
; 146  :         }

	pop	edi
	pop	esi
	pop	ebx
	mov	esp, ebp
	pop	ebp
	ret	0
??$__vcrt_va_start_verify_argument_type@PAD@@YAXXZ ENDP	; __vcrt_va_start_verify_argument_type<char *>
_TEXT	ENDS
; Function compile flags: /Odtp /ZI
; File d:\!diffusion 2020\source code 2022\client-server\server\util.cpp
;	COMDAT ?UTIL_ConvertTrace@@YAXPAUgametrace_s@@PAUtrace_s@@@Z
_TEXT	SEGMENT
_dst$ = 8						; size = 4
_src$ = 12						; size = 4
?UTIL_ConvertTrace@@YAXPAUgametrace_s@@PAUtrace_s@@@Z PROC ; UTIL_ConvertTrace, COMDAT

; 1494 : {

	push	ebp
	mov	ebp, esp
	sub	esp, 64					; 00000040H
	push	ebx
	push	esi
	push	edi

; 1495 : 	dst->fAllSolid = src->allsolid;

	mov	eax, DWORD PTR _dst$[ebp]
	mov	ecx, DWORD PTR _src$[ebp]
	mov	edx, DWORD PTR [ecx]
	mov	DWORD PTR [eax], edx

; 1496 : 	dst->fStartSolid = src->startsolid;

	mov	eax, DWORD PTR _dst$[ebp]
	mov	ecx, DWORD PTR _src$[ebp]
	mov	edx, DWORD PTR [ecx+4]
	mov	DWORD PTR [eax+4], edx

; 1497 : 	dst->fInOpen = src->inopen;

	mov	eax, DWORD PTR _dst$[ebp]
	mov	ecx, DWORD PTR _src$[ebp]
	mov	edx, DWORD PTR [ecx+8]
	mov	DWORD PTR [eax+8], edx

; 1498 : 	dst->fInWater = src->inwater;

	mov	eax, DWORD PTR _dst$[ebp]
	mov	ecx, DWORD PTR _src$[ebp]
	mov	edx, DWORD PTR [ecx+12]
	mov	DWORD PTR [eax+12], edx

; 1499 : 	dst->flFraction = src->fraction;

	mov	eax, DWORD PTR _dst$[ebp]
	mov	ecx, DWORD PTR _src$[ebp]
	mov	edx, DWORD PTR [ecx+16]
	mov	DWORD PTR [eax+16], edx

; 1500 : 	dst->vecEndPos = src->endpos;

	mov	eax, DWORD PTR _src$[ebp]
	add	eax, 20					; 00000014H
	mov	ecx, DWORD PTR _dst$[ebp]
	add	ecx, 20					; 00000014H
	mov	edx, DWORD PTR [eax]
	mov	DWORD PTR [ecx], edx
	mov	edx, DWORD PTR [eax+4]
	mov	DWORD PTR [ecx+4], edx
	mov	eax, DWORD PTR [eax+8]
	mov	DWORD PTR [ecx+8], eax

; 1501 : 	dst->flPlaneDist = src->plane.dist;

	mov	eax, DWORD PTR _dst$[ebp]
	mov	ecx, DWORD PTR _src$[ebp]
	mov	edx, DWORD PTR [ecx+44]
	mov	DWORD PTR [eax+32], edx

; 1502 : 	dst->vecPlaneNormal = src->plane.normal;

	mov	eax, DWORD PTR _src$[ebp]
	add	eax, 32					; 00000020H
	mov	ecx, DWORD PTR _dst$[ebp]
	add	ecx, 36					; 00000024H
	mov	edx, DWORD PTR [eax]
	mov	DWORD PTR [ecx], edx
	mov	edx, DWORD PTR [eax+4]
	mov	DWORD PTR [ecx+4], edx
	mov	eax, DWORD PTR [eax+8]
	mov	DWORD PTR [ecx+8], eax

; 1503 : 	dst->pHit = src->ent;

	mov	eax, DWORD PTR _dst$[ebp]
	mov	ecx, DWORD PTR _src$[ebp]
	mov	edx, DWORD PTR [ecx+48]
	mov	DWORD PTR [eax+48], edx

; 1504 : 	dst->iHitgroup = src->hitgroup;

	mov	eax, DWORD PTR _dst$[ebp]
	mov	ecx, DWORD PTR _src$[ebp]
	mov	edx, DWORD PTR [ecx+52]
	mov	DWORD PTR [eax+52], edx

; 1505 : 
; 1506 : 	// reset trace flags
; 1507 : 	gpGlobals->trace_flags = 0;

	mov	eax, DWORD PTR ?gpGlobals@@3PAUglobalvars_t@@A ; gpGlobals
	mov	DWORD PTR [eax+132], 0

; 1508 : }

	pop	edi
	pop	esi
	pop	ebx
	mov	esp, ebp
	pop	ebp
	ret	0
?UTIL_ConvertTrace@@YAXPAUgametrace_s@@PAUtrace_s@@@Z ENDP ; UTIL_ConvertTrace
_TEXT	ENDS
; Function compile flags: /Odtp /ZI
; File d:\!diffusion 2020\source code 2022\client-server\server\util.cpp
;	COMDAT ?UTIL_CopyTraceToGlobal@@YAXPAUtrace_s@@@Z
_TEXT	SEGMENT
_trace$ = 8						; size = 4
?UTIL_CopyTraceToGlobal@@YAXPAUtrace_s@@@Z PROC		; UTIL_CopyTraceToGlobal, COMDAT

; 1469 : {

	push	ebp
	mov	ebp, esp
	sub	esp, 64					; 00000040H
	push	ebx
	push	esi
	push	edi

; 1470 : 	gpGlobals->trace_allsolid = trace->allsolid;

	mov	eax, DWORD PTR _trace$[ebp]
	cvtsi2ss xmm0, DWORD PTR [eax]
	mov	ecx, DWORD PTR ?gpGlobals@@3PAUglobalvars_t@@A ; gpGlobals
	movss	DWORD PTR [ecx+76], xmm0

; 1471 : 	gpGlobals->trace_startsolid = trace->startsolid;

	mov	eax, DWORD PTR _trace$[ebp]
	cvtsi2ss xmm0, DWORD PTR [eax+4]
	mov	ecx, DWORD PTR ?gpGlobals@@3PAUglobalvars_t@@A ; gpGlobals
	movss	DWORD PTR [ecx+80], xmm0

; 1472 : 	gpGlobals->trace_fraction = trace->fraction;

	mov	eax, DWORD PTR ?gpGlobals@@3PAUglobalvars_t@@A ; gpGlobals
	mov	ecx, DWORD PTR _trace$[ebp]
	mov	edx, DWORD PTR [ecx+16]
	mov	DWORD PTR [eax+84], edx

; 1473 : 	gpGlobals->trace_plane_dist = trace->plane.dist;

	mov	eax, DWORD PTR ?gpGlobals@@3PAUglobalvars_t@@A ; gpGlobals
	mov	ecx, DWORD PTR _trace$[ebp]
	mov	edx, DWORD PTR [ecx+44]
	mov	DWORD PTR [eax+112], edx

; 1474 : 	gpGlobals->trace_inopen = trace->inopen;

	mov	eax, DWORD PTR _trace$[ebp]
	cvtsi2ss xmm0, DWORD PTR [eax+8]
	mov	ecx, DWORD PTR ?gpGlobals@@3PAUglobalvars_t@@A ; gpGlobals
	movss	DWORD PTR [ecx+120], xmm0

; 1475 : 	gpGlobals->trace_inwater = trace->inwater;

	mov	eax, DWORD PTR _trace$[ebp]
	cvtsi2ss xmm0, DWORD PTR [eax+12]
	mov	ecx, DWORD PTR ?gpGlobals@@3PAUglobalvars_t@@A ; gpGlobals
	movss	DWORD PTR [ecx+124], xmm0

; 1476 : 	gpGlobals->trace_endpos = trace->endpos;

	mov	eax, DWORD PTR _trace$[ebp]
	add	eax, 20					; 00000014H
	mov	ecx, DWORD PTR ?gpGlobals@@3PAUglobalvars_t@@A ; gpGlobals
	add	ecx, 88					; 00000058H
	mov	edx, DWORD PTR [eax]
	mov	DWORD PTR [ecx], edx
	mov	edx, DWORD PTR [eax+4]
	mov	DWORD PTR [ecx+4], edx
	mov	eax, DWORD PTR [eax+8]
	mov	DWORD PTR [ecx+8], eax

; 1477 : 	gpGlobals->trace_plane_normal = trace->plane.normal;

	mov	eax, DWORD PTR _trace$[ebp]
	add	eax, 32					; 00000020H
	mov	ecx, DWORD PTR ?gpGlobals@@3PAUglobalvars_t@@A ; gpGlobals
	add	ecx, 100				; 00000064H
	mov	edx, DWORD PTR [eax]
	mov	DWORD PTR [ecx], edx
	mov	edx, DWORD PTR [eax+4]
	mov	DWORD PTR [ecx+4], edx
	mov	eax, DWORD PTR [eax+8]
	mov	DWORD PTR [ecx+8], eax

; 1478 : 	gpGlobals->trace_hitgroup = trace->hitgroup;

	mov	eax, DWORD PTR ?gpGlobals@@3PAUglobalvars_t@@A ; gpGlobals
	mov	ecx, DWORD PTR _trace$[ebp]
	mov	edx, DWORD PTR [ecx+52]
	mov	DWORD PTR [eax+128], edx

; 1479 : 	gpGlobals->trace_flags = 0;	// clear trace flags

	mov	eax, DWORD PTR ?gpGlobals@@3PAUglobalvars_t@@A ; gpGlobals
	mov	DWORD PTR [eax+132], 0

; 1480 : 
; 1481 : 	if( !FNullEnt( trace->ent ))

	mov	eax, DWORD PTR _trace$[ebp]
	mov	ecx, DWORD PTR [eax+48]
	push	ecx
	call	?FNullEnt@@YAHPBUedict_s@@@Z		; FNullEnt
	add	esp, 4
	test	eax, eax
	jne	SHORT $LN2@UTIL_CopyT

; 1482 : 		gpGlobals->trace_ent = trace->ent;

	mov	eax, DWORD PTR ?gpGlobals@@3PAUglobalvars_t@@A ; gpGlobals
	mov	ecx, DWORD PTR _trace$[ebp]
	mov	edx, DWORD PTR [ecx+48]
	mov	DWORD PTR [eax+116], edx
	jmp	SHORT $LN3@UTIL_CopyT
$LN2@UTIL_CopyT:

; 1483 : 	else gpGlobals->trace_ent = ENT(0); // world

	push	0
	call	?ENT@@YAPAUedict_s@@H@Z			; ENT
	add	esp, 4
	mov	ecx, DWORD PTR ?gpGlobals@@3PAUglobalvars_t@@A ; gpGlobals
	mov	DWORD PTR [ecx+116], eax
$LN3@UTIL_CopyT:

; 1484 : }

	pop	edi
	pop	esi
	pop	ebx
	mov	esp, ebp
	pop	ebp
	ret	0
?UTIL_CopyTraceToGlobal@@YAXPAUtrace_s@@@Z ENDP		; UTIL_CopyTraceToGlobal
_TEXT	ENDS
; Function compile flags: /Odtp /ZI
; File d:\!diffusion 2020\source code 2022\client-server\server\util.cpp
;	COMDAT ?UTIL_ScreenFadeWrite@@YAXABUScreenFade@@PAVCBaseEntity@@@Z
_TEXT	SEGMENT
_fade$ = 8						; size = 4
_pEntity$ = 12						; size = 4
?UTIL_ScreenFadeWrite@@YAXABUScreenFade@@PAVCBaseEntity@@@Z PROC ; UTIL_ScreenFadeWrite, COMDAT

; 1171 : {

	push	ebp
	mov	ebp, esp
	sub	esp, 64					; 00000040H
	push	ebx
	push	esi
	push	edi

; 1172 : 	if ( !pEntity || !pEntity->IsNetClient() )

	cmp	DWORD PTR _pEntity$[ebp], 0
	je	SHORT $LN3@UTIL_Scree
	mov	eax, DWORD PTR _pEntity$[ebp]
	mov	edx, DWORD PTR [eax]
	mov	ecx, DWORD PTR _pEntity$[ebp]
	mov	eax, DWORD PTR [edx+224]
	call	eax
	test	eax, eax
	jne	SHORT $LN2@UTIL_Scree
$LN3@UTIL_Scree:

; 1173 : 		return;

	jmp	$LN1@UTIL_Scree
$LN2@UTIL_Scree:

; 1174 : 
; 1175 : 	MESSAGE_BEGIN( MSG_ONE, gmsgFade, NULL, pEntity->edict() );		// use the magic #1 for "one client"

	mov	ecx, DWORD PTR _pEntity$[ebp]
	call	?edict@CBaseEntity@@QAEPAUedict_s@@XZ	; CBaseEntity::edict
	push	eax
	push	0
	mov	eax, DWORD PTR ?gmsgFade@@3HA		; gmsgFade
	push	eax
	push	1
	call	?MESSAGE_BEGIN@@YAXHHPBMPAUedict_s@@@Z	; MESSAGE_BEGIN
	add	esp, 16					; 00000010H

; 1176 : 		
; 1177 : 		WRITE_SHORT( fade.duration );		// fade lasts this long

	mov	eax, DWORD PTR _fade$[ebp]
	movzx	ecx, WORD PTR [eax]
	push	ecx
	call	DWORD PTR ?g_engfuncs@@3Uenginefuncs_s@@A+200
	add	esp, 4

; 1178 : 		WRITE_SHORT( fade.holdTime );		// fade lasts this long

	mov	eax, DWORD PTR _fade$[ebp]
	movzx	ecx, WORD PTR [eax+2]
	push	ecx
	call	DWORD PTR ?g_engfuncs@@3Uenginefuncs_s@@A+200
	add	esp, 4

; 1179 : 		WRITE_SHORT( fade.fadeFlags );		// fade type (in / out)

	mov	eax, DWORD PTR _fade$[ebp]
	movsx	ecx, WORD PTR [eax+4]
	push	ecx
	call	DWORD PTR ?g_engfuncs@@3Uenginefuncs_s@@A+200
	add	esp, 4

; 1180 : 		WRITE_BYTE( fade.r );				// fade red

	mov	eax, DWORD PTR _fade$[ebp]
	movzx	ecx, BYTE PTR [eax+6]
	push	ecx
	call	DWORD PTR ?g_engfuncs@@3Uenginefuncs_s@@A+192
	add	esp, 4

; 1181 : 		WRITE_BYTE( fade.g );				// fade green

	mov	eax, DWORD PTR _fade$[ebp]
	movzx	ecx, BYTE PTR [eax+7]
	push	ecx
	call	DWORD PTR ?g_engfuncs@@3Uenginefuncs_s@@A+192
	add	esp, 4

; 1182 : 		WRITE_BYTE( fade.b );				// fade blue

	mov	eax, DWORD PTR _fade$[ebp]
	movzx	ecx, BYTE PTR [eax+8]
	push	ecx
	call	DWORD PTR ?g_engfuncs@@3Uenginefuncs_s@@A+192
	add	esp, 4

; 1183 : 		WRITE_BYTE( fade.a );				// fade blue

	mov	eax, DWORD PTR _fade$[ebp]
	movzx	ecx, BYTE PTR [eax+9]
	push	ecx
	call	DWORD PTR ?g_engfuncs@@3Uenginefuncs_s@@A+192
	add	esp, 4

; 1184 : 
; 1185 : 	MESSAGE_END();

	call	DWORD PTR ?g_engfuncs@@3Uenginefuncs_s@@A+188
$LN1@UTIL_Scree:

; 1186 : }

	pop	edi
	pop	esi
	pop	ebx
	mov	esp, ebp
	pop	ebp
	ret	0
?UTIL_ScreenFadeWrite@@YAXABUScreenFade@@PAVCBaseEntity@@@Z ENDP ; UTIL_ScreenFadeWrite
_TEXT	ENDS
; Function compile flags: /Odtp /ZI
; File d:\!diffusion 2020\source code 2022\client-server\server\util.cpp
;	COMDAT ?UTIL_ScreenFadeBuild@@YAXAAUScreenFade@@ABVVector@@MMHH@Z
_TEXT	SEGMENT
_fade$ = 8						; size = 4
_color$ = 12						; size = 4
_fadeTime$ = 16						; size = 4
_fadeHold$ = 20						; size = 4
_alpha$ = 24						; size = 4
_flags$ = 28						; size = 4
?UTIL_ScreenFadeBuild@@YAXAAUScreenFade@@ABVVector@@MMHH@Z PROC ; UTIL_ScreenFadeBuild, COMDAT

; 1160 : {

	push	ebp
	mov	ebp, esp
	sub	esp, 64					; 00000040H
	push	ebx
	push	esi
	push	edi

; 1161 : 	fade.duration = FixedUnsigned16( fadeTime, 1<<12 );		// 4.12 fixed

	push	ecx
	movss	xmm0, DWORD PTR __real@45800000
	movss	DWORD PTR [esp], xmm0
	push	ecx
	movss	xmm0, DWORD PTR _fadeTime$[ebp]
	movss	DWORD PTR [esp], xmm0
	call	?FixedUnsigned16@@YAGMM@Z		; FixedUnsigned16
	add	esp, 8
	mov	ecx, DWORD PTR _fade$[ebp]
	mov	WORD PTR [ecx], ax

; 1162 : 	fade.holdTime = FixedUnsigned16( fadeHold, 1<<12 );		// 4.12 fixed

	push	ecx
	movss	xmm0, DWORD PTR __real@45800000
	movss	DWORD PTR [esp], xmm0
	push	ecx
	movss	xmm0, DWORD PTR _fadeHold$[ebp]
	movss	DWORD PTR [esp], xmm0
	call	?FixedUnsigned16@@YAGMM@Z		; FixedUnsigned16
	add	esp, 8
	mov	ecx, DWORD PTR _fade$[ebp]
	mov	WORD PTR [ecx+2], ax

; 1163 : 	fade.r = (int)color.x;

	mov	eax, DWORD PTR _color$[ebp]
	cvttss2si ecx, DWORD PTR [eax]
	mov	edx, DWORD PTR _fade$[ebp]
	mov	BYTE PTR [edx+6], cl

; 1164 : 	fade.g = (int)color.y;

	mov	eax, DWORD PTR _color$[ebp]
	cvttss2si ecx, DWORD PTR [eax+4]
	mov	edx, DWORD PTR _fade$[ebp]
	mov	BYTE PTR [edx+7], cl

; 1165 : 	fade.b = (int)color.z;

	mov	eax, DWORD PTR _color$[ebp]
	cvttss2si ecx, DWORD PTR [eax+8]
	mov	edx, DWORD PTR _fade$[ebp]
	mov	BYTE PTR [edx+8], cl

; 1166 : 	fade.a = alpha;

	mov	eax, DWORD PTR _fade$[ebp]
	mov	cl, BYTE PTR _alpha$[ebp]
	mov	BYTE PTR [eax+9], cl

; 1167 : 	fade.fadeFlags = flags;

	mov	eax, DWORD PTR _fade$[ebp]
	mov	cx, WORD PTR _flags$[ebp]
	mov	WORD PTR [eax+4], cx

; 1168 : }

	pop	edi
	pop	esi
	pop	ebx
	mov	esp, ebp
	pop	ebp
	ret	0
?UTIL_ScreenFadeBuild@@YAXAAUScreenFade@@ABVVector@@MMHH@Z ENDP ; UTIL_ScreenFadeBuild
_TEXT	ENDS
; Function compile flags: /Odtp /ZI
; File d:\!diffusion 2020\source code 2022\client-server\server\util.cpp
;	COMDAT ?FixedSigned16@@YAFMM@Z
_TEXT	SEGMENT
_output$ = -4						; size = 4
_value$ = 8						; size = 4
_scale$ = 12						; size = 4
?FixedSigned16@@YAFMM@Z PROC				; FixedSigned16, COMDAT

; 1051 : {

	push	ebp
	mov	ebp, esp
	sub	esp, 68					; 00000044H
	push	ebx
	push	esi
	push	edi

; 1052 : 	int output;
; 1053 : 
; 1054 : 	output = value * scale;

	movss	xmm0, DWORD PTR _value$[ebp]
	mulss	xmm0, DWORD PTR _scale$[ebp]
	cvttss2si eax, xmm0
	mov	DWORD PTR _output$[ebp], eax

; 1055 : 
; 1056 : 	if ( output > 32767 )

	cmp	DWORD PTR _output$[ebp], 32767		; 00007fffH
	jle	SHORT $LN2@FixedSigne

; 1057 : 		output = 32767;

	mov	DWORD PTR _output$[ebp], 32767		; 00007fffH
$LN2@FixedSigne:

; 1058 : 
; 1059 : 	if ( output < -32768 )

	cmp	DWORD PTR _output$[ebp], -32768		; ffff8000H
	jge	SHORT $LN3@FixedSigne

; 1060 : 		output = -32768;

	mov	DWORD PTR _output$[ebp], -32768		; ffff8000H
$LN3@FixedSigne:

; 1061 : 
; 1062 : 	return (short)output;

	mov	ax, WORD PTR _output$[ebp]

; 1063 : }

	pop	edi
	pop	esi
	pop	ebx
	mov	esp, ebp
	pop	ebp
	ret	0
?FixedSigned16@@YAFMM@Z ENDP				; FixedSigned16
_TEXT	ENDS
; Function compile flags: /Odtp /ZI
; File d:\!diffusion 2020\source code 2022\client-server\server\util.cpp
;	COMDAT ?FixedUnsigned16@@YAGMM@Z
_TEXT	SEGMENT
_output$ = -4						; size = 4
_value$ = 8						; size = 4
_scale$ = 12						; size = 4
?FixedUnsigned16@@YAGMM@Z PROC				; FixedUnsigned16, COMDAT

; 1038 : {

	push	ebp
	mov	ebp, esp
	sub	esp, 68					; 00000044H
	push	ebx
	push	esi
	push	edi

; 1039 : 	int output;
; 1040 : 
; 1041 : 	output = value * scale;

	movss	xmm0, DWORD PTR _value$[ebp]
	mulss	xmm0, DWORD PTR _scale$[ebp]
	cvttss2si eax, xmm0
	mov	DWORD PTR _output$[ebp], eax

; 1042 : 	if ( output < 0 )

	cmp	DWORD PTR _output$[ebp], 0
	jge	SHORT $LN2@FixedUnsig

; 1043 : 		output = 0;

	mov	DWORD PTR _output$[ebp], 0
$LN2@FixedUnsig:

; 1044 : 	if ( output > 0xFFFF )

	cmp	DWORD PTR _output$[ebp], 65535		; 0000ffffH
	jle	SHORT $LN3@FixedUnsig

; 1045 : 		output = 0xFFFF;

	mov	DWORD PTR _output$[ebp], 65535		; 0000ffffH
$LN3@FixedUnsig:

; 1046 : 
; 1047 : 	return (unsigned short)output;

	mov	ax, WORD PTR _output$[ebp]

; 1048 : }

	pop	edi
	pop	esi
	pop	ebx
	mov	esp, ebp
	pop	ebp
	ret	0
?FixedUnsigned16@@YAGMM@Z ENDP				; FixedUnsigned16
_TEXT	ENDS
; Function compile flags: /Odtp /ZI
; File d:\!diffusion 2020\source code 2022\client-server\server\util.cpp
;	COMDAT ?UTIL_MoveToOrigin@@YAXPAUedict_s@@ABVVector@@MH@Z
_TEXT	SEGMENT
_rgfl$ = -16						; size = 12
__$ArrayPad$ = -4					; size = 4
_pent$ = 8						; size = 4
_vecGoal$ = 12						; size = 4
_flDist$ = 16						; size = 4
_iMoveType$ = 20					; size = 4
?UTIL_MoveToOrigin@@YAXPAUedict_s@@ABVVector@@MH@Z PROC	; UTIL_MoveToOrigin, COMDAT

; 554  : {

	push	ebp
	mov	ebp, esp
	sub	esp, 80					; 00000050H
	mov	eax, DWORD PTR ___security_cookie
	xor	eax, ebp
	mov	DWORD PTR __$ArrayPad$[ebp], eax
	push	ebx
	push	esi
	push	edi

; 555  : 	float rgfl[3];
; 556  : 	vecGoal.CopyToArray(rgfl);

	lea	eax, DWORD PTR _rgfl$[ebp]
	push	eax
	mov	ecx, DWORD PTR _vecGoal$[ebp]
	call	?CopyToArray@Vector@@QBEXPAM@Z		; Vector::CopyToArray

; 557  : 	MOVE_TO_ORIGIN ( pent, rgfl, flDist, iMoveType ); 

	mov	eax, DWORD PTR _iMoveType$[ebp]
	push	eax
	push	ecx
	movss	xmm0, DWORD PTR _flDist$[ebp]
	movss	DWORD PTR [esp], xmm0
	lea	ecx, DWORD PTR _rgfl$[ebp]
	push	ecx
	mov	edx, DWORD PTR _pent$[ebp]
	push	edx
	call	DWORD PTR ?g_engfuncs@@3Uenginefuncs_s@@A+44
	add	esp, 16					; 00000010H

; 558  : }

	pop	edi
	pop	esi
	pop	ebx
	mov	ecx, DWORD PTR __$ArrayPad$[ebp]
	xor	ecx, ebp
	call	@__security_check_cookie@4
	mov	esp, ebp
	pop	ebp
	ret	0
?UTIL_MoveToOrigin@@YAXPAUedict_s@@ABVVector@@MH@Z ENDP	; UTIL_MoveToOrigin
_TEXT	ENDS
; Function compile flags: /Odtp /ZI
; File c:\program files (x86)\microsoft visual studio 14.0\vc\include\vadefs.h
;	COMDAT ??$__vcrt_va_start_verify_argument_type@PBD@@YAXXZ
_TEXT	SEGMENT
??$__vcrt_va_start_verify_argument_type@PBD@@YAXXZ PROC	; __vcrt_va_start_verify_argument_type<char const *>, COMDAT

; 144  :         {

	push	ebp
	mov	ebp, esp
	sub	esp, 64					; 00000040H
	push	ebx
	push	esi
	push	edi

; 145  :             static_assert(!__vcrt_va_list_is_reference<_Ty>::__the_value, "va_start argument must not have reference type and must not be parenthesized");
; 146  :         }

	pop	edi
	pop	esi
	pop	ebx
	mov	esp, ebp
	pop	ebp
	ret	0
??$__vcrt_va_start_verify_argument_type@PBD@@YAXXZ ENDP	; __vcrt_va_start_verify_argument_type<char const *>
_TEXT	ENDS
; Function compile flags: /Odtp /ZI
; File d:\!diffusion 2020\source code 2022\client-server\server\util.cpp
;	COMDAT _custom
_TEXT	SEGMENT
tv66 = -68						; size = 4
_pev$ = 8						; size = 4
_custom	PROC						; COMDAT

; 174  : {

	push	ebp
	mov	ebp, esp
	sub	esp, 68					; 00000044H
	push	ebx
	push	esi
	push	edi

; 175  : 	EntityFactoryDictionary()->Create( STRING( pev->classname ), pev );

	call	?EntityFactoryDictionary@@YAPAVIEntityFactoryDictionary@@XZ ; EntityFactoryDictionary
	mov	DWORD PTR tv66[ebp], eax
	mov	eax, DWORD PTR _pev$[ebp]
	push	eax
	mov	ecx, DWORD PTR _pev$[ebp]
	mov	edx, DWORD PTR [ecx]
	push	edx
	call	DWORD PTR ?g_engfuncs@@3Uenginefuncs_s@@A+264
	add	esp, 4
	push	eax
	mov	eax, DWORD PTR tv66[ebp]
	mov	edx, DWORD PTR [eax]
	mov	ecx, DWORD PTR tv66[ebp]
	mov	eax, DWORD PTR [edx+4]
	call	eax

; 176  : }

	pop	edi
	pop	esi
	pop	ebx
	mov	esp, ebp
	pop	ebp
	ret	0
_custom	ENDP
_TEXT	ENDS
; Function compile flags: /Odtp /ZI
;	COMDAT ??__Fs_EntityFactory@?1??EntityFactoryDictionary@@YAPAVIEntityFactoryDictionary@@XZ@YAXXZ
text$yd	SEGMENT
??__Fs_EntityFactory@?1??EntityFactoryDictionary@@YAPAVIEntityFactoryDictionary@@XZ@YAXXZ PROC ; `EntityFactoryDictionary'::`2'::`dynamic atexit destructor for 's_EntityFactory'', COMDAT
	push	ebp
	mov	ebp, esp
	sub	esp, 64					; 00000040H
	push	ebx
	push	esi
	push	edi
	mov	ecx, OFFSET ?s_EntityFactory@?1??EntityFactoryDictionary@@YAPAVIEntityFactoryDictionary@@XZ@4VCEntityFactoryDictionary@@A
	call	??1CEntityFactoryDictionary@@QAE@XZ
	pop	edi
	pop	esi
	pop	ebx
	mov	esp, ebp
	pop	ebp
	ret	0
??__Fs_EntityFactory@?1??EntityFactoryDictionary@@YAPAVIEntityFactoryDictionary@@XZ@YAXXZ ENDP ; `EntityFactoryDictionary'::`2'::`dynamic atexit destructor for 's_EntityFactory''
text$yd	ENDS
; Function compile flags: /Odtp /ZI
;	COMDAT ??1CEntityFactoryDictionary@@QAE@XZ
_TEXT	SEGMENT
_this$ = -4						; size = 4
??1CEntityFactoryDictionary@@QAE@XZ PROC		; CEntityFactoryDictionary::~CEntityFactoryDictionary, COMDAT
; _this$ = ecx
	push	ebp
	mov	ebp, esp
	sub	esp, 68					; 00000044H
	push	ebx
	push	esi
	push	edi
	mov	DWORD PTR _this$[ebp], ecx
	mov	ecx, DWORD PTR _this$[ebp]
	add	ecx, 4
	call	??1?$CUtlDict@PAVIEntityFactory@@G@@QAE@XZ ; CUtlDict<IEntityFactory *,unsigned short>::~CUtlDict<IEntityFactory *,unsigned short>
	pop	edi
	pop	esi
	pop	ebx
	mov	esp, ebp
	pop	ebp
	ret	0
??1CEntityFactoryDictionary@@QAE@XZ ENDP		; CEntityFactoryDictionary::~CEntityFactoryDictionary
_TEXT	ENDS
; Function compile flags: /Odtp /ZI
;	COMDAT ??1?$CUtlMap@PBDPAVIEntityFactory@@G@@QAE@XZ
_TEXT	SEGMENT
_this$ = -4						; size = 4
??1?$CUtlMap@PBDPAVIEntityFactory@@G@@QAE@XZ PROC	; CUtlMap<char const *,IEntityFactory *,unsigned short>::~CUtlMap<char const *,IEntityFactory *,unsigned short>, COMDAT
; _this$ = ecx
	push	ebp
	mov	ebp, esp
	sub	esp, 68					; 00000044H
	push	ebx
	push	esi
	push	edi
	mov	DWORD PTR _this$[ebp], ecx
	mov	ecx, DWORD PTR _this$[ebp]
	call	??1?$CUtlRBTree@UNode_t@?$CUtlMap@PBDPAVIEntityFactory@@G@@GVCKeyLess@2@V?$CUtlMemory@U?$UtlRBTreeNode_t@UNode_t@?$CUtlMap@PBDPAVIEntityFactory@@G@@G@@G@@@@QAE@XZ ; CUtlRBTree<CUtlMap<char const *,IEntityFactory *,unsigned short>::Node_t,unsigned short,CUtlMap<char const *,IEntityFactory *,unsigned short>::CKeyLess,CUtlMemory<UtlRBTreeNode_t<CUtlMap<char const *,IEntityFactory *,unsigned short>::Node_t,unsigned short>,unsigned short> >::~CUtlRBTree<CUtlMap<char const *,IEntityFactory *,unsigned short>::Node_t,unsigned short,CUtlMap<char const *,IEntityFactory *,unsigned short>::CKeyLess,CUtlMemory<UtlRBTreeNode_t<CUtlMap<char const *,IEntityFactory *,unsigned short>::Node_t,unsigned short>,unsigned short> >
	pop	edi
	pop	esi
	pop	ebx
	mov	esp, ebp
	pop	ebp
	ret	0
??1?$CUtlMap@PBDPAVIEntityFactory@@G@@QAE@XZ ENDP	; CUtlMap<char const *,IEntityFactory *,unsigned short>::~CUtlMap<char const *,IEntityFactory *,unsigned short>
_TEXT	ENDS
; Function compile flags: /Odtp /ZI
; File d:\!diffusion 2020\source code 2022\client-server\game_shared\utlrbtree.h
;	COMDAT ?ResetDbgInfo@?$CUtlRBTree@UNode_t@?$CUtlMap@PBDPAVIEntityFactory@@G@@GVCKeyLess@2@V?$CUtlMemory@U?$UtlRBTreeNode_t@UNode_t@?$CUtlMap@PBDPAVIEntityFactory@@G@@G@@G@@@@IAEXXZ
_TEXT	SEGMENT
_this$ = -4						; size = 4
?ResetDbgInfo@?$CUtlRBTree@UNode_t@?$CUtlMap@PBDPAVIEntityFactory@@G@@GVCKeyLess@2@V?$CUtlMemory@U?$UtlRBTreeNode_t@UNode_t@?$CUtlMap@PBDPAVIEntityFactory@@G@@G@@G@@@@IAEXXZ PROC ; CUtlRBTree<CUtlMap<char const *,IEntityFactory *,unsigned short>::Node_t,unsigned short,CUtlMap<char const *,IEntityFactory *,unsigned short>::CKeyLess,CUtlMemory<UtlRBTreeNode_t<CUtlMap<char const *,IEntityFactory *,unsigned short>::Node_t,unsigned short>,unsigned short> >::ResetDbgInfo, COMDAT
; _this$ = ecx

; 293  : 	{

	push	ebp
	mov	ebp, esp
	sub	esp, 68					; 00000044H
	push	ebx
	push	esi
	push	edi
	mov	DWORD PTR _this$[ebp], ecx

; 294  : 		m_pElements = (Node_t*)m_Elements.Base();

	mov	ecx, DWORD PTR _this$[ebp]
	add	ecx, 4
	call	?Base@?$CUtlMemory@U?$UtlRBTreeNode_t@UNode_t@?$CUtlMap@PBDPAVIEntityFactory@@G@@G@@G@@QAEPAU?$UtlRBTreeNode_t@UNode_t@?$CUtlMap@PBDPAVIEntityFactory@@G@@G@@XZ ; CUtlMemory<UtlRBTreeNode_t<CUtlMap<char const *,IEntityFactory *,unsigned short>::Node_t,unsigned short>,unsigned short>::Base
	mov	ecx, DWORD PTR _this$[ebp]
	mov	DWORD PTR [ecx+24], eax

; 295  : 	}

	pop	edi
	pop	esi
	pop	ebx
	mov	esp, ebp
	pop	ebp
	ret	0
?ResetDbgInfo@?$CUtlRBTree@UNode_t@?$CUtlMap@PBDPAVIEntityFactory@@G@@GVCKeyLess@2@V?$CUtlMemory@U?$UtlRBTreeNode_t@UNode_t@?$CUtlMap@PBDPAVIEntityFactory@@G@@G@@G@@@@IAEXXZ ENDP ; CUtlRBTree<CUtlMap<char const *,IEntityFactory *,unsigned short>::Node_t,unsigned short,CUtlMap<char const *,IEntityFactory *,unsigned short>::CKeyLess,CUtlMemory<UtlRBTreeNode_t<CUtlMap<char const *,IEntityFactory *,unsigned short>::Node_t,unsigned short>,unsigned short> >::ResetDbgInfo
_TEXT	ENDS
; Function compile flags: /Odtp /ZI
; File d:\!diffusion 2020\source code 2022\client-server\game_shared\utlmemory.h
;	COMDAT ??9Iterator_t@?$CUtlMemory@U?$UtlRBTreeNode_t@UNode_t@?$CUtlMap@PBDPAVIEntityFactory@@G@@G@@G@@QBE_NV01@@Z
_TEXT	SEGMENT
tv68 = -72						; size = 4
_this$ = -4						; size = 4
_it$ = 8						; size = 2
??9Iterator_t@?$CUtlMemory@U?$UtlRBTreeNode_t@UNode_t@?$CUtlMap@PBDPAVIEntityFactory@@G@@G@@G@@QBE_NV01@@Z PROC ; CUtlMemory<UtlRBTreeNode_t<CUtlMap<char const *,IEntityFactory *,unsigned short>::Node_t,unsigned short>,unsigned short>::Iterator_t::operator!=, COMDAT
; _this$ = ecx

; 86   : 		bool operator!=( const Iterator_t it ) const	{ return index != it.index; }

	push	ebp
	mov	ebp, esp
	sub	esp, 72					; 00000048H
	push	ebx
	push	esi
	push	edi
	mov	DWORD PTR _this$[ebp], ecx
	mov	eax, DWORD PTR _this$[ebp]
	movzx	ecx, WORD PTR [eax]
	movzx	edx, WORD PTR _it$[ebp]
	cmp	ecx, edx
	je	SHORT $LN3@operator
	mov	DWORD PTR tv68[ebp], 1
	jmp	SHORT $LN4@operator
$LN3@operator:
	mov	DWORD PTR tv68[ebp], 0
$LN4@operator:
	mov	al, BYTE PTR tv68[ebp]
	pop	edi
	pop	esi
	pop	ebx
	mov	esp, ebp
	pop	ebp
	ret	4
??9Iterator_t@?$CUtlMemory@U?$UtlRBTreeNode_t@UNode_t@?$CUtlMap@PBDPAVIEntityFactory@@G@@G@@G@@QBE_NV01@@Z ENDP ; CUtlMemory<UtlRBTreeNode_t<CUtlMap<char const *,IEntityFactory *,unsigned short>::Node_t,unsigned short>,unsigned short>::Iterator_t::operator!=
_TEXT	ENDS
; Function compile flags: /Odtp /ZI
; File d:\!diffusion 2020\source code 2022\client-server\game_shared\utlmemory.h
;	COMDAT ??8Iterator_t@?$CUtlMemory@U?$UtlRBTreeNode_t@UNode_t@?$CUtlMap@PBDPAVIEntityFactory@@G@@G@@G@@QBE_NV01@@Z
_TEXT	SEGMENT
tv68 = -72						; size = 4
_this$ = -4						; size = 4
_it$ = 8						; size = 2
??8Iterator_t@?$CUtlMemory@U?$UtlRBTreeNode_t@UNode_t@?$CUtlMap@PBDPAVIEntityFactory@@G@@G@@G@@QBE_NV01@@Z PROC ; CUtlMemory<UtlRBTreeNode_t<CUtlMap<char const *,IEntityFactory *,unsigned short>::Node_t,unsigned short>,unsigned short>::Iterator_t::operator==, COMDAT
; _this$ = ecx

; 85   : 		bool operator==( const Iterator_t it ) const	{ return index == it.index; }

	push	ebp
	mov	ebp, esp
	sub	esp, 72					; 00000048H
	push	ebx
	push	esi
	push	edi
	mov	DWORD PTR _this$[ebp], ecx
	mov	eax, DWORD PTR _this$[ebp]
	movzx	ecx, WORD PTR [eax]
	movzx	edx, WORD PTR _it$[ebp]
	cmp	ecx, edx
	jne	SHORT $LN3@operator
	mov	DWORD PTR tv68[ebp], 1
	jmp	SHORT $LN4@operator
$LN3@operator:
	mov	DWORD PTR tv68[ebp], 0
$LN4@operator:
	mov	al, BYTE PTR tv68[ebp]
	pop	edi
	pop	esi
	pop	ebx
	mov	esp, ebp
	pop	ebp
	ret	4
??8Iterator_t@?$CUtlMemory@U?$UtlRBTreeNode_t@UNode_t@?$CUtlMap@PBDPAVIEntityFactory@@G@@G@@G@@QBE_NV01@@Z ENDP ; CUtlMemory<UtlRBTreeNode_t<CUtlMap<char const *,IEntityFactory *,unsigned short>::Node_t,unsigned short>,unsigned short>::Iterator_t::operator==
_TEXT	ENDS
; Function compile flags: /Odtp /ZI
; File d:\!diffusion 2020\source code 2022\client-server\game_shared\utlmemory.h
;	COMDAT ??0Iterator_t@?$CUtlMemory@U?$UtlRBTreeNode_t@UNode_t@?$CUtlMap@PBDPAVIEntityFactory@@G@@G@@G@@QAE@G@Z
_TEXT	SEGMENT
_this$ = -4						; size = 4
_i$ = 8							; size = 2
??0Iterator_t@?$CUtlMemory@U?$UtlRBTreeNode_t@UNode_t@?$CUtlMap@PBDPAVIEntityFactory@@G@@G@@G@@QAE@G@Z PROC ; CUtlMemory<UtlRBTreeNode_t<CUtlMap<char const *,IEntityFactory *,unsigned short>::Node_t,unsigned short>,unsigned short>::Iterator_t::Iterator_t, COMDAT
; _this$ = ecx

; 82   : 		Iterator_t( I i ) : index( i ) {}

	push	ebp
	mov	ebp, esp
	sub	esp, 68					; 00000044H
	push	ebx
	push	esi
	push	edi
	mov	DWORD PTR _this$[ebp], ecx
	mov	eax, DWORD PTR _this$[ebp]
	mov	cx, WORD PTR _i$[ebp]
	mov	WORD PTR [eax], cx
	mov	eax, DWORD PTR _this$[ebp]
	pop	edi
	pop	esi
	pop	ebx
	mov	esp, ebp
	pop	ebp
	ret	4
??0Iterator_t@?$CUtlMemory@U?$UtlRBTreeNode_t@UNode_t@?$CUtlMap@PBDPAVIEntityFactory@@G@@G@@G@@QAE@G@Z ENDP ; CUtlMemory<UtlRBTreeNode_t<CUtlMap<char const *,IEntityFactory *,unsigned short>::Node_t,unsigned short>,unsigned short>::Iterator_t::Iterator_t
_TEXT	ENDS
; Function compile flags: /Odtp /ZI
; File d:\!diffusion 2020\source code 2022\client-server\game_shared\utlmemory.h
;	COMDAT ?ValidateGrowSize@?$CUtlMemory@U?$UtlRBTreeNode_t@UNode_t@?$CUtlMap@PBDPAVIEntityFactory@@G@@G@@G@@IAEXXZ
_TEXT	SEGMENT
_this$ = -4						; size = 4
?ValidateGrowSize@?$CUtlMemory@U?$UtlRBTreeNode_t@UNode_t@?$CUtlMap@PBDPAVIEntityFactory@@G@@G@@G@@IAEXXZ PROC ; CUtlMemory<UtlRBTreeNode_t<CUtlMap<char const *,IEntityFactory *,unsigned short>::Node_t,unsigned short>,unsigned short>::ValidateGrowSize, COMDAT
; _this$ = ecx

; 148  : 	{

	push	ebp
	mov	ebp, esp
	sub	esp, 68					; 00000044H
	push	ebx
	push	esi
	push	edi
	mov	DWORD PTR _this$[ebp], ecx

; 149  : #ifdef _X360
; 150  : 		if ( m_nGrowSize && m_nGrowSize != EXTERNAL_BUFFER_MARKER )
; 151  : 		{
; 152  : 			// Max grow size at 128 bytes on XBOX
; 153  : 			const int MAX_GROW = 128;
; 154  : 			if ( m_nGrowSize * sizeof(T) > MAX_GROW )
; 155  : 			{
; 156  : 				m_nGrowSize = max( 1, MAX_GROW / sizeof(T) );
; 157  : 			}
; 158  : 		}
; 159  : #endif
; 160  : 	}

	pop	edi
	pop	esi
	pop	ebx
	mov	esp, ebp
	pop	ebp
	ret	0
?ValidateGrowSize@?$CUtlMemory@U?$UtlRBTreeNode_t@UNode_t@?$CUtlMap@PBDPAVIEntityFactory@@G@@G@@G@@IAEXXZ ENDP ; CUtlMemory<UtlRBTreeNode_t<CUtlMap<char const *,IEntityFactory *,unsigned short>::Node_t,unsigned short>,unsigned short>::ValidateGrowSize
_TEXT	ENDS
; Function compile flags: /Odtp /ZI
; File d:\!diffusion 2020\source code 2022\client-server\game_shared\utlmemory.h
;	COMDAT ?IsReadOnly@?$CUtlMemory@U?$UtlRBTreeNode_t@UNode_t@?$CUtlMap@PBDPAVIEntityFactory@@G@@G@@G@@QBE_NXZ
_TEXT	SEGMENT
tv66 = -72						; size = 4
_this$ = -4						; size = 4
?IsReadOnly@?$CUtlMemory@U?$UtlRBTreeNode_t@UNode_t@?$CUtlMap@PBDPAVIEntityFactory@@G@@G@@G@@QBE_NXZ PROC ; CUtlMemory<UtlRBTreeNode_t<CUtlMap<char const *,IEntityFactory *,unsigned short>::Node_t,unsigned short>,unsigned short>::IsReadOnly, COMDAT
; _this$ = ecx

; 467  : {

	push	ebp
	mov	ebp, esp
	sub	esp, 72					; 00000048H
	push	ebx
	push	esi
	push	edi
	mov	DWORD PTR _this$[ebp], ecx

; 468  : 	return (m_nGrowSize == EXTERNAL_CONST_BUFFER_MARKER);

	mov	eax, DWORD PTR _this$[ebp]
	cmp	DWORD PTR [eax+8], -2			; fffffffeH
	jne	SHORT $LN3@IsReadOnly
	mov	DWORD PTR tv66[ebp], 1
	jmp	SHORT $LN4@IsReadOnly
$LN3@IsReadOnly:
	mov	DWORD PTR tv66[ebp], 0
$LN4@IsReadOnly:
	mov	al, BYTE PTR tv66[ebp]

; 469  : }

	pop	edi
	pop	esi
	pop	ebx
	mov	esp, ebp
	pop	ebp
	ret	0
?IsReadOnly@?$CUtlMemory@U?$UtlRBTreeNode_t@UNode_t@?$CUtlMap@PBDPAVIEntityFactory@@G@@G@@G@@QBE_NXZ ENDP ; CUtlMemory<UtlRBTreeNode_t<CUtlMap<char const *,IEntityFactory *,unsigned short>::Node_t,unsigned short>,unsigned short>::IsReadOnly
_TEXT	ENDS
; Function compile flags: /Odtp /ZI
; File d:\!diffusion 2020\source code 2022\client-server\game_shared\utlmemory.h
;	COMDAT ?IsExternallyAllocated@?$CUtlMemory@U?$UtlRBTreeNode_t@UNode_t@?$CUtlMap@PBDPAVIEntityFactory@@G@@G@@G@@QBE_NXZ
_TEXT	SEGMENT
tv66 = -72						; size = 4
_this$ = -4						; size = 4
?IsExternallyAllocated@?$CUtlMemory@U?$UtlRBTreeNode_t@UNode_t@?$CUtlMap@PBDPAVIEntityFactory@@G@@G@@G@@QBE_NXZ PROC ; CUtlMemory<UtlRBTreeNode_t<CUtlMap<char const *,IEntityFactory *,unsigned short>::Node_t,unsigned short>,unsigned short>::IsExternallyAllocated, COMDAT
; _this$ = ecx

; 457  : {

	push	ebp
	mov	ebp, esp
	sub	esp, 72					; 00000048H
	push	ebx
	push	esi
	push	edi
	mov	DWORD PTR _this$[ebp], ecx

; 458  : 	return (m_nGrowSize < 0);

	mov	eax, DWORD PTR _this$[ebp]
	cmp	DWORD PTR [eax+8], 0
	jge	SHORT $LN3@IsExternal
	mov	DWORD PTR tv66[ebp], 1
	jmp	SHORT $LN4@IsExternal
$LN3@IsExternal:
	mov	DWORD PTR tv66[ebp], 0
$LN4@IsExternal:
	mov	al, BYTE PTR tv66[ebp]

; 459  : }

	pop	edi
	pop	esi
	pop	ebx
	mov	esp, ebp
	pop	ebp
	ret	0
?IsExternallyAllocated@?$CUtlMemory@U?$UtlRBTreeNode_t@UNode_t@?$CUtlMap@PBDPAVIEntityFactory@@G@@G@@G@@QBE_NXZ ENDP ; CUtlMemory<UtlRBTreeNode_t<CUtlMap<char const *,IEntityFactory *,unsigned short>::Node_t,unsigned short>,unsigned short>::IsExternallyAllocated
_TEXT	ENDS
; Function compile flags: /Odtp /ZI
; File d:\!diffusion 2020\source code 2022\client-server\game_shared\utlmemory.h
;	COMDAT ?Purge@?$CUtlMemory@U?$UtlRBTreeNode_t@UNode_t@?$CUtlMap@PBDPAVIEntityFactory@@G@@G@@G@@QAEXXZ
_TEXT	SEGMENT
_this$ = -4						; size = 4
?Purge@?$CUtlMemory@U?$UtlRBTreeNode_t@UNode_t@?$CUtlMap@PBDPAVIEntityFactory@@G@@G@@G@@QAEXXZ PROC ; CUtlMemory<UtlRBTreeNode_t<CUtlMap<char const *,IEntityFactory *,unsigned short>::Node_t,unsigned short>,unsigned short>::Purge, COMDAT
; _this$ = ecx

; 645  : {

	push	ebp
	mov	ebp, esp
	sub	esp, 68					; 00000044H
	push	ebx
	push	esi
	push	edi
	mov	DWORD PTR _this$[ebp], ecx

; 646  : 	if ( !IsExternallyAllocated() )

	mov	ecx, DWORD PTR _this$[ebp]
	call	?IsExternallyAllocated@?$CUtlMemory@U?$UtlRBTreeNode_t@UNode_t@?$CUtlMap@PBDPAVIEntityFactory@@G@@G@@G@@QBE_NXZ ; CUtlMemory<UtlRBTreeNode_t<CUtlMap<char const *,IEntityFactory *,unsigned short>::Node_t,unsigned short>,unsigned short>::IsExternallyAllocated
	movzx	eax, al
	test	eax, eax
	jne	SHORT $LN1@Purge

; 647  : 	{
; 648  : 		if (m_pMemory)

	mov	eax, DWORD PTR _this$[ebp]
	cmp	DWORD PTR [eax], 0
	je	SHORT $LN3@Purge

; 649  : 		{
; 650  : 			free( (void*)m_pMemory );

	mov	eax, DWORD PTR _this$[ebp]
	mov	ecx, DWORD PTR [eax]
	push	ecx
	call	_free
	add	esp, 4

; 651  : 			m_pMemory = 0;

	mov	eax, DWORD PTR _this$[ebp]
	mov	DWORD PTR [eax], 0
$LN3@Purge:

; 652  : 		}
; 653  : 		m_nAllocationCount = 0;

	mov	eax, DWORD PTR _this$[ebp]
	mov	DWORD PTR [eax+4], 0
$LN1@Purge:

; 654  : 	}
; 655  : }

	pop	edi
	pop	esi
	pop	ebx
	mov	esp, ebp
	pop	ebp
	ret	0
?Purge@?$CUtlMemory@U?$UtlRBTreeNode_t@UNode_t@?$CUtlMap@PBDPAVIEntityFactory@@G@@G@@G@@QAEXXZ ENDP ; CUtlMemory<UtlRBTreeNode_t<CUtlMap<char const *,IEntityFactory *,unsigned short>::Node_t,unsigned short>,unsigned short>::Purge
_TEXT	ENDS
; Function compile flags: /Odtp /ZI
; File d:\!diffusion 2020\source code 2022\client-server\game_shared\utlmemory.h
;	COMDAT ?Grow@?$CUtlMemory@U?$UtlRBTreeNode_t@UNode_t@?$CUtlMap@PBDPAVIEntityFactory@@G@@G@@G@@QAEXH@Z
_TEXT	SEGMENT
_nAllocationRequested$ = -8				; size = 4
_this$ = -4						; size = 4
_num$ = 8						; size = 4
?Grow@?$CUtlMemory@U?$UtlRBTreeNode_t@UNode_t@?$CUtlMap@PBDPAVIEntityFactory@@G@@G@@G@@QAEXH@Z PROC ; CUtlMemory<UtlRBTreeNode_t<CUtlMap<char const *,IEntityFactory *,unsigned short>::Node_t,unsigned short>,unsigned short>::Grow, COMDAT
; _this$ = ecx

; 560  : {

	push	ebp
	mov	ebp, esp
	sub	esp, 72					; 00000048H
	push	ebx
	push	esi
	push	edi
	mov	DWORD PTR _this$[ebp], ecx

; 561  : 	assert( num > 0 );

	cmp	DWORD PTR _num$[ebp], 0
	jg	SHORT $LN12@Grow
	push	561					; 00000231H
	push	OFFSET ??_C@_1JE@CIIIAKCN@?$AAd?$AA?3?$AA?2?$AA?$CB?$AAd?$AAi?$AAf?$AAf?$AAu?$AAs?$AAi?$AAo?$AAn?$AA?5?$AA2?$AA0?$AA2?$AA0?$AA?2?$AAs?$AAo?$AAu?$AAr?$AAc?$AAe?$AA?5?$AAc?$AAo?$AAd?$AAe?$AA?5?$AA2@
	push	OFFSET ??_C@_1BA@PKCLMAEA@?$AAn?$AAu?$AAm?$AA?5?$AA?$DO?$AA?5?$AA0?$AA?$AA@
	call	__wassert
	add	esp, 12					; 0000000cH
$LN12@Grow:

; 562  : 
; 563  : 	if ( IsExternallyAllocated() )

	mov	ecx, DWORD PTR _this$[ebp]
	call	?IsExternallyAllocated@?$CUtlMemory@U?$UtlRBTreeNode_t@UNode_t@?$CUtlMap@PBDPAVIEntityFactory@@G@@G@@G@@QBE_NXZ ; CUtlMemory<UtlRBTreeNode_t<CUtlMap<char const *,IEntityFactory *,unsigned short>::Node_t,unsigned short>,unsigned short>::IsExternallyAllocated
	movzx	eax, al
	test	eax, eax
	je	SHORT $LN4@Grow

; 564  : 	{
; 565  : 		// Can't grow a buffer whose memory was externally allocated 
; 566  : 		assert(0);

	xor	eax, eax
	jne	SHORT $LN13@Grow
	push	566					; 00000236H
	push	OFFSET ??_C@_1JE@CIIIAKCN@?$AAd?$AA?3?$AA?2?$AA?$CB?$AAd?$AAi?$AAf?$AAf?$AAu?$AAs?$AAi?$AAo?$AAn?$AA?5?$AA2?$AA0?$AA2?$AA0?$AA?2?$AAs?$AAo?$AAu?$AAr?$AAc?$AAe?$AA?5?$AAc?$AAo?$AAd?$AAe?$AA?5?$AA2@
	push	OFFSET ??_C@_13COJANIEC@?$AA0?$AA?$AA@
	call	__wassert
	add	esp, 12					; 0000000cH
$LN13@Grow:

; 567  : 		return;

	jmp	$LN1@Grow
$LN4@Grow:

; 568  : 	}
; 569  : 
; 570  : 	// Make sure we have at least numallocated + num allocations.
; 571  : 	// Use the grow rules specified for this memory (in m_nGrowSize)
; 572  : 	int nAllocationRequested = m_nAllocationCount + num;

	mov	eax, DWORD PTR _this$[ebp]
	mov	ecx, DWORD PTR [eax+4]
	add	ecx, DWORD PTR _num$[ebp]
	mov	DWORD PTR _nAllocationRequested$[ebp], ecx

; 573  : 
; 574  : 	m_nAllocationCount = UtlMemory_CalcNewAllocationCount( m_nAllocationCount, m_nGrowSize, nAllocationRequested, sizeof(T) );

	push	16					; 00000010H
	mov	eax, DWORD PTR _nAllocationRequested$[ebp]
	push	eax
	mov	ecx, DWORD PTR _this$[ebp]
	mov	edx, DWORD PTR [ecx+8]
	push	edx
	mov	eax, DWORD PTR _this$[ebp]
	mov	ecx, DWORD PTR [eax+4]
	push	ecx
	call	?UtlMemory_CalcNewAllocationCount@@YAHHHHH@Z ; UtlMemory_CalcNewAllocationCount
	add	esp, 16					; 00000010H
	mov	edx, DWORD PTR _this$[ebp]
	mov	DWORD PTR [edx+4], eax

; 575  : 
; 576  : 	// if m_nAllocationRequested wraps index type I, recalculate
; 577  : 	if ( ( int )( I )m_nAllocationCount < nAllocationRequested )

	mov	eax, DWORD PTR _this$[ebp]
	movzx	ecx, WORD PTR [eax+4]
	cmp	ecx, DWORD PTR _nAllocationRequested$[ebp]
	jge	SHORT $LN5@Grow

; 578  : 	{
; 579  : 		if ( ( int )( I )m_nAllocationCount == 0 && ( int )( I )( m_nAllocationCount - 1 ) >= nAllocationRequested )

	mov	eax, DWORD PTR _this$[ebp]
	movzx	ecx, WORD PTR [eax+4]
	test	ecx, ecx
	jne	SHORT $LN6@Grow
	mov	eax, DWORD PTR _this$[ebp]
	mov	ecx, DWORD PTR [eax+4]
	sub	ecx, 1
	movzx	edx, cx
	cmp	edx, DWORD PTR _nAllocationRequested$[ebp]
	jl	SHORT $LN6@Grow

; 580  : 		{
; 581  : 			--m_nAllocationCount; // deal w/ the common case of m_nAllocationCount == MAX_USHORT + 1

	mov	eax, DWORD PTR _this$[ebp]
	mov	ecx, DWORD PTR [eax+4]
	sub	ecx, 1
	mov	edx, DWORD PTR _this$[ebp]
	mov	DWORD PTR [edx+4], ecx

; 582  : 		}
; 583  : 		else

	jmp	SHORT $LN5@Grow
$LN6@Grow:

; 584  : 		{
; 585  : 			if ( ( int )( I )nAllocationRequested != nAllocationRequested )

	movzx	eax, WORD PTR _nAllocationRequested$[ebp]
	cmp	eax, DWORD PTR _nAllocationRequested$[ebp]
	je	SHORT $LN2@Grow

; 586  : 			{
; 587  : 				// we've been asked to grow memory to a size s.t. the index type can't address the requested amount of memory
; 588  : 				assert( 0 );

	xor	eax, eax
	jne	SHORT $LN14@Grow
	push	588					; 0000024cH
	push	OFFSET ??_C@_1JE@CIIIAKCN@?$AAd?$AA?3?$AA?2?$AA?$CB?$AAd?$AAi?$AAf?$AAf?$AAu?$AAs?$AAi?$AAo?$AAn?$AA?5?$AA2?$AA0?$AA2?$AA0?$AA?2?$AAs?$AAo?$AAu?$AAr?$AAc?$AAe?$AA?5?$AAc?$AAo?$AAd?$AAe?$AA?5?$AA2@
	push	OFFSET ??_C@_13COJANIEC@?$AA0?$AA?$AA@
	call	__wassert
	add	esp, 12					; 0000000cH
$LN14@Grow:

; 589  : 				return;

	jmp	$LN1@Grow
$LN2@Grow:

; 590  : 			}
; 591  : 			while ( ( int )( I )m_nAllocationCount < nAllocationRequested )

	mov	eax, DWORD PTR _this$[ebp]
	movzx	ecx, WORD PTR [eax+4]
	cmp	ecx, DWORD PTR _nAllocationRequested$[ebp]
	jge	SHORT $LN5@Grow

; 592  : 			{
; 593  : 				m_nAllocationCount = ( m_nAllocationCount + nAllocationRequested ) / 2;

	mov	eax, DWORD PTR _this$[ebp]
	mov	eax, DWORD PTR [eax+4]
	add	eax, DWORD PTR _nAllocationRequested$[ebp]
	cdq
	sub	eax, edx
	sar	eax, 1
	mov	ecx, DWORD PTR _this$[ebp]
	mov	DWORD PTR [ecx+4], eax

; 594  : 			}

	jmp	SHORT $LN2@Grow
$LN5@Grow:

; 595  : 		}
; 596  : 	}
; 597  : 
; 598  : 	if (m_pMemory)

	mov	eax, DWORD PTR _this$[ebp]
	cmp	DWORD PTR [eax], 0
	je	SHORT $LN9@Grow

; 599  : 	{
; 600  : 		m_pMemory = (T*)realloc( m_pMemory, m_nAllocationCount * sizeof(T) );

	mov	eax, DWORD PTR _this$[ebp]
	mov	ecx, DWORD PTR [eax+4]
	shl	ecx, 4
	push	ecx
	mov	edx, DWORD PTR _this$[ebp]
	mov	eax, DWORD PTR [edx]
	push	eax
	call	_realloc
	add	esp, 8
	mov	ecx, DWORD PTR _this$[ebp]
	mov	DWORD PTR [ecx], eax

; 601  : 		assert( m_pMemory );

	mov	eax, DWORD PTR _this$[ebp]
	cmp	DWORD PTR [eax], 0
	jne	SHORT $LN15@Grow
	push	601					; 00000259H
	push	OFFSET ??_C@_1JE@CIIIAKCN@?$AAd?$AA?3?$AA?2?$AA?$CB?$AAd?$AAi?$AAf?$AAf?$AAu?$AAs?$AAi?$AAo?$AAn?$AA?5?$AA2?$AA0?$AA2?$AA0?$AA?2?$AAs?$AAo?$AAu?$AAr?$AAc?$AAe?$AA?5?$AAc?$AAo?$AAd?$AAe?$AA?5?$AA2@
	push	OFFSET ??_C@_1BE@OPPFELHC@?$AAm?$AA_?$AAp?$AAM?$AAe?$AAm?$AAo?$AAr?$AAy?$AA?$AA@
	call	__wassert
	add	esp, 12					; 0000000cH
$LN15@Grow:

; 602  : 	}
; 603  : 	else

	jmp	SHORT $LN1@Grow
$LN9@Grow:

; 604  : 	{
; 605  : 		m_pMemory = (T*)malloc( m_nAllocationCount * sizeof(T) );

	mov	eax, DWORD PTR _this$[ebp]
	mov	ecx, DWORD PTR [eax+4]
	shl	ecx, 4
	push	ecx
	call	_malloc
	add	esp, 4
	mov	edx, DWORD PTR _this$[ebp]
	mov	DWORD PTR [edx], eax

; 606  : 		assert( m_pMemory );

	mov	eax, DWORD PTR _this$[ebp]
	cmp	DWORD PTR [eax], 0
	jne	SHORT $LN1@Grow
	push	606					; 0000025eH
	push	OFFSET ??_C@_1JE@CIIIAKCN@?$AAd?$AA?3?$AA?2?$AA?$CB?$AAd?$AAi?$AAf?$AAf?$AAu?$AAs?$AAi?$AAo?$AAn?$AA?5?$AA2?$AA0?$AA2?$AA0?$AA?2?$AAs?$AAo?$AAu?$AAr?$AAc?$AAe?$AA?5?$AAc?$AAo?$AAd?$AAe?$AA?5?$AA2@
	push	OFFSET ??_C@_1BE@OPPFELHC@?$AAm?$AA_?$AAp?$AAM?$AAe?$AAm?$AAo?$AAr?$AAy?$AA?$AA@
	call	__wassert
	add	esp, 12					; 0000000cH
$LN1@Grow:

; 607  : 	}
; 608  : }

	pop	edi
	pop	esi
	pop	ebx
	mov	esp, ebp
	pop	ebp
	ret	4
?Grow@?$CUtlMemory@U?$UtlRBTreeNode_t@UNode_t@?$CUtlMap@PBDPAVIEntityFactory@@G@@G@@G@@QAEXH@Z ENDP ; CUtlMemory<UtlRBTreeNode_t<CUtlMap<char const *,IEntityFactory *,unsigned short>::Node_t,unsigned short>,unsigned short>::Grow
_TEXT	ENDS
; Function compile flags: /Odtp /ZI
; File d:\!diffusion 2020\source code 2022\client-server\game_shared\utlmemory.h
;	COMDAT ?Base@?$CUtlMemory@U?$UtlRBTreeNode_t@UNode_t@?$CUtlMap@PBDPAVIEntityFactory@@G@@G@@G@@QAEPAU?$UtlRBTreeNode_t@UNode_t@?$CUtlMap@PBDPAVIEntityFactory@@G@@G@@XZ
_TEXT	SEGMENT
_this$ = -4						; size = 4
?Base@?$CUtlMemory@U?$UtlRBTreeNode_t@UNode_t@?$CUtlMap@PBDPAVIEntityFactory@@G@@G@@G@@QAEPAU?$UtlRBTreeNode_t@UNode_t@?$CUtlMap@PBDPAVIEntityFactory@@G@@G@@XZ PROC ; CUtlMemory<UtlRBTreeNode_t<CUtlMap<char const *,IEntityFactory *,unsigned short>::Node_t,unsigned short>,unsigned short>::Base, COMDAT
; _this$ = ecx

; 487  : {

	push	ebp
	mov	ebp, esp
	sub	esp, 68					; 00000044H
	push	ebx
	push	esi
	push	edi
	mov	DWORD PTR _this$[ebp], ecx

; 488  : 	assert( !IsReadOnly() );

	mov	ecx, DWORD PTR _this$[ebp]
	call	?IsReadOnly@?$CUtlMemory@U?$UtlRBTreeNode_t@UNode_t@?$CUtlMap@PBDPAVIEntityFactory@@G@@G@@G@@QBE_NXZ ; CUtlMemory<UtlRBTreeNode_t<CUtlMap<char const *,IEntityFactory *,unsigned short>::Node_t,unsigned short>,unsigned short>::IsReadOnly
	movzx	eax, al
	test	eax, eax
	je	SHORT $LN3@Base
	push	488					; 000001e8H
	push	OFFSET ??_C@_1JE@CIIIAKCN@?$AAd?$AA?3?$AA?2?$AA?$CB?$AAd?$AAi?$AAf?$AAf?$AAu?$AAs?$AAi?$AAo?$AAn?$AA?5?$AA2?$AA0?$AA2?$AA0?$AA?2?$AAs?$AAo?$AAu?$AAr?$AAc?$AAe?$AA?5?$AAc?$AAo?$AAd?$AAe?$AA?5?$AA2@
	push	OFFSET ??_C@_1BM@PFNFCCHH@?$AA?$CB?$AAI?$AAs?$AAR?$AAe?$AAa?$AAd?$AAO?$AAn?$AAl?$AAy?$AA?$CI?$AA?$CJ?$AA?$AA@
	call	__wassert
	add	esp, 12					; 0000000cH
$LN3@Base:

; 489  : 	return m_pMemory;

	mov	eax, DWORD PTR _this$[ebp]
	mov	eax, DWORD PTR [eax]

; 490  : }

	pop	edi
	pop	esi
	pop	ebx
	mov	esp, ebp
	pop	ebp
	ret	0
?Base@?$CUtlMemory@U?$UtlRBTreeNode_t@UNode_t@?$CUtlMap@PBDPAVIEntityFactory@@G@@G@@G@@QAEPAU?$UtlRBTreeNode_t@UNode_t@?$CUtlMap@PBDPAVIEntityFactory@@G@@G@@XZ ENDP ; CUtlMemory<UtlRBTreeNode_t<CUtlMap<char const *,IEntityFactory *,unsigned short>::Node_t,unsigned short>,unsigned short>::Base
_TEXT	ENDS
; Function compile flags: /Odtp /ZI
; File d:\!diffusion 2020\source code 2022\client-server\game_shared\utlmemory.h
;	COMDAT ?InvalidIndex@?$CUtlMemory@U?$UtlRBTreeNode_t@UNode_t@?$CUtlMap@PBDPAVIEntityFactory@@G@@G@@G@@SAGXZ
_TEXT	SEGMENT
?InvalidIndex@?$CUtlMemory@U?$UtlRBTreeNode_t@UNode_t@?$CUtlMap@PBDPAVIEntityFactory@@G@@G@@G@@SAGXZ PROC ; CUtlMemory<UtlRBTreeNode_t<CUtlMap<char const *,IEntityFactory *,unsigned short>::Node_t,unsigned short>,unsigned short>::InvalidIndex, COMDAT

; 103  : 	static I InvalidIndex() { return ( I )-1; }

	push	ebp
	mov	ebp, esp
	sub	esp, 64					; 00000040H
	push	ebx
	push	esi
	push	edi
	mov	eax, 65535				; 0000ffffH
	pop	edi
	pop	esi
	pop	ebx
	mov	esp, ebp
	pop	ebp
	ret	0
?InvalidIndex@?$CUtlMemory@U?$UtlRBTreeNode_t@UNode_t@?$CUtlMap@PBDPAVIEntityFactory@@G@@G@@G@@SAGXZ ENDP ; CUtlMemory<UtlRBTreeNode_t<CUtlMap<char const *,IEntityFactory *,unsigned short>::Node_t,unsigned short>,unsigned short>::InvalidIndex
_TEXT	ENDS
; Function compile flags: /Odtp /ZI
; File d:\!diffusion 2020\source code 2022\client-server\game_shared\utlmemory.h
;	COMDAT ?IsIdxValid@?$CUtlMemory@U?$UtlRBTreeNode_t@UNode_t@?$CUtlMap@PBDPAVIEntityFactory@@G@@G@@G@@QBE_NG@Z
_TEXT	SEGMENT
tv69 = -72						; size = 4
_this$ = -4						; size = 4
_i$ = 8							; size = 2
?IsIdxValid@?$CUtlMemory@U?$UtlRBTreeNode_t@UNode_t@?$CUtlMap@PBDPAVIEntityFactory@@G@@G@@G@@QBE_NG@Z PROC ; CUtlMemory<UtlRBTreeNode_t<CUtlMap<char const *,IEntityFactory *,unsigned short>::Node_t,unsigned short>,unsigned short>::IsIdxValid, COMDAT
; _this$ = ecx

; 520  : {

	push	ebp
	mov	ebp, esp
	sub	esp, 72					; 00000048H
	push	ebx
	push	esi
	push	edi
	mov	DWORD PTR _this$[ebp], ecx

; 521  : 	return ( ((int) i) >= 0 ) && ( ((int) i) < m_nAllocationCount );

	movzx	eax, WORD PTR _i$[ebp]
	test	eax, eax
	jl	SHORT $LN3@IsIdxValid
	movzx	ecx, WORD PTR _i$[ebp]
	mov	edx, DWORD PTR _this$[ebp]
	cmp	ecx, DWORD PTR [edx+4]
	jge	SHORT $LN3@IsIdxValid
	mov	DWORD PTR tv69[ebp], 1
	jmp	SHORT $LN4@IsIdxValid
$LN3@IsIdxValid:
	mov	DWORD PTR tv69[ebp], 0
$LN4@IsIdxValid:
	mov	al, BYTE PTR tv69[ebp]

; 522  : }

	pop	edi
	pop	esi
	pop	ebx
	mov	esp, ebp
	pop	ebp
	ret	4
?IsIdxValid@?$CUtlMemory@U?$UtlRBTreeNode_t@UNode_t@?$CUtlMap@PBDPAVIEntityFactory@@G@@G@@G@@QBE_NG@Z ENDP ; CUtlMemory<UtlRBTreeNode_t<CUtlMap<char const *,IEntityFactory *,unsigned short>::Node_t,unsigned short>,unsigned short>::IsIdxValid
_TEXT	ENDS
; Function compile flags: /Odtp /ZI
; File d:\!diffusion 2020\source code 2022\client-server\game_shared\utlmemory.h
;	COMDAT ??A?$CUtlMemory@U?$UtlRBTreeNode_t@UNode_t@?$CUtlMap@PBDPAVIEntityFactory@@G@@G@@G@@QBEABU?$UtlRBTreeNode_t@UNode_t@?$CUtlMap@PBDPAVIEntityFactory@@G@@G@@G@Z
_TEXT	SEGMENT
_this$ = -4						; size = 4
_i$ = 8							; size = 2
??A?$CUtlMemory@U?$UtlRBTreeNode_t@UNode_t@?$CUtlMap@PBDPAVIEntityFactory@@G@@G@@G@@QBEABU?$UtlRBTreeNode_t@UNode_t@?$CUtlMap@PBDPAVIEntityFactory@@G@@G@@G@Z PROC ; CUtlMemory<UtlRBTreeNode_t<CUtlMap<char const *,IEntityFactory *,unsigned short>::Node_t,unsigned short>,unsigned short>::operator[], COMDAT
; _this$ = ecx

; 431  : {

	push	ebp
	mov	ebp, esp
	sub	esp, 68					; 00000044H
	push	ebx
	push	esi
	push	edi
	mov	DWORD PTR _this$[ebp], ecx

; 432  : 	assert( IsIdxValid(i) );

	movzx	eax, WORD PTR _i$[ebp]
	push	eax
	mov	ecx, DWORD PTR _this$[ebp]
	call	?IsIdxValid@?$CUtlMemory@U?$UtlRBTreeNode_t@UNode_t@?$CUtlMap@PBDPAVIEntityFactory@@G@@G@@G@@QBE_NG@Z ; CUtlMemory<UtlRBTreeNode_t<CUtlMap<char const *,IEntityFactory *,unsigned short>::Node_t,unsigned short>,unsigned short>::IsIdxValid
	movzx	ecx, al
	test	ecx, ecx
	jne	SHORT $LN3@operator
	push	432					; 000001b0H
	push	OFFSET ??_C@_1JE@CIIIAKCN@?$AAd?$AA?3?$AA?2?$AA?$CB?$AAd?$AAi?$AAf?$AAf?$AAu?$AAs?$AAi?$AAo?$AAn?$AA?5?$AA2?$AA0?$AA2?$AA0?$AA?2?$AAs?$AAo?$AAu?$AAr?$AAc?$AAe?$AA?5?$AAc?$AAo?$AAd?$AAe?$AA?5?$AA2@
	push	OFFSET ??_C@_1BM@CKILBAKK@?$AAI?$AAs?$AAI?$AAd?$AAx?$AAV?$AAa?$AAl?$AAi?$AAd?$AA?$CI?$AAi?$AA?$CJ?$AA?$AA@
	call	__wassert
	add	esp, 12					; 0000000cH
$LN3@operator:

; 433  : 	return m_pMemory[i];

	movzx	eax, WORD PTR _i$[ebp]
	shl	eax, 4
	mov	ecx, DWORD PTR _this$[ebp]
	add	eax, DWORD PTR [ecx]

; 434  : }

	pop	edi
	pop	esi
	pop	ebx
	mov	esp, ebp
	pop	ebp
	ret	4
??A?$CUtlMemory@U?$UtlRBTreeNode_t@UNode_t@?$CUtlMap@PBDPAVIEntityFactory@@G@@G@@G@@QBEABU?$UtlRBTreeNode_t@UNode_t@?$CUtlMap@PBDPAVIEntityFactory@@G@@G@@G@Z ENDP ; CUtlMemory<UtlRBTreeNode_t<CUtlMap<char const *,IEntityFactory *,unsigned short>::Node_t,unsigned short>,unsigned short>::operator[]
_TEXT	ENDS
; Function compile flags: /Odtp /ZI
; File d:\!diffusion 2020\source code 2022\client-server\game_shared\utlmemory.h
;	COMDAT ??A?$CUtlMemory@U?$UtlRBTreeNode_t@UNode_t@?$CUtlMap@PBDPAVIEntityFactory@@G@@G@@G@@QAEAAU?$UtlRBTreeNode_t@UNode_t@?$CUtlMap@PBDPAVIEntityFactory@@G@@G@@G@Z
_TEXT	SEGMENT
_this$ = -4						; size = 4
_i$ = 8							; size = 2
??A?$CUtlMemory@U?$UtlRBTreeNode_t@UNode_t@?$CUtlMap@PBDPAVIEntityFactory@@G@@G@@G@@QAEAAU?$UtlRBTreeNode_t@UNode_t@?$CUtlMap@PBDPAVIEntityFactory@@G@@G@@G@Z PROC ; CUtlMemory<UtlRBTreeNode_t<CUtlMap<char const *,IEntityFactory *,unsigned short>::Node_t,unsigned short>,unsigned short>::operator[], COMDAT
; _this$ = ecx

; 423  : {

	push	ebp
	mov	ebp, esp
	sub	esp, 68					; 00000044H
	push	ebx
	push	esi
	push	edi
	mov	DWORD PTR _this$[ebp], ecx

; 424  : 	assert( !IsReadOnly() );

	mov	ecx, DWORD PTR _this$[ebp]
	call	?IsReadOnly@?$CUtlMemory@U?$UtlRBTreeNode_t@UNode_t@?$CUtlMap@PBDPAVIEntityFactory@@G@@G@@G@@QBE_NXZ ; CUtlMemory<UtlRBTreeNode_t<CUtlMap<char const *,IEntityFactory *,unsigned short>::Node_t,unsigned short>,unsigned short>::IsReadOnly
	movzx	eax, al
	test	eax, eax
	je	SHORT $LN3@operator
	push	424					; 000001a8H
	push	OFFSET ??_C@_1JE@CIIIAKCN@?$AAd?$AA?3?$AA?2?$AA?$CB?$AAd?$AAi?$AAf?$AAf?$AAu?$AAs?$AAi?$AAo?$AAn?$AA?5?$AA2?$AA0?$AA2?$AA0?$AA?2?$AAs?$AAo?$AAu?$AAr?$AAc?$AAe?$AA?5?$AAc?$AAo?$AAd?$AAe?$AA?5?$AA2@
	push	OFFSET ??_C@_1BM@PFNFCCHH@?$AA?$CB?$AAI?$AAs?$AAR?$AAe?$AAa?$AAd?$AAO?$AAn?$AAl?$AAy?$AA?$CI?$AA?$CJ?$AA?$AA@
	call	__wassert
	add	esp, 12					; 0000000cH
$LN3@operator:

; 425  : 	assert( IsIdxValid(i) );

	movzx	eax, WORD PTR _i$[ebp]
	push	eax
	mov	ecx, DWORD PTR _this$[ebp]
	call	?IsIdxValid@?$CUtlMemory@U?$UtlRBTreeNode_t@UNode_t@?$CUtlMap@PBDPAVIEntityFactory@@G@@G@@G@@QBE_NG@Z ; CUtlMemory<UtlRBTreeNode_t<CUtlMap<char const *,IEntityFactory *,unsigned short>::Node_t,unsigned short>,unsigned short>::IsIdxValid
	movzx	ecx, al
	test	ecx, ecx
	jne	SHORT $LN4@operator
	push	425					; 000001a9H
	push	OFFSET ??_C@_1JE@CIIIAKCN@?$AAd?$AA?3?$AA?2?$AA?$CB?$AAd?$AAi?$AAf?$AAf?$AAu?$AAs?$AAi?$AAo?$AAn?$AA?5?$AA2?$AA0?$AA2?$AA0?$AA?2?$AAs?$AAo?$AAu?$AAr?$AAc?$AAe?$AA?5?$AAc?$AAo?$AAd?$AAe?$AA?5?$AA2@
	push	OFFSET ??_C@_1BM@CKILBAKK@?$AAI?$AAs?$AAI?$AAd?$AAx?$AAV?$AAa?$AAl?$AAi?$AAd?$AA?$CI?$AAi?$AA?$CJ?$AA?$AA@
	call	__wassert
	add	esp, 12					; 0000000cH
$LN4@operator:

; 426  : 	return m_pMemory[i];

	movzx	eax, WORD PTR _i$[ebp]
	shl	eax, 4
	mov	ecx, DWORD PTR _this$[ebp]
	add	eax, DWORD PTR [ecx]

; 427  : }

	pop	edi
	pop	esi
	pop	ebx
	mov	esp, ebp
	pop	ebp
	ret	4
??A?$CUtlMemory@U?$UtlRBTreeNode_t@UNode_t@?$CUtlMap@PBDPAVIEntityFactory@@G@@G@@G@@QAEAAU?$UtlRBTreeNode_t@UNode_t@?$CUtlMap@PBDPAVIEntityFactory@@G@@G@@G@Z ENDP ; CUtlMemory<UtlRBTreeNode_t<CUtlMap<char const *,IEntityFactory *,unsigned short>::Node_t,unsigned short>,unsigned short>::operator[]
_TEXT	ENDS
; Function compile flags: /Odtp /ZI
; File d:\!diffusion 2020\source code 2022\client-server\game_shared\utlmemory.h
;	COMDAT ?InvalidIterator@?$CUtlMemory@U?$UtlRBTreeNode_t@UNode_t@?$CUtlMap@PBDPAVIEntityFactory@@G@@G@@G@@QBE?AVIterator_t@1@XZ
_TEXT	SEGMENT
_this$ = -4						; size = 4
___$ReturnUdt$ = 8					; size = 4
?InvalidIterator@?$CUtlMemory@U?$UtlRBTreeNode_t@UNode_t@?$CUtlMap@PBDPAVIEntityFactory@@G@@G@@G@@QBE?AVIterator_t@1@XZ PROC ; CUtlMemory<UtlRBTreeNode_t<CUtlMap<char const *,IEntityFactory *,unsigned short>::Node_t,unsigned short>,unsigned short>::InvalidIterator, COMDAT
; _this$ = ecx

; 93   : 	Iterator_t InvalidIterator() const					{ return Iterator_t( InvalidIndex() ); }

	push	ebp
	mov	ebp, esp
	sub	esp, 68					; 00000044H
	push	ebx
	push	esi
	push	edi
	mov	DWORD PTR _this$[ebp], ecx
	call	?InvalidIndex@?$CUtlMemory@U?$UtlRBTreeNode_t@UNode_t@?$CUtlMap@PBDPAVIEntityFactory@@G@@G@@G@@SAGXZ ; CUtlMemory<UtlRBTreeNode_t<CUtlMap<char const *,IEntityFactory *,unsigned short>::Node_t,unsigned short>,unsigned short>::InvalidIndex
	movzx	eax, ax
	push	eax
	mov	ecx, DWORD PTR ___$ReturnUdt$[ebp]
	call	??0Iterator_t@?$CUtlMemory@U?$UtlRBTreeNode_t@UNode_t@?$CUtlMap@PBDPAVIEntityFactory@@G@@G@@G@@QAE@G@Z ; CUtlMemory<UtlRBTreeNode_t<CUtlMap<char const *,IEntityFactory *,unsigned short>::Node_t,unsigned short>,unsigned short>::Iterator_t::Iterator_t
	mov	eax, DWORD PTR ___$ReturnUdt$[ebp]
	pop	edi
	pop	esi
	pop	ebx
	mov	esp, ebp
	pop	ebp
	ret	4
?InvalidIterator@?$CUtlMemory@U?$UtlRBTreeNode_t@UNode_t@?$CUtlMap@PBDPAVIEntityFactory@@G@@G@@G@@QBE?AVIterator_t@1@XZ ENDP ; CUtlMemory<UtlRBTreeNode_t<CUtlMap<char const *,IEntityFactory *,unsigned short>::Node_t,unsigned short>,unsigned short>::InvalidIterator
_TEXT	ENDS
; Function compile flags: /Odtp /ZI
; File d:\!diffusion 2020\source code 2022\client-server\game_shared\utlmemory.h
;	COMDAT ?IsValidIterator@?$CUtlMemory@U?$UtlRBTreeNode_t@UNode_t@?$CUtlMap@PBDPAVIEntityFactory@@G@@G@@G@@QBE_NABVIterator_t@1@@Z
_TEXT	SEGMENT
_this$ = -4						; size = 4
_it$ = 8						; size = 4
?IsValidIterator@?$CUtlMemory@U?$UtlRBTreeNode_t@UNode_t@?$CUtlMap@PBDPAVIEntityFactory@@G@@G@@G@@QBE_NABVIterator_t@1@@Z PROC ; CUtlMemory<UtlRBTreeNode_t<CUtlMap<char const *,IEntityFactory *,unsigned short>::Node_t,unsigned short>,unsigned short>::IsValidIterator, COMDAT
; _this$ = ecx

; 92   : 	bool IsValidIterator( const Iterator_t &it ) const	{ return IsIdxValid( it.index ); }

	push	ebp
	mov	ebp, esp
	sub	esp, 68					; 00000044H
	push	ebx
	push	esi
	push	edi
	mov	DWORD PTR _this$[ebp], ecx
	mov	eax, DWORD PTR _it$[ebp]
	movzx	ecx, WORD PTR [eax]
	push	ecx
	mov	ecx, DWORD PTR _this$[ebp]
	call	?IsIdxValid@?$CUtlMemory@U?$UtlRBTreeNode_t@UNode_t@?$CUtlMap@PBDPAVIEntityFactory@@G@@G@@G@@QBE_NG@Z ; CUtlMemory<UtlRBTreeNode_t<CUtlMap<char const *,IEntityFactory *,unsigned short>::Node_t,unsigned short>,unsigned short>::IsIdxValid
	pop	edi
	pop	esi
	pop	ebx
	mov	esp, ebp
	pop	ebp
	ret	4
?IsValidIterator@?$CUtlMemory@U?$UtlRBTreeNode_t@UNode_t@?$CUtlMap@PBDPAVIEntityFactory@@G@@G@@G@@QBE_NABVIterator_t@1@@Z ENDP ; CUtlMemory<UtlRBTreeNode_t<CUtlMap<char const *,IEntityFactory *,unsigned short>::Node_t,unsigned short>,unsigned short>::IsValidIterator
_TEXT	ENDS
; Function compile flags: /Odtp /ZI
; File d:\!diffusion 2020\source code 2022\client-server\game_shared\utlmemory.h
;	COMDAT ?IsIdxAfter@?$CUtlMemory@U?$UtlRBTreeNode_t@UNode_t@?$CUtlMap@PBDPAVIEntityFactory@@G@@G@@G@@QBE_NGABVIterator_t@1@@Z
_TEXT	SEGMENT
tv68 = -72						; size = 4
_this$ = -4						; size = 4
_i$ = 8							; size = 2
_it$ = 12						; size = 4
?IsIdxAfter@?$CUtlMemory@U?$UtlRBTreeNode_t@UNode_t@?$CUtlMap@PBDPAVIEntityFactory@@G@@G@@G@@QBE_NGABVIterator_t@1@@Z PROC ; CUtlMemory<UtlRBTreeNode_t<CUtlMap<char const *,IEntityFactory *,unsigned short>::Node_t,unsigned short>,unsigned short>::IsIdxAfter, COMDAT
; _this$ = ecx

; 91   : 	bool IsIdxAfter( I i, const Iterator_t &it ) const	{ return i > it.index; }

	push	ebp
	mov	ebp, esp
	sub	esp, 72					; 00000048H
	push	ebx
	push	esi
	push	edi
	mov	DWORD PTR _this$[ebp], ecx
	movzx	eax, WORD PTR _i$[ebp]
	mov	ecx, DWORD PTR _it$[ebp]
	movzx	edx, WORD PTR [ecx]
	cmp	eax, edx
	jle	SHORT $LN3@IsIdxAfter
	mov	DWORD PTR tv68[ebp], 1
	jmp	SHORT $LN4@IsIdxAfter
$LN3@IsIdxAfter:
	mov	DWORD PTR tv68[ebp], 0
$LN4@IsIdxAfter:
	mov	al, BYTE PTR tv68[ebp]
	pop	edi
	pop	esi
	pop	ebx
	mov	esp, ebp
	pop	ebp
	ret	8
?IsIdxAfter@?$CUtlMemory@U?$UtlRBTreeNode_t@UNode_t@?$CUtlMap@PBDPAVIEntityFactory@@G@@G@@G@@QBE_NGABVIterator_t@1@@Z ENDP ; CUtlMemory<UtlRBTreeNode_t<CUtlMap<char const *,IEntityFactory *,unsigned short>::Node_t,unsigned short>,unsigned short>::IsIdxAfter
_TEXT	ENDS
; Function compile flags: /Odtp /ZI
; File d:\!diffusion 2020\source code 2022\client-server\game_shared\utlmemory.h
;	COMDAT ?GetIndex@?$CUtlMemory@U?$UtlRBTreeNode_t@UNode_t@?$CUtlMap@PBDPAVIEntityFactory@@G@@G@@G@@QBEGABVIterator_t@1@@Z
_TEXT	SEGMENT
_this$ = -4						; size = 4
_it$ = 8						; size = 4
?GetIndex@?$CUtlMemory@U?$UtlRBTreeNode_t@UNode_t@?$CUtlMap@PBDPAVIEntityFactory@@G@@G@@G@@QBEGABVIterator_t@1@@Z PROC ; CUtlMemory<UtlRBTreeNode_t<CUtlMap<char const *,IEntityFactory *,unsigned short>::Node_t,unsigned short>,unsigned short>::GetIndex, COMDAT
; _this$ = ecx

; 90   : 	I GetIndex( const Iterator_t &it ) const			{ return it.index; }

	push	ebp
	mov	ebp, esp
	sub	esp, 68					; 00000044H
	push	ebx
	push	esi
	push	edi
	mov	DWORD PTR _this$[ebp], ecx
	mov	eax, DWORD PTR _it$[ebp]
	mov	ax, WORD PTR [eax]
	pop	edi
	pop	esi
	pop	ebx
	mov	esp, ebp
	pop	ebp
	ret	4
?GetIndex@?$CUtlMemory@U?$UtlRBTreeNode_t@UNode_t@?$CUtlMap@PBDPAVIEntityFactory@@G@@G@@G@@QBEGABVIterator_t@1@@Z ENDP ; CUtlMemory<UtlRBTreeNode_t<CUtlMap<char const *,IEntityFactory *,unsigned short>::Node_t,unsigned short>,unsigned short>::GetIndex
_TEXT	ENDS
; Function compile flags: /Odtp /ZI
; File d:\!diffusion 2020\source code 2022\client-server\game_shared\utlmemory.h
;	COMDAT ?Next@?$CUtlMemory@U?$UtlRBTreeNode_t@UNode_t@?$CUtlMap@PBDPAVIEntityFactory@@G@@G@@G@@QBE?AVIterator_t@1@ABV21@@Z
_TEXT	SEGMENT
tv80 = -72						; size = 4
_this$ = -4						; size = 4
___$ReturnUdt$ = 8					; size = 4
_it$ = 12						; size = 4
?Next@?$CUtlMemory@U?$UtlRBTreeNode_t@UNode_t@?$CUtlMap@PBDPAVIEntityFactory@@G@@G@@G@@QBE?AVIterator_t@1@ABV21@@Z PROC ; CUtlMemory<UtlRBTreeNode_t<CUtlMap<char const *,IEntityFactory *,unsigned short>::Node_t,unsigned short>,unsigned short>::Next, COMDAT
; _this$ = ecx

; 89   : 	Iterator_t Next( const Iterator_t &it ) const		{ return Iterator_t( IsIdxValid( it.index + 1 ) ? it.index + 1 : InvalidIndex() ); }

	push	ebp
	mov	ebp, esp
	sub	esp, 72					; 00000048H
	push	ebx
	push	esi
	push	edi
	mov	DWORD PTR _this$[ebp], ecx
	mov	eax, DWORD PTR _it$[ebp]
	movzx	ecx, WORD PTR [eax]
	add	ecx, 1
	push	ecx
	mov	ecx, DWORD PTR _this$[ebp]
	call	?IsIdxValid@?$CUtlMemory@U?$UtlRBTreeNode_t@UNode_t@?$CUtlMap@PBDPAVIEntityFactory@@G@@G@@G@@QBE_NG@Z ; CUtlMemory<UtlRBTreeNode_t<CUtlMap<char const *,IEntityFactory *,unsigned short>::Node_t,unsigned short>,unsigned short>::IsIdxValid
	movzx	edx, al
	test	edx, edx
	je	SHORT $LN3@Next
	mov	eax, DWORD PTR _it$[ebp]
	movzx	ecx, WORD PTR [eax]
	add	ecx, 1
	mov	DWORD PTR tv80[ebp], ecx
	jmp	SHORT $LN4@Next
$LN3@Next:
	call	?InvalidIndex@?$CUtlMemory@U?$UtlRBTreeNode_t@UNode_t@?$CUtlMap@PBDPAVIEntityFactory@@G@@G@@G@@SAGXZ ; CUtlMemory<UtlRBTreeNode_t<CUtlMap<char const *,IEntityFactory *,unsigned short>::Node_t,unsigned short>,unsigned short>::InvalidIndex
	movzx	edx, ax
	mov	DWORD PTR tv80[ebp], edx
$LN4@Next:
	movzx	eax, WORD PTR tv80[ebp]
	push	eax
	mov	ecx, DWORD PTR ___$ReturnUdt$[ebp]
	call	??0Iterator_t@?$CUtlMemory@U?$UtlRBTreeNode_t@UNode_t@?$CUtlMap@PBDPAVIEntityFactory@@G@@G@@G@@QAE@G@Z ; CUtlMemory<UtlRBTreeNode_t<CUtlMap<char const *,IEntityFactory *,unsigned short>::Node_t,unsigned short>,unsigned short>::Iterator_t::Iterator_t
	mov	eax, DWORD PTR ___$ReturnUdt$[ebp]
	pop	edi
	pop	esi
	pop	ebx
	mov	esp, ebp
	pop	ebp
	ret	8
?Next@?$CUtlMemory@U?$UtlRBTreeNode_t@UNode_t@?$CUtlMap@PBDPAVIEntityFactory@@G@@G@@G@@QBE?AVIterator_t@1@ABV21@@Z ENDP ; CUtlMemory<UtlRBTreeNode_t<CUtlMap<char const *,IEntityFactory *,unsigned short>::Node_t,unsigned short>,unsigned short>::Next
_TEXT	ENDS
; Function compile flags: /Odtp /ZI
; File d:\!diffusion 2020\source code 2022\client-server\game_shared\utlmemory.h
;	COMDAT ?First@?$CUtlMemory@U?$UtlRBTreeNode_t@UNode_t@?$CUtlMap@PBDPAVIEntityFactory@@G@@G@@G@@QBE?AVIterator_t@1@XZ
_TEXT	SEGMENT
tv73 = -72						; size = 4
_this$ = -4						; size = 4
___$ReturnUdt$ = 8					; size = 4
?First@?$CUtlMemory@U?$UtlRBTreeNode_t@UNode_t@?$CUtlMap@PBDPAVIEntityFactory@@G@@G@@G@@QBE?AVIterator_t@1@XZ PROC ; CUtlMemory<UtlRBTreeNode_t<CUtlMap<char const *,IEntityFactory *,unsigned short>::Node_t,unsigned short>,unsigned short>::First, COMDAT
; _this$ = ecx

; 88   : 	Iterator_t First() const							{ return Iterator_t( IsIdxValid( 0 ) ? 0 : InvalidIndex() ); }

	push	ebp
	mov	ebp, esp
	sub	esp, 72					; 00000048H
	push	ebx
	push	esi
	push	edi
	mov	DWORD PTR _this$[ebp], ecx
	push	0
	mov	ecx, DWORD PTR _this$[ebp]
	call	?IsIdxValid@?$CUtlMemory@U?$UtlRBTreeNode_t@UNode_t@?$CUtlMap@PBDPAVIEntityFactory@@G@@G@@G@@QBE_NG@Z ; CUtlMemory<UtlRBTreeNode_t<CUtlMap<char const *,IEntityFactory *,unsigned short>::Node_t,unsigned short>,unsigned short>::IsIdxValid
	movzx	eax, al
	test	eax, eax
	je	SHORT $LN3@First
	mov	DWORD PTR tv73[ebp], 0
	jmp	SHORT $LN4@First
$LN3@First:
	call	?InvalidIndex@?$CUtlMemory@U?$UtlRBTreeNode_t@UNode_t@?$CUtlMap@PBDPAVIEntityFactory@@G@@G@@G@@SAGXZ ; CUtlMemory<UtlRBTreeNode_t<CUtlMap<char const *,IEntityFactory *,unsigned short>::Node_t,unsigned short>,unsigned short>::InvalidIndex
	movzx	ecx, ax
	mov	DWORD PTR tv73[ebp], ecx
$LN4@First:
	movzx	edx, WORD PTR tv73[ebp]
	push	edx
	mov	ecx, DWORD PTR ___$ReturnUdt$[ebp]
	call	??0Iterator_t@?$CUtlMemory@U?$UtlRBTreeNode_t@UNode_t@?$CUtlMap@PBDPAVIEntityFactory@@G@@G@@G@@QAE@G@Z ; CUtlMemory<UtlRBTreeNode_t<CUtlMap<char const *,IEntityFactory *,unsigned short>::Node_t,unsigned short>,unsigned short>::Iterator_t::Iterator_t
	mov	eax, DWORD PTR ___$ReturnUdt$[ebp]
	pop	edi
	pop	esi
	pop	ebx
	mov	esp, ebp
	pop	ebp
	ret	4
?First@?$CUtlMemory@U?$UtlRBTreeNode_t@UNode_t@?$CUtlMap@PBDPAVIEntityFactory@@G@@G@@G@@QBE?AVIterator_t@1@XZ ENDP ; CUtlMemory<UtlRBTreeNode_t<CUtlMap<char const *,IEntityFactory *,unsigned short>::Node_t,unsigned short>,unsigned short>::First
_TEXT	ENDS
; Function compile flags: /Odtp /ZI
; File d:\!diffusion 2020\source code 2022\client-server\game_shared\utlmemory.h
;	COMDAT ??1?$CUtlMemory@U?$UtlRBTreeNode_t@UNode_t@?$CUtlMap@PBDPAVIEntityFactory@@G@@G@@G@@QAE@XZ
_TEXT	SEGMENT
_this$ = -16						; size = 4
__$EHRec$ = -12						; size = 12
??1?$CUtlMemory@U?$UtlRBTreeNode_t@UNode_t@?$CUtlMap@PBDPAVIEntityFactory@@G@@G@@G@@QAE@XZ PROC ; CUtlMemory<UtlRBTreeNode_t<CUtlMap<char const *,IEntityFactory *,unsigned short>::Node_t,unsigned short>,unsigned short>::~CUtlMemory<UtlRBTreeNode_t<CUtlMap<char const *,IEntityFactory *,unsigned short>::Node_t,unsigned short>,unsigned short>, COMDAT
; _this$ = ecx

; 322  : {

	push	ebp
	mov	ebp, esp
	push	-1
	push	__ehhandler$??1?$CUtlMemory@U?$UtlRBTreeNode_t@UNode_t@?$CUtlMap@PBDPAVIEntityFactory@@G@@G@@G@@QAE@XZ
	mov	eax, DWORD PTR fs:0
	push	eax
	sub	esp, 68					; 00000044H
	push	ebx
	push	esi
	push	edi
	mov	eax, DWORD PTR ___security_cookie
	xor	eax, ebp
	push	eax
	lea	eax, DWORD PTR __$EHRec$[ebp]
	mov	DWORD PTR fs:0, eax
	mov	DWORD PTR _this$[ebp], ecx

; 323  : 	Purge();

	mov	ecx, DWORD PTR _this$[ebp]
	call	?Purge@?$CUtlMemory@U?$UtlRBTreeNode_t@UNode_t@?$CUtlMap@PBDPAVIEntityFactory@@G@@G@@G@@QAEXXZ ; CUtlMemory<UtlRBTreeNode_t<CUtlMap<char const *,IEntityFactory *,unsigned short>::Node_t,unsigned short>,unsigned short>::Purge

; 324  : }

	mov	ecx, DWORD PTR __$EHRec$[ebp]
	mov	DWORD PTR fs:0, ecx
	pop	ecx
	pop	edi
	pop	esi
	pop	ebx
	mov	esp, ebp
	pop	ebp
	ret	0
_TEXT	ENDS
;	COMDAT text$x
text$x	SEGMENT
__ehhandler$??1?$CUtlMemory@U?$UtlRBTreeNode_t@UNode_t@?$CUtlMap@PBDPAVIEntityFactory@@G@@G@@G@@QAE@XZ:
	mov	edx, DWORD PTR [esp+8]
	lea	eax, DWORD PTR [edx+12]
	mov	ecx, DWORD PTR [edx-84]
	xor	ecx, eax
	call	@__security_check_cookie@4
	mov	eax, OFFSET __ehfuncinfo$??1?$CUtlMemory@U?$UtlRBTreeNode_t@UNode_t@?$CUtlMap@PBDPAVIEntityFactory@@G@@G@@G@@QAE@XZ
	jmp	___CxxFrameHandler3
text$x	ENDS
??1?$CUtlMemory@U?$UtlRBTreeNode_t@UNode_t@?$CUtlMap@PBDPAVIEntityFactory@@G@@G@@G@@QAE@XZ ENDP ; CUtlMemory<UtlRBTreeNode_t<CUtlMap<char const *,IEntityFactory *,unsigned short>::Node_t,unsigned short>,unsigned short>::~CUtlMemory<UtlRBTreeNode_t<CUtlMap<char const *,IEntityFactory *,unsigned short>::Node_t,unsigned short>,unsigned short>
; Function compile flags: /Odtp /ZI
; File d:\!diffusion 2020\source code 2022\client-server\game_shared\utlmemory.h
;	COMDAT ??0?$CUtlMemory@U?$UtlRBTreeNode_t@UNode_t@?$CUtlMap@PBDPAVIEntityFactory@@G@@G@@G@@QAE@HH@Z
_TEXT	SEGMENT
_this$ = -4						; size = 4
_nGrowSize$ = 8						; size = 4
_nInitAllocationCount$ = 12				; size = 4
??0?$CUtlMemory@U?$UtlRBTreeNode_t@UNode_t@?$CUtlMap@PBDPAVIEntityFactory@@G@@G@@G@@QAE@HH@Z PROC ; CUtlMemory<UtlRBTreeNode_t<CUtlMap<char const *,IEntityFactory *,unsigned short>::Node_t,unsigned short>,unsigned short>::CUtlMemory<UtlRBTreeNode_t<CUtlMap<char const *,IEntityFactory *,unsigned short>::Node_t,unsigned short>,unsigned short>, COMDAT
; _this$ = ecx

; 295  : {

	push	ebp
	mov	ebp, esp
	sub	esp, 68					; 00000044H
	push	ebx
	push	esi
	push	edi
	mov	DWORD PTR _this$[ebp], ecx

; 293  : CUtlMemory<T,I>::CUtlMemory( int nGrowSize, int nInitAllocationCount ) : m_pMemory(0), 

	mov	eax, DWORD PTR _this$[ebp]
	mov	DWORD PTR [eax], 0

; 294  : 	m_nAllocationCount( nInitAllocationCount ), m_nGrowSize( nGrowSize )

	mov	eax, DWORD PTR _this$[ebp]
	mov	ecx, DWORD PTR _nInitAllocationCount$[ebp]
	mov	DWORD PTR [eax+4], ecx
	mov	eax, DWORD PTR _this$[ebp]
	mov	ecx, DWORD PTR _nGrowSize$[ebp]
	mov	DWORD PTR [eax+8], ecx

; 296  : 	ValidateGrowSize();

	mov	ecx, DWORD PTR _this$[ebp]
	call	?ValidateGrowSize@?$CUtlMemory@U?$UtlRBTreeNode_t@UNode_t@?$CUtlMap@PBDPAVIEntityFactory@@G@@G@@G@@IAEXXZ ; CUtlMemory<UtlRBTreeNode_t<CUtlMap<char const *,IEntityFactory *,unsigned short>::Node_t,unsigned short>,unsigned short>::ValidateGrowSize

; 297  : 	assert( nGrowSize >= 0 );

	cmp	DWORD PTR _nGrowSize$[ebp], 0
	jge	SHORT $LN4@CUtlMemory
	push	297					; 00000129H
	push	OFFSET ??_C@_1JE@CIIIAKCN@?$AAd?$AA?3?$AA?2?$AA?$CB?$AAd?$AAi?$AAf?$AAf?$AAu?$AAs?$AAi?$AAo?$AAn?$AA?5?$AA2?$AA0?$AA2?$AA0?$AA?2?$AAs?$AAo?$AAu?$AAr?$AAc?$AAe?$AA?5?$AAc?$AAo?$AAd?$AAe?$AA?5?$AA2@
	push	OFFSET ??_C@_1BO@FOOHAONO@?$AAn?$AAG?$AAr?$AAo?$AAw?$AAS?$AAi?$AAz?$AAe?$AA?5?$AA?$DO?$AA?$DN?$AA?5?$AA0?$AA?$AA@
	call	__wassert
	add	esp, 12					; 0000000cH
$LN4@CUtlMemory:

; 298  : 	if (m_nAllocationCount)

	mov	eax, DWORD PTR _this$[ebp]
	cmp	DWORD PTR [eax+4], 0
	je	SHORT $LN1@CUtlMemory

; 299  : 	{
; 300  : 		m_pMemory = (T*)malloc( m_nAllocationCount * sizeof(T) );

	mov	eax, DWORD PTR _this$[ebp]
	mov	ecx, DWORD PTR [eax+4]
	shl	ecx, 4
	push	ecx
	call	_malloc
	add	esp, 4
	mov	edx, DWORD PTR _this$[ebp]
	mov	DWORD PTR [edx], eax
$LN1@CUtlMemory:

; 301  : 	}
; 302  : }

	mov	eax, DWORD PTR _this$[ebp]
	pop	edi
	pop	esi
	pop	ebx
	mov	esp, ebp
	pop	ebp
	ret	8
??0?$CUtlMemory@U?$UtlRBTreeNode_t@UNode_t@?$CUtlMap@PBDPAVIEntityFactory@@G@@G@@G@@QAE@HH@Z ENDP ; CUtlMemory<UtlRBTreeNode_t<CUtlMap<char const *,IEntityFactory *,unsigned short>::Node_t,unsigned short>,unsigned short>::CUtlMemory<UtlRBTreeNode_t<CUtlMap<char const *,IEntityFactory *,unsigned short>::Node_t,unsigned short>,unsigned short>
_TEXT	ENDS
; Function compile flags: /Odtp /ZI
; File d:\!diffusion 2020\source code 2022\client-server\game_shared\utlmap.h
;	COMDAT ??RCKeyLess@?$CUtlMap@PBDPAVIEntityFactory@@G@@QBE_NABUNode_t@1@0@Z
_TEXT	SEGMENT
_this$ = -4						; size = 4
_left$ = 8						; size = 4
_right$ = 12						; size = 4
??RCKeyLess@?$CUtlMap@PBDPAVIEntityFactory@@G@@QBE_NABUNode_t@1@0@Z PROC ; CUtlMap<char const *,IEntityFactory *,unsigned short>::CKeyLess::operator(), COMDAT
; _this$ = ecx

; 184  : 		{

	push	ebp
	mov	ebp, esp
	sub	esp, 68					; 00000044H
	push	ebx
	push	esi
	push	edi
	mov	DWORD PTR _this$[ebp], ecx

; 185  : 			return m_LessFunc( left.key, right.key );

	mov	eax, DWORD PTR _right$[ebp]
	push	eax
	mov	ecx, DWORD PTR _left$[ebp]
	push	ecx
	mov	edx, DWORD PTR _this$[ebp]
	mov	eax, DWORD PTR [edx]
	call	eax
	add	esp, 8

; 186  : 		}

	pop	edi
	pop	esi
	pop	ebx
	mov	esp, ebp
	pop	ebp
	ret	8
??RCKeyLess@?$CUtlMap@PBDPAVIEntityFactory@@G@@QBE_NABUNode_t@1@0@Z ENDP ; CUtlMap<char const *,IEntityFactory *,unsigned short>::CKeyLess::operator()
_TEXT	ENDS
; Function compile flags: /Odtp /ZI
; File d:\!diffusion 2020\source code 2022\client-server\game_shared\utlmap.h
;	COMDAT ??7CKeyLess@?$CUtlMap@PBDPAVIEntityFactory@@G@@QBE_NXZ
_TEXT	SEGMENT
tv66 = -72						; size = 4
_this$ = -4						; size = 4
??7CKeyLess@?$CUtlMap@PBDPAVIEntityFactory@@G@@QBE_NXZ PROC ; CUtlMap<char const *,IEntityFactory *,unsigned short>::CKeyLess::operator!, COMDAT
; _this$ = ecx

; 179  : 		{

	push	ebp
	mov	ebp, esp
	sub	esp, 72					; 00000048H
	push	ebx
	push	esi
	push	edi
	mov	DWORD PTR _this$[ebp], ecx

; 180  : 			return !m_LessFunc;

	mov	eax, DWORD PTR _this$[ebp]
	cmp	DWORD PTR [eax], 0
	jne	SHORT $LN3@operator
	mov	DWORD PTR tv66[ebp], 1
	jmp	SHORT $LN4@operator
$LN3@operator:
	mov	DWORD PTR tv66[ebp], 0
$LN4@operator:
	mov	al, BYTE PTR tv66[ebp]

; 181  : 		}

	pop	edi
	pop	esi
	pop	ebx
	mov	esp, ebp
	pop	ebp
	ret	0
??7CKeyLess@?$CUtlMap@PBDPAVIEntityFactory@@G@@QBE_NXZ ENDP ; CUtlMap<char const *,IEntityFactory *,unsigned short>::CKeyLess::operator!
_TEXT	ENDS
; Function compile flags: /Odtp /ZI
; File d:\!diffusion 2020\source code 2022\client-server\game_shared\utlmap.h
;	COMDAT ??0CKeyLess@?$CUtlMap@PBDPAVIEntityFactory@@G@@QAE@P6A_NABQBD0@Z@Z
_TEXT	SEGMENT
_this$ = -4						; size = 4
_lessFunc$ = 8						; size = 4
??0CKeyLess@?$CUtlMap@PBDPAVIEntityFactory@@G@@QAE@P6A_NABQBD0@Z@Z PROC ; CUtlMap<char const *,IEntityFactory *,unsigned short>::CKeyLess::CKeyLess, COMDAT
; _this$ = ecx

; 176  : 		CKeyLess( LessFunc_t lessFunc ) : m_LessFunc(lessFunc) {}

	push	ebp
	mov	ebp, esp
	sub	esp, 68					; 00000044H
	push	ebx
	push	esi
	push	edi
	mov	DWORD PTR _this$[ebp], ecx
	mov	eax, DWORD PTR _this$[ebp]
	mov	ecx, DWORD PTR _lessFunc$[ebp]
	mov	DWORD PTR [eax], ecx
	mov	eax, DWORD PTR _this$[ebp]
	pop	edi
	pop	esi
	pop	ebx
	mov	esp, ebp
	pop	ebp
	ret	4
??0CKeyLess@?$CUtlMap@PBDPAVIEntityFactory@@G@@QAE@P6A_NABQBD0@Z@Z ENDP ; CUtlMap<char const *,IEntityFactory *,unsigned short>::CKeyLess::CKeyLess
_TEXT	ENDS
; Function compile flags: /Odtp /ZI
; File d:\!diffusion 2020\source code 2022\client-server\game_shared\utlrbtree.h
;	COMDAT ?FindInsertionPosition@?$CUtlRBTree@UNode_t@?$CUtlMap@PBDPAVIEntityFactory@@G@@GVCKeyLess@2@V?$CUtlMemory@U?$UtlRBTreeNode_t@UNode_t@?$CUtlMap@PBDPAVIEntityFactory@@G@@G@@G@@@@IAEXABUNode_t@?$CUtlMap@PBDPAVIEntityFactory@@G@@AAGAA_N@Z
_TEXT	SEGMENT
_current$ = -8						; size = 2
_this$ = -4						; size = 4
_insert$ = 8						; size = 4
_parent$ = 12						; size = 4
_leftchild$ = 16					; size = 4
?FindInsertionPosition@?$CUtlRBTree@UNode_t@?$CUtlMap@PBDPAVIEntityFactory@@G@@GVCKeyLess@2@V?$CUtlMemory@U?$UtlRBTreeNode_t@UNode_t@?$CUtlMap@PBDPAVIEntityFactory@@G@@G@@G@@@@IAEXABUNode_t@?$CUtlMap@PBDPAVIEntityFactory@@G@@AAGAA_N@Z PROC ; CUtlRBTree<CUtlMap<char const *,IEntityFactory *,unsigned short>::Node_t,unsigned short,CUtlMap<char const *,IEntityFactory *,unsigned short>::CKeyLess,CUtlMemory<UtlRBTreeNode_t<CUtlMap<char const *,IEntityFactory *,unsigned short>::Node_t,unsigned short>,unsigned short> >::FindInsertionPosition, COMDAT
; _this$ = ecx

; 1444 : {

	push	ebp
	mov	ebp, esp
	sub	esp, 72					; 00000048H
	push	ebx
	push	esi
	push	edi
	mov	DWORD PTR _this$[ebp], ecx

; 1445 : 	assert( &m_LessFunc );

	cmp	DWORD PTR _this$[ebp], 0
	jne	SHORT $LN7@FindInsert
	push	1445					; 000005a5H
	push	OFFSET ??_C@_1JE@LJJIJLOD@?$AAd?$AA?3?$AA?2?$AA?$CB?$AAd?$AAi?$AAf?$AAf?$AAu?$AAs?$AAi?$AAo?$AAn?$AA?5?$AA2?$AA0?$AA2?$AA0?$AA?2?$AAs?$AAo?$AAu?$AAr?$AAc?$AAe?$AA?5?$AAc?$AAo?$AAd?$AAe?$AA?5?$AA2@
	push	OFFSET ??_C@_1BI@EHKAMAJG@?$AA?$CG?$AAm?$AA_?$AAL?$AAe?$AAs?$AAs?$AAF?$AAu?$AAn?$AAc?$AA?$AA@
	call	__wassert
	add	esp, 12					; 0000000cH
$LN7@FindInsert:

; 1446 : 
; 1447 : 	/* find where node belongs */
; 1448 : 	I current = m_Root;

	mov	eax, DWORD PTR _this$[ebp]
	mov	cx, WORD PTR [eax+16]
	mov	WORD PTR _current$[ebp], cx

; 1449 : 	parent = InvalidIndex();

	call	?InvalidIndex@?$CUtlRBTree@UNode_t@?$CUtlMap@PBDPAVIEntityFactory@@G@@GVCKeyLess@2@V?$CUtlMemory@U?$UtlRBTreeNode_t@UNode_t@?$CUtlMap@PBDPAVIEntityFactory@@G@@G@@G@@@@SAGXZ ; CUtlRBTree<CUtlMap<char const *,IEntityFactory *,unsigned short>::Node_t,unsigned short,CUtlMap<char const *,IEntityFactory *,unsigned short>::CKeyLess,CUtlMemory<UtlRBTreeNode_t<CUtlMap<char const *,IEntityFactory *,unsigned short>::Node_t,unsigned short>,unsigned short> >::InvalidIndex
	mov	ecx, DWORD PTR _parent$[ebp]
	mov	WORD PTR [ecx], ax

; 1450 : 	leftchild = false;

	mov	eax, DWORD PTR _leftchild$[ebp]
	mov	BYTE PTR [eax], 0
$LN2@FindInsert:

; 1451 : 	while (current != InvalidIndex()) 

	movzx	esi, WORD PTR _current$[ebp]
	call	?InvalidIndex@?$CUtlRBTree@UNode_t@?$CUtlMap@PBDPAVIEntityFactory@@G@@GVCKeyLess@2@V?$CUtlMemory@U?$UtlRBTreeNode_t@UNode_t@?$CUtlMap@PBDPAVIEntityFactory@@G@@G@@G@@@@SAGXZ ; CUtlRBTree<CUtlMap<char const *,IEntityFactory *,unsigned short>::Node_t,unsigned short,CUtlMap<char const *,IEntityFactory *,unsigned short>::CKeyLess,CUtlMemory<UtlRBTreeNode_t<CUtlMap<char const *,IEntityFactory *,unsigned short>::Node_t,unsigned short>,unsigned short> >::InvalidIndex
	movzx	eax, ax
	cmp	esi, eax
	je	SHORT $LN1@FindInsert

; 1452 : 	{
; 1453 : 		parent = current;

	mov	eax, DWORD PTR _parent$[ebp]
	mov	cx, WORD PTR _current$[ebp]
	mov	WORD PTR [eax], cx

; 1454 : 		if (m_LessFunc( insert, Element(current) ))

	movzx	eax, WORD PTR _current$[ebp]
	push	eax
	mov	ecx, DWORD PTR _this$[ebp]
	call	?Element@?$CUtlRBTree@UNode_t@?$CUtlMap@PBDPAVIEntityFactory@@G@@GVCKeyLess@2@V?$CUtlMemory@U?$UtlRBTreeNode_t@UNode_t@?$CUtlMap@PBDPAVIEntityFactory@@G@@G@@G@@@@QAEAAUNode_t@?$CUtlMap@PBDPAVIEntityFactory@@G@@G@Z ; CUtlRBTree<CUtlMap<char const *,IEntityFactory *,unsigned short>::Node_t,unsigned short,CUtlMap<char const *,IEntityFactory *,unsigned short>::CKeyLess,CUtlMemory<UtlRBTreeNode_t<CUtlMap<char const *,IEntityFactory *,unsigned short>::Node_t,unsigned short>,unsigned short> >::Element
	push	eax
	mov	ecx, DWORD PTR _insert$[ebp]
	push	ecx
	mov	ecx, DWORD PTR _this$[ebp]
	call	??RCKeyLess@?$CUtlMap@PBDPAVIEntityFactory@@G@@QBE_NABUNode_t@1@0@Z ; CUtlMap<char const *,IEntityFactory *,unsigned short>::CKeyLess::operator()
	movzx	edx, al
	test	edx, edx
	je	SHORT $LN4@FindInsert

; 1455 : 		{
; 1456 : 			leftchild = true; current = LeftChild(current);

	mov	eax, DWORD PTR _leftchild$[ebp]
	mov	BYTE PTR [eax], 1
	movzx	eax, WORD PTR _current$[ebp]
	push	eax
	mov	ecx, DWORD PTR _this$[ebp]
	call	?LeftChild@?$CUtlRBTree@UNode_t@?$CUtlMap@PBDPAVIEntityFactory@@G@@GVCKeyLess@2@V?$CUtlMemory@U?$UtlRBTreeNode_t@UNode_t@?$CUtlMap@PBDPAVIEntityFactory@@G@@G@@G@@@@QBEGG@Z ; CUtlRBTree<CUtlMap<char const *,IEntityFactory *,unsigned short>::Node_t,unsigned short,CUtlMap<char const *,IEntityFactory *,unsigned short>::CKeyLess,CUtlMemory<UtlRBTreeNode_t<CUtlMap<char const *,IEntityFactory *,unsigned short>::Node_t,unsigned short>,unsigned short> >::LeftChild
	mov	WORD PTR _current$[ebp], ax

; 1457 : 		}
; 1458 : 		else

	jmp	SHORT $LN5@FindInsert
$LN4@FindInsert:

; 1459 : 		{
; 1460 : 			leftchild = false; current = RightChild(current);

	mov	eax, DWORD PTR _leftchild$[ebp]
	mov	BYTE PTR [eax], 0
	movzx	eax, WORD PTR _current$[ebp]
	push	eax
	mov	ecx, DWORD PTR _this$[ebp]
	call	?RightChild@?$CUtlRBTree@UNode_t@?$CUtlMap@PBDPAVIEntityFactory@@G@@GVCKeyLess@2@V?$CUtlMemory@U?$UtlRBTreeNode_t@UNode_t@?$CUtlMap@PBDPAVIEntityFactory@@G@@G@@G@@@@QBEGG@Z ; CUtlRBTree<CUtlMap<char const *,IEntityFactory *,unsigned short>::Node_t,unsigned short,CUtlMap<char const *,IEntityFactory *,unsigned short>::CKeyLess,CUtlMemory<UtlRBTreeNode_t<CUtlMap<char const *,IEntityFactory *,unsigned short>::Node_t,unsigned short>,unsigned short> >::RightChild
	mov	WORD PTR _current$[ebp], ax
$LN5@FindInsert:

; 1461 : 		}
; 1462 : 	}

	jmp	SHORT $LN2@FindInsert
$LN1@FindInsert:

; 1463 : }

	pop	edi
	pop	esi
	pop	ebx
	mov	esp, ebp
	pop	ebp
	ret	12					; 0000000cH
?FindInsertionPosition@?$CUtlRBTree@UNode_t@?$CUtlMap@PBDPAVIEntityFactory@@G@@GVCKeyLess@2@V?$CUtlMemory@U?$UtlRBTreeNode_t@UNode_t@?$CUtlMap@PBDPAVIEntityFactory@@G@@G@@G@@@@IAEXABUNode_t@?$CUtlMap@PBDPAVIEntityFactory@@G@@AAGAA_N@Z ENDP ; CUtlRBTree<CUtlMap<char const *,IEntityFactory *,unsigned short>::Node_t,unsigned short,CUtlMap<char const *,IEntityFactory *,unsigned short>::CKeyLess,CUtlMemory<UtlRBTreeNode_t<CUtlMap<char const *,IEntityFactory *,unsigned short>::Node_t,unsigned short>,unsigned short> >::FindInsertionPosition
_TEXT	ENDS
; Function compile flags: /Odtp /ZI
; File d:\!diffusion 2020\source code 2022\client-server\game_shared\utlrbtree.h
;	COMDAT ?InsertAt@?$CUtlRBTree@UNode_t@?$CUtlMap@PBDPAVIEntityFactory@@G@@GVCKeyLess@2@V?$CUtlMemory@U?$UtlRBTreeNode_t@UNode_t@?$CUtlMap@PBDPAVIEntityFactory@@G@@G@@G@@@@IAEGG_N@Z
_TEXT	SEGMENT
_i$ = -8						; size = 2
_this$ = -4						; size = 4
_parent$ = 8						; size = 2
_leftchild$ = 12					; size = 1
?InsertAt@?$CUtlRBTree@UNode_t@?$CUtlMap@PBDPAVIEntityFactory@@G@@GVCKeyLess@2@V?$CUtlMemory@U?$UtlRBTreeNode_t@UNode_t@?$CUtlMap@PBDPAVIEntityFactory@@G@@G@@G@@@@IAEGG_N@Z PROC ; CUtlRBTree<CUtlMap<char const *,IEntityFactory *,unsigned short>::Node_t,unsigned short,CUtlMap<char const *,IEntityFactory *,unsigned short>::CKeyLess,CUtlMemory<UtlRBTreeNode_t<CUtlMap<char const *,IEntityFactory *,unsigned short>::Node_t,unsigned short>,unsigned short> >::InsertAt, COMDAT
; _this$ = ecx

; 843  : {

	push	ebp
	mov	ebp, esp
	sub	esp, 72					; 00000048H
	push	ebx
	push	esi
	push	edi
	mov	DWORD PTR _this$[ebp], ecx

; 844  : 	I i = NewNode();

	mov	ecx, DWORD PTR _this$[ebp]
	call	?NewNode@?$CUtlRBTree@UNode_t@?$CUtlMap@PBDPAVIEntityFactory@@G@@GVCKeyLess@2@V?$CUtlMemory@U?$UtlRBTreeNode_t@UNode_t@?$CUtlMap@PBDPAVIEntityFactory@@G@@G@@G@@@@QAEGXZ ; CUtlRBTree<CUtlMap<char const *,IEntityFactory *,unsigned short>::Node_t,unsigned short,CUtlMap<char const *,IEntityFactory *,unsigned short>::CKeyLess,CUtlMemory<UtlRBTreeNode_t<CUtlMap<char const *,IEntityFactory *,unsigned short>::Node_t,unsigned short>,unsigned short> >::NewNode
	mov	WORD PTR _i$[ebp], ax

; 845  : 	LinkToParent( i, parent, leftchild );

	movzx	eax, BYTE PTR _leftchild$[ebp]
	push	eax
	movzx	ecx, WORD PTR _parent$[ebp]
	push	ecx
	movzx	edx, WORD PTR _i$[ebp]
	push	edx
	mov	ecx, DWORD PTR _this$[ebp]
	call	?LinkToParent@?$CUtlRBTree@UNode_t@?$CUtlMap@PBDPAVIEntityFactory@@G@@GVCKeyLess@2@V?$CUtlMemory@U?$UtlRBTreeNode_t@UNode_t@?$CUtlMap@PBDPAVIEntityFactory@@G@@G@@G@@@@IAEXGG_N@Z ; CUtlRBTree<CUtlMap<char const *,IEntityFactory *,unsigned short>::Node_t,unsigned short,CUtlMap<char const *,IEntityFactory *,unsigned short>::CKeyLess,CUtlMemory<UtlRBTreeNode_t<CUtlMap<char const *,IEntityFactory *,unsigned short>::Node_t,unsigned short>,unsigned short> >::LinkToParent

; 846  : 	++m_NumElements;

	mov	eax, DWORD PTR _this$[ebp]
	mov	cx, WORD PTR [eax+18]
	add	cx, 1
	mov	edx, DWORD PTR _this$[ebp]
	mov	WORD PTR [edx+18], cx

; 847  : 
; 848  : 	assert(IsValid());

	mov	ecx, DWORD PTR _this$[ebp]
	call	?IsValid@?$CUtlRBTree@UNode_t@?$CUtlMap@PBDPAVIEntityFactory@@G@@GVCKeyLess@2@V?$CUtlMemory@U?$UtlRBTreeNode_t@UNode_t@?$CUtlMap@PBDPAVIEntityFactory@@G@@G@@G@@@@QBE_NXZ ; CUtlRBTree<CUtlMap<char const *,IEntityFactory *,unsigned short>::Node_t,unsigned short,CUtlMap<char const *,IEntityFactory *,unsigned short>::CKeyLess,CUtlMemory<UtlRBTreeNode_t<CUtlMap<char const *,IEntityFactory *,unsigned short>::Node_t,unsigned short>,unsigned short> >::IsValid
	movzx	eax, al
	test	eax, eax
	jne	SHORT $LN3@InsertAt
	push	848					; 00000350H
	push	OFFSET ??_C@_1JE@LJJIJLOD@?$AAd?$AA?3?$AA?2?$AA?$CB?$AAd?$AAi?$AAf?$AAf?$AAu?$AAs?$AAi?$AAo?$AAn?$AA?5?$AA2?$AA0?$AA2?$AA0?$AA?2?$AAs?$AAo?$AAu?$AAr?$AAc?$AAe?$AA?5?$AAc?$AAo?$AAd?$AAe?$AA?5?$AA2@
	push	OFFSET ??_C@_1BE@PGFEGIPI@?$AAI?$AAs?$AAV?$AAa?$AAl?$AAi?$AAd?$AA?$CI?$AA?$CJ?$AA?$AA@
	call	__wassert
	add	esp, 12					; 0000000cH
$LN3@InsertAt:

; 849  : 
; 850  : 	return i;

	mov	ax, WORD PTR _i$[ebp]

; 851  : }

	pop	edi
	pop	esi
	pop	ebx
	mov	esp, ebp
	pop	ebp
	ret	8
?InsertAt@?$CUtlRBTree@UNode_t@?$CUtlMap@PBDPAVIEntityFactory@@G@@GVCKeyLess@2@V?$CUtlMemory@U?$UtlRBTreeNode_t@UNode_t@?$CUtlMap@PBDPAVIEntityFactory@@G@@G@@G@@@@IAEGG_N@Z ENDP ; CUtlRBTree<CUtlMap<char const *,IEntityFactory *,unsigned short>::Node_t,unsigned short,CUtlMap<char const *,IEntityFactory *,unsigned short>::CKeyLess,CUtlMemory<UtlRBTreeNode_t<CUtlMap<char const *,IEntityFactory *,unsigned short>::Node_t,unsigned short>,unsigned short> >::InsertAt
_TEXT	ENDS
; Function compile flags: /Odtp /ZI
; File d:\!diffusion 2020\source code 2022\client-server\game_shared\utlrbtree.h
;	COMDAT ?InsertRebalance@?$CUtlRBTree@UNode_t@?$CUtlMap@PBDPAVIEntityFactory@@G@@GVCKeyLess@2@V?$CUtlMemory@U?$UtlRBTreeNode_t@UNode_t@?$CUtlMap@PBDPAVIEntityFactory@@G@@G@@G@@@@IAEXG@Z
_TEXT	SEGMENT
_uncle$1 = -20						; size = 2
_uncle$2 = -16						; size = 2
_grandparent$3 = -12					; size = 2
_parent$4 = -8						; size = 2
_this$ = -4						; size = 4
_elem$ = 8						; size = 2
?InsertRebalance@?$CUtlRBTree@UNode_t@?$CUtlMap@PBDPAVIEntityFactory@@G@@GVCKeyLess@2@V?$CUtlMemory@U?$UtlRBTreeNode_t@UNode_t@?$CUtlMap@PBDPAVIEntityFactory@@G@@G@@G@@@@IAEXG@Z PROC ; CUtlRBTree<CUtlMap<char const *,IEntityFactory *,unsigned short>::Node_t,unsigned short,CUtlMap<char const *,IEntityFactory *,unsigned short>::CKeyLess,CUtlMemory<UtlRBTreeNode_t<CUtlMap<char const *,IEntityFactory *,unsigned short>::Node_t,unsigned short>,unsigned short> >::InsertRebalance, COMDAT
; _this$ = ecx

; 768  : {

	push	ebp
	mov	ebp, esp
	sub	esp, 84					; 00000054H
	push	ebx
	push	esi
	push	edi
	mov	DWORD PTR _this$[ebp], ecx
$LN2@InsertReba:

; 769  : 	while ( !IsRoot(elem) && (Color(Parent(elem)) == RED) )

	movzx	eax, WORD PTR _elem$[ebp]
	push	eax
	mov	ecx, DWORD PTR _this$[ebp]
	call	?IsRoot@?$CUtlRBTree@UNode_t@?$CUtlMap@PBDPAVIEntityFactory@@G@@GVCKeyLess@2@V?$CUtlMemory@U?$UtlRBTreeNode_t@UNode_t@?$CUtlMap@PBDPAVIEntityFactory@@G@@G@@G@@@@QBE_NG@Z ; CUtlRBTree<CUtlMap<char const *,IEntityFactory *,unsigned short>::Node_t,unsigned short,CUtlMap<char const *,IEntityFactory *,unsigned short>::CKeyLess,CUtlMemory<UtlRBTreeNode_t<CUtlMap<char const *,IEntityFactory *,unsigned short>::Node_t,unsigned short>,unsigned short> >::IsRoot
	movzx	ecx, al
	test	ecx, ecx
	jne	$LN3@InsertReba
	movzx	eax, WORD PTR _elem$[ebp]
	push	eax
	mov	ecx, DWORD PTR _this$[ebp]
	call	?Parent@?$CUtlRBTree@UNode_t@?$CUtlMap@PBDPAVIEntityFactory@@G@@GVCKeyLess@2@V?$CUtlMemory@U?$UtlRBTreeNode_t@UNode_t@?$CUtlMap@PBDPAVIEntityFactory@@G@@G@@G@@@@QBEGG@Z ; CUtlRBTree<CUtlMap<char const *,IEntityFactory *,unsigned short>::Node_t,unsigned short,CUtlMap<char const *,IEntityFactory *,unsigned short>::CKeyLess,CUtlMemory<UtlRBTreeNode_t<CUtlMap<char const *,IEntityFactory *,unsigned short>::Node_t,unsigned short>,unsigned short> >::Parent
	movzx	ecx, ax
	push	ecx
	mov	ecx, DWORD PTR _this$[ebp]
	call	?Color@?$CUtlRBTree@UNode_t@?$CUtlMap@PBDPAVIEntityFactory@@G@@GVCKeyLess@2@V?$CUtlMemory@U?$UtlRBTreeNode_t@UNode_t@?$CUtlMap@PBDPAVIEntityFactory@@G@@G@@G@@@@IBE?AW4NodeColor_t@1@G@Z ; CUtlRBTree<CUtlMap<char const *,IEntityFactory *,unsigned short>::Node_t,unsigned short,CUtlMap<char const *,IEntityFactory *,unsigned short>::CKeyLess,CUtlMemory<UtlRBTreeNode_t<CUtlMap<char const *,IEntityFactory *,unsigned short>::Node_t,unsigned short>,unsigned short> >::Color
	test	eax, eax
	jne	$LN3@InsertReba

; 770  : 	{
; 771  : 		I parent = Parent(elem);

	movzx	eax, WORD PTR _elem$[ebp]
	push	eax
	mov	ecx, DWORD PTR _this$[ebp]
	call	?Parent@?$CUtlRBTree@UNode_t@?$CUtlMap@PBDPAVIEntityFactory@@G@@GVCKeyLess@2@V?$CUtlMemory@U?$UtlRBTreeNode_t@UNode_t@?$CUtlMap@PBDPAVIEntityFactory@@G@@G@@G@@@@QBEGG@Z ; CUtlRBTree<CUtlMap<char const *,IEntityFactory *,unsigned short>::Node_t,unsigned short,CUtlMap<char const *,IEntityFactory *,unsigned short>::CKeyLess,CUtlMemory<UtlRBTreeNode_t<CUtlMap<char const *,IEntityFactory *,unsigned short>::Node_t,unsigned short>,unsigned short> >::Parent
	mov	WORD PTR _parent$4[ebp], ax

; 772  : 		I grandparent = Parent(parent);

	movzx	eax, WORD PTR _parent$4[ebp]
	push	eax
	mov	ecx, DWORD PTR _this$[ebp]
	call	?Parent@?$CUtlRBTree@UNode_t@?$CUtlMap@PBDPAVIEntityFactory@@G@@GVCKeyLess@2@V?$CUtlMemory@U?$UtlRBTreeNode_t@UNode_t@?$CUtlMap@PBDPAVIEntityFactory@@G@@G@@G@@@@QBEGG@Z ; CUtlRBTree<CUtlMap<char const *,IEntityFactory *,unsigned short>::Node_t,unsigned short,CUtlMap<char const *,IEntityFactory *,unsigned short>::CKeyLess,CUtlMemory<UtlRBTreeNode_t<CUtlMap<char const *,IEntityFactory *,unsigned short>::Node_t,unsigned short>,unsigned short> >::Parent
	mov	WORD PTR _grandparent$3[ebp], ax

; 773  : 
; 774  : 		/* we have a violation */
; 775  : 		if (IsLeftChild(parent))

	movzx	eax, WORD PTR _parent$4[ebp]
	push	eax
	mov	ecx, DWORD PTR _this$[ebp]
	call	?IsLeftChild@?$CUtlRBTree@UNode_t@?$CUtlMap@PBDPAVIEntityFactory@@G@@GVCKeyLess@2@V?$CUtlMemory@U?$UtlRBTreeNode_t@UNode_t@?$CUtlMap@PBDPAVIEntityFactory@@G@@G@@G@@@@QBE_NG@Z ; CUtlRBTree<CUtlMap<char const *,IEntityFactory *,unsigned short>::Node_t,unsigned short,CUtlMap<char const *,IEntityFactory *,unsigned short>::CKeyLess,CUtlMemory<UtlRBTreeNode_t<CUtlMap<char const *,IEntityFactory *,unsigned short>::Node_t,unsigned short>,unsigned short> >::IsLeftChild
	movzx	ecx, al
	test	ecx, ecx
	je	$LN4@InsertReba

; 776  : 		{
; 777  : 			I uncle = RightChild(grandparent);

	movzx	eax, WORD PTR _grandparent$3[ebp]
	push	eax
	mov	ecx, DWORD PTR _this$[ebp]
	call	?RightChild@?$CUtlRBTree@UNode_t@?$CUtlMap@PBDPAVIEntityFactory@@G@@GVCKeyLess@2@V?$CUtlMemory@U?$UtlRBTreeNode_t@UNode_t@?$CUtlMap@PBDPAVIEntityFactory@@G@@G@@G@@@@QBEGG@Z ; CUtlRBTree<CUtlMap<char const *,IEntityFactory *,unsigned short>::Node_t,unsigned short,CUtlMap<char const *,IEntityFactory *,unsigned short>::CKeyLess,CUtlMemory<UtlRBTreeNode_t<CUtlMap<char const *,IEntityFactory *,unsigned short>::Node_t,unsigned short>,unsigned short> >::RightChild
	mov	WORD PTR _uncle$2[ebp], ax

; 778  : 			if (IsRed(uncle)) 

	movzx	eax, WORD PTR _uncle$2[ebp]
	push	eax
	mov	ecx, DWORD PTR _this$[ebp]
	call	?IsRed@?$CUtlRBTree@UNode_t@?$CUtlMap@PBDPAVIEntityFactory@@G@@GVCKeyLess@2@V?$CUtlMemory@U?$UtlRBTreeNode_t@UNode_t@?$CUtlMap@PBDPAVIEntityFactory@@G@@G@@G@@@@IBE_NG@Z ; CUtlRBTree<CUtlMap<char const *,IEntityFactory *,unsigned short>::Node_t,unsigned short,CUtlMap<char const *,IEntityFactory *,unsigned short>::CKeyLess,CUtlMemory<UtlRBTreeNode_t<CUtlMap<char const *,IEntityFactory *,unsigned short>::Node_t,unsigned short>,unsigned short> >::IsRed
	movzx	ecx, al
	test	ecx, ecx
	je	SHORT $LN6@InsertReba

; 779  : 			{
; 780  : 				/* uncle is RED */
; 781  : 				SetColor(parent, BLACK);

	push	1
	movzx	eax, WORD PTR _parent$4[ebp]
	push	eax
	mov	ecx, DWORD PTR _this$[ebp]
	call	?SetColor@?$CUtlRBTree@UNode_t@?$CUtlMap@PBDPAVIEntityFactory@@G@@GVCKeyLess@2@V?$CUtlMemory@U?$UtlRBTreeNode_t@UNode_t@?$CUtlMap@PBDPAVIEntityFactory@@G@@G@@G@@@@IAEXGW4NodeColor_t@1@@Z ; CUtlRBTree<CUtlMap<char const *,IEntityFactory *,unsigned short>::Node_t,unsigned short,CUtlMap<char const *,IEntityFactory *,unsigned short>::CKeyLess,CUtlMemory<UtlRBTreeNode_t<CUtlMap<char const *,IEntityFactory *,unsigned short>::Node_t,unsigned short>,unsigned short> >::SetColor

; 782  : 				SetColor(uncle, BLACK);

	push	1
	movzx	eax, WORD PTR _uncle$2[ebp]
	push	eax
	mov	ecx, DWORD PTR _this$[ebp]
	call	?SetColor@?$CUtlRBTree@UNode_t@?$CUtlMap@PBDPAVIEntityFactory@@G@@GVCKeyLess@2@V?$CUtlMemory@U?$UtlRBTreeNode_t@UNode_t@?$CUtlMap@PBDPAVIEntityFactory@@G@@G@@G@@@@IAEXGW4NodeColor_t@1@@Z ; CUtlRBTree<CUtlMap<char const *,IEntityFactory *,unsigned short>::Node_t,unsigned short,CUtlMap<char const *,IEntityFactory *,unsigned short>::CKeyLess,CUtlMemory<UtlRBTreeNode_t<CUtlMap<char const *,IEntityFactory *,unsigned short>::Node_t,unsigned short>,unsigned short> >::SetColor

; 783  : 				SetColor(grandparent, RED);

	push	0
	movzx	eax, WORD PTR _grandparent$3[ebp]
	push	eax
	mov	ecx, DWORD PTR _this$[ebp]
	call	?SetColor@?$CUtlRBTree@UNode_t@?$CUtlMap@PBDPAVIEntityFactory@@G@@GVCKeyLess@2@V?$CUtlMemory@U?$UtlRBTreeNode_t@UNode_t@?$CUtlMap@PBDPAVIEntityFactory@@G@@G@@G@@@@IAEXGW4NodeColor_t@1@@Z ; CUtlRBTree<CUtlMap<char const *,IEntityFactory *,unsigned short>::Node_t,unsigned short,CUtlMap<char const *,IEntityFactory *,unsigned short>::CKeyLess,CUtlMemory<UtlRBTreeNode_t<CUtlMap<char const *,IEntityFactory *,unsigned short>::Node_t,unsigned short>,unsigned short> >::SetColor

; 784  : 				elem = grandparent;

	mov	ax, WORD PTR _grandparent$3[ebp]
	mov	WORD PTR _elem$[ebp], ax

; 785  : 			} 
; 786  : 			else 

	jmp	SHORT $LN7@InsertReba
$LN6@InsertReba:

; 787  : 			{
; 788  : 				/* uncle is BLACK */
; 789  : 				if (IsRightChild(elem))

	movzx	eax, WORD PTR _elem$[ebp]
	push	eax
	mov	ecx, DWORD PTR _this$[ebp]
	call	?IsRightChild@?$CUtlRBTree@UNode_t@?$CUtlMap@PBDPAVIEntityFactory@@G@@GVCKeyLess@2@V?$CUtlMemory@U?$UtlRBTreeNode_t@UNode_t@?$CUtlMap@PBDPAVIEntityFactory@@G@@G@@G@@@@QBE_NG@Z ; CUtlRBTree<CUtlMap<char const *,IEntityFactory *,unsigned short>::Node_t,unsigned short,CUtlMap<char const *,IEntityFactory *,unsigned short>::CKeyLess,CUtlMemory<UtlRBTreeNode_t<CUtlMap<char const *,IEntityFactory *,unsigned short>::Node_t,unsigned short>,unsigned short> >::IsRightChild
	movzx	ecx, al
	test	ecx, ecx
	je	SHORT $LN8@InsertReba

; 790  : 				{
; 791  : 					/* make x a left child, will change parent and grandparent */
; 792  : 					elem = parent;

	mov	ax, WORD PTR _parent$4[ebp]
	mov	WORD PTR _elem$[ebp], ax

; 793  : 					RotateLeft(elem);

	movzx	eax, WORD PTR _elem$[ebp]
	push	eax
	mov	ecx, DWORD PTR _this$[ebp]
	call	?RotateLeft@?$CUtlRBTree@UNode_t@?$CUtlMap@PBDPAVIEntityFactory@@G@@GVCKeyLess@2@V?$CUtlMemory@U?$UtlRBTreeNode_t@UNode_t@?$CUtlMap@PBDPAVIEntityFactory@@G@@G@@G@@@@IAEXG@Z ; CUtlRBTree<CUtlMap<char const *,IEntityFactory *,unsigned short>::Node_t,unsigned short,CUtlMap<char const *,IEntityFactory *,unsigned short>::CKeyLess,CUtlMemory<UtlRBTreeNode_t<CUtlMap<char const *,IEntityFactory *,unsigned short>::Node_t,unsigned short>,unsigned short> >::RotateLeft

; 794  : 					parent = Parent(elem);

	movzx	eax, WORD PTR _elem$[ebp]
	push	eax
	mov	ecx, DWORD PTR _this$[ebp]
	call	?Parent@?$CUtlRBTree@UNode_t@?$CUtlMap@PBDPAVIEntityFactory@@G@@GVCKeyLess@2@V?$CUtlMemory@U?$UtlRBTreeNode_t@UNode_t@?$CUtlMap@PBDPAVIEntityFactory@@G@@G@@G@@@@QBEGG@Z ; CUtlRBTree<CUtlMap<char const *,IEntityFactory *,unsigned short>::Node_t,unsigned short,CUtlMap<char const *,IEntityFactory *,unsigned short>::CKeyLess,CUtlMemory<UtlRBTreeNode_t<CUtlMap<char const *,IEntityFactory *,unsigned short>::Node_t,unsigned short>,unsigned short> >::Parent
	mov	WORD PTR _parent$4[ebp], ax

; 795  : 					grandparent = Parent(parent);

	movzx	eax, WORD PTR _parent$4[ebp]
	push	eax
	mov	ecx, DWORD PTR _this$[ebp]
	call	?Parent@?$CUtlRBTree@UNode_t@?$CUtlMap@PBDPAVIEntityFactory@@G@@GVCKeyLess@2@V?$CUtlMemory@U?$UtlRBTreeNode_t@UNode_t@?$CUtlMap@PBDPAVIEntityFactory@@G@@G@@G@@@@QBEGG@Z ; CUtlRBTree<CUtlMap<char const *,IEntityFactory *,unsigned short>::Node_t,unsigned short,CUtlMap<char const *,IEntityFactory *,unsigned short>::CKeyLess,CUtlMemory<UtlRBTreeNode_t<CUtlMap<char const *,IEntityFactory *,unsigned short>::Node_t,unsigned short>,unsigned short> >::Parent
	mov	WORD PTR _grandparent$3[ebp], ax
$LN8@InsertReba:

; 796  : 				}
; 797  : 				/* recolor and rotate */
; 798  : 				SetColor(parent, BLACK);

	push	1
	movzx	eax, WORD PTR _parent$4[ebp]
	push	eax
	mov	ecx, DWORD PTR _this$[ebp]
	call	?SetColor@?$CUtlRBTree@UNode_t@?$CUtlMap@PBDPAVIEntityFactory@@G@@GVCKeyLess@2@V?$CUtlMemory@U?$UtlRBTreeNode_t@UNode_t@?$CUtlMap@PBDPAVIEntityFactory@@G@@G@@G@@@@IAEXGW4NodeColor_t@1@@Z ; CUtlRBTree<CUtlMap<char const *,IEntityFactory *,unsigned short>::Node_t,unsigned short,CUtlMap<char const *,IEntityFactory *,unsigned short>::CKeyLess,CUtlMemory<UtlRBTreeNode_t<CUtlMap<char const *,IEntityFactory *,unsigned short>::Node_t,unsigned short>,unsigned short> >::SetColor

; 799  : 				SetColor(grandparent, RED);

	push	0
	movzx	eax, WORD PTR _grandparent$3[ebp]
	push	eax
	mov	ecx, DWORD PTR _this$[ebp]
	call	?SetColor@?$CUtlRBTree@UNode_t@?$CUtlMap@PBDPAVIEntityFactory@@G@@GVCKeyLess@2@V?$CUtlMemory@U?$UtlRBTreeNode_t@UNode_t@?$CUtlMap@PBDPAVIEntityFactory@@G@@G@@G@@@@IAEXGW4NodeColor_t@1@@Z ; CUtlRBTree<CUtlMap<char const *,IEntityFactory *,unsigned short>::Node_t,unsigned short,CUtlMap<char const *,IEntityFactory *,unsigned short>::CKeyLess,CUtlMemory<UtlRBTreeNode_t<CUtlMap<char const *,IEntityFactory *,unsigned short>::Node_t,unsigned short>,unsigned short> >::SetColor

; 800  : 				RotateRight(grandparent);

	movzx	eax, WORD PTR _grandparent$3[ebp]
	push	eax
	mov	ecx, DWORD PTR _this$[ebp]
	call	?RotateRight@?$CUtlRBTree@UNode_t@?$CUtlMap@PBDPAVIEntityFactory@@G@@GVCKeyLess@2@V?$CUtlMemory@U?$UtlRBTreeNode_t@UNode_t@?$CUtlMap@PBDPAVIEntityFactory@@G@@G@@G@@@@IAEXG@Z ; CUtlRBTree<CUtlMap<char const *,IEntityFactory *,unsigned short>::Node_t,unsigned short,CUtlMap<char const *,IEntityFactory *,unsigned short>::CKeyLess,CUtlMemory<UtlRBTreeNode_t<CUtlMap<char const *,IEntityFactory *,unsigned short>::Node_t,unsigned short>,unsigned short> >::RotateRight
$LN7@InsertReba:

; 801  : 			}
; 802  : 		} 
; 803  : 		else 

	jmp	$LN5@InsertReba
$LN4@InsertReba:

; 804  : 		{
; 805  : 			/* mirror image of above code */
; 806  : 			I uncle = LeftChild(grandparent);

	movzx	eax, WORD PTR _grandparent$3[ebp]
	push	eax
	mov	ecx, DWORD PTR _this$[ebp]
	call	?LeftChild@?$CUtlRBTree@UNode_t@?$CUtlMap@PBDPAVIEntityFactory@@G@@GVCKeyLess@2@V?$CUtlMemory@U?$UtlRBTreeNode_t@UNode_t@?$CUtlMap@PBDPAVIEntityFactory@@G@@G@@G@@@@QBEGG@Z ; CUtlRBTree<CUtlMap<char const *,IEntityFactory *,unsigned short>::Node_t,unsigned short,CUtlMap<char const *,IEntityFactory *,unsigned short>::CKeyLess,CUtlMemory<UtlRBTreeNode_t<CUtlMap<char const *,IEntityFactory *,unsigned short>::Node_t,unsigned short>,unsigned short> >::LeftChild
	mov	WORD PTR _uncle$1[ebp], ax

; 807  : 			if (IsRed(uncle)) 

	movzx	eax, WORD PTR _uncle$1[ebp]
	push	eax
	mov	ecx, DWORD PTR _this$[ebp]
	call	?IsRed@?$CUtlRBTree@UNode_t@?$CUtlMap@PBDPAVIEntityFactory@@G@@GVCKeyLess@2@V?$CUtlMemory@U?$UtlRBTreeNode_t@UNode_t@?$CUtlMap@PBDPAVIEntityFactory@@G@@G@@G@@@@IBE_NG@Z ; CUtlRBTree<CUtlMap<char const *,IEntityFactory *,unsigned short>::Node_t,unsigned short,CUtlMap<char const *,IEntityFactory *,unsigned short>::CKeyLess,CUtlMemory<UtlRBTreeNode_t<CUtlMap<char const *,IEntityFactory *,unsigned short>::Node_t,unsigned short>,unsigned short> >::IsRed
	movzx	ecx, al
	test	ecx, ecx
	je	SHORT $LN9@InsertReba

; 808  : 			{
; 809  : 				/* uncle is RED */
; 810  : 				SetColor(parent, BLACK);

	push	1
	movzx	eax, WORD PTR _parent$4[ebp]
	push	eax
	mov	ecx, DWORD PTR _this$[ebp]
	call	?SetColor@?$CUtlRBTree@UNode_t@?$CUtlMap@PBDPAVIEntityFactory@@G@@GVCKeyLess@2@V?$CUtlMemory@U?$UtlRBTreeNode_t@UNode_t@?$CUtlMap@PBDPAVIEntityFactory@@G@@G@@G@@@@IAEXGW4NodeColor_t@1@@Z ; CUtlRBTree<CUtlMap<char const *,IEntityFactory *,unsigned short>::Node_t,unsigned short,CUtlMap<char const *,IEntityFactory *,unsigned short>::CKeyLess,CUtlMemory<UtlRBTreeNode_t<CUtlMap<char const *,IEntityFactory *,unsigned short>::Node_t,unsigned short>,unsigned short> >::SetColor

; 811  : 				SetColor(uncle, BLACK);

	push	1
	movzx	eax, WORD PTR _uncle$1[ebp]
	push	eax
	mov	ecx, DWORD PTR _this$[ebp]
	call	?SetColor@?$CUtlRBTree@UNode_t@?$CUtlMap@PBDPAVIEntityFactory@@G@@GVCKeyLess@2@V?$CUtlMemory@U?$UtlRBTreeNode_t@UNode_t@?$CUtlMap@PBDPAVIEntityFactory@@G@@G@@G@@@@IAEXGW4NodeColor_t@1@@Z ; CUtlRBTree<CUtlMap<char const *,IEntityFactory *,unsigned short>::Node_t,unsigned short,CUtlMap<char const *,IEntityFactory *,unsigned short>::CKeyLess,CUtlMemory<UtlRBTreeNode_t<CUtlMap<char const *,IEntityFactory *,unsigned short>::Node_t,unsigned short>,unsigned short> >::SetColor

; 812  : 				SetColor(grandparent, RED);

	push	0
	movzx	eax, WORD PTR _grandparent$3[ebp]
	push	eax
	mov	ecx, DWORD PTR _this$[ebp]
	call	?SetColor@?$CUtlRBTree@UNode_t@?$CUtlMap@PBDPAVIEntityFactory@@G@@GVCKeyLess@2@V?$CUtlMemory@U?$UtlRBTreeNode_t@UNode_t@?$CUtlMap@PBDPAVIEntityFactory@@G@@G@@G@@@@IAEXGW4NodeColor_t@1@@Z ; CUtlRBTree<CUtlMap<char const *,IEntityFactory *,unsigned short>::Node_t,unsigned short,CUtlMap<char const *,IEntityFactory *,unsigned short>::CKeyLess,CUtlMemory<UtlRBTreeNode_t<CUtlMap<char const *,IEntityFactory *,unsigned short>::Node_t,unsigned short>,unsigned short> >::SetColor

; 813  : 				elem = grandparent;

	mov	ax, WORD PTR _grandparent$3[ebp]
	mov	WORD PTR _elem$[ebp], ax

; 814  : 			} 
; 815  : 			else 

	jmp	SHORT $LN5@InsertReba
$LN9@InsertReba:

; 816  : 			{
; 817  : 				/* uncle is BLACK */
; 818  : 				if (IsLeftChild(elem))

	movzx	eax, WORD PTR _elem$[ebp]
	push	eax
	mov	ecx, DWORD PTR _this$[ebp]
	call	?IsLeftChild@?$CUtlRBTree@UNode_t@?$CUtlMap@PBDPAVIEntityFactory@@G@@GVCKeyLess@2@V?$CUtlMemory@U?$UtlRBTreeNode_t@UNode_t@?$CUtlMap@PBDPAVIEntityFactory@@G@@G@@G@@@@QBE_NG@Z ; CUtlRBTree<CUtlMap<char const *,IEntityFactory *,unsigned short>::Node_t,unsigned short,CUtlMap<char const *,IEntityFactory *,unsigned short>::CKeyLess,CUtlMemory<UtlRBTreeNode_t<CUtlMap<char const *,IEntityFactory *,unsigned short>::Node_t,unsigned short>,unsigned short> >::IsLeftChild
	movzx	ecx, al
	test	ecx, ecx
	je	SHORT $LN11@InsertReba

; 819  : 				{
; 820  : 					/* make x a right child, will change parent and grandparent */
; 821  : 					elem = parent;

	mov	ax, WORD PTR _parent$4[ebp]
	mov	WORD PTR _elem$[ebp], ax

; 822  : 					RotateRight(parent);

	movzx	eax, WORD PTR _parent$4[ebp]
	push	eax
	mov	ecx, DWORD PTR _this$[ebp]
	call	?RotateRight@?$CUtlRBTree@UNode_t@?$CUtlMap@PBDPAVIEntityFactory@@G@@GVCKeyLess@2@V?$CUtlMemory@U?$UtlRBTreeNode_t@UNode_t@?$CUtlMap@PBDPAVIEntityFactory@@G@@G@@G@@@@IAEXG@Z ; CUtlRBTree<CUtlMap<char const *,IEntityFactory *,unsigned short>::Node_t,unsigned short,CUtlMap<char const *,IEntityFactory *,unsigned short>::CKeyLess,CUtlMemory<UtlRBTreeNode_t<CUtlMap<char const *,IEntityFactory *,unsigned short>::Node_t,unsigned short>,unsigned short> >::RotateRight

; 823  : 					parent = Parent(elem);

	movzx	eax, WORD PTR _elem$[ebp]
	push	eax
	mov	ecx, DWORD PTR _this$[ebp]
	call	?Parent@?$CUtlRBTree@UNode_t@?$CUtlMap@PBDPAVIEntityFactory@@G@@GVCKeyLess@2@V?$CUtlMemory@U?$UtlRBTreeNode_t@UNode_t@?$CUtlMap@PBDPAVIEntityFactory@@G@@G@@G@@@@QBEGG@Z ; CUtlRBTree<CUtlMap<char const *,IEntityFactory *,unsigned short>::Node_t,unsigned short,CUtlMap<char const *,IEntityFactory *,unsigned short>::CKeyLess,CUtlMemory<UtlRBTreeNode_t<CUtlMap<char const *,IEntityFactory *,unsigned short>::Node_t,unsigned short>,unsigned short> >::Parent
	mov	WORD PTR _parent$4[ebp], ax

; 824  : 					grandparent = Parent(parent);

	movzx	eax, WORD PTR _parent$4[ebp]
	push	eax
	mov	ecx, DWORD PTR _this$[ebp]
	call	?Parent@?$CUtlRBTree@UNode_t@?$CUtlMap@PBDPAVIEntityFactory@@G@@GVCKeyLess@2@V?$CUtlMemory@U?$UtlRBTreeNode_t@UNode_t@?$CUtlMap@PBDPAVIEntityFactory@@G@@G@@G@@@@QBEGG@Z ; CUtlRBTree<CUtlMap<char const *,IEntityFactory *,unsigned short>::Node_t,unsigned short,CUtlMap<char const *,IEntityFactory *,unsigned short>::CKeyLess,CUtlMemory<UtlRBTreeNode_t<CUtlMap<char const *,IEntityFactory *,unsigned short>::Node_t,unsigned short>,unsigned short> >::Parent
	mov	WORD PTR _grandparent$3[ebp], ax
$LN11@InsertReba:

; 825  : 				}
; 826  : 				/* recolor and rotate */
; 827  : 				SetColor(parent, BLACK);

	push	1
	movzx	eax, WORD PTR _parent$4[ebp]
	push	eax
	mov	ecx, DWORD PTR _this$[ebp]
	call	?SetColor@?$CUtlRBTree@UNode_t@?$CUtlMap@PBDPAVIEntityFactory@@G@@GVCKeyLess@2@V?$CUtlMemory@U?$UtlRBTreeNode_t@UNode_t@?$CUtlMap@PBDPAVIEntityFactory@@G@@G@@G@@@@IAEXGW4NodeColor_t@1@@Z ; CUtlRBTree<CUtlMap<char const *,IEntityFactory *,unsigned short>::Node_t,unsigned short,CUtlMap<char const *,IEntityFactory *,unsigned short>::CKeyLess,CUtlMemory<UtlRBTreeNode_t<CUtlMap<char const *,IEntityFactory *,unsigned short>::Node_t,unsigned short>,unsigned short> >::SetColor

; 828  : 				SetColor(grandparent, RED);

	push	0
	movzx	eax, WORD PTR _grandparent$3[ebp]
	push	eax
	mov	ecx, DWORD PTR _this$[ebp]
	call	?SetColor@?$CUtlRBTree@UNode_t@?$CUtlMap@PBDPAVIEntityFactory@@G@@GVCKeyLess@2@V?$CUtlMemory@U?$UtlRBTreeNode_t@UNode_t@?$CUtlMap@PBDPAVIEntityFactory@@G@@G@@G@@@@IAEXGW4NodeColor_t@1@@Z ; CUtlRBTree<CUtlMap<char const *,IEntityFactory *,unsigned short>::Node_t,unsigned short,CUtlMap<char const *,IEntityFactory *,unsigned short>::CKeyLess,CUtlMemory<UtlRBTreeNode_t<CUtlMap<char const *,IEntityFactory *,unsigned short>::Node_t,unsigned short>,unsigned short> >::SetColor

; 829  : 				RotateLeft(grandparent);

	movzx	eax, WORD PTR _grandparent$3[ebp]
	push	eax
	mov	ecx, DWORD PTR _this$[ebp]
	call	?RotateLeft@?$CUtlRBTree@UNode_t@?$CUtlMap@PBDPAVIEntityFactory@@G@@GVCKeyLess@2@V?$CUtlMemory@U?$UtlRBTreeNode_t@UNode_t@?$CUtlMap@PBDPAVIEntityFactory@@G@@G@@G@@@@IAEXG@Z ; CUtlRBTree<CUtlMap<char const *,IEntityFactory *,unsigned short>::Node_t,unsigned short,CUtlMap<char const *,IEntityFactory *,unsigned short>::CKeyLess,CUtlMemory<UtlRBTreeNode_t<CUtlMap<char const *,IEntityFactory *,unsigned short>::Node_t,unsigned short>,unsigned short> >::RotateLeft
$LN5@InsertReba:

; 830  : 			}
; 831  : 		}
; 832  : 	}

	jmp	$LN2@InsertReba
$LN3@InsertReba:

; 833  : 	SetColor( m_Root, BLACK );

	push	1
	mov	eax, DWORD PTR _this$[ebp]
	movzx	ecx, WORD PTR [eax+16]
	push	ecx
	mov	ecx, DWORD PTR _this$[ebp]
	call	?SetColor@?$CUtlRBTree@UNode_t@?$CUtlMap@PBDPAVIEntityFactory@@G@@GVCKeyLess@2@V?$CUtlMemory@U?$UtlRBTreeNode_t@UNode_t@?$CUtlMap@PBDPAVIEntityFactory@@G@@G@@G@@@@IAEXGW4NodeColor_t@1@@Z ; CUtlRBTree<CUtlMap<char const *,IEntityFactory *,unsigned short>::Node_t,unsigned short,CUtlMap<char const *,IEntityFactory *,unsigned short>::CKeyLess,CUtlMemory<UtlRBTreeNode_t<CUtlMap<char const *,IEntityFactory *,unsigned short>::Node_t,unsigned short>,unsigned short> >::SetColor

; 834  : }

	pop	edi
	pop	esi
	pop	ebx
	mov	esp, ebp
	pop	ebp
	ret	4
?InsertRebalance@?$CUtlRBTree@UNode_t@?$CUtlMap@PBDPAVIEntityFactory@@G@@GVCKeyLess@2@V?$CUtlMemory@U?$UtlRBTreeNode_t@UNode_t@?$CUtlMap@PBDPAVIEntityFactory@@G@@G@@G@@@@IAEXG@Z ENDP ; CUtlRBTree<CUtlMap<char const *,IEntityFactory *,unsigned short>::Node_t,unsigned short,CUtlMap<char const *,IEntityFactory *,unsigned short>::CKeyLess,CUtlMemory<UtlRBTreeNode_t<CUtlMap<char const *,IEntityFactory *,unsigned short>::Node_t,unsigned short>,unsigned short> >::InsertRebalance
_TEXT	ENDS
; Function compile flags: /Odtp /ZI
; File d:\!diffusion 2020\source code 2022\client-server\game_shared\utlrbtree.h
;	COMDAT ?RotateRight@?$CUtlRBTree@UNode_t@?$CUtlMap@PBDPAVIEntityFactory@@G@@GVCKeyLess@2@V?$CUtlMemory@U?$UtlRBTreeNode_t@UNode_t@?$CUtlMap@PBDPAVIEntityFactory@@G@@G@@G@@@@IAEXG@Z
_TEXT	SEGMENT
_leftchild$ = -8					; size = 2
_this$ = -4						; size = 4
_elem$ = 8						; size = 2
?RotateRight@?$CUtlRBTree@UNode_t@?$CUtlMap@PBDPAVIEntityFactory@@G@@GVCKeyLess@2@V?$CUtlMemory@U?$UtlRBTreeNode_t@UNode_t@?$CUtlMap@PBDPAVIEntityFactory@@G@@G@@G@@@@IAEXG@Z PROC ; CUtlRBTree<CUtlMap<char const *,IEntityFactory *,unsigned short>::Node_t,unsigned short,CUtlMap<char const *,IEntityFactory *,unsigned short>::CKeyLess,CUtlMemory<UtlRBTreeNode_t<CUtlMap<char const *,IEntityFactory *,unsigned short>::Node_t,unsigned short>,unsigned short> >::RotateRight, COMDAT
; _this$ = ecx

; 738  : {

	push	ebp
	mov	ebp, esp
	sub	esp, 72					; 00000048H
	push	ebx
	push	esi
	push	edi
	mov	DWORD PTR _this$[ebp], ecx

; 739  : 	I leftchild = LeftChild(elem);

	movzx	eax, WORD PTR _elem$[ebp]
	push	eax
	mov	ecx, DWORD PTR _this$[ebp]
	call	?LeftChild@?$CUtlRBTree@UNode_t@?$CUtlMap@PBDPAVIEntityFactory@@G@@GVCKeyLess@2@V?$CUtlMemory@U?$UtlRBTreeNode_t@UNode_t@?$CUtlMap@PBDPAVIEntityFactory@@G@@G@@G@@@@QBEGG@Z ; CUtlRBTree<CUtlMap<char const *,IEntityFactory *,unsigned short>::Node_t,unsigned short,CUtlMap<char const *,IEntityFactory *,unsigned short>::CKeyLess,CUtlMemory<UtlRBTreeNode_t<CUtlMap<char const *,IEntityFactory *,unsigned short>::Node_t,unsigned short>,unsigned short> >::LeftChild
	mov	WORD PTR _leftchild$[ebp], ax

; 740  : 	SetLeftChild( elem, RightChild(leftchild) );

	movzx	eax, WORD PTR _leftchild$[ebp]
	push	eax
	mov	ecx, DWORD PTR _this$[ebp]
	call	?RightChild@?$CUtlRBTree@UNode_t@?$CUtlMap@PBDPAVIEntityFactory@@G@@GVCKeyLess@2@V?$CUtlMemory@U?$UtlRBTreeNode_t@UNode_t@?$CUtlMap@PBDPAVIEntityFactory@@G@@G@@G@@@@QBEGG@Z ; CUtlRBTree<CUtlMap<char const *,IEntityFactory *,unsigned short>::Node_t,unsigned short,CUtlMap<char const *,IEntityFactory *,unsigned short>::CKeyLess,CUtlMemory<UtlRBTreeNode_t<CUtlMap<char const *,IEntityFactory *,unsigned short>::Node_t,unsigned short>,unsigned short> >::RightChild
	movzx	ecx, ax
	push	ecx
	movzx	edx, WORD PTR _elem$[ebp]
	push	edx
	mov	ecx, DWORD PTR _this$[ebp]
	call	?SetLeftChild@?$CUtlRBTree@UNode_t@?$CUtlMap@PBDPAVIEntityFactory@@G@@GVCKeyLess@2@V?$CUtlMemory@U?$UtlRBTreeNode_t@UNode_t@?$CUtlMap@PBDPAVIEntityFactory@@G@@G@@G@@@@IAEXGG@Z ; CUtlRBTree<CUtlMap<char const *,IEntityFactory *,unsigned short>::Node_t,unsigned short,CUtlMap<char const *,IEntityFactory *,unsigned short>::CKeyLess,CUtlMemory<UtlRBTreeNode_t<CUtlMap<char const *,IEntityFactory *,unsigned short>::Node_t,unsigned short>,unsigned short> >::SetLeftChild

; 741  : 	if (RightChild(leftchild) != InvalidIndex())

	movzx	eax, WORD PTR _leftchild$[ebp]
	push	eax
	mov	ecx, DWORD PTR _this$[ebp]
	call	?RightChild@?$CUtlRBTree@UNode_t@?$CUtlMap@PBDPAVIEntityFactory@@G@@GVCKeyLess@2@V?$CUtlMemory@U?$UtlRBTreeNode_t@UNode_t@?$CUtlMap@PBDPAVIEntityFactory@@G@@G@@G@@@@QBEGG@Z ; CUtlRBTree<CUtlMap<char const *,IEntityFactory *,unsigned short>::Node_t,unsigned short,CUtlMap<char const *,IEntityFactory *,unsigned short>::CKeyLess,CUtlMemory<UtlRBTreeNode_t<CUtlMap<char const *,IEntityFactory *,unsigned short>::Node_t,unsigned short>,unsigned short> >::RightChild
	movzx	esi, ax
	call	?InvalidIndex@?$CUtlRBTree@UNode_t@?$CUtlMap@PBDPAVIEntityFactory@@G@@GVCKeyLess@2@V?$CUtlMemory@U?$UtlRBTreeNode_t@UNode_t@?$CUtlMap@PBDPAVIEntityFactory@@G@@G@@G@@@@SAGXZ ; CUtlRBTree<CUtlMap<char const *,IEntityFactory *,unsigned short>::Node_t,unsigned short,CUtlMap<char const *,IEntityFactory *,unsigned short>::CKeyLess,CUtlMemory<UtlRBTreeNode_t<CUtlMap<char const *,IEntityFactory *,unsigned short>::Node_t,unsigned short>,unsigned short> >::InvalidIndex
	movzx	ecx, ax
	cmp	esi, ecx
	je	SHORT $LN2@RotateRigh

; 742  : 		SetParent( RightChild(leftchild), elem );

	movzx	eax, WORD PTR _elem$[ebp]
	push	eax
	movzx	ecx, WORD PTR _leftchild$[ebp]
	push	ecx
	mov	ecx, DWORD PTR _this$[ebp]
	call	?RightChild@?$CUtlRBTree@UNode_t@?$CUtlMap@PBDPAVIEntityFactory@@G@@GVCKeyLess@2@V?$CUtlMemory@U?$UtlRBTreeNode_t@UNode_t@?$CUtlMap@PBDPAVIEntityFactory@@G@@G@@G@@@@QBEGG@Z ; CUtlRBTree<CUtlMap<char const *,IEntityFactory *,unsigned short>::Node_t,unsigned short,CUtlMap<char const *,IEntityFactory *,unsigned short>::CKeyLess,CUtlMemory<UtlRBTreeNode_t<CUtlMap<char const *,IEntityFactory *,unsigned short>::Node_t,unsigned short>,unsigned short> >::RightChild
	movzx	edx, ax
	push	edx
	mov	ecx, DWORD PTR _this$[ebp]
	call	?SetParent@?$CUtlRBTree@UNode_t@?$CUtlMap@PBDPAVIEntityFactory@@G@@GVCKeyLess@2@V?$CUtlMemory@U?$UtlRBTreeNode_t@UNode_t@?$CUtlMap@PBDPAVIEntityFactory@@G@@G@@G@@@@IAEXGG@Z ; CUtlRBTree<CUtlMap<char const *,IEntityFactory *,unsigned short>::Node_t,unsigned short,CUtlMap<char const *,IEntityFactory *,unsigned short>::CKeyLess,CUtlMemory<UtlRBTreeNode_t<CUtlMap<char const *,IEntityFactory *,unsigned short>::Node_t,unsigned short>,unsigned short> >::SetParent
$LN2@RotateRigh:

; 743  : 
; 744  : 	if (leftchild != InvalidIndex())

	movzx	esi, WORD PTR _leftchild$[ebp]
	call	?InvalidIndex@?$CUtlRBTree@UNode_t@?$CUtlMap@PBDPAVIEntityFactory@@G@@GVCKeyLess@2@V?$CUtlMemory@U?$UtlRBTreeNode_t@UNode_t@?$CUtlMap@PBDPAVIEntityFactory@@G@@G@@G@@@@SAGXZ ; CUtlRBTree<CUtlMap<char const *,IEntityFactory *,unsigned short>::Node_t,unsigned short,CUtlMap<char const *,IEntityFactory *,unsigned short>::CKeyLess,CUtlMemory<UtlRBTreeNode_t<CUtlMap<char const *,IEntityFactory *,unsigned short>::Node_t,unsigned short>,unsigned short> >::InvalidIndex
	movzx	eax, ax
	cmp	esi, eax
	je	SHORT $LN3@RotateRigh

; 745  : 		SetParent( leftchild, Parent(elem) );

	movzx	eax, WORD PTR _elem$[ebp]
	push	eax
	mov	ecx, DWORD PTR _this$[ebp]
	call	?Parent@?$CUtlRBTree@UNode_t@?$CUtlMap@PBDPAVIEntityFactory@@G@@GVCKeyLess@2@V?$CUtlMemory@U?$UtlRBTreeNode_t@UNode_t@?$CUtlMap@PBDPAVIEntityFactory@@G@@G@@G@@@@QBEGG@Z ; CUtlRBTree<CUtlMap<char const *,IEntityFactory *,unsigned short>::Node_t,unsigned short,CUtlMap<char const *,IEntityFactory *,unsigned short>::CKeyLess,CUtlMemory<UtlRBTreeNode_t<CUtlMap<char const *,IEntityFactory *,unsigned short>::Node_t,unsigned short>,unsigned short> >::Parent
	movzx	ecx, ax
	push	ecx
	movzx	edx, WORD PTR _leftchild$[ebp]
	push	edx
	mov	ecx, DWORD PTR _this$[ebp]
	call	?SetParent@?$CUtlRBTree@UNode_t@?$CUtlMap@PBDPAVIEntityFactory@@G@@GVCKeyLess@2@V?$CUtlMemory@U?$UtlRBTreeNode_t@UNode_t@?$CUtlMap@PBDPAVIEntityFactory@@G@@G@@G@@@@IAEXGG@Z ; CUtlRBTree<CUtlMap<char const *,IEntityFactory *,unsigned short>::Node_t,unsigned short,CUtlMap<char const *,IEntityFactory *,unsigned short>::CKeyLess,CUtlMemory<UtlRBTreeNode_t<CUtlMap<char const *,IEntityFactory *,unsigned short>::Node_t,unsigned short>,unsigned short> >::SetParent
$LN3@RotateRigh:

; 746  : 	if (!IsRoot(elem))

	movzx	eax, WORD PTR _elem$[ebp]
	push	eax
	mov	ecx, DWORD PTR _this$[ebp]
	call	?IsRoot@?$CUtlRBTree@UNode_t@?$CUtlMap@PBDPAVIEntityFactory@@G@@GVCKeyLess@2@V?$CUtlMemory@U?$UtlRBTreeNode_t@UNode_t@?$CUtlMap@PBDPAVIEntityFactory@@G@@G@@G@@@@QBE_NG@Z ; CUtlRBTree<CUtlMap<char const *,IEntityFactory *,unsigned short>::Node_t,unsigned short,CUtlMap<char const *,IEntityFactory *,unsigned short>::CKeyLess,CUtlMemory<UtlRBTreeNode_t<CUtlMap<char const *,IEntityFactory *,unsigned short>::Node_t,unsigned short>,unsigned short> >::IsRoot
	movzx	ecx, al
	test	ecx, ecx
	jne	SHORT $LN4@RotateRigh

; 747  : 	{
; 748  : 		if (IsRightChild(elem))

	movzx	eax, WORD PTR _elem$[ebp]
	push	eax
	mov	ecx, DWORD PTR _this$[ebp]
	call	?IsRightChild@?$CUtlRBTree@UNode_t@?$CUtlMap@PBDPAVIEntityFactory@@G@@GVCKeyLess@2@V?$CUtlMemory@U?$UtlRBTreeNode_t@UNode_t@?$CUtlMap@PBDPAVIEntityFactory@@G@@G@@G@@@@QBE_NG@Z ; CUtlRBTree<CUtlMap<char const *,IEntityFactory *,unsigned short>::Node_t,unsigned short,CUtlMap<char const *,IEntityFactory *,unsigned short>::CKeyLess,CUtlMemory<UtlRBTreeNode_t<CUtlMap<char const *,IEntityFactory *,unsigned short>::Node_t,unsigned short>,unsigned short> >::IsRightChild
	movzx	ecx, al
	test	ecx, ecx
	je	SHORT $LN6@RotateRigh

; 749  : 			SetRightChild( Parent(elem), leftchild );

	movzx	eax, WORD PTR _leftchild$[ebp]
	push	eax
	movzx	ecx, WORD PTR _elem$[ebp]
	push	ecx
	mov	ecx, DWORD PTR _this$[ebp]
	call	?Parent@?$CUtlRBTree@UNode_t@?$CUtlMap@PBDPAVIEntityFactory@@G@@GVCKeyLess@2@V?$CUtlMemory@U?$UtlRBTreeNode_t@UNode_t@?$CUtlMap@PBDPAVIEntityFactory@@G@@G@@G@@@@QBEGG@Z ; CUtlRBTree<CUtlMap<char const *,IEntityFactory *,unsigned short>::Node_t,unsigned short,CUtlMap<char const *,IEntityFactory *,unsigned short>::CKeyLess,CUtlMemory<UtlRBTreeNode_t<CUtlMap<char const *,IEntityFactory *,unsigned short>::Node_t,unsigned short>,unsigned short> >::Parent
	movzx	edx, ax
	push	edx
	mov	ecx, DWORD PTR _this$[ebp]
	call	?SetRightChild@?$CUtlRBTree@UNode_t@?$CUtlMap@PBDPAVIEntityFactory@@G@@GVCKeyLess@2@V?$CUtlMemory@U?$UtlRBTreeNode_t@UNode_t@?$CUtlMap@PBDPAVIEntityFactory@@G@@G@@G@@@@IAEXGG@Z ; CUtlRBTree<CUtlMap<char const *,IEntityFactory *,unsigned short>::Node_t,unsigned short,CUtlMap<char const *,IEntityFactory *,unsigned short>::CKeyLess,CUtlMemory<UtlRBTreeNode_t<CUtlMap<char const *,IEntityFactory *,unsigned short>::Node_t,unsigned short>,unsigned short> >::SetRightChild

; 750  : 		else

	jmp	SHORT $LN7@RotateRigh
$LN6@RotateRigh:

; 751  : 			SetLeftChild( Parent(elem), leftchild );

	movzx	eax, WORD PTR _leftchild$[ebp]
	push	eax
	movzx	ecx, WORD PTR _elem$[ebp]
	push	ecx
	mov	ecx, DWORD PTR _this$[ebp]
	call	?Parent@?$CUtlRBTree@UNode_t@?$CUtlMap@PBDPAVIEntityFactory@@G@@GVCKeyLess@2@V?$CUtlMemory@U?$UtlRBTreeNode_t@UNode_t@?$CUtlMap@PBDPAVIEntityFactory@@G@@G@@G@@@@QBEGG@Z ; CUtlRBTree<CUtlMap<char const *,IEntityFactory *,unsigned short>::Node_t,unsigned short,CUtlMap<char const *,IEntityFactory *,unsigned short>::CKeyLess,CUtlMemory<UtlRBTreeNode_t<CUtlMap<char const *,IEntityFactory *,unsigned short>::Node_t,unsigned short>,unsigned short> >::Parent
	movzx	edx, ax
	push	edx
	mov	ecx, DWORD PTR _this$[ebp]
	call	?SetLeftChild@?$CUtlRBTree@UNode_t@?$CUtlMap@PBDPAVIEntityFactory@@G@@GVCKeyLess@2@V?$CUtlMemory@U?$UtlRBTreeNode_t@UNode_t@?$CUtlMap@PBDPAVIEntityFactory@@G@@G@@G@@@@IAEXGG@Z ; CUtlRBTree<CUtlMap<char const *,IEntityFactory *,unsigned short>::Node_t,unsigned short,CUtlMap<char const *,IEntityFactory *,unsigned short>::CKeyLess,CUtlMemory<UtlRBTreeNode_t<CUtlMap<char const *,IEntityFactory *,unsigned short>::Node_t,unsigned short>,unsigned short> >::SetLeftChild
$LN7@RotateRigh:

; 752  : 	}
; 753  : 	else

	jmp	SHORT $LN5@RotateRigh
$LN4@RotateRigh:

; 754  : 		m_Root = leftchild;

	mov	eax, DWORD PTR _this$[ebp]
	mov	cx, WORD PTR _leftchild$[ebp]
	mov	WORD PTR [eax+16], cx
$LN5@RotateRigh:

; 755  : 
; 756  : 	SetRightChild( leftchild, elem );

	movzx	eax, WORD PTR _elem$[ebp]
	push	eax
	movzx	ecx, WORD PTR _leftchild$[ebp]
	push	ecx
	mov	ecx, DWORD PTR _this$[ebp]
	call	?SetRightChild@?$CUtlRBTree@UNode_t@?$CUtlMap@PBDPAVIEntityFactory@@G@@GVCKeyLess@2@V?$CUtlMemory@U?$UtlRBTreeNode_t@UNode_t@?$CUtlMap@PBDPAVIEntityFactory@@G@@G@@G@@@@IAEXGG@Z ; CUtlRBTree<CUtlMap<char const *,IEntityFactory *,unsigned short>::Node_t,unsigned short,CUtlMap<char const *,IEntityFactory *,unsigned short>::CKeyLess,CUtlMemory<UtlRBTreeNode_t<CUtlMap<char const *,IEntityFactory *,unsigned short>::Node_t,unsigned short>,unsigned short> >::SetRightChild

; 757  : 	if (elem != InvalidIndex())

	movzx	esi, WORD PTR _elem$[ebp]
	call	?InvalidIndex@?$CUtlRBTree@UNode_t@?$CUtlMap@PBDPAVIEntityFactory@@G@@GVCKeyLess@2@V?$CUtlMemory@U?$UtlRBTreeNode_t@UNode_t@?$CUtlMap@PBDPAVIEntityFactory@@G@@G@@G@@@@SAGXZ ; CUtlRBTree<CUtlMap<char const *,IEntityFactory *,unsigned short>::Node_t,unsigned short,CUtlMap<char const *,IEntityFactory *,unsigned short>::CKeyLess,CUtlMemory<UtlRBTreeNode_t<CUtlMap<char const *,IEntityFactory *,unsigned short>::Node_t,unsigned short>,unsigned short> >::InvalidIndex
	movzx	eax, ax
	cmp	esi, eax
	je	SHORT $LN1@RotateRigh

; 758  : 		SetParent( elem, leftchild );

	movzx	eax, WORD PTR _leftchild$[ebp]
	push	eax
	movzx	ecx, WORD PTR _elem$[ebp]
	push	ecx
	mov	ecx, DWORD PTR _this$[ebp]
	call	?SetParent@?$CUtlRBTree@UNode_t@?$CUtlMap@PBDPAVIEntityFactory@@G@@GVCKeyLess@2@V?$CUtlMemory@U?$UtlRBTreeNode_t@UNode_t@?$CUtlMap@PBDPAVIEntityFactory@@G@@G@@G@@@@IAEXGG@Z ; CUtlRBTree<CUtlMap<char const *,IEntityFactory *,unsigned short>::Node_t,unsigned short,CUtlMap<char const *,IEntityFactory *,unsigned short>::CKeyLess,CUtlMemory<UtlRBTreeNode_t<CUtlMap<char const *,IEntityFactory *,unsigned short>::Node_t,unsigned short>,unsigned short> >::SetParent
$LN1@RotateRigh:

; 759  : }

	pop	edi
	pop	esi
	pop	ebx
	mov	esp, ebp
	pop	ebp
	ret	4
?RotateRight@?$CUtlRBTree@UNode_t@?$CUtlMap@PBDPAVIEntityFactory@@G@@GVCKeyLess@2@V?$CUtlMemory@U?$UtlRBTreeNode_t@UNode_t@?$CUtlMap@PBDPAVIEntityFactory@@G@@G@@G@@@@IAEXG@Z ENDP ; CUtlRBTree<CUtlMap<char const *,IEntityFactory *,unsigned short>::Node_t,unsigned short,CUtlMap<char const *,IEntityFactory *,unsigned short>::CKeyLess,CUtlMemory<UtlRBTreeNode_t<CUtlMap<char const *,IEntityFactory *,unsigned short>::Node_t,unsigned short>,unsigned short> >::RotateRight
_TEXT	ENDS
; Function compile flags: /Odtp /ZI
; File d:\!diffusion 2020\source code 2022\client-server\game_shared\utlrbtree.h
;	COMDAT ?RotateLeft@?$CUtlRBTree@UNode_t@?$CUtlMap@PBDPAVIEntityFactory@@G@@GVCKeyLess@2@V?$CUtlMemory@U?$UtlRBTreeNode_t@UNode_t@?$CUtlMap@PBDPAVIEntityFactory@@G@@G@@G@@@@IAEXG@Z
_TEXT	SEGMENT
_rightchild$ = -8					; size = 2
_this$ = -4						; size = 4
_elem$ = 8						; size = 2
?RotateLeft@?$CUtlRBTree@UNode_t@?$CUtlMap@PBDPAVIEntityFactory@@G@@GVCKeyLess@2@V?$CUtlMemory@U?$UtlRBTreeNode_t@UNode_t@?$CUtlMap@PBDPAVIEntityFactory@@G@@G@@G@@@@IAEXG@Z PROC ; CUtlRBTree<CUtlMap<char const *,IEntityFactory *,unsigned short>::Node_t,unsigned short,CUtlMap<char const *,IEntityFactory *,unsigned short>::CKeyLess,CUtlMemory<UtlRBTreeNode_t<CUtlMap<char const *,IEntityFactory *,unsigned short>::Node_t,unsigned short>,unsigned short> >::RotateLeft, COMDAT
; _this$ = ecx

; 708  : {

	push	ebp
	mov	ebp, esp
	sub	esp, 72					; 00000048H
	push	ebx
	push	esi
	push	edi
	mov	DWORD PTR _this$[ebp], ecx

; 709  : 	I rightchild = RightChild(elem);

	movzx	eax, WORD PTR _elem$[ebp]
	push	eax
	mov	ecx, DWORD PTR _this$[ebp]
	call	?RightChild@?$CUtlRBTree@UNode_t@?$CUtlMap@PBDPAVIEntityFactory@@G@@GVCKeyLess@2@V?$CUtlMemory@U?$UtlRBTreeNode_t@UNode_t@?$CUtlMap@PBDPAVIEntityFactory@@G@@G@@G@@@@QBEGG@Z ; CUtlRBTree<CUtlMap<char const *,IEntityFactory *,unsigned short>::Node_t,unsigned short,CUtlMap<char const *,IEntityFactory *,unsigned short>::CKeyLess,CUtlMemory<UtlRBTreeNode_t<CUtlMap<char const *,IEntityFactory *,unsigned short>::Node_t,unsigned short>,unsigned short> >::RightChild
	mov	WORD PTR _rightchild$[ebp], ax

; 710  : 	SetRightChild( elem, LeftChild(rightchild) );

	movzx	eax, WORD PTR _rightchild$[ebp]
	push	eax
	mov	ecx, DWORD PTR _this$[ebp]
	call	?LeftChild@?$CUtlRBTree@UNode_t@?$CUtlMap@PBDPAVIEntityFactory@@G@@GVCKeyLess@2@V?$CUtlMemory@U?$UtlRBTreeNode_t@UNode_t@?$CUtlMap@PBDPAVIEntityFactory@@G@@G@@G@@@@QBEGG@Z ; CUtlRBTree<CUtlMap<char const *,IEntityFactory *,unsigned short>::Node_t,unsigned short,CUtlMap<char const *,IEntityFactory *,unsigned short>::CKeyLess,CUtlMemory<UtlRBTreeNode_t<CUtlMap<char const *,IEntityFactory *,unsigned short>::Node_t,unsigned short>,unsigned short> >::LeftChild
	movzx	ecx, ax
	push	ecx
	movzx	edx, WORD PTR _elem$[ebp]
	push	edx
	mov	ecx, DWORD PTR _this$[ebp]
	call	?SetRightChild@?$CUtlRBTree@UNode_t@?$CUtlMap@PBDPAVIEntityFactory@@G@@GVCKeyLess@2@V?$CUtlMemory@U?$UtlRBTreeNode_t@UNode_t@?$CUtlMap@PBDPAVIEntityFactory@@G@@G@@G@@@@IAEXGG@Z ; CUtlRBTree<CUtlMap<char const *,IEntityFactory *,unsigned short>::Node_t,unsigned short,CUtlMap<char const *,IEntityFactory *,unsigned short>::CKeyLess,CUtlMemory<UtlRBTreeNode_t<CUtlMap<char const *,IEntityFactory *,unsigned short>::Node_t,unsigned short>,unsigned short> >::SetRightChild

; 711  : 	if (LeftChild(rightchild) != InvalidIndex())

	movzx	eax, WORD PTR _rightchild$[ebp]
	push	eax
	mov	ecx, DWORD PTR _this$[ebp]
	call	?LeftChild@?$CUtlRBTree@UNode_t@?$CUtlMap@PBDPAVIEntityFactory@@G@@GVCKeyLess@2@V?$CUtlMemory@U?$UtlRBTreeNode_t@UNode_t@?$CUtlMap@PBDPAVIEntityFactory@@G@@G@@G@@@@QBEGG@Z ; CUtlRBTree<CUtlMap<char const *,IEntityFactory *,unsigned short>::Node_t,unsigned short,CUtlMap<char const *,IEntityFactory *,unsigned short>::CKeyLess,CUtlMemory<UtlRBTreeNode_t<CUtlMap<char const *,IEntityFactory *,unsigned short>::Node_t,unsigned short>,unsigned short> >::LeftChild
	movzx	esi, ax
	call	?InvalidIndex@?$CUtlRBTree@UNode_t@?$CUtlMap@PBDPAVIEntityFactory@@G@@GVCKeyLess@2@V?$CUtlMemory@U?$UtlRBTreeNode_t@UNode_t@?$CUtlMap@PBDPAVIEntityFactory@@G@@G@@G@@@@SAGXZ ; CUtlRBTree<CUtlMap<char const *,IEntityFactory *,unsigned short>::Node_t,unsigned short,CUtlMap<char const *,IEntityFactory *,unsigned short>::CKeyLess,CUtlMemory<UtlRBTreeNode_t<CUtlMap<char const *,IEntityFactory *,unsigned short>::Node_t,unsigned short>,unsigned short> >::InvalidIndex
	movzx	ecx, ax
	cmp	esi, ecx
	je	SHORT $LN2@RotateLeft

; 712  : 		SetParent( LeftChild(rightchild), elem );

	movzx	eax, WORD PTR _elem$[ebp]
	push	eax
	movzx	ecx, WORD PTR _rightchild$[ebp]
	push	ecx
	mov	ecx, DWORD PTR _this$[ebp]
	call	?LeftChild@?$CUtlRBTree@UNode_t@?$CUtlMap@PBDPAVIEntityFactory@@G@@GVCKeyLess@2@V?$CUtlMemory@U?$UtlRBTreeNode_t@UNode_t@?$CUtlMap@PBDPAVIEntityFactory@@G@@G@@G@@@@QBEGG@Z ; CUtlRBTree<CUtlMap<char const *,IEntityFactory *,unsigned short>::Node_t,unsigned short,CUtlMap<char const *,IEntityFactory *,unsigned short>::CKeyLess,CUtlMemory<UtlRBTreeNode_t<CUtlMap<char const *,IEntityFactory *,unsigned short>::Node_t,unsigned short>,unsigned short> >::LeftChild
	movzx	edx, ax
	push	edx
	mov	ecx, DWORD PTR _this$[ebp]
	call	?SetParent@?$CUtlRBTree@UNode_t@?$CUtlMap@PBDPAVIEntityFactory@@G@@GVCKeyLess@2@V?$CUtlMemory@U?$UtlRBTreeNode_t@UNode_t@?$CUtlMap@PBDPAVIEntityFactory@@G@@G@@G@@@@IAEXGG@Z ; CUtlRBTree<CUtlMap<char const *,IEntityFactory *,unsigned short>::Node_t,unsigned short,CUtlMap<char const *,IEntityFactory *,unsigned short>::CKeyLess,CUtlMemory<UtlRBTreeNode_t<CUtlMap<char const *,IEntityFactory *,unsigned short>::Node_t,unsigned short>,unsigned short> >::SetParent
$LN2@RotateLeft:

; 713  : 
; 714  : 	if (rightchild != InvalidIndex())

	movzx	esi, WORD PTR _rightchild$[ebp]
	call	?InvalidIndex@?$CUtlRBTree@UNode_t@?$CUtlMap@PBDPAVIEntityFactory@@G@@GVCKeyLess@2@V?$CUtlMemory@U?$UtlRBTreeNode_t@UNode_t@?$CUtlMap@PBDPAVIEntityFactory@@G@@G@@G@@@@SAGXZ ; CUtlRBTree<CUtlMap<char const *,IEntityFactory *,unsigned short>::Node_t,unsigned short,CUtlMap<char const *,IEntityFactory *,unsigned short>::CKeyLess,CUtlMemory<UtlRBTreeNode_t<CUtlMap<char const *,IEntityFactory *,unsigned short>::Node_t,unsigned short>,unsigned short> >::InvalidIndex
	movzx	eax, ax
	cmp	esi, eax
	je	SHORT $LN3@RotateLeft

; 715  : 		SetParent( rightchild, Parent(elem) );

	movzx	eax, WORD PTR _elem$[ebp]
	push	eax
	mov	ecx, DWORD PTR _this$[ebp]
	call	?Parent@?$CUtlRBTree@UNode_t@?$CUtlMap@PBDPAVIEntityFactory@@G@@GVCKeyLess@2@V?$CUtlMemory@U?$UtlRBTreeNode_t@UNode_t@?$CUtlMap@PBDPAVIEntityFactory@@G@@G@@G@@@@QBEGG@Z ; CUtlRBTree<CUtlMap<char const *,IEntityFactory *,unsigned short>::Node_t,unsigned short,CUtlMap<char const *,IEntityFactory *,unsigned short>::CKeyLess,CUtlMemory<UtlRBTreeNode_t<CUtlMap<char const *,IEntityFactory *,unsigned short>::Node_t,unsigned short>,unsigned short> >::Parent
	movzx	ecx, ax
	push	ecx
	movzx	edx, WORD PTR _rightchild$[ebp]
	push	edx
	mov	ecx, DWORD PTR _this$[ebp]
	call	?SetParent@?$CUtlRBTree@UNode_t@?$CUtlMap@PBDPAVIEntityFactory@@G@@GVCKeyLess@2@V?$CUtlMemory@U?$UtlRBTreeNode_t@UNode_t@?$CUtlMap@PBDPAVIEntityFactory@@G@@G@@G@@@@IAEXGG@Z ; CUtlRBTree<CUtlMap<char const *,IEntityFactory *,unsigned short>::Node_t,unsigned short,CUtlMap<char const *,IEntityFactory *,unsigned short>::CKeyLess,CUtlMemory<UtlRBTreeNode_t<CUtlMap<char const *,IEntityFactory *,unsigned short>::Node_t,unsigned short>,unsigned short> >::SetParent
$LN3@RotateLeft:

; 716  : 	if (!IsRoot(elem))

	movzx	eax, WORD PTR _elem$[ebp]
	push	eax
	mov	ecx, DWORD PTR _this$[ebp]
	call	?IsRoot@?$CUtlRBTree@UNode_t@?$CUtlMap@PBDPAVIEntityFactory@@G@@GVCKeyLess@2@V?$CUtlMemory@U?$UtlRBTreeNode_t@UNode_t@?$CUtlMap@PBDPAVIEntityFactory@@G@@G@@G@@@@QBE_NG@Z ; CUtlRBTree<CUtlMap<char const *,IEntityFactory *,unsigned short>::Node_t,unsigned short,CUtlMap<char const *,IEntityFactory *,unsigned short>::CKeyLess,CUtlMemory<UtlRBTreeNode_t<CUtlMap<char const *,IEntityFactory *,unsigned short>::Node_t,unsigned short>,unsigned short> >::IsRoot
	movzx	ecx, al
	test	ecx, ecx
	jne	SHORT $LN4@RotateLeft

; 717  : 	{
; 718  : 		if (IsLeftChild(elem))

	movzx	eax, WORD PTR _elem$[ebp]
	push	eax
	mov	ecx, DWORD PTR _this$[ebp]
	call	?IsLeftChild@?$CUtlRBTree@UNode_t@?$CUtlMap@PBDPAVIEntityFactory@@G@@GVCKeyLess@2@V?$CUtlMemory@U?$UtlRBTreeNode_t@UNode_t@?$CUtlMap@PBDPAVIEntityFactory@@G@@G@@G@@@@QBE_NG@Z ; CUtlRBTree<CUtlMap<char const *,IEntityFactory *,unsigned short>::Node_t,unsigned short,CUtlMap<char const *,IEntityFactory *,unsigned short>::CKeyLess,CUtlMemory<UtlRBTreeNode_t<CUtlMap<char const *,IEntityFactory *,unsigned short>::Node_t,unsigned short>,unsigned short> >::IsLeftChild
	movzx	ecx, al
	test	ecx, ecx
	je	SHORT $LN6@RotateLeft

; 719  : 			SetLeftChild( Parent(elem), rightchild );

	movzx	eax, WORD PTR _rightchild$[ebp]
	push	eax
	movzx	ecx, WORD PTR _elem$[ebp]
	push	ecx
	mov	ecx, DWORD PTR _this$[ebp]
	call	?Parent@?$CUtlRBTree@UNode_t@?$CUtlMap@PBDPAVIEntityFactory@@G@@GVCKeyLess@2@V?$CUtlMemory@U?$UtlRBTreeNode_t@UNode_t@?$CUtlMap@PBDPAVIEntityFactory@@G@@G@@G@@@@QBEGG@Z ; CUtlRBTree<CUtlMap<char const *,IEntityFactory *,unsigned short>::Node_t,unsigned short,CUtlMap<char const *,IEntityFactory *,unsigned short>::CKeyLess,CUtlMemory<UtlRBTreeNode_t<CUtlMap<char const *,IEntityFactory *,unsigned short>::Node_t,unsigned short>,unsigned short> >::Parent
	movzx	edx, ax
	push	edx
	mov	ecx, DWORD PTR _this$[ebp]
	call	?SetLeftChild@?$CUtlRBTree@UNode_t@?$CUtlMap@PBDPAVIEntityFactory@@G@@GVCKeyLess@2@V?$CUtlMemory@U?$UtlRBTreeNode_t@UNode_t@?$CUtlMap@PBDPAVIEntityFactory@@G@@G@@G@@@@IAEXGG@Z ; CUtlRBTree<CUtlMap<char const *,IEntityFactory *,unsigned short>::Node_t,unsigned short,CUtlMap<char const *,IEntityFactory *,unsigned short>::CKeyLess,CUtlMemory<UtlRBTreeNode_t<CUtlMap<char const *,IEntityFactory *,unsigned short>::Node_t,unsigned short>,unsigned short> >::SetLeftChild

; 720  : 		else

	jmp	SHORT $LN7@RotateLeft
$LN6@RotateLeft:

; 721  : 			SetRightChild( Parent(elem), rightchild );

	movzx	eax, WORD PTR _rightchild$[ebp]
	push	eax
	movzx	ecx, WORD PTR _elem$[ebp]
	push	ecx
	mov	ecx, DWORD PTR _this$[ebp]
	call	?Parent@?$CUtlRBTree@UNode_t@?$CUtlMap@PBDPAVIEntityFactory@@G@@GVCKeyLess@2@V?$CUtlMemory@U?$UtlRBTreeNode_t@UNode_t@?$CUtlMap@PBDPAVIEntityFactory@@G@@G@@G@@@@QBEGG@Z ; CUtlRBTree<CUtlMap<char const *,IEntityFactory *,unsigned short>::Node_t,unsigned short,CUtlMap<char const *,IEntityFactory *,unsigned short>::CKeyLess,CUtlMemory<UtlRBTreeNode_t<CUtlMap<char const *,IEntityFactory *,unsigned short>::Node_t,unsigned short>,unsigned short> >::Parent
	movzx	edx, ax
	push	edx
	mov	ecx, DWORD PTR _this$[ebp]
	call	?SetRightChild@?$CUtlRBTree@UNode_t@?$CUtlMap@PBDPAVIEntityFactory@@G@@GVCKeyLess@2@V?$CUtlMemory@U?$UtlRBTreeNode_t@UNode_t@?$CUtlMap@PBDPAVIEntityFactory@@G@@G@@G@@@@IAEXGG@Z ; CUtlRBTree<CUtlMap<char const *,IEntityFactory *,unsigned short>::Node_t,unsigned short,CUtlMap<char const *,IEntityFactory *,unsigned short>::CKeyLess,CUtlMemory<UtlRBTreeNode_t<CUtlMap<char const *,IEntityFactory *,unsigned short>::Node_t,unsigned short>,unsigned short> >::SetRightChild
$LN7@RotateLeft:

; 722  : 	}
; 723  : 	else

	jmp	SHORT $LN5@RotateLeft
$LN4@RotateLeft:

; 724  : 		m_Root = rightchild;

	mov	eax, DWORD PTR _this$[ebp]
	mov	cx, WORD PTR _rightchild$[ebp]
	mov	WORD PTR [eax+16], cx
$LN5@RotateLeft:

; 725  : 
; 726  : 	SetLeftChild( rightchild, elem );

	movzx	eax, WORD PTR _elem$[ebp]
	push	eax
	movzx	ecx, WORD PTR _rightchild$[ebp]
	push	ecx
	mov	ecx, DWORD PTR _this$[ebp]
	call	?SetLeftChild@?$CUtlRBTree@UNode_t@?$CUtlMap@PBDPAVIEntityFactory@@G@@GVCKeyLess@2@V?$CUtlMemory@U?$UtlRBTreeNode_t@UNode_t@?$CUtlMap@PBDPAVIEntityFactory@@G@@G@@G@@@@IAEXGG@Z ; CUtlRBTree<CUtlMap<char const *,IEntityFactory *,unsigned short>::Node_t,unsigned short,CUtlMap<char const *,IEntityFactory *,unsigned short>::CKeyLess,CUtlMemory<UtlRBTreeNode_t<CUtlMap<char const *,IEntityFactory *,unsigned short>::Node_t,unsigned short>,unsigned short> >::SetLeftChild

; 727  : 	if (elem != InvalidIndex())

	movzx	esi, WORD PTR _elem$[ebp]
	call	?InvalidIndex@?$CUtlRBTree@UNode_t@?$CUtlMap@PBDPAVIEntityFactory@@G@@GVCKeyLess@2@V?$CUtlMemory@U?$UtlRBTreeNode_t@UNode_t@?$CUtlMap@PBDPAVIEntityFactory@@G@@G@@G@@@@SAGXZ ; CUtlRBTree<CUtlMap<char const *,IEntityFactory *,unsigned short>::Node_t,unsigned short,CUtlMap<char const *,IEntityFactory *,unsigned short>::CKeyLess,CUtlMemory<UtlRBTreeNode_t<CUtlMap<char const *,IEntityFactory *,unsigned short>::Node_t,unsigned short>,unsigned short> >::InvalidIndex
	movzx	eax, ax
	cmp	esi, eax
	je	SHORT $LN1@RotateLeft

; 728  : 		SetParent( elem, rightchild );

	movzx	eax, WORD PTR _rightchild$[ebp]
	push	eax
	movzx	ecx, WORD PTR _elem$[ebp]
	push	ecx
	mov	ecx, DWORD PTR _this$[ebp]
	call	?SetParent@?$CUtlRBTree@UNode_t@?$CUtlMap@PBDPAVIEntityFactory@@G@@GVCKeyLess@2@V?$CUtlMemory@U?$UtlRBTreeNode_t@UNode_t@?$CUtlMap@PBDPAVIEntityFactory@@G@@G@@G@@@@IAEXGG@Z ; CUtlRBTree<CUtlMap<char const *,IEntityFactory *,unsigned short>::Node_t,unsigned short,CUtlMap<char const *,IEntityFactory *,unsigned short>::CKeyLess,CUtlMemory<UtlRBTreeNode_t<CUtlMap<char const *,IEntityFactory *,unsigned short>::Node_t,unsigned short>,unsigned short> >::SetParent
$LN1@RotateLeft:

; 729  : }

	pop	edi
	pop	esi
	pop	ebx
	mov	esp, ebp
	pop	ebp
	ret	4
?RotateLeft@?$CUtlRBTree@UNode_t@?$CUtlMap@PBDPAVIEntityFactory@@G@@GVCKeyLess@2@V?$CUtlMemory@U?$UtlRBTreeNode_t@UNode_t@?$CUtlMap@PBDPAVIEntityFactory@@G@@G@@G@@@@IAEXG@Z ENDP ; CUtlRBTree<CUtlMap<char const *,IEntityFactory *,unsigned short>::Node_t,unsigned short,CUtlMap<char const *,IEntityFactory *,unsigned short>::CKeyLess,CUtlMemory<UtlRBTreeNode_t<CUtlMap<char const *,IEntityFactory *,unsigned short>::Node_t,unsigned short>,unsigned short> >::RotateLeft
_TEXT	ENDS
; Function compile flags: /Odtp /ZI
; File d:\!diffusion 2020\source code 2022\client-server\game_shared\utlrbtree.h
;	COMDAT ?SetColor@?$CUtlRBTree@UNode_t@?$CUtlMap@PBDPAVIEntityFactory@@G@@GVCKeyLess@2@V?$CUtlMemory@U?$UtlRBTreeNode_t@UNode_t@?$CUtlMap@PBDPAVIEntityFactory@@G@@G@@G@@@@IAEXGW4NodeColor_t@1@@Z
_TEXT	SEGMENT
_this$ = -4						; size = 4
_i$ = 8							; size = 2
_c$ = 12						; size = 4
?SetColor@?$CUtlRBTree@UNode_t@?$CUtlMap@PBDPAVIEntityFactory@@G@@GVCKeyLess@2@V?$CUtlMemory@U?$UtlRBTreeNode_t@UNode_t@?$CUtlMap@PBDPAVIEntityFactory@@G@@G@@G@@@@IAEXGW4NodeColor_t@1@@Z PROC ; CUtlRBTree<CUtlMap<char const *,IEntityFactory *,unsigned short>::Node_t,unsigned short,CUtlMap<char const *,IEntityFactory *,unsigned short>::CKeyLess,CUtlMemory<UtlRBTreeNode_t<CUtlMap<char const *,IEntityFactory *,unsigned short>::Node_t,unsigned short>,unsigned short> >::SetColor, COMDAT
; _this$ = ecx

; 637  : { 

	push	ebp
	mov	ebp, esp
	sub	esp, 68					; 00000044H
	push	ebx
	push	esi
	push	edi
	mov	DWORD PTR _this$[ebp], ecx

; 638  : 	Links(i).m_Tag = (I)c; 

	movzx	eax, WORD PTR _i$[ebp]
	push	eax
	mov	ecx, DWORD PTR _this$[ebp]
	call	?Links@?$CUtlRBTree@UNode_t@?$CUtlMap@PBDPAVIEntityFactory@@G@@GVCKeyLess@2@V?$CUtlMemory@U?$UtlRBTreeNode_t@UNode_t@?$CUtlMap@PBDPAVIEntityFactory@@G@@G@@G@@@@IAEAAU?$UtlRBTreeLinks_t@G@@G@Z ; CUtlRBTree<CUtlMap<char const *,IEntityFactory *,unsigned short>::Node_t,unsigned short,CUtlMap<char const *,IEntityFactory *,unsigned short>::CKeyLess,CUtlMemory<UtlRBTreeNode_t<CUtlMap<char const *,IEntityFactory *,unsigned short>::Node_t,unsigned short>,unsigned short> >::Links
	mov	cx, WORD PTR _c$[ebp]
	mov	WORD PTR [eax+6], cx

; 639  : }

	pop	edi
	pop	esi
	pop	ebx
	mov	esp, ebp
	pop	ebp
	ret	8
?SetColor@?$CUtlRBTree@UNode_t@?$CUtlMap@PBDPAVIEntityFactory@@G@@GVCKeyLess@2@V?$CUtlMemory@U?$UtlRBTreeNode_t@UNode_t@?$CUtlMap@PBDPAVIEntityFactory@@G@@G@@G@@@@IAEXGW4NodeColor_t@1@@Z ENDP ; CUtlRBTree<CUtlMap<char const *,IEntityFactory *,unsigned short>::Node_t,unsigned short,CUtlMap<char const *,IEntityFactory *,unsigned short>::CKeyLess,CUtlMemory<UtlRBTreeNode_t<CUtlMap<char const *,IEntityFactory *,unsigned short>::Node_t,unsigned short>,unsigned short> >::SetColor
_TEXT	ENDS
; Function compile flags: /Odtp /ZI
; File d:\!diffusion 2020\source code 2022\client-server\game_shared\utlrbtree.h
;	COMDAT ?Color@?$CUtlRBTree@UNode_t@?$CUtlMap@PBDPAVIEntityFactory@@G@@GVCKeyLess@2@V?$CUtlMemory@U?$UtlRBTreeNode_t@UNode_t@?$CUtlMap@PBDPAVIEntityFactory@@G@@G@@G@@@@IBE?AW4NodeColor_t@1@G@Z
_TEXT	SEGMENT
_this$ = -4						; size = 4
_i$ = 8							; size = 2
?Color@?$CUtlRBTree@UNode_t@?$CUtlMap@PBDPAVIEntityFactory@@G@@GVCKeyLess@2@V?$CUtlMemory@U?$UtlRBTreeNode_t@UNode_t@?$CUtlMap@PBDPAVIEntityFactory@@G@@G@@G@@@@IBE?AW4NodeColor_t@1@G@Z PROC ; CUtlRBTree<CUtlMap<char const *,IEntityFactory *,unsigned short>::Node_t,unsigned short,CUtlMap<char const *,IEntityFactory *,unsigned short>::CKeyLess,CUtlMemory<UtlRBTreeNode_t<CUtlMap<char const *,IEntityFactory *,unsigned short>::Node_t,unsigned short>,unsigned short> >::Color, COMDAT
; _this$ = ecx

; 631  : { 

	push	ebp
	mov	ebp, esp
	sub	esp, 68					; 00000044H
	push	ebx
	push	esi
	push	edi
	mov	DWORD PTR _this$[ebp], ecx

; 632  : 	return (NodeColor_t)Links(i).m_Tag; 

	movzx	eax, WORD PTR _i$[ebp]
	push	eax
	mov	ecx, DWORD PTR _this$[ebp]
	call	?Links@?$CUtlRBTree@UNode_t@?$CUtlMap@PBDPAVIEntityFactory@@G@@GVCKeyLess@2@V?$CUtlMemory@U?$UtlRBTreeNode_t@UNode_t@?$CUtlMap@PBDPAVIEntityFactory@@G@@G@@G@@@@IBEABU?$UtlRBTreeLinks_t@G@@G@Z ; CUtlRBTree<CUtlMap<char const *,IEntityFactory *,unsigned short>::Node_t,unsigned short,CUtlMap<char const *,IEntityFactory *,unsigned short>::CKeyLess,CUtlMemory<UtlRBTreeNode_t<CUtlMap<char const *,IEntityFactory *,unsigned short>::Node_t,unsigned short>,unsigned short> >::Links
	movzx	eax, WORD PTR [eax+6]

; 633  : }

	pop	edi
	pop	esi
	pop	ebx
	mov	esp, ebp
	pop	ebp
	ret	4
?Color@?$CUtlRBTree@UNode_t@?$CUtlMap@PBDPAVIEntityFactory@@G@@GVCKeyLess@2@V?$CUtlMemory@U?$UtlRBTreeNode_t@UNode_t@?$CUtlMap@PBDPAVIEntityFactory@@G@@G@@G@@@@IBE?AW4NodeColor_t@1@G@Z ENDP ; CUtlRBTree<CUtlMap<char const *,IEntityFactory *,unsigned short>::Node_t,unsigned short,CUtlMap<char const *,IEntityFactory *,unsigned short>::CKeyLess,CUtlMemory<UtlRBTreeNode_t<CUtlMap<char const *,IEntityFactory *,unsigned short>::Node_t,unsigned short>,unsigned short> >::Color
_TEXT	ENDS
; Function compile flags: /Odtp /ZI
; File d:\!diffusion 2020\source code 2022\client-server\game_shared\utlrbtree.h
;	COMDAT ?IsRed@?$CUtlRBTree@UNode_t@?$CUtlMap@PBDPAVIEntityFactory@@G@@GVCKeyLess@2@V?$CUtlMemory@U?$UtlRBTreeNode_t@UNode_t@?$CUtlMap@PBDPAVIEntityFactory@@G@@G@@G@@@@IBE_NG@Z
_TEXT	SEGMENT
tv70 = -72						; size = 4
_this$ = -4						; size = 4
_i$ = 8							; size = 2
?IsRed@?$CUtlRBTree@UNode_t@?$CUtlMap@PBDPAVIEntityFactory@@G@@GVCKeyLess@2@V?$CUtlMemory@U?$UtlRBTreeNode_t@UNode_t@?$CUtlMap@PBDPAVIEntityFactory@@G@@G@@G@@@@IBE_NG@Z PROC ; CUtlRBTree<CUtlMap<char const *,IEntityFactory *,unsigned short>::Node_t,unsigned short,CUtlMap<char const *,IEntityFactory *,unsigned short>::CKeyLess,CUtlMemory<UtlRBTreeNode_t<CUtlMap<char const *,IEntityFactory *,unsigned short>::Node_t,unsigned short>,unsigned short> >::IsRed, COMDAT
; _this$ = ecx

; 614  : { 

	push	ebp
	mov	ebp, esp
	sub	esp, 72					; 00000048H
	push	ebx
	push	esi
	push	edi
	mov	DWORD PTR _this$[ebp], ecx

; 615  : 	return (Links(i).m_Tag == RED); 

	movzx	eax, WORD PTR _i$[ebp]
	push	eax
	mov	ecx, DWORD PTR _this$[ebp]
	call	?Links@?$CUtlRBTree@UNode_t@?$CUtlMap@PBDPAVIEntityFactory@@G@@GVCKeyLess@2@V?$CUtlMemory@U?$UtlRBTreeNode_t@UNode_t@?$CUtlMap@PBDPAVIEntityFactory@@G@@G@@G@@@@IBEABU?$UtlRBTreeLinks_t@G@@G@Z ; CUtlRBTree<CUtlMap<char const *,IEntityFactory *,unsigned short>::Node_t,unsigned short,CUtlMap<char const *,IEntityFactory *,unsigned short>::CKeyLess,CUtlMemory<UtlRBTreeNode_t<CUtlMap<char const *,IEntityFactory *,unsigned short>::Node_t,unsigned short>,unsigned short> >::Links
	movzx	ecx, WORD PTR [eax+6]
	test	ecx, ecx
	jne	SHORT $LN3@IsRed
	mov	DWORD PTR tv70[ebp], 1
	jmp	SHORT $LN4@IsRed
$LN3@IsRed:
	mov	DWORD PTR tv70[ebp], 0
$LN4@IsRed:
	mov	al, BYTE PTR tv70[ebp]

; 616  : }

	pop	edi
	pop	esi
	pop	ebx
	mov	esp, ebp
	pop	ebp
	ret	4
?IsRed@?$CUtlRBTree@UNode_t@?$CUtlMap@PBDPAVIEntityFactory@@G@@GVCKeyLess@2@V?$CUtlMemory@U?$UtlRBTreeNode_t@UNode_t@?$CUtlMap@PBDPAVIEntityFactory@@G@@G@@G@@@@IBE_NG@Z ENDP ; CUtlRBTree<CUtlMap<char const *,IEntityFactory *,unsigned short>::Node_t,unsigned short,CUtlMap<char const *,IEntityFactory *,unsigned short>::CKeyLess,CUtlMemory<UtlRBTreeNode_t<CUtlMap<char const *,IEntityFactory *,unsigned short>::Node_t,unsigned short>,unsigned short> >::IsRed
_TEXT	ENDS
; Function compile flags: /Odtp /ZI
; File d:\!diffusion 2020\source code 2022\client-server\game_shared\utlrbtree.h
;	COMDAT ?Links@?$CUtlRBTree@UNode_t@?$CUtlMap@PBDPAVIEntityFactory@@G@@GVCKeyLess@2@V?$CUtlMemory@U?$UtlRBTreeNode_t@UNode_t@?$CUtlMap@PBDPAVIEntityFactory@@G@@G@@G@@@@IAEAAU?$UtlRBTreeLinks_t@G@@G@Z
_TEXT	SEGMENT
_this$ = -4						; size = 4
_i$ = 8							; size = 2
?Links@?$CUtlRBTree@UNode_t@?$CUtlMap@PBDPAVIEntityFactory@@G@@GVCKeyLess@2@V?$CUtlMemory@U?$UtlRBTreeNode_t@UNode_t@?$CUtlMap@PBDPAVIEntityFactory@@G@@G@@G@@@@IAEAAU?$UtlRBTreeLinks_t@G@@G@Z PROC ; CUtlRBTree<CUtlMap<char const *,IEntityFactory *,unsigned short>::Node_t,unsigned short,CUtlMap<char const *,IEntityFactory *,unsigned short>::CKeyLess,CUtlMemory<UtlRBTreeNode_t<CUtlMap<char const *,IEntityFactory *,unsigned short>::Node_t,unsigned short>,unsigned short> >::Links, COMDAT
; _this$ = ecx

; 603  : { 

	push	ebp
	mov	ebp, esp
	sub	esp, 68					; 00000044H
	push	ebx
	push	esi
	push	edi
	mov	DWORD PTR _this$[ebp], ecx

; 604  : 	assert(i != InvalidIndex()); 

	movzx	esi, WORD PTR _i$[ebp]
	call	?InvalidIndex@?$CUtlRBTree@UNode_t@?$CUtlMap@PBDPAVIEntityFactory@@G@@GVCKeyLess@2@V?$CUtlMemory@U?$UtlRBTreeNode_t@UNode_t@?$CUtlMap@PBDPAVIEntityFactory@@G@@G@@G@@@@SAGXZ ; CUtlRBTree<CUtlMap<char const *,IEntityFactory *,unsigned short>::Node_t,unsigned short,CUtlMap<char const *,IEntityFactory *,unsigned short>::CKeyLess,CUtlMemory<UtlRBTreeNode_t<CUtlMap<char const *,IEntityFactory *,unsigned short>::Node_t,unsigned short>,unsigned short> >::InvalidIndex
	movzx	eax, ax
	cmp	esi, eax
	jne	SHORT $LN3@Links
	push	604					; 0000025cH
	push	OFFSET ??_C@_1JE@LJJIJLOD@?$AAd?$AA?3?$AA?2?$AA?$CB?$AAd?$AAi?$AAf?$AAf?$AAu?$AAs?$AAi?$AAo?$AAn?$AA?5?$AA2?$AA0?$AA2?$AA0?$AA?2?$AAs?$AAo?$AAu?$AAr?$AAc?$AAe?$AA?5?$AAc?$AAo?$AAd?$AAe?$AA?5?$AA2@
	push	OFFSET ??_C@_1CI@BLCAOE@?$AAi?$AA?5?$AA?$CB?$AA?$DN?$AA?5?$AAI?$AAn?$AAv?$AAa?$AAl?$AAi?$AAd?$AAI?$AAn?$AAd?$AAe?$AAx?$AA?$CI?$AA?$CJ?$AA?$AA@
	call	__wassert
	add	esp, 12					; 0000000cH
$LN3@Links:

; 605  : 	return *(Links_t *)&m_Elements[i];

	movzx	eax, WORD PTR _i$[ebp]
	push	eax
	mov	ecx, DWORD PTR _this$[ebp]
	add	ecx, 4
	call	??A?$CUtlMemory@U?$UtlRBTreeNode_t@UNode_t@?$CUtlMap@PBDPAVIEntityFactory@@G@@G@@G@@QAEAAU?$UtlRBTreeNode_t@UNode_t@?$CUtlMap@PBDPAVIEntityFactory@@G@@G@@G@Z ; CUtlMemory<UtlRBTreeNode_t<CUtlMap<char const *,IEntityFactory *,unsigned short>::Node_t,unsigned short>,unsigned short>::operator[]

; 606  : }

	pop	edi
	pop	esi
	pop	ebx
	mov	esp, ebp
	pop	ebp
	ret	4
?Links@?$CUtlRBTree@UNode_t@?$CUtlMap@PBDPAVIEntityFactory@@G@@GVCKeyLess@2@V?$CUtlMemory@U?$UtlRBTreeNode_t@UNode_t@?$CUtlMap@PBDPAVIEntityFactory@@G@@G@@G@@@@IAEAAU?$UtlRBTreeLinks_t@G@@G@Z ENDP ; CUtlRBTree<CUtlMap<char const *,IEntityFactory *,unsigned short>::Node_t,unsigned short,CUtlMap<char const *,IEntityFactory *,unsigned short>::CKeyLess,CUtlMemory<UtlRBTreeNode_t<CUtlMap<char const *,IEntityFactory *,unsigned short>::Node_t,unsigned short>,unsigned short> >::Links
_TEXT	ENDS
; Function compile flags: /Odtp /ZI
; File d:\!diffusion 2020\source code 2022\client-server\game_shared\utlrbtree.h
;	COMDAT ?Links@?$CUtlRBTree@UNode_t@?$CUtlMap@PBDPAVIEntityFactory@@G@@GVCKeyLess@2@V?$CUtlMemory@U?$UtlRBTreeNode_t@UNode_t@?$CUtlMap@PBDPAVIEntityFactory@@G@@G@@G@@@@IBEABU?$UtlRBTreeLinks_t@G@@G@Z
_TEXT	SEGMENT
tv87 = -88						; size = 4
$T2 = -84						; size = 4
_this$ = -16						; size = 4
__$EHRec$ = -12						; size = 12
_i$ = 8							; size = 2
?Links@?$CUtlRBTree@UNode_t@?$CUtlMap@PBDPAVIEntityFactory@@G@@GVCKeyLess@2@V?$CUtlMemory@U?$UtlRBTreeNode_t@UNode_t@?$CUtlMap@PBDPAVIEntityFactory@@G@@G@@G@@@@IBEABU?$UtlRBTreeLinks_t@G@@G@Z PROC ; CUtlRBTree<CUtlMap<char const *,IEntityFactory *,unsigned short>::Node_t,unsigned short,CUtlMap<char const *,IEntityFactory *,unsigned short>::CKeyLess,CUtlMemory<UtlRBTreeNode_t<CUtlMap<char const *,IEntityFactory *,unsigned short>::Node_t,unsigned short>,unsigned short> >::Links, COMDAT
; _this$ = ecx

; 591  : {

	push	ebp
	mov	ebp, esp
	push	-1
	push	__ehhandler$?Links@?$CUtlRBTree@UNode_t@?$CUtlMap@PBDPAVIEntityFactory@@G@@GVCKeyLess@2@V?$CUtlMemory@U?$UtlRBTreeNode_t@UNode_t@?$CUtlMap@PBDPAVIEntityFactory@@G@@G@@G@@@@IBEABU?$UtlRBTreeLinks_t@G@@G@Z
	mov	eax, DWORD PTR fs:0
	push	eax
	sub	esp, 76					; 0000004cH
	push	ebx
	push	esi
	push	edi
	mov	eax, DWORD PTR ___security_cookie
	xor	eax, ebp
	push	eax
	lea	eax, DWORD PTR __$EHRec$[ebp]
	mov	DWORD PTR fs:0, eax
	mov	DWORD PTR _this$[ebp], ecx

; 592  : 	// Sentinel node, makes life easier
; 593  : 	static Links_t s_Sentinel = 

	mov	eax, DWORD PTR __tls_index
	mov	ecx, DWORD PTR fs:__tls_array
	mov	edx, DWORD PTR [ecx+eax*4]
	mov	eax, DWORD PTR ?$TSS0@?1??Links@?$CUtlRBTree@UNode_t@?$CUtlMap@PBDPAVIEntityFactory@@G@@GVCKeyLess@2@V?$CUtlMemory@U?$UtlRBTreeNode_t@UNode_t@?$CUtlMap@PBDPAVIEntityFactory@@G@@G@@G@@@@IBEABU?$UtlRBTreeLinks_t@G@@G@Z@4HA ; `CUtlRBTree<CUtlMap<char const *,IEntityFactory *,unsigned short>::Node_t,unsigned short,CUtlMap<char const *,IEntityFactory *,unsigned short>::CKeyLess,CUtlMemory<UtlRBTreeNode_t<CUtlMap<char const *,IEntityFactory *,unsigned short>::Node_t,unsigned short>,unsigned short> >::Links'::`2'::$TSS0
	cmp	eax, DWORD PTR __Init_thread_epoch[edx]
	jle	SHORT $LN2@Links
	push	OFFSET ?$TSS0@?1??Links@?$CUtlRBTree@UNode_t@?$CUtlMap@PBDPAVIEntityFactory@@G@@GVCKeyLess@2@V?$CUtlMemory@U?$UtlRBTreeNode_t@UNode_t@?$CUtlMap@PBDPAVIEntityFactory@@G@@G@@G@@@@IBEABU?$UtlRBTreeLinks_t@G@@G@Z@4HA ; `CUtlRBTree<CUtlMap<char const *,IEntityFactory *,unsigned short>::Node_t,unsigned short,CUtlMap<char const *,IEntityFactory *,unsigned short>::CKeyLess,CUtlMemory<UtlRBTreeNode_t<CUtlMap<char const *,IEntityFactory *,unsigned short>::Node_t,unsigned short>,unsigned short> >::Links'::`2'::$TSS0
	call	__Init_thread_header
	add	esp, 4
	cmp	DWORD PTR ?$TSS0@?1??Links@?$CUtlRBTree@UNode_t@?$CUtlMap@PBDPAVIEntityFactory@@G@@GVCKeyLess@2@V?$CUtlMemory@U?$UtlRBTreeNode_t@UNode_t@?$CUtlMap@PBDPAVIEntityFactory@@G@@G@@G@@@@IBEABU?$UtlRBTreeLinks_t@G@@G@Z@4HA, -1 ; `CUtlRBTree<CUtlMap<char const *,IEntityFactory *,unsigned short>::Node_t,unsigned short,CUtlMap<char const *,IEntityFactory *,unsigned short>::CKeyLess,CUtlMemory<UtlRBTreeNode_t<CUtlMap<char const *,IEntityFactory *,unsigned short>::Node_t,unsigned short>,unsigned short> >::Links'::`2'::$TSS0
	jne	SHORT $LN2@Links
	mov	DWORD PTR __$EHRec$[ebp+8], 0

; 594  : 	{ 
; 595  : 		InvalidIndex(), InvalidIndex(), InvalidIndex(), CUtlRBTree<T, I, L, M>::BLACK 

	call	?InvalidIndex@?$CUtlRBTree@UNode_t@?$CUtlMap@PBDPAVIEntityFactory@@G@@GVCKeyLess@2@V?$CUtlMemory@U?$UtlRBTreeNode_t@UNode_t@?$CUtlMap@PBDPAVIEntityFactory@@G@@G@@G@@@@SAGXZ ; CUtlRBTree<CUtlMap<char const *,IEntityFactory *,unsigned short>::Node_t,unsigned short,CUtlMap<char const *,IEntityFactory *,unsigned short>::CKeyLess,CUtlMemory<UtlRBTreeNode_t<CUtlMap<char const *,IEntityFactory *,unsigned short>::Node_t,unsigned short>,unsigned short> >::InvalidIndex
	mov	WORD PTR ?s_Sentinel@?1??Links@?$CUtlRBTree@UNode_t@?$CUtlMap@PBDPAVIEntityFactory@@G@@GVCKeyLess@2@V?$CUtlMemory@U?$UtlRBTreeNode_t@UNode_t@?$CUtlMap@PBDPAVIEntityFactory@@G@@G@@G@@@@IBEABU?$UtlRBTreeLinks_t@G@@G@Z@4U3@A, ax
	call	?InvalidIndex@?$CUtlRBTree@UNode_t@?$CUtlMap@PBDPAVIEntityFactory@@G@@GVCKeyLess@2@V?$CUtlMemory@U?$UtlRBTreeNode_t@UNode_t@?$CUtlMap@PBDPAVIEntityFactory@@G@@G@@G@@@@SAGXZ ; CUtlRBTree<CUtlMap<char const *,IEntityFactory *,unsigned short>::Node_t,unsigned short,CUtlMap<char const *,IEntityFactory *,unsigned short>::CKeyLess,CUtlMemory<UtlRBTreeNode_t<CUtlMap<char const *,IEntityFactory *,unsigned short>::Node_t,unsigned short>,unsigned short> >::InvalidIndex
	mov	WORD PTR ?s_Sentinel@?1??Links@?$CUtlRBTree@UNode_t@?$CUtlMap@PBDPAVIEntityFactory@@G@@GVCKeyLess@2@V?$CUtlMemory@U?$UtlRBTreeNode_t@UNode_t@?$CUtlMap@PBDPAVIEntityFactory@@G@@G@@G@@@@IBEABU?$UtlRBTreeLinks_t@G@@G@Z@4U3@A+2, ax
	call	?InvalidIndex@?$CUtlRBTree@UNode_t@?$CUtlMap@PBDPAVIEntityFactory@@G@@GVCKeyLess@2@V?$CUtlMemory@U?$UtlRBTreeNode_t@UNode_t@?$CUtlMap@PBDPAVIEntityFactory@@G@@G@@G@@@@SAGXZ ; CUtlRBTree<CUtlMap<char const *,IEntityFactory *,unsigned short>::Node_t,unsigned short,CUtlMap<char const *,IEntityFactory *,unsigned short>::CKeyLess,CUtlMemory<UtlRBTreeNode_t<CUtlMap<char const *,IEntityFactory *,unsigned short>::Node_t,unsigned short>,unsigned short> >::InvalidIndex
	mov	WORD PTR ?s_Sentinel@?1??Links@?$CUtlRBTree@UNode_t@?$CUtlMap@PBDPAVIEntityFactory@@G@@GVCKeyLess@2@V?$CUtlMemory@U?$UtlRBTreeNode_t@UNode_t@?$CUtlMap@PBDPAVIEntityFactory@@G@@G@@G@@@@IBEABU?$UtlRBTreeLinks_t@G@@G@Z@4U3@A+4, ax

; 596  : 	};

	mov	eax, 1
	mov	WORD PTR ?s_Sentinel@?1??Links@?$CUtlRBTree@UNode_t@?$CUtlMap@PBDPAVIEntityFactory@@G@@GVCKeyLess@2@V?$CUtlMemory@U?$UtlRBTreeNode_t@UNode_t@?$CUtlMap@PBDPAVIEntityFactory@@G@@G@@G@@@@IBEABU?$UtlRBTreeLinks_t@G@@G@Z@4U3@A+6, ax
	mov	DWORD PTR __$EHRec$[ebp+8], -1
	push	OFFSET ?$TSS0@?1??Links@?$CUtlRBTree@UNode_t@?$CUtlMap@PBDPAVIEntityFactory@@G@@GVCKeyLess@2@V?$CUtlMemory@U?$UtlRBTreeNode_t@UNode_t@?$CUtlMap@PBDPAVIEntityFactory@@G@@G@@G@@@@IBEABU?$UtlRBTreeLinks_t@G@@G@Z@4HA ; `CUtlRBTree<CUtlMap<char const *,IEntityFactory *,unsigned short>::Node_t,unsigned short,CUtlMap<char const *,IEntityFactory *,unsigned short>::CKeyLess,CUtlMemory<UtlRBTreeNode_t<CUtlMap<char const *,IEntityFactory *,unsigned short>::Node_t,unsigned short>,unsigned short> >::Links'::`2'::$TSS0
	call	__Init_thread_footer
	add	esp, 4
$LN2@Links:

; 597  : 
; 598  : 	return (i != InvalidIndex()) ? *(Links_t*)&m_Elements[i] : *(Links_t*)&s_Sentinel;

	movzx	esi, WORD PTR _i$[ebp]
	call	?InvalidIndex@?$CUtlRBTree@UNode_t@?$CUtlMap@PBDPAVIEntityFactory@@G@@GVCKeyLess@2@V?$CUtlMemory@U?$UtlRBTreeNode_t@UNode_t@?$CUtlMap@PBDPAVIEntityFactory@@G@@G@@G@@@@SAGXZ ; CUtlRBTree<CUtlMap<char const *,IEntityFactory *,unsigned short>::Node_t,unsigned short,CUtlMap<char const *,IEntityFactory *,unsigned short>::CKeyLess,CUtlMemory<UtlRBTreeNode_t<CUtlMap<char const *,IEntityFactory *,unsigned short>::Node_t,unsigned short>,unsigned short> >::InvalidIndex
	movzx	eax, ax
	cmp	esi, eax
	je	SHORT $LN4@Links
	movzx	ecx, WORD PTR _i$[ebp]
	push	ecx
	mov	ecx, DWORD PTR _this$[ebp]
	add	ecx, 4
	call	??A?$CUtlMemory@U?$UtlRBTreeNode_t@UNode_t@?$CUtlMap@PBDPAVIEntityFactory@@G@@G@@G@@QBEABU?$UtlRBTreeNode_t@UNode_t@?$CUtlMap@PBDPAVIEntityFactory@@G@@G@@G@Z ; CUtlMemory<UtlRBTreeNode_t<CUtlMap<char const *,IEntityFactory *,unsigned short>::Node_t,unsigned short>,unsigned short>::operator[]
	mov	DWORD PTR tv87[ebp], eax
	jmp	SHORT $LN5@Links
$LN4@Links:
	mov	DWORD PTR tv87[ebp], OFFSET ?s_Sentinel@?1??Links@?$CUtlRBTree@UNode_t@?$CUtlMap@PBDPAVIEntityFactory@@G@@GVCKeyLess@2@V?$CUtlMemory@U?$UtlRBTreeNode_t@UNode_t@?$CUtlMap@PBDPAVIEntityFactory@@G@@G@@G@@@@IBEABU?$UtlRBTreeLinks_t@G@@G@Z@4U3@A ; `CUtlRBTree<CUtlMap<char const *,IEntityFactory *,unsigned short>::Node_t,unsigned short,CUtlMap<char const *,IEntityFactory *,unsigned short>::CKeyLess,CUtlMemory<UtlRBTreeNode_t<CUtlMap<char const *,IEntityFactory *,unsigned short>::Node_t,unsigned short>,unsigned short> >::Links'::`2'::s_Sentinel
$LN5@Links:
	mov	edx, DWORD PTR tv87[ebp]
	mov	DWORD PTR $T2[ebp], edx
	mov	eax, DWORD PTR $T2[ebp]

; 599  : }

	mov	ecx, DWORD PTR __$EHRec$[ebp]
	mov	DWORD PTR fs:0, ecx
	pop	ecx
	pop	edi
	pop	esi
	pop	ebx
	mov	esp, ebp
	pop	ebp
	ret	4
_TEXT	ENDS
;	COMDAT text$x
text$x	SEGMENT
__unwindfunclet$?Links@?$CUtlRBTree@UNode_t@?$CUtlMap@PBDPAVIEntityFactory@@G@@GVCKeyLess@2@V?$CUtlMemory@U?$UtlRBTreeNode_t@UNode_t@?$CUtlMap@PBDPAVIEntityFactory@@G@@G@@G@@@@IBEABU?$UtlRBTreeLinks_t@G@@G@Z$0:
	push	OFFSET ?$TSS0@?1??Links@?$CUtlRBTree@UNode_t@?$CUtlMap@PBDPAVIEntityFactory@@G@@GVCKeyLess@2@V?$CUtlMemory@U?$UtlRBTreeNode_t@UNode_t@?$CUtlMap@PBDPAVIEntityFactory@@G@@G@@G@@@@IBEABU?$UtlRBTreeLinks_t@G@@G@Z@4HA ; `CUtlRBTree<CUtlMap<char const *,IEntityFactory *,unsigned short>::Node_t,unsigned short,CUtlMap<char const *,IEntityFactory *,unsigned short>::CKeyLess,CUtlMemory<UtlRBTreeNode_t<CUtlMap<char const *,IEntityFactory *,unsigned short>::Node_t,unsigned short>,unsigned short> >::Links'::`2'::$TSS0
	call	__Init_thread_abort
	pop	ecx
	ret	0
__ehhandler$?Links@?$CUtlRBTree@UNode_t@?$CUtlMap@PBDPAVIEntityFactory@@G@@GVCKeyLess@2@V?$CUtlMemory@U?$UtlRBTreeNode_t@UNode_t@?$CUtlMap@PBDPAVIEntityFactory@@G@@G@@G@@@@IBEABU?$UtlRBTreeLinks_t@G@@G@Z:
	mov	edx, DWORD PTR [esp+8]
	lea	eax, DWORD PTR [edx+12]
	mov	ecx, DWORD PTR [edx-92]
	xor	ecx, eax
	call	@__security_check_cookie@4
	mov	eax, OFFSET __ehfuncinfo$?Links@?$CUtlRBTree@UNode_t@?$CUtlMap@PBDPAVIEntityFactory@@G@@GVCKeyLess@2@V?$CUtlMemory@U?$UtlRBTreeNode_t@UNode_t@?$CUtlMap@PBDPAVIEntityFactory@@G@@G@@G@@@@IBEABU?$UtlRBTreeLinks_t@G@@G@Z
	jmp	___CxxFrameHandler3
text$x	ENDS
?Links@?$CUtlRBTree@UNode_t@?$CUtlMap@PBDPAVIEntityFactory@@G@@GVCKeyLess@2@V?$CUtlMemory@U?$UtlRBTreeNode_t@UNode_t@?$CUtlMap@PBDPAVIEntityFactory@@G@@G@@G@@@@IBEABU?$UtlRBTreeLinks_t@G@@G@Z ENDP ; CUtlRBTree<CUtlMap<char const *,IEntityFactory *,unsigned short>::Node_t,unsigned short,CUtlMap<char const *,IEntityFactory *,unsigned short>::CKeyLess,CUtlMemory<UtlRBTreeNode_t<CUtlMap<char const *,IEntityFactory *,unsigned short>::Node_t,unsigned short>,unsigned short> >::Links
; Function compile flags: /Odtp /ZI
; File d:\!diffusion 2020\source code 2022\client-server\game_shared\utlrbtree.h
;	COMDAT ?LinkToParent@?$CUtlRBTree@UNode_t@?$CUtlMap@PBDPAVIEntityFactory@@G@@GVCKeyLess@2@V?$CUtlMemory@U?$UtlRBTreeNode_t@UNode_t@?$CUtlMap@PBDPAVIEntityFactory@@G@@G@@G@@@@IAEXGG_N@Z
_TEXT	SEGMENT
tv70 = -74						; size = 2
_elem$ = -8						; size = 4
_this$ = -4						; size = 4
_i$ = 8							; size = 2
_parent$ = 12						; size = 2
_isLeft$ = 16						; size = 1
?LinkToParent@?$CUtlRBTree@UNode_t@?$CUtlMap@PBDPAVIEntityFactory@@G@@GVCKeyLess@2@V?$CUtlMemory@U?$UtlRBTreeNode_t@UNode_t@?$CUtlMap@PBDPAVIEntityFactory@@G@@G@@G@@@@IAEXGG_N@Z PROC ; CUtlRBTree<CUtlMap<char const *,IEntityFactory *,unsigned short>::Node_t,unsigned short,CUtlMap<char const *,IEntityFactory *,unsigned short>::CKeyLess,CUtlMemory<UtlRBTreeNode_t<CUtlMap<char const *,IEntityFactory *,unsigned short>::Node_t,unsigned short>,unsigned short> >::LinkToParent, COMDAT
; _this$ = ecx

; 855  : {

	push	ebp
	mov	ebp, esp
	sub	esp, 76					; 0000004cH
	push	ebx
	push	esi
	push	edi
	mov	DWORD PTR _this$[ebp], ecx

; 856  : 	Links_t &elem = Links(i);

	movzx	eax, WORD PTR _i$[ebp]
	push	eax
	mov	ecx, DWORD PTR _this$[ebp]
	call	?Links@?$CUtlRBTree@UNode_t@?$CUtlMap@PBDPAVIEntityFactory@@G@@GVCKeyLess@2@V?$CUtlMemory@U?$UtlRBTreeNode_t@UNode_t@?$CUtlMap@PBDPAVIEntityFactory@@G@@G@@G@@@@IAEAAU?$UtlRBTreeLinks_t@G@@G@Z ; CUtlRBTree<CUtlMap<char const *,IEntityFactory *,unsigned short>::Node_t,unsigned short,CUtlMap<char const *,IEntityFactory *,unsigned short>::CKeyLess,CUtlMemory<UtlRBTreeNode_t<CUtlMap<char const *,IEntityFactory *,unsigned short>::Node_t,unsigned short>,unsigned short> >::Links
	mov	DWORD PTR _elem$[ebp], eax

; 857  : 	elem.m_Parent = parent;

	mov	eax, DWORD PTR _elem$[ebp]
	mov	cx, WORD PTR _parent$[ebp]
	mov	WORD PTR [eax+4], cx

; 858  : 	elem.m_Left = elem.m_Right = InvalidIndex();

	call	?InvalidIndex@?$CUtlRBTree@UNode_t@?$CUtlMap@PBDPAVIEntityFactory@@G@@GVCKeyLess@2@V?$CUtlMemory@U?$UtlRBTreeNode_t@UNode_t@?$CUtlMap@PBDPAVIEntityFactory@@G@@G@@G@@@@SAGXZ ; CUtlRBTree<CUtlMap<char const *,IEntityFactory *,unsigned short>::Node_t,unsigned short,CUtlMap<char const *,IEntityFactory *,unsigned short>::CKeyLess,CUtlMemory<UtlRBTreeNode_t<CUtlMap<char const *,IEntityFactory *,unsigned short>::Node_t,unsigned short>,unsigned short> >::InvalidIndex
	mov	WORD PTR tv70[ebp], ax
	mov	eax, DWORD PTR _elem$[ebp]
	mov	cx, WORD PTR tv70[ebp]
	mov	WORD PTR [eax+2], cx
	mov	edx, DWORD PTR _elem$[ebp]
	mov	ax, WORD PTR tv70[ebp]
	mov	WORD PTR [edx], ax

; 859  : 	elem.m_Tag = RED;

	xor	eax, eax
	mov	ecx, DWORD PTR _elem$[ebp]
	mov	WORD PTR [ecx+6], ax

; 860  : 
; 861  : 	/* insert node in tree */
; 862  : 	if (parent != InvalidIndex()) 

	movzx	esi, WORD PTR _parent$[ebp]
	call	?InvalidIndex@?$CUtlRBTree@UNode_t@?$CUtlMap@PBDPAVIEntityFactory@@G@@GVCKeyLess@2@V?$CUtlMemory@U?$UtlRBTreeNode_t@UNode_t@?$CUtlMap@PBDPAVIEntityFactory@@G@@G@@G@@@@SAGXZ ; CUtlRBTree<CUtlMap<char const *,IEntityFactory *,unsigned short>::Node_t,unsigned short,CUtlMap<char const *,IEntityFactory *,unsigned short>::CKeyLess,CUtlMemory<UtlRBTreeNode_t<CUtlMap<char const *,IEntityFactory *,unsigned short>::Node_t,unsigned short>,unsigned short> >::InvalidIndex
	movzx	eax, ax
	cmp	esi, eax
	je	SHORT $LN2@LinkToPare

; 863  : 	{
; 864  : 		if (isLeft)

	movzx	eax, BYTE PTR _isLeft$[ebp]
	test	eax, eax
	je	SHORT $LN4@LinkToPare

; 865  : 			Links(parent).m_Left = i;

	movzx	eax, WORD PTR _parent$[ebp]
	push	eax
	mov	ecx, DWORD PTR _this$[ebp]
	call	?Links@?$CUtlRBTree@UNode_t@?$CUtlMap@PBDPAVIEntityFactory@@G@@GVCKeyLess@2@V?$CUtlMemory@U?$UtlRBTreeNode_t@UNode_t@?$CUtlMap@PBDPAVIEntityFactory@@G@@G@@G@@@@IAEAAU?$UtlRBTreeLinks_t@G@@G@Z ; CUtlRBTree<CUtlMap<char const *,IEntityFactory *,unsigned short>::Node_t,unsigned short,CUtlMap<char const *,IEntityFactory *,unsigned short>::CKeyLess,CUtlMemory<UtlRBTreeNode_t<CUtlMap<char const *,IEntityFactory *,unsigned short>::Node_t,unsigned short>,unsigned short> >::Links
	mov	cx, WORD PTR _i$[ebp]
	mov	WORD PTR [eax], cx

; 866  : 		else

	jmp	SHORT $LN5@LinkToPare
$LN4@LinkToPare:

; 867  : 			Links(parent).m_Right = i;

	movzx	eax, WORD PTR _parent$[ebp]
	push	eax
	mov	ecx, DWORD PTR _this$[ebp]
	call	?Links@?$CUtlRBTree@UNode_t@?$CUtlMap@PBDPAVIEntityFactory@@G@@GVCKeyLess@2@V?$CUtlMemory@U?$UtlRBTreeNode_t@UNode_t@?$CUtlMap@PBDPAVIEntityFactory@@G@@G@@G@@@@IAEAAU?$UtlRBTreeLinks_t@G@@G@Z ; CUtlRBTree<CUtlMap<char const *,IEntityFactory *,unsigned short>::Node_t,unsigned short,CUtlMap<char const *,IEntityFactory *,unsigned short>::CKeyLess,CUtlMemory<UtlRBTreeNode_t<CUtlMap<char const *,IEntityFactory *,unsigned short>::Node_t,unsigned short>,unsigned short> >::Links
	mov	cx, WORD PTR _i$[ebp]
	mov	WORD PTR [eax+2], cx
$LN5@LinkToPare:

; 868  : 	} 
; 869  : 	else 

	jmp	SHORT $LN3@LinkToPare
$LN2@LinkToPare:

; 870  : 	{
; 871  : 		m_Root = i;

	mov	eax, DWORD PTR _this$[ebp]
	mov	cx, WORD PTR _i$[ebp]
	mov	WORD PTR [eax+16], cx
$LN3@LinkToPare:

; 872  : 	}
; 873  : 
; 874  : 	InsertRebalance(i);	

	movzx	eax, WORD PTR _i$[ebp]
	push	eax
	mov	ecx, DWORD PTR _this$[ebp]
	call	?InsertRebalance@?$CUtlRBTree@UNode_t@?$CUtlMap@PBDPAVIEntityFactory@@G@@GVCKeyLess@2@V?$CUtlMemory@U?$UtlRBTreeNode_t@UNode_t@?$CUtlMap@PBDPAVIEntityFactory@@G@@G@@G@@@@IAEXG@Z ; CUtlRBTree<CUtlMap<char const *,IEntityFactory *,unsigned short>::Node_t,unsigned short,CUtlMap<char const *,IEntityFactory *,unsigned short>::CKeyLess,CUtlMemory<UtlRBTreeNode_t<CUtlMap<char const *,IEntityFactory *,unsigned short>::Node_t,unsigned short>,unsigned short> >::InsertRebalance

; 875  : }

	pop	edi
	pop	esi
	pop	ebx
	mov	esp, ebp
	pop	ebp
	ret	12					; 0000000cH
?LinkToParent@?$CUtlRBTree@UNode_t@?$CUtlMap@PBDPAVIEntityFactory@@G@@GVCKeyLess@2@V?$CUtlMemory@U?$UtlRBTreeNode_t@UNode_t@?$CUtlMap@PBDPAVIEntityFactory@@G@@G@@G@@@@IAEXGG_N@Z ENDP ; CUtlRBTree<CUtlMap<char const *,IEntityFactory *,unsigned short>::Node_t,unsigned short,CUtlMap<char const *,IEntityFactory *,unsigned short>::CKeyLess,CUtlMemory<UtlRBTreeNode_t<CUtlMap<char const *,IEntityFactory *,unsigned short>::Node_t,unsigned short>,unsigned short> >::LinkToParent
_TEXT	ENDS
; Function compile flags: /Odtp /ZI
; File d:\!diffusion 2020\source code 2022\client-server\game_shared\utlrbtree.h
;	COMDAT ?SetRightChild@?$CUtlRBTree@UNode_t@?$CUtlMap@PBDPAVIEntityFactory@@G@@GVCKeyLess@2@V?$CUtlMemory@U?$UtlRBTreeNode_t@UNode_t@?$CUtlMap@PBDPAVIEntityFactory@@G@@G@@G@@@@IAEXGG@Z
_TEXT	SEGMENT
_this$ = -4						; size = 4
_i$ = 8							; size = 2
_child$ = 12						; size = 2
?SetRightChild@?$CUtlRBTree@UNode_t@?$CUtlMap@PBDPAVIEntityFactory@@G@@GVCKeyLess@2@V?$CUtlMemory@U?$UtlRBTreeNode_t@UNode_t@?$CUtlMap@PBDPAVIEntityFactory@@G@@G@@G@@@@IAEXGG@Z PROC ; CUtlRBTree<CUtlMap<char const *,IEntityFactory *,unsigned short>::Node_t,unsigned short,CUtlMap<char const *,IEntityFactory *,unsigned short>::CKeyLess,CUtlMemory<UtlRBTreeNode_t<CUtlMap<char const *,IEntityFactory *,unsigned short>::Node_t,unsigned short>,unsigned short> >::SetRightChild, COMDAT
; _this$ = ecx

; 581  : { 

	push	ebp
	mov	ebp, esp
	sub	esp, 68					; 00000044H
	push	ebx
	push	esi
	push	edi
	mov	DWORD PTR _this$[ebp], ecx

; 582  : 	Links(i).m_Right = child; 

	movzx	eax, WORD PTR _i$[ebp]
	push	eax
	mov	ecx, DWORD PTR _this$[ebp]
	call	?Links@?$CUtlRBTree@UNode_t@?$CUtlMap@PBDPAVIEntityFactory@@G@@GVCKeyLess@2@V?$CUtlMemory@U?$UtlRBTreeNode_t@UNode_t@?$CUtlMap@PBDPAVIEntityFactory@@G@@G@@G@@@@IAEAAU?$UtlRBTreeLinks_t@G@@G@Z ; CUtlRBTree<CUtlMap<char const *,IEntityFactory *,unsigned short>::Node_t,unsigned short,CUtlMap<char const *,IEntityFactory *,unsigned short>::CKeyLess,CUtlMemory<UtlRBTreeNode_t<CUtlMap<char const *,IEntityFactory *,unsigned short>::Node_t,unsigned short>,unsigned short> >::Links
	mov	cx, WORD PTR _child$[ebp]
	mov	WORD PTR [eax+2], cx

; 583  : }

	pop	edi
	pop	esi
	pop	ebx
	mov	esp, ebp
	pop	ebp
	ret	8
?SetRightChild@?$CUtlRBTree@UNode_t@?$CUtlMap@PBDPAVIEntityFactory@@G@@GVCKeyLess@2@V?$CUtlMemory@U?$UtlRBTreeNode_t@UNode_t@?$CUtlMap@PBDPAVIEntityFactory@@G@@G@@G@@@@IAEXGG@Z ENDP ; CUtlRBTree<CUtlMap<char const *,IEntityFactory *,unsigned short>::Node_t,unsigned short,CUtlMap<char const *,IEntityFactory *,unsigned short>::CKeyLess,CUtlMemory<UtlRBTreeNode_t<CUtlMap<char const *,IEntityFactory *,unsigned short>::Node_t,unsigned short>,unsigned short> >::SetRightChild
_TEXT	ENDS
; Function compile flags: /Odtp /ZI
; File d:\!diffusion 2020\source code 2022\client-server\game_shared\utlrbtree.h
;	COMDAT ?SetLeftChild@?$CUtlRBTree@UNode_t@?$CUtlMap@PBDPAVIEntityFactory@@G@@GVCKeyLess@2@V?$CUtlMemory@U?$UtlRBTreeNode_t@UNode_t@?$CUtlMap@PBDPAVIEntityFactory@@G@@G@@G@@@@IAEXGG@Z
_TEXT	SEGMENT
_this$ = -4						; size = 4
_i$ = 8							; size = 2
_child$ = 12						; size = 2
?SetLeftChild@?$CUtlRBTree@UNode_t@?$CUtlMap@PBDPAVIEntityFactory@@G@@GVCKeyLess@2@V?$CUtlMemory@U?$UtlRBTreeNode_t@UNode_t@?$CUtlMap@PBDPAVIEntityFactory@@G@@G@@G@@@@IAEXGG@Z PROC ; CUtlRBTree<CUtlMap<char const *,IEntityFactory *,unsigned short>::Node_t,unsigned short,CUtlMap<char const *,IEntityFactory *,unsigned short>::CKeyLess,CUtlMemory<UtlRBTreeNode_t<CUtlMap<char const *,IEntityFactory *,unsigned short>::Node_t,unsigned short>,unsigned short> >::SetLeftChild, COMDAT
; _this$ = ecx

; 575  : { 

	push	ebp
	mov	ebp, esp
	sub	esp, 68					; 00000044H
	push	ebx
	push	esi
	push	edi
	mov	DWORD PTR _this$[ebp], ecx

; 576  : 	Links(i).m_Left = child; 

	movzx	eax, WORD PTR _i$[ebp]
	push	eax
	mov	ecx, DWORD PTR _this$[ebp]
	call	?Links@?$CUtlRBTree@UNode_t@?$CUtlMap@PBDPAVIEntityFactory@@G@@GVCKeyLess@2@V?$CUtlMemory@U?$UtlRBTreeNode_t@UNode_t@?$CUtlMap@PBDPAVIEntityFactory@@G@@G@@G@@@@IAEAAU?$UtlRBTreeLinks_t@G@@G@Z ; CUtlRBTree<CUtlMap<char const *,IEntityFactory *,unsigned short>::Node_t,unsigned short,CUtlMap<char const *,IEntityFactory *,unsigned short>::CKeyLess,CUtlMemory<UtlRBTreeNode_t<CUtlMap<char const *,IEntityFactory *,unsigned short>::Node_t,unsigned short>,unsigned short> >::Links
	mov	cx, WORD PTR _child$[ebp]
	mov	WORD PTR [eax], cx

; 577  : }

	pop	edi
	pop	esi
	pop	ebx
	mov	esp, ebp
	pop	ebp
	ret	8
?SetLeftChild@?$CUtlRBTree@UNode_t@?$CUtlMap@PBDPAVIEntityFactory@@G@@GVCKeyLess@2@V?$CUtlMemory@U?$UtlRBTreeNode_t@UNode_t@?$CUtlMap@PBDPAVIEntityFactory@@G@@G@@G@@@@IAEXGG@Z ENDP ; CUtlRBTree<CUtlMap<char const *,IEntityFactory *,unsigned short>::Node_t,unsigned short,CUtlMap<char const *,IEntityFactory *,unsigned short>::CKeyLess,CUtlMemory<UtlRBTreeNode_t<CUtlMap<char const *,IEntityFactory *,unsigned short>::Node_t,unsigned short>,unsigned short> >::SetLeftChild
_TEXT	ENDS
; Function compile flags: /Odtp /ZI
; File d:\!diffusion 2020\source code 2022\client-server\game_shared\utlrbtree.h
;	COMDAT ?SetParent@?$CUtlRBTree@UNode_t@?$CUtlMap@PBDPAVIEntityFactory@@G@@GVCKeyLess@2@V?$CUtlMemory@U?$UtlRBTreeNode_t@UNode_t@?$CUtlMap@PBDPAVIEntityFactory@@G@@G@@G@@@@IAEXGG@Z
_TEXT	SEGMENT
_this$ = -4						; size = 4
_i$ = 8							; size = 2
_parent$ = 12						; size = 2
?SetParent@?$CUtlRBTree@UNode_t@?$CUtlMap@PBDPAVIEntityFactory@@G@@GVCKeyLess@2@V?$CUtlMemory@U?$UtlRBTreeNode_t@UNode_t@?$CUtlMap@PBDPAVIEntityFactory@@G@@G@@G@@@@IAEXGG@Z PROC ; CUtlRBTree<CUtlMap<char const *,IEntityFactory *,unsigned short>::Node_t,unsigned short,CUtlMap<char const *,IEntityFactory *,unsigned short>::CKeyLess,CUtlMemory<UtlRBTreeNode_t<CUtlMap<char const *,IEntityFactory *,unsigned short>::Node_t,unsigned short>,unsigned short> >::SetParent, COMDAT
; _this$ = ecx

; 569  : { 

	push	ebp
	mov	ebp, esp
	sub	esp, 68					; 00000044H
	push	ebx
	push	esi
	push	edi
	mov	DWORD PTR _this$[ebp], ecx

; 570  : 	Links(i).m_Parent = parent; 

	movzx	eax, WORD PTR _i$[ebp]
	push	eax
	mov	ecx, DWORD PTR _this$[ebp]
	call	?Links@?$CUtlRBTree@UNode_t@?$CUtlMap@PBDPAVIEntityFactory@@G@@GVCKeyLess@2@V?$CUtlMemory@U?$UtlRBTreeNode_t@UNode_t@?$CUtlMap@PBDPAVIEntityFactory@@G@@G@@G@@@@IAEAAU?$UtlRBTreeLinks_t@G@@G@Z ; CUtlRBTree<CUtlMap<char const *,IEntityFactory *,unsigned short>::Node_t,unsigned short,CUtlMap<char const *,IEntityFactory *,unsigned short>::CKeyLess,CUtlMemory<UtlRBTreeNode_t<CUtlMap<char const *,IEntityFactory *,unsigned short>::Node_t,unsigned short>,unsigned short> >::Links
	mov	cx, WORD PTR _parent$[ebp]
	mov	WORD PTR [eax+4], cx

; 571  : }

	pop	edi
	pop	esi
	pop	ebx
	mov	esp, ebp
	pop	ebp
	ret	8
?SetParent@?$CUtlRBTree@UNode_t@?$CUtlMap@PBDPAVIEntityFactory@@G@@GVCKeyLess@2@V?$CUtlMemory@U?$UtlRBTreeNode_t@UNode_t@?$CUtlMap@PBDPAVIEntityFactory@@G@@G@@G@@@@IAEXGG@Z ENDP ; CUtlRBTree<CUtlMap<char const *,IEntityFactory *,unsigned short>::Node_t,unsigned short,CUtlMap<char const *,IEntityFactory *,unsigned short>::CKeyLess,CUtlMemory<UtlRBTreeNode_t<CUtlMap<char const *,IEntityFactory *,unsigned short>::Node_t,unsigned short>,unsigned short> >::SetParent
_TEXT	ENDS
; Function compile flags: /Odtp /ZI
; File d:\!diffusion 2020\source code 2022\client-server\game_shared\utlrbtree.h
;	COMDAT ?NextInorder@?$CUtlRBTree@UNode_t@?$CUtlMap@PBDPAVIEntityFactory@@G@@GVCKeyLess@2@V?$CUtlMemory@U?$UtlRBTreeNode_t@UNode_t@?$CUtlMap@PBDPAVIEntityFactory@@G@@G@@G@@@@QBEGG@Z
_TEXT	SEGMENT
_parent$ = -8						; size = 2
_this$ = -4						; size = 4
_i$ = 8							; size = 2
?NextInorder@?$CUtlRBTree@UNode_t@?$CUtlMap@PBDPAVIEntityFactory@@G@@GVCKeyLess@2@V?$CUtlMemory@U?$UtlRBTreeNode_t@UNode_t@?$CUtlMap@PBDPAVIEntityFactory@@G@@G@@G@@@@QBEGG@Z PROC ; CUtlRBTree<CUtlMap<char const *,IEntityFactory *,unsigned short>::Node_t,unsigned short,CUtlMap<char const *,IEntityFactory *,unsigned short>::CKeyLess,CUtlMemory<UtlRBTreeNode_t<CUtlMap<char const *,IEntityFactory *,unsigned short>::Node_t,unsigned short>,unsigned short> >::NextInorder, COMDAT
; _this$ = ecx

; 1163 : {

	push	ebp
	mov	ebp, esp
	sub	esp, 72					; 00000048H
	push	ebx
	push	esi
	push	edi
	mov	DWORD PTR _this$[ebp], ecx

; 1164 : 	assert(IsValidIndex(i));

	movzx	eax, WORD PTR _i$[ebp]
	push	eax
	mov	ecx, DWORD PTR _this$[ebp]
	call	?IsValidIndex@?$CUtlRBTree@UNode_t@?$CUtlMap@PBDPAVIEntityFactory@@G@@GVCKeyLess@2@V?$CUtlMemory@U?$UtlRBTreeNode_t@UNode_t@?$CUtlMap@PBDPAVIEntityFactory@@G@@G@@G@@@@QBE_NG@Z ; CUtlRBTree<CUtlMap<char const *,IEntityFactory *,unsigned short>::Node_t,unsigned short,CUtlMap<char const *,IEntityFactory *,unsigned short>::CKeyLess,CUtlMemory<UtlRBTreeNode_t<CUtlMap<char const *,IEntityFactory *,unsigned short>::Node_t,unsigned short>,unsigned short> >::IsValidIndex
	movzx	ecx, al
	test	ecx, ecx
	jne	SHORT $LN9@NextInorde
	push	1164					; 0000048cH
	push	OFFSET ??_C@_1JE@LJJIJLOD@?$AAd?$AA?3?$AA?2?$AA?$CB?$AAd?$AAi?$AAf?$AAf?$AAu?$AAs?$AAi?$AAo?$AAn?$AA?5?$AA2?$AA0?$AA2?$AA0?$AA?2?$AAs?$AAo?$AAu?$AAr?$AAc?$AAe?$AA?5?$AAc?$AAo?$AAd?$AAe?$AA?5?$AA2@
	push	OFFSET ??_C@_1CA@DONHBKAI@?$AAI?$AAs?$AAV?$AAa?$AAl?$AAi?$AAd?$AAI?$AAn?$AAd?$AAe?$AAx?$AA?$CI?$AAi?$AA?$CJ?$AA?$AA@
	call	__wassert
	add	esp, 12					; 0000000cH
$LN9@NextInorde:

; 1165 : 
; 1166 : 	if (RightChild(i) != InvalidIndex())

	movzx	eax, WORD PTR _i$[ebp]
	push	eax
	mov	ecx, DWORD PTR _this$[ebp]
	call	?RightChild@?$CUtlRBTree@UNode_t@?$CUtlMap@PBDPAVIEntityFactory@@G@@GVCKeyLess@2@V?$CUtlMemory@U?$UtlRBTreeNode_t@UNode_t@?$CUtlMap@PBDPAVIEntityFactory@@G@@G@@G@@@@QBEGG@Z ; CUtlRBTree<CUtlMap<char const *,IEntityFactory *,unsigned short>::Node_t,unsigned short,CUtlMap<char const *,IEntityFactory *,unsigned short>::CKeyLess,CUtlMemory<UtlRBTreeNode_t<CUtlMap<char const *,IEntityFactory *,unsigned short>::Node_t,unsigned short>,unsigned short> >::RightChild
	movzx	esi, ax
	call	?InvalidIndex@?$CUtlRBTree@UNode_t@?$CUtlMap@PBDPAVIEntityFactory@@G@@GVCKeyLess@2@V?$CUtlMemory@U?$UtlRBTreeNode_t@UNode_t@?$CUtlMap@PBDPAVIEntityFactory@@G@@G@@G@@@@SAGXZ ; CUtlRBTree<CUtlMap<char const *,IEntityFactory *,unsigned short>::Node_t,unsigned short,CUtlMap<char const *,IEntityFactory *,unsigned short>::CKeyLess,CUtlMemory<UtlRBTreeNode_t<CUtlMap<char const *,IEntityFactory *,unsigned short>::Node_t,unsigned short>,unsigned short> >::InvalidIndex
	movzx	ecx, ax
	cmp	esi, ecx
	je	SHORT $LN6@NextInorde

; 1167 : 	{
; 1168 : 		i = RightChild(i);

	movzx	eax, WORD PTR _i$[ebp]
	push	eax
	mov	ecx, DWORD PTR _this$[ebp]
	call	?RightChild@?$CUtlRBTree@UNode_t@?$CUtlMap@PBDPAVIEntityFactory@@G@@GVCKeyLess@2@V?$CUtlMemory@U?$UtlRBTreeNode_t@UNode_t@?$CUtlMap@PBDPAVIEntityFactory@@G@@G@@G@@@@QBEGG@Z ; CUtlRBTree<CUtlMap<char const *,IEntityFactory *,unsigned short>::Node_t,unsigned short,CUtlMap<char const *,IEntityFactory *,unsigned short>::CKeyLess,CUtlMemory<UtlRBTreeNode_t<CUtlMap<char const *,IEntityFactory *,unsigned short>::Node_t,unsigned short>,unsigned short> >::RightChild
	mov	WORD PTR _i$[ebp], ax
$LN2@NextInorde:

; 1169 : 		while (LeftChild(i) != InvalidIndex())

	movzx	eax, WORD PTR _i$[ebp]
	push	eax
	mov	ecx, DWORD PTR _this$[ebp]
	call	?LeftChild@?$CUtlRBTree@UNode_t@?$CUtlMap@PBDPAVIEntityFactory@@G@@GVCKeyLess@2@V?$CUtlMemory@U?$UtlRBTreeNode_t@UNode_t@?$CUtlMap@PBDPAVIEntityFactory@@G@@G@@G@@@@QBEGG@Z ; CUtlRBTree<CUtlMap<char const *,IEntityFactory *,unsigned short>::Node_t,unsigned short,CUtlMap<char const *,IEntityFactory *,unsigned short>::CKeyLess,CUtlMemory<UtlRBTreeNode_t<CUtlMap<char const *,IEntityFactory *,unsigned short>::Node_t,unsigned short>,unsigned short> >::LeftChild
	movzx	esi, ax
	call	?InvalidIndex@?$CUtlRBTree@UNode_t@?$CUtlMap@PBDPAVIEntityFactory@@G@@GVCKeyLess@2@V?$CUtlMemory@U?$UtlRBTreeNode_t@UNode_t@?$CUtlMap@PBDPAVIEntityFactory@@G@@G@@G@@@@SAGXZ ; CUtlRBTree<CUtlMap<char const *,IEntityFactory *,unsigned short>::Node_t,unsigned short,CUtlMap<char const *,IEntityFactory *,unsigned short>::CKeyLess,CUtlMemory<UtlRBTreeNode_t<CUtlMap<char const *,IEntityFactory *,unsigned short>::Node_t,unsigned short>,unsigned short> >::InvalidIndex
	movzx	ecx, ax
	cmp	esi, ecx
	je	SHORT $LN3@NextInorde

; 1170 : 			i = LeftChild(i);

	movzx	eax, WORD PTR _i$[ebp]
	push	eax
	mov	ecx, DWORD PTR _this$[ebp]
	call	?LeftChild@?$CUtlRBTree@UNode_t@?$CUtlMap@PBDPAVIEntityFactory@@G@@GVCKeyLess@2@V?$CUtlMemory@U?$UtlRBTreeNode_t@UNode_t@?$CUtlMap@PBDPAVIEntityFactory@@G@@G@@G@@@@QBEGG@Z ; CUtlRBTree<CUtlMap<char const *,IEntityFactory *,unsigned short>::Node_t,unsigned short,CUtlMap<char const *,IEntityFactory *,unsigned short>::CKeyLess,CUtlMemory<UtlRBTreeNode_t<CUtlMap<char const *,IEntityFactory *,unsigned short>::Node_t,unsigned short>,unsigned short> >::LeftChild
	mov	WORD PTR _i$[ebp], ax
	jmp	SHORT $LN2@NextInorde
$LN3@NextInorde:

; 1171 : 		return i;

	mov	ax, WORD PTR _i$[ebp]
	jmp	SHORT $LN1@NextInorde
$LN6@NextInorde:

; 1172 : 	}
; 1173 : 
; 1174 : 	I parent = Parent(i);

	movzx	eax, WORD PTR _i$[ebp]
	push	eax
	mov	ecx, DWORD PTR _this$[ebp]
	call	?Parent@?$CUtlRBTree@UNode_t@?$CUtlMap@PBDPAVIEntityFactory@@G@@GVCKeyLess@2@V?$CUtlMemory@U?$UtlRBTreeNode_t@UNode_t@?$CUtlMap@PBDPAVIEntityFactory@@G@@G@@G@@@@QBEGG@Z ; CUtlRBTree<CUtlMap<char const *,IEntityFactory *,unsigned short>::Node_t,unsigned short,CUtlMap<char const *,IEntityFactory *,unsigned short>::CKeyLess,CUtlMemory<UtlRBTreeNode_t<CUtlMap<char const *,IEntityFactory *,unsigned short>::Node_t,unsigned short>,unsigned short> >::Parent
	mov	WORD PTR _parent$[ebp], ax
$LN4@NextInorde:

; 1175 : 	while (IsRightChild(i))

	movzx	eax, WORD PTR _i$[ebp]
	push	eax
	mov	ecx, DWORD PTR _this$[ebp]
	call	?IsRightChild@?$CUtlRBTree@UNode_t@?$CUtlMap@PBDPAVIEntityFactory@@G@@GVCKeyLess@2@V?$CUtlMemory@U?$UtlRBTreeNode_t@UNode_t@?$CUtlMap@PBDPAVIEntityFactory@@G@@G@@G@@@@QBE_NG@Z ; CUtlRBTree<CUtlMap<char const *,IEntityFactory *,unsigned short>::Node_t,unsigned short,CUtlMap<char const *,IEntityFactory *,unsigned short>::CKeyLess,CUtlMemory<UtlRBTreeNode_t<CUtlMap<char const *,IEntityFactory *,unsigned short>::Node_t,unsigned short>,unsigned short> >::IsRightChild
	movzx	ecx, al
	test	ecx, ecx
	je	SHORT $LN5@NextInorde

; 1176 : 	{
; 1177 : 		i = parent;

	mov	ax, WORD PTR _parent$[ebp]
	mov	WORD PTR _i$[ebp], ax

; 1178 : 		if (i == InvalidIndex()) break;

	movzx	esi, WORD PTR _i$[ebp]
	call	?InvalidIndex@?$CUtlRBTree@UNode_t@?$CUtlMap@PBDPAVIEntityFactory@@G@@GVCKeyLess@2@V?$CUtlMemory@U?$UtlRBTreeNode_t@UNode_t@?$CUtlMap@PBDPAVIEntityFactory@@G@@G@@G@@@@SAGXZ ; CUtlRBTree<CUtlMap<char const *,IEntityFactory *,unsigned short>::Node_t,unsigned short,CUtlMap<char const *,IEntityFactory *,unsigned short>::CKeyLess,CUtlMemory<UtlRBTreeNode_t<CUtlMap<char const *,IEntityFactory *,unsigned short>::Node_t,unsigned short>,unsigned short> >::InvalidIndex
	movzx	eax, ax
	cmp	esi, eax
	jne	SHORT $LN7@NextInorde
	jmp	SHORT $LN5@NextInorde
$LN7@NextInorde:

; 1179 : 		parent = Parent(i);

	movzx	eax, WORD PTR _i$[ebp]
	push	eax
	mov	ecx, DWORD PTR _this$[ebp]
	call	?Parent@?$CUtlRBTree@UNode_t@?$CUtlMap@PBDPAVIEntityFactory@@G@@GVCKeyLess@2@V?$CUtlMemory@U?$UtlRBTreeNode_t@UNode_t@?$CUtlMap@PBDPAVIEntityFactory@@G@@G@@G@@@@QBEGG@Z ; CUtlRBTree<CUtlMap<char const *,IEntityFactory *,unsigned short>::Node_t,unsigned short,CUtlMap<char const *,IEntityFactory *,unsigned short>::CKeyLess,CUtlMemory<UtlRBTreeNode_t<CUtlMap<char const *,IEntityFactory *,unsigned short>::Node_t,unsigned short>,unsigned short> >::Parent
	mov	WORD PTR _parent$[ebp], ax

; 1180 : 	}

	jmp	SHORT $LN4@NextInorde
$LN5@NextInorde:

; 1181 : 	return parent;

	mov	ax, WORD PTR _parent$[ebp]
$LN1@NextInorde:

; 1182 : }

	pop	edi
	pop	esi
	pop	ebx
	mov	esp, ebp
	pop	ebp
	ret	4
?NextInorder@?$CUtlRBTree@UNode_t@?$CUtlMap@PBDPAVIEntityFactory@@G@@GVCKeyLess@2@V?$CUtlMemory@U?$UtlRBTreeNode_t@UNode_t@?$CUtlMap@PBDPAVIEntityFactory@@G@@G@@G@@@@QBEGG@Z ENDP ; CUtlRBTree<CUtlMap<char const *,IEntityFactory *,unsigned short>::Node_t,unsigned short,CUtlMap<char const *,IEntityFactory *,unsigned short>::CKeyLess,CUtlMemory<UtlRBTreeNode_t<CUtlMap<char const *,IEntityFactory *,unsigned short>::Node_t,unsigned short>,unsigned short> >::NextInorder
_TEXT	ENDS
; Function compile flags: /Odtp /ZI
; File d:\!diffusion 2020\source code 2022\client-server\game_shared\utlrbtree.h
;	COMDAT ?FirstInorder@?$CUtlRBTree@UNode_t@?$CUtlMap@PBDPAVIEntityFactory@@G@@GVCKeyLess@2@V?$CUtlMemory@U?$UtlRBTreeNode_t@UNode_t@?$CUtlMap@PBDPAVIEntityFactory@@G@@G@@G@@@@QBEGXZ
_TEXT	SEGMENT
_i$ = -8						; size = 2
_this$ = -4						; size = 4
?FirstInorder@?$CUtlRBTree@UNode_t@?$CUtlMap@PBDPAVIEntityFactory@@G@@GVCKeyLess@2@V?$CUtlMemory@U?$UtlRBTreeNode_t@UNode_t@?$CUtlMap@PBDPAVIEntityFactory@@G@@G@@G@@@@QBEGXZ PROC ; CUtlRBTree<CUtlMap<char const *,IEntityFactory *,unsigned short>::Node_t,unsigned short,CUtlMap<char const *,IEntityFactory *,unsigned short>::CKeyLess,CUtlMemory<UtlRBTreeNode_t<CUtlMap<char const *,IEntityFactory *,unsigned short>::Node_t,unsigned short>,unsigned short> >::FirstInorder, COMDAT
; _this$ = ecx

; 1154 : {

	push	ebp
	mov	ebp, esp
	sub	esp, 72					; 00000048H
	push	ebx
	push	esi
	push	edi
	mov	DWORD PTR _this$[ebp], ecx

; 1155 : 	I i = m_Root;

	mov	eax, DWORD PTR _this$[ebp]
	mov	cx, WORD PTR [eax+16]
	mov	WORD PTR _i$[ebp], cx
$LN2@FirstInord:

; 1156 : 	while (LeftChild(i) != InvalidIndex())

	movzx	eax, WORD PTR _i$[ebp]
	push	eax
	mov	ecx, DWORD PTR _this$[ebp]
	call	?LeftChild@?$CUtlRBTree@UNode_t@?$CUtlMap@PBDPAVIEntityFactory@@G@@GVCKeyLess@2@V?$CUtlMemory@U?$UtlRBTreeNode_t@UNode_t@?$CUtlMap@PBDPAVIEntityFactory@@G@@G@@G@@@@QBEGG@Z ; CUtlRBTree<CUtlMap<char const *,IEntityFactory *,unsigned short>::Node_t,unsigned short,CUtlMap<char const *,IEntityFactory *,unsigned short>::CKeyLess,CUtlMemory<UtlRBTreeNode_t<CUtlMap<char const *,IEntityFactory *,unsigned short>::Node_t,unsigned short>,unsigned short> >::LeftChild
	movzx	esi, ax
	call	?InvalidIndex@?$CUtlRBTree@UNode_t@?$CUtlMap@PBDPAVIEntityFactory@@G@@GVCKeyLess@2@V?$CUtlMemory@U?$UtlRBTreeNode_t@UNode_t@?$CUtlMap@PBDPAVIEntityFactory@@G@@G@@G@@@@SAGXZ ; CUtlRBTree<CUtlMap<char const *,IEntityFactory *,unsigned short>::Node_t,unsigned short,CUtlMap<char const *,IEntityFactory *,unsigned short>::CKeyLess,CUtlMemory<UtlRBTreeNode_t<CUtlMap<char const *,IEntityFactory *,unsigned short>::Node_t,unsigned short>,unsigned short> >::InvalidIndex
	movzx	ecx, ax
	cmp	esi, ecx
	je	SHORT $LN3@FirstInord

; 1157 : 		i = LeftChild(i);

	movzx	eax, WORD PTR _i$[ebp]
	push	eax
	mov	ecx, DWORD PTR _this$[ebp]
	call	?LeftChild@?$CUtlRBTree@UNode_t@?$CUtlMap@PBDPAVIEntityFactory@@G@@GVCKeyLess@2@V?$CUtlMemory@U?$UtlRBTreeNode_t@UNode_t@?$CUtlMap@PBDPAVIEntityFactory@@G@@G@@G@@@@QBEGG@Z ; CUtlRBTree<CUtlMap<char const *,IEntityFactory *,unsigned short>::Node_t,unsigned short,CUtlMap<char const *,IEntityFactory *,unsigned short>::CKeyLess,CUtlMemory<UtlRBTreeNode_t<CUtlMap<char const *,IEntityFactory *,unsigned short>::Node_t,unsigned short>,unsigned short> >::LeftChild
	mov	WORD PTR _i$[ebp], ax
	jmp	SHORT $LN2@FirstInord
$LN3@FirstInord:

; 1158 : 	return i;

	mov	ax, WORD PTR _i$[ebp]

; 1159 : }

	pop	edi
	pop	esi
	pop	ebx
	mov	esp, ebp
	pop	ebp
	ret	0
?FirstInorder@?$CUtlRBTree@UNode_t@?$CUtlMap@PBDPAVIEntityFactory@@G@@GVCKeyLess@2@V?$CUtlMemory@U?$UtlRBTreeNode_t@UNode_t@?$CUtlMap@PBDPAVIEntityFactory@@G@@G@@G@@@@QBEGXZ ENDP ; CUtlRBTree<CUtlMap<char const *,IEntityFactory *,unsigned short>::Node_t,unsigned short,CUtlMap<char const *,IEntityFactory *,unsigned short>::CKeyLess,CUtlMemory<UtlRBTreeNode_t<CUtlMap<char const *,IEntityFactory *,unsigned short>::Node_t,unsigned short>,unsigned short> >::FirstInorder
_TEXT	ENDS
; Function compile flags: /Odtp /ZI
; File d:\!diffusion 2020\source code 2022\client-server\game_shared\utlrbtree.h
;	COMDAT ?Purge@?$CUtlRBTree@UNode_t@?$CUtlMap@PBDPAVIEntityFactory@@G@@GVCKeyLess@2@V?$CUtlMemory@U?$UtlRBTreeNode_t@UNode_t@?$CUtlMap@PBDPAVIEntityFactory@@G@@G@@G@@@@QAEXXZ
_TEXT	SEGMENT
$T1 = -70						; size = 2
_this$ = -4						; size = 4
?Purge@?$CUtlRBTree@UNode_t@?$CUtlMap@PBDPAVIEntityFactory@@G@@GVCKeyLess@2@V?$CUtlMemory@U?$UtlRBTreeNode_t@UNode_t@?$CUtlMap@PBDPAVIEntityFactory@@G@@G@@G@@@@QAEXXZ PROC ; CUtlRBTree<CUtlMap<char const *,IEntityFactory *,unsigned short>::Node_t,unsigned short,CUtlMap<char const *,IEntityFactory *,unsigned short>::CKeyLess,CUtlMemory<UtlRBTreeNode_t<CUtlMap<char const *,IEntityFactory *,unsigned short>::Node_t,unsigned short>,unsigned short> >::Purge, COMDAT
; _this$ = ecx

; 1140 : {

	push	ebp
	mov	ebp, esp
	sub	esp, 72					; 00000048H
	push	ebx
	push	esi
	push	edi
	mov	DWORD PTR _this$[ebp], ecx

; 1141 : 	RemoveAll();

	mov	ecx, DWORD PTR _this$[ebp]
	call	?RemoveAll@?$CUtlRBTree@UNode_t@?$CUtlMap@PBDPAVIEntityFactory@@G@@GVCKeyLess@2@V?$CUtlMemory@U?$UtlRBTreeNode_t@UNode_t@?$CUtlMap@PBDPAVIEntityFactory@@G@@G@@G@@@@QAEXXZ ; CUtlRBTree<CUtlMap<char const *,IEntityFactory *,unsigned short>::Node_t,unsigned short,CUtlMap<char const *,IEntityFactory *,unsigned short>::CKeyLess,CUtlMemory<UtlRBTreeNode_t<CUtlMap<char const *,IEntityFactory *,unsigned short>::Node_t,unsigned short>,unsigned short> >::RemoveAll

; 1142 : 	m_FirstFree = InvalidIndex();

	call	?InvalidIndex@?$CUtlRBTree@UNode_t@?$CUtlMap@PBDPAVIEntityFactory@@G@@GVCKeyLess@2@V?$CUtlMemory@U?$UtlRBTreeNode_t@UNode_t@?$CUtlMap@PBDPAVIEntityFactory@@G@@G@@G@@@@SAGXZ ; CUtlRBTree<CUtlMap<char const *,IEntityFactory *,unsigned short>::Node_t,unsigned short,CUtlMap<char const *,IEntityFactory *,unsigned short>::CKeyLess,CUtlMemory<UtlRBTreeNode_t<CUtlMap<char const *,IEntityFactory *,unsigned short>::Node_t,unsigned short>,unsigned short> >::InvalidIndex
	mov	ecx, DWORD PTR _this$[ebp]
	mov	WORD PTR [ecx+20], ax

; 1143 : 	m_Elements.Purge();

	mov	ecx, DWORD PTR _this$[ebp]
	add	ecx, 4
	call	?Purge@?$CUtlMemory@U?$UtlRBTreeNode_t@UNode_t@?$CUtlMap@PBDPAVIEntityFactory@@G@@G@@G@@QAEXXZ ; CUtlMemory<UtlRBTreeNode_t<CUtlMap<char const *,IEntityFactory *,unsigned short>::Node_t,unsigned short>,unsigned short>::Purge

; 1144 : 	m_LastAlloc = m_Elements.InvalidIterator();

	lea	eax, DWORD PTR $T1[ebp]
	push	eax
	mov	ecx, DWORD PTR _this$[ebp]
	add	ecx, 4
	call	?InvalidIterator@?$CUtlMemory@U?$UtlRBTreeNode_t@UNode_t@?$CUtlMap@PBDPAVIEntityFactory@@G@@G@@G@@QBE?AVIterator_t@1@XZ ; CUtlMemory<UtlRBTreeNode_t<CUtlMap<char const *,IEntityFactory *,unsigned short>::Node_t,unsigned short>,unsigned short>::InvalidIterator
	mov	cx, WORD PTR [eax]
	mov	edx, DWORD PTR _this$[ebp]
	mov	WORD PTR [edx+22], cx

; 1145 : }

	pop	edi
	pop	esi
	pop	ebx
	mov	esp, ebp
	pop	ebp
	ret	0
?Purge@?$CUtlRBTree@UNode_t@?$CUtlMap@PBDPAVIEntityFactory@@G@@GVCKeyLess@2@V?$CUtlMemory@U?$UtlRBTreeNode_t@UNode_t@?$CUtlMap@PBDPAVIEntityFactory@@G@@G@@G@@@@QAEXXZ ENDP ; CUtlRBTree<CUtlMap<char const *,IEntityFactory *,unsigned short>::Node_t,unsigned short,CUtlMap<char const *,IEntityFactory *,unsigned short>::CKeyLess,CUtlMemory<UtlRBTreeNode_t<CUtlMap<char const *,IEntityFactory *,unsigned short>::Node_t,unsigned short>,unsigned short> >::Purge
_TEXT	ENDS
; Function compile flags: /Odtp /ZI
; File d:\!diffusion 2020\source code 2022\client-server\game_shared\utlrbtree.h
;	COMDAT ?RemoveAll@?$CUtlRBTree@UNode_t@?$CUtlMap@PBDPAVIEntityFactory@@G@@GVCKeyLess@2@V?$CUtlMemory@U?$UtlRBTreeNode_t@UNode_t@?$CUtlMap@PBDPAVIEntityFactory@@G@@G@@G@@@@QAEXXZ
_TEXT	SEGMENT
$T1 = -82						; size = 2
$T2 = -80						; size = 2
$T3 = -78						; size = 2
_i$4 = -12						; size = 2
_it$5 = -8						; size = 2
_this$ = -4						; size = 4
?RemoveAll@?$CUtlRBTree@UNode_t@?$CUtlMap@PBDPAVIEntityFactory@@G@@GVCKeyLess@2@V?$CUtlMemory@U?$UtlRBTreeNode_t@UNode_t@?$CUtlMap@PBDPAVIEntityFactory@@G@@G@@G@@@@QAEXXZ PROC ; CUtlRBTree<CUtlMap<char const *,IEntityFactory *,unsigned short>::Node_t,unsigned short,CUtlMap<char const *,IEntityFactory *,unsigned short>::CKeyLess,CUtlMemory<UtlRBTreeNode_t<CUtlMap<char const *,IEntityFactory *,unsigned short>::Node_t,unsigned short>,unsigned short> >::RemoveAll, COMDAT
; _this$ = ecx

; 1099 : {

	push	ebp
	mov	ebp, esp
	sub	esp, 84					; 00000054H
	push	ebx
	push	esi
	push	edi
	mov	DWORD PTR _this$[ebp], ecx

; 1100 : 	// Have to do some convoluted stuff to invoke the destructor on all
; 1101 : 	// valid elements for the multilist case (since we don't have all elements
; 1102 : 	// connected to each other in a list).
; 1103 : 
; 1104 : 	if ( m_LastAlloc == m_Elements.InvalidIterator() )

	lea	eax, DWORD PTR $T3[ebp]
	push	eax
	mov	ecx, DWORD PTR _this$[ebp]
	add	ecx, 4
	call	?InvalidIterator@?$CUtlMemory@U?$UtlRBTreeNode_t@UNode_t@?$CUtlMap@PBDPAVIEntityFactory@@G@@G@@G@@QBE?AVIterator_t@1@XZ ; CUtlMemory<UtlRBTreeNode_t<CUtlMap<char const *,IEntityFactory *,unsigned short>::Node_t,unsigned short>,unsigned short>::InvalidIterator
	mov	cx, WORD PTR [eax]
	movzx	edx, cx
	push	edx
	mov	ecx, DWORD PTR _this$[ebp]
	add	ecx, 22					; 00000016H
	call	??8Iterator_t@?$CUtlMemory@U?$UtlRBTreeNode_t@UNode_t@?$CUtlMap@PBDPAVIEntityFactory@@G@@G@@G@@QBE_NV01@@Z ; CUtlMemory<UtlRBTreeNode_t<CUtlMap<char const *,IEntityFactory *,unsigned short>::Node_t,unsigned short>,unsigned short>::Iterator_t::operator==
	movzx	eax, al
	test	eax, eax
	je	SHORT $LN5@RemoveAll

; 1105 : 	{
; 1106 : 		assert( m_Root == InvalidIndex() );

	mov	eax, DWORD PTR _this$[ebp]
	movzx	esi, WORD PTR [eax+16]
	call	?InvalidIndex@?$CUtlRBTree@UNode_t@?$CUtlMap@PBDPAVIEntityFactory@@G@@GVCKeyLess@2@V?$CUtlMemory@U?$UtlRBTreeNode_t@UNode_t@?$CUtlMap@PBDPAVIEntityFactory@@G@@G@@G@@@@SAGXZ ; CUtlRBTree<CUtlMap<char const *,IEntityFactory *,unsigned short>::Node_t,unsigned short,CUtlMap<char const *,IEntityFactory *,unsigned short>::CKeyLess,CUtlMemory<UtlRBTreeNode_t<CUtlMap<char const *,IEntityFactory *,unsigned short>::Node_t,unsigned short>,unsigned short> >::InvalidIndex
	movzx	ecx, ax
	cmp	esi, ecx
	je	SHORT $LN9@RemoveAll
	push	1106					; 00000452H
	push	OFFSET ??_C@_1JE@LJJIJLOD@?$AAd?$AA?3?$AA?2?$AA?$CB?$AAd?$AAi?$AAf?$AAf?$AAu?$AAs?$AAi?$AAo?$AAn?$AA?5?$AA2?$AA0?$AA2?$AA0?$AA?2?$AAs?$AAo?$AAu?$AAr?$AAc?$AAe?$AA?5?$AAc?$AAo?$AAd?$AAe?$AA?5?$AA2@
	push	OFFSET ??_C@_1DC@KJHFBOJD@?$AAm?$AA_?$AAR?$AAo?$AAo?$AAt?$AA?5?$AA?$DN?$AA?$DN?$AA?5?$AAI?$AAn?$AAv?$AAa?$AAl?$AAi?$AAd?$AAI?$AAn?$AAd?$AAe?$AAx?$AA?$CI?$AA?$CJ?$AA?$AA@
	call	__wassert
	add	esp, 12					; 0000000cH
$LN9@RemoveAll:

; 1107 : 		assert( m_FirstFree == InvalidIndex() );

	mov	eax, DWORD PTR _this$[ebp]
	movzx	esi, WORD PTR [eax+20]
	call	?InvalidIndex@?$CUtlRBTree@UNode_t@?$CUtlMap@PBDPAVIEntityFactory@@G@@GVCKeyLess@2@V?$CUtlMemory@U?$UtlRBTreeNode_t@UNode_t@?$CUtlMap@PBDPAVIEntityFactory@@G@@G@@G@@@@SAGXZ ; CUtlRBTree<CUtlMap<char const *,IEntityFactory *,unsigned short>::Node_t,unsigned short,CUtlMap<char const *,IEntityFactory *,unsigned short>::CKeyLess,CUtlMemory<UtlRBTreeNode_t<CUtlMap<char const *,IEntityFactory *,unsigned short>::Node_t,unsigned short>,unsigned short> >::InvalidIndex
	movzx	ecx, ax
	cmp	esi, ecx
	je	SHORT $LN10@RemoveAll
	push	1107					; 00000453H
	push	OFFSET ??_C@_1JE@LJJIJLOD@?$AAd?$AA?3?$AA?2?$AA?$CB?$AAd?$AAi?$AAf?$AAf?$AAu?$AAs?$AAi?$AAo?$AAn?$AA?5?$AA2?$AA0?$AA2?$AA0?$AA?2?$AAs?$AAo?$AAu?$AAr?$AAc?$AAe?$AA?5?$AAc?$AAo?$AAd?$AAe?$AA?5?$AA2@
	push	OFFSET ??_C@_1DM@ECFCBGBK@?$AAm?$AA_?$AAF?$AAi?$AAr?$AAs?$AAt?$AAF?$AAr?$AAe?$AAe?$AA?5?$AA?$DN?$AA?$DN?$AA?5?$AAI?$AAn?$AAv?$AAa?$AAl?$AAi?$AAd?$AAI?$AAn?$AAd?$AAe?$AAx?$AA?$CI?$AA?$CJ?$AA?$AA@
	call	__wassert
	add	esp, 12					; 0000000cH
$LN10@RemoveAll:

; 1108 : 		assert( m_NumElements == 0 );

	mov	eax, DWORD PTR _this$[ebp]
	movzx	ecx, WORD PTR [eax+18]
	test	ecx, ecx
	je	SHORT $LN11@RemoveAll
	push	1108					; 00000454H
	push	OFFSET ??_C@_1JE@LJJIJLOD@?$AAd?$AA?3?$AA?2?$AA?$CB?$AAd?$AAi?$AAf?$AAf?$AAu?$AAs?$AAi?$AAo?$AAn?$AA?5?$AA2?$AA0?$AA2?$AA0?$AA?2?$AAs?$AAo?$AAu?$AAr?$AAc?$AAe?$AA?5?$AAc?$AAo?$AAd?$AAe?$AA?5?$AA2@
	push	OFFSET ??_C@_1CG@EKJOGMPO@?$AAm?$AA_?$AAN?$AAu?$AAm?$AAE?$AAl?$AAe?$AAm?$AAe?$AAn?$AAt?$AAs?$AA?5?$AA?$DN?$AA?$DN?$AA?5?$AA0?$AA?$AA@
	call	__wassert
	add	esp, 12					; 0000000cH
$LN11@RemoveAll:

; 1109 : 		return;

	jmp	$LN1@RemoveAll
$LN5@RemoveAll:

; 1110 : 	}
; 1111 : 
; 1112 : 	for ( typename M::Iterator_t it = m_Elements.First(); it != m_Elements.InvalidIterator(); it = m_Elements.Next( it ) )

	lea	eax, DWORD PTR _it$5[ebp]
	push	eax
	mov	ecx, DWORD PTR _this$[ebp]
	add	ecx, 4
	call	?First@?$CUtlMemory@U?$UtlRBTreeNode_t@UNode_t@?$CUtlMap@PBDPAVIEntityFactory@@G@@G@@G@@QBE?AVIterator_t@1@XZ ; CUtlMemory<UtlRBTreeNode_t<CUtlMap<char const *,IEntityFactory *,unsigned short>::Node_t,unsigned short>,unsigned short>::First
	jmp	SHORT $LN4@RemoveAll
$LN2@RemoveAll:
	lea	eax, DWORD PTR _it$5[ebp]
	push	eax
	lea	ecx, DWORD PTR $T2[ebp]
	push	ecx
	mov	ecx, DWORD PTR _this$[ebp]
	add	ecx, 4
	call	?Next@?$CUtlMemory@U?$UtlRBTreeNode_t@UNode_t@?$CUtlMap@PBDPAVIEntityFactory@@G@@G@@G@@QBE?AVIterator_t@1@ABV21@@Z ; CUtlMemory<UtlRBTreeNode_t<CUtlMap<char const *,IEntityFactory *,unsigned short>::Node_t,unsigned short>,unsigned short>::Next
	mov	dx, WORD PTR [eax]
	mov	WORD PTR _it$5[ebp], dx
$LN4@RemoveAll:
	lea	eax, DWORD PTR $T1[ebp]
	push	eax
	mov	ecx, DWORD PTR _this$[ebp]
	add	ecx, 4
	call	?InvalidIterator@?$CUtlMemory@U?$UtlRBTreeNode_t@UNode_t@?$CUtlMap@PBDPAVIEntityFactory@@G@@G@@G@@QBE?AVIterator_t@1@XZ ; CUtlMemory<UtlRBTreeNode_t<CUtlMap<char const *,IEntityFactory *,unsigned short>::Node_t,unsigned short>,unsigned short>::InvalidIterator
	mov	cx, WORD PTR [eax]
	movzx	edx, cx
	push	edx
	lea	ecx, DWORD PTR _it$5[ebp]
	call	??9Iterator_t@?$CUtlMemory@U?$UtlRBTreeNode_t@UNode_t@?$CUtlMap@PBDPAVIEntityFactory@@G@@G@@G@@QBE_NV01@@Z ; CUtlMemory<UtlRBTreeNode_t<CUtlMap<char const *,IEntityFactory *,unsigned short>::Node_t,unsigned short>,unsigned short>::Iterator_t::operator!=
	movzx	eax, al
	test	eax, eax
	je	$LN3@RemoveAll

; 1113 : 	{
; 1114 : 		I i = m_Elements.GetIndex( it );

	lea	eax, DWORD PTR _it$5[ebp]
	push	eax
	mov	ecx, DWORD PTR _this$[ebp]
	add	ecx, 4
	call	?GetIndex@?$CUtlMemory@U?$UtlRBTreeNode_t@UNode_t@?$CUtlMap@PBDPAVIEntityFactory@@G@@G@@G@@QBEGABVIterator_t@1@@Z ; CUtlMemory<UtlRBTreeNode_t<CUtlMap<char const *,IEntityFactory *,unsigned short>::Node_t,unsigned short>,unsigned short>::GetIndex
	mov	WORD PTR _i$4[ebp], ax

; 1115 : 		if ( IsValidIndex( i ) ) // skip elements in the free list

	movzx	eax, WORD PTR _i$4[ebp]
	push	eax
	mov	ecx, DWORD PTR _this$[ebp]
	call	?IsValidIndex@?$CUtlRBTree@UNode_t@?$CUtlMap@PBDPAVIEntityFactory@@G@@GVCKeyLess@2@V?$CUtlMemory@U?$UtlRBTreeNode_t@UNode_t@?$CUtlMap@PBDPAVIEntityFactory@@G@@G@@G@@@@QBE_NG@Z ; CUtlRBTree<CUtlMap<char const *,IEntityFactory *,unsigned short>::Node_t,unsigned short,CUtlMap<char const *,IEntityFactory *,unsigned short>::CKeyLess,CUtlMemory<UtlRBTreeNode_t<CUtlMap<char const *,IEntityFactory *,unsigned short>::Node_t,unsigned short>,unsigned short> >::IsValidIndex
	movzx	ecx, al
	test	ecx, ecx
	je	SHORT $LN6@RemoveAll

; 1116 : 		{
; 1117 : 			Destruct( &Element( i ) );

	movzx	eax, WORD PTR _i$4[ebp]
	push	eax
	mov	ecx, DWORD PTR _this$[ebp]
	call	?Element@?$CUtlRBTree@UNode_t@?$CUtlMap@PBDPAVIEntityFactory@@G@@GVCKeyLess@2@V?$CUtlMemory@U?$UtlRBTreeNode_t@UNode_t@?$CUtlMap@PBDPAVIEntityFactory@@G@@G@@G@@@@QAEAAUNode_t@?$CUtlMap@PBDPAVIEntityFactory@@G@@G@Z ; CUtlRBTree<CUtlMap<char const *,IEntityFactory *,unsigned short>::Node_t,unsigned short,CUtlMap<char const *,IEntityFactory *,unsigned short>::CKeyLess,CUtlMemory<UtlRBTreeNode_t<CUtlMap<char const *,IEntityFactory *,unsigned short>::Node_t,unsigned short>,unsigned short> >::Element
	push	eax
	call	??$Destruct@UNode_t@?$CUtlMap@PBDPAVIEntityFactory@@G@@@@YAXPAUNode_t@?$CUtlMap@PBDPAVIEntityFactory@@G@@@Z ; Destruct<CUtlMap<char const *,IEntityFactory *,unsigned short>::Node_t>
	add	esp, 4

; 1118 : 			SetRightChild( i, m_FirstFree );

	mov	eax, DWORD PTR _this$[ebp]
	movzx	ecx, WORD PTR [eax+20]
	push	ecx
	movzx	edx, WORD PTR _i$4[ebp]
	push	edx
	mov	ecx, DWORD PTR _this$[ebp]
	call	?SetRightChild@?$CUtlRBTree@UNode_t@?$CUtlMap@PBDPAVIEntityFactory@@G@@GVCKeyLess@2@V?$CUtlMemory@U?$UtlRBTreeNode_t@UNode_t@?$CUtlMap@PBDPAVIEntityFactory@@G@@G@@G@@@@IAEXGG@Z ; CUtlRBTree<CUtlMap<char const *,IEntityFactory *,unsigned short>::Node_t,unsigned short,CUtlMap<char const *,IEntityFactory *,unsigned short>::CKeyLess,CUtlMemory<UtlRBTreeNode_t<CUtlMap<char const *,IEntityFactory *,unsigned short>::Node_t,unsigned short>,unsigned short> >::SetRightChild

; 1119 : 			SetLeftChild( i, i );

	movzx	eax, WORD PTR _i$4[ebp]
	push	eax
	movzx	ecx, WORD PTR _i$4[ebp]
	push	ecx
	mov	ecx, DWORD PTR _this$[ebp]
	call	?SetLeftChild@?$CUtlRBTree@UNode_t@?$CUtlMap@PBDPAVIEntityFactory@@G@@GVCKeyLess@2@V?$CUtlMemory@U?$UtlRBTreeNode_t@UNode_t@?$CUtlMap@PBDPAVIEntityFactory@@G@@G@@G@@@@IAEXGG@Z ; CUtlRBTree<CUtlMap<char const *,IEntityFactory *,unsigned short>::Node_t,unsigned short,CUtlMap<char const *,IEntityFactory *,unsigned short>::CKeyLess,CUtlMemory<UtlRBTreeNode_t<CUtlMap<char const *,IEntityFactory *,unsigned short>::Node_t,unsigned short>,unsigned short> >::SetLeftChild

; 1120 : 			m_FirstFree = i;

	mov	eax, DWORD PTR _this$[ebp]
	mov	cx, WORD PTR _i$4[ebp]
	mov	WORD PTR [eax+20], cx
$LN6@RemoveAll:

; 1121 : 		}
; 1122 : 
; 1123 : 		if ( it == m_LastAlloc )

	mov	eax, DWORD PTR _this$[ebp]
	movzx	ecx, WORD PTR [eax+22]
	push	ecx
	lea	ecx, DWORD PTR _it$5[ebp]
	call	??8Iterator_t@?$CUtlMemory@U?$UtlRBTreeNode_t@UNode_t@?$CUtlMap@PBDPAVIEntityFactory@@G@@G@@G@@QBE_NV01@@Z ; CUtlMemory<UtlRBTreeNode_t<CUtlMap<char const *,IEntityFactory *,unsigned short>::Node_t,unsigned short>,unsigned short>::Iterator_t::operator==
	movzx	edx, al
	test	edx, edx
	je	SHORT $LN7@RemoveAll

; 1124 : 			break; // don't destruct elements that haven't ever been constucted

	jmp	SHORT $LN3@RemoveAll
$LN7@RemoveAll:

; 1125 : 	}

	jmp	$LN2@RemoveAll
$LN3@RemoveAll:

; 1126 : 
; 1127 : 	// Clear everything else out
; 1128 : 	m_Root = InvalidIndex(); 

	call	?InvalidIndex@?$CUtlRBTree@UNode_t@?$CUtlMap@PBDPAVIEntityFactory@@G@@GVCKeyLess@2@V?$CUtlMemory@U?$UtlRBTreeNode_t@UNode_t@?$CUtlMap@PBDPAVIEntityFactory@@G@@G@@G@@@@SAGXZ ; CUtlRBTree<CUtlMap<char const *,IEntityFactory *,unsigned short>::Node_t,unsigned short,CUtlMap<char const *,IEntityFactory *,unsigned short>::CKeyLess,CUtlMemory<UtlRBTreeNode_t<CUtlMap<char const *,IEntityFactory *,unsigned short>::Node_t,unsigned short>,unsigned short> >::InvalidIndex
	mov	ecx, DWORD PTR _this$[ebp]
	mov	WORD PTR [ecx+16], ax

; 1129 : 	m_NumElements = 0;

	xor	eax, eax
	mov	ecx, DWORD PTR _this$[ebp]
	mov	WORD PTR [ecx+18], ax

; 1130 : 
; 1131 : 	assert( IsValid() );

	mov	ecx, DWORD PTR _this$[ebp]
	call	?IsValid@?$CUtlRBTree@UNode_t@?$CUtlMap@PBDPAVIEntityFactory@@G@@GVCKeyLess@2@V?$CUtlMemory@U?$UtlRBTreeNode_t@UNode_t@?$CUtlMap@PBDPAVIEntityFactory@@G@@G@@G@@@@QBE_NXZ ; CUtlRBTree<CUtlMap<char const *,IEntityFactory *,unsigned short>::Node_t,unsigned short,CUtlMap<char const *,IEntityFactory *,unsigned short>::CKeyLess,CUtlMemory<UtlRBTreeNode_t<CUtlMap<char const *,IEntityFactory *,unsigned short>::Node_t,unsigned short>,unsigned short> >::IsValid
	movzx	eax, al
	test	eax, eax
	jne	SHORT $LN1@RemoveAll
	push	1131					; 0000046bH
	push	OFFSET ??_C@_1JE@LJJIJLOD@?$AAd?$AA?3?$AA?2?$AA?$CB?$AAd?$AAi?$AAf?$AAf?$AAu?$AAs?$AAi?$AAo?$AAn?$AA?5?$AA2?$AA0?$AA2?$AA0?$AA?2?$AAs?$AAo?$AAu?$AAr?$AAc?$AAe?$AA?5?$AAc?$AAo?$AAd?$AAe?$AA?5?$AA2@
	push	OFFSET ??_C@_1BE@PGFEGIPI@?$AAI?$AAs?$AAV?$AAa?$AAl?$AAi?$AAd?$AA?$CI?$AA?$CJ?$AA?$AA@
	call	__wassert
	add	esp, 12					; 0000000cH
$LN1@RemoveAll:

; 1132 : }

	pop	edi
	pop	esi
	pop	ebx
	mov	esp, ebp
	pop	ebp
	ret	0
?RemoveAll@?$CUtlRBTree@UNode_t@?$CUtlMap@PBDPAVIEntityFactory@@G@@GVCKeyLess@2@V?$CUtlMemory@U?$UtlRBTreeNode_t@UNode_t@?$CUtlMap@PBDPAVIEntityFactory@@G@@G@@G@@@@QAEXXZ ENDP ; CUtlRBTree<CUtlMap<char const *,IEntityFactory *,unsigned short>::Node_t,unsigned short,CUtlMap<char const *,IEntityFactory *,unsigned short>::CKeyLess,CUtlMemory<UtlRBTreeNode_t<CUtlMap<char const *,IEntityFactory *,unsigned short>::Node_t,unsigned short>,unsigned short> >::RemoveAll
_TEXT	ENDS
; Function compile flags: /Odtp /ZI
; File d:\!diffusion 2020\source code 2022\client-server\game_shared\utlrbtree.h
;	COMDAT ?Find@?$CUtlRBTree@UNode_t@?$CUtlMap@PBDPAVIEntityFactory@@G@@GVCKeyLess@2@V?$CUtlMemory@U?$UtlRBTreeNode_t@UNode_t@?$CUtlMap@PBDPAVIEntityFactory@@G@@G@@G@@@@QBEGABUNode_t@?$CUtlMap@PBDPAVIEntityFactory@@G@@@Z
_TEXT	SEGMENT
_current$ = -8						; size = 2
_this$ = -4						; size = 4
_search$ = 8						; size = 4
?Find@?$CUtlRBTree@UNode_t@?$CUtlMap@PBDPAVIEntityFactory@@G@@GVCKeyLess@2@V?$CUtlMemory@U?$UtlRBTreeNode_t@UNode_t@?$CUtlMap@PBDPAVIEntityFactory@@G@@G@@G@@@@QBEGABUNode_t@?$CUtlMap@PBDPAVIEntityFactory@@G@@@Z PROC ; CUtlRBTree<CUtlMap<char const *,IEntityFactory *,unsigned short>::Node_t,unsigned short,CUtlMap<char const *,IEntityFactory *,unsigned short>::CKeyLess,CUtlMemory<UtlRBTreeNode_t<CUtlMap<char const *,IEntityFactory *,unsigned short>::Node_t,unsigned short>,unsigned short> >::Find, COMDAT
; _this$ = ecx

; 1525 : {

	push	ebp
	mov	ebp, esp
	sub	esp, 72					; 00000048H
	push	ebx
	push	esi
	push	edi
	mov	DWORD PTR _this$[ebp], ecx

; 1526 : 	assert( &m_LessFunc );

	cmp	DWORD PTR _this$[ebp], 0
	jne	SHORT $LN9@Find
	push	1526					; 000005f6H
	push	OFFSET ??_C@_1JE@LJJIJLOD@?$AAd?$AA?3?$AA?2?$AA?$CB?$AAd?$AAi?$AAf?$AAf?$AAu?$AAs?$AAi?$AAo?$AAn?$AA?5?$AA2?$AA0?$AA2?$AA0?$AA?2?$AAs?$AAo?$AAu?$AAr?$AAc?$AAe?$AA?5?$AAc?$AAo?$AAd?$AAe?$AA?5?$AA2@
	push	OFFSET ??_C@_1BI@EHKAMAJG@?$AA?$CG?$AAm?$AA_?$AAL?$AAe?$AAs?$AAs?$AAF?$AAu?$AAn?$AAc?$AA?$AA@
	call	__wassert
	add	esp, 12					; 0000000cH
$LN9@Find:

; 1527 : 
; 1528 : 	I current = m_Root;

	mov	eax, DWORD PTR _this$[ebp]
	mov	cx, WORD PTR [eax+16]
	mov	WORD PTR _current$[ebp], cx
$LN2@Find:

; 1529 : 	while (current != InvalidIndex()) 

	movzx	esi, WORD PTR _current$[ebp]
	call	?InvalidIndex@?$CUtlRBTree@UNode_t@?$CUtlMap@PBDPAVIEntityFactory@@G@@GVCKeyLess@2@V?$CUtlMemory@U?$UtlRBTreeNode_t@UNode_t@?$CUtlMap@PBDPAVIEntityFactory@@G@@G@@G@@@@SAGXZ ; CUtlRBTree<CUtlMap<char const *,IEntityFactory *,unsigned short>::Node_t,unsigned short,CUtlMap<char const *,IEntityFactory *,unsigned short>::CKeyLess,CUtlMemory<UtlRBTreeNode_t<CUtlMap<char const *,IEntityFactory *,unsigned short>::Node_t,unsigned short>,unsigned short> >::InvalidIndex
	movzx	eax, ax
	cmp	esi, eax
	je	SHORT $LN3@Find

; 1530 : 	{
; 1531 : 		if (m_LessFunc( search, Element(current) ))

	movzx	eax, WORD PTR _current$[ebp]
	push	eax
	mov	ecx, DWORD PTR _this$[ebp]
	call	?Element@?$CUtlRBTree@UNode_t@?$CUtlMap@PBDPAVIEntityFactory@@G@@GVCKeyLess@2@V?$CUtlMemory@U?$UtlRBTreeNode_t@UNode_t@?$CUtlMap@PBDPAVIEntityFactory@@G@@G@@G@@@@QBEABUNode_t@?$CUtlMap@PBDPAVIEntityFactory@@G@@G@Z ; CUtlRBTree<CUtlMap<char const *,IEntityFactory *,unsigned short>::Node_t,unsigned short,CUtlMap<char const *,IEntityFactory *,unsigned short>::CKeyLess,CUtlMemory<UtlRBTreeNode_t<CUtlMap<char const *,IEntityFactory *,unsigned short>::Node_t,unsigned short>,unsigned short> >::Element
	push	eax
	mov	ecx, DWORD PTR _search$[ebp]
	push	ecx
	mov	ecx, DWORD PTR _this$[ebp]
	call	??RCKeyLess@?$CUtlMap@PBDPAVIEntityFactory@@G@@QBE_NABUNode_t@1@0@Z ; CUtlMap<char const *,IEntityFactory *,unsigned short>::CKeyLess::operator()
	movzx	edx, al
	test	edx, edx
	je	SHORT $LN4@Find

; 1532 : 			current = LeftChild(current);

	movzx	eax, WORD PTR _current$[ebp]
	push	eax
	mov	ecx, DWORD PTR _this$[ebp]
	call	?LeftChild@?$CUtlRBTree@UNode_t@?$CUtlMap@PBDPAVIEntityFactory@@G@@GVCKeyLess@2@V?$CUtlMemory@U?$UtlRBTreeNode_t@UNode_t@?$CUtlMap@PBDPAVIEntityFactory@@G@@G@@G@@@@QBEGG@Z ; CUtlRBTree<CUtlMap<char const *,IEntityFactory *,unsigned short>::Node_t,unsigned short,CUtlMap<char const *,IEntityFactory *,unsigned short>::CKeyLess,CUtlMemory<UtlRBTreeNode_t<CUtlMap<char const *,IEntityFactory *,unsigned short>::Node_t,unsigned short>,unsigned short> >::LeftChild
	mov	WORD PTR _current$[ebp], ax
	jmp	SHORT $LN5@Find
$LN4@Find:

; 1533 : 		else if (m_LessFunc( Element(current), search ))

	mov	eax, DWORD PTR _search$[ebp]
	push	eax
	movzx	ecx, WORD PTR _current$[ebp]
	push	ecx
	mov	ecx, DWORD PTR _this$[ebp]
	call	?Element@?$CUtlRBTree@UNode_t@?$CUtlMap@PBDPAVIEntityFactory@@G@@GVCKeyLess@2@V?$CUtlMemory@U?$UtlRBTreeNode_t@UNode_t@?$CUtlMap@PBDPAVIEntityFactory@@G@@G@@G@@@@QBEABUNode_t@?$CUtlMap@PBDPAVIEntityFactory@@G@@G@Z ; CUtlRBTree<CUtlMap<char const *,IEntityFactory *,unsigned short>::Node_t,unsigned short,CUtlMap<char const *,IEntityFactory *,unsigned short>::CKeyLess,CUtlMemory<UtlRBTreeNode_t<CUtlMap<char const *,IEntityFactory *,unsigned short>::Node_t,unsigned short>,unsigned short> >::Element
	push	eax
	mov	ecx, DWORD PTR _this$[ebp]
	call	??RCKeyLess@?$CUtlMap@PBDPAVIEntityFactory@@G@@QBE_NABUNode_t@1@0@Z ; CUtlMap<char const *,IEntityFactory *,unsigned short>::CKeyLess::operator()
	movzx	edx, al
	test	edx, edx
	je	SHORT $LN6@Find

; 1534 : 			current = RightChild(current);

	movzx	eax, WORD PTR _current$[ebp]
	push	eax
	mov	ecx, DWORD PTR _this$[ebp]
	call	?RightChild@?$CUtlRBTree@UNode_t@?$CUtlMap@PBDPAVIEntityFactory@@G@@GVCKeyLess@2@V?$CUtlMemory@U?$UtlRBTreeNode_t@UNode_t@?$CUtlMap@PBDPAVIEntityFactory@@G@@G@@G@@@@QBEGG@Z ; CUtlRBTree<CUtlMap<char const *,IEntityFactory *,unsigned short>::Node_t,unsigned short,CUtlMap<char const *,IEntityFactory *,unsigned short>::CKeyLess,CUtlMemory<UtlRBTreeNode_t<CUtlMap<char const *,IEntityFactory *,unsigned short>::Node_t,unsigned short>,unsigned short> >::RightChild
	mov	WORD PTR _current$[ebp], ax

; 1535 : 		else 

	jmp	SHORT $LN5@Find
$LN6@Find:

; 1536 : 			break;

	jmp	SHORT $LN3@Find
$LN5@Find:

; 1537 : 	}

	jmp	SHORT $LN2@Find
$LN3@Find:

; 1538 : 	return current;

	mov	ax, WORD PTR _current$[ebp]

; 1539 : }

	pop	edi
	pop	esi
	pop	ebx
	mov	esp, ebp
	pop	ebp
	ret	4
?Find@?$CUtlRBTree@UNode_t@?$CUtlMap@PBDPAVIEntityFactory@@G@@GVCKeyLess@2@V?$CUtlMemory@U?$UtlRBTreeNode_t@UNode_t@?$CUtlMap@PBDPAVIEntityFactory@@G@@G@@G@@@@QBEGABUNode_t@?$CUtlMap@PBDPAVIEntityFactory@@G@@@Z ENDP ; CUtlRBTree<CUtlMap<char const *,IEntityFactory *,unsigned short>::Node_t,unsigned short,CUtlMap<char const *,IEntityFactory *,unsigned short>::CKeyLess,CUtlMemory<UtlRBTreeNode_t<CUtlMap<char const *,IEntityFactory *,unsigned short>::Node_t,unsigned short>,unsigned short> >::Find
_TEXT	ENDS
; Function compile flags: /Odtp /ZI
; File d:\!diffusion 2020\source code 2022\client-server\game_shared\utlrbtree.h
;	COMDAT ?Insert@?$CUtlRBTree@UNode_t@?$CUtlMap@PBDPAVIEntityFactory@@G@@GVCKeyLess@2@V?$CUtlMemory@U?$UtlRBTreeNode_t@UNode_t@?$CUtlMap@PBDPAVIEntityFactory@@G@@G@@G@@@@QAEGABUNode_t@?$CUtlMap@PBDPAVIEntityFactory@@G@@@Z
_TEXT	SEGMENT
_newNode$ = -16						; size = 2
_leftchild$ = -9					; size = 1
_parent$ = -8						; size = 2
_this$ = -4						; size = 4
_insert$ = 8						; size = 4
?Insert@?$CUtlRBTree@UNode_t@?$CUtlMap@PBDPAVIEntityFactory@@G@@GVCKeyLess@2@V?$CUtlMemory@U?$UtlRBTreeNode_t@UNode_t@?$CUtlMap@PBDPAVIEntityFactory@@G@@G@@G@@@@QAEGABUNode_t@?$CUtlMap@PBDPAVIEntityFactory@@G@@@Z PROC ; CUtlRBTree<CUtlMap<char const *,IEntityFactory *,unsigned short>::Node_t,unsigned short,CUtlMap<char const *,IEntityFactory *,unsigned short>::CKeyLess,CUtlMemory<UtlRBTreeNode_t<CUtlMap<char const *,IEntityFactory *,unsigned short>::Node_t,unsigned short>,unsigned short> >::Insert, COMDAT
; _this$ = ecx

; 1467 : {

	push	ebp
	mov	ebp, esp
	sub	esp, 80					; 00000050H
	push	ebx
	push	esi
	push	edi
	mov	DWORD PTR _this$[ebp], ecx

; 1468 : 	// use copy constructor to copy it in
; 1469 : 	I parent;
; 1470 : 	bool leftchild;
; 1471 : 	FindInsertionPosition( insert, parent, leftchild );

	lea	eax, DWORD PTR _leftchild$[ebp]
	push	eax
	lea	ecx, DWORD PTR _parent$[ebp]
	push	ecx
	mov	edx, DWORD PTR _insert$[ebp]
	push	edx
	mov	ecx, DWORD PTR _this$[ebp]
	call	?FindInsertionPosition@?$CUtlRBTree@UNode_t@?$CUtlMap@PBDPAVIEntityFactory@@G@@GVCKeyLess@2@V?$CUtlMemory@U?$UtlRBTreeNode_t@UNode_t@?$CUtlMap@PBDPAVIEntityFactory@@G@@G@@G@@@@IAEXABUNode_t@?$CUtlMap@PBDPAVIEntityFactory@@G@@AAGAA_N@Z ; CUtlRBTree<CUtlMap<char const *,IEntityFactory *,unsigned short>::Node_t,unsigned short,CUtlMap<char const *,IEntityFactory *,unsigned short>::CKeyLess,CUtlMemory<UtlRBTreeNode_t<CUtlMap<char const *,IEntityFactory *,unsigned short>::Node_t,unsigned short>,unsigned short> >::FindInsertionPosition

; 1472 : 	I newNode = InsertAt( parent, leftchild );

	movzx	eax, BYTE PTR _leftchild$[ebp]
	push	eax
	movzx	ecx, WORD PTR _parent$[ebp]
	push	ecx
	mov	ecx, DWORD PTR _this$[ebp]
	call	?InsertAt@?$CUtlRBTree@UNode_t@?$CUtlMap@PBDPAVIEntityFactory@@G@@GVCKeyLess@2@V?$CUtlMemory@U?$UtlRBTreeNode_t@UNode_t@?$CUtlMap@PBDPAVIEntityFactory@@G@@G@@G@@@@IAEGG_N@Z ; CUtlRBTree<CUtlMap<char const *,IEntityFactory *,unsigned short>::Node_t,unsigned short,CUtlMap<char const *,IEntityFactory *,unsigned short>::CKeyLess,CUtlMemory<UtlRBTreeNode_t<CUtlMap<char const *,IEntityFactory *,unsigned short>::Node_t,unsigned short>,unsigned short> >::InsertAt
	mov	WORD PTR _newNode$[ebp], ax

; 1473 : 	CopyConstruct( &Element( newNode ), insert );

	mov	eax, DWORD PTR _insert$[ebp]
	push	eax
	movzx	ecx, WORD PTR _newNode$[ebp]
	push	ecx
	mov	ecx, DWORD PTR _this$[ebp]
	call	?Element@?$CUtlRBTree@UNode_t@?$CUtlMap@PBDPAVIEntityFactory@@G@@GVCKeyLess@2@V?$CUtlMemory@U?$UtlRBTreeNode_t@UNode_t@?$CUtlMap@PBDPAVIEntityFactory@@G@@G@@G@@@@QAEAAUNode_t@?$CUtlMap@PBDPAVIEntityFactory@@G@@G@Z ; CUtlRBTree<CUtlMap<char const *,IEntityFactory *,unsigned short>::Node_t,unsigned short,CUtlMap<char const *,IEntityFactory *,unsigned short>::CKeyLess,CUtlMemory<UtlRBTreeNode_t<CUtlMap<char const *,IEntityFactory *,unsigned short>::Node_t,unsigned short>,unsigned short> >::Element
	push	eax
	call	??$CopyConstruct@UNode_t@?$CUtlMap@PBDPAVIEntityFactory@@G@@@@YAXPAUNode_t@?$CUtlMap@PBDPAVIEntityFactory@@G@@ABU01@@Z ; CopyConstruct<CUtlMap<char const *,IEntityFactory *,unsigned short>::Node_t>
	add	esp, 8

; 1474 : 	return newNode;

	mov	ax, WORD PTR _newNode$[ebp]

; 1475 : }

	pop	edi
	pop	esi
	pop	ebx
	mov	esp, ebp
	pop	ebp
	ret	4
?Insert@?$CUtlRBTree@UNode_t@?$CUtlMap@PBDPAVIEntityFactory@@G@@GVCKeyLess@2@V?$CUtlMemory@U?$UtlRBTreeNode_t@UNode_t@?$CUtlMap@PBDPAVIEntityFactory@@G@@G@@G@@@@QAEGABUNode_t@?$CUtlMap@PBDPAVIEntityFactory@@G@@@Z ENDP ; CUtlRBTree<CUtlMap<char const *,IEntityFactory *,unsigned short>::Node_t,unsigned short,CUtlMap<char const *,IEntityFactory *,unsigned short>::CKeyLess,CUtlMemory<UtlRBTreeNode_t<CUtlMap<char const *,IEntityFactory *,unsigned short>::Node_t,unsigned short>,unsigned short> >::Insert
_TEXT	ENDS
; Function compile flags: /Odtp /ZI
; File d:\!diffusion 2020\source code 2022\client-server\game_shared\utlrbtree.h
;	COMDAT ?NewNode@?$CUtlRBTree@UNode_t@?$CUtlMap@PBDPAVIEntityFactory@@G@@GVCKeyLess@2@V?$CUtlMemory@U?$UtlRBTreeNode_t@UNode_t@?$CUtlMap@PBDPAVIEntityFactory@@G@@G@@G@@@@QAEGXZ
_TEXT	SEGMENT
tv160 = -100						; size = 4
tv132 = -100						; size = 4
tv209 = -98						; size = 2
$T1 = -96						; size = 2
$T2 = -94						; size = 2
$T3 = -92						; size = 4
$T4 = -88						; size = 2
$T5 = -86						; size = 2
$T6 = -84						; size = 4
_node$ = -16						; size = 4
_it$7 = -12						; size = 2
_elem$ = -8						; size = 2
_this$ = -4						; size = 4
?NewNode@?$CUtlRBTree@UNode_t@?$CUtlMap@PBDPAVIEntityFactory@@G@@GVCKeyLess@2@V?$CUtlMemory@U?$UtlRBTreeNode_t@UNode_t@?$CUtlMap@PBDPAVIEntityFactory@@G@@G@@G@@@@QAEGXZ PROC ; CUtlRBTree<CUtlMap<char const *,IEntityFactory *,unsigned short>::Node_t,unsigned short,CUtlMap<char const *,IEntityFactory *,unsigned short>::CKeyLess,CUtlMemory<UtlRBTreeNode_t<CUtlMap<char const *,IEntityFactory *,unsigned short>::Node_t,unsigned short>,unsigned short> >::NewNode, COMDAT
; _this$ = ecx

; 648  : {

	push	ebp
	mov	ebp, esp
	sub	esp, 100				; 00000064H
	push	ebx
	push	esi
	push	edi
	mov	DWORD PTR _this$[ebp], ecx

; 649  : 	I elem;
; 650  : 
; 651  : 	// Nothing in the free list; add.
; 652  : 	if ( m_FirstFree == InvalidIndex() )

	mov	eax, DWORD PTR _this$[ebp]
	movzx	esi, WORD PTR [eax+20]
	call	?InvalidIndex@?$CUtlRBTree@UNode_t@?$CUtlMap@PBDPAVIEntityFactory@@G@@GVCKeyLess@2@V?$CUtlMemory@U?$UtlRBTreeNode_t@UNode_t@?$CUtlMap@PBDPAVIEntityFactory@@G@@G@@G@@@@SAGXZ ; CUtlRBTree<CUtlMap<char const *,IEntityFactory *,unsigned short>::Node_t,unsigned short,CUtlMap<char const *,IEntityFactory *,unsigned short>::CKeyLess,CUtlMemory<UtlRBTreeNode_t<CUtlMap<char const *,IEntityFactory *,unsigned short>::Node_t,unsigned short>,unsigned short> >::InvalidIndex
	movzx	ecx, ax
	cmp	esi, ecx
	jne	$LN2@NewNode

; 653  : 	{
; 654  : 		assert( m_Elements.IsValidIterator( m_LastAlloc ) || m_NumElements == 0 );

	mov	eax, DWORD PTR _this$[ebp]
	add	eax, 22					; 00000016H
	push	eax
	mov	ecx, DWORD PTR _this$[ebp]
	add	ecx, 4
	call	?IsValidIterator@?$CUtlMemory@U?$UtlRBTreeNode_t@UNode_t@?$CUtlMap@PBDPAVIEntityFactory@@G@@G@@G@@QBE_NABVIterator_t@1@@Z ; CUtlMemory<UtlRBTreeNode_t<CUtlMap<char const *,IEntityFactory *,unsigned short>::Node_t,unsigned short>,unsigned short>::IsValidIterator
	movzx	ecx, al
	test	ecx, ecx
	jne	SHORT $LN7@NewNode
	mov	edx, DWORD PTR _this$[ebp]
	movzx	eax, WORD PTR [edx+18]
	test	eax, eax
	je	SHORT $LN7@NewNode
	push	654					; 0000028eH
	push	OFFSET ??_C@_1JE@LJJIJLOD@?$AAd?$AA?3?$AA?2?$AA?$CB?$AAd?$AAi?$AAf?$AAf?$AAu?$AAs?$AAi?$AAo?$AAn?$AA?5?$AA2?$AA0?$AA2?$AA0?$AA?2?$AAs?$AAo?$AAu?$AAr?$AAc?$AAe?$AA?5?$AAc?$AAo?$AAd?$AAe?$AA?5?$AA2@
	push	OFFSET ??_C@_1IA@FEFGPOEE@?$AAm?$AA_?$AAE?$AAl?$AAe?$AAm?$AAe?$AAn?$AAt?$AAs?$AA?4?$AAI?$AAs?$AAV?$AAa?$AAl?$AAi?$AAd?$AAI?$AAt?$AAe?$AAr?$AAa?$AAt?$AAo?$AAr?$AA?$CI?$AA?5?$AAm?$AA_?$AAL?$AAa@
	call	__wassert
	add	esp, 12					; 0000000cH
$LN7@NewNode:

; 655  : 		typename M::Iterator_t it = m_Elements.IsValidIterator( m_LastAlloc ) ? m_Elements.Next( m_LastAlloc ) : m_Elements.First();

	mov	eax, DWORD PTR _this$[ebp]
	add	eax, 22					; 00000016H
	push	eax
	mov	ecx, DWORD PTR _this$[ebp]
	add	ecx, 4
	call	?IsValidIterator@?$CUtlMemory@U?$UtlRBTreeNode_t@UNode_t@?$CUtlMap@PBDPAVIEntityFactory@@G@@G@@G@@QBE_NABVIterator_t@1@@Z ; CUtlMemory<UtlRBTreeNode_t<CUtlMap<char const *,IEntityFactory *,unsigned short>::Node_t,unsigned short>,unsigned short>::IsValidIterator
	movzx	ecx, al
	test	ecx, ecx
	je	SHORT $LN8@NewNode
	mov	edx, DWORD PTR _this$[ebp]
	add	edx, 22					; 00000016H
	push	edx
	lea	eax, DWORD PTR $T5[ebp]
	push	eax
	mov	ecx, DWORD PTR _this$[ebp]
	add	ecx, 4
	call	?Next@?$CUtlMemory@U?$UtlRBTreeNode_t@UNode_t@?$CUtlMap@PBDPAVIEntityFactory@@G@@G@@G@@QBE?AVIterator_t@1@ABV21@@Z ; CUtlMemory<UtlRBTreeNode_t<CUtlMap<char const *,IEntityFactory *,unsigned short>::Node_t,unsigned short>,unsigned short>::Next
	mov	DWORD PTR tv132[ebp], eax
	jmp	SHORT $LN9@NewNode
$LN8@NewNode:
	lea	ecx, DWORD PTR $T4[ebp]
	push	ecx
	mov	ecx, DWORD PTR _this$[ebp]
	add	ecx, 4
	call	?First@?$CUtlMemory@U?$UtlRBTreeNode_t@UNode_t@?$CUtlMap@PBDPAVIEntityFactory@@G@@G@@G@@QBE?AVIterator_t@1@XZ ; CUtlMemory<UtlRBTreeNode_t<CUtlMap<char const *,IEntityFactory *,unsigned short>::Node_t,unsigned short>,unsigned short>::First
	mov	DWORD PTR tv132[ebp], eax
$LN9@NewNode:
	mov	edx, DWORD PTR tv132[ebp]
	mov	DWORD PTR $T6[ebp], edx
	mov	eax, DWORD PTR $T6[ebp]
	mov	cx, WORD PTR [eax]
	mov	WORD PTR _it$7[ebp], cx

; 656  : 		if ( !m_Elements.IsValidIterator( it ) )

	lea	eax, DWORD PTR _it$7[ebp]
	push	eax
	mov	ecx, DWORD PTR _this$[ebp]
	add	ecx, 4
	call	?IsValidIterator@?$CUtlMemory@U?$UtlRBTreeNode_t@UNode_t@?$CUtlMap@PBDPAVIEntityFactory@@G@@G@@G@@QBE_NABVIterator_t@1@@Z ; CUtlMemory<UtlRBTreeNode_t<CUtlMap<char const *,IEntityFactory *,unsigned short>::Node_t,unsigned short>,unsigned short>::IsValidIterator
	movzx	ecx, al
	test	ecx, ecx
	jne	$LN4@NewNode

; 657  : 		{
; 658  : 			m_Elements.Grow();

	push	1
	mov	ecx, DWORD PTR _this$[ebp]
	add	ecx, 4
	call	?Grow@?$CUtlMemory@U?$UtlRBTreeNode_t@UNode_t@?$CUtlMap@PBDPAVIEntityFactory@@G@@G@@G@@QAEXH@Z ; CUtlMemory<UtlRBTreeNode_t<CUtlMap<char const *,IEntityFactory *,unsigned short>::Node_t,unsigned short>,unsigned short>::Grow

; 659  : 
; 660  : 			it = m_Elements.IsValidIterator( m_LastAlloc ) ? m_Elements.Next( m_LastAlloc ) : m_Elements.First();

	mov	eax, DWORD PTR _this$[ebp]
	add	eax, 22					; 00000016H
	push	eax
	mov	ecx, DWORD PTR _this$[ebp]
	add	ecx, 4
	call	?IsValidIterator@?$CUtlMemory@U?$UtlRBTreeNode_t@UNode_t@?$CUtlMap@PBDPAVIEntityFactory@@G@@G@@G@@QBE_NABVIterator_t@1@@Z ; CUtlMemory<UtlRBTreeNode_t<CUtlMap<char const *,IEntityFactory *,unsigned short>::Node_t,unsigned short>,unsigned short>::IsValidIterator
	movzx	ecx, al
	test	ecx, ecx
	je	SHORT $LN10@NewNode
	mov	edx, DWORD PTR _this$[ebp]
	add	edx, 22					; 00000016H
	push	edx
	lea	eax, DWORD PTR $T2[ebp]
	push	eax
	mov	ecx, DWORD PTR _this$[ebp]
	add	ecx, 4
	call	?Next@?$CUtlMemory@U?$UtlRBTreeNode_t@UNode_t@?$CUtlMap@PBDPAVIEntityFactory@@G@@G@@G@@QBE?AVIterator_t@1@ABV21@@Z ; CUtlMemory<UtlRBTreeNode_t<CUtlMap<char const *,IEntityFactory *,unsigned short>::Node_t,unsigned short>,unsigned short>::Next
	mov	DWORD PTR tv160[ebp], eax
	jmp	SHORT $LN11@NewNode
$LN10@NewNode:
	lea	ecx, DWORD PTR $T1[ebp]
	push	ecx
	mov	ecx, DWORD PTR _this$[ebp]
	add	ecx, 4
	call	?First@?$CUtlMemory@U?$UtlRBTreeNode_t@UNode_t@?$CUtlMap@PBDPAVIEntityFactory@@G@@G@@G@@QBE?AVIterator_t@1@XZ ; CUtlMemory<UtlRBTreeNode_t<CUtlMap<char const *,IEntityFactory *,unsigned short>::Node_t,unsigned short>,unsigned short>::First
	mov	DWORD PTR tv160[ebp], eax
$LN11@NewNode:
	mov	edx, DWORD PTR tv160[ebp]
	mov	DWORD PTR $T3[ebp], edx
	mov	eax, DWORD PTR $T3[ebp]
	mov	cx, WORD PTR [eax]
	mov	WORD PTR _it$7[ebp], cx

; 661  : 
; 662  : 			assert( m_Elements.IsValidIterator( it ) );

	lea	eax, DWORD PTR _it$7[ebp]
	push	eax
	mov	ecx, DWORD PTR _this$[ebp]
	add	ecx, 4
	call	?IsValidIterator@?$CUtlMemory@U?$UtlRBTreeNode_t@UNode_t@?$CUtlMap@PBDPAVIEntityFactory@@G@@G@@G@@QBE_NABVIterator_t@1@@Z ; CUtlMemory<UtlRBTreeNode_t<CUtlMap<char const *,IEntityFactory *,unsigned short>::Node_t,unsigned short>,unsigned short>::IsValidIterator
	movzx	ecx, al
	test	ecx, ecx
	jne	SHORT $LN12@NewNode
	push	662					; 00000296H
	push	OFFSET ??_C@_1JE@LJJIJLOD@?$AAd?$AA?3?$AA?2?$AA?$CB?$AAd?$AAi?$AAf?$AAf?$AAu?$AAs?$AAi?$AAo?$AAn?$AA?5?$AA2?$AA0?$AA2?$AA0?$AA?2?$AAs?$AAo?$AAu?$AAr?$AAc?$AAe?$AA?5?$AAc?$AAo?$AAd?$AAe?$AA?5?$AA2@
	push	OFFSET ??_C@_1EC@LMJCOEPO@?$AAm?$AA_?$AAE?$AAl?$AAe?$AAm?$AAe?$AAn?$AAt?$AAs?$AA?4?$AAI?$AAs?$AAV?$AAa?$AAl?$AAi?$AAd?$AAI?$AAt?$AAe?$AAr?$AAa?$AAt?$AAo?$AAr?$AA?$CI?$AA?5?$AAi?$AAt?$AA?5?$AA?$CJ@
	call	__wassert
	add	esp, 12					; 0000000cH
$LN12@NewNode:

; 663  : 			if ( !m_Elements.IsValidIterator( it ) )

	lea	eax, DWORD PTR _it$7[ebp]
	push	eax
	mov	ecx, DWORD PTR _this$[ebp]
	add	ecx, 4
	call	?IsValidIterator@?$CUtlMemory@U?$UtlRBTreeNode_t@UNode_t@?$CUtlMap@PBDPAVIEntityFactory@@G@@G@@G@@QBE_NABVIterator_t@1@@Z ; CUtlMemory<UtlRBTreeNode_t<CUtlMap<char const *,IEntityFactory *,unsigned short>::Node_t,unsigned short>,unsigned short>::IsValidIterator
	movzx	ecx, al
	test	ecx, ecx
	jne	SHORT $LN4@NewNode

; 664  : 			{
; 665  : 				HOST_ERROR( "CUtlRBTree overflow!\n" );

	push	OFFSET ??_C@_0BG@EMENODEA@CUtlRBTree?5overflow?$CB?6?$AA@
	call	DWORD PTR ?g_physfuncs@@3Userver_physics_api_s@@A+24
	add	esp, 4
$LN4@NewNode:

; 666  : 			}
; 667  : 		}
; 668  : 		m_LastAlloc = it;

	mov	eax, DWORD PTR _this$[ebp]
	mov	cx, WORD PTR _it$7[ebp]
	mov	WORD PTR [eax+22], cx

; 669  : 		elem = m_Elements.GetIndex( m_LastAlloc );

	mov	eax, DWORD PTR _this$[ebp]
	add	eax, 22					; 00000016H
	push	eax
	mov	ecx, DWORD PTR _this$[ebp]
	add	ecx, 4
	call	?GetIndex@?$CUtlMemory@U?$UtlRBTreeNode_t@UNode_t@?$CUtlMap@PBDPAVIEntityFactory@@G@@G@@G@@QBEGABVIterator_t@1@@Z ; CUtlMemory<UtlRBTreeNode_t<CUtlMap<char const *,IEntityFactory *,unsigned short>::Node_t,unsigned short>,unsigned short>::GetIndex
	mov	WORD PTR _elem$[ebp], ax

; 670  : 		assert( m_Elements.IsValidIterator( m_LastAlloc ) );

	mov	eax, DWORD PTR _this$[ebp]
	add	eax, 22					; 00000016H
	push	eax
	mov	ecx, DWORD PTR _this$[ebp]
	add	ecx, 4
	call	?IsValidIterator@?$CUtlMemory@U?$UtlRBTreeNode_t@UNode_t@?$CUtlMap@PBDPAVIEntityFactory@@G@@G@@G@@QBE_NABVIterator_t@1@@Z ; CUtlMemory<UtlRBTreeNode_t<CUtlMap<char const *,IEntityFactory *,unsigned short>::Node_t,unsigned short>,unsigned short>::IsValidIterator
	movzx	ecx, al
	test	ecx, ecx
	jne	SHORT $LN13@NewNode
	push	670					; 0000029eH
	push	OFFSET ??_C@_1JE@LJJIJLOD@?$AAd?$AA?3?$AA?2?$AA?$CB?$AAd?$AAi?$AAf?$AAf?$AAu?$AAs?$AAi?$AAo?$AAn?$AA?5?$AA2?$AA0?$AA2?$AA0?$AA?2?$AAs?$AAo?$AAu?$AAr?$AAc?$AAe?$AA?5?$AAc?$AAo?$AAd?$AAe?$AA?5?$AA2@
	push	OFFSET ??_C@_1FE@NEDOCPL@?$AAm?$AA_?$AAE?$AAl?$AAe?$AAm?$AAe?$AAn?$AAt?$AAs?$AA?4?$AAI?$AAs?$AAV?$AAa?$AAl?$AAi?$AAd?$AAI?$AAt?$AAe?$AAr?$AAa?$AAt?$AAo?$AAr?$AA?$CI?$AA?5?$AAm?$AA_?$AAL?$AAa@
	call	__wassert
	add	esp, 12					; 0000000cH
$LN13@NewNode:

; 671  : 	}
; 672  : 	else

	jmp	SHORT $LN3@NewNode
$LN2@NewNode:

; 673  : 	{
; 674  : 		elem = m_FirstFree;

	mov	eax, DWORD PTR _this$[ebp]
	mov	cx, WORD PTR [eax+20]
	mov	WORD PTR _elem$[ebp], cx

; 675  : 		m_FirstFree = Links( m_FirstFree ).m_Right;

	mov	eax, DWORD PTR _this$[ebp]
	movzx	ecx, WORD PTR [eax+20]
	push	ecx
	mov	ecx, DWORD PTR _this$[ebp]
	call	?Links@?$CUtlRBTree@UNode_t@?$CUtlMap@PBDPAVIEntityFactory@@G@@GVCKeyLess@2@V?$CUtlMemory@U?$UtlRBTreeNode_t@UNode_t@?$CUtlMap@PBDPAVIEntityFactory@@G@@G@@G@@@@IAEAAU?$UtlRBTreeLinks_t@G@@G@Z ; CUtlRBTree<CUtlMap<char const *,IEntityFactory *,unsigned short>::Node_t,unsigned short,CUtlMap<char const *,IEntityFactory *,unsigned short>::CKeyLess,CUtlMemory<UtlRBTreeNode_t<CUtlMap<char const *,IEntityFactory *,unsigned short>::Node_t,unsigned short>,unsigned short> >::Links
	mov	edx, DWORD PTR _this$[ebp]
	mov	ax, WORD PTR [eax+2]
	mov	WORD PTR [edx+20], ax
$LN3@NewNode:

; 676  : 	}
; 677  : 
; 678  : #ifdef _DEBUG
; 679  : 	// reset links to invalid....
; 680  : 	Links_t &node = Links( elem );

	movzx	eax, WORD PTR _elem$[ebp]
	push	eax
	mov	ecx, DWORD PTR _this$[ebp]
	call	?Links@?$CUtlRBTree@UNode_t@?$CUtlMap@PBDPAVIEntityFactory@@G@@GVCKeyLess@2@V?$CUtlMemory@U?$UtlRBTreeNode_t@UNode_t@?$CUtlMap@PBDPAVIEntityFactory@@G@@G@@G@@@@IAEAAU?$UtlRBTreeLinks_t@G@@G@Z ; CUtlRBTree<CUtlMap<char const *,IEntityFactory *,unsigned short>::Node_t,unsigned short,CUtlMap<char const *,IEntityFactory *,unsigned short>::CKeyLess,CUtlMemory<UtlRBTreeNode_t<CUtlMap<char const *,IEntityFactory *,unsigned short>::Node_t,unsigned short>,unsigned short> >::Links
	mov	DWORD PTR _node$[ebp], eax

; 681  : 	node.m_Left = node.m_Right = node.m_Parent = InvalidIndex();

	call	?InvalidIndex@?$CUtlRBTree@UNode_t@?$CUtlMap@PBDPAVIEntityFactory@@G@@GVCKeyLess@2@V?$CUtlMemory@U?$UtlRBTreeNode_t@UNode_t@?$CUtlMap@PBDPAVIEntityFactory@@G@@G@@G@@@@SAGXZ ; CUtlRBTree<CUtlMap<char const *,IEntityFactory *,unsigned short>::Node_t,unsigned short,CUtlMap<char const *,IEntityFactory *,unsigned short>::CKeyLess,CUtlMemory<UtlRBTreeNode_t<CUtlMap<char const *,IEntityFactory *,unsigned short>::Node_t,unsigned short>,unsigned short> >::InvalidIndex
	mov	WORD PTR tv209[ebp], ax
	mov	eax, DWORD PTR _node$[ebp]
	mov	cx, WORD PTR tv209[ebp]
	mov	WORD PTR [eax+4], cx
	mov	edx, DWORD PTR _node$[ebp]
	mov	ax, WORD PTR tv209[ebp]
	mov	WORD PTR [edx+2], ax
	mov	ecx, DWORD PTR _node$[ebp]
	mov	dx, WORD PTR tv209[ebp]
	mov	WORD PTR [ecx], dx

; 682  : #endif
; 683  : 
; 684  : 	Construct( &Element( elem ) );

	movzx	eax, WORD PTR _elem$[ebp]
	push	eax
	mov	ecx, DWORD PTR _this$[ebp]
	call	?Element@?$CUtlRBTree@UNode_t@?$CUtlMap@PBDPAVIEntityFactory@@G@@GVCKeyLess@2@V?$CUtlMemory@U?$UtlRBTreeNode_t@UNode_t@?$CUtlMap@PBDPAVIEntityFactory@@G@@G@@G@@@@QAEAAUNode_t@?$CUtlMap@PBDPAVIEntityFactory@@G@@G@Z ; CUtlRBTree<CUtlMap<char const *,IEntityFactory *,unsigned short>::Node_t,unsigned short,CUtlMap<char const *,IEntityFactory *,unsigned short>::CKeyLess,CUtlMemory<UtlRBTreeNode_t<CUtlMap<char const *,IEntityFactory *,unsigned short>::Node_t,unsigned short>,unsigned short> >::Element
	push	eax
	call	??$Construct@UNode_t@?$CUtlMap@PBDPAVIEntityFactory@@G@@@@YAXPAUNode_t@?$CUtlMap@PBDPAVIEntityFactory@@G@@@Z ; Construct<CUtlMap<char const *,IEntityFactory *,unsigned short>::Node_t>
	add	esp, 4

; 685  : 	ResetDbgInfo();

	mov	ecx, DWORD PTR _this$[ebp]
	call	?ResetDbgInfo@?$CUtlRBTree@UNode_t@?$CUtlMap@PBDPAVIEntityFactory@@G@@GVCKeyLess@2@V?$CUtlMemory@U?$UtlRBTreeNode_t@UNode_t@?$CUtlMap@PBDPAVIEntityFactory@@G@@G@@G@@@@IAEXXZ ; CUtlRBTree<CUtlMap<char const *,IEntityFactory *,unsigned short>::Node_t,unsigned short,CUtlMap<char const *,IEntityFactory *,unsigned short>::CKeyLess,CUtlMemory<UtlRBTreeNode_t<CUtlMap<char const *,IEntityFactory *,unsigned short>::Node_t,unsigned short>,unsigned short> >::ResetDbgInfo

; 686  : 
; 687  : 	return elem;

	mov	ax, WORD PTR _elem$[ebp]

; 688  : }

	pop	edi
	pop	esi
	pop	ebx
	mov	esp, ebp
	pop	ebp
	ret	0
?NewNode@?$CUtlRBTree@UNode_t@?$CUtlMap@PBDPAVIEntityFactory@@G@@GVCKeyLess@2@V?$CUtlMemory@U?$UtlRBTreeNode_t@UNode_t@?$CUtlMap@PBDPAVIEntityFactory@@G@@G@@G@@@@QAEGXZ ENDP ; CUtlRBTree<CUtlMap<char const *,IEntityFactory *,unsigned short>::Node_t,unsigned short,CUtlMap<char const *,IEntityFactory *,unsigned short>::CKeyLess,CUtlMemory<UtlRBTreeNode_t<CUtlMap<char const *,IEntityFactory *,unsigned short>::Node_t,unsigned short>,unsigned short> >::NewNode
_TEXT	ENDS
; Function compile flags: /Odtp /ZI
; File d:\!diffusion 2020\source code 2022\client-server\game_shared\utlrbtree.h
;	COMDAT ?SetLessFunc@?$CUtlRBTree@UNode_t@?$CUtlMap@PBDPAVIEntityFactory@@G@@GVCKeyLess@2@V?$CUtlMemory@U?$UtlRBTreeNode_t@UNode_t@?$CUtlMap@PBDPAVIEntityFactory@@G@@G@@G@@@@QAEXABVCKeyLess@?$CUtlMap@PBDPAVIEntityFactory@@G@@@Z
_TEXT	SEGMENT
_this$ = -4						; size = 4
_func$ = 8						; size = 4
?SetLessFunc@?$CUtlRBTree@UNode_t@?$CUtlMap@PBDPAVIEntityFactory@@G@@GVCKeyLess@2@V?$CUtlMemory@U?$UtlRBTreeNode_t@UNode_t@?$CUtlMap@PBDPAVIEntityFactory@@G@@G@@G@@@@QAEXABVCKeyLess@?$CUtlMap@PBDPAVIEntityFactory@@G@@@Z PROC ; CUtlRBTree<CUtlMap<char const *,IEntityFactory *,unsigned short>::Node_t,unsigned short,CUtlMap<char const *,IEntityFactory *,unsigned short>::CKeyLess,CUtlMemory<UtlRBTreeNode_t<CUtlMap<char const *,IEntityFactory *,unsigned short>::Node_t,unsigned short>,unsigned short> >::SetLessFunc, COMDAT
; _this$ = ecx

; 1424 : {

	push	ebp
	mov	ebp, esp
	sub	esp, 68					; 00000044H
	push	ebx
	push	esi
	push	edi
	mov	DWORD PTR _this$[ebp], ecx

; 1425 : 	if (!m_LessFunc)

	mov	ecx, DWORD PTR _this$[ebp]
	call	??7CKeyLess@?$CUtlMap@PBDPAVIEntityFactory@@G@@QBE_NXZ ; CUtlMap<char const *,IEntityFactory *,unsigned short>::CKeyLess::operator!
	movzx	eax, al
	test	eax, eax
	je	SHORT $LN2@SetLessFun

; 1426 : 	{
; 1427 : 		m_LessFunc = func;

	mov	eax, DWORD PTR _func$[ebp]
	mov	ecx, DWORD PTR [eax]
	mov	edx, DWORD PTR _this$[ebp]
	mov	DWORD PTR [edx], ecx
	jmp	SHORT $LN1@SetLessFun
$LN2@SetLessFun:

; 1428 : 	}
; 1429 : 	else if ( Count() > 0 )

	mov	ecx, DWORD PTR _this$[ebp]
	call	?Count@?$CUtlRBTree@UNode_t@?$CUtlMap@PBDPAVIEntityFactory@@G@@GVCKeyLess@2@V?$CUtlMemory@U?$UtlRBTreeNode_t@UNode_t@?$CUtlMap@PBDPAVIEntityFactory@@G@@G@@G@@@@QBEIXZ ; CUtlRBTree<CUtlMap<char const *,IEntityFactory *,unsigned short>::Node_t,unsigned short,CUtlMap<char const *,IEntityFactory *,unsigned short>::CKeyLess,CUtlMemory<UtlRBTreeNode_t<CUtlMap<char const *,IEntityFactory *,unsigned short>::Node_t,unsigned short>,unsigned short> >::Count
	test	eax, eax
	jbe	SHORT $LN1@SetLessFun

; 1430 : 	{
; 1431 : 		// need to re-sort the tree here....
; 1432 : 		assert(0);

	xor	eax, eax
	jne	SHORT $LN1@SetLessFun
	push	1432					; 00000598H
	push	OFFSET ??_C@_1JE@LJJIJLOD@?$AAd?$AA?3?$AA?2?$AA?$CB?$AAd?$AAi?$AAf?$AAf?$AAu?$AAs?$AAi?$AAo?$AAn?$AA?5?$AA2?$AA0?$AA2?$AA0?$AA?2?$AAs?$AAo?$AAu?$AAr?$AAc?$AAe?$AA?5?$AAc?$AAo?$AAd?$AAe?$AA?5?$AA2@
	push	OFFSET ??_C@_13COJANIEC@?$AA0?$AA?$AA@
	call	__wassert
	add	esp, 12					; 0000000cH
$LN1@SetLessFun:

; 1433 : 	}
; 1434 : }

	pop	edi
	pop	esi
	pop	ebx
	mov	esp, ebp
	pop	ebp
	ret	4
?SetLessFunc@?$CUtlRBTree@UNode_t@?$CUtlMap@PBDPAVIEntityFactory@@G@@GVCKeyLess@2@V?$CUtlMemory@U?$UtlRBTreeNode_t@UNode_t@?$CUtlMap@PBDPAVIEntityFactory@@G@@G@@G@@@@QAEXABVCKeyLess@?$CUtlMap@PBDPAVIEntityFactory@@G@@@Z ENDP ; CUtlRBTree<CUtlMap<char const *,IEntityFactory *,unsigned short>::Node_t,unsigned short,CUtlMap<char const *,IEntityFactory *,unsigned short>::CKeyLess,CUtlMemory<UtlRBTreeNode_t<CUtlMap<char const *,IEntityFactory *,unsigned short>::Node_t,unsigned short>,unsigned short> >::SetLessFunc
_TEXT	ENDS
; Function compile flags: /Odtp /ZI
; File d:\!diffusion 2020\source code 2022\client-server\game_shared\utlrbtree.h
;	COMDAT ?InvalidIndex@?$CUtlRBTree@UNode_t@?$CUtlMap@PBDPAVIEntityFactory@@G@@GVCKeyLess@2@V?$CUtlMemory@U?$UtlRBTreeNode_t@UNode_t@?$CUtlMap@PBDPAVIEntityFactory@@G@@G@@G@@@@SAGXZ
_TEXT	SEGMENT
?InvalidIndex@?$CUtlRBTree@UNode_t@?$CUtlMap@PBDPAVIEntityFactory@@G@@GVCKeyLess@2@V?$CUtlMemory@U?$UtlRBTreeNode_t@UNode_t@?$CUtlMap@PBDPAVIEntityFactory@@G@@G@@G@@@@SAGXZ PROC ; CUtlRBTree<CUtlMap<char const *,IEntityFactory *,unsigned short>::Node_t,unsigned short,CUtlMap<char const *,IEntityFactory *,unsigned short>::CKeyLess,CUtlMemory<UtlRBTreeNode_t<CUtlMap<char const *,IEntityFactory *,unsigned short>::Node_t,unsigned short>,unsigned short> >::InvalidIndex, COMDAT

; 548  : {

	push	ebp
	mov	ebp, esp
	sub	esp, 64					; 00000040H
	push	ebx
	push	esi
	push	edi

; 549  : 	return ( I )M::InvalidIndex();

	call	?InvalidIndex@?$CUtlMemory@U?$UtlRBTreeNode_t@UNode_t@?$CUtlMap@PBDPAVIEntityFactory@@G@@G@@G@@SAGXZ ; CUtlMemory<UtlRBTreeNode_t<CUtlMap<char const *,IEntityFactory *,unsigned short>::Node_t,unsigned short>,unsigned short>::InvalidIndex

; 550  : }

	pop	edi
	pop	esi
	pop	ebx
	mov	esp, ebp
	pop	ebp
	ret	0
?InvalidIndex@?$CUtlRBTree@UNode_t@?$CUtlMap@PBDPAVIEntityFactory@@G@@GVCKeyLess@2@V?$CUtlMemory@U?$UtlRBTreeNode_t@UNode_t@?$CUtlMap@PBDPAVIEntityFactory@@G@@G@@G@@@@SAGXZ ENDP ; CUtlRBTree<CUtlMap<char const *,IEntityFactory *,unsigned short>::Node_t,unsigned short,CUtlMap<char const *,IEntityFactory *,unsigned short>::CKeyLess,CUtlMemory<UtlRBTreeNode_t<CUtlMap<char const *,IEntityFactory *,unsigned short>::Node_t,unsigned short>,unsigned short> >::InvalidIndex
_TEXT	ENDS
; Function compile flags: /Odtp /ZI
; File d:\!diffusion 2020\source code 2022\client-server\game_shared\utlrbtree.h
;	COMDAT ?IsValid@?$CUtlRBTree@UNode_t@?$CUtlMap@PBDPAVIEntityFactory@@G@@GVCKeyLess@2@V?$CUtlMemory@U?$UtlRBTreeNode_t@UNode_t@?$CUtlMap@PBDPAVIEntityFactory@@G@@G@@G@@@@QBE_NXZ
_TEXT	SEGMENT
$T1 = -70						; size = 2
_this$ = -4						; size = 4
?IsValid@?$CUtlRBTree@UNode_t@?$CUtlMap@PBDPAVIEntityFactory@@G@@GVCKeyLess@2@V?$CUtlMemory@U?$UtlRBTreeNode_t@UNode_t@?$CUtlMap@PBDPAVIEntityFactory@@G@@G@@G@@@@QBE_NXZ PROC ; CUtlRBTree<CUtlMap<char const *,IEntityFactory *,unsigned short>::Node_t,unsigned short,CUtlMap<char const *,IEntityFactory *,unsigned short>::CKeyLess,CUtlMemory<UtlRBTreeNode_t<CUtlMap<char const *,IEntityFactory *,unsigned short>::Node_t,unsigned short>,unsigned short> >::IsValid, COMDAT
; _this$ = ecx

; 1337 : {

	push	ebp
	mov	ebp, esp
	sub	esp, 72					; 00000048H
	push	ebx
	push	esi
	push	edi
	mov	DWORD PTR _this$[ebp], ecx

; 1338 : 	if ( !Count() )

	mov	ecx, DWORD PTR _this$[ebp]
	call	?Count@?$CUtlRBTree@UNode_t@?$CUtlMap@PBDPAVIEntityFactory@@G@@GVCKeyLess@2@V?$CUtlMemory@U?$UtlRBTreeNode_t@UNode_t@?$CUtlMap@PBDPAVIEntityFactory@@G@@G@@G@@@@QBEIXZ ; CUtlRBTree<CUtlMap<char const *,IEntityFactory *,unsigned short>::Node_t,unsigned short,CUtlMap<char const *,IEntityFactory *,unsigned short>::CKeyLess,CUtlMemory<UtlRBTreeNode_t<CUtlMap<char const *,IEntityFactory *,unsigned short>::Node_t,unsigned short>,unsigned short> >::Count
	test	eax, eax
	jne	SHORT $LN2@IsValid

; 1339 : 		return true;

	mov	al, 1
	jmp	SHORT $LN1@IsValid
$LN2@IsValid:

; 1340 : 
; 1341 : 	if ( m_LastAlloc == m_Elements.InvalidIterator() )

	lea	eax, DWORD PTR $T1[ebp]
	push	eax
	mov	ecx, DWORD PTR _this$[ebp]
	add	ecx, 4
	call	?InvalidIterator@?$CUtlMemory@U?$UtlRBTreeNode_t@UNode_t@?$CUtlMap@PBDPAVIEntityFactory@@G@@G@@G@@QBE?AVIterator_t@1@XZ ; CUtlMemory<UtlRBTreeNode_t<CUtlMap<char const *,IEntityFactory *,unsigned short>::Node_t,unsigned short>,unsigned short>::InvalidIterator
	mov	cx, WORD PTR [eax]
	movzx	edx, cx
	push	edx
	mov	ecx, DWORD PTR _this$[ebp]
	add	ecx, 22					; 00000016H
	call	??8Iterator_t@?$CUtlMemory@U?$UtlRBTreeNode_t@UNode_t@?$CUtlMap@PBDPAVIEntityFactory@@G@@G@@G@@QBE_NV01@@Z ; CUtlMemory<UtlRBTreeNode_t<CUtlMap<char const *,IEntityFactory *,unsigned short>::Node_t,unsigned short>,unsigned short>::Iterator_t::operator==
	movzx	eax, al
	test	eax, eax
	je	SHORT $LN3@IsValid

; 1342 : 		return false;

	xor	al, al
	jmp	SHORT $LN1@IsValid
$LN3@IsValid:

; 1343 : 
; 1344 : 	if ( !m_Elements.IsIdxValid( Root() ) )

	mov	ecx, DWORD PTR _this$[ebp]
	call	?Root@?$CUtlRBTree@UNode_t@?$CUtlMap@PBDPAVIEntityFactory@@G@@GVCKeyLess@2@V?$CUtlMemory@U?$UtlRBTreeNode_t@UNode_t@?$CUtlMap@PBDPAVIEntityFactory@@G@@G@@G@@@@QBEGXZ ; CUtlRBTree<CUtlMap<char const *,IEntityFactory *,unsigned short>::Node_t,unsigned short,CUtlMap<char const *,IEntityFactory *,unsigned short>::CKeyLess,CUtlMemory<UtlRBTreeNode_t<CUtlMap<char const *,IEntityFactory *,unsigned short>::Node_t,unsigned short>,unsigned short> >::Root
	movzx	eax, ax
	push	eax
	mov	ecx, DWORD PTR _this$[ebp]
	add	ecx, 4
	call	?IsIdxValid@?$CUtlMemory@U?$UtlRBTreeNode_t@UNode_t@?$CUtlMap@PBDPAVIEntityFactory@@G@@G@@G@@QBE_NG@Z ; CUtlMemory<UtlRBTreeNode_t<CUtlMap<char const *,IEntityFactory *,unsigned short>::Node_t,unsigned short>,unsigned short>::IsIdxValid
	movzx	ecx, al
	test	ecx, ecx
	jne	SHORT $LN4@IsValid

; 1345 : 		return false;

	xor	al, al
	jmp	SHORT $LN1@IsValid
$LN4@IsValid:

; 1346 : 
; 1347 : 	if ( Parent( Root() ) != InvalidIndex() )

	mov	ecx, DWORD PTR _this$[ebp]
	call	?Root@?$CUtlRBTree@UNode_t@?$CUtlMap@PBDPAVIEntityFactory@@G@@GVCKeyLess@2@V?$CUtlMemory@U?$UtlRBTreeNode_t@UNode_t@?$CUtlMap@PBDPAVIEntityFactory@@G@@G@@G@@@@QBEGXZ ; CUtlRBTree<CUtlMap<char const *,IEntityFactory *,unsigned short>::Node_t,unsigned short,CUtlMap<char const *,IEntityFactory *,unsigned short>::CKeyLess,CUtlMemory<UtlRBTreeNode_t<CUtlMap<char const *,IEntityFactory *,unsigned short>::Node_t,unsigned short>,unsigned short> >::Root
	movzx	eax, ax
	push	eax
	mov	ecx, DWORD PTR _this$[ebp]
	call	?Parent@?$CUtlRBTree@UNode_t@?$CUtlMap@PBDPAVIEntityFactory@@G@@GVCKeyLess@2@V?$CUtlMemory@U?$UtlRBTreeNode_t@UNode_t@?$CUtlMap@PBDPAVIEntityFactory@@G@@G@@G@@@@QBEGG@Z ; CUtlRBTree<CUtlMap<char const *,IEntityFactory *,unsigned short>::Node_t,unsigned short,CUtlMap<char const *,IEntityFactory *,unsigned short>::CKeyLess,CUtlMemory<UtlRBTreeNode_t<CUtlMap<char const *,IEntityFactory *,unsigned short>::Node_t,unsigned short>,unsigned short> >::Parent
	movzx	esi, ax
	call	?InvalidIndex@?$CUtlRBTree@UNode_t@?$CUtlMap@PBDPAVIEntityFactory@@G@@GVCKeyLess@2@V?$CUtlMemory@U?$UtlRBTreeNode_t@UNode_t@?$CUtlMap@PBDPAVIEntityFactory@@G@@G@@G@@@@SAGXZ ; CUtlRBTree<CUtlMap<char const *,IEntityFactory *,unsigned short>::Node_t,unsigned short,CUtlMap<char const *,IEntityFactory *,unsigned short>::CKeyLess,CUtlMemory<UtlRBTreeNode_t<CUtlMap<char const *,IEntityFactory *,unsigned short>::Node_t,unsigned short>,unsigned short> >::InvalidIndex
	movzx	ecx, ax
	cmp	esi, ecx
	je	SHORT $LN5@IsValid

; 1348 : 		return false;

	xor	al, al
	jmp	SHORT $LN1@IsValid
$LN5@IsValid:

; 1349 : 
; 1350 : #ifdef UTLTREE_PARANOID
; 1351 : 
; 1352 : 	// First check to see that mNumEntries matches reality.
; 1353 : 	// count items on the free list
; 1354 : 	int numFree = 0;
; 1355 : 	for ( int i = m_FirstFree; i != InvalidIndex(); i = RightChild( i ) )
; 1356 : 	{
; 1357 : 		++numFree;
; 1358 : 		if ( !m_Elements.IsIdxValid( i ) )
; 1359 : 			return false;
; 1360 : 	}
; 1361 : 
; 1362 : 	// iterate over all elements, looking for validity 
; 1363 : 	// based on the self pointers
; 1364 : 	int nElements = 0;
; 1365 : 	int numFree2 = 0;
; 1366 : 	for ( M::Iterator_t it = m_Elements.First(); it != m_Elements.InvalidIterator(); it = m_Elements.Next( it ) )
; 1367 : 	{
; 1368 : 		I i = m_Elements.GetIndex( it );
; 1369 : 		if ( !IsValidIndex( i ) )
; 1370 : 		{
; 1371 : 			++numFree2;
; 1372 : 		}
; 1373 : 		else
; 1374 : 		{
; 1375 : 			++nElements;
; 1376 : 
; 1377 : 			int right = RightChild( i );
; 1378 : 			int left = LeftChild( i );
; 1379 : 			if ( ( right == left ) && ( right != InvalidIndex() ) )
; 1380 : 				return false;
; 1381 : 
; 1382 : 			if ( right != InvalidIndex() )
; 1383 : 			{
; 1384 : 				if ( !IsValidIndex( right ) ) 
; 1385 : 					return false;
; 1386 : 				if ( Parent( right ) != i )
; 1387 : 					return false;
; 1388 : 				if ( IsRed( i ) && IsRed( right ) ) 
; 1389 : 					return false;
; 1390 : 			}
; 1391 : 
; 1392 : 			if ( left != InvalidIndex() )
; 1393 : 			{
; 1394 : 				if ( !IsValidIndex( left ) ) 
; 1395 : 					return false;
; 1396 : 				if ( Parent( left ) != i ) 
; 1397 : 					return false;
; 1398 : 				if ( IsRed( i ) && IsRed( left ) ) 
; 1399 : 					return false;
; 1400 : 			}
; 1401 : 		}
; 1402 : 
; 1403 : 		if ( it == m_LastAlloc )
; 1404 : 			break;
; 1405 : 	}
; 1406 : 	if ( numFree2 != numFree )
; 1407 : 		return false;
; 1408 : 
; 1409 : 	if ( nElements != m_NumElements )
; 1410 : 		return false;
; 1411 : 
; 1412 : #endif // UTLTREE_PARANOID
; 1413 : 
; 1414 : 	return true;

	mov	al, 1
$LN1@IsValid:

; 1415 : }

	pop	edi
	pop	esi
	pop	ebx
	mov	esp, ebp
	pop	ebp
	ret	0
?IsValid@?$CUtlRBTree@UNode_t@?$CUtlMap@PBDPAVIEntityFactory@@G@@GVCKeyLess@2@V?$CUtlMemory@U?$UtlRBTreeNode_t@UNode_t@?$CUtlMap@PBDPAVIEntityFactory@@G@@G@@G@@@@QBE_NXZ ENDP ; CUtlRBTree<CUtlMap<char const *,IEntityFactory *,unsigned short>::Node_t,unsigned short,CUtlMap<char const *,IEntityFactory *,unsigned short>::CKeyLess,CUtlMemory<UtlRBTreeNode_t<CUtlMap<char const *,IEntityFactory *,unsigned short>::Node_t,unsigned short>,unsigned short> >::IsValid
_TEXT	ENDS
; Function compile flags: /Odtp /ZI
; File d:\!diffusion 2020\source code 2022\client-server\game_shared\utlrbtree.h
;	COMDAT ?IsValidIndex@?$CUtlRBTree@UNode_t@?$CUtlMap@PBDPAVIEntityFactory@@G@@GVCKeyLess@2@V?$CUtlMemory@U?$UtlRBTreeNode_t@UNode_t@?$CUtlMap@PBDPAVIEntityFactory@@G@@G@@G@@@@QBE_NG@Z
_TEXT	SEGMENT
tv84 = -72						; size = 4
_this$ = -4						; size = 4
_i$ = 8							; size = 2
?IsValidIndex@?$CUtlRBTree@UNode_t@?$CUtlMap@PBDPAVIEntityFactory@@G@@GVCKeyLess@2@V?$CUtlMemory@U?$UtlRBTreeNode_t@UNode_t@?$CUtlMap@PBDPAVIEntityFactory@@G@@G@@G@@@@QBE_NG@Z PROC ; CUtlRBTree<CUtlMap<char const *,IEntityFactory *,unsigned short>::Node_t,unsigned short,CUtlMap<char const *,IEntityFactory *,unsigned short>::CKeyLess,CUtlMemory<UtlRBTreeNode_t<CUtlMap<char const *,IEntityFactory *,unsigned short>::Node_t,unsigned short>,unsigned short> >::IsValidIndex, COMDAT
; _this$ = ecx

; 531  : { 

	push	ebp
	mov	ebp, esp
	sub	esp, 72					; 00000048H
	push	ebx
	push	esi
	push	edi
	mov	DWORD PTR _this$[ebp], ecx

; 532  : 	if ( !m_Elements.IsIdxValid( i ) )

	movzx	eax, WORD PTR _i$[ebp]
	push	eax
	mov	ecx, DWORD PTR _this$[ebp]
	add	ecx, 4
	call	?IsIdxValid@?$CUtlMemory@U?$UtlRBTreeNode_t@UNode_t@?$CUtlMap@PBDPAVIEntityFactory@@G@@G@@G@@QBE_NG@Z ; CUtlMemory<UtlRBTreeNode_t<CUtlMap<char const *,IEntityFactory *,unsigned short>::Node_t,unsigned short>,unsigned short>::IsIdxValid
	movzx	ecx, al
	test	ecx, ecx
	jne	SHORT $LN2@IsValidInd

; 533  : 		return false;

	xor	al, al
	jmp	SHORT $LN1@IsValidInd
$LN2@IsValidInd:

; 534  : 
; 535  : 	if ( m_Elements.IsIdxAfter( i, m_LastAlloc ) )

	mov	eax, DWORD PTR _this$[ebp]
	add	eax, 22					; 00000016H
	push	eax
	movzx	ecx, WORD PTR _i$[ebp]
	push	ecx
	mov	ecx, DWORD PTR _this$[ebp]
	add	ecx, 4
	call	?IsIdxAfter@?$CUtlMemory@U?$UtlRBTreeNode_t@UNode_t@?$CUtlMap@PBDPAVIEntityFactory@@G@@G@@G@@QBE_NGABVIterator_t@1@@Z ; CUtlMemory<UtlRBTreeNode_t<CUtlMap<char const *,IEntityFactory *,unsigned short>::Node_t,unsigned short>,unsigned short>::IsIdxAfter
	movzx	edx, al
	test	edx, edx
	je	SHORT $LN3@IsValidInd

; 536  : 		return false; // don't read values that have been allocated, but not constructed

	xor	al, al
	jmp	SHORT $LN1@IsValidInd
$LN3@IsValidInd:

; 537  : 
; 538  : 	return LeftChild(i) != i; 

	movzx	eax, WORD PTR _i$[ebp]
	push	eax
	mov	ecx, DWORD PTR _this$[ebp]
	call	?LeftChild@?$CUtlRBTree@UNode_t@?$CUtlMap@PBDPAVIEntityFactory@@G@@GVCKeyLess@2@V?$CUtlMemory@U?$UtlRBTreeNode_t@UNode_t@?$CUtlMap@PBDPAVIEntityFactory@@G@@G@@G@@@@QBEGG@Z ; CUtlRBTree<CUtlMap<char const *,IEntityFactory *,unsigned short>::Node_t,unsigned short,CUtlMap<char const *,IEntityFactory *,unsigned short>::CKeyLess,CUtlMemory<UtlRBTreeNode_t<CUtlMap<char const *,IEntityFactory *,unsigned short>::Node_t,unsigned short>,unsigned short> >::LeftChild
	movzx	ecx, ax
	movzx	edx, WORD PTR _i$[ebp]
	cmp	ecx, edx
	je	SHORT $LN5@IsValidInd
	mov	DWORD PTR tv84[ebp], 1
	jmp	SHORT $LN6@IsValidInd
$LN5@IsValidInd:
	mov	DWORD PTR tv84[ebp], 0
$LN6@IsValidInd:
	mov	al, BYTE PTR tv84[ebp]
$LN1@IsValidInd:

; 539  : }

	pop	edi
	pop	esi
	pop	ebx
	mov	esp, ebp
	pop	ebp
	ret	4
?IsValidIndex@?$CUtlRBTree@UNode_t@?$CUtlMap@PBDPAVIEntityFactory@@G@@GVCKeyLess@2@V?$CUtlMemory@U?$UtlRBTreeNode_t@UNode_t@?$CUtlMap@PBDPAVIEntityFactory@@G@@G@@G@@@@QBE_NG@Z ENDP ; CUtlRBTree<CUtlMap<char const *,IEntityFactory *,unsigned short>::Node_t,unsigned short,CUtlMap<char const *,IEntityFactory *,unsigned short>::CKeyLess,CUtlMemory<UtlRBTreeNode_t<CUtlMap<char const *,IEntityFactory *,unsigned short>::Node_t,unsigned short>,unsigned short> >::IsValidIndex
_TEXT	ENDS
; Function compile flags: /Odtp /ZI
; File d:\!diffusion 2020\source code 2022\client-server\game_shared\utlrbtree.h
;	COMDAT ?IsRoot@?$CUtlRBTree@UNode_t@?$CUtlMap@PBDPAVIEntityFactory@@G@@GVCKeyLess@2@V?$CUtlMemory@U?$UtlRBTreeNode_t@UNode_t@?$CUtlMap@PBDPAVIEntityFactory@@G@@G@@G@@@@QBE_NG@Z
_TEXT	SEGMENT
tv68 = -72						; size = 4
_this$ = -4						; size = 4
_i$ = 8							; size = 2
?IsRoot@?$CUtlRBTree@UNode_t@?$CUtlMap@PBDPAVIEntityFactory@@G@@GVCKeyLess@2@V?$CUtlMemory@U?$UtlRBTreeNode_t@UNode_t@?$CUtlMap@PBDPAVIEntityFactory@@G@@G@@G@@@@QBE_NG@Z PROC ; CUtlRBTree<CUtlMap<char const *,IEntityFactory *,unsigned short>::Node_t,unsigned short,CUtlMap<char const *,IEntityFactory *,unsigned short>::CKeyLess,CUtlMemory<UtlRBTreeNode_t<CUtlMap<char const *,IEntityFactory *,unsigned short>::Node_t,unsigned short>,unsigned short> >::IsRoot, COMDAT
; _this$ = ecx

; 514  : { 

	push	ebp
	mov	ebp, esp
	sub	esp, 72					; 00000048H
	push	ebx
	push	esi
	push	edi
	mov	DWORD PTR _this$[ebp], ecx

; 515  : 	return i == m_Root; 

	movzx	eax, WORD PTR _i$[ebp]
	mov	ecx, DWORD PTR _this$[ebp]
	movzx	edx, WORD PTR [ecx+16]
	cmp	eax, edx
	jne	SHORT $LN3@IsRoot
	mov	DWORD PTR tv68[ebp], 1
	jmp	SHORT $LN4@IsRoot
$LN3@IsRoot:
	mov	DWORD PTR tv68[ebp], 0
$LN4@IsRoot:
	mov	al, BYTE PTR tv68[ebp]

; 516  : }

	pop	edi
	pop	esi
	pop	ebx
	mov	esp, ebp
	pop	ebp
	ret	4
?IsRoot@?$CUtlRBTree@UNode_t@?$CUtlMap@PBDPAVIEntityFactory@@G@@GVCKeyLess@2@V?$CUtlMemory@U?$UtlRBTreeNode_t@UNode_t@?$CUtlMap@PBDPAVIEntityFactory@@G@@G@@G@@@@QBE_NG@Z ENDP ; CUtlRBTree<CUtlMap<char const *,IEntityFactory *,unsigned short>::Node_t,unsigned short,CUtlMap<char const *,IEntityFactory *,unsigned short>::CKeyLess,CUtlMemory<UtlRBTreeNode_t<CUtlMap<char const *,IEntityFactory *,unsigned short>::Node_t,unsigned short>,unsigned short> >::IsRoot
_TEXT	ENDS
; Function compile flags: /Odtp /ZI
; File d:\!diffusion 2020\source code 2022\client-server\game_shared\utlrbtree.h
;	COMDAT ?IsRightChild@?$CUtlRBTree@UNode_t@?$CUtlMap@PBDPAVIEntityFactory@@G@@GVCKeyLess@2@V?$CUtlMemory@U?$UtlRBTreeNode_t@UNode_t@?$CUtlMap@PBDPAVIEntityFactory@@G@@G@@G@@@@QBE_NG@Z
_TEXT	SEGMENT
tv73 = -72						; size = 4
_this$ = -4						; size = 4
_i$ = 8							; size = 2
?IsRightChild@?$CUtlRBTree@UNode_t@?$CUtlMap@PBDPAVIEntityFactory@@G@@GVCKeyLess@2@V?$CUtlMemory@U?$UtlRBTreeNode_t@UNode_t@?$CUtlMap@PBDPAVIEntityFactory@@G@@G@@G@@@@QBE_NG@Z PROC ; CUtlRBTree<CUtlMap<char const *,IEntityFactory *,unsigned short>::Node_t,unsigned short,CUtlMap<char const *,IEntityFactory *,unsigned short>::CKeyLess,CUtlMemory<UtlRBTreeNode_t<CUtlMap<char const *,IEntityFactory *,unsigned short>::Node_t,unsigned short>,unsigned short> >::IsRightChild, COMDAT
; _this$ = ecx

; 503  : { 

	push	ebp
	mov	ebp, esp
	sub	esp, 72					; 00000048H
	push	ebx
	push	esi
	push	edi
	mov	DWORD PTR _this$[ebp], ecx

; 504  : 	return RightChild(Parent(i)) == i; 

	movzx	eax, WORD PTR _i$[ebp]
	push	eax
	mov	ecx, DWORD PTR _this$[ebp]
	call	?Parent@?$CUtlRBTree@UNode_t@?$CUtlMap@PBDPAVIEntityFactory@@G@@GVCKeyLess@2@V?$CUtlMemory@U?$UtlRBTreeNode_t@UNode_t@?$CUtlMap@PBDPAVIEntityFactory@@G@@G@@G@@@@QBEGG@Z ; CUtlRBTree<CUtlMap<char const *,IEntityFactory *,unsigned short>::Node_t,unsigned short,CUtlMap<char const *,IEntityFactory *,unsigned short>::CKeyLess,CUtlMemory<UtlRBTreeNode_t<CUtlMap<char const *,IEntityFactory *,unsigned short>::Node_t,unsigned short>,unsigned short> >::Parent
	movzx	ecx, ax
	push	ecx
	mov	ecx, DWORD PTR _this$[ebp]
	call	?RightChild@?$CUtlRBTree@UNode_t@?$CUtlMap@PBDPAVIEntityFactory@@G@@GVCKeyLess@2@V?$CUtlMemory@U?$UtlRBTreeNode_t@UNode_t@?$CUtlMap@PBDPAVIEntityFactory@@G@@G@@G@@@@QBEGG@Z ; CUtlRBTree<CUtlMap<char const *,IEntityFactory *,unsigned short>::Node_t,unsigned short,CUtlMap<char const *,IEntityFactory *,unsigned short>::CKeyLess,CUtlMemory<UtlRBTreeNode_t<CUtlMap<char const *,IEntityFactory *,unsigned short>::Node_t,unsigned short>,unsigned short> >::RightChild
	movzx	edx, ax
	movzx	eax, WORD PTR _i$[ebp]
	cmp	edx, eax
	jne	SHORT $LN3@IsRightChi
	mov	DWORD PTR tv73[ebp], 1
	jmp	SHORT $LN4@IsRightChi
$LN3@IsRightChi:
	mov	DWORD PTR tv73[ebp], 0
$LN4@IsRightChi:
	mov	al, BYTE PTR tv73[ebp]

; 505  : }

	pop	edi
	pop	esi
	pop	ebx
	mov	esp, ebp
	pop	ebp
	ret	4
?IsRightChild@?$CUtlRBTree@UNode_t@?$CUtlMap@PBDPAVIEntityFactory@@G@@GVCKeyLess@2@V?$CUtlMemory@U?$UtlRBTreeNode_t@UNode_t@?$CUtlMap@PBDPAVIEntityFactory@@G@@G@@G@@@@QBE_NG@Z ENDP ; CUtlRBTree<CUtlMap<char const *,IEntityFactory *,unsigned short>::Node_t,unsigned short,CUtlMap<char const *,IEntityFactory *,unsigned short>::CKeyLess,CUtlMemory<UtlRBTreeNode_t<CUtlMap<char const *,IEntityFactory *,unsigned short>::Node_t,unsigned short>,unsigned short> >::IsRightChild
_TEXT	ENDS
; Function compile flags: /Odtp /ZI
; File d:\!diffusion 2020\source code 2022\client-server\game_shared\utlrbtree.h
;	COMDAT ?IsLeftChild@?$CUtlRBTree@UNode_t@?$CUtlMap@PBDPAVIEntityFactory@@G@@GVCKeyLess@2@V?$CUtlMemory@U?$UtlRBTreeNode_t@UNode_t@?$CUtlMap@PBDPAVIEntityFactory@@G@@G@@G@@@@QBE_NG@Z
_TEXT	SEGMENT
tv73 = -72						; size = 4
_this$ = -4						; size = 4
_i$ = 8							; size = 2
?IsLeftChild@?$CUtlRBTree@UNode_t@?$CUtlMap@PBDPAVIEntityFactory@@G@@GVCKeyLess@2@V?$CUtlMemory@U?$UtlRBTreeNode_t@UNode_t@?$CUtlMap@PBDPAVIEntityFactory@@G@@G@@G@@@@QBE_NG@Z PROC ; CUtlRBTree<CUtlMap<char const *,IEntityFactory *,unsigned short>::Node_t,unsigned short,CUtlMap<char const *,IEntityFactory *,unsigned short>::CKeyLess,CUtlMemory<UtlRBTreeNode_t<CUtlMap<char const *,IEntityFactory *,unsigned short>::Node_t,unsigned short>,unsigned short> >::IsLeftChild, COMDAT
; _this$ = ecx

; 497  : { 

	push	ebp
	mov	ebp, esp
	sub	esp, 72					; 00000048H
	push	ebx
	push	esi
	push	edi
	mov	DWORD PTR _this$[ebp], ecx

; 498  : 	return LeftChild(Parent(i)) == i; 

	movzx	eax, WORD PTR _i$[ebp]
	push	eax
	mov	ecx, DWORD PTR _this$[ebp]
	call	?Parent@?$CUtlRBTree@UNode_t@?$CUtlMap@PBDPAVIEntityFactory@@G@@GVCKeyLess@2@V?$CUtlMemory@U?$UtlRBTreeNode_t@UNode_t@?$CUtlMap@PBDPAVIEntityFactory@@G@@G@@G@@@@QBEGG@Z ; CUtlRBTree<CUtlMap<char const *,IEntityFactory *,unsigned short>::Node_t,unsigned short,CUtlMap<char const *,IEntityFactory *,unsigned short>::CKeyLess,CUtlMemory<UtlRBTreeNode_t<CUtlMap<char const *,IEntityFactory *,unsigned short>::Node_t,unsigned short>,unsigned short> >::Parent
	movzx	ecx, ax
	push	ecx
	mov	ecx, DWORD PTR _this$[ebp]
	call	?LeftChild@?$CUtlRBTree@UNode_t@?$CUtlMap@PBDPAVIEntityFactory@@G@@GVCKeyLess@2@V?$CUtlMemory@U?$UtlRBTreeNode_t@UNode_t@?$CUtlMap@PBDPAVIEntityFactory@@G@@G@@G@@@@QBEGG@Z ; CUtlRBTree<CUtlMap<char const *,IEntityFactory *,unsigned short>::Node_t,unsigned short,CUtlMap<char const *,IEntityFactory *,unsigned short>::CKeyLess,CUtlMemory<UtlRBTreeNode_t<CUtlMap<char const *,IEntityFactory *,unsigned short>::Node_t,unsigned short>,unsigned short> >::LeftChild
	movzx	edx, ax
	movzx	eax, WORD PTR _i$[ebp]
	cmp	edx, eax
	jne	SHORT $LN3@IsLeftChil
	mov	DWORD PTR tv73[ebp], 1
	jmp	SHORT $LN4@IsLeftChil
$LN3@IsLeftChil:
	mov	DWORD PTR tv73[ebp], 0
$LN4@IsLeftChil:
	mov	al, BYTE PTR tv73[ebp]

; 499  : }

	pop	edi
	pop	esi
	pop	ebx
	mov	esp, ebp
	pop	ebp
	ret	4
?IsLeftChild@?$CUtlRBTree@UNode_t@?$CUtlMap@PBDPAVIEntityFactory@@G@@GVCKeyLess@2@V?$CUtlMemory@U?$UtlRBTreeNode_t@UNode_t@?$CUtlMap@PBDPAVIEntityFactory@@G@@G@@G@@@@QBE_NG@Z ENDP ; CUtlRBTree<CUtlMap<char const *,IEntityFactory *,unsigned short>::Node_t,unsigned short,CUtlMap<char const *,IEntityFactory *,unsigned short>::CKeyLess,CUtlMemory<UtlRBTreeNode_t<CUtlMap<char const *,IEntityFactory *,unsigned short>::Node_t,unsigned short>,unsigned short> >::IsLeftChild
_TEXT	ENDS
; Function compile flags: /Odtp /ZI
; File d:\!diffusion 2020\source code 2022\client-server\game_shared\utlrbtree.h
;	COMDAT ?RightChild@?$CUtlRBTree@UNode_t@?$CUtlMap@PBDPAVIEntityFactory@@G@@GVCKeyLess@2@V?$CUtlMemory@U?$UtlRBTreeNode_t@UNode_t@?$CUtlMap@PBDPAVIEntityFactory@@G@@G@@G@@@@QBEGG@Z
_TEXT	SEGMENT
_this$ = -4						; size = 4
_i$ = 8							; size = 2
?RightChild@?$CUtlRBTree@UNode_t@?$CUtlMap@PBDPAVIEntityFactory@@G@@GVCKeyLess@2@V?$CUtlMemory@U?$UtlRBTreeNode_t@UNode_t@?$CUtlMap@PBDPAVIEntityFactory@@G@@G@@G@@@@QBEGG@Z PROC ; CUtlRBTree<CUtlMap<char const *,IEntityFactory *,unsigned short>::Node_t,unsigned short,CUtlMap<char const *,IEntityFactory *,unsigned short>::CKeyLess,CUtlMemory<UtlRBTreeNode_t<CUtlMap<char const *,IEntityFactory *,unsigned short>::Node_t,unsigned short>,unsigned short> >::RightChild, COMDAT
; _this$ = ecx

; 487  : { 

	push	ebp
	mov	ebp, esp
	sub	esp, 68					; 00000044H
	push	ebx
	push	esi
	push	edi
	mov	DWORD PTR _this$[ebp], ecx

; 488  : 	return Links(i).m_Right; 

	movzx	eax, WORD PTR _i$[ebp]
	push	eax
	mov	ecx, DWORD PTR _this$[ebp]
	call	?Links@?$CUtlRBTree@UNode_t@?$CUtlMap@PBDPAVIEntityFactory@@G@@GVCKeyLess@2@V?$CUtlMemory@U?$UtlRBTreeNode_t@UNode_t@?$CUtlMap@PBDPAVIEntityFactory@@G@@G@@G@@@@IBEABU?$UtlRBTreeLinks_t@G@@G@Z ; CUtlRBTree<CUtlMap<char const *,IEntityFactory *,unsigned short>::Node_t,unsigned short,CUtlMap<char const *,IEntityFactory *,unsigned short>::CKeyLess,CUtlMemory<UtlRBTreeNode_t<CUtlMap<char const *,IEntityFactory *,unsigned short>::Node_t,unsigned short>,unsigned short> >::Links
	mov	ax, WORD PTR [eax+2]

; 489  : }

	pop	edi
	pop	esi
	pop	ebx
	mov	esp, ebp
	pop	ebp
	ret	4
?RightChild@?$CUtlRBTree@UNode_t@?$CUtlMap@PBDPAVIEntityFactory@@G@@GVCKeyLess@2@V?$CUtlMemory@U?$UtlRBTreeNode_t@UNode_t@?$CUtlMap@PBDPAVIEntityFactory@@G@@G@@G@@@@QBEGG@Z ENDP ; CUtlRBTree<CUtlMap<char const *,IEntityFactory *,unsigned short>::Node_t,unsigned short,CUtlMap<char const *,IEntityFactory *,unsigned short>::CKeyLess,CUtlMemory<UtlRBTreeNode_t<CUtlMap<char const *,IEntityFactory *,unsigned short>::Node_t,unsigned short>,unsigned short> >::RightChild
_TEXT	ENDS
; Function compile flags: /Odtp /ZI
; File d:\!diffusion 2020\source code 2022\client-server\game_shared\utlrbtree.h
;	COMDAT ?LeftChild@?$CUtlRBTree@UNode_t@?$CUtlMap@PBDPAVIEntityFactory@@G@@GVCKeyLess@2@V?$CUtlMemory@U?$UtlRBTreeNode_t@UNode_t@?$CUtlMap@PBDPAVIEntityFactory@@G@@G@@G@@@@QBEGG@Z
_TEXT	SEGMENT
_this$ = -4						; size = 4
_i$ = 8							; size = 2
?LeftChild@?$CUtlRBTree@UNode_t@?$CUtlMap@PBDPAVIEntityFactory@@G@@GVCKeyLess@2@V?$CUtlMemory@U?$UtlRBTreeNode_t@UNode_t@?$CUtlMap@PBDPAVIEntityFactory@@G@@G@@G@@@@QBEGG@Z PROC ; CUtlRBTree<CUtlMap<char const *,IEntityFactory *,unsigned short>::Node_t,unsigned short,CUtlMap<char const *,IEntityFactory *,unsigned short>::CKeyLess,CUtlMemory<UtlRBTreeNode_t<CUtlMap<char const *,IEntityFactory *,unsigned short>::Node_t,unsigned short>,unsigned short> >::LeftChild, COMDAT
; _this$ = ecx

; 481  : { 

	push	ebp
	mov	ebp, esp
	sub	esp, 68					; 00000044H
	push	ebx
	push	esi
	push	edi
	mov	DWORD PTR _this$[ebp], ecx

; 482  : 	return Links(i).m_Left; 

	movzx	eax, WORD PTR _i$[ebp]
	push	eax
	mov	ecx, DWORD PTR _this$[ebp]
	call	?Links@?$CUtlRBTree@UNode_t@?$CUtlMap@PBDPAVIEntityFactory@@G@@GVCKeyLess@2@V?$CUtlMemory@U?$UtlRBTreeNode_t@UNode_t@?$CUtlMap@PBDPAVIEntityFactory@@G@@G@@G@@@@IBEABU?$UtlRBTreeLinks_t@G@@G@Z ; CUtlRBTree<CUtlMap<char const *,IEntityFactory *,unsigned short>::Node_t,unsigned short,CUtlMap<char const *,IEntityFactory *,unsigned short>::CKeyLess,CUtlMemory<UtlRBTreeNode_t<CUtlMap<char const *,IEntityFactory *,unsigned short>::Node_t,unsigned short>,unsigned short> >::Links
	mov	ax, WORD PTR [eax]

; 483  : }

	pop	edi
	pop	esi
	pop	ebx
	mov	esp, ebp
	pop	ebp
	ret	4
?LeftChild@?$CUtlRBTree@UNode_t@?$CUtlMap@PBDPAVIEntityFactory@@G@@GVCKeyLess@2@V?$CUtlMemory@U?$UtlRBTreeNode_t@UNode_t@?$CUtlMap@PBDPAVIEntityFactory@@G@@G@@G@@@@QBEGG@Z ENDP ; CUtlRBTree<CUtlMap<char const *,IEntityFactory *,unsigned short>::Node_t,unsigned short,CUtlMap<char const *,IEntityFactory *,unsigned short>::CKeyLess,CUtlMemory<UtlRBTreeNode_t<CUtlMap<char const *,IEntityFactory *,unsigned short>::Node_t,unsigned short>,unsigned short> >::LeftChild
_TEXT	ENDS
; Function compile flags: /Odtp /ZI
; File d:\!diffusion 2020\source code 2022\client-server\game_shared\utlrbtree.h
;	COMDAT ?Parent@?$CUtlRBTree@UNode_t@?$CUtlMap@PBDPAVIEntityFactory@@G@@GVCKeyLess@2@V?$CUtlMemory@U?$UtlRBTreeNode_t@UNode_t@?$CUtlMap@PBDPAVIEntityFactory@@G@@G@@G@@@@QBEGG@Z
_TEXT	SEGMENT
_this$ = -4						; size = 4
_i$ = 8							; size = 2
?Parent@?$CUtlRBTree@UNode_t@?$CUtlMap@PBDPAVIEntityFactory@@G@@GVCKeyLess@2@V?$CUtlMemory@U?$UtlRBTreeNode_t@UNode_t@?$CUtlMap@PBDPAVIEntityFactory@@G@@G@@G@@@@QBEGG@Z PROC ; CUtlRBTree<CUtlMap<char const *,IEntityFactory *,unsigned short>::Node_t,unsigned short,CUtlMap<char const *,IEntityFactory *,unsigned short>::CKeyLess,CUtlMemory<UtlRBTreeNode_t<CUtlMap<char const *,IEntityFactory *,unsigned short>::Node_t,unsigned short>,unsigned short> >::Parent, COMDAT
; _this$ = ecx

; 475  : { 

	push	ebp
	mov	ebp, esp
	sub	esp, 68					; 00000044H
	push	ebx
	push	esi
	push	edi
	mov	DWORD PTR _this$[ebp], ecx

; 476  : 	return Links(i).m_Parent; 

	movzx	eax, WORD PTR _i$[ebp]
	push	eax
	mov	ecx, DWORD PTR _this$[ebp]
	call	?Links@?$CUtlRBTree@UNode_t@?$CUtlMap@PBDPAVIEntityFactory@@G@@GVCKeyLess@2@V?$CUtlMemory@U?$UtlRBTreeNode_t@UNode_t@?$CUtlMap@PBDPAVIEntityFactory@@G@@G@@G@@@@IBEABU?$UtlRBTreeLinks_t@G@@G@Z ; CUtlRBTree<CUtlMap<char const *,IEntityFactory *,unsigned short>::Node_t,unsigned short,CUtlMap<char const *,IEntityFactory *,unsigned short>::CKeyLess,CUtlMemory<UtlRBTreeNode_t<CUtlMap<char const *,IEntityFactory *,unsigned short>::Node_t,unsigned short>,unsigned short> >::Links
	mov	ax, WORD PTR [eax+4]

; 477  : }

	pop	edi
	pop	esi
	pop	ebx
	mov	esp, ebp
	pop	ebp
	ret	4
?Parent@?$CUtlRBTree@UNode_t@?$CUtlMap@PBDPAVIEntityFactory@@G@@GVCKeyLess@2@V?$CUtlMemory@U?$UtlRBTreeNode_t@UNode_t@?$CUtlMap@PBDPAVIEntityFactory@@G@@G@@G@@@@QBEGG@Z ENDP ; CUtlRBTree<CUtlMap<char const *,IEntityFactory *,unsigned short>::Node_t,unsigned short,CUtlMap<char const *,IEntityFactory *,unsigned short>::CKeyLess,CUtlMemory<UtlRBTreeNode_t<CUtlMap<char const *,IEntityFactory *,unsigned short>::Node_t,unsigned short>,unsigned short> >::Parent
_TEXT	ENDS
; Function compile flags: /Odtp /ZI
; File d:\!diffusion 2020\source code 2022\client-server\game_shared\utlrbtree.h
;	COMDAT ?Count@?$CUtlRBTree@UNode_t@?$CUtlMap@PBDPAVIEntityFactory@@G@@GVCKeyLess@2@V?$CUtlMemory@U?$UtlRBTreeNode_t@UNode_t@?$CUtlMap@PBDPAVIEntityFactory@@G@@G@@G@@@@QBEIXZ
_TEXT	SEGMENT
_this$ = -4						; size = 4
?Count@?$CUtlRBTree@UNode_t@?$CUtlMap@PBDPAVIEntityFactory@@G@@GVCKeyLess@2@V?$CUtlMemory@U?$UtlRBTreeNode_t@UNode_t@?$CUtlMap@PBDPAVIEntityFactory@@G@@G@@G@@@@QBEIXZ PROC ; CUtlRBTree<CUtlMap<char const *,IEntityFactory *,unsigned short>::Node_t,unsigned short,CUtlMap<char const *,IEntityFactory *,unsigned short>::CKeyLess,CUtlMemory<UtlRBTreeNode_t<CUtlMap<char const *,IEntityFactory *,unsigned short>::Node_t,unsigned short>,unsigned short> >::Count, COMDAT
; _this$ = ecx

; 454  : { 

	push	ebp
	mov	ebp, esp
	sub	esp, 68					; 00000044H
	push	ebx
	push	esi
	push	edi
	mov	DWORD PTR _this$[ebp], ecx

; 455  : 	return (unsigned int)m_NumElements; 

	mov	eax, DWORD PTR _this$[ebp]
	movzx	eax, WORD PTR [eax+18]

; 456  : }

	pop	edi
	pop	esi
	pop	ebx
	mov	esp, ebp
	pop	ebp
	ret	0
?Count@?$CUtlRBTree@UNode_t@?$CUtlMap@PBDPAVIEntityFactory@@G@@GVCKeyLess@2@V?$CUtlMemory@U?$UtlRBTreeNode_t@UNode_t@?$CUtlMap@PBDPAVIEntityFactory@@G@@G@@G@@@@QBEIXZ ENDP ; CUtlRBTree<CUtlMap<char const *,IEntityFactory *,unsigned short>::Node_t,unsigned short,CUtlMap<char const *,IEntityFactory *,unsigned short>::CKeyLess,CUtlMemory<UtlRBTreeNode_t<CUtlMap<char const *,IEntityFactory *,unsigned short>::Node_t,unsigned short>,unsigned short> >::Count
_TEXT	ENDS
; Function compile flags: /Odtp /ZI
; File d:\!diffusion 2020\source code 2022\client-server\game_shared\utlrbtree.h
;	COMDAT ?Root@?$CUtlRBTree@UNode_t@?$CUtlMap@PBDPAVIEntityFactory@@G@@GVCKeyLess@2@V?$CUtlMemory@U?$UtlRBTreeNode_t@UNode_t@?$CUtlMap@PBDPAVIEntityFactory@@G@@G@@G@@@@QBEGXZ
_TEXT	SEGMENT
_this$ = -4						; size = 4
?Root@?$CUtlRBTree@UNode_t@?$CUtlMap@PBDPAVIEntityFactory@@G@@GVCKeyLess@2@V?$CUtlMemory@U?$UtlRBTreeNode_t@UNode_t@?$CUtlMap@PBDPAVIEntityFactory@@G@@G@@G@@@@QBEGXZ PROC ; CUtlRBTree<CUtlMap<char const *,IEntityFactory *,unsigned short>::Node_t,unsigned short,CUtlMap<char const *,IEntityFactory *,unsigned short>::CKeyLess,CUtlMemory<UtlRBTreeNode_t<CUtlMap<char const *,IEntityFactory *,unsigned short>::Node_t,unsigned short>,unsigned short> >::Root, COMDAT
; _this$ = ecx

; 444  : { 

	push	ebp
	mov	ebp, esp
	sub	esp, 68					; 00000044H
	push	ebx
	push	esi
	push	edi
	mov	DWORD PTR _this$[ebp], ecx

; 445  : 	return m_Root; 

	mov	eax, DWORD PTR _this$[ebp]
	mov	ax, WORD PTR [eax+16]

; 446  : }

	pop	edi
	pop	esi
	pop	ebx
	mov	esp, ebp
	pop	ebp
	ret	0
?Root@?$CUtlRBTree@UNode_t@?$CUtlMap@PBDPAVIEntityFactory@@G@@GVCKeyLess@2@V?$CUtlMemory@U?$UtlRBTreeNode_t@UNode_t@?$CUtlMap@PBDPAVIEntityFactory@@G@@G@@G@@@@QBEGXZ ENDP ; CUtlRBTree<CUtlMap<char const *,IEntityFactory *,unsigned short>::Node_t,unsigned short,CUtlMap<char const *,IEntityFactory *,unsigned short>::CKeyLess,CUtlMemory<UtlRBTreeNode_t<CUtlMap<char const *,IEntityFactory *,unsigned short>::Node_t,unsigned short>,unsigned short> >::Root
_TEXT	ENDS
; Function compile flags: /Odtp /ZI
; File d:\!diffusion 2020\source code 2022\client-server\game_shared\utlrbtree.h
;	COMDAT ?Element@?$CUtlRBTree@UNode_t@?$CUtlMap@PBDPAVIEntityFactory@@G@@GVCKeyLess@2@V?$CUtlMemory@U?$UtlRBTreeNode_t@UNode_t@?$CUtlMap@PBDPAVIEntityFactory@@G@@G@@G@@@@QBEABUNode_t@?$CUtlMap@PBDPAVIEntityFactory@@G@@G@Z
_TEXT	SEGMENT
_this$ = -4						; size = 4
_i$ = 8							; size = 2
?Element@?$CUtlRBTree@UNode_t@?$CUtlMap@PBDPAVIEntityFactory@@G@@GVCKeyLess@2@V?$CUtlMemory@U?$UtlRBTreeNode_t@UNode_t@?$CUtlMap@PBDPAVIEntityFactory@@G@@G@@G@@@@QBEABUNode_t@?$CUtlMap@PBDPAVIEntityFactory@@G@@G@Z PROC ; CUtlRBTree<CUtlMap<char const *,IEntityFactory *,unsigned short>::Node_t,unsigned short,CUtlMap<char const *,IEntityFactory *,unsigned short>::CKeyLess,CUtlMemory<UtlRBTreeNode_t<CUtlMap<char const *,IEntityFactory *,unsigned short>::Node_t,unsigned short>,unsigned short> >::Element, COMDAT
; _this$ = ecx

; 416  : { 

	push	ebp
	mov	ebp, esp
	sub	esp, 68					; 00000044H
	push	ebx
	push	esi
	push	edi
	mov	DWORD PTR _this$[ebp], ecx

; 417  : 	return m_Elements[i].m_Data; 

	movzx	eax, WORD PTR _i$[ebp]
	push	eax
	mov	ecx, DWORD PTR _this$[ebp]
	add	ecx, 4
	call	??A?$CUtlMemory@U?$UtlRBTreeNode_t@UNode_t@?$CUtlMap@PBDPAVIEntityFactory@@G@@G@@G@@QBEABU?$UtlRBTreeNode_t@UNode_t@?$CUtlMap@PBDPAVIEntityFactory@@G@@G@@G@Z ; CUtlMemory<UtlRBTreeNode_t<CUtlMap<char const *,IEntityFactory *,unsigned short>::Node_t,unsigned short>,unsigned short>::operator[]
	add	eax, 8

; 418  : }

	pop	edi
	pop	esi
	pop	ebx
	mov	esp, ebp
	pop	ebp
	ret	4
?Element@?$CUtlRBTree@UNode_t@?$CUtlMap@PBDPAVIEntityFactory@@G@@GVCKeyLess@2@V?$CUtlMemory@U?$UtlRBTreeNode_t@UNode_t@?$CUtlMap@PBDPAVIEntityFactory@@G@@G@@G@@@@QBEABUNode_t@?$CUtlMap@PBDPAVIEntityFactory@@G@@G@Z ENDP ; CUtlRBTree<CUtlMap<char const *,IEntityFactory *,unsigned short>::Node_t,unsigned short,CUtlMap<char const *,IEntityFactory *,unsigned short>::CKeyLess,CUtlMemory<UtlRBTreeNode_t<CUtlMap<char const *,IEntityFactory *,unsigned short>::Node_t,unsigned short>,unsigned short> >::Element
_TEXT	ENDS
; Function compile flags: /Odtp /ZI
; File d:\!diffusion 2020\source code 2022\client-server\game_shared\utlrbtree.h
;	COMDAT ?Element@?$CUtlRBTree@UNode_t@?$CUtlMap@PBDPAVIEntityFactory@@G@@GVCKeyLess@2@V?$CUtlMemory@U?$UtlRBTreeNode_t@UNode_t@?$CUtlMap@PBDPAVIEntityFactory@@G@@G@@G@@@@QAEAAUNode_t@?$CUtlMap@PBDPAVIEntityFactory@@G@@G@Z
_TEXT	SEGMENT
_this$ = -4						; size = 4
_i$ = 8							; size = 2
?Element@?$CUtlRBTree@UNode_t@?$CUtlMap@PBDPAVIEntityFactory@@G@@GVCKeyLess@2@V?$CUtlMemory@U?$UtlRBTreeNode_t@UNode_t@?$CUtlMap@PBDPAVIEntityFactory@@G@@G@@G@@@@QAEAAUNode_t@?$CUtlMap@PBDPAVIEntityFactory@@G@@G@Z PROC ; CUtlRBTree<CUtlMap<char const *,IEntityFactory *,unsigned short>::Node_t,unsigned short,CUtlMap<char const *,IEntityFactory *,unsigned short>::CKeyLess,CUtlMemory<UtlRBTreeNode_t<CUtlMap<char const *,IEntityFactory *,unsigned short>::Node_t,unsigned short>,unsigned short> >::Element, COMDAT
; _this$ = ecx

; 410  : { 

	push	ebp
	mov	ebp, esp
	sub	esp, 68					; 00000044H
	push	ebx
	push	esi
	push	edi
	mov	DWORD PTR _this$[ebp], ecx

; 411  : 	return m_Elements[i].m_Data; 

	movzx	eax, WORD PTR _i$[ebp]
	push	eax
	mov	ecx, DWORD PTR _this$[ebp]
	add	ecx, 4
	call	??A?$CUtlMemory@U?$UtlRBTreeNode_t@UNode_t@?$CUtlMap@PBDPAVIEntityFactory@@G@@G@@G@@QAEAAU?$UtlRBTreeNode_t@UNode_t@?$CUtlMap@PBDPAVIEntityFactory@@G@@G@@G@Z ; CUtlMemory<UtlRBTreeNode_t<CUtlMap<char const *,IEntityFactory *,unsigned short>::Node_t,unsigned short>,unsigned short>::operator[]
	add	eax, 8

; 412  : }

	pop	edi
	pop	esi
	pop	ebx
	mov	esp, ebp
	pop	ebp
	ret	4
?Element@?$CUtlRBTree@UNode_t@?$CUtlMap@PBDPAVIEntityFactory@@G@@GVCKeyLess@2@V?$CUtlMemory@U?$UtlRBTreeNode_t@UNode_t@?$CUtlMap@PBDPAVIEntityFactory@@G@@G@@G@@@@QAEAAUNode_t@?$CUtlMap@PBDPAVIEntityFactory@@G@@G@Z ENDP ; CUtlRBTree<CUtlMap<char const *,IEntityFactory *,unsigned short>::Node_t,unsigned short,CUtlMap<char const *,IEntityFactory *,unsigned short>::CKeyLess,CUtlMemory<UtlRBTreeNode_t<CUtlMap<char const *,IEntityFactory *,unsigned short>::Node_t,unsigned short>,unsigned short> >::Element
_TEXT	ENDS
; Function compile flags: /Odtp /ZI
; File d:\!diffusion 2020\source code 2022\client-server\game_shared\utlrbtree.h
;	COMDAT ??1?$CUtlRBTree@UNode_t@?$CUtlMap@PBDPAVIEntityFactory@@G@@GVCKeyLess@2@V?$CUtlMemory@U?$UtlRBTreeNode_t@UNode_t@?$CUtlMap@PBDPAVIEntityFactory@@G@@G@@G@@@@QAE@XZ
_TEXT	SEGMENT
_this$ = -16						; size = 4
__$EHRec$ = -12						; size = 12
??1?$CUtlRBTree@UNode_t@?$CUtlMap@PBDPAVIEntityFactory@@G@@GVCKeyLess@2@V?$CUtlMemory@U?$UtlRBTreeNode_t@UNode_t@?$CUtlMap@PBDPAVIEntityFactory@@G@@G@@G@@@@QAE@XZ PROC ; CUtlRBTree<CUtlMap<char const *,IEntityFactory *,unsigned short>::Node_t,unsigned short,CUtlMap<char const *,IEntityFactory *,unsigned short>::CKeyLess,CUtlMemory<UtlRBTreeNode_t<CUtlMap<char const *,IEntityFactory *,unsigned short>::Node_t,unsigned short>,unsigned short> >::~CUtlRBTree<CUtlMap<char const *,IEntityFactory *,unsigned short>::Node_t,unsigned short,CUtlMap<char const *,IEntityFactory *,unsigned short>::CKeyLess,CUtlMemory<UtlRBTreeNode_t<CUtlMap<char const *,IEntityFactory *,unsigned short>::Node_t,unsigned short>,unsigned short> >, COMDAT
; _this$ = ecx

; 380  : {

	push	ebp
	mov	ebp, esp
	push	-1
	push	__ehhandler$??1?$CUtlRBTree@UNode_t@?$CUtlMap@PBDPAVIEntityFactory@@G@@GVCKeyLess@2@V?$CUtlMemory@U?$UtlRBTreeNode_t@UNode_t@?$CUtlMap@PBDPAVIEntityFactory@@G@@G@@G@@@@QAE@XZ
	mov	eax, DWORD PTR fs:0
	push	eax
	sub	esp, 68					; 00000044H
	push	ebx
	push	esi
	push	edi
	mov	eax, DWORD PTR ___security_cookie
	xor	eax, ebp
	push	eax
	lea	eax, DWORD PTR __$EHRec$[ebp]
	mov	DWORD PTR fs:0, eax
	mov	DWORD PTR _this$[ebp], ecx

; 381  : 	Purge();

	mov	ecx, DWORD PTR _this$[ebp]
	call	?Purge@?$CUtlRBTree@UNode_t@?$CUtlMap@PBDPAVIEntityFactory@@G@@GVCKeyLess@2@V?$CUtlMemory@U?$UtlRBTreeNode_t@UNode_t@?$CUtlMap@PBDPAVIEntityFactory@@G@@G@@G@@@@QAEXXZ ; CUtlRBTree<CUtlMap<char const *,IEntityFactory *,unsigned short>::Node_t,unsigned short,CUtlMap<char const *,IEntityFactory *,unsigned short>::CKeyLess,CUtlMemory<UtlRBTreeNode_t<CUtlMap<char const *,IEntityFactory *,unsigned short>::Node_t,unsigned short>,unsigned short> >::Purge

; 382  : }

	mov	ecx, DWORD PTR _this$[ebp]
	add	ecx, 4
	call	??1?$CUtlMemory@U?$UtlRBTreeNode_t@UNode_t@?$CUtlMap@PBDPAVIEntityFactory@@G@@G@@G@@QAE@XZ ; CUtlMemory<UtlRBTreeNode_t<CUtlMap<char const *,IEntityFactory *,unsigned short>::Node_t,unsigned short>,unsigned short>::~CUtlMemory<UtlRBTreeNode_t<CUtlMap<char const *,IEntityFactory *,unsigned short>::Node_t,unsigned short>,unsigned short>
	mov	ecx, DWORD PTR __$EHRec$[ebp]
	mov	DWORD PTR fs:0, ecx
	pop	ecx
	pop	edi
	pop	esi
	pop	ebx
	mov	esp, ebp
	pop	ebp
	ret	0
_TEXT	ENDS
;	COMDAT text$x
text$x	SEGMENT
__ehhandler$??1?$CUtlRBTree@UNode_t@?$CUtlMap@PBDPAVIEntityFactory@@G@@GVCKeyLess@2@V?$CUtlMemory@U?$UtlRBTreeNode_t@UNode_t@?$CUtlMap@PBDPAVIEntityFactory@@G@@G@@G@@@@QAE@XZ:
	mov	edx, DWORD PTR [esp+8]
	lea	eax, DWORD PTR [edx+12]
	mov	ecx, DWORD PTR [edx-84]
	xor	ecx, eax
	call	@__security_check_cookie@4
	mov	eax, OFFSET __ehfuncinfo$??1?$CUtlRBTree@UNode_t@?$CUtlMap@PBDPAVIEntityFactory@@G@@GVCKeyLess@2@V?$CUtlMemory@U?$UtlRBTreeNode_t@UNode_t@?$CUtlMap@PBDPAVIEntityFactory@@G@@G@@G@@@@QAE@XZ
	jmp	___CxxFrameHandler3
text$x	ENDS
??1?$CUtlRBTree@UNode_t@?$CUtlMap@PBDPAVIEntityFactory@@G@@GVCKeyLess@2@V?$CUtlMemory@U?$UtlRBTreeNode_t@UNode_t@?$CUtlMap@PBDPAVIEntityFactory@@G@@G@@G@@@@QAE@XZ ENDP ; CUtlRBTree<CUtlMap<char const *,IEntityFactory *,unsigned short>::Node_t,unsigned short,CUtlMap<char const *,IEntityFactory *,unsigned short>::CKeyLess,CUtlMemory<UtlRBTreeNode_t<CUtlMap<char const *,IEntityFactory *,unsigned short>::Node_t,unsigned short>,unsigned short> >::~CUtlRBTree<CUtlMap<char const *,IEntityFactory *,unsigned short>::Node_t,unsigned short,CUtlMap<char const *,IEntityFactory *,unsigned short>::CKeyLess,CUtlMemory<UtlRBTreeNode_t<CUtlMap<char const *,IEntityFactory *,unsigned short>::Node_t,unsigned short>,unsigned short> >
; Function compile flags: /Odtp /ZI
; File d:\!diffusion 2020\source code 2022\client-server\game_shared\utlrbtree.h
;	COMDAT ??0?$CUtlRBTree@UNode_t@?$CUtlMap@PBDPAVIEntityFactory@@G@@GVCKeyLess@2@V?$CUtlMemory@U?$UtlRBTreeNode_t@UNode_t@?$CUtlMap@PBDPAVIEntityFactory@@G@@G@@G@@@@QAE@HHABVCKeyLess@?$CUtlMap@PBDPAVIEntityFactory@@G@@@Z
_TEXT	SEGMENT
_this$ = -16						; size = 4
__$EHRec$ = -12						; size = 12
_growSize$ = 8						; size = 4
_initSize$ = 12						; size = 4
_lessfunc$ = 16						; size = 4
??0?$CUtlRBTree@UNode_t@?$CUtlMap@PBDPAVIEntityFactory@@G@@GVCKeyLess@2@V?$CUtlMemory@U?$UtlRBTreeNode_t@UNode_t@?$CUtlMap@PBDPAVIEntityFactory@@G@@G@@G@@@@QAE@HHABVCKeyLess@?$CUtlMap@PBDPAVIEntityFactory@@G@@@Z PROC ; CUtlRBTree<CUtlMap<char const *,IEntityFactory *,unsigned short>::Node_t,unsigned short,CUtlMap<char const *,IEntityFactory *,unsigned short>::CKeyLess,CUtlMemory<UtlRBTreeNode_t<CUtlMap<char const *,IEntityFactory *,unsigned short>::Node_t,unsigned short>,unsigned short> >::CUtlRBTree<CUtlMap<char const *,IEntityFactory *,unsigned short>::Node_t,unsigned short,CUtlMap<char const *,IEntityFactory *,unsigned short>::CKeyLess,CUtlMemory<UtlRBTreeNode_t<CUtlMap<char const *,IEntityFactory *,unsigned short>::Node_t,unsigned short>,unsigned short> >, COMDAT
; _this$ = ecx

; 362  : {

	push	ebp
	mov	ebp, esp
	push	-1
	push	__ehhandler$??0?$CUtlRBTree@UNode_t@?$CUtlMap@PBDPAVIEntityFactory@@G@@GVCKeyLess@2@V?$CUtlMemory@U?$UtlRBTreeNode_t@UNode_t@?$CUtlMap@PBDPAVIEntityFactory@@G@@G@@G@@@@QAE@HHABVCKeyLess@?$CUtlMap@PBDPAVIEntityFactory@@G@@@Z
	mov	eax, DWORD PTR fs:0
	push	eax
	sub	esp, 68					; 00000044H
	push	ebx
	push	esi
	push	edi
	mov	eax, DWORD PTR ___security_cookie
	xor	eax, ebp
	push	eax
	lea	eax, DWORD PTR __$EHRec$[ebp]
	mov	DWORD PTR fs:0, eax
	mov	DWORD PTR _this$[ebp], ecx

; 357  : m_LessFunc( lessfunc ),

	mov	eax, DWORD PTR _lessfunc$[ebp]
	mov	ecx, DWORD PTR [eax]
	mov	edx, DWORD PTR _this$[ebp]
	mov	DWORD PTR [edx], ecx

; 356  : m_Elements( growSize, initSize ),

	mov	eax, DWORD PTR _initSize$[ebp]
	push	eax
	mov	ecx, DWORD PTR _growSize$[ebp]
	push	ecx
	mov	ecx, DWORD PTR _this$[ebp]
	add	ecx, 4
	call	??0?$CUtlMemory@U?$UtlRBTreeNode_t@UNode_t@?$CUtlMap@PBDPAVIEntityFactory@@G@@G@@G@@QAE@HH@Z ; CUtlMemory<UtlRBTreeNode_t<CUtlMap<char const *,IEntityFactory *,unsigned short>::Node_t,unsigned short>,unsigned short>::CUtlMemory<UtlRBTreeNode_t<CUtlMap<char const *,IEntityFactory *,unsigned short>::Node_t,unsigned short>,unsigned short>
	mov	DWORD PTR __$EHRec$[ebp+8], 0

; 358  : m_Root( InvalidIndex() ),

	call	?InvalidIndex@?$CUtlRBTree@UNode_t@?$CUtlMap@PBDPAVIEntityFactory@@G@@GVCKeyLess@2@V?$CUtlMemory@U?$UtlRBTreeNode_t@UNode_t@?$CUtlMap@PBDPAVIEntityFactory@@G@@G@@G@@@@SAGXZ ; CUtlRBTree<CUtlMap<char const *,IEntityFactory *,unsigned short>::Node_t,unsigned short,CUtlMap<char const *,IEntityFactory *,unsigned short>::CKeyLess,CUtlMemory<UtlRBTreeNode_t<CUtlMap<char const *,IEntityFactory *,unsigned short>::Node_t,unsigned short>,unsigned short> >::InvalidIndex
	mov	ecx, DWORD PTR _this$[ebp]
	mov	WORD PTR [ecx+16], ax

; 359  : m_NumElements( 0 ),

	xor	eax, eax
	mov	ecx, DWORD PTR _this$[ebp]
	mov	WORD PTR [ecx+18], ax

; 360  : m_FirstFree( InvalidIndex() ),

	call	?InvalidIndex@?$CUtlRBTree@UNode_t@?$CUtlMap@PBDPAVIEntityFactory@@G@@GVCKeyLess@2@V?$CUtlMemory@U?$UtlRBTreeNode_t@UNode_t@?$CUtlMap@PBDPAVIEntityFactory@@G@@G@@G@@@@SAGXZ ; CUtlRBTree<CUtlMap<char const *,IEntityFactory *,unsigned short>::Node_t,unsigned short,CUtlMap<char const *,IEntityFactory *,unsigned short>::CKeyLess,CUtlMemory<UtlRBTreeNode_t<CUtlMap<char const *,IEntityFactory *,unsigned short>::Node_t,unsigned short>,unsigned short> >::InvalidIndex
	mov	ecx, DWORD PTR _this$[ebp]
	mov	WORD PTR [ecx+20], ax

; 361  : m_LastAlloc( m_Elements.InvalidIterator() )

	mov	eax, DWORD PTR _this$[ebp]
	add	eax, 22					; 00000016H
	push	eax
	mov	ecx, DWORD PTR _this$[ebp]
	add	ecx, 4
	call	?InvalidIterator@?$CUtlMemory@U?$UtlRBTreeNode_t@UNode_t@?$CUtlMap@PBDPAVIEntityFactory@@G@@G@@G@@QBE?AVIterator_t@1@XZ ; CUtlMemory<UtlRBTreeNode_t<CUtlMap<char const *,IEntityFactory *,unsigned short>::Node_t,unsigned short>,unsigned short>::InvalidIterator

; 363  : 	ResetDbgInfo();

	mov	ecx, DWORD PTR _this$[ebp]
	call	?ResetDbgInfo@?$CUtlRBTree@UNode_t@?$CUtlMap@PBDPAVIEntityFactory@@G@@GVCKeyLess@2@V?$CUtlMemory@U?$UtlRBTreeNode_t@UNode_t@?$CUtlMap@PBDPAVIEntityFactory@@G@@G@@G@@@@IAEXXZ ; CUtlRBTree<CUtlMap<char const *,IEntityFactory *,unsigned short>::Node_t,unsigned short,CUtlMap<char const *,IEntityFactory *,unsigned short>::CKeyLess,CUtlMemory<UtlRBTreeNode_t<CUtlMap<char const *,IEntityFactory *,unsigned short>::Node_t,unsigned short>,unsigned short> >::ResetDbgInfo

; 364  : }

	mov	DWORD PTR __$EHRec$[ebp+8], -1
	mov	eax, DWORD PTR _this$[ebp]
	mov	ecx, DWORD PTR __$EHRec$[ebp]
	mov	DWORD PTR fs:0, ecx
	pop	ecx
	pop	edi
	pop	esi
	pop	ebx
	mov	esp, ebp
	pop	ebp
	ret	12					; 0000000cH
_TEXT	ENDS
;	COMDAT text$x
text$x	SEGMENT
__unwindfunclet$??0?$CUtlRBTree@UNode_t@?$CUtlMap@PBDPAVIEntityFactory@@G@@GVCKeyLess@2@V?$CUtlMemory@U?$UtlRBTreeNode_t@UNode_t@?$CUtlMap@PBDPAVIEntityFactory@@G@@G@@G@@@@QAE@HHABVCKeyLess@?$CUtlMap@PBDPAVIEntityFactory@@G@@@Z$0:
	mov	ecx, DWORD PTR _this$[ebp]
	add	ecx, 4
	jmp	??1?$CUtlMemory@U?$UtlRBTreeNode_t@UNode_t@?$CUtlMap@PBDPAVIEntityFactory@@G@@G@@G@@QAE@XZ ; CUtlMemory<UtlRBTreeNode_t<CUtlMap<char const *,IEntityFactory *,unsigned short>::Node_t,unsigned short>,unsigned short>::~CUtlMemory<UtlRBTreeNode_t<CUtlMap<char const *,IEntityFactory *,unsigned short>::Node_t,unsigned short>,unsigned short>
__ehhandler$??0?$CUtlRBTree@UNode_t@?$CUtlMap@PBDPAVIEntityFactory@@G@@GVCKeyLess@2@V?$CUtlMemory@U?$UtlRBTreeNode_t@UNode_t@?$CUtlMap@PBDPAVIEntityFactory@@G@@G@@G@@@@QAE@HHABVCKeyLess@?$CUtlMap@PBDPAVIEntityFactory@@G@@@Z:
	mov	edx, DWORD PTR [esp+8]
	lea	eax, DWORD PTR [edx+12]
	mov	ecx, DWORD PTR [edx-84]
	xor	ecx, eax
	call	@__security_check_cookie@4
	mov	eax, OFFSET __ehfuncinfo$??0?$CUtlRBTree@UNode_t@?$CUtlMap@PBDPAVIEntityFactory@@G@@GVCKeyLess@2@V?$CUtlMemory@U?$UtlRBTreeNode_t@UNode_t@?$CUtlMap@PBDPAVIEntityFactory@@G@@G@@G@@@@QAE@HHABVCKeyLess@?$CUtlMap@PBDPAVIEntityFactory@@G@@@Z
	jmp	___CxxFrameHandler3
text$x	ENDS
??0?$CUtlRBTree@UNode_t@?$CUtlMap@PBDPAVIEntityFactory@@G@@GVCKeyLess@2@V?$CUtlMemory@U?$UtlRBTreeNode_t@UNode_t@?$CUtlMap@PBDPAVIEntityFactory@@G@@G@@G@@@@QAE@HHABVCKeyLess@?$CUtlMap@PBDPAVIEntityFactory@@G@@@Z ENDP ; CUtlRBTree<CUtlMap<char const *,IEntityFactory *,unsigned short>::Node_t,unsigned short,CUtlMap<char const *,IEntityFactory *,unsigned short>::CKeyLess,CUtlMemory<UtlRBTreeNode_t<CUtlMap<char const *,IEntityFactory *,unsigned short>::Node_t,unsigned short>,unsigned short> >::CUtlRBTree<CUtlMap<char const *,IEntityFactory *,unsigned short>::Node_t,unsigned short,CUtlMap<char const *,IEntityFactory *,unsigned short>::CKeyLess,CUtlMemory<UtlRBTreeNode_t<CUtlMap<char const *,IEntityFactory *,unsigned short>::Node_t,unsigned short>,unsigned short> >
; Function compile flags: /Odtp /ZI
; File d:\!diffusion 2020\source code 2022\client-server\game_shared\utlmap.h
;	COMDAT ?NextInorder@?$CUtlMap@PBDPAVIEntityFactory@@G@@QBEGG@Z
_TEXT	SEGMENT
_this$ = -4						; size = 4
_i$ = 8							; size = 2
?NextInorder@?$CUtlMap@PBDPAVIEntityFactory@@G@@QBEGG@Z PROC ; CUtlMap<char const *,IEntityFactory *,unsigned short>::NextInorder, COMDAT
; _this$ = ecx

; 127  : 	IndexType_t  NextInorder( IndexType_t i ) const			{ return m_Tree.NextInorder( i ); }

	push	ebp
	mov	ebp, esp
	sub	esp, 68					; 00000044H
	push	ebx
	push	esi
	push	edi
	mov	DWORD PTR _this$[ebp], ecx
	movzx	eax, WORD PTR _i$[ebp]
	push	eax
	mov	ecx, DWORD PTR _this$[ebp]
	call	?NextInorder@?$CUtlRBTree@UNode_t@?$CUtlMap@PBDPAVIEntityFactory@@G@@GVCKeyLess@2@V?$CUtlMemory@U?$UtlRBTreeNode_t@UNode_t@?$CUtlMap@PBDPAVIEntityFactory@@G@@G@@G@@@@QBEGG@Z ; CUtlRBTree<CUtlMap<char const *,IEntityFactory *,unsigned short>::Node_t,unsigned short,CUtlMap<char const *,IEntityFactory *,unsigned short>::CKeyLess,CUtlMemory<UtlRBTreeNode_t<CUtlMap<char const *,IEntityFactory *,unsigned short>::Node_t,unsigned short>,unsigned short> >::NextInorder
	pop	edi
	pop	esi
	pop	ebx
	mov	esp, ebp
	pop	ebp
	ret	4
?NextInorder@?$CUtlMap@PBDPAVIEntityFactory@@G@@QBEGG@Z ENDP ; CUtlMap<char const *,IEntityFactory *,unsigned short>::NextInorder
_TEXT	ENDS
; Function compile flags: /Odtp /ZI
; File d:\!diffusion 2020\source code 2022\client-server\game_shared\utlmap.h
;	COMDAT ?FirstInorder@?$CUtlMap@PBDPAVIEntityFactory@@G@@QBEGXZ
_TEXT	SEGMENT
_this$ = -4						; size = 4
?FirstInorder@?$CUtlMap@PBDPAVIEntityFactory@@G@@QBEGXZ PROC ; CUtlMap<char const *,IEntityFactory *,unsigned short>::FirstInorder, COMDAT
; _this$ = ecx

; 126  : 	IndexType_t  FirstInorder() const						{ return m_Tree.FirstInorder(); }

	push	ebp
	mov	ebp, esp
	sub	esp, 68					; 00000044H
	push	ebx
	push	esi
	push	edi
	mov	DWORD PTR _this$[ebp], ecx
	mov	ecx, DWORD PTR _this$[ebp]
	call	?FirstInorder@?$CUtlRBTree@UNode_t@?$CUtlMap@PBDPAVIEntityFactory@@G@@GVCKeyLess@2@V?$CUtlMemory@U?$UtlRBTreeNode_t@UNode_t@?$CUtlMap@PBDPAVIEntityFactory@@G@@G@@G@@@@QBEGXZ ; CUtlRBTree<CUtlMap<char const *,IEntityFactory *,unsigned short>::Node_t,unsigned short,CUtlMap<char const *,IEntityFactory *,unsigned short>::CKeyLess,CUtlMemory<UtlRBTreeNode_t<CUtlMap<char const *,IEntityFactory *,unsigned short>::Node_t,unsigned short>,unsigned short> >::FirstInorder
	pop	edi
	pop	esi
	pop	ebx
	mov	esp, ebp
	pop	ebp
	ret	0
?FirstInorder@?$CUtlMap@PBDPAVIEntityFactory@@G@@QBEGXZ ENDP ; CUtlMap<char const *,IEntityFactory *,unsigned short>::FirstInorder
_TEXT	ENDS
; Function compile flags: /Odtp /ZI
; File d:\!diffusion 2020\source code 2022\client-server\game_shared\utlmap.h
;	COMDAT ?RemoveAll@?$CUtlMap@PBDPAVIEntityFactory@@G@@QAEXXZ
_TEXT	SEGMENT
_this$ = -4						; size = 4
?RemoveAll@?$CUtlMap@PBDPAVIEntityFactory@@G@@QAEXXZ PROC ; CUtlMap<char const *,IEntityFactory *,unsigned short>::RemoveAll, COMDAT
; _this$ = ecx

; 123  : 	void     RemoveAll( )									{ m_Tree.RemoveAll(); }

	push	ebp
	mov	ebp, esp
	sub	esp, 68					; 00000044H
	push	ebx
	push	esi
	push	edi
	mov	DWORD PTR _this$[ebp], ecx
	mov	ecx, DWORD PTR _this$[ebp]
	call	?RemoveAll@?$CUtlRBTree@UNode_t@?$CUtlMap@PBDPAVIEntityFactory@@G@@GVCKeyLess@2@V?$CUtlMemory@U?$UtlRBTreeNode_t@UNode_t@?$CUtlMap@PBDPAVIEntityFactory@@G@@G@@G@@@@QAEXXZ ; CUtlRBTree<CUtlMap<char const *,IEntityFactory *,unsigned short>::Node_t,unsigned short,CUtlMap<char const *,IEntityFactory *,unsigned short>::CKeyLess,CUtlMemory<UtlRBTreeNode_t<CUtlMap<char const *,IEntityFactory *,unsigned short>::Node_t,unsigned short>,unsigned short> >::RemoveAll
	pop	edi
	pop	esi
	pop	ebx
	mov	esp, ebp
	pop	ebp
	ret	0
?RemoveAll@?$CUtlMap@PBDPAVIEntityFactory@@G@@QAEXXZ ENDP ; CUtlMap<char const *,IEntityFactory *,unsigned short>::RemoveAll
_TEXT	ENDS
; Function compile flags: /Odtp /ZI
; File d:\!diffusion 2020\source code 2022\client-server\game_shared\utlmap.h
;	COMDAT ?Find@?$CUtlMap@PBDPAVIEntityFactory@@G@@QBEGABQBD@Z
_TEXT	SEGMENT
_dummyNode$ = -12					; size = 8
_this$ = -4						; size = 4
_key$ = 8						; size = 4
?Find@?$CUtlMap@PBDPAVIEntityFactory@@G@@QBEGABQBD@Z PROC ; CUtlMap<char const *,IEntityFactory *,unsigned short>::Find, COMDAT
; _this$ = ecx

; 108  : 	{

	push	ebp
	mov	ebp, esp
	sub	esp, 76					; 0000004cH
	push	ebx
	push	esi
	push	edi
	mov	DWORD PTR _this$[ebp], ecx

; 109  : 		Node_t dummyNode;

	lea	ecx, DWORD PTR _dummyNode$[ebp]
	call	??0Node_t@?$CUtlMap@PBDPAVIEntityFactory@@G@@QAE@XZ ; CUtlMap<char const *,IEntityFactory *,unsigned short>::Node_t::Node_t

; 110  : 		dummyNode.key = key;

	mov	eax, DWORD PTR _key$[ebp]
	mov	ecx, DWORD PTR [eax]
	mov	DWORD PTR _dummyNode$[ebp], ecx

; 111  : 		return m_Tree.Find( dummyNode );

	lea	eax, DWORD PTR _dummyNode$[ebp]
	push	eax
	mov	ecx, DWORD PTR _this$[ebp]
	call	?Find@?$CUtlRBTree@UNode_t@?$CUtlMap@PBDPAVIEntityFactory@@G@@GVCKeyLess@2@V?$CUtlMemory@U?$UtlRBTreeNode_t@UNode_t@?$CUtlMap@PBDPAVIEntityFactory@@G@@G@@G@@@@QBEGABUNode_t@?$CUtlMap@PBDPAVIEntityFactory@@G@@@Z ; CUtlRBTree<CUtlMap<char const *,IEntityFactory *,unsigned short>::Node_t,unsigned short,CUtlMap<char const *,IEntityFactory *,unsigned short>::CKeyLess,CUtlMemory<UtlRBTreeNode_t<CUtlMap<char const *,IEntityFactory *,unsigned short>::Node_t,unsigned short>,unsigned short> >::Find

; 112  : 	}

	pop	edi
	pop	esi
	pop	ebx
	mov	esp, ebp
	pop	ebp
	ret	4
?Find@?$CUtlMap@PBDPAVIEntityFactory@@G@@QBEGABQBD@Z ENDP ; CUtlMap<char const *,IEntityFactory *,unsigned short>::Find
_TEXT	ENDS
; Function compile flags: /Odtp /ZI
; File d:\!diffusion 2020\source code 2022\client-server\game_shared\utlmap.h
;	COMDAT ?Insert@?$CUtlMap@PBDPAVIEntityFactory@@G@@QAEGABQBDABQAVIEntityFactory@@@Z
_TEXT	SEGMENT
_node$ = -12						; size = 8
_this$ = -4						; size = 4
_key$ = 8						; size = 4
_insert$ = 12						; size = 4
?Insert@?$CUtlMap@PBDPAVIEntityFactory@@G@@QAEGABQBDABQAVIEntityFactory@@@Z PROC ; CUtlMap<char const *,IEntityFactory *,unsigned short>::Insert, COMDAT
; _this$ = ecx

; 92   : 	{

	push	ebp
	mov	ebp, esp
	sub	esp, 76					; 0000004cH
	push	ebx
	push	esi
	push	edi
	mov	DWORD PTR _this$[ebp], ecx

; 93   : 		Node_t node;

	lea	ecx, DWORD PTR _node$[ebp]
	call	??0Node_t@?$CUtlMap@PBDPAVIEntityFactory@@G@@QAE@XZ ; CUtlMap<char const *,IEntityFactory *,unsigned short>::Node_t::Node_t

; 94   : 		node.key = key;

	mov	eax, DWORD PTR _key$[ebp]
	mov	ecx, DWORD PTR [eax]
	mov	DWORD PTR _node$[ebp], ecx

; 95   : 		node.elem = insert;

	mov	eax, DWORD PTR _insert$[ebp]
	mov	ecx, DWORD PTR [eax]
	mov	DWORD PTR _node$[ebp+4], ecx

; 96   : 		return m_Tree.Insert( node );

	lea	eax, DWORD PTR _node$[ebp]
	push	eax
	mov	ecx, DWORD PTR _this$[ebp]
	call	?Insert@?$CUtlRBTree@UNode_t@?$CUtlMap@PBDPAVIEntityFactory@@G@@GVCKeyLess@2@V?$CUtlMemory@U?$UtlRBTreeNode_t@UNode_t@?$CUtlMap@PBDPAVIEntityFactory@@G@@G@@G@@@@QAEGABUNode_t@?$CUtlMap@PBDPAVIEntityFactory@@G@@@Z ; CUtlRBTree<CUtlMap<char const *,IEntityFactory *,unsigned short>::Node_t,unsigned short,CUtlMap<char const *,IEntityFactory *,unsigned short>::CKeyLess,CUtlMemory<UtlRBTreeNode_t<CUtlMap<char const *,IEntityFactory *,unsigned short>::Node_t,unsigned short>,unsigned short> >::Insert

; 97   : 	}

	pop	edi
	pop	esi
	pop	ebx
	mov	esp, ebp
	pop	ebp
	ret	8
?Insert@?$CUtlMap@PBDPAVIEntityFactory@@G@@QAEGABQBDABQAVIEntityFactory@@@Z ENDP ; CUtlMap<char const *,IEntityFactory *,unsigned short>::Insert
_TEXT	ENDS
; Function compile flags: /Odtp /ZI
; File d:\!diffusion 2020\source code 2022\client-server\game_shared\utlmap.h
;	COMDAT ?SetLessFunc@?$CUtlMap@PBDPAVIEntityFactory@@G@@QAEXP6A_NABQBD0@Z@Z
_TEXT	SEGMENT
$T1 = -72						; size = 4
_this$ = -4						; size = 4
_func$ = 8						; size = 4
?SetLessFunc@?$CUtlMap@PBDPAVIEntityFactory@@G@@QAEXP6A_NABQBD0@Z@Z PROC ; CUtlMap<char const *,IEntityFactory *,unsigned short>::SetLessFunc, COMDAT
; _this$ = ecx

; 86   : 	{

	push	ebp
	mov	ebp, esp
	sub	esp, 72					; 00000048H
	push	ebx
	push	esi
	push	edi
	mov	DWORD PTR _this$[ebp], ecx

; 87   : 		m_Tree.SetLessFunc( CKeyLess( func ) );

	mov	eax, DWORD PTR _func$[ebp]
	push	eax
	lea	ecx, DWORD PTR $T1[ebp]
	call	??0CKeyLess@?$CUtlMap@PBDPAVIEntityFactory@@G@@QAE@P6A_NABQBD0@Z@Z ; CUtlMap<char const *,IEntityFactory *,unsigned short>::CKeyLess::CKeyLess
	push	eax
	mov	ecx, DWORD PTR _this$[ebp]
	call	?SetLessFunc@?$CUtlRBTree@UNode_t@?$CUtlMap@PBDPAVIEntityFactory@@G@@GVCKeyLess@2@V?$CUtlMemory@U?$UtlRBTreeNode_t@UNode_t@?$CUtlMap@PBDPAVIEntityFactory@@G@@G@@G@@@@QAEXABVCKeyLess@?$CUtlMap@PBDPAVIEntityFactory@@G@@@Z ; CUtlRBTree<CUtlMap<char const *,IEntityFactory *,unsigned short>::Node_t,unsigned short,CUtlMap<char const *,IEntityFactory *,unsigned short>::CKeyLess,CUtlMemory<UtlRBTreeNode_t<CUtlMap<char const *,IEntityFactory *,unsigned short>::Node_t,unsigned short>,unsigned short> >::SetLessFunc

; 88   : 	}

	pop	edi
	pop	esi
	pop	ebx
	mov	esp, ebp
	pop	ebp
	ret	4
?SetLessFunc@?$CUtlMap@PBDPAVIEntityFactory@@G@@QAEXP6A_NABQBD0@Z@Z ENDP ; CUtlMap<char const *,IEntityFactory *,unsigned short>::SetLessFunc
_TEXT	ENDS
; Function compile flags: /Odtp /ZI
; File d:\!diffusion 2020\source code 2022\client-server\game_shared\utlmap.h
;	COMDAT ?InvalidIndex@?$CUtlMap@PBDPAVIEntityFactory@@G@@SAGXZ
_TEXT	SEGMENT
?InvalidIndex@?$CUtlMap@PBDPAVIEntityFactory@@G@@SAGXZ PROC ; CUtlMap<char const *,IEntityFactory *,unsigned short>::InvalidIndex, COMDAT

; 82   : 	static IndexType_t InvalidIndex()						{ return CTree::InvalidIndex(); }

	push	ebp
	mov	ebp, esp
	sub	esp, 64					; 00000040H
	push	ebx
	push	esi
	push	edi
	call	?InvalidIndex@?$CUtlRBTree@UNode_t@?$CUtlMap@PBDPAVIEntityFactory@@G@@GVCKeyLess@2@V?$CUtlMemory@U?$UtlRBTreeNode_t@UNode_t@?$CUtlMap@PBDPAVIEntityFactory@@G@@G@@G@@@@SAGXZ ; CUtlRBTree<CUtlMap<char const *,IEntityFactory *,unsigned short>::Node_t,unsigned short,CUtlMap<char const *,IEntityFactory *,unsigned short>::CKeyLess,CUtlMemory<UtlRBTreeNode_t<CUtlMap<char const *,IEntityFactory *,unsigned short>::Node_t,unsigned short>,unsigned short> >::InvalidIndex
	pop	edi
	pop	esi
	pop	ebx
	mov	esp, ebp
	pop	ebp
	ret	0
?InvalidIndex@?$CUtlMap@PBDPAVIEntityFactory@@G@@SAGXZ ENDP ; CUtlMap<char const *,IEntityFactory *,unsigned short>::InvalidIndex
_TEXT	ENDS
; Function compile flags: /Odtp /ZI
; File d:\!diffusion 2020\source code 2022\client-server\game_shared\utlmap.h
;	COMDAT ?Key@?$CUtlMap@PBDPAVIEntityFactory@@G@@QAEAAPBDG@Z
_TEXT	SEGMENT
_this$ = -4						; size = 4
_i$ = 8							; size = 2
?Key@?$CUtlMap@PBDPAVIEntityFactory@@G@@QAEAAPBDG@Z PROC ; CUtlMap<char const *,IEntityFactory *,unsigned short>::Key, COMDAT
; _this$ = ecx

; 65   : 	KeyType_t &			Key( IndexType_t i )				{ return m_Tree.Element( i ).key; }

	push	ebp
	mov	ebp, esp
	sub	esp, 68					; 00000044H
	push	ebx
	push	esi
	push	edi
	mov	DWORD PTR _this$[ebp], ecx
	movzx	eax, WORD PTR _i$[ebp]
	push	eax
	mov	ecx, DWORD PTR _this$[ebp]
	call	?Element@?$CUtlRBTree@UNode_t@?$CUtlMap@PBDPAVIEntityFactory@@G@@GVCKeyLess@2@V?$CUtlMemory@U?$UtlRBTreeNode_t@UNode_t@?$CUtlMap@PBDPAVIEntityFactory@@G@@G@@G@@@@QAEAAUNode_t@?$CUtlMap@PBDPAVIEntityFactory@@G@@G@Z ; CUtlRBTree<CUtlMap<char const *,IEntityFactory *,unsigned short>::Node_t,unsigned short,CUtlMap<char const *,IEntityFactory *,unsigned short>::CKeyLess,CUtlMemory<UtlRBTreeNode_t<CUtlMap<char const *,IEntityFactory *,unsigned short>::Node_t,unsigned short>,unsigned short> >::Element
	pop	edi
	pop	esi
	pop	ebx
	mov	esp, ebp
	pop	ebp
	ret	4
?Key@?$CUtlMap@PBDPAVIEntityFactory@@G@@QAEAAPBDG@Z ENDP ; CUtlMap<char const *,IEntityFactory *,unsigned short>::Key
_TEXT	ENDS
; Function compile flags: /Odtp /ZI
; File d:\!diffusion 2020\source code 2022\client-server\game_shared\utlmap.h
;	COMDAT ??A?$CUtlMap@PBDPAVIEntityFactory@@G@@QAEAAPAVIEntityFactory@@G@Z
_TEXT	SEGMENT
_this$ = -4						; size = 4
_i$ = 8							; size = 2
??A?$CUtlMap@PBDPAVIEntityFactory@@G@@QAEAAPAVIEntityFactory@@G@Z PROC ; CUtlMap<char const *,IEntityFactory *,unsigned short>::operator[], COMDAT
; _this$ = ecx

; 63   : 	ElemType_t &		operator[]( IndexType_t i )			{ return m_Tree.Element( i ).elem; }

	push	ebp
	mov	ebp, esp
	sub	esp, 68					; 00000044H
	push	ebx
	push	esi
	push	edi
	mov	DWORD PTR _this$[ebp], ecx
	movzx	eax, WORD PTR _i$[ebp]
	push	eax
	mov	ecx, DWORD PTR _this$[ebp]
	call	?Element@?$CUtlRBTree@UNode_t@?$CUtlMap@PBDPAVIEntityFactory@@G@@GVCKeyLess@2@V?$CUtlMemory@U?$UtlRBTreeNode_t@UNode_t@?$CUtlMap@PBDPAVIEntityFactory@@G@@G@@G@@@@QAEAAUNode_t@?$CUtlMap@PBDPAVIEntityFactory@@G@@G@Z ; CUtlRBTree<CUtlMap<char const *,IEntityFactory *,unsigned short>::Node_t,unsigned short,CUtlMap<char const *,IEntityFactory *,unsigned short>::CKeyLess,CUtlMemory<UtlRBTreeNode_t<CUtlMap<char const *,IEntityFactory *,unsigned short>::Node_t,unsigned short>,unsigned short> >::Element
	add	eax, 4
	pop	edi
	pop	esi
	pop	ebx
	mov	esp, ebp
	pop	ebp
	ret	4
??A?$CUtlMap@PBDPAVIEntityFactory@@G@@QAEAAPAVIEntityFactory@@G@Z ENDP ; CUtlMap<char const *,IEntityFactory *,unsigned short>::operator[]
_TEXT	ENDS
; Function compile flags: /Odtp /ZI
; File d:\!diffusion 2020\source code 2022\client-server\game_shared\utlmap.h
;	COMDAT ??0?$CUtlMap@PBDPAVIEntityFactory@@G@@QAE@HHP6A_NABQBD0@Z@Z
_TEXT	SEGMENT
$T1 = -72						; size = 4
_this$ = -4						; size = 4
_growSize$ = 8						; size = 4
_initSize$ = 12						; size = 4
_lessfunc$ = 16						; size = 4
??0?$CUtlMap@PBDPAVIEntityFactory@@G@@QAE@HHP6A_NABQBD0@Z@Z PROC ; CUtlMap<char const *,IEntityFactory *,unsigned short>::CUtlMap<char const *,IEntityFactory *,unsigned short>, COMDAT
; _this$ = ecx

; 50   : 	{

	push	ebp
	mov	ebp, esp
	sub	esp, 72					; 00000048H
	push	ebx
	push	esi
	push	edi
	mov	DWORD PTR _this$[ebp], ecx

; 49   : 	 : m_Tree( growSize, initSize, CKeyLess( lessfunc ) )

	mov	eax, DWORD PTR _lessfunc$[ebp]
	push	eax
	lea	ecx, DWORD PTR $T1[ebp]
	call	??0CKeyLess@?$CUtlMap@PBDPAVIEntityFactory@@G@@QAE@P6A_NABQBD0@Z@Z ; CUtlMap<char const *,IEntityFactory *,unsigned short>::CKeyLess::CKeyLess
	push	eax
	mov	ecx, DWORD PTR _initSize$[ebp]
	push	ecx
	mov	edx, DWORD PTR _growSize$[ebp]
	push	edx
	mov	ecx, DWORD PTR _this$[ebp]
	call	??0?$CUtlRBTree@UNode_t@?$CUtlMap@PBDPAVIEntityFactory@@G@@GVCKeyLess@2@V?$CUtlMemory@U?$UtlRBTreeNode_t@UNode_t@?$CUtlMap@PBDPAVIEntityFactory@@G@@G@@G@@@@QAE@HHABVCKeyLess@?$CUtlMap@PBDPAVIEntityFactory@@G@@@Z ; CUtlRBTree<CUtlMap<char const *,IEntityFactory *,unsigned short>::Node_t,unsigned short,CUtlMap<char const *,IEntityFactory *,unsigned short>::CKeyLess,CUtlMemory<UtlRBTreeNode_t<CUtlMap<char const *,IEntityFactory *,unsigned short>::Node_t,unsigned short>,unsigned short> >::CUtlRBTree<CUtlMap<char const *,IEntityFactory *,unsigned short>::Node_t,unsigned short,CUtlMap<char const *,IEntityFactory *,unsigned short>::CKeyLess,CUtlMemory<UtlRBTreeNode_t<CUtlMap<char const *,IEntityFactory *,unsigned short>::Node_t,unsigned short>,unsigned short> >

; 51   : 	}

	mov	eax, DWORD PTR _this$[ebp]
	pop	edi
	pop	esi
	pop	ebx
	mov	esp, ebp
	pop	ebp
	ret	12					; 0000000cH
??0?$CUtlMap@PBDPAVIEntityFactory@@G@@QAE@HHP6A_NABQBD0@Z@Z ENDP ; CUtlMap<char const *,IEntityFactory *,unsigned short>::CUtlMap<char const *,IEntityFactory *,unsigned short>
_TEXT	ENDS
; Function compile flags: /Odtp /ZI
; File d:\!diffusion 2020\source code 2022\client-server\game_shared\utldict.h
;	COMDAT ?Next@?$CUtlDict@PAVIEntityFactory@@G@@QBEGG@Z
_TEXT	SEGMENT
_this$ = -4						; size = 4
_i$ = 8							; size = 2
?Next@?$CUtlDict@PAVIEntityFactory@@G@@QBEGG@Z PROC	; CUtlDict<IEntityFactory *,unsigned short>::Next, COMDAT
; _this$ = ecx

; 307  : {

	push	ebp
	mov	ebp, esp
	sub	esp, 68					; 00000044H
	push	ebx
	push	esi
	push	edi
	mov	DWORD PTR _this$[ebp], ecx

; 308  : 	return m_Elements.NextInorder(i);

	movzx	eax, WORD PTR _i$[ebp]
	push	eax
	mov	ecx, DWORD PTR _this$[ebp]
	call	?NextInorder@?$CUtlMap@PBDPAVIEntityFactory@@G@@QBEGG@Z ; CUtlMap<char const *,IEntityFactory *,unsigned short>::NextInorder

; 309  : }

	pop	edi
	pop	esi
	pop	ebx
	mov	esp, ebp
	pop	ebp
	ret	4
?Next@?$CUtlDict@PAVIEntityFactory@@G@@QBEGG@Z ENDP	; CUtlDict<IEntityFactory *,unsigned short>::Next
_TEXT	ENDS
; Function compile flags: /Odtp /ZI
; File d:\!diffusion 2020\source code 2022\client-server\game_shared\utldict.h
;	COMDAT ?First@?$CUtlDict@PAVIEntityFactory@@G@@QBEGXZ
_TEXT	SEGMENT
_this$ = -4						; size = 4
?First@?$CUtlDict@PAVIEntityFactory@@G@@QBEGXZ PROC	; CUtlDict<IEntityFactory *,unsigned short>::First, COMDAT
; _this$ = ecx

; 301  : {

	push	ebp
	mov	ebp, esp
	sub	esp, 68					; 00000044H
	push	ebx
	push	esi
	push	edi
	mov	DWORD PTR _this$[ebp], ecx

; 302  : 	return m_Elements.FirstInorder();

	mov	ecx, DWORD PTR _this$[ebp]
	call	?FirstInorder@?$CUtlMap@PBDPAVIEntityFactory@@G@@QBEGXZ ; CUtlMap<char const *,IEntityFactory *,unsigned short>::FirstInorder

; 303  : }

	pop	edi
	pop	esi
	pop	ebx
	mov	esp, ebp
	pop	ebp
	ret	0
?First@?$CUtlDict@PAVIEntityFactory@@G@@QBEGXZ ENDP	; CUtlDict<IEntityFactory *,unsigned short>::First
_TEXT	ENDS
; Function compile flags: /Odtp /ZI
; File d:\!diffusion 2020\source code 2022\client-server\game_shared\utldict.h
;	COMDAT ?Purge@?$CUtlDict@PAVIEntityFactory@@G@@QAEXXZ
_TEXT	SEGMENT
_this$ = -4						; size = 4
?Purge@?$CUtlDict@PAVIEntityFactory@@G@@QAEXXZ PROC	; CUtlDict<IEntityFactory *,unsigned short>::Purge, COMDAT
; _this$ = ecx

; 246  : {

	push	ebp
	mov	ebp, esp
	sub	esp, 68					; 00000044H
	push	ebx
	push	esi
	push	edi
	mov	DWORD PTR _this$[ebp], ecx

; 247  : 	RemoveAll();

	mov	ecx, DWORD PTR _this$[ebp]
	call	?RemoveAll@?$CUtlDict@PAVIEntityFactory@@G@@QAEXXZ ; CUtlDict<IEntityFactory *,unsigned short>::RemoveAll

; 248  : }

	pop	edi
	pop	esi
	pop	ebx
	mov	esp, ebp
	pop	ebp
	ret	0
?Purge@?$CUtlDict@PAVIEntityFactory@@G@@QAEXXZ ENDP	; CUtlDict<IEntityFactory *,unsigned short>::Purge
_TEXT	ENDS
; Function compile flags: /Odtp /ZI
; File d:\!diffusion 2020\source code 2022\client-server\game_shared\utldict.h
;	COMDAT ?RemoveAll@?$CUtlDict@PAVIEntityFactory@@G@@QAEXXZ
_TEXT	SEGMENT
_index$ = -8						; size = 2
_this$ = -4						; size = 4
?RemoveAll@?$CUtlDict@PAVIEntityFactory@@G@@QAEXXZ PROC	; CUtlDict<IEntityFactory *,unsigned short>::RemoveAll, COMDAT
; _this$ = ecx

; 233  : {

	push	ebp
	mov	ebp, esp
	sub	esp, 72					; 00000048H
	push	ebx
	push	esi
	push	edi
	mov	DWORD PTR _this$[ebp], ecx

; 234  : 	typename DictElementMap_t::IndexType_t index = m_Elements.FirstInorder();

	mov	ecx, DWORD PTR _this$[ebp]
	call	?FirstInorder@?$CUtlMap@PBDPAVIEntityFactory@@G@@QBEGXZ ; CUtlMap<char const *,IEntityFactory *,unsigned short>::FirstInorder
	mov	WORD PTR _index$[ebp], ax
$LN2@RemoveAll:

; 235  : 	while ( index != m_Elements.InvalidIndex() )

	movzx	esi, WORD PTR _index$[ebp]
	call	?InvalidIndex@?$CUtlMap@PBDPAVIEntityFactory@@G@@SAGXZ ; CUtlMap<char const *,IEntityFactory *,unsigned short>::InvalidIndex
	movzx	eax, ax
	cmp	esi, eax
	je	SHORT $LN3@RemoveAll

; 236  : 	{
; 237  : 		free( (void *)m_Elements.Key( index ) );

	movzx	eax, WORD PTR _index$[ebp]
	push	eax
	mov	ecx, DWORD PTR _this$[ebp]
	call	?Key@?$CUtlMap@PBDPAVIEntityFactory@@G@@QAEAAPBDG@Z ; CUtlMap<char const *,IEntityFactory *,unsigned short>::Key
	mov	ecx, DWORD PTR [eax]
	push	ecx
	call	_free
	add	esp, 4

; 238  : 		index = m_Elements.NextInorder( index );

	movzx	eax, WORD PTR _index$[ebp]
	push	eax
	mov	ecx, DWORD PTR _this$[ebp]
	call	?NextInorder@?$CUtlMap@PBDPAVIEntityFactory@@G@@QBEGG@Z ; CUtlMap<char const *,IEntityFactory *,unsigned short>::NextInorder
	mov	WORD PTR _index$[ebp], ax

; 239  : 	}

	jmp	SHORT $LN2@RemoveAll
$LN3@RemoveAll:

; 240  : 
; 241  : 	m_Elements.RemoveAll();

	mov	ecx, DWORD PTR _this$[ebp]
	call	?RemoveAll@?$CUtlMap@PBDPAVIEntityFactory@@G@@QAEXXZ ; CUtlMap<char const *,IEntityFactory *,unsigned short>::RemoveAll

; 242  : }

	pop	edi
	pop	esi
	pop	ebx
	mov	esp, ebp
	pop	ebp
	ret	0
?RemoveAll@?$CUtlDict@PAVIEntityFactory@@G@@QAEXXZ ENDP	; CUtlDict<IEntityFactory *,unsigned short>::RemoveAll
_TEXT	ENDS
; Function compile flags: /Odtp /ZI
; File d:\!diffusion 2020\source code 2022\client-server\game_shared\utldict.h
;	COMDAT ?Find@?$CUtlDict@PAVIEntityFactory@@G@@QBEGPBD@Z
_TEXT	SEGMENT
_this$ = -4						; size = 4
_pName$ = 8						; size = 4
?Find@?$CUtlDict@PAVIEntityFactory@@G@@QBEGPBD@Z PROC	; CUtlDict<IEntityFactory *,unsigned short>::Find, COMDAT
; _this$ = ecx

; 288  : {

	push	ebp
	mov	ebp, esp
	sub	esp, 68					; 00000044H
	push	ebx
	push	esi
	push	edi
	mov	DWORD PTR _this$[ebp], ecx

; 289  : 	if ( pName )

	cmp	DWORD PTR _pName$[ebp], 0
	je	SHORT $LN2@Find

; 290  : 		return m_Elements.Find( pName );

	lea	eax, DWORD PTR _pName$[ebp]
	push	eax
	mov	ecx, DWORD PTR _this$[ebp]
	call	?Find@?$CUtlMap@PBDPAVIEntityFactory@@G@@QBEGABQBD@Z ; CUtlMap<char const *,IEntityFactory *,unsigned short>::Find
	jmp	SHORT $LN1@Find

; 291  : 	else

	jmp	SHORT $LN1@Find
$LN2@Find:

; 292  : 		return InvalidIndex();

	call	?InvalidIndex@?$CUtlDict@PAVIEntityFactory@@G@@SAGXZ ; CUtlDict<IEntityFactory *,unsigned short>::InvalidIndex
$LN1@Find:

; 293  : }

	pop	edi
	pop	esi
	pop	ebx
	mov	esp, ebp
	pop	ebp
	ret	4
?Find@?$CUtlDict@PAVIEntityFactory@@G@@QBEGPBD@Z ENDP	; CUtlDict<IEntityFactory *,unsigned short>::Find
_TEXT	ENDS
; Function compile flags: /Odtp /ZI
; File d:\!diffusion 2020\source code 2022\client-server\game_shared\utldict.h
;	COMDAT ?Insert@?$CUtlDict@PAVIEntityFactory@@G@@QAEGPBDABQAVIEntityFactory@@@Z
_TEXT	SEGMENT
$T1 = -72						; size = 4
_this$ = -4						; size = 4
_pName$ = 8						; size = 4
_element$ = 12						; size = 4
?Insert@?$CUtlDict@PAVIEntityFactory@@G@@QAEGPBDABQAVIEntityFactory@@@Z PROC ; CUtlDict<IEntityFactory *,unsigned short>::Insert, COMDAT
; _this$ = ecx

; 272  : {

	push	ebp
	mov	ebp, esp
	sub	esp, 72					; 00000048H
	push	ebx
	push	esi
	push	edi
	mov	DWORD PTR _this$[ebp], ecx

; 273  : 	return m_Elements.Insert( strdup( pName ), element );

	mov	eax, DWORD PTR _pName$[ebp]
	push	eax
	call	_strdup
	add	esp, 4
	mov	DWORD PTR $T1[ebp], eax
	mov	ecx, DWORD PTR _element$[ebp]
	push	ecx
	lea	edx, DWORD PTR $T1[ebp]
	push	edx
	mov	ecx, DWORD PTR _this$[ebp]
	call	?Insert@?$CUtlMap@PBDPAVIEntityFactory@@G@@QAEGABQBDABQAVIEntityFactory@@@Z ; CUtlMap<char const *,IEntityFactory *,unsigned short>::Insert

; 274  : }

	pop	edi
	pop	esi
	pop	ebx
	mov	esp, ebp
	pop	ebp
	ret	8
?Insert@?$CUtlDict@PAVIEntityFactory@@G@@QAEGPBDABQAVIEntityFactory@@@Z ENDP ; CUtlDict<IEntityFactory *,unsigned short>::Insert
_TEXT	ENDS
; Function compile flags: /Odtp /ZI
; File d:\!diffusion 2020\source code 2022\client-server\game_shared\utldict.h
;	COMDAT ?InvalidIndex@?$CUtlDict@PAVIEntityFactory@@G@@SAGXZ
_TEXT	SEGMENT
?InvalidIndex@?$CUtlDict@PAVIEntityFactory@@G@@SAGXZ PROC ; CUtlDict<IEntityFactory *,unsigned short>::InvalidIndex, COMDAT

; 199  : { 

	push	ebp
	mov	ebp, esp
	sub	esp, 64					; 00000040H
	push	ebx
	push	esi
	push	edi

; 200  : 	return DictElementMap_t::InvalidIndex(); 

	call	?InvalidIndex@?$CUtlMap@PBDPAVIEntityFactory@@G@@SAGXZ ; CUtlMap<char const *,IEntityFactory *,unsigned short>::InvalidIndex

; 201  : }

	pop	edi
	pop	esi
	pop	ebx
	mov	esp, ebp
	pop	ebp
	ret	0
?InvalidIndex@?$CUtlDict@PAVIEntityFactory@@G@@SAGXZ ENDP ; CUtlDict<IEntityFactory *,unsigned short>::InvalidIndex
_TEXT	ENDS
; Function compile flags: /Odtp /ZI
; File d:\!diffusion 2020\source code 2022\client-server\game_shared\utldict.h
;	COMDAT ?GetElementName@?$CUtlDict@PAVIEntityFactory@@G@@QAEPADG@Z
_TEXT	SEGMENT
_this$ = -4						; size = 4
_i$ = 8							; size = 2
?GetElementName@?$CUtlDict@PAVIEntityFactory@@G@@QAEPADG@Z PROC ; CUtlDict<IEntityFactory *,unsigned short>::GetElementName, COMDAT
; _this$ = ecx

; 142  : {

	push	ebp
	mov	ebp, esp
	sub	esp, 68					; 00000044H
	push	ebx
	push	esi
	push	edi
	mov	DWORD PTR _this$[ebp], ecx

; 143  : 	return (char *)m_Elements.Key( i );

	movzx	eax, WORD PTR _i$[ebp]
	push	eax
	mov	ecx, DWORD PTR _this$[ebp]
	call	?Key@?$CUtlMap@PBDPAVIEntityFactory@@G@@QAEAAPBDG@Z ; CUtlMap<char const *,IEntityFactory *,unsigned short>::Key
	mov	eax, DWORD PTR [eax]

; 144  : }

	pop	edi
	pop	esi
	pop	ebx
	mov	esp, ebp
	pop	ebp
	ret	4
?GetElementName@?$CUtlDict@PAVIEntityFactory@@G@@QAEPADG@Z ENDP ; CUtlDict<IEntityFactory *,unsigned short>::GetElementName
_TEXT	ENDS
; Function compile flags: /Odtp /ZI
; File d:\!diffusion 2020\source code 2022\client-server\game_shared\utldict.h
;	COMDAT ??A?$CUtlDict@PAVIEntityFactory@@G@@QAEAAPAVIEntityFactory@@G@Z
_TEXT	SEGMENT
_this$ = -4						; size = 4
_i$ = 8							; size = 2
??A?$CUtlDict@PAVIEntityFactory@@G@@QAEAAPAVIEntityFactory@@G@Z PROC ; CUtlDict<IEntityFactory *,unsigned short>::operator[], COMDAT
; _this$ = ecx

; 154  : { 

	push	ebp
	mov	ebp, esp
	sub	esp, 68					; 00000044H
	push	ebx
	push	esi
	push	edi
	mov	DWORD PTR _this$[ebp], ecx

; 155  : 	return Element(i); 

	movzx	eax, WORD PTR _i$[ebp]
	push	eax
	mov	ecx, DWORD PTR _this$[ebp]
	call	?Element@?$CUtlDict@PAVIEntityFactory@@G@@QAEAAPAVIEntityFactory@@G@Z ; CUtlDict<IEntityFactory *,unsigned short>::Element

; 156  : }

	pop	edi
	pop	esi
	pop	ebx
	mov	esp, ebp
	pop	ebp
	ret	4
??A?$CUtlDict@PAVIEntityFactory@@G@@QAEAAPAVIEntityFactory@@G@Z ENDP ; CUtlDict<IEntityFactory *,unsigned short>::operator[]
_TEXT	ENDS
; Function compile flags: /Odtp /ZI
; File d:\!diffusion 2020\source code 2022\client-server\game_shared\utldict.h
;	COMDAT ?Element@?$CUtlDict@PAVIEntityFactory@@G@@QAEAAPAVIEntityFactory@@G@Z
_TEXT	SEGMENT
_this$ = -4						; size = 4
_i$ = 8							; size = 2
?Element@?$CUtlDict@PAVIEntityFactory@@G@@QAEAAPAVIEntityFactory@@G@Z PROC ; CUtlDict<IEntityFactory *,unsigned short>::Element, COMDAT
; _this$ = ecx

; 127  : { 

	push	ebp
	mov	ebp, esp
	sub	esp, 68					; 00000044H
	push	ebx
	push	esi
	push	edi
	mov	DWORD PTR _this$[ebp], ecx

; 128  : 	return m_Elements[i]; 

	movzx	eax, WORD PTR _i$[ebp]
	push	eax
	mov	ecx, DWORD PTR _this$[ebp]
	call	??A?$CUtlMap@PBDPAVIEntityFactory@@G@@QAEAAPAVIEntityFactory@@G@Z ; CUtlMap<char const *,IEntityFactory *,unsigned short>::operator[]

; 129  : }

	pop	edi
	pop	esi
	pop	ebx
	mov	esp, ebp
	pop	ebp
	ret	4
?Element@?$CUtlDict@PAVIEntityFactory@@G@@QAEAAPAVIEntityFactory@@G@Z ENDP ; CUtlDict<IEntityFactory *,unsigned short>::Element
_TEXT	ENDS
; Function compile flags: /Odtp /ZI
; File d:\!diffusion 2020\source code 2022\client-server\game_shared\utldict.h
;	COMDAT ??1?$CUtlDict@PAVIEntityFactory@@G@@QAE@XZ
_TEXT	SEGMENT
_this$ = -16						; size = 4
__$EHRec$ = -12						; size = 12
??1?$CUtlDict@PAVIEntityFactory@@G@@QAE@XZ PROC		; CUtlDict<IEntityFactory *,unsigned short>::~CUtlDict<IEntityFactory *,unsigned short>, COMDAT
; _this$ = ecx

; 112  : {

	push	ebp
	mov	ebp, esp
	push	-1
	push	__ehhandler$??1?$CUtlDict@PAVIEntityFactory@@G@@QAE@XZ
	mov	eax, DWORD PTR fs:0
	push	eax
	sub	esp, 68					; 00000044H
	push	ebx
	push	esi
	push	edi
	mov	eax, DWORD PTR ___security_cookie
	xor	eax, ebp
	push	eax
	lea	eax, DWORD PTR __$EHRec$[ebp]
	mov	DWORD PTR fs:0, eax
	mov	DWORD PTR _this$[ebp], ecx

; 113  : 	Purge();

	mov	ecx, DWORD PTR _this$[ebp]
	call	?Purge@?$CUtlDict@PAVIEntityFactory@@G@@QAEXXZ ; CUtlDict<IEntityFactory *,unsigned short>::Purge

; 114  : }

	mov	ecx, DWORD PTR _this$[ebp]
	call	??1?$CUtlMap@PBDPAVIEntityFactory@@G@@QAE@XZ
	mov	ecx, DWORD PTR __$EHRec$[ebp]
	mov	DWORD PTR fs:0, ecx
	pop	ecx
	pop	edi
	pop	esi
	pop	ebx
	mov	esp, ebp
	pop	ebp
	ret	0
_TEXT	ENDS
;	COMDAT text$x
text$x	SEGMENT
__ehhandler$??1?$CUtlDict@PAVIEntityFactory@@G@@QAE@XZ:
	mov	edx, DWORD PTR [esp+8]
	lea	eax, DWORD PTR [edx+12]
	mov	ecx, DWORD PTR [edx-84]
	xor	ecx, eax
	call	@__security_check_cookie@4
	mov	eax, OFFSET __ehfuncinfo$??1?$CUtlDict@PAVIEntityFactory@@G@@QAE@XZ
	jmp	___CxxFrameHandler3
text$x	ENDS
??1?$CUtlDict@PAVIEntityFactory@@G@@QAE@XZ ENDP		; CUtlDict<IEntityFactory *,unsigned short>::~CUtlDict<IEntityFactory *,unsigned short>
; Function compile flags: /Odtp /ZI
; File d:\!diffusion 2020\source code 2022\client-server\game_shared\utldict.h
;	COMDAT ??0?$CUtlDict@PAVIEntityFactory@@G@@QAE@HHH@Z
_TEXT	SEGMENT
_this$ = -16						; size = 4
__$EHRec$ = -12						; size = 12
_compareType$ = 8					; size = 4
_growSize$ = 12						; size = 4
_initSize$ = 16						; size = 4
??0?$CUtlDict@PAVIEntityFactory@@G@@QAE@HHH@Z PROC	; CUtlDict<IEntityFactory *,unsigned short>::CUtlDict<IEntityFactory *,unsigned short>, COMDAT
; _this$ = ecx

; 95   : {

	push	ebp
	mov	ebp, esp
	push	-1
	push	__ehhandler$??0?$CUtlDict@PAVIEntityFactory@@G@@QAE@HHH@Z
	mov	eax, DWORD PTR fs:0
	push	eax
	sub	esp, 68					; 00000044H
	push	ebx
	push	esi
	push	edi
	mov	eax, DWORD PTR ___security_cookie
	xor	eax, ebp
	push	eax
	lea	eax, DWORD PTR __$EHRec$[ebp]
	mov	DWORD PTR fs:0, eax
	mov	DWORD PTR _this$[ebp], ecx

; 94   : CUtlDict<T, I>::CUtlDict( int compareType, int growSize, int initSize ) : m_Elements( growSize, initSize )

	push	0
	mov	eax, DWORD PTR _initSize$[ebp]
	push	eax
	mov	ecx, DWORD PTR _growSize$[ebp]
	push	ecx
	mov	ecx, DWORD PTR _this$[ebp]
	call	??0?$CUtlMap@PBDPAVIEntityFactory@@G@@QAE@HHP6A_NABQBD0@Z@Z ; CUtlMap<char const *,IEntityFactory *,unsigned short>::CUtlMap<char const *,IEntityFactory *,unsigned short>
	mov	DWORD PTR __$EHRec$[ebp+8], 0

; 96   : 	if ( compareType == k_eDictCompareTypeFilenames )

	cmp	DWORD PTR _compareType$[ebp], 2
	jne	SHORT $LN2@CUtlDict

; 97   : 	{
; 98   : 		m_Elements.SetLessFunc( CaselessStringLessThanIgnoreSlashes );

	push	OFFSET ?CaselessStringLessThanIgnoreSlashes@@YA_NABQBD0@Z ; CaselessStringLessThanIgnoreSlashes
	mov	ecx, DWORD PTR _this$[ebp]
	call	?SetLessFunc@?$CUtlMap@PBDPAVIEntityFactory@@G@@QAEXP6A_NABQBD0@Z@Z ; CUtlMap<char const *,IEntityFactory *,unsigned short>::SetLessFunc
	jmp	SHORT $LN1@CUtlDict
$LN2@CUtlDict:

; 99   : 	}
; 100  : 	else if ( compareType == k_eDictCompareTypeCaseInsensitive )

	cmp	DWORD PTR _compareType$[ebp], 1
	jne	SHORT $LN4@CUtlDict

; 101  : 	{
; 102  : 		m_Elements.SetLessFunc( CaselessStringLessThan );

	push	OFFSET ?CaselessStringLessThan@@YA_NABQBD0@Z ; CaselessStringLessThan
	mov	ecx, DWORD PTR _this$[ebp]
	call	?SetLessFunc@?$CUtlMap@PBDPAVIEntityFactory@@G@@QAEXP6A_NABQBD0@Z@Z ; CUtlMap<char const *,IEntityFactory *,unsigned short>::SetLessFunc

; 103  : 	}
; 104  : 	else

	jmp	SHORT $LN1@CUtlDict
$LN4@CUtlDict:

; 105  : 	{
; 106  : 		m_Elements.SetLessFunc( StringLessThan );

	push	OFFSET ?StringLessThan@@YA_NABQBD0@Z	; StringLessThan
	mov	ecx, DWORD PTR _this$[ebp]
	call	?SetLessFunc@?$CUtlMap@PBDPAVIEntityFactory@@G@@QAEXP6A_NABQBD0@Z@Z ; CUtlMap<char const *,IEntityFactory *,unsigned short>::SetLessFunc
$LN1@CUtlDict:

; 107  : 	}
; 108  : }

	mov	DWORD PTR __$EHRec$[ebp+8], -1
	mov	eax, DWORD PTR _this$[ebp]
	mov	ecx, DWORD PTR __$EHRec$[ebp]
	mov	DWORD PTR fs:0, ecx
	pop	ecx
	pop	edi
	pop	esi
	pop	ebx
	mov	esp, ebp
	pop	ebp
	ret	12					; 0000000cH
_TEXT	ENDS
;	COMDAT text$x
text$x	SEGMENT
__unwindfunclet$??0?$CUtlDict@PAVIEntityFactory@@G@@QAE@HHH@Z$0:
	mov	ecx, DWORD PTR _this$[ebp]
	jmp	??1?$CUtlMap@PBDPAVIEntityFactory@@G@@QAE@XZ
__ehhandler$??0?$CUtlDict@PAVIEntityFactory@@G@@QAE@HHH@Z:
	mov	edx, DWORD PTR [esp+8]
	lea	eax, DWORD PTR [edx+12]
	mov	ecx, DWORD PTR [edx-84]
	xor	ecx, eax
	call	@__security_check_cookie@4
	mov	eax, OFFSET __ehfuncinfo$??0?$CUtlDict@PAVIEntityFactory@@G@@QAE@HHH@Z
	jmp	___CxxFrameHandler3
text$x	ENDS
??0?$CUtlDict@PAVIEntityFactory@@G@@QAE@HHH@Z ENDP	; CUtlDict<IEntityFactory *,unsigned short>::CUtlDict<IEntityFactory *,unsigned short>
; Function compile flags: /Odtp /ZI
; File d:\!diffusion 2020\source code 2022\client-server\server\util.cpp
;	COMDAT ?FindFactory@CEntityFactoryDictionary@@EAEPAVIEntityFactory@@PBD@Z
_TEXT	SEGMENT
_nIndex$ = -8						; size = 2
_this$ = -4						; size = 4
_pClassName$ = 8					; size = 4
?FindFactory@CEntityFactoryDictionary@@EAEPAVIEntityFactory@@PBD@Z PROC ; CEntityFactoryDictionary::FindFactory, COMDAT
; _this$ = ecx

; 78   : {

	push	ebp
	mov	ebp, esp
	sub	esp, 72					; 00000048H
	push	ebx
	push	esi
	push	edi
	mov	DWORD PTR _this$[ebp], ecx

; 79   : 	unsigned short nIndex = m_Factories.Find( pClassName );

	mov	eax, DWORD PTR _pClassName$[ebp]
	push	eax
	mov	ecx, DWORD PTR _this$[ebp]
	add	ecx, 4
	call	?Find@?$CUtlDict@PAVIEntityFactory@@G@@QBEGPBD@Z ; CUtlDict<IEntityFactory *,unsigned short>::Find
	mov	WORD PTR _nIndex$[ebp], ax

; 80   : 	if ( nIndex == m_Factories.InvalidIndex() )

	movzx	esi, WORD PTR _nIndex$[ebp]
	call	?InvalidIndex@?$CUtlDict@PAVIEntityFactory@@G@@SAGXZ ; CUtlDict<IEntityFactory *,unsigned short>::InvalidIndex
	movzx	eax, ax
	cmp	esi, eax
	jne	SHORT $LN2@FindFactor

; 81   : 		return NULL;

	xor	eax, eax
	jmp	SHORT $LN1@FindFactor
$LN2@FindFactor:

; 82   : 	return m_Factories[nIndex];

	movzx	eax, WORD PTR _nIndex$[ebp]
	push	eax
	mov	ecx, DWORD PTR _this$[ebp]
	add	ecx, 4
	call	??A?$CUtlDict@PAVIEntityFactory@@G@@QAEAAPAVIEntityFactory@@G@Z ; CUtlDict<IEntityFactory *,unsigned short>::operator[]
	mov	eax, DWORD PTR [eax]
$LN1@FindFactor:

; 83   : }

	pop	edi
	pop	esi
	pop	ebx
	mov	esp, ebp
	pop	ebp
	ret	4
?FindFactory@CEntityFactoryDictionary@@EAEPAVIEntityFactory@@PBD@Z ENDP ; CEntityFactoryDictionary::FindFactory
_TEXT	ENDS
; Function compile flags: /Odtp /ZI
; File d:\!diffusion 2020\source code 2022\client-server\server\util.cpp
;	COMDAT ?ReportEntitySizes@CEntityFactoryDictionary@@QAEXXZ
_TEXT	SEGMENT
tv82 = -76						; size = 4
_i$1 = -8						; size = 4
_this$ = -4						; size = 4
?ReportEntitySizes@CEntityFactoryDictionary@@QAEXXZ PROC ; CEntityFactoryDictionary::ReportEntitySizes, COMDAT
; _this$ = ecx

; 140  : {

	push	ebp
	mov	ebp, esp
	sub	esp, 76					; 0000004cH
	push	ebx
	push	esi
	push	edi
	mov	DWORD PTR _this$[ebp], ecx

; 141  : 	for( int i = m_Factories.First(); i != m_Factories.InvalidIndex(); i = m_Factories.Next( i ))

	mov	ecx, DWORD PTR _this$[ebp]
	add	ecx, 4
	call	?First@?$CUtlDict@PAVIEntityFactory@@G@@QBEGXZ ; CUtlDict<IEntityFactory *,unsigned short>::First
	movzx	eax, ax
	mov	DWORD PTR _i$1[ebp], eax
	jmp	SHORT $LN4@ReportEnti
$LN2@ReportEnti:
	movzx	eax, WORD PTR _i$1[ebp]
	push	eax
	mov	ecx, DWORD PTR _this$[ebp]
	add	ecx, 4
	call	?Next@?$CUtlDict@PAVIEntityFactory@@G@@QBEGG@Z ; CUtlDict<IEntityFactory *,unsigned short>::Next
	movzx	ecx, ax
	mov	DWORD PTR _i$1[ebp], ecx
$LN4@ReportEnti:
	call	?InvalidIndex@?$CUtlDict@PAVIEntityFactory@@G@@SAGXZ ; CUtlDict<IEntityFactory *,unsigned short>::InvalidIndex
	movzx	eax, ax
	cmp	DWORD PTR _i$1[ebp], eax
	je	SHORT $LN1@ReportEnti

; 142  : 	{
; 143  : 		ALERT( at_console, " %s: %d bytes\n", m_Factories.GetElementName( i ), m_Factories[i]->GetEntitySize());

	movzx	eax, WORD PTR _i$1[ebp]
	push	eax
	mov	ecx, DWORD PTR _this$[ebp]
	add	ecx, 4
	call	??A?$CUtlDict@PAVIEntityFactory@@G@@QAEAAPAVIEntityFactory@@G@Z ; CUtlDict<IEntityFactory *,unsigned short>::operator[]
	mov	ecx, DWORD PTR [eax]
	mov	DWORD PTR tv82[ebp], ecx
	mov	edx, DWORD PTR tv82[ebp]
	mov	eax, DWORD PTR [edx]
	mov	ecx, DWORD PTR tv82[ebp]
	mov	edx, DWORD PTR [eax+8]
	call	edx
	push	eax
	movzx	eax, WORD PTR _i$1[ebp]
	push	eax
	mov	ecx, DWORD PTR _this$[ebp]
	add	ecx, 4
	call	?GetElementName@?$CUtlDict@PAVIEntityFactory@@G@@QAEPADG@Z ; CUtlDict<IEntityFactory *,unsigned short>::GetElementName
	push	eax
	push	OFFSET ??_C@_0P@FLOJJBNJ@?5?$CFs?3?5?$CFd?5bytes?6?$AA@
	push	1
	call	DWORD PTR ?g_engfuncs@@3Uenginefuncs_s@@A+244
	add	esp, 16					; 00000010H

; 144  : 	}

	jmp	SHORT $LN2@ReportEnti
$LN1@ReportEnti:

; 145  : }

	pop	edi
	pop	esi
	pop	ebx
	mov	esp, ebp
	pop	ebp
	ret	0
?ReportEntitySizes@CEntityFactoryDictionary@@QAEXXZ ENDP ; CEntityFactoryDictionary::ReportEntitySizes
_TEXT	ENDS
; Function compile flags: /Odtp /ZI
; File d:\!diffusion 2020\source code 2022\client-server\server\util.cpp
;	COMDAT ?GetCannonicalName@CEntityFactoryDictionary@@UAEPBDPBD@Z
_TEXT	SEGMENT
_this$ = -4						; size = 4
_pClassName$ = 8					; size = 4
?GetCannonicalName@CEntityFactoryDictionary@@UAEPBDPBD@Z PROC ; CEntityFactoryDictionary::GetCannonicalName, COMDAT
; _this$ = ecx

; 116  : {

	push	ebp
	mov	ebp, esp
	sub	esp, 68					; 00000044H
	push	ebx
	push	esi
	push	edi
	mov	DWORD PTR _this$[ebp], ecx

; 117  : 	return m_Factories.GetElementName( m_Factories.Find( pClassName ) );

	mov	eax, DWORD PTR _pClassName$[ebp]
	push	eax
	mov	ecx, DWORD PTR _this$[ebp]
	add	ecx, 4
	call	?Find@?$CUtlDict@PAVIEntityFactory@@G@@QBEGPBD@Z ; CUtlDict<IEntityFactory *,unsigned short>::Find
	movzx	ecx, ax
	push	ecx
	mov	ecx, DWORD PTR _this$[ebp]
	add	ecx, 4
	call	?GetElementName@?$CUtlDict@PAVIEntityFactory@@G@@QAEPADG@Z ; CUtlDict<IEntityFactory *,unsigned short>::GetElementName

; 118  : }

	pop	edi
	pop	esi
	pop	ebx
	mov	esp, ebp
	pop	ebp
	ret	4
?GetCannonicalName@CEntityFactoryDictionary@@UAEPBDPBD@Z ENDP ; CEntityFactoryDictionary::GetCannonicalName
_TEXT	ENDS
; Function compile flags: /Odtp /ZI
; File d:\!diffusion 2020\source code 2022\client-server\server\util.cpp
;	COMDAT ?Destroy@CEntityFactoryDictionary@@UAEXPBDPAVCBaseEntity@@@Z
_TEXT	SEGMENT
_pFactory$ = -8						; size = 4
_this$ = -4						; size = 4
_pClassName$ = 8					; size = 4
_pEntity$ = 12						; size = 4
?Destroy@CEntityFactoryDictionary@@UAEXPBDPAVCBaseEntity@@@Z PROC ; CEntityFactoryDictionary::Destroy, COMDAT
; _this$ = ecx

; 124  : {

	push	ebp
	mov	ebp, esp
	sub	esp, 72					; 00000048H
	push	ebx
	push	esi
	push	edi
	mov	DWORD PTR _this$[ebp], ecx

; 125  : 	IEntityFactory *pFactory = FindFactory( pClassName );

	mov	eax, DWORD PTR _pClassName$[ebp]
	push	eax
	mov	ecx, DWORD PTR _this$[ebp]
	mov	edx, DWORD PTR [ecx]
	mov	ecx, DWORD PTR _this$[ebp]
	mov	eax, DWORD PTR [edx+12]
	call	eax
	mov	DWORD PTR _pFactory$[ebp], eax

; 126  : 
; 127  : 	if( !pFactory )

	cmp	DWORD PTR _pFactory$[ebp], 0
	jne	SHORT $LN2@Destroy

; 128  : 	{
; 129  : 		ALERT( at_warning, "Attempted to destroy unknown entity type %s!\n", pClassName );

	mov	eax, DWORD PTR _pClassName$[ebp]
	push	eax
	push	OFFSET ??_C@_0CO@BCJHKPIF@Attempted?5to?5destroy?5unknown?5ent@
	push	3
	call	DWORD PTR ?g_engfuncs@@3Uenginefuncs_s@@A+244
	add	esp, 12					; 0000000cH

; 130  : 		return;

	jmp	SHORT $LN1@Destroy
$LN2@Destroy:

; 131  : 	}
; 132  : 
; 133  : 	pFactory->Destroy( pEntity );

	mov	eax, DWORD PTR _pEntity$[ebp]
	push	eax
	mov	ecx, DWORD PTR _pFactory$[ebp]
	mov	edx, DWORD PTR [ecx]
	mov	ecx, DWORD PTR _pFactory$[ebp]
	mov	eax, DWORD PTR [edx+4]
	call	eax
$LN1@Destroy:

; 134  : }

	pop	edi
	pop	esi
	pop	ebx
	mov	esp, ebp
	pop	ebp
	ret	8
?Destroy@CEntityFactoryDictionary@@UAEXPBDPAVCBaseEntity@@@Z ENDP ; CEntityFactoryDictionary::Destroy
_TEXT	ENDS
; Function compile flags: /Odtp /ZI
; File d:\!diffusion 2020\source code 2022\client-server\server\util.cpp
;	COMDAT ?Create@CEntityFactoryDictionary@@UAEPAVCBaseEntity@@PBDPAUentvars_s@@@Z
_TEXT	SEGMENT
_pFactory$ = -8						; size = 4
_this$ = -4						; size = 4
_pClassName$ = 8					; size = 4
_pev$ = 12						; size = 4
?Create@CEntityFactoryDictionary@@UAEPAVCBaseEntity@@PBDPAUentvars_s@@@Z PROC ; CEntityFactoryDictionary::Create, COMDAT
; _this$ = ecx

; 100  : {

	push	ebp
	mov	ebp, esp
	sub	esp, 72					; 00000048H
	push	ebx
	push	esi
	push	edi
	mov	DWORD PTR _this$[ebp], ecx

; 101  : 	IEntityFactory *pFactory = FindFactory( pClassName );

	mov	eax, DWORD PTR _pClassName$[ebp]
	push	eax
	mov	ecx, DWORD PTR _this$[ebp]
	mov	edx, DWORD PTR [ecx]
	mov	ecx, DWORD PTR _this$[ebp]
	mov	eax, DWORD PTR [edx+12]
	call	eax
	mov	DWORD PTR _pFactory$[ebp], eax

; 102  : 
; 103  : 	if( !pFactory )

	cmp	DWORD PTR _pFactory$[ebp], 0
	jne	SHORT $LN2@Create

; 104  : 	{
; 105  : 		ALERT( at_warning, "Attempted to create unknown entity type %s!\n", pClassName );

	mov	eax, DWORD PTR _pClassName$[ebp]
	push	eax
	push	OFFSET ??_C@_0CN@EDMNCIHJ@Attempted?5to?5create?5unknown?5enti@
	push	3
	call	DWORD PTR ?g_engfuncs@@3Uenginefuncs_s@@A+244
	add	esp, 12					; 0000000cH

; 106  : 		return NULL;

	xor	eax, eax
	jmp	SHORT $LN1@Create
$LN2@Create:

; 107  : 	}
; 108  : 
; 109  : 	return pFactory->Create( pClassName, pev );

	mov	eax, DWORD PTR _pev$[ebp]
	push	eax
	mov	ecx, DWORD PTR _pClassName$[ebp]
	push	ecx
	mov	edx, DWORD PTR _pFactory$[ebp]
	mov	eax, DWORD PTR [edx]
	mov	ecx, DWORD PTR _pFactory$[ebp]
	mov	edx, DWORD PTR [eax]
	call	edx
$LN1@Create:

; 110  : }

	pop	edi
	pop	esi
	pop	ebx
	mov	esp, ebp
	pop	ebp
	ret	8
?Create@CEntityFactoryDictionary@@UAEPAVCBaseEntity@@PBDPAUentvars_s@@@Z ENDP ; CEntityFactoryDictionary::Create
_TEXT	ENDS
; Function compile flags: /Odtp /ZI
; File d:\!diffusion 2020\source code 2022\client-server\server\util.cpp
;	COMDAT ?InstallFactory@CEntityFactoryDictionary@@UAEXPAVIEntityFactory@@PBD@Z
_TEXT	SEGMENT
_this$ = -4						; size = 4
_pFactory$ = 8						; size = 4
_pClassName$ = 12					; size = 4
?InstallFactory@CEntityFactoryDictionary@@UAEXPAVIEntityFactory@@PBD@Z PROC ; CEntityFactoryDictionary::InstallFactory, COMDAT
; _this$ = ecx

; 90   : {

	push	ebp
	mov	ebp, esp
	sub	esp, 68					; 00000044H
	push	ebx
	push	esi
	push	edi
	mov	DWORD PTR _this$[ebp], ecx

; 91   : 	assert( FindFactory( pClassName ) == NULL );

	mov	eax, DWORD PTR _pClassName$[ebp]
	push	eax
	mov	ecx, DWORD PTR _this$[ebp]
	mov	edx, DWORD PTR [ecx]
	mov	ecx, DWORD PTR _this$[ebp]
	mov	eax, DWORD PTR [edx+12]
	call	eax
	test	eax, eax
	je	SHORT $LN3@InstallFac
	mov	ecx, DWORD PTR ?__LINE__Var@?0??InstallFactory@CEntityFactoryDictionary@@UAEXPAVIEntityFactory@@PBD@Z@4JA
	add	ecx, 1
	push	ecx
	push	OFFSET ??_C@_1IE@NGBBGFHJ@?$AAd?$AA?3?$AA?2?$AA?$CB?$AAd?$AAi?$AAf?$AAf?$AAu?$AAs?$AAi?$AAo?$AAn?$AA?5?$AA2?$AA0?$AA2?$AA0?$AA?2?$AAs?$AAo?$AAu?$AAr?$AAc?$AAe?$AA?5?$AAc?$AAo?$AAd?$AAe?$AA?5?$AA2@
	push	OFFSET ??_C@_1EE@DJKMNDPK@?$AAF?$AAi?$AAn?$AAd?$AAF?$AAa?$AAc?$AAt?$AAo?$AAr?$AAy?$AA?$CI?$AA?5?$AAp?$AAC?$AAl?$AAa?$AAs?$AAs?$AAN?$AAa?$AAm?$AAe?$AA?5?$AA?$CJ?$AA?5?$AA?$DN?$AA?$DN?$AA?5?$AAN?$AAU?$AAL@
	call	__wassert
	add	esp, 12					; 0000000cH
$LN3@InstallFac:

; 92   : 	m_Factories.Insert( pClassName, pFactory );

	lea	eax, DWORD PTR _pFactory$[ebp]
	push	eax
	mov	ecx, DWORD PTR _pClassName$[ebp]
	push	ecx
	mov	ecx, DWORD PTR _this$[ebp]
	add	ecx, 4
	call	?Insert@?$CUtlDict@PAVIEntityFactory@@G@@QAEGPBDABQAVIEntityFactory@@@Z ; CUtlDict<IEntityFactory *,unsigned short>::Insert

; 93   : }

	pop	edi
	pop	esi
	pop	ebx
	mov	esp, ebp
	pop	ebp
	ret	8
?InstallFactory@CEntityFactoryDictionary@@UAEXPAVIEntityFactory@@PBD@Z ENDP ; CEntityFactoryDictionary::InstallFactory
_TEXT	ENDS
; Function compile flags: /Odtp /ZI
; File d:\!diffusion 2020\source code 2022\client-server\server\util.cpp
;	COMDAT ??0CEntityFactoryDictionary@@QAE@XZ
_TEXT	SEGMENT
_this$ = -4						; size = 4
??0CEntityFactoryDictionary@@QAE@XZ PROC		; CEntityFactoryDictionary::CEntityFactoryDictionary, COMDAT
; _this$ = ecx

; 71   : {

	push	ebp
	mov	ebp, esp
	sub	esp, 68					; 00000044H
	push	ebx
	push	esi
	push	edi
	mov	DWORD PTR _this$[ebp], ecx
	mov	ecx, DWORD PTR _this$[ebp]
	call	??0IEntityFactoryDictionary@@QAE@XZ
	mov	eax, DWORD PTR _this$[ebp]
	mov	DWORD PTR [eax], OFFSET ??_7CEntityFactoryDictionary@@6B@

; 70   : CEntityFactoryDictionary::CEntityFactoryDictionary() : m_Factories( true, 0, 128 )

	push	128					; 00000080H
	push	0
	push	1
	mov	ecx, DWORD PTR _this$[ebp]
	add	ecx, 4
	call	??0?$CUtlDict@PAVIEntityFactory@@G@@QAE@HHH@Z ; CUtlDict<IEntityFactory *,unsigned short>::CUtlDict<IEntityFactory *,unsigned short>

; 72   : }

	mov	eax, DWORD PTR _this$[ebp]
	pop	edi
	pop	esi
	pop	ebx
	mov	esp, ebp
	pop	ebp
	ret	0
??0CEntityFactoryDictionary@@QAE@XZ ENDP		; CEntityFactoryDictionary::CEntityFactoryDictionary
_TEXT	ENDS
; Function compile flags: /Odtp /ZI
; File d:\!diffusion 2020\source code 2022\client-server\server\cbase.h
;	COMDAT ?entindex@CBaseEntity@@QAEHXZ
_TEXT	SEGMENT
_this$ = -4						; size = 4
?entindex@CBaseEntity@@QAEHXZ PROC			; CBaseEntity::entindex, COMDAT
; _this$ = ecx

; 743  : 	int entindex( ) { return ENTINDEX( edict() ); };

	push	ebp
	mov	ebp, esp
	sub	esp, 68					; 00000044H
	push	ebx
	push	esi
	push	edi
	mov	DWORD PTR _this$[ebp], ecx
	mov	ecx, DWORD PTR _this$[ebp]
	call	?edict@CBaseEntity@@QAEPAUedict_s@@XZ	; CBaseEntity::edict
	push	eax
	call	?ENTINDEX@@YAHPAUedict_s@@@Z		; ENTINDEX
	add	esp, 4
	pop	edi
	pop	esi
	pop	ebx
	mov	esp, ebp
	pop	ebp
	ret	0
?entindex@CBaseEntity@@QAEHXZ ENDP			; CBaseEntity::entindex
_TEXT	ENDS
; Function compile flags: /Odtp /ZI
; File d:\!diffusion 2020\source code 2022\client-server\server\cbase.h
;	COMDAT ?eoffset@CBaseEntity@@QAEHXZ
_TEXT	SEGMENT
_this$ = -4						; size = 4
?eoffset@CBaseEntity@@QAEHXZ PROC			; CBaseEntity::eoffset, COMDAT
; _this$ = ecx

; 742  : 	EOFFSET eoffset( ) { return OFFSET( pev ); };

	push	ebp
	mov	ebp, esp
	sub	esp, 68					; 00000044H
	push	ebx
	push	esi
	push	edi
	mov	DWORD PTR _this$[ebp], ecx
	mov	eax, DWORD PTR _this$[ebp]
	mov	ecx, DWORD PTR [eax+4]
	push	ecx
	call	?OFFSET@@YAHPAUentvars_s@@@Z		; OFFSET
	add	esp, 4
	pop	edi
	pop	esi
	pop	ebx
	mov	esp, ebp
	pop	ebp
	ret	0
?eoffset@CBaseEntity@@QAEHXZ ENDP			; CBaseEntity::eoffset
_TEXT	ENDS
; Function compile flags: /Odtp /ZI
; File d:\!diffusion 2020\source code 2022\client-server\server\cbase.h
;	COMDAT ?edict@CBaseEntity@@QAEPAUedict_s@@XZ
_TEXT	SEGMENT
_this$ = -4						; size = 4
?edict@CBaseEntity@@QAEPAUedict_s@@XZ PROC		; CBaseEntity::edict, COMDAT
; _this$ = ecx

; 741  : 	edict_t *edict() { return ENT( pev ); };

	push	ebp
	mov	ebp, esp
	sub	esp, 68					; 00000044H
	push	ebx
	push	esi
	push	edi
	mov	DWORD PTR _this$[ebp], ecx
	mov	eax, DWORD PTR _this$[ebp]
	mov	ecx, DWORD PTR [eax+4]
	push	ecx
	call	?ENT@@YAPAUedict_s@@PBUentvars_s@@@Z	; ENT
	add	esp, 4
	pop	edi
	pop	esi
	pop	ebx
	mov	esp, ebp
	pop	ebp
	ret	0
?edict@CBaseEntity@@QAEPAUedict_s@@XZ ENDP		; CBaseEntity::edict
_TEXT	ENDS
; Function compile flags: /Odtp /ZI
; File d:\!diffusion 2020\source code 2022\client-server\server\cbase.h
;	COMDAT ?RestoreSolid@CBaseEntity@@QAEXXZ
_TEXT	SEGMENT
_this$ = -4						; size = 4
?RestoreSolid@CBaseEntity@@QAEXXZ PROC			; CBaseEntity::RestoreSolid, COMDAT
; _this$ = ecx

; 678  : 	{

	push	ebp
	mov	ebp, esp
	sub	esp, 68					; 00000044H
	push	ebx
	push	esi
	push	edi
	mov	DWORD PTR _this$[ebp], ecx

; 679  : 		if( m_iOldSolid != SOLID_NOT && pev->solid == SOLID_NOT )

	mov	eax, DWORD PTR _this$[ebp]
	cmp	DWORD PTR [eax+16], 0
	je	SHORT $LN1@RestoreSol
	mov	eax, DWORD PTR _this$[ebp]
	mov	ecx, DWORD PTR [eax+4]
	cmp	DWORD PTR [ecx+268], 0
	jne	SHORT $LN1@RestoreSol

; 680  : 		{
; 681  : 			WorldPhysic->EnableCollision( this, TRUE );

	push	1
	mov	eax, DWORD PTR _this$[ebp]
	push	eax
	mov	ecx, DWORD PTR ?WorldPhysic@@3PAVIPhysicLayer@@A ; WorldPhysic
	mov	edx, DWORD PTR [ecx]
	mov	ecx, DWORD PTR ?WorldPhysic@@3PAVIPhysicLayer@@A ; WorldPhysic
	mov	eax, DWORD PTR [edx+88]
	call	eax

; 682  : 			pev->solid = m_iOldSolid;

	mov	eax, DWORD PTR _this$[ebp]
	mov	ecx, DWORD PTR [eax+4]
	mov	edx, DWORD PTR _this$[ebp]
	mov	eax, DWORD PTR [edx+16]
	mov	DWORD PTR [ecx+268], eax

; 683  : 			m_iOldSolid = SOLID_NOT;

	mov	eax, DWORD PTR _this$[ebp]
	mov	DWORD PTR [eax+16], 0
$LN1@RestoreSol:

; 684  : 		}
; 685  : 	}

	pop	edi
	pop	esi
	pop	ebx
	mov	esp, ebp
	pop	ebp
	ret	0
?RestoreSolid@CBaseEntity@@QAEXXZ ENDP			; CBaseEntity::RestoreSolid
_TEXT	ENDS
; Function compile flags: /Odtp /ZI
; File d:\!diffusion 2020\source code 2022\client-server\server\cbase.h
;	COMDAT ?MakeNonSolid@CBaseEntity@@QAEXXZ
_TEXT	SEGMENT
_this$ = -4						; size = 4
?MakeNonSolid@CBaseEntity@@QAEXXZ PROC			; CBaseEntity::MakeNonSolid, COMDAT
; _this$ = ecx

; 668  : 	{

	push	ebp
	mov	ebp, esp
	sub	esp, 68					; 00000044H
	push	ebx
	push	esi
	push	edi
	mov	DWORD PTR _this$[ebp], ecx

; 669  : 		if( m_iOldSolid == SOLID_NOT && pev->solid != SOLID_NOT )

	mov	eax, DWORD PTR _this$[ebp]
	cmp	DWORD PTR [eax+16], 0
	jne	SHORT $LN1@MakeNonSol
	mov	eax, DWORD PTR _this$[ebp]
	mov	ecx, DWORD PTR [eax+4]
	cmp	DWORD PTR [ecx+268], 0
	je	SHORT $LN1@MakeNonSol

; 670  : 		{
; 671  : 			WorldPhysic->EnableCollision( this, FALSE );

	push	0
	mov	eax, DWORD PTR _this$[ebp]
	push	eax
	mov	ecx, DWORD PTR ?WorldPhysic@@3PAVIPhysicLayer@@A ; WorldPhysic
	mov	edx, DWORD PTR [ecx]
	mov	ecx, DWORD PTR ?WorldPhysic@@3PAVIPhysicLayer@@A ; WorldPhysic
	mov	eax, DWORD PTR [edx+88]
	call	eax

; 672  : 			m_iOldSolid = pev->solid;

	mov	eax, DWORD PTR _this$[ebp]
	mov	ecx, DWORD PTR [eax+4]
	mov	edx, DWORD PTR _this$[ebp]
	mov	eax, DWORD PTR [ecx+268]
	mov	DWORD PTR [edx+16], eax

; 673  : 			pev->solid = SOLID_NOT;

	mov	eax, DWORD PTR _this$[ebp]
	mov	ecx, DWORD PTR [eax+4]
	mov	DWORD PTR [ecx+268], 0
$LN1@MakeNonSol:

; 674  : 		}
; 675  : 	}

	pop	edi
	pop	esi
	pop	ebx
	mov	esp, ebp
	pop	ebp
	ret	0
?MakeNonSolid@CBaseEntity@@QAEXXZ ENDP			; CBaseEntity::MakeNonSolid
_TEXT	ENDS
; Function compile flags: /Odtp /ZI
; File d:\!diffusion 2020\source code 2022\client-server\server\cbase.h
;	COMDAT ?ClearGroundEntity@CBaseEntity@@QAEXXZ
_TEXT	SEGMENT
_this$ = -4						; size = 4
?ClearGroundEntity@CBaseEntity@@QAEXXZ PROC		; CBaseEntity::ClearGroundEntity, COMDAT
; _this$ = ecx

; 662  : 	{

	push	ebp
	mov	ebp, esp
	sub	esp, 68					; 00000044H
	push	ebx
	push	esi
	push	edi
	mov	DWORD PTR _this$[ebp], ecx

; 663  : 		pev->groundentity = NULL;

	mov	eax, DWORD PTR _this$[ebp]
	mov	ecx, DWORD PTR [eax+4]
	mov	DWORD PTR [ecx+412], 0

; 664  : 		pev->flags &= ~FL_ONGROUND;

	mov	eax, DWORD PTR _this$[ebp]
	mov	ecx, DWORD PTR [eax+4]
	mov	edx, DWORD PTR [ecx+420]
	and	edx, -513				; fffffdffH
	mov	eax, DWORD PTR _this$[ebp]
	mov	ecx, DWORD PTR [eax+4]
	mov	DWORD PTR [ecx+420], edx

; 665  : 	}

	pop	edi
	pop	esi
	pop	ebx
	mov	esp, ebp
	pop	ebp
	ret	0
?ClearGroundEntity@CBaseEntity@@QAEXXZ ENDP		; CBaseEntity::ClearGroundEntity
_TEXT	ENDS
; Function compile flags: /Odtp /ZI
; File d:\!diffusion 2020\source code 2022\client-server\server\cbase.h
;	COMDAT ?SetGroundEntity@CBaseEntity@@QAEXPAUedict_s@@@Z
_TEXT	SEGMENT
_this$ = -4						; size = 4
_pentGround$ = 8					; size = 4
?SetGroundEntity@CBaseEntity@@QAEXPAUedict_s@@@Z PROC	; CBaseEntity::SetGroundEntity, COMDAT
; _this$ = ecx

; 642  : 	{

	push	ebp
	mov	ebp, esp
	sub	esp, 68					; 00000044H
	push	ebx
	push	esi
	push	edi
	mov	DWORD PTR _this$[ebp], ecx

; 643  : 		if( pentGround != NULL )

	cmp	DWORD PTR _pentGround$[ebp], 0
	je	SHORT $LN2@SetGroundE

; 644  : 		{
; 645  : 			pev->groundentity = pentGround;

	mov	eax, DWORD PTR _this$[ebp]
	mov	ecx, DWORD PTR [eax+4]
	mov	edx, DWORD PTR _pentGround$[ebp]
	mov	DWORD PTR [ecx+412], edx

; 646  : 			pev->flags |= FL_ONGROUND;

	mov	eax, DWORD PTR _this$[ebp]
	mov	ecx, DWORD PTR [eax+4]
	mov	edx, DWORD PTR [ecx+420]
	or	edx, 512				; 00000200H
	mov	eax, DWORD PTR _this$[ebp]
	mov	ecx, DWORD PTR [eax+4]
	mov	DWORD PTR [ecx+420], edx
	jmp	SHORT $LN1@SetGroundE
$LN2@SetGroundE:

; 647  : 		}
; 648  : 		else ClearGroundEntity();

	mov	ecx, DWORD PTR _this$[ebp]
	call	?ClearGroundEntity@CBaseEntity@@QAEXXZ	; CBaseEntity::ClearGroundEntity
$LN1@SetGroundE:

; 649  : 	}

	pop	edi
	pop	esi
	pop	ebx
	mov	esp, ebp
	pop	ebp
	ret	4
?SetGroundEntity@CBaseEntity@@QAEXPAUedict_s@@@Z ENDP	; CBaseEntity::SetGroundEntity
_TEXT	ENDS
; Function compile flags: /Odtp /ZI
; File d:\!diffusion 2020\source code 2022\client-server\server\cbase.h
;	COMDAT ?GetMonsterPointer@CBaseEntity@@SAPAVCBaseMonster@@PAUedict_s@@@Z
_TEXT	SEGMENT
_pEntity$ = -4						; size = 4
_pentMonster$ = 8					; size = 4
?GetMonsterPointer@CBaseEntity@@SAPAVCBaseMonster@@PAUedict_s@@@Z PROC ; CBaseEntity::GetMonsterPointer, COMDAT

; 575  : 	{ 

	push	ebp
	mov	ebp, esp
	sub	esp, 68					; 00000044H
	push	ebx
	push	esi
	push	edi

; 576  : 		CBaseEntity *pEntity = Instance( pentMonster );

	mov	eax, DWORD PTR _pentMonster$[ebp]
	push	eax
	call	?Instance@CBaseEntity@@SAPAV1@PAUedict_s@@@Z ; CBaseEntity::Instance
	add	esp, 4
	mov	DWORD PTR _pEntity$[ebp], eax

; 577  : 		if ( pEntity )

	cmp	DWORD PTR _pEntity$[ebp], 0
	je	SHORT $LN2@GetMonster

; 578  : 			return pEntity->MyMonsterPointer();

	mov	eax, DWORD PTR _pEntity$[ebp]
	mov	edx, DWORD PTR [eax]
	mov	ecx, DWORD PTR _pEntity$[ebp]
	mov	eax, DWORD PTR [edx+124]
	call	eax
	jmp	SHORT $LN1@GetMonster
$LN2@GetMonster:

; 579  : 		return NULL;

	xor	eax, eax
$LN1@GetMonster:

; 580  : 	}

	pop	edi
	pop	esi
	pop	ebx
	mov	esp, ebp
	pop	ebp
	ret	0
?GetMonsterPointer@CBaseEntity@@SAPAVCBaseMonster@@PAUedict_s@@@Z ENDP ; CBaseEntity::GetMonsterPointer
_TEXT	ENDS
; Function compile flags: /Odtp /ZI
; File d:\!diffusion 2020\source code 2022\client-server\server\cbase.h
;	COMDAT ?Instance@CBaseEntity@@SAPAV1@PAUedict_s@@@Z
_TEXT	SEGMENT
_pEnt$ = -4						; size = 4
_pent$ = 8						; size = 4
?Instance@CBaseEntity@@SAPAV1@PAUedict_s@@@Z PROC	; CBaseEntity::Instance, COMDAT

; 557  : 	{ 

	push	ebp
	mov	ebp, esp
	sub	esp, 68					; 00000044H
	push	ebx
	push	esi
	push	edi

; 558  : 		if ( !pent )

	cmp	DWORD PTR _pent$[ebp], 0
	jne	SHORT $LN2@Instance

; 559  : 			pent = ENT(0);

	push	0
	call	?ENT@@YAPAUedict_s@@H@Z			; ENT
	add	esp, 4
	mov	DWORD PTR _pent$[ebp], eax
$LN2@Instance:

; 560  : 		CBaseEntity *pEnt = (CBaseEntity *)GET_PRIVATE(pent); 

	mov	eax, DWORD PTR _pent$[ebp]
	push	eax
	call	?GET_PRIVATE@@YAPAXPAUedict_s@@@Z	; GET_PRIVATE
	add	esp, 4
	mov	DWORD PTR _pEnt$[ebp], eax

; 561  : 		return pEnt; 

	mov	eax, DWORD PTR _pEnt$[ebp]

; 562  : 	}

	pop	edi
	pop	esi
	pop	ebx
	mov	esp, ebp
	pop	ebp
	ret	0
?Instance@CBaseEntity@@SAPAV1@PAUedict_s@@@Z ENDP	; CBaseEntity::Instance
_TEXT	ENDS
; Function compile flags: /Odtp /ZI
; File d:\!diffusion 2020\source code 2022\client-server\server\cbase.h
;	COMDAT ?SetBaseVelocity@CBaseEntity@@QAEXABVVector@@@Z
_TEXT	SEGMENT
_this$ = -4						; size = 4
_v$ = 8							; size = 4
?SetBaseVelocity@CBaseEntity@@QAEXABVVector@@@Z PROC	; CBaseEntity::SetBaseVelocity, COMDAT
; _this$ = ecx

; 410  : 	void SetBaseVelocity( const Vector& v ) { pev->basevelocity = v; }

	push	ebp
	mov	ebp, esp
	sub	esp, 68					; 00000044H
	push	ebx
	push	esi
	push	edi
	mov	DWORD PTR _this$[ebp], ecx
	mov	eax, DWORD PTR _this$[ebp]
	mov	ecx, DWORD PTR [eax+4]
	add	ecx, 44					; 0000002cH
	mov	edx, DWORD PTR _v$[ebp]
	mov	eax, DWORD PTR [edx]
	mov	DWORD PTR [ecx], eax
	mov	eax, DWORD PTR [edx+4]
	mov	DWORD PTR [ecx+4], eax
	mov	edx, DWORD PTR [edx+8]
	mov	DWORD PTR [ecx+8], edx
	pop	edi
	pop	esi
	pop	ebx
	mov	esp, ebp
	pop	ebp
	ret	4
?SetBaseVelocity@CBaseEntity@@QAEXABVVector@@@Z ENDP	; CBaseEntity::SetBaseVelocity
_TEXT	ENDS
; Function compile flags: /Odtp /ZI
; File d:\!diffusion 2020\source code 2022\client-server\server\cbase.h
;	COMDAT ?SetMoveDir@CBaseEntity@@QAEXABVVector@@@Z
_TEXT	SEGMENT
_this$ = -4						; size = 4
_v$ = 8							; size = 4
?SetMoveDir@CBaseEntity@@QAEXABVVector@@@Z PROC		; CBaseEntity::SetMoveDir, COMDAT
; _this$ = ecx

; 409  : 	void SetMoveDir( const Vector& v ) { pev->movedir = v; }

	push	ebp
	mov	ebp, esp
	sub	esp, 68					; 00000044H
	push	ebx
	push	esi
	push	edi
	mov	DWORD PTR _this$[ebp], ecx
	mov	eax, DWORD PTR _this$[ebp]
	mov	ecx, DWORD PTR [eax+4]
	add	ecx, 68					; 00000044H
	mov	edx, DWORD PTR _v$[ebp]
	mov	eax, DWORD PTR [edx]
	mov	DWORD PTR [ecx], eax
	mov	eax, DWORD PTR [edx+4]
	mov	DWORD PTR [ecx+4], eax
	mov	edx, DWORD PTR [edx+8]
	mov	DWORD PTR [ecx+8], edx
	pop	edi
	pop	esi
	pop	ebx
	mov	esp, ebp
	pop	ebp
	ret	4
?SetMoveDir@CBaseEntity@@QAEXABVVector@@@Z ENDP		; CBaseEntity::SetMoveDir
_TEXT	ENDS
; Function compile flags: /Odtp /ZI
; File d:\!diffusion 2020\source code 2022\client-server\server\cbase.h
;	COMDAT ?GetTargetname@CBaseEntity@@QAEPBDXZ
_TEXT	SEGMENT
_this$ = -4						; size = 4
?GetTargetname@CBaseEntity@@QAEPBDXZ PROC		; CBaseEntity::GetTargetname, COMDAT
; _this$ = ecx

; 299  : 	const char*	GetTargetname() { return STRING( pev->targetname ); }

	push	ebp
	mov	ebp, esp
	sub	esp, 68					; 00000044H
	push	ebx
	push	esi
	push	edi
	mov	DWORD PTR _this$[ebp], ecx
	mov	eax, DWORD PTR _this$[ebp]
	mov	ecx, DWORD PTR [eax+4]
	mov	edx, DWORD PTR [ecx+460]
	push	edx
	call	DWORD PTR ?g_engfuncs@@3Uenginefuncs_s@@A+264
	add	esp, 4
	pop	edi
	pop	esi
	pop	ebx
	mov	esp, ebp
	pop	ebp
	ret	0
?GetTargetname@CBaseEntity@@QAEPBDXZ ENDP		; CBaseEntity::GetTargetname
_TEXT	ENDS
; Function compile flags: /Odtp /ZI
; File d:\!diffusion 2020\source code 2022\client-server\server\cbase.h
;	COMDAT ?GetClassname@CBaseEntity@@QAEPBDXZ
_TEXT	SEGMENT
_this$ = -4						; size = 4
?GetClassname@CBaseEntity@@QAEPBDXZ PROC		; CBaseEntity::GetClassname, COMDAT
; _this$ = ecx

; 297  : 	const char*	GetClassname() { return STRING( pev->classname ); }

	push	ebp
	mov	ebp, esp
	sub	esp, 68					; 00000044H
	push	ebx
	push	esi
	push	edi
	mov	DWORD PTR _this$[ebp], ecx
	mov	eax, DWORD PTR _this$[ebp]
	mov	ecx, DWORD PTR [eax+4]
	mov	edx, DWORD PTR [ecx]
	push	edx
	call	DWORD PTR ?g_engfuncs@@3Uenginefuncs_s@@A+264
	add	esp, 4
	pop	edi
	pop	esi
	pop	ebx
	mov	esp, ebp
	pop	ebp
	ret	0
?GetClassname@CBaseEntity@@QAEPBDXZ ENDP		; CBaseEntity::GetClassname
_TEXT	ENDS
; Function compile flags: /Odtp /ZI
; File d:\!diffusion 2020\source code 2022\client-server\server\cbase.h
;	COMDAT ?EntityToWorldTransform@CBaseEntity@@QAEAAVmatrix4x4@@XZ
_TEXT	SEGMENT
$T1 = -148						; size = 12
$T2 = -136						; size = 64
_this$ = -8						; size = 4
__$ArrayPad$ = -4					; size = 4
?EntityToWorldTransform@CBaseEntity@@QAEAAVmatrix4x4@@XZ PROC ; CBaseEntity::EntityToWorldTransform, COMDAT
; _this$ = ecx

; 784  : { 

	push	ebp
	mov	ebp, esp
	sub	esp, 148				; 00000094H
	mov	eax, DWORD PTR ___security_cookie
	xor	eax, ebp
	mov	DWORD PTR __$ArrayPad$[ebp], eax
	push	ebx
	push	esi
	push	edi
	mov	DWORD PTR _this$[ebp], ecx

; 785  : 	if( IsPlayer( ))

	mov	eax, DWORD PTR _this$[ebp]
	mov	edx, DWORD PTR [eax]
	mov	ecx, DWORD PTR _this$[ebp]
	mov	eax, DWORD PTR [edx+220]
	call	eax
	test	eax, eax
	je	SHORT $LN2@EntityToWo

; 786  : 	{
; 787  : 		m_local = matrix4x4( pev->origin, Vector( 0.0f, pev->angles.y, 0.0f ));

	push	ecx
	movss	xmm0, DWORD PTR __real@3f800000
	movss	DWORD PTR [esp], xmm0
	push	ecx
	xorps	xmm0, xmm0
	movss	DWORD PTR [esp], xmm0
	mov	eax, DWORD PTR _this$[ebp]
	mov	ecx, DWORD PTR [eax+4]
	push	ecx
	movss	xmm0, DWORD PTR [ecx+84]
	movss	DWORD PTR [esp], xmm0
	push	ecx
	xorps	xmm0, xmm0
	movss	DWORD PTR [esp], xmm0
	lea	ecx, DWORD PTR $T1[ebp]
	call	??0Vector@@QAE@MMM@Z			; Vector::Vector
	push	eax
	mov	edx, DWORD PTR _this$[ebp]
	mov	eax, DWORD PTR [edx+4]
	add	eax, 8
	push	eax
	lea	ecx, DWORD PTR $T2[ebp]
	call	??0matrix4x4@@QAE@ABVVector@@0M@Z	; matrix4x4::matrix4x4
	push	eax
	mov	ecx, DWORD PTR _this$[ebp]
	add	ecx, 192				; 000000c0H
	call	??4matrix4x4@@QAEAAV0@ABV0@@Z		; matrix4x4::operator=
	jmp	SHORT $LN4@EntityToWo
$LN2@EntityToWo:

; 788  : 	}
; 789  : 	else if( pev->flags & FL_ABSTRANSFORM )

	mov	eax, DWORD PTR _this$[ebp]
	mov	ecx, DWORD PTR [eax+4]
	mov	edx, DWORD PTR [ecx+420]
	and	edx, 131072				; 00020000H
	je	SHORT $LN4@EntityToWo

; 790  : 	{
; 791  : 		CalcAbsolutePosition();

	mov	ecx, DWORD PTR _this$[ebp]
	call	?CalcAbsolutePosition@CBaseEntity@@QAEXXZ ; CBaseEntity::CalcAbsolutePosition
$LN4@EntityToWo:

; 792  : 	}
; 793  : 	return m_local; 

	mov	eax, DWORD PTR _this$[ebp]
	add	eax, 192				; 000000c0H

; 794  : }

	pop	edi
	pop	esi
	pop	ebx
	mov	ecx, DWORD PTR __$ArrayPad$[ebp]
	xor	ecx, ebp
	call	@__security_check_cookie@4
	mov	esp, ebp
	pop	ebp
	ret	0
?EntityToWorldTransform@CBaseEntity@@QAEAAVmatrix4x4@@XZ ENDP ; CBaseEntity::EntityToWorldTransform
_TEXT	ENDS
; Function compile flags: /Odtp /ZI
; File d:\!diffusion 2020\source code 2022\client-server\server\ehandle.h
;	COMDAT ??BEHANDLE@@QAEHXZ
_TEXT	SEGMENT
tv67 = -72						; size = 4
_this$ = -4						; size = 4
??BEHANDLE@@QAEHXZ PROC					; EHANDLE::operator int, COMDAT
; _this$ = ecx

; 85   : {

	push	ebp
	mov	ebp, esp
	sub	esp, 72					; 00000048H
	push	ebx
	push	esi
	push	edi
	mov	DWORD PTR _this$[ebp], ecx

; 86   : 	return Get() != NULL;

	mov	ecx, DWORD PTR _this$[ebp]
	call	?Get@EHANDLE@@QAEPAUedict_s@@XZ		; EHANDLE::Get
	test	eax, eax
	je	SHORT $LN3@operator
	mov	DWORD PTR tv67[ebp], 1
	jmp	SHORT $LN4@operator
$LN3@operator:
	mov	DWORD PTR tv67[ebp], 0
$LN4@operator:
	mov	eax, DWORD PTR tv67[ebp]

; 87   : }

	pop	edi
	pop	esi
	pop	ebx
	mov	esp, ebp
	pop	ebp
	ret	0
??BEHANDLE@@QAEHXZ ENDP					; EHANDLE::operator int
_TEXT	ENDS
; Function compile flags: /Odtp /ZI
; File d:\!diffusion 2020\source code 2022\client-server\server\ehandle.h
;	COMDAT ?Get@EHANDLE@@QAEPAUedict_s@@XZ
_TEXT	SEGMENT
_this$ = -4						; size = 4
?Get@EHANDLE@@QAEPAUedict_s@@XZ PROC			; EHANDLE::Get, COMDAT
; _this$ = ecx

; 40   : { 

	push	ebp
	mov	ebp, esp
	sub	esp, 68					; 00000044H
	push	ebx
	push	esi
	push	edi
	mov	DWORD PTR _this$[ebp], ecx

; 41   : 	if( m_pent )

	mov	eax, DWORD PTR _this$[ebp]
	cmp	DWORD PTR [eax], 0
	je	SHORT $LN2@Get

; 42   : 	{
; 43   : #if 0
; 44   : 		// keep client entity always in actual state
; 45   : 		if( ENTINDEX( m_pent ) == 1 )
; 46   : 			m_serialnumber = m_pent->serialnumber;
; 47   : #endif
; 48   : 		if( m_pent->serialnumber == m_serialnumber ) 

	mov	eax, DWORD PTR _this$[ebp]
	mov	ecx, DWORD PTR [eax]
	mov	edx, DWORD PTR _this$[ebp]
	mov	eax, DWORD PTR [ecx+4]
	cmp	eax, DWORD PTR [edx+4]
	jne	SHORT $LN2@Get

; 49   : 			return m_pent; 

	mov	eax, DWORD PTR _this$[ebp]
	mov	eax, DWORD PTR [eax]
	jmp	SHORT $LN1@Get
$LN2@Get:

; 50   : 	}
; 51   : 
; 52   : 	return NULL; 

	xor	eax, eax
$LN1@Get:

; 53   : }

	pop	edi
	pop	esi
	pop	ebx
	mov	esp, ebp
	pop	ebp
	ret	0
?Get@EHANDLE@@QAEPAUedict_s@@XZ ENDP			; EHANDLE::Get
_TEXT	ENDS
; Function compile flags: /Odtp /ZI
; File d:\!diffusion 2020\source code 2022\client-server\server\util.cpp
;	COMDAT ?UTIL_FunctionFromName@@YAPAXPAUdatamap_s@@PBD@Z
_TEXT	SEGMENT
_i$1 = -4						; size = 4
_pMap$ = 8						; size = 4
_pName$ = 12						; size = 4
?UTIL_FunctionFromName@@YAPAXPAUdatamap_s@@PBD@Z PROC	; UTIL_FunctionFromName, COMDAT

; 213  : {

	push	ebp
	mov	ebp, esp
	sub	esp, 68					; 00000044H
	push	ebx
	push	esi
	push	edi
$LN2@UTIL_Funct:

; 214  : 	while( pMap )

	cmp	DWORD PTR _pMap$[ebp], 0
	je	$LN3@UTIL_Funct

; 215  : 	{
; 216  : 		for( int i = 0; i < pMap->dataNumFields; i++ )

	mov	DWORD PTR _i$1[ebp], 0
	jmp	SHORT $LN6@UTIL_Funct
$LN4@UTIL_Funct:
	mov	eax, DWORD PTR _i$1[ebp]
	add	eax, 1
	mov	DWORD PTR _i$1[ebp], eax
$LN6@UTIL_Funct:
	mov	eax, DWORD PTR _pMap$[ebp]
	mov	ecx, DWORD PTR _i$1[ebp]
	cmp	ecx, DWORD PTR [eax+4]
	jge	SHORT $LN5@UTIL_Funct

; 217  : 		{
; 218  : 			ASSERT( sizeof(pMap->dataDesc[i].func) == sizeof(void *));

	push	0
	mov	eax, DWORD PTR ?__LINE__Var@?0??UTIL_FunctionFromName@@YAPAXPAUdatamap_s@@PBD@Z@4JA
	add	eax, 5
	push	eax
	push	OFFSET ??_C@_0EC@HIIDFEJP@d?3?2?$CBdiffusion?52020?2source?5code?52@
	push	OFFSET ??_C@_0DB@HMOMJHEN@sizeof?$CIpMap?9?$DOdataDesc?$FLi?$FN?4func?$CJ?5?$DN@
	push	1
	call	?DBG_AssertFunction@@YAXHPBD0H0@Z	; DBG_AssertFunction
	add	esp, 20					; 00000014H

; 219  : 
; 220  : 			if( pMap->dataDesc[i].flags & FTYPEDESC_FUNCTIONTABLE )

	imul	eax, DWORD PTR _i$1[ebp], 24
	mov	ecx, DWORD PTR _pMap$[ebp]
	mov	edx, DWORD PTR [ecx]
	movsx	eax, WORD PTR [edx+eax+14]
	and	eax, 8
	je	SHORT $LN7@UTIL_Funct

; 221  : 			{
; 222  : 				if( FStrEq( pName, pMap->dataDesc[i].fieldName ))

	imul	eax, DWORD PTR _i$1[ebp], 24
	mov	ecx, DWORD PTR _pMap$[ebp]
	mov	edx, DWORD PTR [ecx]
	mov	eax, DWORD PTR [edx+eax+4]
	push	eax
	mov	ecx, DWORD PTR _pName$[ebp]
	push	ecx
	call	?FStrEq@@YAHPBD0@Z			; FStrEq
	add	esp, 8
	test	eax, eax
	je	SHORT $LN7@UTIL_Funct

; 223  : 				{
; 224  : 					return EXTRACT_VOID_FUNCTIONPTR( pMap->dataDesc[i].func );

	imul	eax, DWORD PTR _i$1[ebp], 24
	mov	ecx, DWORD PTR _pMap$[ebp]
	mov	edx, DWORD PTR [ecx]
	mov	eax, DWORD PTR [edx+eax+20]
	jmp	SHORT $LN1@UTIL_Funct
$LN7@UTIL_Funct:

; 225  : 				}
; 226  : 			}
; 227  : 		}

	jmp	SHORT $LN4@UTIL_Funct
$LN5@UTIL_Funct:

; 228  : 		pMap = pMap->baseMap;

	mov	eax, DWORD PTR _pMap$[ebp]
	mov	ecx, DWORD PTR [eax+12]
	mov	DWORD PTR _pMap$[ebp], ecx

; 229  : 	}

	jmp	$LN2@UTIL_Funct
$LN3@UTIL_Funct:

; 230  : 
; 231  : 	ALERT( at_error, "Failed to find function %s\n", pName );

	mov	eax, DWORD PTR _pName$[ebp]
	push	eax
	push	OFFSET ??_C@_0BM@KIPIGGJD@Failed?5to?5find?5function?5?$CFs?6?$AA@
	push	4
	call	DWORD PTR ?g_engfuncs@@3Uenginefuncs_s@@A+244
	add	esp, 12					; 0000000cH

; 232  : 
; 233  : 	return NULL;

	xor	eax, eax
$LN1@UTIL_Funct:

; 234  : }

	pop	edi
	pop	esi
	pop	ebx
	mov	esp, ebp
	pop	ebp
	ret	0
?UTIL_FunctionFromName@@YAPAXPAUdatamap_s@@PBD@Z ENDP	; UTIL_FunctionFromName
_TEXT	ENDS
; Function compile flags: /Odtp /ZI
; File d:\!diffusion 2020\source code 2022\client-server\server\util.cpp
;	COMDAT ?UTIL_FunctionToName@@YAPBDPAUdatamap_s@@PAX@Z
_TEXT	SEGMENT
_pTest$1 = -8						; size = 4
_i$2 = -4						; size = 4
_pMap$ = 8						; size = 4
_function$ = 12						; size = 4
?UTIL_FunctionToName@@YAPBDPAUdatamap_s@@PAX@Z PROC	; UTIL_FunctionToName, COMDAT

; 188  : {

	push	ebp
	mov	ebp, esp
	sub	esp, 72					; 00000048H
	push	ebx
	push	esi
	push	edi
$LN2@UTIL_Funct:

; 189  : 	while( pMap )

	cmp	DWORD PTR _pMap$[ebp], 0
	je	$LN3@UTIL_Funct

; 190  : 	{
; 191  : 		for( int i = 0; i < pMap->dataNumFields; i++ )

	mov	DWORD PTR _i$2[ebp], 0
	jmp	SHORT $LN6@UTIL_Funct
$LN4@UTIL_Funct:
	mov	eax, DWORD PTR _i$2[ebp]
	add	eax, 1
	mov	DWORD PTR _i$2[ebp], eax
$LN6@UTIL_Funct:
	mov	eax, DWORD PTR _pMap$[ebp]
	mov	ecx, DWORD PTR _i$2[ebp]
	cmp	ecx, DWORD PTR [eax+4]
	jge	SHORT $LN5@UTIL_Funct

; 192  : 		{
; 193  : 			if( pMap->dataDesc[i].flags & FTYPEDESC_FUNCTIONTABLE )

	imul	eax, DWORD PTR _i$2[ebp], 24
	mov	ecx, DWORD PTR _pMap$[ebp]
	mov	edx, DWORD PTR [ecx]
	movsx	eax, WORD PTR [edx+eax+14]
	and	eax, 8
	je	SHORT $LN7@UTIL_Funct

; 194  : 			{
; 195  : 				ASSERT( sizeof(pMap->dataDesc[i].func) == sizeof(void *));

	push	0
	mov	eax, DWORD PTR ?__LINE__Var@?0??UTIL_FunctionToName@@YAPBDPAUdatamap_s@@PAX@Z@4JA
	add	eax, 7
	push	eax
	push	OFFSET ??_C@_0EC@HIIDFEJP@d?3?2?$CBdiffusion?52020?2source?5code?52@
	push	OFFSET ??_C@_0DB@HMOMJHEN@sizeof?$CIpMap?9?$DOdataDesc?$FLi?$FN?4func?$CJ?5?$DN@
	push	1
	call	?DBG_AssertFunction@@YAXHPBD0H0@Z	; DBG_AssertFunction
	add	esp, 20					; 00000014H

; 196  : 				void *pTest = EXTRACT_VOID_FUNCTIONPTR( pMap->dataDesc[i].func );

	imul	eax, DWORD PTR _i$2[ebp], 24
	mov	ecx, DWORD PTR _pMap$[ebp]
	mov	edx, DWORD PTR [ecx]
	mov	eax, DWORD PTR [edx+eax+20]
	mov	DWORD PTR _pTest$1[ebp], eax

; 197  : 				if( pTest == function )

	mov	eax, DWORD PTR _pTest$1[ebp]
	cmp	eax, DWORD PTR _function$[ebp]
	jne	SHORT $LN7@UTIL_Funct

; 198  : 					return pMap->dataDesc[i].fieldName;

	imul	eax, DWORD PTR _i$2[ebp], 24
	mov	ecx, DWORD PTR _pMap$[ebp]
	mov	edx, DWORD PTR [ecx]
	mov	eax, DWORD PTR [edx+eax+4]
	jmp	SHORT $LN1@UTIL_Funct
$LN7@UTIL_Funct:

; 199  : 			}
; 200  : 		}

	jmp	SHORT $LN4@UTIL_Funct
$LN5@UTIL_Funct:

; 201  : 
; 202  : 		pMap = pMap->baseMap;

	mov	eax, DWORD PTR _pMap$[ebp]
	mov	ecx, DWORD PTR [eax+12]
	mov	DWORD PTR _pMap$[ebp], ecx

; 203  : 	}

	jmp	$LN2@UTIL_Funct
$LN3@UTIL_Funct:

; 204  : 	return NULL;

	xor	eax, eax
$LN1@UTIL_Funct:

; 205  : }

	pop	edi
	pop	esi
	pop	ebx
	mov	esp, ebp
	pop	ebp
	ret	0
?UTIL_FunctionToName@@YAPBDPAUdatamap_s@@PAX@Z ENDP	; UTIL_FunctionToName
_TEXT	ENDS
; Function compile flags: /Odtp /ZI
; File d:\!diffusion 2020\source code 2022\client-server\server\util.cpp
;	COMDAT ?UTIL_LoadSoundPreset@@YAHH@Z
_TEXT	SEGMENT
_pString$1 = -4						; size = 4
_iString$ = 8						; size = 4
?UTIL_LoadSoundPreset@@YAHH@Z PROC			; UTIL_LoadSoundPreset, COMDAT

; 3133 : {

	push	ebp
	mov	ebp, esp
	sub	esp, 68					; 00000044H
	push	ebx
	push	esi
	push	edi

; 3134 : 	if( iString != NULL_STRING )

	cmp	DWORD PTR _iString$[ebp], 0
	je	SHORT $LN2@UTIL_LoadS

; 3135 : 	{
; 3136 : 		const char *pString = STRING( iString );

	mov	eax, DWORD PTR _iString$[ebp]
	push	eax
	call	DWORD PTR ?g_engfuncs@@3Uenginefuncs_s@@A+264
	add	esp, 4
	mov	DWORD PTR _pString$1[ebp], eax

; 3137 : 
; 3138 : 		if( Q_isdigit( pString ))

	mov	eax, DWORD PTR _pString$1[ebp]
	push	eax
	call	?Q_isdigit@@YA_NPBD@Z			; Q_isdigit
	add	esp, 4
	movzx	ecx, al
	test	ecx, ecx
	je	SHORT $LN2@UTIL_LoadS

; 3139 : 			return Q_atoi( pString );

	mov	eax, DWORD PTR _pString$1[ebp]
	push	eax
	call	?Q_atoi@@YAHPBD@Z			; Q_atoi
	add	esp, 4
	jmp	SHORT $LN1@UTIL_LoadS
$LN2@UTIL_LoadS:

; 3140 : 	}
; 3141 : 
; 3142 : 	return iString;

	mov	eax, DWORD PTR _iString$[ebp]
$LN1@UTIL_LoadS:

; 3143 : }

	pop	edi
	pop	esi
	pop	ebx
	mov	esp, ebp
	pop	ebp
	ret	0
?UTIL_LoadSoundPreset@@YAHH@Z ENDP			; UTIL_LoadSoundPreset
_TEXT	ENDS
; Function compile flags: /Odtp /ZI
; File d:\!diffusion 2020\source code 2022\client-server\server\util.cpp
;	COMDAT ?UTIL_WaterMove@@YAXPAVCBaseEntity@@@Z
_TEXT	SEGMENT
tv81 = -100						; size = 8
tv242 = -96						; size = 4
tv163 = -96						; size = 4
$T1 = -92						; size = 12
_flags$ = -16						; size = 4
_watertype$ = -12					; size = 4
_waterlevel$ = -8					; size = 4
_drownlevel$ = -4					; size = 4
_pEntity$ = 8						; size = 4
?UTIL_WaterMove@@YAXPAVCBaseEntity@@@Z PROC		; UTIL_WaterMove, COMDAT

; 3013 : {

	push	ebp
	mov	ebp, esp
	sub	esp, 100				; 00000064H
	push	ebx
	push	esi
	push	edi

; 3014 : 	float	drownlevel;
; 3015 : 	int	waterlevel;
; 3016 : 	int	watertype;
; 3017 : 	int	flags;
; 3018 : 
; 3019 : 	if( pEntity->pev->movetype == MOVETYPE_NOCLIP )

	mov	eax, DWORD PTR _pEntity$[ebp]
	mov	ecx, DWORD PTR [eax+4]
	cmp	DWORD PTR [ecx+264], 8
	jne	SHORT $LN6@UTIL_Water

; 3020 : 	{
; 3021 : 		pEntity->pev->air_finished = gpGlobals->time + 12.0f;

	mov	eax, DWORD PTR ?gpGlobals@@3PAUglobalvars_t@@A ; gpGlobals
	movss	xmm0, DWORD PTR [eax]
	addss	xmm0, DWORD PTR __real@41400000
	mov	ecx, DWORD PTR _pEntity$[ebp]
	mov	edx, DWORD PTR [ecx+4]
	movss	DWORD PTR [edx+508], xmm0

; 3022 : 		return;

	jmp	$LN1@UTIL_Water
$LN6@UTIL_Water:

; 3023 : 	}
; 3024 : 
; 3025 : 	if(( pEntity->pev->flags & FL_MONSTER ) && pEntity->pev->health <= 0.0f )

	mov	eax, DWORD PTR _pEntity$[ebp]
	mov	ecx, DWORD PTR [eax+4]
	mov	edx, DWORD PTR [ecx+420]
	and	edx, 32					; 00000020H
	je	SHORT $LN7@UTIL_Water
	mov	eax, DWORD PTR _pEntity$[ebp]
	mov	ecx, DWORD PTR [eax+4]
	xorps	xmm0, xmm0
	comiss	xmm0, DWORD PTR [ecx+352]
	jb	SHORT $LN7@UTIL_Water

; 3026 : 		return;

	jmp	$LN1@UTIL_Water
$LN7@UTIL_Water:

; 3027 : 
; 3028 : 	drownlevel = (pEntity->pev->deadflag == DEAD_NO) ? 3.0 : 1.0;

	mov	eax, DWORD PTR _pEntity$[ebp]
	mov	ecx, DWORD PTR [eax+4]
	cmp	DWORD PTR [ecx+368], 0
	jne	SHORT $LN37@UTIL_Water
	movsd	xmm0, QWORD PTR __real@4008000000000000
	movsd	QWORD PTR tv81[ebp], xmm0
	jmp	SHORT $LN38@UTIL_Water
$LN37@UTIL_Water:
	movsd	xmm0, QWORD PTR __real@3ff0000000000000
	movsd	QWORD PTR tv81[ebp], xmm0
$LN38@UTIL_Water:
	cvtsd2ss xmm0, QWORD PTR tv81[ebp]
	movss	DWORD PTR _drownlevel$[ebp], xmm0

; 3029 : 	waterlevel = pEntity->pev->waterlevel;

	mov	eax, DWORD PTR _pEntity$[ebp]
	mov	ecx, DWORD PTR [eax+4]
	mov	edx, DWORD PTR [ecx+448]
	mov	DWORD PTR _waterlevel$[ebp], edx

; 3030 : 	watertype = pEntity->pev->watertype;

	mov	eax, DWORD PTR _pEntity$[ebp]
	mov	ecx, DWORD PTR [eax+4]
	mov	edx, DWORD PTR [ecx+452]
	mov	DWORD PTR _watertype$[ebp], edx

; 3031 : 	flags = pEntity->pev->flags;

	mov	eax, DWORD PTR _pEntity$[ebp]
	mov	ecx, DWORD PTR [eax+4]
	mov	edx, DWORD PTR [ecx+420]
	mov	DWORD PTR _flags$[ebp], edx

; 3032 : 
; 3033 : 	if( !( flags & FL_GODMODE ))

	mov	eax, DWORD PTR _flags$[ebp]
	and	eax, 64					; 00000040H
	jne	$LN10@UTIL_Water

; 3034 : 	{
; 3035 : 		if((( flags & FL_SWIM ) && waterlevel > drownlevel ) || waterlevel <= drownlevel )

	mov	eax, DWORD PTR _flags$[ebp]
	and	eax, 2
	je	SHORT $LN12@UTIL_Water
	cvtsi2ss xmm0, DWORD PTR _waterlevel$[ebp]
	comiss	xmm0, DWORD PTR _drownlevel$[ebp]
	ja	SHORT $LN11@UTIL_Water
$LN12@UTIL_Water:
	cvtsi2ss xmm0, DWORD PTR _waterlevel$[ebp]
	movss	xmm1, DWORD PTR _drownlevel$[ebp]
	comiss	xmm1, xmm0
	jb	$LN9@UTIL_Water
$LN11@UTIL_Water:

; 3036 : 		{
; 3037 : 			if( pEntity->pev->air_finished > gpGlobals->time && pEntity->pev->pain_finished > gpGlobals->time )

	mov	eax, DWORD PTR _pEntity$[ebp]
	mov	ecx, DWORD PTR [eax+4]
	mov	edx, DWORD PTR ?gpGlobals@@3PAUglobalvars_t@@A ; gpGlobals
	movss	xmm0, DWORD PTR [ecx+508]
	comiss	xmm0, DWORD PTR [edx]
	jbe	$LN13@UTIL_Water
	mov	eax, DWORD PTR _pEntity$[ebp]
	mov	ecx, DWORD PTR [eax+4]
	mov	edx, DWORD PTR ?gpGlobals@@3PAUglobalvars_t@@A ; gpGlobals
	movss	xmm0, DWORD PTR [ecx+512]
	comiss	xmm0, DWORD PTR [edx]
	jbe	SHORT $LN13@UTIL_Water

; 3038 : 			{
; 3039 : 				pEntity->pev->dmg += 2;

	mov	eax, DWORD PTR _pEntity$[ebp]
	mov	ecx, DWORD PTR [eax+4]
	movss	xmm0, DWORD PTR [ecx+480]
	addss	xmm0, DWORD PTR __real@40000000
	mov	edx, DWORD PTR _pEntity$[ebp]
	mov	eax, DWORD PTR [edx+4]
	movss	DWORD PTR [eax+480], xmm0

; 3040 : 
; 3041 : 				if( pEntity->pev->dmg < 15 )

	mov	eax, DWORD PTR _pEntity$[ebp]
	mov	ecx, DWORD PTR [eax+4]
	movss	xmm0, DWORD PTR __real@41700000
	comiss	xmm0, DWORD PTR [ecx+480]
	jbe	SHORT $LN14@UTIL_Water

; 3042 : 					pEntity->pev->dmg = 10; // quake1 original code

	mov	eax, DWORD PTR _pEntity$[ebp]
	mov	ecx, DWORD PTR [eax+4]
	movss	xmm0, DWORD PTR __real@41200000
	movss	DWORD PTR [ecx+480], xmm0
$LN14@UTIL_Water:

; 3043 : 				pEntity->pev->pain_finished = gpGlobals->time + 1.0f;

	mov	eax, DWORD PTR ?gpGlobals@@3PAUglobalvars_t@@A ; gpGlobals
	movss	xmm0, DWORD PTR [eax]
	addss	xmm0, DWORD PTR __real@3f800000
	mov	ecx, DWORD PTR _pEntity$[ebp]
	mov	edx, DWORD PTR [ecx+4]
	movss	DWORD PTR [edx+512], xmm0
$LN13@UTIL_Water:

; 3044 : 			}
; 3045 : 		}
; 3046 : 		else

	jmp	SHORT $LN10@UTIL_Water
$LN9@UTIL_Water:

; 3047 : 		{
; 3048 : 			pEntity->pev->air_finished = gpGlobals->time + 12.0f;

	mov	eax, DWORD PTR ?gpGlobals@@3PAUglobalvars_t@@A ; gpGlobals
	movss	xmm0, DWORD PTR [eax]
	addss	xmm0, DWORD PTR __real@41400000
	mov	ecx, DWORD PTR _pEntity$[ebp]
	mov	edx, DWORD PTR [ecx+4]
	movss	DWORD PTR [edx+508], xmm0

; 3049 : 			pEntity->pev->dmg = 2;

	mov	eax, DWORD PTR _pEntity$[ebp]
	mov	ecx, DWORD PTR [eax+4]
	movss	xmm0, DWORD PTR __real@40000000
	movss	DWORD PTR [ecx+480], xmm0
$LN10@UTIL_Water:

; 3050 : 		}
; 3051 : 	}
; 3052 : 
; 3053 : 	if( !waterlevel )

	cmp	DWORD PTR _waterlevel$[ebp], 0
	jne	$LN15@UTIL_Water

; 3054 : 	{
; 3055 : 		if( flags & FL_INWATER )

	mov	eax, DWORD PTR _flags$[ebp]
	and	eax, 16					; 00000010H
	je	$LN16@UTIL_Water

; 3056 : 		{
; 3057 : 			// leave the water.
; 3058 : 			switch( RANDOM_LONG( 0, 3 ))

	push	3
	push	0
	call	DWORD PTR ?g_engfuncs@@3Uenginefuncs_s@@A+360
	add	esp, 8
	mov	DWORD PTR tv163[ebp], eax
	cmp	DWORD PTR tv163[ebp], 3
	ja	$LN2@UTIL_Water
	mov	eax, DWORD PTR tv163[ebp]
	jmp	DWORD PTR $LN39@UTIL_Water[eax*4]
$LN17@UTIL_Water:

; 3059 : 			{
; 3060 : 			case 0:
; 3061 : 				EMIT_SOUND( pEntity->edict(), CHAN_BODY, "footsteps/wade1.wav", 1.0f, ATTN_NORM );

	push	ecx
	movss	xmm0, DWORD PTR __real@3f4ccccd
	movss	DWORD PTR [esp], xmm0
	push	ecx
	movss	xmm0, DWORD PTR __real@3f800000
	movss	DWORD PTR [esp], xmm0
	push	OFFSET ??_C@_0BE@FOEPOJBH@footsteps?1wade1?4wav?$AA@
	push	4
	mov	ecx, DWORD PTR _pEntity$[ebp]
	call	?edict@CBaseEntity@@QAEPAUedict_s@@XZ	; CBaseEntity::edict
	push	eax
	call	?EMIT_SOUND@@YAXPAUedict_s@@HPBDMM@Z	; EMIT_SOUND
	add	esp, 20					; 00000014H

; 3062 : 				break;

	jmp	$LN2@UTIL_Water
$LN18@UTIL_Water:

; 3063 : 			case 1:
; 3064 : 				EMIT_SOUND( pEntity->edict(), CHAN_BODY, "footsteps/wade2.wav", 1.0f, ATTN_NORM );

	push	ecx
	movss	xmm0, DWORD PTR __real@3f4ccccd
	movss	DWORD PTR [esp], xmm0
	push	ecx
	movss	xmm0, DWORD PTR __real@3f800000
	movss	DWORD PTR [esp], xmm0
	push	OFFSET ??_C@_0BE@NINLJLLJ@footsteps?1wade2?4wav?$AA@
	push	4
	mov	ecx, DWORD PTR _pEntity$[ebp]
	call	?edict@CBaseEntity@@QAEPAUedict_s@@XZ	; CBaseEntity::edict
	push	eax
	call	?EMIT_SOUND@@YAXPAUedict_s@@HPBDMM@Z	; EMIT_SOUND
	add	esp, 20					; 00000014H

; 3065 : 				break;

	jmp	SHORT $LN2@UTIL_Water
$LN19@UTIL_Water:

; 3066 : 			case 2:
; 3067 : 				EMIT_SOUND( pEntity->edict(), CHAN_BODY, "footsteps/wade3.wav", 1.0f, ATTN_NORM );

	push	ecx
	movss	xmm0, DWORD PTR __real@3f4ccccd
	movss	DWORD PTR [esp], xmm0
	push	ecx
	movss	xmm0, DWORD PTR __real@3f800000
	movss	DWORD PTR [esp], xmm0
	push	OFFSET ??_C@_0BE@BDIHEIBM@footsteps?1wade3?4wav?$AA@
	push	4
	mov	ecx, DWORD PTR _pEntity$[ebp]
	call	?edict@CBaseEntity@@QAEPAUedict_s@@XZ	; CBaseEntity::edict
	push	eax
	call	?EMIT_SOUND@@YAXPAUedict_s@@HPBDMM@Z	; EMIT_SOUND
	add	esp, 20					; 00000014H

; 3068 : 				break;

	jmp	SHORT $LN2@UTIL_Water
$LN20@UTIL_Water:

; 3069 : 			case 3:
; 3070 : 				EMIT_SOUND( pEntity->edict(), CHAN_BODY, "footsteps/wade4.wav", 1.0f, ATTN_NORM );

	push	ecx
	movss	xmm0, DWORD PTR __real@3f4ccccd
	movss	DWORD PTR [esp], xmm0
	push	ecx
	movss	xmm0, DWORD PTR __real@3f800000
	movss	DWORD PTR [esp], xmm0
	push	OFFSET ??_C@_0BE@OICHIKE@footsteps?1wade4?4wav?$AA@
	push	4
	mov	ecx, DWORD PTR _pEntity$[ebp]
	call	?edict@CBaseEntity@@QAEPAUedict_s@@XZ	; CBaseEntity::edict
	push	eax
	call	?EMIT_SOUND@@YAXPAUedict_s@@HPBDMM@Z	; EMIT_SOUND
	add	esp, 20					; 00000014H
$LN2@UTIL_Water:

; 3071 : 				break;
; 3072 : 			}
; 3073 : 
; 3074 : 			pEntity->pev->flags = flags & ~FL_INWATER;

	mov	eax, DWORD PTR _flags$[ebp]
	and	eax, -17				; ffffffefH
	mov	ecx, DWORD PTR _pEntity$[ebp]
	mov	edx, DWORD PTR [ecx+4]
	mov	DWORD PTR [edx+420], eax
$LN16@UTIL_Water:

; 3075 : 		}
; 3076 : 
; 3077 : 		pEntity->pev->air_finished = gpGlobals->time + 12.0f;

	mov	eax, DWORD PTR ?gpGlobals@@3PAUglobalvars_t@@A ; gpGlobals
	movss	xmm0, DWORD PTR [eax]
	addss	xmm0, DWORD PTR __real@41400000
	mov	ecx, DWORD PTR _pEntity$[ebp]
	mov	edx, DWORD PTR [ecx+4]
	movss	DWORD PTR [edx+508], xmm0

; 3078 : 		return;

	jmp	$LN1@UTIL_Water
$LN15@UTIL_Water:

; 3079 : 	}
; 3080 : 
; 3081 : 	if( watertype == CONTENTS_LAVA )

	cmp	DWORD PTR _watertype$[ebp], -5		; fffffffbH
	jne	SHORT $LN21@UTIL_Water

; 3082 : 	{
; 3083 : 		if((!( flags & FL_GODMODE )) && pEntity->pev->dmgtime < gpGlobals->time )

	mov	eax, DWORD PTR _flags$[ebp]
	and	eax, 64					; 00000040H
	jne	SHORT $LN25@UTIL_Water
	mov	eax, DWORD PTR _pEntity$[ebp]
	mov	ecx, DWORD PTR [eax+4]
	mov	edx, DWORD PTR ?gpGlobals@@3PAUglobalvars_t@@A ; gpGlobals
	movss	xmm0, DWORD PTR [edx]
	comiss	xmm0, DWORD PTR [ecx+484]
	jbe	SHORT $LN25@UTIL_Water

; 3084 : 		{
; 3085 : 			if( pEntity->pev->radsuit_finished < gpGlobals->time )

	mov	eax, DWORD PTR _pEntity$[ebp]
	mov	ecx, DWORD PTR [eax+4]
	mov	edx, DWORD PTR ?gpGlobals@@3PAUglobalvars_t@@A ; gpGlobals
	movss	xmm0, DWORD PTR [edx]
	comiss	xmm0, DWORD PTR [ecx+516]
	jbe	SHORT $LN24@UTIL_Water

; 3086 : 				pEntity->pev->dmgtime = gpGlobals->time + 0.2f;

	mov	eax, DWORD PTR ?gpGlobals@@3PAUglobalvars_t@@A ; gpGlobals
	movss	xmm0, DWORD PTR [eax]
	addss	xmm0, DWORD PTR __real@3e4ccccd
	mov	ecx, DWORD PTR _pEntity$[ebp]
	mov	edx, DWORD PTR [ecx+4]
	movss	DWORD PTR [edx+484], xmm0
	jmp	SHORT $LN25@UTIL_Water
$LN24@UTIL_Water:

; 3087 : 			else pEntity->pev->dmgtime = gpGlobals->time + 1.0f;

	mov	eax, DWORD PTR ?gpGlobals@@3PAUglobalvars_t@@A ; gpGlobals
	movss	xmm0, DWORD PTR [eax]
	addss	xmm0, DWORD PTR __real@3f800000
	mov	ecx, DWORD PTR _pEntity$[ebp]
	mov	edx, DWORD PTR [ecx+4]
	movss	DWORD PTR [edx+484], xmm0
$LN25@UTIL_Water:

; 3088 : 		}
; 3089 : 	}

	jmp	SHORT $LN28@UTIL_Water
$LN21@UTIL_Water:

; 3090 : 	else if( watertype == CONTENTS_SLIME )

	cmp	DWORD PTR _watertype$[ebp], -4		; fffffffcH
	jne	SHORT $LN28@UTIL_Water

; 3091 : 	{
; 3092 : 		if((!( flags & FL_GODMODE )) && pEntity->pev->dmgtime < gpGlobals->time )

	mov	eax, DWORD PTR _flags$[ebp]
	and	eax, 64					; 00000040H
	jne	SHORT $LN28@UTIL_Water
	mov	eax, DWORD PTR _pEntity$[ebp]
	mov	ecx, DWORD PTR [eax+4]
	mov	edx, DWORD PTR ?gpGlobals@@3PAUglobalvars_t@@A ; gpGlobals
	movss	xmm0, DWORD PTR [edx]
	comiss	xmm0, DWORD PTR [ecx+484]
	jbe	SHORT $LN28@UTIL_Water

; 3093 : 		{
; 3094 : 			if( pEntity->pev->radsuit_finished < gpGlobals->time )

	mov	eax, DWORD PTR _pEntity$[ebp]
	mov	ecx, DWORD PTR [eax+4]
	mov	edx, DWORD PTR ?gpGlobals@@3PAUglobalvars_t@@A ; gpGlobals
	movss	xmm0, DWORD PTR [edx]
	comiss	xmm0, DWORD PTR [ecx+516]
	jbe	SHORT $LN28@UTIL_Water

; 3095 : 				pEntity->pev->dmgtime = gpGlobals->time + 1.0;

	mov	eax, DWORD PTR ?gpGlobals@@3PAUglobalvars_t@@A ; gpGlobals
	cvtss2sd xmm0, DWORD PTR [eax]
	addsd	xmm0, QWORD PTR __real@3ff0000000000000
	cvtsd2ss xmm0, xmm0
	mov	ecx, DWORD PTR _pEntity$[ebp]
	mov	edx, DWORD PTR [ecx+4]
	movss	DWORD PTR [edx+484], xmm0
$LN28@UTIL_Water:

; 3096 : 			// otherwise radsuit is fully protect entity from slime
; 3097 : 		}
; 3098 : 	}
; 3099 : 
; 3100 : 	if(!( flags & FL_INWATER ))

	mov	eax, DWORD PTR _flags$[ebp]
	and	eax, 16					; 00000010H
	jne	$LN29@UTIL_Water

; 3101 : 	{
; 3102 : 		if( watertype == CONTENTS_WATER )

	cmp	DWORD PTR _watertype$[ebp], -3		; fffffffdH
	jne	$LN4@UTIL_Water

; 3103 : 		{
; 3104 : 			// entering the water
; 3105 : 			switch( RANDOM_LONG( 0, 3 ))

	push	3
	push	0
	call	DWORD PTR ?g_engfuncs@@3Uenginefuncs_s@@A+360
	add	esp, 8
	mov	DWORD PTR tv242[ebp], eax
	cmp	DWORD PTR tv242[ebp], 3
	ja	$LN4@UTIL_Water
	mov	eax, DWORD PTR tv242[ebp]
	jmp	DWORD PTR $LN40@UTIL_Water[eax*4]
$LN31@UTIL_Water:

; 3106 : 			{
; 3107 : 			case 0:
; 3108 : 				EMIT_SOUND( pEntity->edict(), CHAN_BODY, "footsteps/wade1.wav", 1.0f, ATTN_NORM );

	push	ecx
	movss	xmm0, DWORD PTR __real@3f4ccccd
	movss	DWORD PTR [esp], xmm0
	push	ecx
	movss	xmm0, DWORD PTR __real@3f800000
	movss	DWORD PTR [esp], xmm0
	push	OFFSET ??_C@_0BE@FOEPOJBH@footsteps?1wade1?4wav?$AA@
	push	4
	mov	ecx, DWORD PTR _pEntity$[ebp]
	call	?edict@CBaseEntity@@QAEPAUedict_s@@XZ	; CBaseEntity::edict
	push	eax
	call	?EMIT_SOUND@@YAXPAUedict_s@@HPBDMM@Z	; EMIT_SOUND
	add	esp, 20					; 00000014H

; 3109 : 				break;

	jmp	$LN4@UTIL_Water
$LN32@UTIL_Water:

; 3110 : 			case 1:
; 3111 : 				EMIT_SOUND( pEntity->edict(), CHAN_BODY, "footsteps/wade2.wav", 1.0f, ATTN_NORM );

	push	ecx
	movss	xmm0, DWORD PTR __real@3f4ccccd
	movss	DWORD PTR [esp], xmm0
	push	ecx
	movss	xmm0, DWORD PTR __real@3f800000
	movss	DWORD PTR [esp], xmm0
	push	OFFSET ??_C@_0BE@NINLJLLJ@footsteps?1wade2?4wav?$AA@
	push	4
	mov	ecx, DWORD PTR _pEntity$[ebp]
	call	?edict@CBaseEntity@@QAEPAUedict_s@@XZ	; CBaseEntity::edict
	push	eax
	call	?EMIT_SOUND@@YAXPAUedict_s@@HPBDMM@Z	; EMIT_SOUND
	add	esp, 20					; 00000014H

; 3112 : 				break;

	jmp	SHORT $LN4@UTIL_Water
$LN33@UTIL_Water:

; 3113 : 			case 2:
; 3114 : 				EMIT_SOUND( pEntity->edict(), CHAN_BODY, "footsteps/wade3.wav", 1.0f, ATTN_NORM );

	push	ecx
	movss	xmm0, DWORD PTR __real@3f4ccccd
	movss	DWORD PTR [esp], xmm0
	push	ecx
	movss	xmm0, DWORD PTR __real@3f800000
	movss	DWORD PTR [esp], xmm0
	push	OFFSET ??_C@_0BE@BDIHEIBM@footsteps?1wade3?4wav?$AA@
	push	4
	mov	ecx, DWORD PTR _pEntity$[ebp]
	call	?edict@CBaseEntity@@QAEPAUedict_s@@XZ	; CBaseEntity::edict
	push	eax
	call	?EMIT_SOUND@@YAXPAUedict_s@@HPBDMM@Z	; EMIT_SOUND
	add	esp, 20					; 00000014H

; 3115 : 				break;

	jmp	SHORT $LN4@UTIL_Water
$LN34@UTIL_Water:

; 3116 : 			case 3:
; 3117 : 				EMIT_SOUND( pEntity->edict(), CHAN_BODY, "footsteps/wade4.wav", 1.0f, ATTN_NORM );

	push	ecx
	movss	xmm0, DWORD PTR __real@3f4ccccd
	movss	DWORD PTR [esp], xmm0
	push	ecx
	movss	xmm0, DWORD PTR __real@3f800000
	movss	DWORD PTR [esp], xmm0
	push	OFFSET ??_C@_0BE@OICHIKE@footsteps?1wade4?4wav?$AA@
	push	4
	mov	ecx, DWORD PTR _pEntity$[ebp]
	call	?edict@CBaseEntity@@QAEPAUedict_s@@XZ	; CBaseEntity::edict
	push	eax
	call	?EMIT_SOUND@@YAXPAUedict_s@@HPBDMM@Z	; EMIT_SOUND
	add	esp, 20					; 00000014H
$LN4@UTIL_Water:

; 3118 : 				break;
; 3119 : 			}
; 3120 : 		}
; 3121 : 
; 3122 : 		pEntity->pev->flags = flags | FL_INWATER;

	mov	eax, DWORD PTR _flags$[ebp]
	or	eax, 16					; 00000010H
	mov	ecx, DWORD PTR _pEntity$[ebp]
	mov	edx, DWORD PTR [ecx+4]
	mov	DWORD PTR [edx+420], eax

; 3123 : 		pEntity->pev->dmgtime = 0.0f;

	mov	eax, DWORD PTR _pEntity$[ebp]
	mov	ecx, DWORD PTR [eax+4]
	xorps	xmm0, xmm0
	movss	DWORD PTR [ecx+484], xmm0
$LN29@UTIL_Water:

; 3124 : 	}
; 3125 : 
; 3126 : 	if(!( flags & FL_WATERJUMP ) && !pEntity->IsRigidBody( ))

	mov	eax, DWORD PTR _flags$[ebp]
	and	eax, 2048				; 00000800H
	jne	SHORT $LN35@UTIL_Water
	mov	eax, DWORD PTR _pEntity$[ebp]
	mov	edx, DWORD PTR [eax]
	mov	ecx, DWORD PTR _pEntity$[ebp]
	mov	eax, DWORD PTR [edx+76]
	call	eax
	test	eax, eax
	jne	SHORT $LN35@UTIL_Water

; 3127 : 	{
; 3128 : 		pEntity->pev->velocity += pEntity->pev->velocity * ( pEntity->pev->waterlevel * -0.8f * gpGlobals->frametime );

	mov	eax, DWORD PTR _pEntity$[ebp]
	mov	ecx, DWORD PTR [eax+4]
	cvtsi2ss xmm0, DWORD PTR [ecx+448]
	mulss	xmm0, DWORD PTR __real@bf4ccccd
	mov	edx, DWORD PTR ?gpGlobals@@3PAUglobalvars_t@@A ; gpGlobals
	mulss	xmm0, DWORD PTR [edx+4]
	push	ecx
	movss	DWORD PTR [esp], xmm0
	lea	eax, DWORD PTR $T1[ebp]
	push	eax
	mov	ecx, DWORD PTR _pEntity$[ebp]
	mov	ecx, DWORD PTR [ecx+4]
	add	ecx, 32					; 00000020H
	call	??DVector@@QBE?AV0@M@Z			; Vector::operator*
	push	eax
	mov	edx, DWORD PTR _pEntity$[ebp]
	mov	ecx, DWORD PTR [edx+4]
	add	ecx, 32					; 00000020H
	call	??YVector@@QAEAAV0@ABV0@@Z		; Vector::operator+=
$LN35@UTIL_Water:
$LN1@UTIL_Water:

; 3129 : 	}
; 3130 : }

	pop	edi
	pop	esi
	pop	ebx
	mov	esp, ebp
	pop	ebp
	ret	0
	npad	1
$LN39@UTIL_Water:
	DD	$LN17@UTIL_Water
	DD	$LN18@UTIL_Water
	DD	$LN19@UTIL_Water
	DD	$LN20@UTIL_Water
$LN40@UTIL_Water:
	DD	$LN31@UTIL_Water
	DD	$LN32@UTIL_Water
	DD	$LN33@UTIL_Water
	DD	$LN34@UTIL_Water
?UTIL_WaterMove@@YAXPAVCBaseEntity@@@Z ENDP		; UTIL_WaterMove
_TEXT	ENDS
; Function compile flags: /Odtp /ZI
; File d:\!diffusion 2020\source code 2022\client-server\server\util.cpp
;	COMDAT ?UTIL_DropToFloor@@YAHPAVCBaseEntity@@@Z
_TEXT	SEGMENT
tv70 = -160						; size = 4
$T1 = -156						; size = 12
_vecEnd$ = -80						; size = 12
_vecStart$ = -68					; size = 12
_trace$ = -56						; size = 56
_pEntity$ = 8						; size = 4
?UTIL_DropToFloor@@YAHPAVCBaseEntity@@@Z PROC		; UTIL_DropToFloor, COMDAT

; 2883 : {

	push	ebp
	mov	ebp, esp
	sub	esp, 160				; 000000a0H
	push	ebx
	push	esi
	push	edi

; 2884 : 	ASSERT( pEntity != NULL );

	cmp	DWORD PTR _pEntity$[ebp], 0
	je	SHORT $LN7@UTIL_DropT
	mov	DWORD PTR tv70[ebp], 1
	jmp	SHORT $LN8@UTIL_DropT
$LN7@UTIL_DropT:
	mov	DWORD PTR tv70[ebp], 0
$LN8@UTIL_DropT:
	push	0
	mov	eax, DWORD PTR ?__LINE__Var@?0??UTIL_DropToFloor@@YAHPAVCBaseEntity@@@Z@4JA
	add	eax, 1
	push	eax
	push	OFFSET ??_C@_0EC@HIIDFEJP@d?3?2?$CBdiffusion?52020?2source?5code?52@
	push	OFFSET ??_C@_0BA@LOGAJLJO@pEntity?5?$CB?$DN?5NULL?$AA@
	mov	ecx, DWORD PTR tv70[ebp]
	push	ecx
	call	?DBG_AssertFunction@@YAXHPBD0H0@Z	; DBG_AssertFunction
	add	esp, 20					; 00000014H

; 2885 : 
; 2886 : 	// Assume no ground
; 2887 : //	pEntity->ClearGroundEntity();
; 2888 : 
; 2889 : 	TraceResult trace;

	lea	ecx, DWORD PTR _trace$[ebp]
	call	??0gametrace_s@@QAE@XZ

; 2890 : 	Vector vecStart = pEntity->GetAbsOrigin();

	mov	ecx, DWORD PTR _pEntity$[ebp]
	call	?GetAbsOrigin@CBaseEntity@@QBEABVVector@@XZ ; CBaseEntity::GetAbsOrigin
	push	eax
	lea	ecx, DWORD PTR _vecStart$[ebp]
	call	??0Vector@@QAE@ABV0@@Z			; Vector::Vector

; 2891 : 	Vector vecEnd = pEntity->GetAbsOrigin() - Vector( 0, 0, 256 );

	push	ecx
	movss	xmm0, DWORD PTR __real@43800000
	movss	DWORD PTR [esp], xmm0
	push	ecx
	xorps	xmm0, xmm0
	movss	DWORD PTR [esp], xmm0
	push	ecx
	xorps	xmm0, xmm0
	movss	DWORD PTR [esp], xmm0
	lea	ecx, DWORD PTR $T1[ebp]
	call	??0Vector@@QAE@MMM@Z			; Vector::Vector
	push	eax
	lea	eax, DWORD PTR _vecEnd$[ebp]
	push	eax
	mov	ecx, DWORD PTR _pEntity$[ebp]
	call	?GetAbsOrigin@CBaseEntity@@QBEABVVector@@XZ ; CBaseEntity::GetAbsOrigin
	mov	ecx, eax
	call	??GVector@@QBE?AV0@ABV0@@Z		; Vector::operator-

; 2892 : 
; 2893 : 	if( FBitSet( pEntity->pev->iuser1, CF_STATIC_ENTITY )) TRACE_LINE( vecStart, vecEnd, TRUE, pEntity->edict(), &trace );

	mov	eax, DWORD PTR _pEntity$[ebp]
	mov	ecx, DWORD PTR [eax+4]
	mov	edx, DWORD PTR [ecx+580]
	and	edx, 64					; 00000040H
	je	SHORT $LN2@UTIL_DropT
	lea	eax, DWORD PTR _trace$[ebp]
	push	eax
	mov	ecx, DWORD PTR _pEntity$[ebp]
	call	?edict@CBaseEntity@@QAEPAUedict_s@@XZ	; CBaseEntity::edict
	push	eax
	push	1
	lea	ecx, DWORD PTR _vecEnd$[ebp]
	call	??BVector@@QAEPAMXZ			; Vector::operator float *
	push	eax
	lea	ecx, DWORD PTR _vecStart$[ebp]
	call	??BVector@@QAEPAMXZ			; Vector::operator float *
	push	eax
	call	DWORD PTR ?g_engfuncs@@3Uenginefuncs_s@@A+124
	add	esp, 20					; 00000014H
	jmp	SHORT $LN3@UTIL_DropT
$LN2@UTIL_DropT:

; 2894 : 	else TRACE_MONSTER_HULL( pEntity->edict(), vecStart, vecEnd, dont_ignore_monsters, pEntity->edict(), &trace );

	lea	eax, DWORD PTR _trace$[ebp]
	push	eax
	mov	ecx, DWORD PTR _pEntity$[ebp]
	call	?edict@CBaseEntity@@QAEPAUedict_s@@XZ	; CBaseEntity::edict
	push	eax
	push	0
	lea	ecx, DWORD PTR _vecEnd$[ebp]
	call	??BVector@@QAEPAMXZ			; Vector::operator float *
	push	eax
	lea	ecx, DWORD PTR _vecStart$[ebp]
	call	??BVector@@QAEPAMXZ			; Vector::operator float *
	push	eax
	mov	ecx, DWORD PTR _pEntity$[ebp]
	call	?edict@CBaseEntity@@QAEPAUedict_s@@XZ	; CBaseEntity::edict
	push	eax
	call	DWORD PTR ?g_engfuncs@@3Uenginefuncs_s@@A+132
	add	esp, 24					; 00000018H
$LN3@UTIL_DropT:

; 2895 : 
; 2896 : 	if( trace.fAllSolid )

	cmp	DWORD PTR _trace$[ebp], 0
	je	SHORT $LN4@UTIL_DropT

; 2897 : 		return -1;

	or	eax, -1
	jmp	SHORT $LN1@UTIL_DropT
$LN4@UTIL_DropT:

; 2898 : 
; 2899 : 	if( trace.flFraction == 1.0f )

	movss	xmm0, DWORD PTR _trace$[ebp+16]
	ucomiss	xmm0, DWORD PTR __real@3f800000
	lahf
	test	ah, 68					; 00000044H
	jp	SHORT $LN5@UTIL_DropT

; 2900 : 		return 0;

	xor	eax, eax
	jmp	SHORT $LN1@UTIL_DropT
$LN5@UTIL_DropT:

; 2901 : 
; 2902 : 	pEntity->SetAbsOrigin( trace.vecEndPos );

	lea	eax, DWORD PTR _trace$[ebp+20]
	push	eax
	mov	ecx, DWORD PTR _pEntity$[ebp]
	call	?SetAbsOrigin@CBaseEntity@@QAEXABVVector@@@Z ; CBaseEntity::SetAbsOrigin

; 2903 : 	pEntity->SetGroundEntity( trace.pHit );

	mov	eax, DWORD PTR _trace$[ebp+48]
	push	eax
	mov	ecx, DWORD PTR _pEntity$[ebp]
	call	?SetGroundEntity@CBaseEntity@@QAEXPAUedict_s@@@Z ; CBaseEntity::SetGroundEntity

; 2904 : 
; 2905 : 	return 1;

	mov	eax, 1
$LN1@UTIL_DropT:

; 2906 : }

	pop	edi
	pop	esi
	pop	ebx
	mov	esp, ebp
	pop	ebp
	ret	0
?UTIL_DropToFloor@@YAHPAVCBaseEntity@@@Z ENDP		; UTIL_DropToFloor
_TEXT	ENDS
; Function compile flags: /Odtp /ZI
; File d:\!diffusion 2020\source code 2022\client-server\server\util.cpp
;	COMDAT ?UTIL_CombineTraces@@YA?AUtrace_s@@PAU1@0PAVCBaseEntity@@@Z
_TEXT	SEGMENT
$T1 = -120						; size = 56
$T2 = 8							; size = 4
_cliptrace$ = 12					; size = 4
_trace$ = 16						; size = 4
_pTouch$ = 20						; size = 4
?UTIL_CombineTraces@@YA?AUtrace_s@@PAU1@0PAVCBaseEntity@@@Z PROC ; UTIL_CombineTraces, COMDAT

; 2996 : {

	push	ebp
	mov	ebp, esp
	sub	esp, 120				; 00000078H
	push	ebx
	push	esi
	push	edi

; 2997 : 	if( trace->allsolid || trace->startsolid || trace->fraction < cliptrace->fraction )

	mov	eax, DWORD PTR _trace$[ebp]
	cmp	DWORD PTR [eax], 0
	jne	SHORT $LN3@UTIL_Combi
	mov	eax, DWORD PTR _trace$[ebp]
	cmp	DWORD PTR [eax+4], 0
	jne	SHORT $LN3@UTIL_Combi
	mov	eax, DWORD PTR _cliptrace$[ebp]
	mov	ecx, DWORD PTR _trace$[ebp]
	movss	xmm0, DWORD PTR [eax+16]
	comiss	xmm0, DWORD PTR [ecx+16]
	jbe	SHORT $LN5@UTIL_Combi
$LN3@UTIL_Combi:

; 2998 : 	{
; 2999 : 		trace->ent = pTouch->edict();

	mov	ecx, DWORD PTR _pTouch$[ebp]
	call	?edict@CBaseEntity@@QAEPAUedict_s@@XZ	; CBaseEntity::edict
	mov	ecx, DWORD PTR _trace$[ebp]
	mov	DWORD PTR [ecx+48], eax

; 3000 : 		
; 3001 : 		if( cliptrace->startsolid )

	mov	eax, DWORD PTR _cliptrace$[ebp]
	cmp	DWORD PTR [eax+4], 0
	je	SHORT $LN4@UTIL_Combi

; 3002 : 		{
; 3003 : 			*cliptrace = *trace;

	mov	ecx, 14					; 0000000eH
	mov	esi, DWORD PTR _trace$[ebp]
	mov	edi, DWORD PTR _cliptrace$[ebp]
	rep movsd

; 3004 : 			cliptrace->startsolid = true;

	mov	eax, DWORD PTR _cliptrace$[ebp]
	mov	DWORD PTR [eax+4], 1
	jmp	SHORT $LN5@UTIL_Combi
$LN4@UTIL_Combi:

; 3005 : 		}
; 3006 : 		else *cliptrace = *trace;

	mov	ecx, 14					; 0000000eH
	mov	esi, DWORD PTR _trace$[ebp]
	mov	edi, DWORD PTR _cliptrace$[ebp]
	rep movsd
$LN5@UTIL_Combi:

; 3007 : 	}
; 3008 : 
; 3009 : 	return *cliptrace;

	mov	eax, DWORD PTR _cliptrace$[ebp]
	push	eax
	lea	ecx, DWORD PTR $T1[ebp]
	call	??0trace_s@@QAE@ABU0@@Z
	mov	ecx, 14					; 0000000eH
	mov	esi, eax
	mov	edi, DWORD PTR $T2[ebp]
	rep movsd
	mov	eax, DWORD PTR $T2[ebp]

; 3010 : }

	pop	edi
	pop	esi
	pop	ebx
	mov	esp, ebp
	pop	ebp
	ret	0
?UTIL_CombineTraces@@YA?AUtrace_s@@PAU1@0PAVCBaseEntity@@@Z ENDP ; UTIL_CombineTraces
_TEXT	ENDS
; Function compile flags: /Odtp /ZI
; File d:\!diffusion 2020\source code 2022\client-server\server\util.cpp
;	COMDAT ?UTIL_MoveBounds@@YAXABVVector@@000AAV1@1@Z
_TEXT	SEGMENT
tv203 = -72						; size = 4
tv201 = -72						; size = 4
tv199 = -72						; size = 4
tv197 = -72						; size = 4
_i$1 = -4						; size = 4
_start$ = 8						; size = 4
_mins$ = 12						; size = 4
_maxs$ = 16						; size = 4
_end$ = 20						; size = 4
_outmins$ = 24						; size = 4
_outmaxs$ = 28						; size = 4
?UTIL_MoveBounds@@YAXABVVector@@000AAV1@1@Z PROC	; UTIL_MoveBounds, COMDAT

; 2979 : {

	push	ebp
	mov	ebp, esp
	sub	esp, 72					; 00000048H
	push	ebx
	push	esi
	push	edi

; 2980 : 	for( int i = 0; i < 3; i++ )

	mov	DWORD PTR _i$1[ebp], 0
	jmp	SHORT $LN4@UTIL_MoveB
$LN2@UTIL_MoveB:
	mov	eax, DWORD PTR _i$1[ebp]
	add	eax, 1
	mov	DWORD PTR _i$1[ebp], eax
$LN4@UTIL_MoveB:
	cmp	DWORD PTR _i$1[ebp], 3
	jge	$LN3@UTIL_MoveB

; 2981 : 	{
; 2982 : 		if( end[i] > start[i] )

	mov	ecx, DWORD PTR _end$[ebp]
	call	??BVector@@QBEPBMXZ			; Vector::operator float const *
	mov	esi, eax
	mov	ecx, DWORD PTR _start$[ebp]
	call	??BVector@@QBEPBMXZ			; Vector::operator float const *
	mov	ecx, DWORD PTR _i$1[ebp]
	mov	edx, DWORD PTR _i$1[ebp]
	movss	xmm0, DWORD PTR [esi+ecx*4]
	comiss	xmm0, DWORD PTR [eax+edx*4]
	jbe	$LN5@UTIL_MoveB

; 2983 : 		{
; 2984 : 			outmins[i] = start[i] + mins[i] - 1;

	mov	ecx, DWORD PTR _start$[ebp]
	call	??BVector@@QBEPBMXZ			; Vector::operator float const *
	mov	esi, eax
	mov	ecx, DWORD PTR _mins$[ebp]
	call	??BVector@@QBEPBMXZ			; Vector::operator float const *
	mov	ecx, DWORD PTR _i$1[ebp]
	mov	edx, DWORD PTR _i$1[ebp]
	movss	xmm0, DWORD PTR [esi+ecx*4]
	addss	xmm0, DWORD PTR [eax+edx*4]
	subss	xmm0, DWORD PTR __real@3f800000
	mov	ecx, DWORD PTR _outmins$[ebp]
	movss	DWORD PTR tv197[ebp], xmm0
	call	??BVector@@QAEPAMXZ			; Vector::operator float *
	mov	ecx, DWORD PTR _i$1[ebp]
	movss	xmm0, DWORD PTR tv197[ebp]
	movss	DWORD PTR [eax+ecx*4], xmm0

; 2985 : 			outmaxs[i] = end[i] + maxs[i] + 1;

	mov	ecx, DWORD PTR _end$[ebp]
	call	??BVector@@QBEPBMXZ			; Vector::operator float const *
	mov	esi, eax
	mov	ecx, DWORD PTR _maxs$[ebp]
	call	??BVector@@QBEPBMXZ			; Vector::operator float const *
	mov	ecx, DWORD PTR _i$1[ebp]
	mov	edx, DWORD PTR _i$1[ebp]
	movss	xmm0, DWORD PTR [esi+ecx*4]
	addss	xmm0, DWORD PTR [eax+edx*4]
	addss	xmm0, DWORD PTR __real@3f800000
	mov	ecx, DWORD PTR _outmaxs$[ebp]
	movss	DWORD PTR tv199[ebp], xmm0
	call	??BVector@@QAEPAMXZ			; Vector::operator float *
	mov	ecx, DWORD PTR _i$1[ebp]
	movss	xmm0, DWORD PTR tv199[ebp]
	movss	DWORD PTR [eax+ecx*4], xmm0

; 2986 : 		}
; 2987 : 		else

	jmp	$LN6@UTIL_MoveB
$LN5@UTIL_MoveB:

; 2988 : 		{
; 2989 : 			outmins[i] = end[i] + mins[i] - 1;

	mov	ecx, DWORD PTR _end$[ebp]
	call	??BVector@@QBEPBMXZ			; Vector::operator float const *
	mov	esi, eax
	mov	ecx, DWORD PTR _mins$[ebp]
	call	??BVector@@QBEPBMXZ			; Vector::operator float const *
	mov	ecx, DWORD PTR _i$1[ebp]
	mov	edx, DWORD PTR _i$1[ebp]
	movss	xmm0, DWORD PTR [esi+ecx*4]
	addss	xmm0, DWORD PTR [eax+edx*4]
	subss	xmm0, DWORD PTR __real@3f800000
	mov	ecx, DWORD PTR _outmins$[ebp]
	movss	DWORD PTR tv201[ebp], xmm0
	call	??BVector@@QAEPAMXZ			; Vector::operator float *
	mov	ecx, DWORD PTR _i$1[ebp]
	movss	xmm0, DWORD PTR tv201[ebp]
	movss	DWORD PTR [eax+ecx*4], xmm0

; 2990 : 			outmaxs[i] = start[i] + maxs[i] + 1;

	mov	ecx, DWORD PTR _start$[ebp]
	call	??BVector@@QBEPBMXZ			; Vector::operator float const *
	mov	esi, eax
	mov	ecx, DWORD PTR _maxs$[ebp]
	call	??BVector@@QBEPBMXZ			; Vector::operator float const *
	mov	ecx, DWORD PTR _i$1[ebp]
	mov	edx, DWORD PTR _i$1[ebp]
	movss	xmm0, DWORD PTR [esi+ecx*4]
	addss	xmm0, DWORD PTR [eax+edx*4]
	addss	xmm0, DWORD PTR __real@3f800000
	mov	ecx, DWORD PTR _outmaxs$[ebp]
	movss	DWORD PTR tv203[ebp], xmm0
	call	??BVector@@QAEPAMXZ			; Vector::operator float *
	mov	ecx, DWORD PTR _i$1[ebp]
	movss	xmm0, DWORD PTR tv203[ebp]
	movss	DWORD PTR [eax+ecx*4], xmm0
$LN6@UTIL_MoveB:

; 2991 : 		}
; 2992 : 	}

	jmp	$LN2@UTIL_MoveB
$LN3@UTIL_MoveB:

; 2993 : }

	pop	edi
	pop	esi
	pop	ebx
	mov	esp, ebp
	pop	ebp
	ret	0
?UTIL_MoveBounds@@YAXABVVector@@000AAV1@1@Z ENDP	; UTIL_MoveBounds
_TEXT	ENDS
; Function compile flags: /Odtp /ZI
; File d:\!diffusion 2020\source code 2022\client-server\server\util.cpp
;	COMDAT ?UTIL_AreaNode@@YAXVVector@@0HP6AXPAVCBaseEntity@@@Z@Z
_TEXT	SEGMENT
_clip$ = -32						; size = 32
_vecAbsMin$ = 8						; size = 12
_vecAbsMax$ = 20					; size = 12
_type$ = 32						; size = 4
_pfnCallback$ = 36					; size = 4
?UTIL_AreaNode@@YAXVVector@@0HP6AXPAVCBaseEntity@@@Z@Z PROC ; UTIL_AreaNode, COMDAT

; 2868 : {

	push	ebp
	mov	ebp, esp
	sub	esp, 96					; 00000060H
	push	ebx
	push	esi
	push	edi

; 2869 : 	areaclip_t clip;

	lea	ecx, DWORD PTR _clip$[ebp]
	call	??0areaclip_t@@QAE@XZ

; 2870 : 
; 2871 : 	clip.vecAbsMin = vecAbsMin;

	mov	eax, DWORD PTR _vecAbsMin$[ebp]
	mov	DWORD PTR _clip$[ebp], eax
	mov	ecx, DWORD PTR _vecAbsMin$[ebp+4]
	mov	DWORD PTR _clip$[ebp+4], ecx
	mov	edx, DWORD PTR _vecAbsMin$[ebp+8]
	mov	DWORD PTR _clip$[ebp+8], edx

; 2872 : 	clip.vecAbsMax = vecAbsMax;

	mov	eax, DWORD PTR _vecAbsMax$[ebp]
	mov	DWORD PTR _clip$[ebp+12], eax
	mov	ecx, DWORD PTR _vecAbsMax$[ebp+4]
	mov	DWORD PTR _clip$[ebp+16], ecx
	mov	edx, DWORD PTR _vecAbsMax$[ebp+8]
	mov	DWORD PTR _clip$[ebp+20], edx

; 2873 : 	clip.m_pfnCallback = pfnCallback;

	mov	eax, DWORD PTR _pfnCallback$[ebp]
	mov	DWORD PTR _clip$[ebp+24], eax

; 2874 : 	clip.area_type = type;

	mov	eax, DWORD PTR _type$[ebp]
	mov	DWORD PTR _clip$[ebp+28], eax

; 2875 : 
; 2876 : 	UTIL_RecursiveWalkNodes( &clip, GET_AREANODE() );

	call	DWORD PTR ?g_physfuncs@@3Userver_physics_api_s@@A+16
	push	eax
	lea	eax, DWORD PTR _clip$[ebp]
	push	eax
	call	?UTIL_RecursiveWalkNodes@@YAXPAUareaclip_t@@PAUareanode_s@@@Z ; UTIL_RecursiveWalkNodes
	add	esp, 8

; 2877 : }

	pop	edi
	pop	esi
	pop	ebx
	mov	esp, ebp
	pop	ebp
	ret	0
?UTIL_AreaNode@@YAXVVector@@0HP6AXPAVCBaseEntity@@@Z@Z ENDP ; UTIL_AreaNode
_TEXT	ENDS
; Function compile flags: /Odtp /ZI
; File d:\!diffusion 2020\source code 2022\client-server\server\util.cpp
;	COMDAT ?UTIL_HullForBsp@@YAPAUhull_s@@PAVCBaseEntity@@ABVVector@@1AAV3@@Z
_TEXT	SEGMENT
$T1 = -108						; size = 12
$T2 = -96						; size = 12
_size$ = -20						; size = 12
_model$ = -8						; size = 4
_hull$ = -4						; size = 4
_pEntity$ = 8						; size = 4
_mins$ = 12						; size = 4
_maxs$ = 16						; size = 4
_offset$ = 20						; size = 4
?UTIL_HullForBsp@@YAPAUhull_s@@PAVCBaseEntity@@ABVVector@@1AAV3@@Z PROC ; UTIL_HullForBsp, COMDAT

; 2916 : {

	push	ebp
	mov	ebp, esp
	sub	esp, 108				; 0000006cH
	push	ebx
	push	esi
	push	edi

; 2917 : 	hull_t *hull;
; 2918 : 	model_t *model;
; 2919 : 	Vector size;

	lea	ecx, DWORD PTR _size$[ebp]
	call	??0Vector@@QAE@XZ			; Vector::Vector

; 2920 : 			
; 2921 : 	// decide which clipping hull to use, based on the size
; 2922 : 	model = (model_t *)MODEL_HANDLE( pEntity->pev->modelindex );

	mov	eax, DWORD PTR _pEntity$[ebp]
	mov	ecx, DWORD PTR [eax+4]
	mov	edx, DWORD PTR [ecx+180]
	push	edx
	call	DWORD PTR ?g_physfuncs@@3Userver_physics_api_s@@A+12
	add	esp, 4
	mov	DWORD PTR _model$[ebp], eax

; 2923 : 
; 2924 : 	if( !model || model->type != mod_brush )

	cmp	DWORD PTR _model$[ebp], 0
	je	SHORT $LN3@UTIL_HullF
	mov	eax, DWORD PTR _model$[ebp]
	cmp	DWORD PTR [eax+68], 0
	je	SHORT $LN2@UTIL_HullF
$LN3@UTIL_HullF:

; 2925 : 		HOST_ERROR( "Entity %i SOLID_BSP with a non bsp model %i (name: %s)\n", pEntity->entindex(), model->type, pEntity->GetTargetname() );

	mov	ecx, DWORD PTR _pEntity$[ebp]
	call	?GetTargetname@CBaseEntity@@QAEPBDXZ	; CBaseEntity::GetTargetname
	push	eax
	mov	eax, DWORD PTR _model$[ebp]
	mov	ecx, DWORD PTR [eax+68]
	push	ecx
	mov	ecx, DWORD PTR _pEntity$[ebp]
	call	?entindex@CBaseEntity@@QAEHXZ		; CBaseEntity::entindex
	push	eax
	push	OFFSET ??_C@_0DI@FMOBHFJP@Entity?5?$CFi?5SOLID_BSP?5with?5a?5non?5b@
	call	DWORD PTR ?g_physfuncs@@3Userver_physics_api_s@@A+24
	add	esp, 16					; 00000010H
$LN2@UTIL_HullF:

; 2926 : 
; 2927 : 	size = maxs - mins;

	mov	eax, DWORD PTR _mins$[ebp]
	push	eax
	lea	ecx, DWORD PTR $T2[ebp]
	push	ecx
	mov	ecx, DWORD PTR _maxs$[ebp]
	call	??GVector@@QBE?AV0@ABV0@@Z		; Vector::operator-
	mov	edx, DWORD PTR [eax]
	mov	DWORD PTR _size$[ebp], edx
	mov	ecx, DWORD PTR [eax+4]
	mov	DWORD PTR _size$[ebp+4], ecx
	mov	edx, DWORD PTR [eax+8]
	mov	DWORD PTR _size$[ebp+8], edx

; 2928 : 
; 2929 : 	if( size[0] <= 8.0f || model->flags & 4 ) // a MODEL_LIQUID flag

	lea	ecx, DWORD PTR _size$[ebp]
	call	??BVector@@QAEPAMXZ			; Vector::operator float *
	mov	ecx, 4
	imul	edx, ecx, 0
	movss	xmm0, DWORD PTR __real@41000000
	comiss	xmm0, DWORD PTR [eax+edx]
	jae	SHORT $LN6@UTIL_HullF
	mov	eax, DWORD PTR _model$[ebp]
	mov	ecx, DWORD PTR [eax+80]
	and	ecx, 4
	je	SHORT $LN4@UTIL_HullF
$LN6@UTIL_HullF:

; 2930 : 	{
; 2931 : 		hull = &model->hulls[0];

	mov	eax, 40					; 00000028H
	imul	ecx, eax, 0
	mov	edx, DWORD PTR _model$[ebp]
	lea	eax, DWORD PTR [edx+ecx+208]
	mov	DWORD PTR _hull$[ebp], eax

; 2932 : 		offset = hull->clip_mins; 

	mov	eax, DWORD PTR _hull$[ebp]
	add	eax, 16					; 00000010H
	mov	ecx, DWORD PTR _offset$[ebp]
	mov	edx, DWORD PTR [eax]
	mov	DWORD PTR [ecx], edx
	mov	edx, DWORD PTR [eax+4]
	mov	DWORD PTR [ecx+4], edx
	mov	eax, DWORD PTR [eax+8]
	mov	DWORD PTR [ecx+8], eax

; 2933 : 	}
; 2934 : 	else

	jmp	$LN5@UTIL_HullF
$LN4@UTIL_HullF:

; 2935 : 	{
; 2936 : 		if( size[0] <= 36.0f )

	lea	ecx, DWORD PTR _size$[ebp]
	call	??BVector@@QAEPAMXZ			; Vector::operator float *
	mov	ecx, 4
	imul	edx, ecx, 0
	movss	xmm0, DWORD PTR __real@42100000
	comiss	xmm0, DWORD PTR [eax+edx]
	jb	SHORT $LN7@UTIL_HullF

; 2937 : 		{
; 2938 : 			if( size[2] <= 36.0f )

	lea	ecx, DWORD PTR _size$[ebp]
	call	??BVector@@QAEPAMXZ			; Vector::operator float *
	mov	ecx, 4
	shl	ecx, 1
	movss	xmm0, DWORD PTR __real@42100000
	comiss	xmm0, DWORD PTR [eax+ecx]
	jb	SHORT $LN9@UTIL_HullF

; 2939 : 				hull = &model->hulls[3];

	mov	eax, 40					; 00000028H
	imul	ecx, eax, 3
	mov	edx, DWORD PTR _model$[ebp]
	lea	eax, DWORD PTR [edx+ecx+208]
	mov	DWORD PTR _hull$[ebp], eax
	jmp	SHORT $LN10@UTIL_HullF
$LN9@UTIL_HullF:

; 2940 : 			else hull = &model->hulls[1];

	mov	eax, 40					; 00000028H
	shl	eax, 0
	mov	ecx, DWORD PTR _model$[ebp]
	lea	edx, DWORD PTR [ecx+eax+208]
	mov	DWORD PTR _hull$[ebp], edx
$LN10@UTIL_HullF:
	jmp	SHORT $LN8@UTIL_HullF
$LN7@UTIL_HullF:

; 2941 : 		}
; 2942 : 		else hull = &model->hulls[2];

	mov	eax, 40					; 00000028H
	shl	eax, 1
	mov	ecx, DWORD PTR _model$[ebp]
	lea	edx, DWORD PTR [ecx+eax+208]
	mov	DWORD PTR _hull$[ebp], edx
$LN8@UTIL_HullF:

; 2943 : 
; 2944 : 		offset = hull->clip_mins - mins;

	mov	eax, DWORD PTR _mins$[ebp]
	push	eax
	lea	ecx, DWORD PTR $T1[ebp]
	push	ecx
	mov	ecx, DWORD PTR _hull$[ebp]
	add	ecx, 16					; 00000010H
	call	??GVector@@QBE?AV0@ABV0@@Z		; Vector::operator-
	mov	edx, DWORD PTR _offset$[ebp]
	mov	ecx, DWORD PTR [eax]
	mov	DWORD PTR [edx], ecx
	mov	ecx, DWORD PTR [eax+4]
	mov	DWORD PTR [edx+4], ecx
	mov	eax, DWORD PTR [eax+8]
	mov	DWORD PTR [edx+8], eax
$LN5@UTIL_HullF:

; 2945 : 	}
; 2946 : 
; 2947 : 	offset += pEntity->GetAbsOrigin();

	mov	ecx, DWORD PTR _pEntity$[ebp]
	call	?GetAbsOrigin@CBaseEntity@@QBEABVVector@@XZ ; CBaseEntity::GetAbsOrigin
	push	eax
	mov	ecx, DWORD PTR _offset$[ebp]
	call	??YVector@@QAEAAV0@ABV0@@Z		; Vector::operator+=

; 2948 : 
; 2949 : 	return hull;

	mov	eax, DWORD PTR _hull$[ebp]

; 2950 : }

	pop	edi
	pop	esi
	pop	ebx
	mov	esp, ebp
	pop	ebp
	ret	0
?UTIL_HullForBsp@@YAPAUhull_s@@PAVCBaseEntity@@ABVVector@@1AAV3@@Z ENDP ; UTIL_HullForBsp
_TEXT	ENDS
; Function compile flags: /Odtp /ZI
; File d:\!diffusion 2020\source code 2022\client-server\server\util.cpp
;	COMDAT ?UTIL_HullPointContents@@YAHPAUhull_s@@HABVVector@@@Z
_TEXT	SEGMENT
tv128 = -76						; size = 4
tv92 = -72						; size = 4
_plane$ = -4						; size = 4
_hull$ = 8						; size = 4
_num$ = 12						; size = 4
_p$ = 16						; size = 4
?UTIL_HullPointContents@@YAHPAUhull_s@@HABVVector@@@Z PROC ; UTIL_HullPointContents, COMDAT

; 2959 : {

	push	ebp
	mov	ebp, esp
	sub	esp, 76					; 0000004cH
	push	ebx
	push	esi
	push	edi

; 2960 : 	mplane_t *plane;
; 2961 : 
; 2962 : 	if( !hull || !hull->planes )	// in case we restore saved game while map is changed

	cmp	DWORD PTR _hull$[ebp], 0
	je	SHORT $LN5@UTIL_HullP
	mov	eax, DWORD PTR _hull$[ebp]
	cmp	DWORD PTR [eax+4], 0
	jne	SHORT $LN4@UTIL_HullP
$LN5@UTIL_HullP:

; 2963 : 		return CONTENTS_NONE;

	xor	eax, eax
	jmp	$LN1@UTIL_HullP
$LN4@UTIL_HullP:

; 2964 : 
; 2965 : 	while( num >= 0 )

	cmp	DWORD PTR _num$[ebp], 0
	jl	$LN3@UTIL_HullP

; 2966 : 	{
; 2967 : 		plane = &hull->planes[hull->clipnodes[num].planenum];

	mov	eax, DWORD PTR _hull$[ebp]
	mov	ecx, DWORD PTR [eax]
	mov	edx, DWORD PTR _num$[ebp]
	imul	eax, DWORD PTR [ecx+edx*8], 20
	mov	ecx, DWORD PTR _hull$[ebp]
	add	eax, DWORD PTR [ecx+4]
	mov	DWORD PTR _plane$[ebp], eax

; 2968 : 		num = hull->clipnodes[num].children[PlaneDiff( p, plane ) < 0];

	mov	eax, DWORD PTR _plane$[ebp]
	movzx	ecx, BYTE PTR [eax+16]
	cmp	ecx, 3
	jge	SHORT $LN7@UTIL_HullP
	mov	ecx, DWORD PTR _p$[ebp]
	call	??BVector@@QBEPBMXZ			; Vector::operator float const *
	mov	edx, DWORD PTR _plane$[ebp]
	movzx	ecx, BYTE PTR [edx+16]
	movss	xmm0, DWORD PTR [eax+ecx*4]
	movss	DWORD PTR tv92[ebp], xmm0
	jmp	SHORT $LN8@UTIL_HullP
$LN7@UTIL_HullP:
	mov	edx, DWORD PTR _plane$[ebp]
	push	edx
	mov	eax, DWORD PTR _p$[ebp]
	push	eax
	call	?DotProduct@@YAMABVVector@@0@Z		; DotProduct
	add	esp, 8
	fstp	DWORD PTR tv92[ebp]
$LN8@UTIL_HullP:
	mov	ecx, DWORD PTR _plane$[ebp]
	movss	xmm0, DWORD PTR tv92[ebp]
	subss	xmm0, DWORD PTR [ecx+12]
	xorps	xmm1, xmm1
	comiss	xmm1, xmm0
	jbe	SHORT $LN9@UTIL_HullP
	mov	DWORD PTR tv128[ebp], 1
	jmp	SHORT $LN10@UTIL_HullP
$LN9@UTIL_HullP:
	mov	DWORD PTR tv128[ebp], 0
$LN10@UTIL_HullP:
	mov	edx, DWORD PTR _hull$[ebp]
	mov	eax, DWORD PTR [edx]
	mov	ecx, DWORD PTR _num$[ebp]
	lea	edx, DWORD PTR [eax+ecx*8]
	mov	eax, DWORD PTR tv128[ebp]
	movsx	ecx, WORD PTR [edx+eax*2+4]
	mov	DWORD PTR _num$[ebp], ecx

; 2969 : 	}

	jmp	$LN4@UTIL_HullP
$LN3@UTIL_HullP:

; 2970 : 	return num;

	mov	eax, DWORD PTR _num$[ebp]
$LN1@UTIL_HullP:

; 2971 : }

	pop	edi
	pop	esi
	pop	ebx
	mov	esp, ebp
	pop	ebp
	ret	0
?UTIL_HullPointContents@@YAHPAUhull_s@@HABVVector@@@Z ENDP ; UTIL_HullPointContents
_TEXT	ENDS
; Function compile flags: /Odtp /ZI
;	COMDAT ??0areaclip_t@@QAE@XZ
_TEXT	SEGMENT
_this$ = -4						; size = 4
??0areaclip_t@@QAE@XZ PROC				; areaclip_t::areaclip_t, COMDAT
; _this$ = ecx
	push	ebp
	mov	ebp, esp
	sub	esp, 68					; 00000044H
	push	ebx
	push	esi
	push	edi
	mov	DWORD PTR _this$[ebp], ecx
	mov	ecx, DWORD PTR _this$[ebp]
	call	??0Vector@@QAE@XZ			; Vector::Vector
	mov	ecx, DWORD PTR _this$[ebp]
	add	ecx, 12					; 0000000cH
	call	??0Vector@@QAE@XZ			; Vector::Vector
	mov	eax, DWORD PTR _this$[ebp]
	pop	edi
	pop	esi
	pop	ebx
	mov	esp, ebp
	pop	ebp
	ret	0
??0areaclip_t@@QAE@XZ ENDP				; areaclip_t::areaclip_t
_TEXT	ENDS
; Function compile flags: /Odtp /ZI
; File d:\!diffusion 2020\source code 2022\client-server\server\util.cpp
;	COMDAT ?UTIL_SetSize@@YAXPAVCBaseEntity@@ABVVector@@1@Z
_TEXT	SEGMENT
$T1 = -76						; size = 12
_pEntity$ = 8						; size = 4
_min$ = 12						; size = 4
_max$ = 16						; size = 4
?UTIL_SetSize@@YAXPAVCBaseEntity@@ABVVector@@1@Z PROC	; UTIL_SetSize, COMDAT

; 2732 : {

	push	ebp
	mov	ebp, esp
	sub	esp, 76					; 0000004cH
	push	ebx
	push	esi
	push	edi

; 2733 : 	// check bounds
; 2734 : 	if( min.x > max.x || min.y > max.y || min.z > max.z )

	mov	eax, DWORD PTR _min$[ebp]
	mov	ecx, DWORD PTR _max$[ebp]
	movss	xmm0, DWORD PTR [eax]
	comiss	xmm0, DWORD PTR [ecx]
	ja	SHORT $LN3@UTIL_SetSi
	mov	eax, DWORD PTR _min$[ebp]
	mov	ecx, DWORD PTR _max$[ebp]
	movss	xmm0, DWORD PTR [eax+4]
	comiss	xmm0, DWORD PTR [ecx+4]
	ja	SHORT $LN3@UTIL_SetSi
	mov	eax, DWORD PTR _min$[ebp]
	mov	ecx, DWORD PTR _max$[ebp]
	movss	xmm0, DWORD PTR [eax+8]
	comiss	xmm0, DWORD PTR [ecx+8]
	jbe	SHORT $LN2@UTIL_SetSi
$LN3@UTIL_SetSi:

; 2735 : 	{
; 2736 : 		ALERT( at_error, "UTIL_SetSize: %s backwards mins/maxs\n", pEntity->GetClassname( ));

	mov	ecx, DWORD PTR _pEntity$[ebp]
	call	?GetClassname@CBaseEntity@@QAEPBDXZ	; CBaseEntity::GetClassname
	push	eax
	push	OFFSET ??_C@_0CG@IENKKELO@UTIL_SetSize?3?5?$CFs?5backwards?5mins?1@
	push	4
	call	DWORD PTR ?g_engfuncs@@3Uenginefuncs_s@@A+244
	add	esp, 12					; 0000000cH

; 2737 : 		return;

	jmp	SHORT $LN1@UTIL_SetSi
$LN2@UTIL_SetSi:

; 2738 : 	}
; 2739 : 
; 2740 : 	pEntity->pev->size = (max - min);

	mov	eax, DWORD PTR _min$[ebp]
	push	eax
	lea	ecx, DWORD PTR $T1[ebp]
	push	ecx
	mov	ecx, DWORD PTR _max$[ebp]
	call	??GVector@@QBE?AV0@ABV0@@Z		; Vector::operator-
	mov	edx, DWORD PTR _pEntity$[ebp]
	mov	ecx, DWORD PTR [edx+4]
	add	ecx, 244				; 000000f4H
	mov	edx, DWORD PTR [eax]
	mov	DWORD PTR [ecx], edx
	mov	edx, DWORD PTR [eax+4]
	mov	DWORD PTR [ecx+4], edx
	mov	eax, DWORD PTR [eax+8]
	mov	DWORD PTR [ecx+8], eax

; 2741 : 	pEntity->pev->mins = min;

	mov	eax, DWORD PTR _pEntity$[ebp]
	mov	ecx, DWORD PTR [eax+4]
	add	ecx, 220				; 000000dcH
	mov	edx, DWORD PTR _min$[ebp]
	mov	eax, DWORD PTR [edx]
	mov	DWORD PTR [ecx], eax
	mov	eax, DWORD PTR [edx+4]
	mov	DWORD PTR [ecx+4], eax
	mov	edx, DWORD PTR [edx+8]
	mov	DWORD PTR [ecx+8], edx

; 2742 : 	pEntity->pev->maxs = max;

	mov	eax, DWORD PTR _pEntity$[ebp]
	mov	ecx, DWORD PTR [eax+4]
	add	ecx, 232				; 000000e8H
	mov	edx, DWORD PTR _max$[ebp]
	mov	eax, DWORD PTR [edx]
	mov	DWORD PTR [ecx], eax
	mov	eax, DWORD PTR [edx+4]
	mov	DWORD PTR [ecx+4], eax
	mov	edx, DWORD PTR [edx+8]
	mov	DWORD PTR [ecx+8], edx

; 2743 : 
; 2744 : 	pEntity->RelinkEntity( FALSE, NULL );

	push	0
	push	0
	push	0
	mov	ecx, DWORD PTR _pEntity$[ebp]
	call	?RelinkEntity@CBaseEntity@@QAEXHPBVVector@@H@Z ; CBaseEntity::RelinkEntity
$LN1@UTIL_SetSi:

; 2745 : }

	pop	edi
	pop	esi
	pop	ebx
	mov	esp, ebp
	pop	ebp
	ret	0
?UTIL_SetSize@@YAXPAVCBaseEntity@@ABVVector@@1@Z ENDP	; UTIL_SetSize
_TEXT	ENDS
; Function compile flags: /Odtp /ZI
; File d:\!diffusion 2020\source code 2022\client-server\server\util.cpp
;	COMDAT ?UTIL_GetModelBounds@@YAXHAAVVector@@0@Z
_TEXT	SEGMENT
_mod$ = -4						; size = 4
_modelIndex$ = 8					; size = 4
_mins$ = 12						; size = 4
_maxs$ = 16						; size = 4
?UTIL_GetModelBounds@@YAXHAAVVector@@0@Z PROC		; UTIL_GetModelBounds, COMDAT

; 2714 : {

	push	ebp
	mov	ebp, esp
	sub	esp, 68					; 00000044H
	push	ebx
	push	esi
	push	edi

; 2715 : 	if( modelIndex <= 0 ) return;

	cmp	DWORD PTR _modelIndex$[ebp], 0
	jg	SHORT $LN2@UTIL_GetMo
	jmp	$LN1@UTIL_GetMo
$LN2@UTIL_GetMo:

; 2716 : 
; 2717 : 	model_t *mod = (model_t *)MODEL_HANDLE( modelIndex );

	mov	eax, DWORD PTR _modelIndex$[ebp]
	push	eax
	call	DWORD PTR ?g_physfuncs@@3Userver_physics_api_s@@A+12
	add	esp, 4
	mov	DWORD PTR _mod$[ebp], eax

; 2718 : 
; 2719 : 	if( mod )

	cmp	DWORD PTR _mod$[ebp], 0
	je	SHORT $LN3@UTIL_GetMo

; 2720 : 	{
; 2721 : 		mins = mod->mins;

	mov	eax, DWORD PTR _mod$[ebp]
	add	eax, 84					; 00000054H
	mov	ecx, DWORD PTR _mins$[ebp]
	mov	edx, DWORD PTR [eax]
	mov	DWORD PTR [ecx], edx
	mov	edx, DWORD PTR [eax+4]
	mov	DWORD PTR [ecx+4], edx
	mov	eax, DWORD PTR [eax+8]
	mov	DWORD PTR [ecx+8], eax

; 2722 : 		maxs = mod->maxs;

	mov	eax, DWORD PTR _mod$[ebp]
	add	eax, 96					; 00000060H
	mov	ecx, DWORD PTR _maxs$[ebp]
	mov	edx, DWORD PTR [eax]
	mov	DWORD PTR [ecx], edx
	mov	edx, DWORD PTR [eax+4]
	mov	DWORD PTR [ecx+4], edx
	mov	eax, DWORD PTR [eax+8]
	mov	DWORD PTR [ecx+8], eax

; 2723 : 	}
; 2724 : 	else

	jmp	SHORT $LN1@UTIL_GetMo
$LN3@UTIL_GetMo:

; 2725 : 	{
; 2726 : 		ALERT( at_error, "UTIL_GetModelBounds: NULL model %i\n", modelIndex );

	mov	eax, DWORD PTR _modelIndex$[ebp]
	push	eax
	push	OFFSET ??_C@_0CE@HLOCMEGG@UTIL_GetModelBounds?3?5NULL?5model?5@
	push	4
	call	DWORD PTR ?g_engfuncs@@3Uenginefuncs_s@@A+244
	add	esp, 12					; 0000000cH

; 2727 : 		mins = maxs = g_vecZero;

	mov	eax, DWORD PTR _maxs$[ebp]
	mov	ecx, DWORD PTR ?g_vecZero@@3VVector@@B
	mov	DWORD PTR [eax], ecx
	mov	edx, DWORD PTR ?g_vecZero@@3VVector@@B+4
	mov	DWORD PTR [eax+4], edx
	mov	ecx, DWORD PTR ?g_vecZero@@3VVector@@B+8
	mov	DWORD PTR [eax+8], ecx
	mov	edx, DWORD PTR _maxs$[ebp]
	mov	eax, DWORD PTR _mins$[ebp]
	mov	ecx, DWORD PTR [edx]
	mov	DWORD PTR [eax], ecx
	mov	ecx, DWORD PTR [edx+4]
	mov	DWORD PTR [eax+4], ecx
	mov	edx, DWORD PTR [edx+8]
	mov	DWORD PTR [eax+8], edx
$LN1@UTIL_GetMo:

; 2728 : 	}
; 2729 : }

	pop	edi
	pop	esi
	pop	ebx
	mov	esp, ebp
	pop	ebp
	ret	0
?UTIL_GetModelBounds@@YAXHAAVVector@@0@Z ENDP		; UTIL_GetModelBounds
_TEXT	ENDS
; Function compile flags: /Odtp /ZI
; File d:\!diffusion 2020\source code 2022\client-server\server\util.cpp
;	COMDAT ?UTIL_ParentToWorldSpace@@YAXPAVCBaseEntity@@AAVVector@@1@Z
_TEXT	SEGMENT
$T1 = -464						; size = 12
$T2 = -452						; size = 12
$T3 = -440						; size = 64
$T4 = -372						; size = 64
$T5 = -308						; size = 48
_matParentToWorld$ = -196				; size = 64
_matResult$ = -132					; size = 64
_matEntityToParent$ = -68				; size = 64
__$ArrayPad$ = -4					; size = 4
_pEntity$ = 8						; size = 4
_vecPosition$ = 12					; size = 4
_vecAngles$ = 16					; size = 4
?UTIL_ParentToWorldSpace@@YAXPAVCBaseEntity@@AAVVector@@1@Z PROC ; UTIL_ParentToWorldSpace, COMDAT

; 650  : {

	push	ebp
	mov	ebp, esp
	sub	esp, 464				; 000001d0H
	mov	eax, DWORD PTR ___security_cookie
	xor	eax, ebp
	mov	DWORD PTR __$ArrayPad$[ebp], eax
	push	ebx
	push	esi
	push	edi

; 651  : 	if ( pEntity == NULL )

	cmp	DWORD PTR _pEntity$[ebp], 0
	jne	SHORT $LN2@UTIL_Paren

; 652  : 		return;

	jmp	$LN1@UTIL_Paren
$LN2@UTIL_Paren:

; 653  : 
; 654  : 	// Construct the entity-to-world matrix
; 655  : 	// Start with making an entity-to-parent matrix
; 656  : 	matrix4x4 matEntityToParent = matrix3x4( vecPosition, vecAngles );

	push	ecx
	movss	xmm0, DWORD PTR __real@3f800000
	movss	DWORD PTR [esp], xmm0
	mov	eax, DWORD PTR _vecAngles$[ebp]
	push	eax
	mov	ecx, DWORD PTR _vecPosition$[ebp]
	push	ecx
	lea	ecx, DWORD PTR $T5[ebp]
	call	??0matrix3x4@@QAE@ABVVector@@0M@Z	; matrix3x4::matrix3x4
	push	eax
	lea	ecx, DWORD PTR _matEntityToParent$[ebp]
	call	??0matrix4x4@@QAE@ABVmatrix3x4@@@Z	; matrix4x4::matrix4x4

; 657  : 
; 658  : 	// concatenate with our parent's transform
; 659  : 	matrix4x4 matResult, matParentToWorld;

	lea	ecx, DWORD PTR _matResult$[ebp]
	call	??0matrix4x4@@QAE@XZ			; matrix4x4::matrix4x4
	lea	ecx, DWORD PTR _matParentToWorld$[ebp]
	call	??0matrix4x4@@QAE@XZ			; matrix4x4::matrix4x4

; 660  : 	
; 661  : 	if( pEntity->m_hParent != NULL )

	mov	ecx, DWORD PTR _pEntity$[ebp]
	add	ecx, 160				; 000000a0H
	call	??BEHANDLE@@QAEHXZ			; EHANDLE::operator int
	test	eax, eax
	je	SHORT $LN3@UTIL_Paren

; 662  : 	{
; 663  : 		matParentToWorld = pEntity->GetParentToWorldTransform();

	lea	eax, DWORD PTR $T4[ebp]
	push	eax
	mov	ecx, DWORD PTR _pEntity$[ebp]
	call	?GetParentToWorldTransform@CBaseEntity@@QAE?AVmatrix4x4@@XZ ; CBaseEntity::GetParentToWorldTransform
	push	eax
	lea	ecx, DWORD PTR _matParentToWorld$[ebp]
	call	??4matrix4x4@@QAEAAV0@ABV0@@Z		; matrix4x4::operator=

; 664  : 	}
; 665  : 	else

	jmp	SHORT $LN4@UTIL_Paren
$LN3@UTIL_Paren:

; 666  : 	{
; 667  : 		matParentToWorld = pEntity->EntityToWorldTransform();

	mov	ecx, DWORD PTR _pEntity$[ebp]
	call	?EntityToWorldTransform@CBaseEntity@@QAEAAVmatrix4x4@@XZ ; CBaseEntity::EntityToWorldTransform
	push	eax
	lea	ecx, DWORD PTR _matParentToWorld$[ebp]
	call	??4matrix4x4@@QAEAAV0@ABV0@@Z		; matrix4x4::operator=
$LN4@UTIL_Paren:

; 668  : 	}
; 669  : 
; 670  : 	matResult = matParentToWorld.ConcatTransforms( matEntityToParent );

	sub	esp, 64					; 00000040H
	mov	ecx, esp
	lea	eax, DWORD PTR _matEntityToParent$[ebp]
	push	eax
	call	??0matrix4x4@@QAE@ABV0@@Z
	lea	ecx, DWORD PTR $T3[ebp]
	push	ecx
	lea	ecx, DWORD PTR _matParentToWorld$[ebp]
	call	?ConcatTransforms@matrix4x4@@QAE?AV1@V1@@Z ; matrix4x4::ConcatTransforms
	push	eax
	lea	ecx, DWORD PTR _matResult$[ebp]
	call	??4matrix4x4@@QAEAAV0@ABV0@@Z		; matrix4x4::operator=

; 671  : 	vecPosition = matResult.GetOrigin();

	lea	eax, DWORD PTR $T2[ebp]
	push	eax
	lea	ecx, DWORD PTR _matResult$[ebp]
	call	?GetOrigin@matrix4x4@@QBE?AVVector@@XZ	; matrix4x4::GetOrigin
	mov	ecx, DWORD PTR _vecPosition$[ebp]
	mov	edx, DWORD PTR [eax]
	mov	DWORD PTR [ecx], edx
	mov	edx, DWORD PTR [eax+4]
	mov	DWORD PTR [ecx+4], edx
	mov	eax, DWORD PTR [eax+8]
	mov	DWORD PTR [ecx+8], eax

; 672  : 	vecAngles = matResult.GetAngles();

	lea	eax, DWORD PTR $T1[ebp]
	push	eax
	lea	ecx, DWORD PTR _matResult$[ebp]
	call	?GetAngles@matrix4x4@@QAE?AVVector@@XZ	; matrix4x4::GetAngles
	mov	ecx, DWORD PTR _vecAngles$[ebp]
	mov	edx, DWORD PTR [eax]
	mov	DWORD PTR [ecx], edx
	mov	edx, DWORD PTR [eax+4]
	mov	DWORD PTR [ecx+4], edx
	mov	eax, DWORD PTR [eax+8]
	mov	DWORD PTR [ecx+8], eax
$LN1@UTIL_Paren:

; 673  : }

	pop	edi
	pop	esi
	pop	ebx
	mov	ecx, DWORD PTR __$ArrayPad$[ebp]
	xor	ecx, ebp
	call	@__security_check_cookie@4
	mov	esp, ebp
	pop	ebp
	ret	0
?UTIL_ParentToWorldSpace@@YAXPAVCBaseEntity@@AAVVector@@1@Z ENDP ; UTIL_ParentToWorldSpace
_TEXT	ENDS
; Function compile flags: /Odtp /ZI
; File d:\!diffusion 2020\source code 2022\client-server\server\util.cpp
;	COMDAT ?UTIL_Teleport@@YAXPAVCBaseEntity@@AAUTeleportListEntry_t@@PBVVector@@22@Z
_TEXT	SEGMENT
tv192 = -100						; size = 4
tv176 = -100						; size = 4
_pPlayer$1 = -32					; size = 4
_prevAngles$ = -28					; size = 12
_prevOrigin$ = -16					; size = 12
_pTeleport$ = -4					; size = 4
_pSource$ = 8						; size = 4
_entry$ = 12						; size = 4
_newOrigin$ = 16					; size = 4
_newAngles$ = 20					; size = 4
_newVelocity$ = 24					; size = 4
?UTIL_Teleport@@YAXPAVCBaseEntity@@AAUTeleportListEntry_t@@PBVVector@@22@Z PROC ; UTIL_Teleport, COMDAT

; 561  : {

	push	ebp
	mov	ebp, esp
	sub	esp, 100				; 00000064H
	push	ebx
	push	esi
	push	edi

; 562  : 	CBaseEntity *pTeleport = entry.pEntity;

	mov	eax, DWORD PTR _entry$[ebp]
	mov	ecx, DWORD PTR [eax]
	mov	DWORD PTR _pTeleport$[ebp], ecx

; 563  : 	Vector prevOrigin = pTeleport->GetAbsOrigin();

	mov	ecx, DWORD PTR _pTeleport$[ebp]
	call	?GetAbsOrigin@CBaseEntity@@QBEABVVector@@XZ ; CBaseEntity::GetAbsOrigin
	push	eax
	lea	ecx, DWORD PTR _prevOrigin$[ebp]
	call	??0Vector@@QAE@ABV0@@Z			; Vector::Vector

; 564  : 	Vector prevAngles = pTeleport->GetAbsAngles();

	mov	ecx, DWORD PTR _pTeleport$[ebp]
	call	?GetAbsAngles@CBaseEntity@@QBEABVVector@@XZ ; CBaseEntity::GetAbsAngles
	push	eax
	lea	ecx, DWORD PTR _prevAngles$[ebp]
	call	??0Vector@@QAE@ABV0@@Z			; Vector::Vector

; 565  : 
; 566  : 	pTeleport->m_iTeleportFilter = TRUE;

	mov	eax, DWORD PTR _pTeleport$[ebp]
	mov	DWORD PTR [eax+48], 1

; 567  : 	pTeleport->MakeNonSolid();

	mov	ecx, DWORD PTR _pTeleport$[ebp]
	call	?MakeNonSolid@CBaseEntity@@QAEXXZ	; CBaseEntity::MakeNonSolid

; 568  : 
; 569  : 	// i'm teleporting myself
; 570  : 	if( pSource == pTeleport )

	mov	eax, DWORD PTR _pSource$[ebp]
	cmp	eax, DWORD PTR _pTeleport$[ebp]
	jne	$LN6@UTIL_Telep

; 571  : 	{
; 572  : 		if( newAngles )

	cmp	DWORD PTR _newAngles$[ebp], 0
	je	SHORT $LN8@UTIL_Telep

; 573  : 		{
; 574  : 			pTeleport->SetLocalAngles( *newAngles );

	mov	eax, DWORD PTR _newAngles$[ebp]
	push	eax
	mov	ecx, DWORD PTR _pTeleport$[ebp]
	call	?SetLocalAngles@CBaseEntity@@QAEXABVVector@@@Z ; CBaseEntity::SetLocalAngles

; 575  : 
; 576  : 			if( pTeleport->IsPlayer() )

	mov	eax, DWORD PTR _pTeleport$[ebp]
	mov	edx, DWORD PTR [eax]
	mov	ecx, DWORD PTR _pTeleport$[ebp]
	mov	eax, DWORD PTR [edx+220]
	call	eax
	test	eax, eax
	je	SHORT $LN9@UTIL_Telep

; 577  : 			{
; 578  : 				CBasePlayer *pPlayer = (CBasePlayer *)pTeleport;

	mov	eax, DWORD PTR _pTeleport$[ebp]
	mov	DWORD PTR _pPlayer$1[ebp], eax

; 579  : 				pPlayer->SnapEyeAngles( *newAngles );

	mov	eax, DWORD PTR _newAngles$[ebp]
	push	eax
	mov	ecx, DWORD PTR _pPlayer$1[ebp]
	call	?SnapEyeAngles@CBasePlayer@@QAEXABVVector@@@Z ; CBasePlayer::SnapEyeAngles
$LN9@UTIL_Telep:

; 580  : 			}
; 581  : 
; 582  : 			if( pTeleport->IsRigidBody( ))

	mov	eax, DWORD PTR _pTeleport$[ebp]
	mov	edx, DWORD PTR [eax]
	mov	ecx, DWORD PTR _pTeleport$[ebp]
	mov	eax, DWORD PTR [edx+76]
	call	eax
	test	eax, eax
	je	SHORT $LN8@UTIL_Telep

; 583  : 				WorldPhysic->SetAngles( pTeleport, *newAngles );

	mov	eax, DWORD PTR _newAngles$[ebp]
	push	eax
	mov	ecx, DWORD PTR _pTeleport$[ebp]
	push	ecx
	mov	edx, DWORD PTR ?WorldPhysic@@3PAVIPhysicLayer@@A ; WorldPhysic
	mov	eax, DWORD PTR [edx]
	mov	ecx, DWORD PTR ?WorldPhysic@@3PAVIPhysicLayer@@A ; WorldPhysic
	mov	edx, DWORD PTR [eax+56]
	call	edx
$LN8@UTIL_Telep:

; 584  : 		}
; 585  : 
; 586  : 		if( newVelocity )

	cmp	DWORD PTR _newVelocity$[ebp], 0
	je	SHORT $LN11@UTIL_Telep

; 587  : 		{
; 588  : 			pTeleport->SetAbsVelocity( *newVelocity );

	mov	eax, DWORD PTR _newVelocity$[ebp]
	push	eax
	mov	ecx, DWORD PTR _pTeleport$[ebp]
	call	?SetAbsVelocity@CBaseEntity@@QAEXABVVector@@@Z ; CBaseEntity::SetAbsVelocity

; 589  : 			pTeleport->SetBaseVelocity( g_vecZero );

	push	OFFSET ?g_vecZero@@3VVector@@B		; g_vecZero
	mov	ecx, DWORD PTR _pTeleport$[ebp]
	call	?SetBaseVelocity@CBaseEntity@@QAEXABVVector@@@Z ; CBaseEntity::SetBaseVelocity

; 590  : 
; 591  : 			if( pTeleport->IsRigidBody( ))

	mov	eax, DWORD PTR _pTeleport$[ebp]
	mov	edx, DWORD PTR [eax]
	mov	ecx, DWORD PTR _pTeleport$[ebp]
	mov	eax, DWORD PTR [edx+76]
	call	eax
	test	eax, eax
	je	SHORT $LN11@UTIL_Telep

; 592  : 			{
; 593  : 				WorldPhysic->SetVelocity( pTeleport, *newVelocity );

	mov	eax, DWORD PTR _newVelocity$[ebp]
	push	eax
	mov	ecx, DWORD PTR _pTeleport$[ebp]
	push	ecx
	mov	edx, DWORD PTR ?WorldPhysic@@3PAVIPhysicLayer@@A ; WorldPhysic
	mov	eax, DWORD PTR [edx]
	mov	ecx, DWORD PTR ?WorldPhysic@@3PAVIPhysicLayer@@A ; WorldPhysic
	mov	edx, DWORD PTR [eax+60]
	call	edx

; 594  : 
; 595  : 				// HACKHACK reset avelocity for rigid body
; 596  : 				if( *newVelocity == g_vecZero )

	push	OFFSET ?g_vecZero@@3VVector@@B		; g_vecZero
	mov	ecx, DWORD PTR _newVelocity$[ebp]
	call	??8Vector@@QBEHABV0@@Z			; Vector::operator==
	test	eax, eax
	je	SHORT $LN11@UTIL_Telep

; 597  : 					WorldPhysic->SetAvelocity( pTeleport, g_vecZero );

	push	OFFSET ?g_vecZero@@3VVector@@B		; g_vecZero
	mov	eax, DWORD PTR _pTeleport$[ebp]
	push	eax
	mov	ecx, DWORD PTR ?WorldPhysic@@3PAVIPhysicLayer@@A ; WorldPhysic
	mov	edx, DWORD PTR [ecx]
	mov	ecx, DWORD PTR ?WorldPhysic@@3PAVIPhysicLayer@@A ; WorldPhysic
	mov	eax, DWORD PTR [edx+64]
	call	eax
$LN11@UTIL_Telep:

; 598  : 			}
; 599  : 		}
; 600  : 
; 601  : 		if( newOrigin )

	cmp	DWORD PTR _newOrigin$[ebp], 0
	je	$LN14@UTIL_Telep

; 602  : 		{
; 603  : 			SetBits( pTeleport->pev->effects, EF_NOINTERP );

	mov	eax, DWORD PTR _pTeleport$[ebp]
	mov	ecx, DWORD PTR [eax+4]
	mov	edx, DWORD PTR [ecx+280]
	or	edx, 32					; 00000020H
	mov	eax, DWORD PTR _pTeleport$[ebp]
	mov	ecx, DWORD PTR [eax+4]
	mov	DWORD PTR [ecx+280], edx

; 604  : 			UTIL_SetOrigin( pTeleport, *newOrigin );

	mov	eax, DWORD PTR _newOrigin$[ebp]
	push	eax
	mov	ecx, DWORD PTR _pTeleport$[ebp]
	push	ecx
	call	?UTIL_SetOrigin@@YAXPAVCBaseEntity@@ABVVector@@@Z ; UTIL_SetOrigin
	add	esp, 8

; 605  : 
; 606  : 			if( pTeleport->IsRigidBody( ))

	mov	eax, DWORD PTR _pTeleport$[ebp]
	mov	edx, DWORD PTR [eax]
	mov	ecx, DWORD PTR _pTeleport$[ebp]
	mov	eax, DWORD PTR [edx+76]
	call	eax
	test	eax, eax
	je	SHORT $LN15@UTIL_Telep

; 607  : 				WorldPhysic->SetOrigin( pTeleport, *newOrigin );

	mov	eax, DWORD PTR _newOrigin$[ebp]
	push	eax
	mov	ecx, DWORD PTR _pTeleport$[ebp]
	push	ecx
	mov	edx, DWORD PTR ?WorldPhysic@@3PAVIPhysicLayer@@A ; WorldPhysic
	mov	eax, DWORD PTR [edx]
	mov	ecx, DWORD PTR ?WorldPhysic@@3PAVIPhysicLayer@@A ; WorldPhysic
	mov	edx, DWORD PTR [eax+52]
	call	edx
$LN15@UTIL_Telep:

; 608  : 
; 609  : 			// teleport physics shadow too
; 610  : 			switch( pTeleport->m_iActorType )

	mov	eax, DWORD PTR _pTeleport$[ebp]
	mov	cl, BYTE PTR [eax+1616]
	mov	BYTE PTR tv176[ebp], cl
	cmp	BYTE PTR tv176[ebp], 2
	je	SHORT $LN16@UTIL_Telep
	cmp	BYTE PTR tv176[ebp], 3
	je	SHORT $LN17@UTIL_Telep
	jmp	SHORT $LN14@UTIL_Telep
$LN16@UTIL_Telep:

; 611  : 			{
; 612  : 			case ACTOR_KINEMATIC:
; 613  : 				WorldPhysic->TeleportActor( pTeleport );

	mov	eax, DWORD PTR _pTeleport$[ebp]
	push	eax
	mov	ecx, DWORD PTR ?WorldPhysic@@3PAVIPhysicLayer@@A ; WorldPhysic
	mov	edx, DWORD PTR [ecx]
	mov	ecx, DWORD PTR ?WorldPhysic@@3PAVIPhysicLayer@@A ; WorldPhysic
	mov	eax, DWORD PTR [edx+140]
	call	eax

; 614  : 				break;

	jmp	SHORT $LN14@UTIL_Telep
$LN17@UTIL_Telep:

; 615  : 			case ACTOR_CHARACTER:
; 616  : 				WorldPhysic->TeleportCharacter( pTeleport );

	mov	eax, DWORD PTR _pTeleport$[ebp]
	push	eax
	mov	ecx, DWORD PTR ?WorldPhysic@@3PAVIPhysicLayer@@A ; WorldPhysic
	mov	edx, DWORD PTR [ecx]
	mov	ecx, DWORD PTR ?WorldPhysic@@3PAVIPhysicLayer@@A ; WorldPhysic
	mov	eax, DWORD PTR [edx+136]
	call	eax
$LN14@UTIL_Telep:

; 617  : 				break;
; 618  : 			}
; 619  : 		}
; 620  : 	}
; 621  : 	else

	jmp	SHORT $LN7@UTIL_Telep
$LN6@UTIL_Telep:

; 622  : 	{
; 623  : 		// My parent is teleporting, just update my position & physics
; 624  : 		pTeleport->CalcAbsolutePosition();

	mov	ecx, DWORD PTR _pTeleport$[ebp]
	call	?CalcAbsolutePosition@CBaseEntity@@QAEXXZ ; CBaseEntity::CalcAbsolutePosition

; 625  : 
; 626  : 		// teleport physics shadow too
; 627  : 		switch( pTeleport->m_iActorType )

	mov	eax, DWORD PTR _pTeleport$[ebp]
	mov	cl, BYTE PTR [eax+1616]
	mov	BYTE PTR tv192[ebp], cl
	cmp	BYTE PTR tv192[ebp], 2
	je	SHORT $LN18@UTIL_Telep
	cmp	BYTE PTR tv192[ebp], 3
	je	SHORT $LN19@UTIL_Telep
	jmp	SHORT $LN7@UTIL_Telep
$LN18@UTIL_Telep:

; 628  : 		{
; 629  : 		case ACTOR_KINEMATIC:
; 630  : 			WorldPhysic->TeleportActor( pTeleport );

	mov	eax, DWORD PTR _pTeleport$[ebp]
	push	eax
	mov	ecx, DWORD PTR ?WorldPhysic@@3PAVIPhysicLayer@@A ; WorldPhysic
	mov	edx, DWORD PTR [ecx]
	mov	ecx, DWORD PTR ?WorldPhysic@@3PAVIPhysicLayer@@A ; WorldPhysic
	mov	eax, DWORD PTR [edx+140]
	call	eax

; 631  : 			break;

	jmp	SHORT $LN7@UTIL_Telep
$LN19@UTIL_Telep:

; 632  : 		case ACTOR_CHARACTER:
; 633  : 			WorldPhysic->TeleportCharacter( pTeleport );

	mov	eax, DWORD PTR _pTeleport$[ebp]
	push	eax
	mov	ecx, DWORD PTR ?WorldPhysic@@3PAVIPhysicLayer@@A ; WorldPhysic
	mov	edx, DWORD PTR [ecx]
	mov	ecx, DWORD PTR ?WorldPhysic@@3PAVIPhysicLayer@@A ; WorldPhysic
	mov	eax, DWORD PTR [edx+136]
	call	eax
$LN7@UTIL_Telep:

; 634  : 			break;
; 635  : 		}
; 636  : 	}
; 637  : 
; 638  : 	pTeleport->RestoreSolid();

	mov	ecx, DWORD PTR _pTeleport$[ebp]
	call	?RestoreSolid@CBaseEntity@@QAEXXZ	; CBaseEntity::RestoreSolid

; 639  : 	pTeleport->RelinkEntity( TRUE, NULL, TRUE );	// need to move back in solid list

	push	1
	push	0
	push	1
	mov	ecx, DWORD PTR _pTeleport$[ebp]
	call	?RelinkEntity@CBaseEntity@@QAEXHPBVVector@@H@Z ; CBaseEntity::RelinkEntity

; 640  : 	pTeleport->ClearGroundEntity();

	mov	ecx, DWORD PTR _pTeleport$[ebp]
	call	?ClearGroundEntity@CBaseEntity@@QAEXXZ	; CBaseEntity::ClearGroundEntity

; 641  : 	pTeleport->OnTeleport();		// call event

	mov	eax, DWORD PTR _pTeleport$[ebp]
	mov	edx, DWORD PTR [eax]
	mov	ecx, DWORD PTR _pTeleport$[ebp]
	mov	eax, DWORD PTR [edx+36]
	call	eax

; 642  : 	pTeleport->m_iTeleportFilter = FALSE;

	mov	eax, DWORD PTR _pTeleport$[ebp]
	mov	DWORD PTR [eax+48], 0

; 643  : }

	pop	edi
	pop	esi
	pop	ebx
	mov	esp, ebp
	pop	ebp
	ret	0
?UTIL_Teleport@@YAXPAVCBaseEntity@@AAUTeleportListEntry_t@@PBVVector@@22@Z ENDP ; UTIL_Teleport
_TEXT	ENDS
; Function compile flags: /Odtp /ZI
; File d:\!diffusion 2020\source code 2022\client-server\server\util.cpp
;	COMDAT ?UTIL_AllowHitboxTrace@@YAHPAVCBaseEntity@@@Z
_TEXT	SEGMENT
tv79 = -72						; size = 4
tv68 = -72						; size = 4
_mod$ = -4						; size = 4
_pEntity$ = 8						; size = 4
?UTIL_AllowHitboxTrace@@YAHPAVCBaseEntity@@@Z PROC	; UTIL_AllowHitboxTrace, COMDAT

; 2803 : {

	push	ebp
	mov	ebp, esp
	sub	esp, 72					; 00000048H
	push	ebx
	push	esi
	push	edi

; 2804 : 	model_t	*mod;
; 2805 : 
; 2806 : 	if( !g_fPhysicInitialized )

	cmp	DWORD PTR ?g_fPhysicInitialized@@3HA, 0	; g_fPhysicInitialized
	jne	SHORT $LN2@UTIL_Allow

; 2807 : 		return (pEntity->pev->solid == SOLID_BBOX);

	mov	eax, DWORD PTR _pEntity$[ebp]
	mov	ecx, DWORD PTR [eax+4]
	cmp	DWORD PTR [ecx+268], 2
	jne	SHORT $LN6@UTIL_Allow
	mov	DWORD PTR tv68[ebp], 1
	jmp	SHORT $LN7@UTIL_Allow
$LN6@UTIL_Allow:
	mov	DWORD PTR tv68[ebp], 0
$LN7@UTIL_Allow:
	mov	eax, DWORD PTR tv68[ebp]
	jmp	SHORT $LN1@UTIL_Allow
$LN2@UTIL_Allow:

; 2808 : 
; 2809 : 	mod = (model_t *)MODEL_HANDLE( pEntity->pev->modelindex );

	mov	eax, DWORD PTR _pEntity$[ebp]
	mov	ecx, DWORD PTR [eax+4]
	mov	edx, DWORD PTR [ecx+180]
	push	edx
	call	DWORD PTR ?g_physfuncs@@3Userver_physics_api_s@@A+12
	add	esp, 4
	mov	DWORD PTR _mod$[ebp], eax

; 2810 : 	if( !mod || mod->type != mod_studio )

	cmp	DWORD PTR _mod$[ebp], 0
	je	SHORT $LN4@UTIL_Allow
	mov	eax, DWORD PTR _mod$[ebp]
	cmp	DWORD PTR [eax+68], 3
	je	SHORT $LN3@UTIL_Allow
$LN4@UTIL_Allow:

; 2811 : 		return FALSE;

	xor	eax, eax
	jmp	SHORT $LN1@UTIL_Allow
$LN3@UTIL_Allow:

; 2812 : 
; 2813 : 	// NOTE: flag 2 it's a internal engine flag (see model.c for details)
; 2814 : 	// we can recalc real model origin here but this check is faster :)
; 2815 : 	return (mod->flags & STUDIO_TRACE_HITBOX) ? TRUE : FALSE;

	mov	eax, DWORD PTR _mod$[ebp]
	mov	ecx, DWORD PTR [eax+80]
	and	ecx, 512				; 00000200H
	je	SHORT $LN8@UTIL_Allow
	mov	DWORD PTR tv79[ebp], 1
	jmp	SHORT $LN9@UTIL_Allow
$LN8@UTIL_Allow:
	mov	DWORD PTR tv79[ebp], 0
$LN9@UTIL_Allow:
	mov	eax, DWORD PTR tv79[ebp]
$LN1@UTIL_Allow:

; 2816 : }

	pop	edi
	pop	esi
	pop	ebx
	mov	esp, ebp
	pop	ebp
	ret	0
?UTIL_AllowHitboxTrace@@YAHPAVCBaseEntity@@@Z ENDP	; UTIL_AllowHitboxTrace
_TEXT	ENDS
; Function compile flags: /Odtp /ZI
; File d:\!diffusion 2020\source code 2022\client-server\server\util.cpp
;	COMDAT ?UTIL_GetSpriteType@@YA?AW4angletype_t@@H@Z
_TEXT	SEGMENT
_spr$ = -8						; size = 4
_mod$ = -4						; size = 4
_modelindex$ = 8					; size = 4
?UTIL_GetSpriteType@@YA?AW4angletype_t@@H@Z PROC	; UTIL_GetSpriteType, COMDAT

; 2684 : {

	push	ebp
	mov	ebp, esp
	sub	esp, 72					; 00000048H
	push	ebx
	push	esi
	push	edi

; 2685 : 	if( UTIL_GetModelType( modelindex ) != mod_sprite )

	mov	eax, DWORD PTR _modelindex$[ebp]
	push	eax
	call	?UTIL_GetModelType@@YA?AW4modtype_t@@H@Z ; UTIL_GetModelType
	add	esp, 4
	cmp	eax, 1
	je	SHORT $LN2@UTIL_GetSp

; 2686 : 		return (angletype_t)-1; // bad sprite

	or	eax, -1
	jmp	SHORT $LN1@UTIL_GetSp
$LN2@UTIL_GetSp:

; 2687 : 
; 2688 : 	model_t *mod = (model_t *)MODEL_HANDLE( modelindex );

	mov	eax, DWORD PTR _modelindex$[ebp]
	push	eax
	call	DWORD PTR ?g_physfuncs@@3Userver_physics_api_s@@A+12
	add	esp, 4
	mov	DWORD PTR _mod$[ebp], eax

; 2689 : 	msprite_t *spr = (msprite_t *)mod->cache.data;

	mov	eax, DWORD PTR _mod$[ebp]
	mov	ecx, DWORD PTR [eax+388]
	mov	DWORD PTR _spr$[ebp], ecx

; 2690 : 
; 2691 : 	return (angletype_t)spr->type;

	mov	eax, DWORD PTR _spr$[ebp]
	movsx	eax, WORD PTR [eax]
$LN1@UTIL_GetSp:

; 2692 : }

	pop	edi
	pop	esi
	pop	ebx
	mov	esp, ebp
	pop	ebp
	ret	0
?UTIL_GetSpriteType@@YA?AW4angletype_t@@H@Z ENDP	; UTIL_GetSpriteType
_TEXT	ENDS
; Function compile flags: /Odtp /ZI
; File d:\!diffusion 2020\source code 2022\client-server\server\util.cpp
;	COMDAT ?UITL_ExternalBmodel@@YAHH@Z
_TEXT	SEGMENT
_mod$ = -4						; size = 4
_modelindex$ = 8					; size = 4
?UITL_ExternalBmodel@@YAHH@Z PROC			; UITL_ExternalBmodel, COMDAT

; 2695 : {

	push	ebp
	mov	ebp, esp
	sub	esp, 68					; 00000044H
	push	ebx
	push	esi
	push	edi

; 2696 : 	if( !g_fPhysicInitialized || modelindex <= 1 )

	cmp	DWORD PTR ?g_fPhysicInitialized@@3HA, 0	; g_fPhysicInitialized
	je	SHORT $LN3@UITL_Exter
	cmp	DWORD PTR _modelindex$[ebp], 1
	jg	SHORT $LN2@UITL_Exter
$LN3@UITL_Exter:

; 2697 : 		return FALSE;

	xor	eax, eax
	jmp	SHORT $LN1@UITL_Exter
$LN2@UITL_Exter:

; 2698 : 
; 2699 : 	model_t *mod = (model_t *)MODEL_HANDLE( modelindex );

	mov	eax, DWORD PTR _modelindex$[ebp]
	push	eax
	call	DWORD PTR ?g_physfuncs@@3Userver_physics_api_s@@A+12
	add	esp, 4
	mov	DWORD PTR _mod$[ebp], eax

; 2700 : 
; 2701 : 	// brush models can be stored as individual bsp-files and go across the transition
; 2702 : 	if( mod && mod->type == mod_brush && mod->name[0] != '*' )

	cmp	DWORD PTR _mod$[ebp], 0
	je	SHORT $LN4@UITL_Exter
	mov	eax, DWORD PTR _mod$[ebp]
	cmp	DWORD PTR [eax+68], 0
	jne	SHORT $LN4@UITL_Exter
	mov	eax, 1
	imul	ecx, eax, 0
	mov	edx, DWORD PTR _mod$[ebp]
	movsx	eax, BYTE PTR [edx+ecx]
	cmp	eax, 42					; 0000002aH
	je	SHORT $LN4@UITL_Exter

; 2703 : 		return TRUE;

	mov	eax, 1
	jmp	SHORT $LN1@UITL_Exter
$LN4@UITL_Exter:

; 2704 : 
; 2705 : 	return FALSE;	

	xor	eax, eax
$LN1@UITL_Exter:

; 2706 : }

	pop	edi
	pop	esi
	pop	ebx
	mov	esp, ebp
	pop	ebp
	ret	0
?UITL_ExternalBmodel@@YAHH@Z ENDP			; UITL_ExternalBmodel
_TEXT	ENDS
; Function compile flags: /Odtp /ZI
; File d:\!diffusion 2020\source code 2022\client-server\server\util.cpp
;	COMDAT ?UTIL_GetModelType@@YA?AW4modtype_t@@H@Z
_TEXT	SEGMENT
_mod$ = -4						; size = 4
_modelindex$ = 8					; size = 4
?UTIL_GetModelType@@YA?AW4modtype_t@@H@Z PROC		; UTIL_GetModelType, COMDAT

; 2672 : {

	push	ebp
	mov	ebp, esp
	sub	esp, 68					; 00000044H
	push	ebx
	push	esi
	push	edi

; 2673 : 	if( !g_fPhysicInitialized )

	cmp	DWORD PTR ?g_fPhysicInitialized@@3HA, 0	; g_fPhysicInitialized
	jne	SHORT $LN2@UTIL_GetMo

; 2674 : 		return mod_bad;

	or	eax, -1
	jmp	SHORT $LN1@UTIL_GetMo
$LN2@UTIL_GetMo:

; 2675 : 
; 2676 : 	model_t *mod = (model_t *)MODEL_HANDLE( modelindex );

	mov	eax, DWORD PTR _modelindex$[ebp]
	push	eax
	call	DWORD PTR ?g_physfuncs@@3Userver_physics_api_s@@A+12
	add	esp, 4
	mov	DWORD PTR _mod$[ebp], eax

; 2677 : 	if( mod )

	cmp	DWORD PTR _mod$[ebp], 0
	je	SHORT $LN3@UTIL_GetMo

; 2678 : 		return (modtype_t)mod->type;

	mov	eax, DWORD PTR _mod$[ebp]
	mov	eax, DWORD PTR [eax+68]
	jmp	SHORT $LN1@UTIL_GetMo
$LN3@UTIL_GetMo:

; 2679 : 
; 2680 : 	return mod_bad;

	or	eax, -1
$LN1@UTIL_GetMo:

; 2681 : }

	pop	edi
	pop	esi
	pop	ebx
	mov	esp, ebp
	pop	ebp
	ret	0
?UTIL_GetModelType@@YA?AW4modtype_t@@H@Z ENDP		; UTIL_GetModelType
_TEXT	ENDS
; Function compile flags: /Odtp /ZI
; File d:\!diffusion 2020\source code 2022\client-server\server\util.cpp
;	COMDAT ?UTIL_CanRotateBModel@@YAHPAVCBaseEntity@@@Z
_TEXT	SEGMENT
tv79 = -72						; size = 4
tv68 = -72						; size = 4
_mod$ = -4						; size = 4
_pEntity$ = 8						; size = 4
?UTIL_CanRotateBModel@@YAHPAVCBaseEntity@@@Z PROC	; UTIL_CanRotateBModel, COMDAT

; 2780 : {

	push	ebp
	mov	ebp, esp
	sub	esp, 72					; 00000048H
	push	ebx
	push	esi
	push	edi

; 2781 : 	model_t	*mod;
; 2782 : 
; 2783 : 	if( !g_fPhysicInitialized )

	cmp	DWORD PTR ?g_fPhysicInitialized@@3HA, 0	; g_fPhysicInitialized
	jne	SHORT $LN2@UTIL_CanRo

; 2784 : 		return (pEntity->pev->solid == SOLID_BSP);

	mov	eax, DWORD PTR _pEntity$[ebp]
	mov	ecx, DWORD PTR [eax+4]
	cmp	DWORD PTR [ecx+268], 4
	jne	SHORT $LN6@UTIL_CanRo
	mov	DWORD PTR tv68[ebp], 1
	jmp	SHORT $LN7@UTIL_CanRo
$LN6@UTIL_CanRo:
	mov	DWORD PTR tv68[ebp], 0
$LN7@UTIL_CanRo:
	mov	eax, DWORD PTR tv68[ebp]
	jmp	SHORT $LN1@UTIL_CanRo
$LN2@UTIL_CanRo:

; 2785 : 
; 2786 : 	mod = (model_t *)MODEL_HANDLE( pEntity->pev->modelindex );

	mov	eax, DWORD PTR _pEntity$[ebp]
	mov	ecx, DWORD PTR [eax+4]
	mov	edx, DWORD PTR [ecx+180]
	push	edx
	call	DWORD PTR ?g_physfuncs@@3Userver_physics_api_s@@A+12
	add	esp, 4
	mov	DWORD PTR _mod$[ebp], eax

; 2787 : 	if( !mod || mod->type != mod_brush )

	cmp	DWORD PTR _mod$[ebp], 0
	je	SHORT $LN4@UTIL_CanRo
	mov	eax, DWORD PTR _mod$[ebp]
	cmp	DWORD PTR [eax+68], 0
	je	SHORT $LN3@UTIL_CanRo
$LN4@UTIL_CanRo:

; 2788 : 		return FALSE;

	xor	eax, eax
	jmp	SHORT $LN1@UTIL_CanRo
$LN3@UTIL_CanRo:

; 2789 : 
; 2790 : 	// NOTE: flag 2 it's a internal engine flag (see model.c for details)
; 2791 : 	// we can recalc real model origin here but this check is faster :)
; 2792 : 	return (mod->flags & 2) ? TRUE : FALSE;

	mov	eax, DWORD PTR _mod$[ebp]
	mov	ecx, DWORD PTR [eax+80]
	and	ecx, 2
	je	SHORT $LN8@UTIL_CanRo
	mov	DWORD PTR tv79[ebp], 1
	jmp	SHORT $LN9@UTIL_CanRo
$LN8@UTIL_CanRo:
	mov	DWORD PTR tv79[ebp], 0
$LN9@UTIL_CanRo:
	mov	eax, DWORD PTR tv79[ebp]
$LN1@UTIL_CanRo:

; 2793 : }

	pop	edi
	pop	esi
	pop	ebx
	mov	esp, ebp
	pop	ebp
	ret	0
?UTIL_CanRotateBModel@@YAHPAVCBaseEntity@@@Z ENDP	; UTIL_CanRotateBModel
_TEXT	ENDS
; Function compile flags: /Odtp /ZI
; File d:\!diffusion 2020\source code 2022\client-server\server\util.cpp
;	COMDAT ?UTIL_CanRotate@@YAHPAVCBaseEntity@@@Z
_TEXT	SEGMENT
tv75 = -72						; size = 4
_mod$ = -4						; size = 4
_pEntity$ = 8						; size = 4
?UTIL_CanRotate@@YAHPAVCBaseEntity@@@Z PROC		; UTIL_CanRotate, COMDAT

; 2756 : {

	push	ebp
	mov	ebp, esp
	sub	esp, 72					; 00000048H
	push	ebx
	push	esi
	push	edi

; 2757 : 	model_t	*mod;
; 2758 : 
; 2759 : 	if( !g_fPhysicInitialized )

	cmp	DWORD PTR ?g_fPhysicInitialized@@3HA, 0	; g_fPhysicInitialized
	jne	SHORT $LN2@UTIL_CanRo

; 2760 : 		return TRUE;

	mov	eax, 1
	jmp	SHORT $LN1@UTIL_CanRo
$LN2@UTIL_CanRo:

; 2761 : 
; 2762 : 	mod = (model_t *)MODEL_HANDLE( pEntity->pev->modelindex );

	mov	eax, DWORD PTR _pEntity$[ebp]
	mov	ecx, DWORD PTR [eax+4]
	mov	edx, DWORD PTR [ecx+180]
	push	edx
	call	DWORD PTR ?g_physfuncs@@3Userver_physics_api_s@@A+12
	add	esp, 4
	mov	DWORD PTR _mod$[ebp], eax

; 2763 : 	if( !mod || mod->type != mod_brush )

	cmp	DWORD PTR _mod$[ebp], 0
	je	SHORT $LN4@UTIL_CanRo
	mov	eax, DWORD PTR _mod$[ebp]
	cmp	DWORD PTR [eax+68], 0
	je	SHORT $LN3@UTIL_CanRo
$LN4@UTIL_CanRo:

; 2764 : 		return TRUE;

	mov	eax, 1
	jmp	SHORT $LN1@UTIL_CanRo
$LN3@UTIL_CanRo:

; 2765 : 
; 2766 : 	// NOTE: flag 2 it's a internal engine flag (see model.c for details)
; 2767 : 	// we can recalc real model origin here but this check is faster :)
; 2768 : 	return (mod->flags & 2) ? TRUE : FALSE;

	mov	eax, DWORD PTR _mod$[ebp]
	mov	ecx, DWORD PTR [eax+80]
	and	ecx, 2
	je	SHORT $LN6@UTIL_CanRo
	mov	DWORD PTR tv75[ebp], 1
	jmp	SHORT $LN7@UTIL_CanRo
$LN6@UTIL_CanRo:
	mov	DWORD PTR tv75[ebp], 0
$LN7@UTIL_CanRo:
	mov	eax, DWORD PTR tv75[ebp]
$LN1@UTIL_CanRo:

; 2769 : }

	pop	edi
	pop	esi
	pop	ebx
	mov	esp, ebp
	pop	ebp
	ret	0
?UTIL_CanRotate@@YAHPAVCBaseEntity@@@Z ENDP		; UTIL_CanRotate
_TEXT	ENDS
; Function compile flags: /Odtp /ZI
; File d:\!diffusion 2020\source code 2022\client-server\server\util.cpp
;	COMDAT ?UTIL_UnsetGroupTrace@@YAXXZ
_TEXT	SEGMENT
?UTIL_UnsetGroupTrace@@YAXXZ PROC			; UTIL_UnsetGroupTrace, COMDAT

; 286  : {

	push	ebp
	mov	ebp, esp
	sub	esp, 64					; 00000040H
	push	ebx
	push	esi
	push	edi

; 287  : 	g_groupmask		= 0;

	mov	DWORD PTR ?g_groupmask@@3HA, 0		; g_groupmask

; 288  : 	g_groupop		= 0;

	mov	DWORD PTR ?g_groupop@@3HA, 0		; g_groupop

; 289  : 
; 290  : 	ENGINE_SETGROUPMASK( 0, 0 );

	push	0
	push	0
	call	DWORD PTR ?g_engfuncs@@3Uenginefuncs_s@@A+540
	add	esp, 8

; 291  : }

	pop	edi
	pop	esi
	pop	ebx
	mov	esp, ebp
	pop	ebp
	ret	0
?UTIL_UnsetGroupTrace@@YAXXZ ENDP			; UTIL_UnsetGroupTrace
_TEXT	ENDS
; Function compile flags: /Odtp /ZI
; File d:\!diffusion 2020\source code 2022\client-server\server\util.cpp
;	COMDAT ?UTIL_SetGroupTrace@@YAXHH@Z
_TEXT	SEGMENT
_groupmask$ = 8						; size = 4
_op$ = 12						; size = 4
?UTIL_SetGroupTrace@@YAXHH@Z PROC			; UTIL_SetGroupTrace, COMDAT

; 278  : {

	push	ebp
	mov	ebp, esp
	sub	esp, 64					; 00000040H
	push	ebx
	push	esi
	push	edi

; 279  : 	g_groupmask		= groupmask;

	mov	eax, DWORD PTR _groupmask$[ebp]
	mov	DWORD PTR ?g_groupmask@@3HA, eax	; g_groupmask

; 280  : 	g_groupop		= op;

	mov	eax, DWORD PTR _op$[ebp]
	mov	DWORD PTR ?g_groupop@@3HA, eax		; g_groupop

; 281  : 
; 282  : 	ENGINE_SETGROUPMASK( g_groupmask, g_groupop );

	mov	eax, DWORD PTR ?g_groupop@@3HA		; g_groupop
	push	eax
	mov	ecx, DWORD PTR ?g_groupmask@@3HA	; g_groupmask
	push	ecx
	call	DWORD PTR ?g_engfuncs@@3Uenginefuncs_s@@A+540
	add	esp, 8

; 283  : }

	pop	edi
	pop	esi
	pop	ebx
	mov	esp, ebp
	pop	ebp
	ret	0
?UTIL_SetGroupTrace@@YAXHH@Z ENDP			; UTIL_SetGroupTrace
_TEXT	ENDS
; Function compile flags: /Odtp /ZI
; File d:\!diffusion 2020\source code 2022\client-server\server\util.cpp
;	COMDAT ??1UTIL_GroupTrace@@QAE@XZ
_TEXT	SEGMENT
_this$ = -16						; size = 4
__$EHRec$ = -12						; size = 12
??1UTIL_GroupTrace@@QAE@XZ PROC				; UTIL_GroupTrace::~UTIL_GroupTrace, COMDAT
; _this$ = ecx

; 306  : {

	push	ebp
	mov	ebp, esp
	push	-1
	push	__ehhandler$??1UTIL_GroupTrace@@QAE@XZ
	mov	eax, DWORD PTR fs:0
	push	eax
	sub	esp, 68					; 00000044H
	push	ebx
	push	esi
	push	edi
	mov	eax, DWORD PTR ___security_cookie
	xor	eax, ebp
	push	eax
	lea	eax, DWORD PTR __$EHRec$[ebp]
	mov	DWORD PTR fs:0, eax
	mov	DWORD PTR _this$[ebp], ecx

; 307  : 	g_groupmask		=	m_oldgroupmask;

	mov	eax, DWORD PTR _this$[ebp]
	mov	ecx, DWORD PTR [eax]
	mov	DWORD PTR ?g_groupmask@@3HA, ecx	; g_groupmask

; 308  : 	g_groupop		=	m_oldgroupop;

	mov	eax, DWORD PTR _this$[ebp]
	mov	ecx, DWORD PTR [eax+4]
	mov	DWORD PTR ?g_groupop@@3HA, ecx		; g_groupop

; 309  : 
; 310  : 	ENGINE_SETGROUPMASK( g_groupmask, g_groupop );

	mov	eax, DWORD PTR ?g_groupop@@3HA		; g_groupop
	push	eax
	mov	ecx, DWORD PTR ?g_groupmask@@3HA	; g_groupmask
	push	ecx
	call	DWORD PTR ?g_engfuncs@@3Uenginefuncs_s@@A+540
	add	esp, 8

; 311  : }

	mov	ecx, DWORD PTR __$EHRec$[ebp]
	mov	DWORD PTR fs:0, ecx
	pop	ecx
	pop	edi
	pop	esi
	pop	ebx
	mov	esp, ebp
	pop	ebp
	ret	0
_TEXT	ENDS
;	COMDAT text$x
text$x	SEGMENT
__ehhandler$??1UTIL_GroupTrace@@QAE@XZ:
	mov	edx, DWORD PTR [esp+8]
	lea	eax, DWORD PTR [edx+12]
	mov	ecx, DWORD PTR [edx-84]
	xor	ecx, eax
	call	@__security_check_cookie@4
	mov	eax, OFFSET __ehfuncinfo$??1UTIL_GroupTrace@@QAE@XZ
	jmp	___CxxFrameHandler3
text$x	ENDS
??1UTIL_GroupTrace@@QAE@XZ ENDP				; UTIL_GroupTrace::~UTIL_GroupTrace
; Function compile flags: /Odtp /ZI
; File d:\!diffusion 2020\source code 2022\client-server\server\util.cpp
;	COMDAT ??0UTIL_GroupTrace@@QAE@HH@Z
_TEXT	SEGMENT
_this$ = -4						; size = 4
_groupmask$ = 8						; size = 4
_op$ = 12						; size = 4
??0UTIL_GroupTrace@@QAE@HH@Z PROC			; UTIL_GroupTrace::UTIL_GroupTrace, COMDAT
; _this$ = ecx

; 295  : {

	push	ebp
	mov	ebp, esp
	sub	esp, 68					; 00000044H
	push	ebx
	push	esi
	push	edi
	mov	DWORD PTR _this$[ebp], ecx

; 296  : 	m_oldgroupmask	= g_groupmask;

	mov	eax, DWORD PTR _this$[ebp]
	mov	ecx, DWORD PTR ?g_groupmask@@3HA	; g_groupmask
	mov	DWORD PTR [eax], ecx

; 297  : 	m_oldgroupop	= g_groupop;

	mov	eax, DWORD PTR _this$[ebp]
	mov	ecx, DWORD PTR ?g_groupop@@3HA		; g_groupop
	mov	DWORD PTR [eax+4], ecx

; 298  : 
; 299  : 	g_groupmask		= groupmask;

	mov	eax, DWORD PTR _groupmask$[ebp]
	mov	DWORD PTR ?g_groupmask@@3HA, eax	; g_groupmask

; 300  : 	g_groupop		= op;

	mov	eax, DWORD PTR _op$[ebp]
	mov	DWORD PTR ?g_groupop@@3HA, eax		; g_groupop

; 301  : 
; 302  : 	ENGINE_SETGROUPMASK( g_groupmask, g_groupop );

	mov	eax, DWORD PTR ?g_groupop@@3HA		; g_groupop
	push	eax
	mov	ecx, DWORD PTR ?g_groupmask@@3HA	; g_groupmask
	push	ecx
	call	DWORD PTR ?g_engfuncs@@3Uenginefuncs_s@@A+540
	add	esp, 8

; 303  : }

	mov	eax, DWORD PTR _this$[ebp]
	pop	edi
	pop	esi
	pop	ebx
	mov	esp, ebp
	pop	ebp
	ret	8
??0UTIL_GroupTrace@@QAE@HH@Z ENDP			; UTIL_GroupTrace::UTIL_GroupTrace
_TEXT	ENDS
; Function compile flags: /Odtp /ZI
; File d:\!diffusion 2020\source code 2022\client-server\server\util.h
;	COMDAT ?EMIT_SOUND@@YAXPAUedict_s@@HPBDMM@Z
_TEXT	SEGMENT
_entity$ = 8						; size = 4
_channel$ = 12						; size = 4
_sample$ = 16						; size = 4
_volume$ = 20						; size = 4
_attenuation$ = 24					; size = 4
?EMIT_SOUND@@YAXPAUedict_s@@HPBDMM@Z PROC		; EMIT_SOUND, COMDAT

; 622  : {

	push	ebp
	mov	ebp, esp
	sub	esp, 64					; 00000040H
	push	ebx
	push	esi
	push	edi

; 623  : 	EMIT_SOUND_DYN( entity, channel, sample, volume, attenuation, 0, PITCH_NORM );

	push	100					; 00000064H
	push	0
	push	ecx
	movss	xmm0, DWORD PTR _attenuation$[ebp]
	movss	DWORD PTR [esp], xmm0
	push	ecx
	movss	xmm0, DWORD PTR _volume$[ebp]
	movss	DWORD PTR [esp], xmm0
	mov	eax, DWORD PTR _sample$[ebp]
	push	eax
	mov	ecx, DWORD PTR _channel$[ebp]
	push	ecx
	mov	edx, DWORD PTR _entity$[ebp]
	push	edx
	call	?EMIT_SOUND_DYN@@YAXPAUedict_s@@HPBDMMHH@Z ; EMIT_SOUND_DYN
	add	esp, 28					; 0000001cH

; 624  : }

	pop	edi
	pop	esi
	pop	ebx
	mov	esp, ebp
	pop	ebp
	ret	0
?EMIT_SOUND@@YAXPAUedict_s@@HPBDMM@Z ENDP		; EMIT_SOUND
_TEXT	ENDS
; Function compile flags: /Odtp /ZI
; File d:\!diffusion 2020\source code 2022\client-server\server\util.cpp
;	COMDAT ?DBG_AssertFunction@@YAXHPBD0H0@Z
_TEXT	SEGMENT
_szOut$ = -516						; size = 512
__$ArrayPad$ = -4					; size = 4
_fExpr$ = 8						; size = 4
_szExpr$ = 12						; size = 4
_szFile$ = 16						; size = 4
_szLine$ = 20						; size = 4
_szMessage$ = 24					; size = 4
?DBG_AssertFunction@@YAXHPBD0H0@Z PROC			; DBG_AssertFunction, COMDAT

; 336  : 	{

	push	ebp
	mov	ebp, esp
	sub	esp, 644				; 00000284H
	mov	eax, DWORD PTR ___security_cookie
	xor	eax, ebp
	mov	DWORD PTR __$ArrayPad$[ebp], eax
	push	ebx
	push	esi
	push	edi

; 337  : 	if (fExpr)

	cmp	DWORD PTR _fExpr$[ebp], 0
	je	SHORT $LN2@DBG_Assert

; 338  : 		return;

	jmp	SHORT $LN1@DBG_Assert
$LN2@DBG_Assert:

; 339  : 	char szOut[512];
; 340  : 	if (szMessage != NULL)

	cmp	DWORD PTR _szMessage$[ebp], 0
	je	SHORT $LN3@DBG_Assert

; 341  : 		sprintf(szOut, "ASSERT FAILED:\n %s \n(%s@%d)\n%s", szExpr, szFile, szLine, szMessage);

	mov	eax, DWORD PTR _szMessage$[ebp]
	push	eax
	mov	ecx, DWORD PTR _szLine$[ebp]
	push	ecx
	mov	edx, DWORD PTR _szFile$[ebp]
	push	edx
	mov	eax, DWORD PTR _szExpr$[ebp]
	push	eax
	push	OFFSET ??_C@_0BP@JGGHDAMF@ASSERT?5FAILED?3?6?5?$CFs?5?6?$CI?$CFs?$EA?$CFd?$CJ?6?$CFs?$AA@
	lea	ecx, DWORD PTR _szOut$[ebp]
	push	ecx
	call	_sprintf
	add	esp, 24					; 00000018H

; 342  : 	else

	jmp	SHORT $LN4@DBG_Assert
$LN3@DBG_Assert:

; 343  : 		sprintf(szOut, "ASSERT FAILED:\n %s \n(%s@%d)", szExpr, szFile, szLine);

	mov	eax, DWORD PTR _szLine$[ebp]
	push	eax
	mov	ecx, DWORD PTR _szFile$[ebp]
	push	ecx
	mov	edx, DWORD PTR _szExpr$[ebp]
	push	edx
	push	OFFSET ??_C@_0BM@BEAJEFCJ@ASSERT?5FAILED?3?6?5?$CFs?5?6?$CI?$CFs?$EA?$CFd?$CJ?$AA@
	lea	eax, DWORD PTR _szOut$[ebp]
	push	eax
	call	_sprintf
	add	esp, 20					; 00000014H
$LN4@DBG_Assert:

; 344  : 	ALERT(at_console, szOut);

	lea	eax, DWORD PTR _szOut$[ebp]
	push	eax
	push	1
	call	DWORD PTR ?g_engfuncs@@3Uenginefuncs_s@@A+244
	add	esp, 8
$LN1@DBG_Assert:

; 345  : 	}

	pop	edi
	pop	esi
	pop	ebx
	mov	ecx, DWORD PTR __$ArrayPad$[ebp]
	xor	ecx, ebp
	call	@__security_check_cookie@4
	mov	esp, ebp
	pop	ebp
	ret	0
?DBG_AssertFunction@@YAXHPBD0H0@Z ENDP			; DBG_AssertFunction
_TEXT	ENDS
; Function compile flags: /Odtp /ZI
; File d:\!diffusion 2020\source code 2022\client-server\server\util.cpp
;	COMDAT ?VecBModelOrigin@@YA?AVVector@@PAUentvars_s@@@Z
_TEXT	SEGMENT
$T1 = -76						; size = 12
___$ReturnUdt$ = 8					; size = 4
_pevBModel$ = 12					; size = 4
?VecBModelOrigin@@YA?AVVector@@PAUentvars_s@@@Z PROC	; VecBModelOrigin, COMDAT

; 269  : {

	push	ebp
	mov	ebp, esp
	sub	esp, 76					; 0000004cH
	push	ebx
	push	esi
	push	edi

; 270  : 	return pevBModel->absmin + ( pevBModel->size * 0.5f );

	push	ecx
	movss	xmm0, DWORD PTR __real@3f000000
	movss	DWORD PTR [esp], xmm0
	lea	eax, DWORD PTR $T1[ebp]
	push	eax
	mov	ecx, DWORD PTR _pevBModel$[ebp]
	add	ecx, 244				; 000000f4H
	call	??DVector@@QBE?AV0@M@Z			; Vector::operator*
	push	eax
	mov	ecx, DWORD PTR ___$ReturnUdt$[ebp]
	push	ecx
	mov	ecx, DWORD PTR _pevBModel$[ebp]
	add	ecx, 196				; 000000c4H
	call	??HVector@@QBE?AV0@ABV0@@Z		; Vector::operator+
	mov	eax, DWORD PTR ___$ReturnUdt$[ebp]

; 271  : }

	pop	edi
	pop	esi
	pop	ebx
	mov	esp, ebp
	pop	ebp
	ret	0
?VecBModelOrigin@@YA?AVVector@@PAUentvars_s@@@Z ENDP	; VecBModelOrigin
_TEXT	ENDS
; Function compile flags: /Odtp /ZI
; File d:\!diffusion 2020\source code 2022\client-server\server\util.cpp
;	COMDAT ?UTIL_SetMovedir@@YAXPAVCBaseEntity@@@Z
_TEXT	SEGMENT
$T1 = -124						; size = 12
$T2 = -112						; size = 12
$T3 = -100						; size = 12
$T4 = -88						; size = 12
_angles$ = -12						; size = 12
_pEnt$ = 8						; size = 4
?UTIL_SetMovedir@@YAXPAVCBaseEntity@@@Z PROC		; UTIL_SetMovedir, COMDAT

; 2452 : {

	push	ebp
	mov	ebp, esp
	sub	esp, 124				; 0000007cH
	push	ebx
	push	esi
	push	edi

; 2453 : 	Vector angles = pEnt->pev->angles;

	mov	eax, DWORD PTR _pEnt$[ebp]
	mov	ecx, DWORD PTR [eax+4]
	add	ecx, 80					; 00000050H
	push	ecx
	lea	ecx, DWORD PTR _angles$[ebp]
	call	??0Vector@@QAE@ABV0@@Z			; Vector::Vector

; 2454 : 	pEnt->pev->angles = g_vecZero;

	mov	eax, DWORD PTR _pEnt$[ebp]
	mov	ecx, DWORD PTR [eax+4]
	add	ecx, 80					; 00000050H
	mov	edx, DWORD PTR ?g_vecZero@@3VVector@@B
	mov	DWORD PTR [ecx], edx
	mov	eax, DWORD PTR ?g_vecZero@@3VVector@@B+4
	mov	DWORD PTR [ecx+4], eax
	mov	edx, DWORD PTR ?g_vecZero@@3VVector@@B+8
	mov	DWORD PTR [ecx+8], edx

; 2455 : 
; 2456 : 	if( angles == Vector( 0, -1, 0 ))

	push	ecx
	xorps	xmm0, xmm0
	movss	DWORD PTR [esp], xmm0
	push	ecx
	movss	xmm0, DWORD PTR __real@bf800000
	movss	DWORD PTR [esp], xmm0
	push	ecx
	xorps	xmm0, xmm0
	movss	DWORD PTR [esp], xmm0
	lea	ecx, DWORD PTR $T4[ebp]
	call	??0Vector@@QAE@MMM@Z			; Vector::Vector
	push	eax
	lea	ecx, DWORD PTR _angles$[ebp]
	call	??8Vector@@QBEHABV0@@Z			; Vector::operator==
	test	eax, eax
	je	SHORT $LN2@UTIL_SetMo

; 2457 : 	{
; 2458 : 		pEnt->SetMoveDir( Vector( 0, 0, 1 ));

	push	ecx
	movss	xmm0, DWORD PTR __real@3f800000
	movss	DWORD PTR [esp], xmm0
	push	ecx
	xorps	xmm0, xmm0
	movss	DWORD PTR [esp], xmm0
	push	ecx
	xorps	xmm0, xmm0
	movss	DWORD PTR [esp], xmm0
	lea	ecx, DWORD PTR $T3[ebp]
	call	??0Vector@@QAE@MMM@Z			; Vector::Vector
	push	eax
	mov	ecx, DWORD PTR _pEnt$[ebp]
	call	?SetMoveDir@CBaseEntity@@QAEXABVVector@@@Z ; CBaseEntity::SetMoveDir
	jmp	$LN5@UTIL_SetMo
$LN2@UTIL_SetMo:

; 2459 : 	}
; 2460 : 	else if( angles == Vector( 0, -2, 0 ))

	push	ecx
	xorps	xmm0, xmm0
	movss	DWORD PTR [esp], xmm0
	push	ecx
	movss	xmm0, DWORD PTR __real@c0000000
	movss	DWORD PTR [esp], xmm0
	push	ecx
	xorps	xmm0, xmm0
	movss	DWORD PTR [esp], xmm0
	lea	ecx, DWORD PTR $T2[ebp]
	call	??0Vector@@QAE@MMM@Z			; Vector::Vector
	push	eax
	lea	ecx, DWORD PTR _angles$[ebp]
	call	??8Vector@@QBEHABV0@@Z			; Vector::operator==
	test	eax, eax
	je	SHORT $LN4@UTIL_SetMo

; 2461 : 	{
; 2462 : 		pEnt->SetMoveDir( Vector( 0, 0, -1 ));

	push	ecx
	movss	xmm0, DWORD PTR __real@bf800000
	movss	DWORD PTR [esp], xmm0
	push	ecx
	xorps	xmm0, xmm0
	movss	DWORD PTR [esp], xmm0
	push	ecx
	xorps	xmm0, xmm0
	movss	DWORD PTR [esp], xmm0
	lea	ecx, DWORD PTR $T1[ebp]
	call	??0Vector@@QAE@MMM@Z			; Vector::Vector
	push	eax
	mov	ecx, DWORD PTR _pEnt$[ebp]
	call	?SetMoveDir@CBaseEntity@@QAEXABVVector@@@Z ; CBaseEntity::SetMoveDir

; 2463 : 	}
; 2464 : 	else

	jmp	SHORT $LN5@UTIL_SetMo
$LN4@UTIL_SetMo:

; 2465 : 	{
; 2466 : 		UTIL_MakeVectors( angles );

	lea	eax, DWORD PTR _angles$[ebp]
	push	eax
	call	?UTIL_MakeVectors@@YAXABVVector@@@Z	; UTIL_MakeVectors
	add	esp, 4

; 2467 : 		pEnt->SetMoveDir( gpGlobals->v_forward );

	mov	eax, DWORD PTR ?gpGlobals@@3PAUglobalvars_t@@A ; gpGlobals
	add	eax, 40					; 00000028H
	push	eax
	mov	ecx, DWORD PTR _pEnt$[ebp]
	call	?SetMoveDir@CBaseEntity@@QAEXABVVector@@@Z ; CBaseEntity::SetMoveDir
$LN5@UTIL_SetMo:

; 2468 : 	}
; 2469 : }

	pop	edi
	pop	esi
	pop	ebx
	mov	esp, ebp
	pop	ebp
	ret	0
?UTIL_SetMovedir@@YAXPAVCBaseEntity@@@Z ENDP		; UTIL_SetMovedir
_TEXT	ENDS
; Function compile flags: /Odtp /ZI
; File d:\!diffusion 2020\source code 2022\client-server\server\util.cpp
;	COMDAT ?UTIL_StripToken@@YAXPBDPAD@Z
_TEXT	SEGMENT
_i$ = -4						; size = 4
_pKey$ = 8						; size = 4
_pDest$ = 12						; size = 4
?UTIL_StripToken@@YAXPBDPAD@Z PROC			; UTIL_StripToken, COMDAT

; 2609 : {

	push	ebp
	mov	ebp, esp
	sub	esp, 68					; 00000044H
	push	ebx
	push	esi
	push	edi

; 2610 : 	int i = 0;

	mov	DWORD PTR _i$[ebp], 0
$LN2@UTIL_Strip:

; 2611 : 
; 2612 : 	while ( pKey[i] && pKey[i] != '#' )

	mov	eax, DWORD PTR _pKey$[ebp]
	add	eax, DWORD PTR _i$[ebp]
	movsx	ecx, BYTE PTR [eax]
	test	ecx, ecx
	je	SHORT $LN3@UTIL_Strip
	mov	eax, DWORD PTR _pKey$[ebp]
	add	eax, DWORD PTR _i$[ebp]
	movsx	ecx, BYTE PTR [eax]
	cmp	ecx, 35					; 00000023H
	je	SHORT $LN3@UTIL_Strip

; 2613 : 	{
; 2614 : 		pDest[i] = pKey[i];

	mov	eax, DWORD PTR _pDest$[ebp]
	add	eax, DWORD PTR _i$[ebp]
	mov	ecx, DWORD PTR _pKey$[ebp]
	add	ecx, DWORD PTR _i$[ebp]
	mov	dl, BYTE PTR [ecx]
	mov	BYTE PTR [eax], dl

; 2615 : 		i++;

	mov	eax, DWORD PTR _i$[ebp]
	add	eax, 1
	mov	DWORD PTR _i$[ebp], eax

; 2616 : 	}

	jmp	SHORT $LN2@UTIL_Strip
$LN3@UTIL_Strip:

; 2617 : 	pDest[i] = 0;

	mov	eax, DWORD PTR _pDest$[ebp]
	add	eax, DWORD PTR _i$[ebp]
	mov	BYTE PTR [eax], 0

; 2618 : }

	pop	edi
	pop	esi
	pop	ebx
	mov	esp, ebp
	pop	ebp
	ret	0
?UTIL_StripToken@@YAXPBDPAD@Z ENDP			; UTIL_StripToken
_TEXT	ENDS
; Function compile flags: /Odtp /ZI
; File d:\!diffusion 2020\source code 2022\client-server\server\util.cpp
;	COMDAT ?UTIL_DotPoints@@YAMABVVector@@00@Z
_TEXT	SEGMENT
$T1 = -108						; size = 8
$T2 = -100						; size = 8
$T3 = -92						; size = 8
$T4 = -84						; size = 12
_vec2LOS$ = -8						; size = 8
_vecSrc$ = 8						; size = 4
_vecCheck$ = 12						; size = 4
_vecDir$ = 16						; size = 4
?UTIL_DotPoints@@YAMABVVector@@00@Z PROC		; UTIL_DotPoints, COMDAT

; 2595 : {

	push	ebp
	mov	ebp, esp
	sub	esp, 108				; 0000006cH
	push	ebx
	push	esi
	push	edi

; 2596 : 	Vector2D	vec2LOS;

	lea	ecx, DWORD PTR _vec2LOS$[ebp]
	call	??0Vector2D@@QAE@XZ			; Vector2D::Vector2D

; 2597 : 
; 2598 : 	vec2LOS = ( vecCheck - vecSrc ).Make2D();

	lea	eax, DWORD PTR $T3[ebp]
	push	eax
	mov	ecx, DWORD PTR _vecSrc$[ebp]
	push	ecx
	lea	edx, DWORD PTR $T4[ebp]
	push	edx
	mov	ecx, DWORD PTR _vecCheck$[ebp]
	call	??GVector@@QBE?AV0@ABV0@@Z		; Vector::operator-
	mov	ecx, eax
	call	?Make2D@Vector@@QBE?AVVector2D@@XZ	; Vector::Make2D
	mov	ecx, DWORD PTR [eax]
	mov	edx, DWORD PTR [eax+4]
	mov	DWORD PTR _vec2LOS$[ebp], ecx
	mov	DWORD PTR _vec2LOS$[ebp+4], edx

; 2599 : 	vec2LOS = vec2LOS.Normalize();

	lea	eax, DWORD PTR $T2[ebp]
	push	eax
	lea	ecx, DWORD PTR _vec2LOS$[ebp]
	call	?Normalize@Vector2D@@QBE?AV1@XZ		; Vector2D::Normalize
	mov	ecx, DWORD PTR [eax]
	mov	edx, DWORD PTR [eax+4]
	mov	DWORD PTR _vec2LOS$[ebp], ecx
	mov	DWORD PTR _vec2LOS$[ebp+4], edx

; 2600 : 
; 2601 : 	return DotProduct (vec2LOS , ( vecDir.Make2D() ) );

	lea	eax, DWORD PTR $T1[ebp]
	push	eax
	mov	ecx, DWORD PTR _vecDir$[ebp]
	call	?Make2D@Vector@@QBE?AVVector2D@@XZ	; Vector::Make2D
	push	eax
	lea	ecx, DWORD PTR _vec2LOS$[ebp]
	push	ecx
	call	?DotProduct@@YAMABVVector2D@@0@Z	; DotProduct
	add	esp, 8

; 2602 : }

	pop	edi
	pop	esi
	pop	ebx
	mov	esp, ebp
	pop	ebp
	ret	0
?UTIL_DotPoints@@YAMABVVector@@00@Z ENDP		; UTIL_DotPoints
_TEXT	ENDS
; Function compile flags: /Odtp /ZI
; File d:\!diffusion 2020\source code 2022\client-server\server\util.cpp
;	COMDAT ?UTIL_LogPrintf@@YAXPADZZ
_TEXT	SEGMENT
_argptr$ = -4						; size = 4
_fmt$ = 8						; size = 4
?UTIL_LogPrintf@@YAXPADZZ PROC				; UTIL_LogPrintf, COMDAT

; 2578 : {

	push	ebp
	mov	ebp, esp
	sub	esp, 68					; 00000044H
	push	ebx
	push	esi
	push	edi

; 2579 : 	va_list			argptr;
; 2580 : 	static char		string[1024];
; 2581 : 	
; 2582 : 	va_start ( argptr, fmt );

	call	??$__vcrt_va_start_verify_argument_type@PAD@@YAXXZ ; __vcrt_va_start_verify_argument_type<char *>
	lea	eax, DWORD PTR _fmt$[ebp+4]
	mov	DWORD PTR _argptr$[ebp], eax

; 2583 : 	vsprintf ( string, fmt, argptr );

	mov	eax, DWORD PTR _argptr$[ebp]
	push	eax
	mov	ecx, DWORD PTR _fmt$[ebp]
	push	ecx
	push	OFFSET ?string@?1??UTIL_LogPrintf@@YAXPADZZ@4PADA
	call	_vsprintf
	add	esp, 12					; 0000000cH

; 2584 : 	va_end   ( argptr );

	mov	DWORD PTR _argptr$[ebp], 0

; 2585 : 
; 2586 : 	// Print to server console
; 2587 : 	ALERT( at_logged, "%s", string );

	push	OFFSET ?string@?1??UTIL_LogPrintf@@YAXPADZZ@4PADA
	push	OFFSET ??_C@_02DKCKIIND@?$CFs?$AA@
	push	5
	call	DWORD PTR ?g_engfuncs@@3Uenginefuncs_s@@A+244
	add	esp, 12					; 0000000cH

; 2588 : }

	pop	edi
	pop	esi
	pop	ebx
	mov	esp, ebp
	pop	ebp
	ret	0
?UTIL_LogPrintf@@YAXPADZZ ENDP				; UTIL_LogPrintf
_TEXT	ENDS
; Function compile flags: /Odtp /ZI
; File d:\!diffusion 2020\source code 2022\client-server\server\util.cpp
;	COMDAT ?UTIL_dtos4@@YAPADH@Z
_TEXT	SEGMENT
_d$ = 8							; size = 4
?UTIL_dtos4@@YAPADH@Z PROC				; UTIL_dtos4, COMDAT

; 1355 : {

	push	ebp
	mov	ebp, esp
	sub	esp, 64					; 00000040H
	push	ebx
	push	esi
	push	edi

; 1356 : 	static char buf[8];
; 1357 : 	sprintf( buf, "%d", d );

	mov	eax, DWORD PTR _d$[ebp]
	push	eax
	push	OFFSET ??_C@_02DPKJAMEF@?$CFd?$AA@
	push	OFFSET ?buf@?1??UTIL_dtos4@@YAPADH@Z@4PADA
	call	_sprintf
	add	esp, 12					; 0000000cH

; 1358 : 	return buf;

	mov	eax, OFFSET ?buf@?1??UTIL_dtos4@@YAPADH@Z@4PADA

; 1359 : }

	pop	edi
	pop	esi
	pop	ebx
	mov	esp, ebp
	pop	ebp
	ret	0
?UTIL_dtos4@@YAPADH@Z ENDP				; UTIL_dtos4
_TEXT	ENDS
; Function compile flags: /Odtp /ZI
; File d:\!diffusion 2020\source code 2022\client-server\server\util.cpp
;	COMDAT ?UTIL_dtos3@@YAPADH@Z
_TEXT	SEGMENT
_d$ = 8							; size = 4
?UTIL_dtos3@@YAPADH@Z PROC				; UTIL_dtos3, COMDAT

; 1348 : {

	push	ebp
	mov	ebp, esp
	sub	esp, 64					; 00000040H
	push	ebx
	push	esi
	push	edi

; 1349 : 	static char buf[8];
; 1350 : 	sprintf( buf, "%d", d );

	mov	eax, DWORD PTR _d$[ebp]
	push	eax
	push	OFFSET ??_C@_02DPKJAMEF@?$CFd?$AA@
	push	OFFSET ?buf@?1??UTIL_dtos3@@YAPADH@Z@4PADA
	call	_sprintf
	add	esp, 12					; 0000000cH

; 1351 : 	return buf;

	mov	eax, OFFSET ?buf@?1??UTIL_dtos3@@YAPADH@Z@4PADA

; 1352 : }

	pop	edi
	pop	esi
	pop	ebx
	mov	esp, ebp
	pop	ebp
	ret	0
?UTIL_dtos3@@YAPADH@Z ENDP				; UTIL_dtos3
_TEXT	ENDS
; Function compile flags: /Odtp /ZI
; File d:\!diffusion 2020\source code 2022\client-server\server\util.cpp
;	COMDAT ?UTIL_dtos2@@YAPADH@Z
_TEXT	SEGMENT
_d$ = 8							; size = 4
?UTIL_dtos2@@YAPADH@Z PROC				; UTIL_dtos2, COMDAT

; 1341 : {

	push	ebp
	mov	ebp, esp
	sub	esp, 64					; 00000040H
	push	ebx
	push	esi
	push	edi

; 1342 : 	static char buf[8];
; 1343 : 	sprintf( buf, "%d", d );

	mov	eax, DWORD PTR _d$[ebp]
	push	eax
	push	OFFSET ??_C@_02DPKJAMEF@?$CFd?$AA@
	push	OFFSET ?buf@?1??UTIL_dtos2@@YAPADH@Z@4PADA
	call	_sprintf
	add	esp, 12					; 0000000cH

; 1344 : 	return buf;

	mov	eax, OFFSET ?buf@?1??UTIL_dtos2@@YAPADH@Z@4PADA

; 1345 : }

	pop	edi
	pop	esi
	pop	ebx
	mov	esp, ebp
	pop	ebp
	ret	0
?UTIL_dtos2@@YAPADH@Z ENDP				; UTIL_dtos2
_TEXT	ENDS
; Function compile flags: /Odtp /ZI
; File d:\!diffusion 2020\source code 2022\client-server\server\util.cpp
;	COMDAT ?UTIL_dtos1@@YAPADH@Z
_TEXT	SEGMENT
_d$ = 8							; size = 4
?UTIL_dtos1@@YAPADH@Z PROC				; UTIL_dtos1, COMDAT

; 1334 : {

	push	ebp
	mov	ebp, esp
	sub	esp, 64					; 00000040H
	push	ebx
	push	esi
	push	edi

; 1335 : 	static char buf[8];
; 1336 : 	sprintf( buf, "%d", d );

	mov	eax, DWORD PTR _d$[ebp]
	push	eax
	push	OFFSET ??_C@_02DPKJAMEF@?$CFd?$AA@
	push	OFFSET ?buf@?1??UTIL_dtos1@@YAPADH@Z@4PADA
	call	_sprintf
	add	esp, 12					; 0000000cH

; 1337 : 	return buf;

	mov	eax, OFFSET ?buf@?1??UTIL_dtos1@@YAPADH@Z@4PADA

; 1338 : }

	pop	edi
	pop	esi
	pop	ebx
	mov	esp, ebp
	pop	ebp
	ret	0
?UTIL_dtos1@@YAPADH@Z ENDP				; UTIL_dtos1
_TEXT	ENDS
; Function compile flags: /Odtp /ZI
; File d:\!diffusion 2020\source code 2022\client-server\server\util.cpp
;	COMDAT ?UTIL_HudMessage@@YAXPAVCBaseEntity@@ABUhudtextparms_s@@PBD@Z
_TEXT	SEGMENT
$T1 = -312						; size = 4
_tmp$2 = -244						; size = 235
_MAX_LENGTH$ = -8					; size = 4
__$ArrayPad$ = -4					; size = 4
_pEntity$ = 8						; size = 4
_textparms$ = 12					; size = 4
_pMessage$ = 16						; size = 4
?UTIL_HudMessage@@YAXPAVCBaseEntity@@ABUhudtextparms_s@@PBD@Z PROC ; UTIL_HudMessage, COMDAT

; 1216 : {

	push	ebp
	mov	ebp, esp
	sub	esp, 312				; 00000138H
	mov	eax, DWORD PTR ___security_cookie
	xor	eax, ebp
	mov	DWORD PTR __$ArrayPad$[ebp], eax
	push	ebx
	push	esi
	push	edi

; 1217 : 	if ( !pEntity || !pEntity->IsNetClient() )

	cmp	DWORD PTR _pEntity$[ebp], 0
	je	SHORT $LN3@UTIL_HudMe
	mov	eax, DWORD PTR _pEntity$[ebp]
	mov	edx, DWORD PTR [eax]
	mov	ecx, DWORD PTR _pEntity$[ebp]
	mov	eax, DWORD PTR [edx+224]
	call	eax
	test	eax, eax
	jne	SHORT $LN2@UTIL_HudMe
$LN3@UTIL_HudMe:

; 1218 : 		return;

	jmp	$LN1@UTIL_HudMe
$LN2@UTIL_HudMe:

; 1219 : 
; 1220 : 	const int MAX_LENGTH = 235; // diffusion - was 512, but it's crashing the server. this value works well enough

	mov	DWORD PTR _MAX_LENGTH$[ebp], 235	; 000000ebH

; 1221 : 
; 1222 : 	// diffusion - safety check
; 1223 : 	if( strlen( pMessage ) > MAX_LENGTH )

	mov	eax, DWORD PTR _pMessage$[ebp]
	push	eax
	call	_strlen
	add	esp, 4
	cmp	eax, 235				; 000000ebH
	jbe	SHORT $LN4@UTIL_HudMe

; 1224 : 		ALERT( at_warning, "UTIL_HudMessage: Message is too long!\n" );

	push	OFFSET ??_C@_0CH@BAAGDENI@UTIL_HudMessage?3?5Message?5is?5too?5@
	push	3
	call	DWORD PTR ?g_engfuncs@@3Uenginefuncs_s@@A+244
	add	esp, 8
$LN4@UTIL_HudMe:

; 1225 : 
; 1226 : 	MESSAGE_BEGIN( MSG_ONE, SVC_TEMPENTITY, NULL, pEntity->edict() );

	mov	ecx, DWORD PTR _pEntity$[ebp]
	call	?edict@CBaseEntity@@QAEPAUedict_s@@XZ	; CBaseEntity::edict
	push	eax
	push	0
	push	23					; 00000017H
	push	1
	call	?MESSAGE_BEGIN@@YAXHHPBMPAUedict_s@@@Z	; MESSAGE_BEGIN
	add	esp, 16					; 00000010H

; 1227 : 		WRITE_BYTE( TE_TEXTMESSAGE );

	push	29					; 0000001dH
	call	DWORD PTR ?g_engfuncs@@3Uenginefuncs_s@@A+192
	add	esp, 4

; 1228 : 		WRITE_BYTE( textparms.channel & 0xFF );

	mov	eax, DWORD PTR _textparms$[ebp]
	mov	ecx, DWORD PTR [eax+36]
	and	ecx, 255				; 000000ffH
	push	ecx
	call	DWORD PTR ?g_engfuncs@@3Uenginefuncs_s@@A+192
	add	esp, 4

; 1229 : 
; 1230 : 		WRITE_SHORT( FixedSigned16( textparms.x, 1<<13 ) );

	push	ecx
	movss	xmm0, DWORD PTR __real@46000000
	movss	DWORD PTR [esp], xmm0
	mov	eax, DWORD PTR _textparms$[ebp]
	push	ecx
	movss	xmm0, DWORD PTR [eax]
	movss	DWORD PTR [esp], xmm0
	call	?FixedSigned16@@YAFMM@Z			; FixedSigned16
	add	esp, 8
	movsx	ecx, ax
	push	ecx
	call	DWORD PTR ?g_engfuncs@@3Uenginefuncs_s@@A+200
	add	esp, 4

; 1231 : 		WRITE_SHORT( FixedSigned16( textparms.y, 1<<13 ) );

	push	ecx
	movss	xmm0, DWORD PTR __real@46000000
	movss	DWORD PTR [esp], xmm0
	mov	eax, DWORD PTR _textparms$[ebp]
	push	ecx
	movss	xmm0, DWORD PTR [eax+4]
	movss	DWORD PTR [esp], xmm0
	call	?FixedSigned16@@YAFMM@Z			; FixedSigned16
	add	esp, 8
	movsx	ecx, ax
	push	ecx
	call	DWORD PTR ?g_engfuncs@@3Uenginefuncs_s@@A+200
	add	esp, 4

; 1232 : 		WRITE_BYTE( textparms.effect );

	mov	eax, DWORD PTR _textparms$[ebp]
	mov	ecx, DWORD PTR [eax+8]
	push	ecx
	call	DWORD PTR ?g_engfuncs@@3Uenginefuncs_s@@A+192
	add	esp, 4

; 1233 : 
; 1234 : 		WRITE_BYTE( textparms.r1 );

	mov	eax, DWORD PTR _textparms$[ebp]
	movzx	ecx, BYTE PTR [eax+12]
	push	ecx
	call	DWORD PTR ?g_engfuncs@@3Uenginefuncs_s@@A+192
	add	esp, 4

; 1235 : 		WRITE_BYTE( textparms.g1 );

	mov	eax, DWORD PTR _textparms$[ebp]
	movzx	ecx, BYTE PTR [eax+13]
	push	ecx
	call	DWORD PTR ?g_engfuncs@@3Uenginefuncs_s@@A+192
	add	esp, 4

; 1236 : 		WRITE_BYTE( textparms.b1 );

	mov	eax, DWORD PTR _textparms$[ebp]
	movzx	ecx, BYTE PTR [eax+14]
	push	ecx
	call	DWORD PTR ?g_engfuncs@@3Uenginefuncs_s@@A+192
	add	esp, 4

; 1237 : 		WRITE_BYTE( textparms.a1 );

	mov	eax, DWORD PTR _textparms$[ebp]
	movzx	ecx, BYTE PTR [eax+15]
	push	ecx
	call	DWORD PTR ?g_engfuncs@@3Uenginefuncs_s@@A+192
	add	esp, 4

; 1238 : 
; 1239 : 		WRITE_BYTE( textparms.r2 );

	mov	eax, DWORD PTR _textparms$[ebp]
	movzx	ecx, BYTE PTR [eax+16]
	push	ecx
	call	DWORD PTR ?g_engfuncs@@3Uenginefuncs_s@@A+192
	add	esp, 4

; 1240 : 		WRITE_BYTE( textparms.g2 );

	mov	eax, DWORD PTR _textparms$[ebp]
	movzx	ecx, BYTE PTR [eax+17]
	push	ecx
	call	DWORD PTR ?g_engfuncs@@3Uenginefuncs_s@@A+192
	add	esp, 4

; 1241 : 		WRITE_BYTE( textparms.b2 );

	mov	eax, DWORD PTR _textparms$[ebp]
	movzx	ecx, BYTE PTR [eax+18]
	push	ecx
	call	DWORD PTR ?g_engfuncs@@3Uenginefuncs_s@@A+192
	add	esp, 4

; 1242 : 		WRITE_BYTE( textparms.a2 );

	mov	eax, DWORD PTR _textparms$[ebp]
	movzx	ecx, BYTE PTR [eax+19]
	push	ecx
	call	DWORD PTR ?g_engfuncs@@3Uenginefuncs_s@@A+192
	add	esp, 4

; 1243 : 
; 1244 : 		WRITE_SHORT( FixedUnsigned16( textparms.fadeinTime, 1<<8 ) );

	push	ecx
	movss	xmm0, DWORD PTR __real@43800000
	movss	DWORD PTR [esp], xmm0
	mov	eax, DWORD PTR _textparms$[ebp]
	push	ecx
	movss	xmm0, DWORD PTR [eax+20]
	movss	DWORD PTR [esp], xmm0
	call	?FixedUnsigned16@@YAGMM@Z		; FixedUnsigned16
	add	esp, 8
	movzx	ecx, ax
	push	ecx
	call	DWORD PTR ?g_engfuncs@@3Uenginefuncs_s@@A+200
	add	esp, 4

; 1245 : 		WRITE_SHORT( FixedUnsigned16( textparms.fadeoutTime, 1<<8 ) );

	push	ecx
	movss	xmm0, DWORD PTR __real@43800000
	movss	DWORD PTR [esp], xmm0
	mov	eax, DWORD PTR _textparms$[ebp]
	push	ecx
	movss	xmm0, DWORD PTR [eax+24]
	movss	DWORD PTR [esp], xmm0
	call	?FixedUnsigned16@@YAGMM@Z		; FixedUnsigned16
	add	esp, 8
	movzx	ecx, ax
	push	ecx
	call	DWORD PTR ?g_engfuncs@@3Uenginefuncs_s@@A+200
	add	esp, 4

; 1246 : 		WRITE_SHORT( FixedUnsigned16( textparms.holdTime, 1<<8 ) );

	push	ecx
	movss	xmm0, DWORD PTR __real@43800000
	movss	DWORD PTR [esp], xmm0
	mov	eax, DWORD PTR _textparms$[ebp]
	push	ecx
	movss	xmm0, DWORD PTR [eax+28]
	movss	DWORD PTR [esp], xmm0
	call	?FixedUnsigned16@@YAGMM@Z		; FixedUnsigned16
	add	esp, 8
	movzx	ecx, ax
	push	ecx
	call	DWORD PTR ?g_engfuncs@@3Uenginefuncs_s@@A+200
	add	esp, 4

; 1247 : 
; 1248 : 		if ( textparms.effect == 2 )

	mov	eax, DWORD PTR _textparms$[ebp]
	cmp	DWORD PTR [eax+8], 2
	jne	SHORT $LN5@UTIL_HudMe

; 1249 : 			WRITE_SHORT( FixedUnsigned16( textparms.fxTime, 1<<8 ) );

	push	ecx
	movss	xmm0, DWORD PTR __real@43800000
	movss	DWORD PTR [esp], xmm0
	mov	eax, DWORD PTR _textparms$[ebp]
	push	ecx
	movss	xmm0, DWORD PTR [eax+32]
	movss	DWORD PTR [esp], xmm0
	call	?FixedUnsigned16@@YAGMM@Z		; FixedUnsigned16
	add	esp, 8
	movzx	ecx, ax
	push	ecx
	call	DWORD PTR ?g_engfuncs@@3Uenginefuncs_s@@A+200
	add	esp, 4
$LN5@UTIL_HudMe:

; 1250 : 		
; 1251 : 		if ( strlen( pMessage ) < MAX_LENGTH )

	mov	eax, DWORD PTR _pMessage$[ebp]
	push	eax
	call	_strlen
	add	esp, 4
	cmp	eax, 235				; 000000ebH
	jae	SHORT $LN6@UTIL_HudMe

; 1252 : 			WRITE_STRING( pMessage );

	mov	eax, DWORD PTR _pMessage$[ebp]
	push	eax
	call	DWORD PTR ?g_engfuncs@@3Uenginefuncs_s@@A+216
	add	esp, 4

; 1253 : 		else

	jmp	SHORT $LN7@UTIL_HudMe
$LN6@UTIL_HudMe:

; 1254 : 		{
; 1255 : 			char tmp[MAX_LENGTH];
; 1256 : 			strncpy( tmp, pMessage, MAX_LENGTH - 1 );

	push	234					; 000000eaH
	mov	eax, DWORD PTR _pMessage$[ebp]
	push	eax
	lea	ecx, DWORD PTR _tmp$2[ebp]
	push	ecx
	call	_strncpy
	add	esp, 12					; 0000000cH

; 1257 : 			tmp[MAX_LENGTH - 1] = 0;

	mov	eax, 1
	imul	ecx, eax, 234
	mov	DWORD PTR $T1[ebp], ecx
	cmp	DWORD PTR $T1[ebp], 235			; 000000ebH
	jae	SHORT $LN9@UTIL_HudMe
	jmp	SHORT $LN10@UTIL_HudMe
$LN9@UTIL_HudMe:
	call	___report_rangecheckfailure
$LN10@UTIL_HudMe:
	mov	edx, DWORD PTR $T1[ebp]
	mov	BYTE PTR _tmp$2[ebp+edx], 0

; 1258 : 			WRITE_STRING( tmp );

	lea	eax, DWORD PTR _tmp$2[ebp]
	push	eax
	call	DWORD PTR ?g_engfuncs@@3Uenginefuncs_s@@A+216
	add	esp, 4
$LN7@UTIL_HudMe:

; 1259 : 		}
; 1260 : 	MESSAGE_END();

	call	DWORD PTR ?g_engfuncs@@3Uenginefuncs_s@@A+188
$LN1@UTIL_HudMe:

; 1261 : }

	pop	edi
	pop	esi
	pop	ebx
	mov	ecx, DWORD PTR __$ArrayPad$[ebp]
	xor	ecx, ebp
	call	@__security_check_cookie@4
	mov	esp, ebp
	pop	ebp
	ret	0
?UTIL_HudMessage@@YAXPAVCBaseEntity@@ABUhudtextparms_s@@PBD@Z ENDP ; UTIL_HudMessage
_TEXT	ENDS
; Function compile flags: /Odtp /ZI
; File d:\!diffusion 2020\source code 2022\client-server\server\util.cpp
;	COMDAT ?UTIL_HudMessageAll@@YAXABUhudtextparms_s@@PBD@Z
_TEXT	SEGMENT
_pPlayer$1 = -8						; size = 4
_i$ = -4						; size = 4
_textparms$ = 8						; size = 4
_pMessage$ = 12						; size = 4
?UTIL_HudMessageAll@@YAXABUhudtextparms_s@@PBD@Z PROC	; UTIL_HudMessageAll, COMDAT

; 1264 : {

	push	ebp
	mov	ebp, esp
	sub	esp, 72					; 00000048H
	push	ebx
	push	esi
	push	edi

; 1265 : 	int i;
; 1266 : 
; 1267 : 	for ( i = 1; i <= gpGlobals->maxClients; i++ )

	mov	DWORD PTR _i$[ebp], 1
	jmp	SHORT $LN4@UTIL_HudMe
$LN2@UTIL_HudMe:
	mov	eax, DWORD PTR _i$[ebp]
	add	eax, 1
	mov	DWORD PTR _i$[ebp], eax
$LN4@UTIL_HudMe:
	mov	eax, DWORD PTR ?gpGlobals@@3PAUglobalvars_t@@A ; gpGlobals
	mov	ecx, DWORD PTR _i$[ebp]
	cmp	ecx, DWORD PTR [eax+144]
	jg	SHORT $LN1@UTIL_HudMe

; 1268 : 	{
; 1269 : 		CBaseEntity *pPlayer = UTIL_PlayerByIndex( i );

	mov	eax, DWORD PTR _i$[ebp]
	push	eax
	call	?UTIL_PlayerByIndex@@YAPAVCBaseEntity@@H@Z ; UTIL_PlayerByIndex
	add	esp, 4
	mov	DWORD PTR _pPlayer$1[ebp], eax

; 1270 : 		if ( pPlayer )

	cmp	DWORD PTR _pPlayer$1[ebp], 0
	je	SHORT $LN5@UTIL_HudMe

; 1271 : 			UTIL_HudMessage( pPlayer, textparms, pMessage );

	mov	eax, DWORD PTR _pMessage$[ebp]
	push	eax
	mov	ecx, DWORD PTR _textparms$[ebp]
	push	ecx
	mov	edx, DWORD PTR _pPlayer$1[ebp]
	push	edx
	call	?UTIL_HudMessage@@YAXPAVCBaseEntity@@ABUhudtextparms_s@@PBD@Z ; UTIL_HudMessage
	add	esp, 12					; 0000000cH
$LN5@UTIL_HudMe:

; 1272 : 	}

	jmp	SHORT $LN2@UTIL_HudMe
$LN1@UTIL_HudMe:

; 1273 : }

	pop	edi
	pop	esi
	pop	ebx
	mov	esp, ebp
	pop	ebp
	ret	0
?UTIL_HudMessageAll@@YAXABUhudtextparms_s@@PBD@Z ENDP	; UTIL_HudMessageAll
_TEXT	ENDS
; Function compile flags: /Odtp /ZI
; File d:\!diffusion 2020\source code 2022\client-server\server\util.cpp
;	COMDAT ?UTIL_SetView@@YAXPAVCBaseEntity@@0@Z
_TEXT	SEGMENT
_pActivator$ = 8					; size = 4
_pViewEnt$ = 12						; size = 4
?UTIL_SetView@@YAXPAVCBaseEntity@@0@Z PROC		; UTIL_SetView, COMDAT

; 2643 : {

	push	ebp
	mov	ebp, esp
	sub	esp, 64					; 00000040H
	push	ebx
	push	esi
	push	edi

; 2644 : 	if( !pActivator || !pActivator->IsPlayer( ))

	cmp	DWORD PTR _pActivator$[ebp], 0
	je	SHORT $LN3@UTIL_SetVi
	mov	eax, DWORD PTR _pActivator$[ebp]
	mov	edx, DWORD PTR [eax]
	mov	ecx, DWORD PTR _pActivator$[ebp]
	mov	eax, DWORD PTR [edx+220]
	call	eax
	test	eax, eax
	jne	SHORT $LN2@UTIL_SetVi
$LN3@UTIL_SetVi:

; 2645 : 	{
; 2646 : 		if( !pActivator )

	cmp	DWORD PTR _pActivator$[ebp], 0
	jne	SHORT $LN4@UTIL_SetVi

; 2647 : 			ALERT( at_error, "UTIL_SetView: pActivator == NULL!\n" );

	push	OFFSET ??_C@_0CD@PELPNBCA@UTIL_SetView?3?5pActivator?5?$DN?$DN?5NULL@
	push	4
	call	DWORD PTR ?g_engfuncs@@3Uenginefuncs_s@@A+244
	add	esp, 8
	jmp	SHORT $LN5@UTIL_SetVi
$LN4@UTIL_SetVi:

; 2648 : 		else ALERT( at_error, "UTIL_SetView: pActivator not a player!\n" ); 

	push	OFFSET ??_C@_0CI@GPMHCHBN@UTIL_SetView?3?5pActivator?5not?5a?5p@
	push	4
	call	DWORD PTR ?g_engfuncs@@3Uenginefuncs_s@@A+244
	add	esp, 8
$LN5@UTIL_SetVi:

; 2649 : 		return;

	jmp	SHORT $LN1@UTIL_SetVi
$LN2@UTIL_SetVi:

; 2650 : 	}
; 2651 : 
; 2652 : 	if( !pViewEnt ) pViewEnt = pActivator;

	cmp	DWORD PTR _pViewEnt$[ebp], 0
	jne	SHORT $LN6@UTIL_SetVi
	mov	eax, DWORD PTR _pActivator$[ebp]
	mov	DWORD PTR _pViewEnt$[ebp], eax
$LN6@UTIL_SetVi:

; 2653 : 	SET_VIEW( pActivator->edict(), pViewEnt->edict() );

	mov	ecx, DWORD PTR _pViewEnt$[ebp]
	call	?edict@CBaseEntity@@QAEPAUedict_s@@XZ	; CBaseEntity::edict
	push	eax
	mov	ecx, DWORD PTR _pActivator$[ebp]
	call	?edict@CBaseEntity@@QAEPAUedict_s@@XZ	; CBaseEntity::edict
	push	eax
	call	DWORD PTR ?g_engfuncs@@3Uenginefuncs_s@@A+368
	add	esp, 8
$LN1@UTIL_SetVi:

; 2654 : }

	pop	edi
	pop	esi
	pop	ebx
	mov	esp, ebp
	pop	ebp
	ret	0
?UTIL_SetView@@YAXPAVCBaseEntity@@0@Z ENDP		; UTIL_SetView
_TEXT	ENDS
; Function compile flags: /Odtp /ZI
; File d:\!diffusion 2020\source code 2022\client-server\server\util.cpp
;	COMDAT ?UTIL_SetView@@YAXPAVCBaseEntity@@H@Z
_TEXT	SEGMENT
_pViewEnt$ = -4						; size = 4
_pActivator$ = 8					; size = 4
_iszViewEntity$ = 12					; size = 4
?UTIL_SetView@@YAXPAVCBaseEntity@@H@Z PROC		; UTIL_SetView, COMDAT

; 2630 : {

	push	ebp
	mov	ebp, esp
	sub	esp, 68					; 00000044H
	push	ebx
	push	esi
	push	edi

; 2631 : 	CBaseEntity *pViewEnt = NULL;

	mov	DWORD PTR _pViewEnt$[ebp], 0

; 2632 :           
; 2633 : 	if( iszViewEntity )

	cmp	DWORD PTR _iszViewEntity$[ebp], 0
	je	SHORT $LN2@UTIL_SetVi

; 2634 : 	{
; 2635 : 		pViewEnt = UTIL_FindEntityByString( NULL, "targetname", STRING( iszViewEntity ));

	mov	eax, DWORD PTR _iszViewEntity$[ebp]
	push	eax
	call	DWORD PTR ?g_engfuncs@@3Uenginefuncs_s@@A+264
	add	esp, 4
	push	eax
	push	OFFSET ??_C@_0L@FEPNPAJD@targetname?$AA@
	push	0
	call	?UTIL_FindEntityByString@@YAPAVCBaseEntity@@PAV1@PBD1@Z ; UTIL_FindEntityByString
	add	esp, 12					; 0000000cH
	mov	DWORD PTR _pViewEnt$[ebp], eax

; 2636 : 		if( !pViewEnt ) pViewEnt = UTIL_FindEntityByString( NULL, "classname", STRING( iszViewEntity ));

	cmp	DWORD PTR _pViewEnt$[ebp], 0
	jne	SHORT $LN2@UTIL_SetVi
	mov	eax, DWORD PTR _iszViewEntity$[ebp]
	push	eax
	call	DWORD PTR ?g_engfuncs@@3Uenginefuncs_s@@A+264
	add	esp, 4
	push	eax
	push	OFFSET ??_C@_09CNJINBGN@classname?$AA@
	push	0
	call	?UTIL_FindEntityByString@@YAPAVCBaseEntity@@PAV1@PBD1@Z ; UTIL_FindEntityByString
	add	esp, 12					; 0000000cH
	mov	DWORD PTR _pViewEnt$[ebp], eax
$LN2@UTIL_SetVi:

; 2637 : 	}
; 2638 : 
; 2639 : 	UTIL_SetView( pActivator, pViewEnt );

	mov	eax, DWORD PTR _pViewEnt$[ebp]
	push	eax
	mov	ecx, DWORD PTR _pActivator$[ebp]
	push	ecx
	call	?UTIL_SetView@@YAXPAVCBaseEntity@@0@Z	; UTIL_SetView
	add	esp, 8

; 2640 : }

	pop	edi
	pop	esi
	pop	ebx
	mov	esp, ebp
	pop	ebp
	ret	0
?UTIL_SetView@@YAXPAVCBaseEntity@@H@Z ENDP		; UTIL_SetView
_TEXT	ENDS
; Function compile flags: /Odtp /ZI
; File d:\!diffusion 2020\source code 2022\client-server\server\util.cpp
;	COMDAT ?UTIL_SetView@@YAXH@Z
_TEXT	SEGMENT
_pPlayer$ = -4						; size = 4
_iszViewEntity$ = 8					; size = 4
?UTIL_SetView@@YAXH@Z PROC				; UTIL_SetView, COMDAT

; 2621 : {

	push	ebp
	mov	ebp, esp
	sub	esp, 68					; 00000044H
	push	ebx
	push	esi
	push	edi

; 2622 : 	if( g_pGameRules->IsMultiplayer())

	mov	eax, DWORD PTR ?g_pGameRules@@3PAVCGameRules@@A ; g_pGameRules
	mov	edx, DWORD PTR [eax]
	mov	ecx, DWORD PTR ?g_pGameRules@@3PAVCGameRules@@A ; g_pGameRules
	mov	eax, DWORD PTR [edx+24]
	call	eax
	test	eax, eax
	je	SHORT $LN2@UTIL_SetVi

; 2623 : 		return;

	jmp	SHORT $LN1@UTIL_SetVi
$LN2@UTIL_SetVi:

; 2624 : 
; 2625 : 	CBaseEntity *pPlayer = UTIL_PlayerByIndex( 1 );

	push	1
	call	?UTIL_PlayerByIndex@@YAPAVCBaseEntity@@H@Z ; UTIL_PlayerByIndex
	add	esp, 4
	mov	DWORD PTR _pPlayer$[ebp], eax

; 2626 : 	UTIL_SetView( pPlayer, iszViewEntity );

	mov	eax, DWORD PTR _iszViewEntity$[ebp]
	push	eax
	mov	ecx, DWORD PTR _pPlayer$[ebp]
	push	ecx
	call	?UTIL_SetView@@YAXPAVCBaseEntity@@H@Z	; UTIL_SetView
	add	esp, 8
$LN1@UTIL_SetVi:

; 2627 : }

	pop	edi
	pop	esi
	pop	ebx
	mov	esp, ebp
	pop	ebp
	ret	0
?UTIL_SetView@@YAXH@Z ENDP				; UTIL_SetView
_TEXT	ENDS
; Function compile flags: /Odtp /ZI
; File d:\!diffusion 2020\source code 2022\client-server\server\util.cpp
;	COMDAT ?UTIL_SayTextAll@@YAXPBDPAVCBaseEntity@@@Z
_TEXT	SEGMENT
_pText$ = 8						; size = 4
_pEntity$ = 12						; size = 4
?UTIL_SayTextAll@@YAXPBDPAVCBaseEntity@@@Z PROC		; UTIL_SayTextAll, COMDAT

; 1325 : {

	push	ebp
	mov	ebp, esp
	sub	esp, 64					; 00000040H
	push	ebx
	push	esi
	push	edi

; 1326 : 	MESSAGE_BEGIN( MSG_ALL, gmsgSayText, NULL );

	push	0
	push	0
	mov	eax, DWORD PTR ?gmsgSayText@@3HA	; gmsgSayText
	push	eax
	push	2
	call	?MESSAGE_BEGIN@@YAXHHPBMPAUedict_s@@@Z	; MESSAGE_BEGIN
	add	esp, 16					; 00000010H

; 1327 : 		WRITE_BYTE( pEntity->entindex() );

	mov	ecx, DWORD PTR _pEntity$[ebp]
	call	?entindex@CBaseEntity@@QAEHXZ		; CBaseEntity::entindex
	push	eax
	call	DWORD PTR ?g_engfuncs@@3Uenginefuncs_s@@A+192
	add	esp, 4

; 1328 : 		WRITE_STRING( pText );

	mov	eax, DWORD PTR _pText$[ebp]
	push	eax
	call	DWORD PTR ?g_engfuncs@@3Uenginefuncs_s@@A+216
	add	esp, 4

; 1329 : 	MESSAGE_END();

	call	DWORD PTR ?g_engfuncs@@3Uenginefuncs_s@@A+188

; 1330 : }

	pop	edi
	pop	esi
	pop	ebx
	mov	esp, ebp
	pop	ebp
	ret	0
?UTIL_SayTextAll@@YAXPBDPAVCBaseEntity@@@Z ENDP		; UTIL_SayTextAll
_TEXT	ENDS
; Function compile flags: /Odtp /ZI
; File d:\!diffusion 2020\source code 2022\client-server\server\util.cpp
;	COMDAT ?UTIL_SayText@@YAXPBDPAVCBaseEntity@@@Z
_TEXT	SEGMENT
_pText$ = 8						; size = 4
_pEntity$ = 12						; size = 4
?UTIL_SayText@@YAXPBDPAVCBaseEntity@@@Z PROC		; UTIL_SayText, COMDAT

; 1314 : {

	push	ebp
	mov	ebp, esp
	sub	esp, 64					; 00000040H
	push	ebx
	push	esi
	push	edi

; 1315 : 	if ( !pEntity->IsNetClient() )

	mov	eax, DWORD PTR _pEntity$[ebp]
	mov	edx, DWORD PTR [eax]
	mov	ecx, DWORD PTR _pEntity$[ebp]
	mov	eax, DWORD PTR [edx+224]
	call	eax
	test	eax, eax
	jne	SHORT $LN2@UTIL_SayTe

; 1316 : 		return;

	jmp	SHORT $LN1@UTIL_SayTe
$LN2@UTIL_SayTe:

; 1317 : 
; 1318 : 	MESSAGE_BEGIN( MSG_ONE, gmsgSayText, NULL, pEntity->edict() );

	mov	ecx, DWORD PTR _pEntity$[ebp]
	call	?edict@CBaseEntity@@QAEPAUedict_s@@XZ	; CBaseEntity::edict
	push	eax
	push	0
	mov	eax, DWORD PTR ?gmsgSayText@@3HA	; gmsgSayText
	push	eax
	push	1
	call	?MESSAGE_BEGIN@@YAXHHPBMPAUedict_s@@@Z	; MESSAGE_BEGIN
	add	esp, 16					; 00000010H

; 1319 : 		WRITE_BYTE( pEntity->entindex() );

	mov	ecx, DWORD PTR _pEntity$[ebp]
	call	?entindex@CBaseEntity@@QAEHXZ		; CBaseEntity::entindex
	push	eax
	call	DWORD PTR ?g_engfuncs@@3Uenginefuncs_s@@A+192
	add	esp, 4

; 1320 : 		WRITE_STRING( pText );

	mov	eax, DWORD PTR _pText$[ebp]
	push	eax
	call	DWORD PTR ?g_engfuncs@@3Uenginefuncs_s@@A+216
	add	esp, 4

; 1321 : 	MESSAGE_END();

	call	DWORD PTR ?g_engfuncs@@3Uenginefuncs_s@@A+188
$LN1@UTIL_SayTe:

; 1322 : }

	pop	edi
	pop	esi
	pop	ebx
	mov	esp, ebp
	pop	ebp
	ret	0
?UTIL_SayText@@YAXPBDPAVCBaseEntity@@@Z ENDP		; UTIL_SayText
_TEXT	ENDS
; Function compile flags: /Odtp /ZI
; File d:\!diffusion 2020\source code 2022\client-server\server\util.cpp
;	COMDAT ?ClientPrint@@YAXPAUentvars_s@@HPBD1111@Z
_TEXT	SEGMENT
_client$ = 8						; size = 4
_msg_dest$ = 12						; size = 4
_msg_name$ = 16						; size = 4
_param1$ = 20						; size = 4
_param2$ = 24						; size = 4
_param3$ = 28						; size = 4
_param4$ = 32						; size = 4
?ClientPrint@@YAXPAUentvars_s@@HPBD1111@Z PROC		; ClientPrint, COMDAT

; 1296 : {

	push	ebp
	mov	ebp, esp
	sub	esp, 64					; 00000040H
	push	ebx
	push	esi
	push	edi

; 1297 : 	MESSAGE_BEGIN( MSG_ONE, gmsgTextMsg, NULL, client );

	mov	eax, DWORD PTR _client$[ebp]
	push	eax
	push	0
	mov	ecx, DWORD PTR ?gmsgTextMsg@@3HA	; gmsgTextMsg
	push	ecx
	push	1
	call	?MESSAGE_BEGIN@@YAXHHPBMPAUentvars_s@@@Z ; MESSAGE_BEGIN
	add	esp, 16					; 00000010H

; 1298 : 		WRITE_BYTE( msg_dest );

	mov	eax, DWORD PTR _msg_dest$[ebp]
	push	eax
	call	DWORD PTR ?g_engfuncs@@3Uenginefuncs_s@@A+192
	add	esp, 4

; 1299 : 		WRITE_STRING( msg_name );

	mov	eax, DWORD PTR _msg_name$[ebp]
	push	eax
	call	DWORD PTR ?g_engfuncs@@3Uenginefuncs_s@@A+216
	add	esp, 4

; 1300 : 
; 1301 : 		if ( param1 )

	cmp	DWORD PTR _param1$[ebp], 0
	je	SHORT $LN2@ClientPrin

; 1302 : 			WRITE_STRING( param1 );

	mov	eax, DWORD PTR _param1$[ebp]
	push	eax
	call	DWORD PTR ?g_engfuncs@@3Uenginefuncs_s@@A+216
	add	esp, 4
$LN2@ClientPrin:

; 1303 : 		if ( param2 )

	cmp	DWORD PTR _param2$[ebp], 0
	je	SHORT $LN3@ClientPrin

; 1304 : 			WRITE_STRING( param2 );

	mov	eax, DWORD PTR _param2$[ebp]
	push	eax
	call	DWORD PTR ?g_engfuncs@@3Uenginefuncs_s@@A+216
	add	esp, 4
$LN3@ClientPrin:

; 1305 : 		if ( param3 )

	cmp	DWORD PTR _param3$[ebp], 0
	je	SHORT $LN4@ClientPrin

; 1306 : 			WRITE_STRING( param3 );

	mov	eax, DWORD PTR _param3$[ebp]
	push	eax
	call	DWORD PTR ?g_engfuncs@@3Uenginefuncs_s@@A+216
	add	esp, 4
$LN4@ClientPrin:

; 1307 : 		if ( param4 )

	cmp	DWORD PTR _param4$[ebp], 0
	je	SHORT $LN5@ClientPrin

; 1308 : 			WRITE_STRING( param4 );

	mov	eax, DWORD PTR _param4$[ebp]
	push	eax
	call	DWORD PTR ?g_engfuncs@@3Uenginefuncs_s@@A+216
	add	esp, 4
$LN5@ClientPrin:

; 1309 : 
; 1310 : 	MESSAGE_END();

	call	DWORD PTR ?g_engfuncs@@3Uenginefuncs_s@@A+188

; 1311 : }

	pop	edi
	pop	esi
	pop	ebx
	mov	esp, ebp
	pop	ebp
	ret	0
?ClientPrint@@YAXPAUentvars_s@@HPBD1111@Z ENDP		; ClientPrint
_TEXT	ENDS
; Function compile flags: /Odtp /ZI
; File d:\!diffusion 2020\source code 2022\client-server\server\util.cpp
;	COMDAT ?UTIL_GetNextBestWeapon@@YAHPAVCBasePlayer@@PAVCBasePlayerItem@@@Z
_TEXT	SEGMENT
_pPlayer$ = 8						; size = 4
_pCurrentWeapon$ = 12					; size = 4
?UTIL_GetNextBestWeapon@@YAHPAVCBasePlayer@@PAVCBasePlayerItem@@@Z PROC ; UTIL_GetNextBestWeapon, COMDAT

; 506  : {

	push	ebp
	mov	ebp, esp
	sub	esp, 64					; 00000040H
	push	ebx
	push	esi
	push	edi

; 507  : 	return g_pGameRules->GetNextBestWeapon( pPlayer, pCurrentWeapon );

	mov	eax, DWORD PTR _pCurrentWeapon$[ebp]
	push	eax
	mov	ecx, DWORD PTR _pPlayer$[ebp]
	push	ecx
	mov	edx, DWORD PTR ?g_pGameRules@@3PAVCGameRules@@A ; g_pGameRules
	mov	eax, DWORD PTR [edx]
	mov	ecx, DWORD PTR ?g_pGameRules@@3PAVCGameRules@@A ; g_pGameRules
	mov	edx, DWORD PTR [eax+20]
	call	edx

; 508  : }

	pop	edi
	pop	esi
	pop	ebx
	mov	esp, ebp
	pop	ebp
	ret	0
?UTIL_GetNextBestWeapon@@YAHPAVCBasePlayer@@PAVCBasePlayerItem@@@Z ENDP ; UTIL_GetNextBestWeapon
_TEXT	ENDS
; Function compile flags: /Odtp /ZI
; File d:\!diffusion 2020\source code 2022\client-server\server\util.cpp
;	COMDAT ?UTIL_ClientPrintAll@@YAXHPBD0000@Z
_TEXT	SEGMENT
_msg_dest$ = 8						; size = 4
_msg_name$ = 12						; size = 4
_param1$ = 16						; size = 4
_param2$ = 20						; size = 4
_param3$ = 24						; size = 4
_param4$ = 28						; size = 4
?UTIL_ClientPrintAll@@YAXHPBD0000@Z PROC		; UTIL_ClientPrintAll, COMDAT

; 1278 : {

	push	ebp
	mov	ebp, esp
	sub	esp, 64					; 00000040H
	push	ebx
	push	esi
	push	edi

; 1279 : 	MESSAGE_BEGIN( MSG_ALL, gmsgTextMsg );

	push	0
	push	0
	mov	eax, DWORD PTR ?gmsgTextMsg@@3HA	; gmsgTextMsg
	push	eax
	push	2
	call	?MESSAGE_BEGIN@@YAXHHPBMPAUedict_s@@@Z	; MESSAGE_BEGIN
	add	esp, 16					; 00000010H

; 1280 : 		WRITE_BYTE( msg_dest );

	mov	eax, DWORD PTR _msg_dest$[ebp]
	push	eax
	call	DWORD PTR ?g_engfuncs@@3Uenginefuncs_s@@A+192
	add	esp, 4

; 1281 : 		WRITE_STRING( msg_name );

	mov	eax, DWORD PTR _msg_name$[ebp]
	push	eax
	call	DWORD PTR ?g_engfuncs@@3Uenginefuncs_s@@A+216
	add	esp, 4

; 1282 : 
; 1283 : 		if ( param1 )

	cmp	DWORD PTR _param1$[ebp], 0
	je	SHORT $LN2@UTIL_Clien

; 1284 : 			WRITE_STRING( param1 );

	mov	eax, DWORD PTR _param1$[ebp]
	push	eax
	call	DWORD PTR ?g_engfuncs@@3Uenginefuncs_s@@A+216
	add	esp, 4
$LN2@UTIL_Clien:

; 1285 : 		if ( param2 )

	cmp	DWORD PTR _param2$[ebp], 0
	je	SHORT $LN3@UTIL_Clien

; 1286 : 			WRITE_STRING( param2 );

	mov	eax, DWORD PTR _param2$[ebp]
	push	eax
	call	DWORD PTR ?g_engfuncs@@3Uenginefuncs_s@@A+216
	add	esp, 4
$LN3@UTIL_Clien:

; 1287 : 		if ( param3 )

	cmp	DWORD PTR _param3$[ebp], 0
	je	SHORT $LN4@UTIL_Clien

; 1288 : 			WRITE_STRING( param3 );

	mov	eax, DWORD PTR _param3$[ebp]
	push	eax
	call	DWORD PTR ?g_engfuncs@@3Uenginefuncs_s@@A+216
	add	esp, 4
$LN4@UTIL_Clien:

; 1289 : 		if ( param4 )

	cmp	DWORD PTR _param4$[ebp], 0
	je	SHORT $LN5@UTIL_Clien

; 1290 : 			WRITE_STRING( param4 );

	mov	eax, DWORD PTR _param4$[ebp]
	push	eax
	call	DWORD PTR ?g_engfuncs@@3Uenginefuncs_s@@A+216
	add	esp, 4
$LN5@UTIL_Clien:

; 1291 : 
; 1292 : 	MESSAGE_END();

	call	DWORD PTR ?g_engfuncs@@3Uenginefuncs_s@@A+188

; 1293 : }

	pop	edi
	pop	esi
	pop	ebx
	mov	esp, ebp
	pop	ebp
	ret	0
?UTIL_ClientPrintAll@@YAXHPBD0000@Z ENDP		; UTIL_ClientPrintAll
_TEXT	ENDS
; Function compile flags: /Odtp /ZI
; File d:\!diffusion 2020\source code 2022\client-server\server\util.cpp
;	COMDAT ?UTIL_PrecacheMovie@@YAGHH@Z
_TEXT	SEGMENT
_iString$ = 8						; size = 4
_allow_sound$ = 12					; size = 4
?UTIL_PrecacheMovie@@YAGHH@Z PROC			; UTIL_PrecacheMovie, COMDAT

; 2549 : {

	push	ebp
	mov	ebp, esp
	sub	esp, 64					; 00000040H
	push	ebx
	push	esi
	push	edi

; 2550 : 	return UTIL_PrecacheMovie( STRING( iString ), allow_sound );

	mov	eax, DWORD PTR _allow_sound$[ebp]
	push	eax
	mov	ecx, DWORD PTR _iString$[ebp]
	push	ecx
	call	DWORD PTR ?g_engfuncs@@3Uenginefuncs_s@@A+264
	add	esp, 4
	push	eax
	call	?UTIL_PrecacheMovie@@YAGPBDH@Z		; UTIL_PrecacheMovie
	add	esp, 8

; 2551 : }

	pop	edi
	pop	esi
	pop	ebx
	mov	esp, ebp
	pop	ebp
	ret	0
?UTIL_PrecacheMovie@@YAGHH@Z ENDP			; UTIL_PrecacheMovie
_TEXT	ENDS
; Function compile flags: /Odtp /ZI
; File d:\!diffusion 2020\source code 2022\client-server\server\util.cpp
;	COMDAT ?UTIL_PrecacheMovie@@YAGPBDH@Z
_TEXT	SEGMENT
tv71 = -204						; size = 4
_temp$ = -136						; size = 64
_path$ = -72						; size = 64
_iCompare$ = -8						; size = 4
__$ArrayPad$ = -4					; size = 4
_s$ = 8							; size = 4
_allow_sound$ = 12					; size = 4
?UTIL_PrecacheMovie@@YAGPBDH@Z PROC			; UTIL_PrecacheMovie, COMDAT

; 2554 : {

	push	ebp
	mov	ebp, esp
	sub	esp, 204				; 000000ccH
	mov	eax, DWORD PTR ___security_cookie
	xor	eax, ebp
	mov	DWORD PTR __$ArrayPad$[ebp], eax
	push	ebx
	push	esi
	push	edi

; 2555 : 	int iCompare;
; 2556 : 	char path[64], temp[64];
; 2557 : 
; 2558 : 	Q_snprintf( path, sizeof( path ), "media/%s", s );

	mov	eax, DWORD PTR _s$[ebp]
	push	eax
	push	OFFSET ??_C@_08BKEEFKLC@media?1?$CFs?$AA@
	push	64					; 00000040H
	lea	ecx, DWORD PTR _path$[ebp]
	push	ecx
	call	?Q_snprintf@@YAHPADIPBDZZ		; Q_snprintf
	add	esp, 16					; 00000010H

; 2559 : 	Q_snprintf( temp, sizeof( temp ), "%s%s", allow_sound ? "*" : "", s );

	cmp	DWORD PTR _allow_sound$[ebp], 0
	je	SHORT $LN4@UTIL_Preca
	mov	DWORD PTR tv71[ebp], OFFSET ??_C@_01NBENCBCI@?$CK?$AA@
	jmp	SHORT $LN5@UTIL_Preca
$LN4@UTIL_Preca:
	mov	DWORD PTR tv71[ebp], OFFSET ??_C@_00CNPNBAHC@?$AA@
$LN5@UTIL_Preca:
	mov	eax, DWORD PTR _s$[ebp]
	push	eax
	mov	ecx, DWORD PTR tv71[ebp]
	push	ecx
	push	OFFSET ??_C@_04HDOCAJNK@?$CFs?$CFs?$AA@
	push	64					; 00000040H
	lea	edx, DWORD PTR _temp$[ebp]
	push	edx
	call	?Q_snprintf@@YAHPADIPBDZZ		; Q_snprintf
	add	esp, 20					; 00000014H

; 2560 : 
; 2561 : 	// verify file exists
; 2562 : 	// g-cont. idea! use COMPARE_FILE_TIME instead of LOAD_FILE_FOR_ME
; 2563 : 	if( COMPARE_FILE_TIME( path, path, &iCompare ))

	lea	eax, DWORD PTR _iCompare$[ebp]
	push	eax
	lea	ecx, DWORD PTR _path$[ebp]
	push	ecx
	lea	edx, DWORD PTR _path$[ebp]
	push	edx
	call	DWORD PTR ?g_engfuncs@@3Uenginefuncs_s@@A+392
	add	esp, 12					; 0000000cH
	test	eax, eax
	je	SHORT $LN2@UTIL_Preca

; 2564 : 	{
; 2565 : 		return g_engfuncs.pfnPrecacheGeneric( temp );

	lea	eax, DWORD PTR _temp$[ebp]
	push	eax
	call	DWORD PTR ?g_engfuncs@@3Uenginefuncs_s@@A+448
	add	esp, 4
	jmp	SHORT $LN1@UTIL_Preca
$LN2@UTIL_Preca:

; 2566 : 	}
; 2567 : 
; 2568 : 	ALERT( at_console, "Warning: video (%s) not found!\n", path );

	lea	eax, DWORD PTR _path$[ebp]
	push	eax
	push	OFFSET ??_C@_0CA@CLMDLIAA@Warning?3?5video?5?$CI?$CFs?$CJ?5not?5found?$CB?6?$AA@
	push	1
	call	DWORD PTR ?g_engfuncs@@3Uenginefuncs_s@@A+244
	add	esp, 12					; 0000000cH

; 2569 : 
; 2570 : 	return 0;

	xor	eax, eax
$LN1@UTIL_Preca:

; 2571 : }

	pop	edi
	pop	esi
	pop	ebx
	mov	ecx, DWORD PTR __$ArrayPad$[ebp]
	xor	ecx, ebp
	call	@__security_check_cookie@4
	mov	esp, ebp
	pop	ebp
	ret	0
?UTIL_PrecacheMovie@@YAGPBDH@Z ENDP			; UTIL_PrecacheMovie
_TEXT	ENDS
; Function compile flags: /Odtp /ZI
; File d:\!diffusion 2020\source code 2022\client-server\server\util.cpp
;	COMDAT ?UTIL_PrecacheSound@@YAHH@Z
_TEXT	SEGMENT
_s$ = 8							; size = 4
?UTIL_PrecacheSound@@YAHH@Z PROC			; UTIL_PrecacheSound, COMDAT

; 2505 : {

	push	ebp
	mov	ebp, esp
	sub	esp, 64					; 00000040H
	push	ebx
	push	esi
	push	edi

; 2506 : 	return UTIL_PrecacheSound( STRING( s ));

	mov	eax, DWORD PTR _s$[ebp]
	push	eax
	call	DWORD PTR ?g_engfuncs@@3Uenginefuncs_s@@A+264
	add	esp, 4
	push	eax
	call	?UTIL_PrecacheSound@@YAHPBD@Z		; UTIL_PrecacheSound
	add	esp, 4

; 2507 : }

	pop	edi
	pop	esi
	pop	ebx
	mov	esp, ebp
	pop	ebp
	ret	0
?UTIL_PrecacheSound@@YAHH@Z ENDP			; UTIL_PrecacheSound
_TEXT	ENDS
; Function compile flags: /Odtp /ZI
; File d:\!diffusion 2020\source code 2022\client-server\server\util.cpp
;	COMDAT ?UTIL_PrecacheSound@@YAHPBD@Z
_TEXT	SEGMENT
_ext$ = -268						; size = 4
_iCompare$ = -264					; size = 4
_path$ = -260						; size = 256
__$ArrayPad$ = -4					; size = 4
_s$ = 8							; size = 4
?UTIL_PrecacheSound@@YAHPBD@Z PROC			; UTIL_PrecacheSound, COMDAT

; 2510 : {

	push	ebp
	mov	ebp, esp
	sub	esp, 332				; 0000014cH
	mov	eax, DWORD PTR ___security_cookie
	xor	eax, ebp
	mov	DWORD PTR __$ArrayPad$[ebp], eax
	push	ebx
	push	esi
	push	edi

; 2511 : 	if( !s || !*s )

	cmp	DWORD PTR _s$[ebp], 0
	je	SHORT $LN3@UTIL_Preca
	mov	eax, DWORD PTR _s$[ebp]
	movsx	ecx, BYTE PTR [eax]
	test	ecx, ecx
	jne	SHORT $LN2@UTIL_Preca
$LN3@UTIL_Preca:

; 2512 : 	{
; 2513 : 		ALERT( at_warning, "UTIL_PrecacheSound: sound not specified!\n" );

	push	OFFSET ??_C@_0CK@LHGCDBLH@UTIL_PrecacheSound?3?5sound?5not?5sp@
	push	3
	call	DWORD PTR ?g_engfuncs@@3Uenginefuncs_s@@A+244
	add	esp, 8

; 2514 : 		return MAKE_STRING( "common/null.wav" ); // set null sound

	push	OFFSET ??_C@_0BA@HKOJACLM@common?1null?4wav?$AA@
	call	DWORD PTR ?g_engfuncs@@3Uenginefuncs_s@@A+268
	add	esp, 4
	jmp	$LN1@UTIL_Preca
$LN2@UTIL_Preca:

; 2515 : 	}
; 2516 : 
; 2517 : 	if( *s == '!' )

	mov	eax, DWORD PTR _s$[ebp]
	movsx	ecx, BYTE PTR [eax]
	cmp	ecx, 33					; 00000021H
	jne	SHORT $LN4@UTIL_Preca

; 2518 : 	{
; 2519 : 		// sentence - just make string
; 2520 :           	return MAKE_STRING( s );

	mov	eax, DWORD PTR _s$[ebp]
	push	eax
	call	DWORD PTR ?g_engfuncs@@3Uenginefuncs_s@@A+268
	add	esp, 4
	jmp	$LN1@UTIL_Preca
$LN4@UTIL_Preca:

; 2521 : 	}
; 2522 : 
; 2523 : 	char path[256];
; 2524 : 	
; 2525 : 	// NOTE: Engine function as predicted for sound folder
; 2526 : 	// But COMPARE_FILE_TIME don't known about this. Set it manualy
; 2527 : 	Q_snprintf( path, sizeof( path ), "sound/%s", s );

	mov	eax, DWORD PTR _s$[ebp]
	push	eax
	push	OFFSET ??_C@_08PLMKPHCL@sound?1?$CFs?$AA@
	push	256					; 00000100H
	lea	ecx, DWORD PTR _path$[ebp]
	push	ecx
	call	?Q_snprintf@@YAHPADIPBDZZ		; Q_snprintf
	add	esp, 16					; 00000010H

; 2528 : 
; 2529 : 	int iCompare;
; 2530 : 
; 2531 : 	// verify file exists
; 2532 : 	// g-cont. idea! use COMPARE_FILE_TIME instead of LOAD_FILE_FOR_ME
; 2533 : 	if( COMPARE_FILE_TIME( path, path, &iCompare ))

	lea	eax, DWORD PTR _iCompare$[ebp]
	push	eax
	lea	ecx, DWORD PTR _path$[ebp]
	push	ecx
	lea	edx, DWORD PTR _path$[ebp]
	push	edx
	call	DWORD PTR ?g_engfuncs@@3Uenginefuncs_s@@A+392
	add	esp, 12					; 0000000cH
	test	eax, eax
	je	SHORT $LN5@UTIL_Preca

; 2534 : 	{
; 2535 : 		g_engfuncs.pfnPrecacheSound( s );

	mov	eax, DWORD PTR _s$[ebp]
	push	eax
	call	DWORD PTR ?g_engfuncs@@3Uenginefuncs_s@@A+4
	add	esp, 4

; 2536 : 		return MAKE_STRING( s );

	mov	eax, DWORD PTR _s$[ebp]
	push	eax
	call	DWORD PTR ?g_engfuncs@@3Uenginefuncs_s@@A+268
	add	esp, 4
	jmp	SHORT $LN1@UTIL_Preca
$LN5@UTIL_Preca:

; 2537 : 	}
; 2538 : 
; 2539 : 	const char *ext = UTIL_FileExtension( s );

	mov	eax, DWORD PTR _s$[ebp]
	push	eax
	call	?UTIL_FileExtension@@YAPBDPBD@Z		; UTIL_FileExtension
	add	esp, 4
	mov	DWORD PTR _ext$[ebp], eax

; 2540 : 
; 2541 : 	if( FStrEq( ext, "wav" ) || FStrEq( ext, "mp3" ))

	push	OFFSET ??_C@_03BICDMHKB@wav?$AA@
	mov	eax, DWORD PTR _ext$[ebp]
	push	eax
	call	?FStrEq@@YAHPBD0@Z			; FStrEq
	add	esp, 8
	test	eax, eax
	jne	SHORT $LN8@UTIL_Preca
	push	OFFSET ??_C@_03LHGNACFN@mp3?$AA@
	mov	eax, DWORD PTR _ext$[ebp]
	push	eax
	call	?FStrEq@@YAHPBD0@Z			; FStrEq
	add	esp, 8
	test	eax, eax
	je	SHORT $LN6@UTIL_Preca
$LN8@UTIL_Preca:

; 2542 : 		ALERT( at_warning, "sound \"%s\" not found!\n", path );

	lea	eax, DWORD PTR _path$[ebp]
	push	eax
	push	OFFSET ??_C@_0BH@COBPOMJP@sound?5?$CC?$CFs?$CC?5not?5found?$CB?6?$AA@
	push	3
	call	DWORD PTR ?g_engfuncs@@3Uenginefuncs_s@@A+244
	add	esp, 12					; 0000000cH
	jmp	SHORT $LN7@UTIL_Preca
$LN6@UTIL_Preca:

; 2543 : 	else ALERT( at_error, "invalid name \"%s\"!\n", s );

	mov	eax, DWORD PTR _s$[ebp]
	push	eax
	push	OFFSET ??_C@_0BE@IENMFMOB@invalid?5name?5?$CC?$CFs?$CC?$CB?6?$AA@
	push	4
	call	DWORD PTR ?g_engfuncs@@3Uenginefuncs_s@@A+244
	add	esp, 12					; 0000000cH
$LN7@UTIL_Preca:

; 2544 : 
; 2545 : 	return MAKE_STRING( "common/null.wav" ); // set null sound

	push	OFFSET ??_C@_0BA@HKOJACLM@common?1null?4wav?$AA@
	call	DWORD PTR ?g_engfuncs@@3Uenginefuncs_s@@A+268
	add	esp, 4
$LN1@UTIL_Preca:

; 2546 : }

	pop	edi
	pop	esi
	pop	ebx
	mov	ecx, DWORD PTR __$ArrayPad$[ebp]
	xor	ecx, ebp
	call	@__security_check_cookie@4
	mov	esp, ebp
	pop	ebp
	ret	0
?UTIL_PrecacheSound@@YAHPBD@Z ENDP			; UTIL_PrecacheSound
_TEXT	ENDS
; Function compile flags: /Odtp /ZI
; File d:\!diffusion 2020\source code 2022\client-server\server\util.cpp
;	COMDAT ?UTIL_PrecacheOther@@YAXPBD@Z
_TEXT	SEGMENT
_pEntity$ = -4						; size = 4
_szClassname$ = 8					; size = 4
?UTIL_PrecacheOther@@YAXPBD@Z PROC			; UTIL_PrecacheOther, COMDAT

; 2491 : {

	push	ebp
	mov	ebp, esp
	sub	esp, 68					; 00000044H
	push	ebx
	push	esi
	push	edi

; 2492 : 	CBaseEntity *pEntity = CreateEntityByName( szClassname );

	push	0
	mov	eax, DWORD PTR _szClassname$[ebp]
	push	eax
	call	?CreateEntityByName@@YAPAVCBaseEntity@@PBDPAUentvars_s@@@Z ; CreateEntityByName
	add	esp, 8
	mov	DWORD PTR _pEntity$[ebp], eax

; 2493 : 
; 2494 : 	if( !pEntity )

	cmp	DWORD PTR _pEntity$[ebp], 0
	jne	SHORT $LN2@UTIL_Preca

; 2495 : 	{
; 2496 : 		ALERT ( at_console, "NULL Ent in UTIL_PrecacheOther\n" );

	push	OFFSET ??_C@_0CA@GPGNKNKH@NULL?5Ent?5in?5UTIL_PrecacheOther?6?$AA@
	push	1
	call	DWORD PTR ?g_engfuncs@@3Uenginefuncs_s@@A+244
	add	esp, 8

; 2497 : 		return;

	jmp	SHORT $LN1@UTIL_Preca
$LN2@UTIL_Preca:

; 2498 : 	}
; 2499 : 
; 2500 : 	pEntity->Precache( );

	mov	eax, DWORD PTR _pEntity$[ebp]
	mov	edx, DWORD PTR [eax]
	mov	ecx, DWORD PTR _pEntity$[ebp]
	mov	eax, DWORD PTR [edx+8]
	call	eax

; 2501 : 	REMOVE_ENTITY( pEntity->edict( ));

	mov	ecx, DWORD PTR _pEntity$[ebp]
	call	?edict@CBaseEntity@@QAEPAUedict_s@@XZ	; CBaseEntity::edict
	push	eax
	call	DWORD PTR ?g_engfuncs@@3Uenginefuncs_s@@A+88
	add	esp, 4
$LN1@UTIL_Preca:

; 2502 : }

	pop	edi
	pop	esi
	pop	ebx
	mov	esp, ebp
	pop	ebp
	ret	0
?UTIL_PrecacheOther@@YAXPBD@Z ENDP			; UTIL_PrecacheOther
_TEXT	ENDS
; Function compile flags: /Odtp /ZI
; File d:\!diffusion 2020\source code 2022\client-server\server\util.cpp
;	COMDAT ?UTIL_BubbleTrail@@YAXVVector@@0H@Z
_TEXT	SEGMENT
_flHeight$ = -4						; size = 4
_from$ = 8						; size = 12
_to$ = 20						; size = 12
_count$ = 32						; size = 4
?UTIL_BubbleTrail@@YAXVVector@@0H@Z PROC		; UTIL_BubbleTrail, COMDAT

; 2414 : {

	push	ebp
	mov	ebp, esp
	sub	esp, 68					; 00000044H
	push	ebx
	push	esi
	push	edi

; 2415 : 	float flHeight = UTIL_WaterLevel( from,  from.z, from.z + 256 );

	movss	xmm0, DWORD PTR _from$[ebp+8]
	addss	xmm0, DWORD PTR __real@43800000
	push	ecx
	movss	DWORD PTR [esp], xmm0
	push	ecx
	movss	xmm0, DWORD PTR _from$[ebp+8]
	movss	DWORD PTR [esp], xmm0
	lea	eax, DWORD PTR _from$[ebp]
	push	eax
	call	?UTIL_WaterLevel@@YAMABVVector@@MM@Z	; UTIL_WaterLevel
	add	esp, 12					; 0000000cH
	fstp	DWORD PTR _flHeight$[ebp]

; 2416 : 	flHeight = flHeight - from.z;

	movss	xmm0, DWORD PTR _flHeight$[ebp]
	subss	xmm0, DWORD PTR _from$[ebp+8]
	movss	DWORD PTR _flHeight$[ebp], xmm0

; 2417 : 
; 2418 : 	if (flHeight < 8)

	movss	xmm0, DWORD PTR __real@41000000
	comiss	xmm0, DWORD PTR _flHeight$[ebp]
	jbe	SHORT $LN2@UTIL_Bubbl

; 2419 : 	{
; 2420 : 		flHeight = UTIL_WaterLevel( to,  to.z, to.z + 256 );

	movss	xmm0, DWORD PTR _to$[ebp+8]
	addss	xmm0, DWORD PTR __real@43800000
	push	ecx
	movss	DWORD PTR [esp], xmm0
	push	ecx
	movss	xmm0, DWORD PTR _to$[ebp+8]
	movss	DWORD PTR [esp], xmm0
	lea	eax, DWORD PTR _to$[ebp]
	push	eax
	call	?UTIL_WaterLevel@@YAMABVVector@@MM@Z	; UTIL_WaterLevel
	add	esp, 12					; 0000000cH
	fstp	DWORD PTR _flHeight$[ebp]

; 2421 : 		flHeight = flHeight - to.z;

	movss	xmm0, DWORD PTR _flHeight$[ebp]
	subss	xmm0, DWORD PTR _to$[ebp+8]
	movss	DWORD PTR _flHeight$[ebp], xmm0

; 2422 : 		if (flHeight < 8)

	movss	xmm0, DWORD PTR __real@41000000
	comiss	xmm0, DWORD PTR _flHeight$[ebp]
	jbe	SHORT $LN3@UTIL_Bubbl

; 2423 : 			return;

	jmp	$LN1@UTIL_Bubbl
$LN3@UTIL_Bubbl:

; 2424 : 
; 2425 : 		// UNDONE: do a ploink sound
; 2426 : 		flHeight = flHeight + to.z - from.z;

	movss	xmm0, DWORD PTR _flHeight$[ebp]
	addss	xmm0, DWORD PTR _to$[ebp+8]
	subss	xmm0, DWORD PTR _from$[ebp+8]
	movss	DWORD PTR _flHeight$[ebp], xmm0
$LN2@UTIL_Bubbl:

; 2427 : 	}
; 2428 : 
; 2429 : 	if (count > 255) 

	cmp	DWORD PTR _count$[ebp], 255		; 000000ffH
	jle	SHORT $LN4@UTIL_Bubbl

; 2430 : 		count = 255;

	mov	DWORD PTR _count$[ebp], 255		; 000000ffH
$LN4@UTIL_Bubbl:

; 2431 : 
; 2432 : 	MESSAGE_BEGIN( MSG_BROADCAST, SVC_TEMPENTITY );

	push	0
	push	0
	push	23					; 00000017H
	push	0
	call	?MESSAGE_BEGIN@@YAXHHPBMPAUedict_s@@@Z	; MESSAGE_BEGIN
	add	esp, 16					; 00000010H

; 2433 : 		WRITE_BYTE( TE_BUBBLETRAIL );

	push	114					; 00000072H
	call	DWORD PTR ?g_engfuncs@@3Uenginefuncs_s@@A+192
	add	esp, 4

; 2434 : 		WRITE_COORD( from.x );	// mins

	push	ecx
	movss	xmm0, DWORD PTR _from$[ebp]
	movss	DWORD PTR [esp], xmm0
	call	DWORD PTR ?g_engfuncs@@3Uenginefuncs_s@@A+212
	add	esp, 4

; 2435 : 		WRITE_COORD( from.y );

	push	ecx
	movss	xmm0, DWORD PTR _from$[ebp+4]
	movss	DWORD PTR [esp], xmm0
	call	DWORD PTR ?g_engfuncs@@3Uenginefuncs_s@@A+212
	add	esp, 4

; 2436 : 		WRITE_COORD( from.z );

	push	ecx
	movss	xmm0, DWORD PTR _from$[ebp+8]
	movss	DWORD PTR [esp], xmm0
	call	DWORD PTR ?g_engfuncs@@3Uenginefuncs_s@@A+212
	add	esp, 4

; 2437 : 		WRITE_COORD( to.x );	// maxz

	push	ecx
	movss	xmm0, DWORD PTR _to$[ebp]
	movss	DWORD PTR [esp], xmm0
	call	DWORD PTR ?g_engfuncs@@3Uenginefuncs_s@@A+212
	add	esp, 4

; 2438 : 		WRITE_COORD( to.y );

	push	ecx
	movss	xmm0, DWORD PTR _to$[ebp+4]
	movss	DWORD PTR [esp], xmm0
	call	DWORD PTR ?g_engfuncs@@3Uenginefuncs_s@@A+212
	add	esp, 4

; 2439 : 		WRITE_COORD( to.z );

	push	ecx
	movss	xmm0, DWORD PTR _to$[ebp+8]
	movss	DWORD PTR [esp], xmm0
	call	DWORD PTR ?g_engfuncs@@3Uenginefuncs_s@@A+212
	add	esp, 4

; 2440 : 		WRITE_COORD( flHeight );			// height

	push	ecx
	movss	xmm0, DWORD PTR _flHeight$[ebp]
	movss	DWORD PTR [esp], xmm0
	call	DWORD PTR ?g_engfuncs@@3Uenginefuncs_s@@A+212
	add	esp, 4

; 2441 : 		WRITE_SHORT( g_sModelIndexBubbles );

	movsx	eax, WORD PTR ?g_sModelIndexBubbles@@3FA ; g_sModelIndexBubbles
	push	eax
	call	DWORD PTR ?g_engfuncs@@3Uenginefuncs_s@@A+200
	add	esp, 4

; 2442 : 		WRITE_BYTE( count ); // count

	mov	eax, DWORD PTR _count$[ebp]
	push	eax
	call	DWORD PTR ?g_engfuncs@@3Uenginefuncs_s@@A+192
	add	esp, 4

; 2443 : 		WRITE_COORD( 8 ); // speed

	push	ecx
	movss	xmm0, DWORD PTR __real@41000000
	movss	DWORD PTR [esp], xmm0
	call	DWORD PTR ?g_engfuncs@@3Uenginefuncs_s@@A+212
	add	esp, 4

; 2444 : 	MESSAGE_END();

	call	DWORD PTR ?g_engfuncs@@3Uenginefuncs_s@@A+188
$LN1@UTIL_Bubbl:

; 2445 : }

	pop	edi
	pop	esi
	pop	ebx
	mov	esp, ebp
	pop	ebp
	ret	0
?UTIL_BubbleTrail@@YAXVVector@@0H@Z ENDP		; UTIL_BubbleTrail
_TEXT	ENDS
; Function compile flags: /Odtp /ZI
; File d:\!diffusion 2020\source code 2022\client-server\server\util.cpp
;	COMDAT ?UTIL_Bubbles@@YAXVVector@@0H@Z
_TEXT	SEGMENT
$T1 = -92						; size = 12
_flHeight$ = -16					; size = 4
_mid$ = -12						; size = 12
_mins$ = 8						; size = 12
_maxs$ = 20						; size = 12
_count$ = 32						; size = 4
?UTIL_Bubbles@@YAXVVector@@0H@Z PROC			; UTIL_Bubbles, COMDAT

; 2392 : {

	push	ebp
	mov	ebp, esp
	sub	esp, 92					; 0000005cH
	push	ebx
	push	esi
	push	edi

; 2393 : 	Vector mid =  (mins + maxs) * 0.5;

	push	ecx
	movss	xmm0, DWORD PTR __real@3f000000
	movss	DWORD PTR [esp], xmm0
	lea	eax, DWORD PTR _mid$[ebp]
	push	eax
	lea	ecx, DWORD PTR _maxs$[ebp]
	push	ecx
	lea	edx, DWORD PTR $T1[ebp]
	push	edx
	lea	ecx, DWORD PTR _mins$[ebp]
	call	??HVector@@QBE?AV0@ABV0@@Z		; Vector::operator+
	mov	ecx, eax
	call	??DVector@@QBE?AV0@M@Z			; Vector::operator*

; 2394 : 
; 2395 : 	float flHeight = UTIL_WaterLevel( mid,  mid.z, mid.z + 1024 );

	movss	xmm0, DWORD PTR _mid$[ebp+8]
	addss	xmm0, DWORD PTR __real@44800000
	push	ecx
	movss	DWORD PTR [esp], xmm0
	push	ecx
	movss	xmm0, DWORD PTR _mid$[ebp+8]
	movss	DWORD PTR [esp], xmm0
	lea	eax, DWORD PTR _mid$[ebp]
	push	eax
	call	?UTIL_WaterLevel@@YAMABVVector@@MM@Z	; UTIL_WaterLevel
	add	esp, 12					; 0000000cH
	fstp	DWORD PTR _flHeight$[ebp]

; 2396 : 	flHeight = flHeight - mins.z;

	movss	xmm0, DWORD PTR _flHeight$[ebp]
	subss	xmm0, DWORD PTR _mins$[ebp+8]
	movss	DWORD PTR _flHeight$[ebp], xmm0

; 2397 : 
; 2398 : 	MESSAGE_BEGIN( MSG_PAS, SVC_TEMPENTITY, mid );

	push	0
	lea	ecx, DWORD PTR _mid$[ebp]
	call	??BVector@@QAEPAMXZ			; Vector::operator float *
	push	eax
	push	23					; 00000017H
	push	5
	call	?MESSAGE_BEGIN@@YAXHHPBMPAUedict_s@@@Z	; MESSAGE_BEGIN
	add	esp, 16					; 00000010H

; 2399 : 		WRITE_BYTE( TE_BUBBLES );

	push	113					; 00000071H
	call	DWORD PTR ?g_engfuncs@@3Uenginefuncs_s@@A+192
	add	esp, 4

; 2400 : 		WRITE_COORD( mins.x );	// mins

	push	ecx
	movss	xmm0, DWORD PTR _mins$[ebp]
	movss	DWORD PTR [esp], xmm0
	call	DWORD PTR ?g_engfuncs@@3Uenginefuncs_s@@A+212
	add	esp, 4

; 2401 : 		WRITE_COORD( mins.y );

	push	ecx
	movss	xmm0, DWORD PTR _mins$[ebp+4]
	movss	DWORD PTR [esp], xmm0
	call	DWORD PTR ?g_engfuncs@@3Uenginefuncs_s@@A+212
	add	esp, 4

; 2402 : 		WRITE_COORD( mins.z );

	push	ecx
	movss	xmm0, DWORD PTR _mins$[ebp+8]
	movss	DWORD PTR [esp], xmm0
	call	DWORD PTR ?g_engfuncs@@3Uenginefuncs_s@@A+212
	add	esp, 4

; 2403 : 		WRITE_COORD( maxs.x );	// maxz

	push	ecx
	movss	xmm0, DWORD PTR _maxs$[ebp]
	movss	DWORD PTR [esp], xmm0
	call	DWORD PTR ?g_engfuncs@@3Uenginefuncs_s@@A+212
	add	esp, 4

; 2404 : 		WRITE_COORD( maxs.y );

	push	ecx
	movss	xmm0, DWORD PTR _maxs$[ebp+4]
	movss	DWORD PTR [esp], xmm0
	call	DWORD PTR ?g_engfuncs@@3Uenginefuncs_s@@A+212
	add	esp, 4

; 2405 : 		WRITE_COORD( maxs.z );

	push	ecx
	movss	xmm0, DWORD PTR _maxs$[ebp+8]
	movss	DWORD PTR [esp], xmm0
	call	DWORD PTR ?g_engfuncs@@3Uenginefuncs_s@@A+212
	add	esp, 4

; 2406 : 		WRITE_COORD( flHeight );			// height

	push	ecx
	movss	xmm0, DWORD PTR _flHeight$[ebp]
	movss	DWORD PTR [esp], xmm0
	call	DWORD PTR ?g_engfuncs@@3Uenginefuncs_s@@A+212
	add	esp, 4

; 2407 : 		WRITE_SHORT( g_sModelIndexBubbles );

	movsx	eax, WORD PTR ?g_sModelIndexBubbles@@3FA ; g_sModelIndexBubbles
	push	eax
	call	DWORD PTR ?g_engfuncs@@3Uenginefuncs_s@@A+200
	add	esp, 4

; 2408 : 		WRITE_BYTE( count ); // count

	mov	eax, DWORD PTR _count$[ebp]
	push	eax
	call	DWORD PTR ?g_engfuncs@@3Uenginefuncs_s@@A+192
	add	esp, 4

; 2409 : 		WRITE_COORD( 8 ); // speed

	push	ecx
	movss	xmm0, DWORD PTR __real@41000000
	movss	DWORD PTR [esp], xmm0
	call	DWORD PTR ?g_engfuncs@@3Uenginefuncs_s@@A+212
	add	esp, 4

; 2410 : 	MESSAGE_END();

	call	DWORD PTR ?g_engfuncs@@3Uenginefuncs_s@@A+188

; 2411 : }

	pop	edi
	pop	esi
	pop	ebx
	mov	esp, ebp
	pop	ebp
	ret	0
?UTIL_Bubbles@@YAXVVector@@0H@Z ENDP			; UTIL_Bubbles
_TEXT	ENDS
; Function compile flags: /Odtp /ZI
; File d:\!diffusion 2020\source code 2022\client-server\server\util.cpp
;	COMDAT ?UTIL_WaterLevel@@YAMABVVector@@MM@Z
_TEXT	SEGMENT
_diff$ = -16						; size = 4
_midUp$ = -12						; size = 12
_position$ = 8						; size = 4
_minz$ = 12						; size = 4
_maxz$ = 16						; size = 4
?UTIL_WaterLevel@@YAMABVVector@@MM@Z PROC		; UTIL_WaterLevel, COMDAT

; 2359 : {

	push	ebp
	mov	ebp, esp
	sub	esp, 80					; 00000050H
	push	ebx
	push	esi
	push	edi

; 2360 : 	Vector midUp = position;

	mov	eax, DWORD PTR _position$[ebp]
	push	eax
	lea	ecx, DWORD PTR _midUp$[ebp]
	call	??0Vector@@QAE@ABV0@@Z			; Vector::Vector

; 2361 : 	midUp.z = minz;

	movss	xmm0, DWORD PTR _minz$[ebp]
	movss	DWORD PTR _midUp$[ebp+8], xmm0

; 2362 : 
; 2363 : 	if (UTIL_PointContents(midUp) != CONTENTS_WATER)

	lea	eax, DWORD PTR _midUp$[ebp]
	push	eax
	call	?UTIL_PointContents@@YAHABVVector@@@Z	; UTIL_PointContents
	add	esp, 4
	cmp	eax, -3					; fffffffdH
	je	SHORT $LN4@UTIL_Water

; 2364 : 		return minz;

	fld	DWORD PTR _minz$[ebp]
	jmp	$LN1@UTIL_Water
$LN4@UTIL_Water:

; 2365 : 
; 2366 : 	midUp.z = maxz;

	movss	xmm0, DWORD PTR _maxz$[ebp]
	movss	DWORD PTR _midUp$[ebp+8], xmm0

; 2367 : 	if (UTIL_PointContents(midUp) == CONTENTS_WATER)

	lea	eax, DWORD PTR _midUp$[ebp]
	push	eax
	call	?UTIL_PointContents@@YAHABVVector@@@Z	; UTIL_PointContents
	add	esp, 4
	cmp	eax, -3					; fffffffdH
	jne	SHORT $LN5@UTIL_Water

; 2368 : 		return maxz;

	fld	DWORD PTR _maxz$[ebp]
	jmp	SHORT $LN1@UTIL_Water
$LN5@UTIL_Water:

; 2369 : 
; 2370 : 	float diff = maxz - minz;

	movss	xmm0, DWORD PTR _maxz$[ebp]
	subss	xmm0, DWORD PTR _minz$[ebp]
	movss	DWORD PTR _diff$[ebp], xmm0
$LN2@UTIL_Water:

; 2371 : 	while (diff > 1.0)

	cvtss2sd xmm0, DWORD PTR _diff$[ebp]
	comisd	xmm0, QWORD PTR __real@3ff0000000000000
	jbe	SHORT $LN3@UTIL_Water

; 2372 : 	{
; 2373 : 		midUp.z = minz + diff/2.0;

	cvtss2sd xmm0, DWORD PTR _minz$[ebp]
	cvtss2sd xmm1, DWORD PTR _diff$[ebp]
	divsd	xmm1, QWORD PTR __real@4000000000000000
	addsd	xmm0, xmm1
	cvtsd2ss xmm0, xmm0
	movss	DWORD PTR _midUp$[ebp+8], xmm0

; 2374 : 		if (UTIL_PointContents(midUp) == CONTENTS_WATER)

	lea	eax, DWORD PTR _midUp$[ebp]
	push	eax
	call	?UTIL_PointContents@@YAHABVVector@@@Z	; UTIL_PointContents
	add	esp, 4
	cmp	eax, -3					; fffffffdH
	jne	SHORT $LN6@UTIL_Water

; 2375 : 		{
; 2376 : 			minz = midUp.z;

	movss	xmm0, DWORD PTR _midUp$[ebp+8]
	movss	DWORD PTR _minz$[ebp], xmm0

; 2377 : 		}
; 2378 : 		else

	jmp	SHORT $LN7@UTIL_Water
$LN6@UTIL_Water:

; 2379 : 		{
; 2380 : 			maxz = midUp.z;

	movss	xmm0, DWORD PTR _midUp$[ebp+8]
	movss	DWORD PTR _maxz$[ebp], xmm0
$LN7@UTIL_Water:

; 2381 : 		}
; 2382 : 		diff = maxz - minz;

	movss	xmm0, DWORD PTR _maxz$[ebp]
	subss	xmm0, DWORD PTR _minz$[ebp]
	movss	DWORD PTR _diff$[ebp], xmm0

; 2383 : 	}

	jmp	SHORT $LN2@UTIL_Water
$LN3@UTIL_Water:

; 2384 : 
; 2385 : 	return midUp.z;

	fld	DWORD PTR _midUp$[ebp+8]
$LN1@UTIL_Water:

; 2386 : }

	pop	edi
	pop	esi
	pop	ebx
	mov	esp, ebp
	pop	ebp
	ret	0
?UTIL_WaterLevel@@YAMABVVector@@MM@Z ENDP		; UTIL_WaterLevel
_TEXT	ENDS
; Function compile flags: /Odtp /ZI
; File d:\!diffusion 2020\source code 2022\client-server\server\util.cpp
;	COMDAT ?UTIL_SplineFraction@@YAMMM@Z
_TEXT	SEGMENT
tv75 = -72						; size = 4
_valueSquared$ = -4					; size = 4
_value$ = 8						; size = 4
_scale$ = 12						; size = 4
?UTIL_SplineFraction@@YAMMM@Z PROC			; UTIL_SplineFraction, COMDAT

; 1594 : {

	push	ebp
	mov	ebp, esp
	sub	esp, 72					; 00000048H
	push	ebx
	push	esi
	push	edi

; 1595 : 	value = scale * value;

	movss	xmm0, DWORD PTR _scale$[ebp]
	mulss	xmm0, DWORD PTR _value$[ebp]
	movss	DWORD PTR _value$[ebp], xmm0

; 1596 : 	float valueSquared = value * value;

	movss	xmm0, DWORD PTR _value$[ebp]
	mulss	xmm0, DWORD PTR _value$[ebp]
	movss	DWORD PTR _valueSquared$[ebp], xmm0

; 1597 : 
; 1598 : 	// Nice little ease-in, ease-out spline-like curve
; 1599 : 	return 3 * valueSquared - 2 * valueSquared * value;

	movss	xmm0, DWORD PTR __real@40400000
	mulss	xmm0, DWORD PTR _valueSquared$[ebp]
	movss	xmm1, DWORD PTR __real@40000000
	mulss	xmm1, DWORD PTR _valueSquared$[ebp]
	mulss	xmm1, DWORD PTR _value$[ebp]
	subss	xmm0, xmm1
	movss	DWORD PTR tv75[ebp], xmm0
	fld	DWORD PTR tv75[ebp]

; 1600 : }

	pop	edi
	pop	esi
	pop	ebx
	mov	esp, ebp
	pop	ebp
	ret	0
?UTIL_SplineFraction@@YAMMM@Z ENDP			; UTIL_SplineFraction
_TEXT	ENDS
; Function compile flags: /Odtp /ZI
; File d:\!diffusion 2020\source code 2022\client-server\server\util.cpp
;	COMDAT ?UTIL_IsFacing@@YAHPAUentvars_s@@ABVVector@@@Z
_TEXT	SEGMENT
tv150 = -120						; size = 8
$T1 = -112						; size = 12
_angle$ = -36						; size = 12
_forward$ = -24						; size = 12
_vecDir$ = -12						; size = 12
_pevTest$ = 8						; size = 4
_reference$ = 12					; size = 4
?UTIL_IsFacing@@YAHPAUentvars_s@@ABVVector@@@Z PROC	; UTIL_IsFacing, COMDAT

; 2256 : {

	push	ebp
	mov	ebp, esp
	sub	esp, 120				; 00000078H
	push	ebx
	push	esi
	push	edi

; 2257 : 	Vector vecDir = (reference - pevTest->origin);

	mov	eax, DWORD PTR _pevTest$[ebp]
	add	eax, 8
	push	eax
	lea	ecx, DWORD PTR _vecDir$[ebp]
	push	ecx
	mov	ecx, DWORD PTR _reference$[ebp]
	call	??GVector@@QBE?AV0@ABV0@@Z		; Vector::operator-

; 2258 : 	vecDir.z = 0;

	xorps	xmm0, xmm0
	movss	DWORD PTR _vecDir$[ebp+8], xmm0

; 2259 : 	vecDir = vecDir.Normalize();

	lea	eax, DWORD PTR $T1[ebp]
	push	eax
	lea	ecx, DWORD PTR _vecDir$[ebp]
	call	?Normalize@Vector@@QBE?AV1@XZ		; Vector::Normalize
	mov	ecx, DWORD PTR [eax]
	mov	DWORD PTR _vecDir$[ebp], ecx
	mov	edx, DWORD PTR [eax+4]
	mov	DWORD PTR _vecDir$[ebp+4], edx
	mov	eax, DWORD PTR [eax+8]
	mov	DWORD PTR _vecDir$[ebp+8], eax

; 2260 : 	Vector forward, angle;

	lea	ecx, DWORD PTR _forward$[ebp]
	call	??0Vector@@QAE@XZ			; Vector::Vector
	lea	ecx, DWORD PTR _angle$[ebp]
	call	??0Vector@@QAE@XZ			; Vector::Vector

; 2261 : 	angle = pevTest->v_angle;

	mov	eax, DWORD PTR _pevTest$[ebp]
	add	eax, 116				; 00000074H
	mov	ecx, DWORD PTR [eax]
	mov	DWORD PTR _angle$[ebp], ecx
	mov	edx, DWORD PTR [eax+4]
	mov	DWORD PTR _angle$[ebp+4], edx
	mov	eax, DWORD PTR [eax+8]
	mov	DWORD PTR _angle$[ebp+8], eax

; 2262 : 	angle.x = 0;

	xorps	xmm0, xmm0
	movss	DWORD PTR _angle$[ebp], xmm0

; 2263 : 	UTIL_MakeVectorsPrivate( angle, forward, NULL, NULL );

	push	0
	push	0
	lea	ecx, DWORD PTR _forward$[ebp]
	call	??BVector@@QAEPAMXZ			; Vector::operator float *
	push	eax
	lea	eax, DWORD PTR _angle$[ebp]
	push	eax
	call	?UTIL_MakeVectorsPrivate@@YAXABVVector@@PAM11@Z ; UTIL_MakeVectorsPrivate
	add	esp, 16					; 00000010H

; 2264 : 	// He's facing me, he meant it
; 2265 : 	if ( DotProduct( forward, vecDir ) > 0.96 )	// +/- 15 degrees or so

	lea	eax, DWORD PTR _vecDir$[ebp]
	push	eax
	lea	ecx, DWORD PTR _forward$[ebp]
	push	ecx
	call	?DotProduct@@YAMABVVector@@0@Z		; DotProduct
	add	esp, 8
	fstp	QWORD PTR tv150[ebp]
	movsd	xmm0, QWORD PTR tv150[ebp]
	comisd	xmm0, QWORD PTR __real@3feeb851eb851eb8
	jbe	SHORT $LN2@UTIL_IsFac

; 2266 : 	{
; 2267 : 		return TRUE;

	mov	eax, 1
	jmp	SHORT $LN1@UTIL_IsFac
$LN2@UTIL_IsFac:

; 2268 : 	}
; 2269 : 	return FALSE;

	xor	eax, eax
$LN1@UTIL_IsFac:

; 2270 : }

	pop	edi
	pop	esi
	pop	ebx
	mov	esp, ebp
	pop	ebp
	ret	0
?UTIL_IsFacing@@YAHPAUentvars_s@@ABVVector@@@Z ENDP	; UTIL_IsFacing
_TEXT	ENDS
; Function compile flags: /Odtp /ZI
; File d:\!diffusion 2020\source code 2022\client-server\server\util.cpp
;	COMDAT ?UTIL_TeamsMatch@@YAHPBD0@Z
_TEXT	SEGMENT
_pTeamName1$ = 8					; size = 4
_pTeamName2$ = 12					; size = 4
?UTIL_TeamsMatch@@YAHPBD0@Z PROC			; UTIL_TeamsMatch, COMDAT

; 2239 : {

	push	ebp
	mov	ebp, esp
	sub	esp, 64					; 00000040H
	push	ebx
	push	esi
	push	edi

; 2240 : 	// Everyone matches unless it's teamplay
; 2241 : 	if ( !g_pGameRules->IsTeamplay() )

	mov	eax, DWORD PTR ?g_pGameRules@@3PAVCGameRules@@A ; g_pGameRules
	mov	edx, DWORD PTR [eax]
	mov	ecx, DWORD PTR ?g_pGameRules@@3PAVCGameRules@@A ; g_pGameRules
	mov	eax, DWORD PTR [edx+32]
	call	eax
	test	eax, eax
	jne	SHORT $LN2@UTIL_Teams

; 2242 : 		return TRUE;

	mov	eax, 1
	jmp	SHORT $LN1@UTIL_Teams
$LN2@UTIL_Teams:

; 2243 : 
; 2244 : 	// Both on a team?
; 2245 : 	if ( *pTeamName1 != 0 && *pTeamName2 != 0 )

	mov	eax, DWORD PTR _pTeamName1$[ebp]
	movsx	ecx, BYTE PTR [eax]
	test	ecx, ecx
	je	SHORT $LN3@UTIL_Teams
	mov	eax, DWORD PTR _pTeamName2$[ebp]
	movsx	ecx, BYTE PTR [eax]
	test	ecx, ecx
	je	SHORT $LN3@UTIL_Teams

; 2246 : 	{
; 2247 : 		if ( !stricmp( pTeamName1, pTeamName2 ) )	// Same Team?

	mov	eax, DWORD PTR _pTeamName2$[ebp]
	push	eax
	mov	ecx, DWORD PTR _pTeamName1$[ebp]
	push	ecx
	call	_stricmp
	add	esp, 8
	test	eax, eax
	jne	SHORT $LN3@UTIL_Teams

; 2248 : 			return TRUE;

	mov	eax, 1
	jmp	SHORT $LN1@UTIL_Teams
$LN3@UTIL_Teams:

; 2249 : 	}
; 2250 : 
; 2251 : 	return FALSE;

	xor	eax, eax
$LN1@UTIL_Teams:

; 2252 : }

	pop	edi
	pop	esi
	pop	ebx
	mov	esp, ebp
	pop	ebp
	ret	0
?UTIL_TeamsMatch@@YAHPBD0@Z ENDP			; UTIL_TeamsMatch
_TEXT	ENDS
; Function compile flags: /Odtp /ZI
; File d:\!diffusion 2020\source code 2022\client-server\server\util.cpp
;	COMDAT ?UTIL_IsValidEntity@@YAHPAUedict_s@@@Z
_TEXT	SEGMENT
_pent$ = 8						; size = 4
?UTIL_IsValidEntity@@YAHPAUedict_s@@@Z PROC		; UTIL_IsValidEntity, COMDAT

; 2483 : {

	push	ebp
	mov	ebp, esp
	sub	esp, 64					; 00000040H
	push	ebx
	push	esi
	push	edi

; 2484 : 	if ( !pent || pent->free || (pent->v.flags & FL_KILLME) )

	cmp	DWORD PTR _pent$[ebp], 0
	je	SHORT $LN3@UTIL_IsVal
	mov	eax, DWORD PTR _pent$[ebp]
	cmp	DWORD PTR [eax], 0
	jne	SHORT $LN3@UTIL_IsVal
	mov	eax, DWORD PTR _pent$[ebp]
	mov	ecx, DWORD PTR [eax+548]
	and	ecx, 1073741824				; 40000000H
	je	SHORT $LN2@UTIL_IsVal
$LN3@UTIL_IsVal:

; 2485 : 		return FALSE;

	xor	eax, eax
	jmp	SHORT $LN1@UTIL_IsVal
$LN2@UTIL_IsVal:

; 2486 : 	return TRUE;

	mov	eax, 1
$LN1@UTIL_IsVal:

; 2487 : }

	pop	edi
	pop	esi
	pop	ebx
	mov	esp, ebp
	pop	ebp
	ret	0
?UTIL_IsValidEntity@@YAHPAUedict_s@@@Z ENDP		; UTIL_IsValidEntity
_TEXT	ENDS
; Function compile flags: /Odtp /ZI
; File d:\!diffusion 2020\source code 2022\client-server\server\util.cpp
;	COMDAT ?UTIL_VarArgs@@YAPADPADZZ
_TEXT	SEGMENT
_argptr$ = -4						; size = 4
_format$ = 8						; size = 4
?UTIL_VarArgs@@YAPADPADZZ PROC				; UTIL_VarArgs, COMDAT

; 1604 : {

	push	ebp
	mov	ebp, esp
	sub	esp, 68					; 00000044H
	push	ebx
	push	esi
	push	edi

; 1605 : 	va_list		argptr;
; 1606 : 	static char		string[1024];
; 1607 : 	
; 1608 : 	va_start (argptr, format);

	call	??$__vcrt_va_start_verify_argument_type@PAD@@YAXXZ ; __vcrt_va_start_verify_argument_type<char *>
	lea	eax, DWORD PTR _format$[ebp+4]
	mov	DWORD PTR _argptr$[ebp], eax

; 1609 : 	vsprintf (string, format,argptr);

	mov	eax, DWORD PTR _argptr$[ebp]
	push	eax
	mov	ecx, DWORD PTR _format$[ebp]
	push	ecx
	push	OFFSET ?string@?1??UTIL_VarArgs@@YAPADPADZZ@4PADA
	call	_vsprintf
	add	esp, 12					; 0000000cH

; 1610 : 	va_end (argptr);

	mov	DWORD PTR _argptr$[ebp], 0

; 1611 : 
; 1612 : 	return string;	

	mov	eax, OFFSET ?string@?1??UTIL_VarArgs@@YAPADPADZZ@4PADA

; 1613 : }

	pop	edi
	pop	esi
	pop	ebx
	mov	esp, ebp
	pop	ebp
	ret	0
?UTIL_VarArgs@@YAPADPADZZ ENDP				; UTIL_VarArgs
_TEXT	ENDS
; Function compile flags: /Odtp /ZI
; File d:\!diffusion 2020\source code 2022\client-server\server\util.cpp
;	COMDAT ?UTIL_FindClientInPVS@@YAPAVCBaseEntity@@PAUedict_s@@@Z
_TEXT	SEGMENT
_client$ = -4						; size = 4
_pEdict$ = 8						; size = 4
?UTIL_FindClientInPVS@@YAPAVCBaseEntity@@PAUedict_s@@@Z PROC ; UTIL_FindClientInPVS, COMDAT

; 2660 : {

	push	ebp
	mov	ebp, esp
	sub	esp, 68					; 00000044H
	push	ebx
	push	esi
	push	edi

; 2661 : 	edict_t *client = FIND_CLIENT_IN_PVS (pEdict);

	mov	eax, DWORD PTR _pEdict$[ebp]
	push	eax
	call	DWORD PTR ?g_engfuncs@@3Uenginefuncs_s@@A+68
	add	esp, 4
	mov	DWORD PTR _client$[ebp], eax

; 2662 : 
; 2663 : 	if( !FNullEnt(client))

	mov	eax, DWORD PTR _client$[ebp]
	push	eax
	call	?FNullEnt@@YAHPBUedict_s@@@Z		; FNullEnt
	add	esp, 4
	test	eax, eax
	jne	SHORT $LN2@UTIL_FindC

; 2664 : 	{
; 2665 : 		return CBaseEntity::Instance( client );

	mov	eax, DWORD PTR _client$[ebp]
	push	eax
	call	?Instance@CBaseEntity@@SAPAV1@PAUedict_s@@@Z ; CBaseEntity::Instance
	add	esp, 4
	jmp	SHORT $LN1@UTIL_FindC
$LN2@UTIL_FindC:

; 2666 : 	}
; 2667 : 
; 2668 : 	return NULL;

	xor	eax, eax
$LN1@UTIL_FindC:

; 2669 : }

	pop	edi
	pop	esi
	pop	ebx
	mov	esp, ebp
	pop	ebp
	ret	0
?UTIL_FindClientInPVS@@YAPAVCBaseEntity@@PAUedict_s@@@Z ENDP ; UTIL_FindClientInPVS
_TEXT	ENDS
; Function compile flags: /Odtp /ZI
; File d:\!diffusion 2020\source code 2022\client-server\server\util.cpp
;	COMDAT ?UTIL_AngleDistance@@YAMMM@Z
_TEXT	SEGMENT
_delta$ = -4						; size = 4
_next$ = 8						; size = 4
_cur$ = 12						; size = 4
?UTIL_AngleDistance@@YAMMM@Z PROC			; UTIL_AngleDistance, COMDAT

; 1581 : {

	push	ebp
	mov	ebp, esp
	sub	esp, 68					; 00000044H
	push	ebx
	push	esi
	push	edi

; 1582 : 	float delta = next - cur;

	movss	xmm0, DWORD PTR _next$[ebp]
	subss	xmm0, DWORD PTR _cur$[ebp]
	movss	DWORD PTR _delta$[ebp], xmm0

; 1583 : 
; 1584 : 	if ( delta < -180 )

	movss	xmm0, DWORD PTR __real@c3340000
	comiss	xmm0, DWORD PTR _delta$[ebp]
	jbe	SHORT $LN2@UTIL_Angle

; 1585 : 		delta += 360;

	movss	xmm0, DWORD PTR _delta$[ebp]
	addss	xmm0, DWORD PTR __real@43b40000
	movss	DWORD PTR _delta$[ebp], xmm0
	jmp	SHORT $LN4@UTIL_Angle
$LN2@UTIL_Angle:

; 1586 : 	else if ( delta > 180 )

	movss	xmm0, DWORD PTR _delta$[ebp]
	comiss	xmm0, DWORD PTR __real@43340000
	jbe	SHORT $LN4@UTIL_Angle

; 1587 : 		delta -= 360;

	movss	xmm0, DWORD PTR _delta$[ebp]
	subss	xmm0, DWORD PTR __real@43b40000
	movss	DWORD PTR _delta$[ebp], xmm0
$LN4@UTIL_Angle:

; 1588 : 
; 1589 : 	return delta;

	fld	DWORD PTR _delta$[ebp]

; 1590 : }

	pop	edi
	pop	esi
	pop	ebx
	mov	esp, ebp
	pop	ebp
	ret	0
?UTIL_AngleDistance@@YAMMM@Z ENDP			; UTIL_AngleDistance
_TEXT	ENDS
; Function compile flags: /Odtp /ZI
; File d:\!diffusion 2020\source code 2022\client-server\server\util.cpp
;	COMDAT ?UTIL_ApproachAngle@@YAMMMM@Z
_TEXT	SEGMENT
_delta$ = -4						; size = 4
_target$ = 8						; size = 4
_value$ = 12						; size = 4
_speed$ = 16						; size = 4
?UTIL_ApproachAngle@@YAMMMM@Z PROC			; UTIL_ApproachAngle, COMDAT

; 1555 : {

	push	ebp
	mov	ebp, esp
	sub	esp, 68					; 00000044H
	push	ebx
	push	esi
	push	edi

; 1556 : 	target = UTIL_AngleMod( target );

	push	ecx
	movss	xmm0, DWORD PTR _target$[ebp]
	movss	DWORD PTR [esp], xmm0
	call	?UTIL_AngleMod@@YAMM@Z			; UTIL_AngleMod
	add	esp, 4
	fstp	DWORD PTR _target$[ebp]

; 1557 : 	value = UTIL_AngleMod( target );

	push	ecx
	movss	xmm0, DWORD PTR _target$[ebp]
	movss	DWORD PTR [esp], xmm0
	call	?UTIL_AngleMod@@YAMM@Z			; UTIL_AngleMod
	add	esp, 4
	fstp	DWORD PTR _value$[ebp]

; 1558 : 	
; 1559 : 	float delta = target - value;

	movss	xmm0, DWORD PTR _target$[ebp]
	subss	xmm0, DWORD PTR _value$[ebp]
	movss	DWORD PTR _delta$[ebp], xmm0

; 1560 : 
; 1561 : 	// Speed is assumed to be positive
; 1562 : 	if ( speed < 0 )

	xorps	xmm0, xmm0
	comiss	xmm0, DWORD PTR _speed$[ebp]
	jbe	SHORT $LN2@UTIL_Appro

; 1563 : 		speed = -speed;

	movss	xmm0, DWORD PTR _speed$[ebp]
	xorps	xmm0, DWORD PTR __xmm@80000000800000008000000080000000
	movss	DWORD PTR _speed$[ebp], xmm0
$LN2@UTIL_Appro:

; 1564 : 
; 1565 : 	if ( delta < -180 )

	movss	xmm0, DWORD PTR __real@c3340000
	comiss	xmm0, DWORD PTR _delta$[ebp]
	jbe	SHORT $LN3@UTIL_Appro

; 1566 : 		delta += 360;

	movss	xmm0, DWORD PTR _delta$[ebp]
	addss	xmm0, DWORD PTR __real@43b40000
	movss	DWORD PTR _delta$[ebp], xmm0
	jmp	SHORT $LN5@UTIL_Appro
$LN3@UTIL_Appro:

; 1567 : 	else if ( delta > 180 )

	movss	xmm0, DWORD PTR _delta$[ebp]
	comiss	xmm0, DWORD PTR __real@43340000
	jbe	SHORT $LN5@UTIL_Appro

; 1568 : 		delta -= 360;

	movss	xmm0, DWORD PTR _delta$[ebp]
	subss	xmm0, DWORD PTR __real@43b40000
	movss	DWORD PTR _delta$[ebp], xmm0
$LN5@UTIL_Appro:

; 1569 : 
; 1570 : 	if ( delta > speed )

	movss	xmm0, DWORD PTR _delta$[ebp]
	comiss	xmm0, DWORD PTR _speed$[ebp]
	jbe	SHORT $LN6@UTIL_Appro

; 1571 : 		value += speed;

	movss	xmm0, DWORD PTR _value$[ebp]
	addss	xmm0, DWORD PTR _speed$[ebp]
	movss	DWORD PTR _value$[ebp], xmm0
	jmp	SHORT $LN9@UTIL_Appro
$LN6@UTIL_Appro:

; 1572 : 	else if ( delta < -speed )

	movss	xmm0, DWORD PTR _speed$[ebp]
	xorps	xmm0, DWORD PTR __xmm@80000000800000008000000080000000
	comiss	xmm0, DWORD PTR _delta$[ebp]
	jbe	SHORT $LN8@UTIL_Appro

; 1573 : 		value -= speed;

	movss	xmm0, DWORD PTR _value$[ebp]
	subss	xmm0, DWORD PTR _speed$[ebp]
	movss	DWORD PTR _value$[ebp], xmm0

; 1574 : 	else 

	jmp	SHORT $LN9@UTIL_Appro
$LN8@UTIL_Appro:

; 1575 : 		value = target;

	movss	xmm0, DWORD PTR _target$[ebp]
	movss	DWORD PTR _value$[ebp], xmm0
$LN9@UTIL_Appro:

; 1576 : 
; 1577 : 	return value;

	fld	DWORD PTR _value$[ebp]

; 1578 : }

	pop	edi
	pop	esi
	pop	ebx
	mov	esp, ebp
	pop	ebp
	ret	0
?UTIL_ApproachAngle@@YAMMMM@Z ENDP			; UTIL_ApproachAngle
_TEXT	ENDS
; Function compile flags: /Odtp /ZI
; File d:\!diffusion 2020\source code 2022\client-server\server\util.cpp
;	COMDAT ?UTIL_Approach@@YAMMMM@Z
_TEXT	SEGMENT
_delta$ = -4						; size = 4
_target$ = 8						; size = 4
_value$ = 12						; size = 4
_speed$ = 16						; size = 4
?UTIL_Approach@@YAMMMM@Z PROC				; UTIL_Approach, COMDAT

; 1538 : {

	push	ebp
	mov	ebp, esp
	sub	esp, 68					; 00000044H
	push	ebx
	push	esi
	push	edi

; 1539 : 	if( speed == 0.0f ) // diffusion

	movss	xmm0, DWORD PTR _speed$[ebp]
	ucomiss	xmm0, DWORD PTR __real@00000000
	lahf
	test	ah, 68					; 00000044H
	jp	SHORT $LN2@UTIL_Appro

; 1540 : 		return target;

	fld	DWORD PTR _target$[ebp]
	jmp	SHORT $LN1@UTIL_Appro
$LN2@UTIL_Appro:

; 1541 : 	
; 1542 : 	float delta = target - value;

	movss	xmm0, DWORD PTR _target$[ebp]
	subss	xmm0, DWORD PTR _value$[ebp]
	movss	DWORD PTR _delta$[ebp], xmm0

; 1543 : 
; 1544 : 	if ( delta > speed )

	movss	xmm0, DWORD PTR _delta$[ebp]
	comiss	xmm0, DWORD PTR _speed$[ebp]
	jbe	SHORT $LN3@UTIL_Appro

; 1545 : 		value += speed;

	movss	xmm0, DWORD PTR _value$[ebp]
	addss	xmm0, DWORD PTR _speed$[ebp]
	movss	DWORD PTR _value$[ebp], xmm0
	jmp	SHORT $LN6@UTIL_Appro
$LN3@UTIL_Appro:

; 1546 : 	else if ( delta < -speed )

	movss	xmm0, DWORD PTR _speed$[ebp]
	xorps	xmm0, DWORD PTR __xmm@80000000800000008000000080000000
	comiss	xmm0, DWORD PTR _delta$[ebp]
	jbe	SHORT $LN5@UTIL_Appro

; 1547 : 		value -= speed;

	movss	xmm0, DWORD PTR _value$[ebp]
	subss	xmm0, DWORD PTR _speed$[ebp]
	movss	DWORD PTR _value$[ebp], xmm0

; 1548 : 	else 

	jmp	SHORT $LN6@UTIL_Appro
$LN5@UTIL_Appro:

; 1549 : 		value = target;

	movss	xmm0, DWORD PTR _target$[ebp]
	movss	DWORD PTR _value$[ebp], xmm0
$LN6@UTIL_Appro:

; 1550 : 
; 1551 : 	return value;

	fld	DWORD PTR _value$[ebp]
$LN1@UTIL_Appro:

; 1552 : }

	pop	edi
	pop	esi
	pop	ebx
	mov	esp, ebp
	pop	ebp
	ret	0
?UTIL_Approach@@YAMMMM@Z ENDP				; UTIL_Approach
_TEXT	ENDS
; Function compile flags: /Odtp /ZI
; File d:\!diffusion 2020\source code 2022\client-server\server\util.cpp
;	COMDAT ?UTIL_ClampVectorToBox@@YA?AVVector@@ABV1@0@Z
_TEXT	SEGMENT
_sourceVector$ = -12					; size = 12
___$ReturnUdt$ = 8					; size = 4
_input$ = 12						; size = 4
_clampSize$ = 16					; size = 4
?UTIL_ClampVectorToBox@@YA?AVVector@@ABV1@0@Z PROC	; UTIL_ClampVectorToBox, COMDAT

; 2330 : {

	push	ebp
	mov	ebp, esp
	sub	esp, 76					; 0000004cH
	push	ebx
	push	esi
	push	edi

; 2331 : 	Vector sourceVector = input;

	mov	eax, DWORD PTR _input$[ebp]
	push	eax
	lea	ecx, DWORD PTR _sourceVector$[ebp]
	call	??0Vector@@QAE@ABV0@@Z			; Vector::Vector

; 2332 : 
; 2333 : 	if ( sourceVector.x > clampSize.x )

	mov	eax, DWORD PTR _clampSize$[ebp]
	movss	xmm0, DWORD PTR _sourceVector$[ebp]
	comiss	xmm0, DWORD PTR [eax]
	jbe	SHORT $LN2@UTIL_Clamp

; 2334 : 		sourceVector.x -= clampSize.x;

	mov	eax, DWORD PTR _clampSize$[ebp]
	movss	xmm0, DWORD PTR _sourceVector$[ebp]
	subss	xmm0, DWORD PTR [eax]
	movss	DWORD PTR _sourceVector$[ebp], xmm0
	jmp	SHORT $LN5@UTIL_Clamp
$LN2@UTIL_Clamp:

; 2335 : 	else if ( sourceVector.x < -clampSize.x )

	mov	eax, DWORD PTR _clampSize$[ebp]
	movss	xmm0, DWORD PTR [eax]
	xorps	xmm0, DWORD PTR __xmm@80000000800000008000000080000000
	comiss	xmm0, DWORD PTR _sourceVector$[ebp]
	jbe	SHORT $LN4@UTIL_Clamp

; 2336 : 		sourceVector.x += clampSize.x;

	mov	eax, DWORD PTR _clampSize$[ebp]
	movss	xmm0, DWORD PTR _sourceVector$[ebp]
	addss	xmm0, DWORD PTR [eax]
	movss	DWORD PTR _sourceVector$[ebp], xmm0

; 2337 : 	else

	jmp	SHORT $LN5@UTIL_Clamp
$LN4@UTIL_Clamp:

; 2338 : 		sourceVector.x = 0;

	xorps	xmm0, xmm0
	movss	DWORD PTR _sourceVector$[ebp], xmm0
$LN5@UTIL_Clamp:

; 2339 : 
; 2340 : 	if ( sourceVector.y > clampSize.y )

	mov	eax, DWORD PTR _clampSize$[ebp]
	movss	xmm0, DWORD PTR _sourceVector$[ebp+4]
	comiss	xmm0, DWORD PTR [eax+4]
	jbe	SHORT $LN6@UTIL_Clamp

; 2341 : 		sourceVector.y -= clampSize.y;

	mov	eax, DWORD PTR _clampSize$[ebp]
	movss	xmm0, DWORD PTR _sourceVector$[ebp+4]
	subss	xmm0, DWORD PTR [eax+4]
	movss	DWORD PTR _sourceVector$[ebp+4], xmm0
	jmp	SHORT $LN9@UTIL_Clamp
$LN6@UTIL_Clamp:

; 2342 : 	else if ( sourceVector.y < -clampSize.y )

	mov	eax, DWORD PTR _clampSize$[ebp]
	movss	xmm0, DWORD PTR [eax+4]
	xorps	xmm0, DWORD PTR __xmm@80000000800000008000000080000000
	comiss	xmm0, DWORD PTR _sourceVector$[ebp+4]
	jbe	SHORT $LN8@UTIL_Clamp

; 2343 : 		sourceVector.y += clampSize.y;

	mov	eax, DWORD PTR _clampSize$[ebp]
	movss	xmm0, DWORD PTR _sourceVector$[ebp+4]
	addss	xmm0, DWORD PTR [eax+4]
	movss	DWORD PTR _sourceVector$[ebp+4], xmm0

; 2344 : 	else

	jmp	SHORT $LN9@UTIL_Clamp
$LN8@UTIL_Clamp:

; 2345 : 		sourceVector.y = 0;

	xorps	xmm0, xmm0
	movss	DWORD PTR _sourceVector$[ebp+4], xmm0
$LN9@UTIL_Clamp:

; 2346 : 	
; 2347 : 	if ( sourceVector.z > clampSize.z )

	mov	eax, DWORD PTR _clampSize$[ebp]
	movss	xmm0, DWORD PTR _sourceVector$[ebp+8]
	comiss	xmm0, DWORD PTR [eax+8]
	jbe	SHORT $LN10@UTIL_Clamp

; 2348 : 		sourceVector.z -= clampSize.z;

	mov	eax, DWORD PTR _clampSize$[ebp]
	movss	xmm0, DWORD PTR _sourceVector$[ebp+8]
	subss	xmm0, DWORD PTR [eax+8]
	movss	DWORD PTR _sourceVector$[ebp+8], xmm0
	jmp	SHORT $LN13@UTIL_Clamp
$LN10@UTIL_Clamp:

; 2349 : 	else if ( sourceVector.z < -clampSize.z )

	mov	eax, DWORD PTR _clampSize$[ebp]
	movss	xmm0, DWORD PTR [eax+8]
	xorps	xmm0, DWORD PTR __xmm@80000000800000008000000080000000
	comiss	xmm0, DWORD PTR _sourceVector$[ebp+8]
	jbe	SHORT $LN12@UTIL_Clamp

; 2350 : 		sourceVector.z += clampSize.z;

	mov	eax, DWORD PTR _clampSize$[ebp]
	movss	xmm0, DWORD PTR _sourceVector$[ebp+8]
	addss	xmm0, DWORD PTR [eax+8]
	movss	DWORD PTR _sourceVector$[ebp+8], xmm0

; 2351 : 	else

	jmp	SHORT $LN13@UTIL_Clamp
$LN12@UTIL_Clamp:

; 2352 : 		sourceVector.z = 0;

	xorps	xmm0, xmm0
	movss	DWORD PTR _sourceVector$[ebp+8], xmm0
$LN13@UTIL_Clamp:

; 2353 : 
; 2354 : 	return sourceVector.Normalize();

	mov	eax, DWORD PTR ___$ReturnUdt$[ebp]
	push	eax
	lea	ecx, DWORD PTR _sourceVector$[ebp]
	call	?Normalize@Vector@@QBE?AV1@XZ		; Vector::Normalize
	mov	eax, DWORD PTR ___$ReturnUdt$[ebp]

; 2355 : }

	pop	edi
	pop	esi
	pop	ebx
	mov	esp, ebp
	pop	ebp
	ret	0
?UTIL_ClampVectorToBox@@YA?AVVector@@ABV1@0@Z ENDP	; UTIL_ClampVectorToBox
_TEXT	ENDS
; Function compile flags: /Odtp /ZI
; File d:\!diffusion 2020\source code 2022\client-server\server\util.cpp
;	COMDAT ?UTIL_StringToIntArray@@YAXPAHHPBD@Z
_TEXT	SEGMENT
_j$ = -144						; size = 4
_tempString$ = -140					; size = 128
_pfront$ = -12						; size = 4
_pstr$ = -8						; size = 4
__$ArrayPad$ = -4					; size = 4
_pVector$ = 8						; size = 4
_count$ = 12						; size = 4
_pString$ = 16						; size = 4
?UTIL_StringToIntArray@@YAXPAHHPBD@Z PROC		; UTIL_StringToIntArray, COMDAT

; 2304 : {

	push	ebp
	mov	ebp, esp
	sub	esp, 208				; 000000d0H
	mov	eax, DWORD PTR ___security_cookie
	xor	eax, ebp
	mov	DWORD PTR __$ArrayPad$[ebp], eax
	push	ebx
	push	esi
	push	edi

; 2305 : 	char *pstr, *pfront, tempString[128];
; 2306 : 	int	j;
; 2307 : 
; 2308 : 	strcpy( tempString, pString );

	mov	eax, DWORD PTR _pString$[ebp]
	push	eax
	lea	ecx, DWORD PTR _tempString$[ebp]
	push	ecx
	call	_strcpy
	add	esp, 8

; 2309 : 	pstr = pfront = tempString;

	lea	eax, DWORD PTR _tempString$[ebp]
	mov	DWORD PTR _pfront$[ebp], eax
	mov	ecx, DWORD PTR _pfront$[ebp]
	mov	DWORD PTR _pstr$[ebp], ecx

; 2310 : 
; 2311 : 	for ( j = 0; j < count; j++ )			// lifted from pr_edict.c

	mov	DWORD PTR _j$[ebp], 0
	jmp	SHORT $LN4@UTIL_Strin
$LN2@UTIL_Strin:
	mov	eax, DWORD PTR _j$[ebp]
	add	eax, 1
	mov	DWORD PTR _j$[ebp], eax
$LN4@UTIL_Strin:
	mov	eax, DWORD PTR _j$[ebp]
	cmp	eax, DWORD PTR _count$[ebp]
	jge	SHORT $LN3@UTIL_Strin

; 2312 : 	{
; 2313 : 		pVector[j] = atoi( pfront );

	mov	eax, DWORD PTR _pfront$[ebp]
	push	eax
	call	_atoi
	add	esp, 4
	mov	ecx, DWORD PTR _j$[ebp]
	mov	edx, DWORD PTR _pVector$[ebp]
	mov	DWORD PTR [edx+ecx*4], eax
$LN5@UTIL_Strin:

; 2314 : 
; 2315 : 		while ( *pstr && *pstr != ' ' )

	mov	eax, DWORD PTR _pstr$[ebp]
	movsx	ecx, BYTE PTR [eax]
	test	ecx, ecx
	je	SHORT $LN6@UTIL_Strin
	mov	eax, DWORD PTR _pstr$[ebp]
	movsx	ecx, BYTE PTR [eax]
	cmp	ecx, 32					; 00000020H
	je	SHORT $LN6@UTIL_Strin

; 2316 : 			pstr++;

	mov	eax, DWORD PTR _pstr$[ebp]
	add	eax, 1
	mov	DWORD PTR _pstr$[ebp], eax
	jmp	SHORT $LN5@UTIL_Strin
$LN6@UTIL_Strin:

; 2317 : 		if (!*pstr)

	mov	eax, DWORD PTR _pstr$[ebp]
	movsx	ecx, BYTE PTR [eax]
	test	ecx, ecx
	jne	SHORT $LN10@UTIL_Strin

; 2318 : 			break;

	jmp	SHORT $LN3@UTIL_Strin
$LN10@UTIL_Strin:

; 2319 : 		pstr++;

	mov	eax, DWORD PTR _pstr$[ebp]
	add	eax, 1
	mov	DWORD PTR _pstr$[ebp], eax

; 2320 : 		pfront = pstr;

	mov	eax, DWORD PTR _pstr$[ebp]
	mov	DWORD PTR _pfront$[ebp], eax

; 2321 : 	}

	jmp	SHORT $LN2@UTIL_Strin
$LN3@UTIL_Strin:

; 2322 : 
; 2323 : 	for ( j++; j < count; j++ )

	mov	eax, DWORD PTR _j$[ebp]
	add	eax, 1
	mov	DWORD PTR _j$[ebp], eax
	jmp	SHORT $LN9@UTIL_Strin
$LN7@UTIL_Strin:
	mov	eax, DWORD PTR _j$[ebp]
	add	eax, 1
	mov	DWORD PTR _j$[ebp], eax
$LN9@UTIL_Strin:
	mov	eax, DWORD PTR _j$[ebp]
	cmp	eax, DWORD PTR _count$[ebp]
	jge	SHORT $LN1@UTIL_Strin

; 2324 : 	{
; 2325 : 		pVector[j] = 0;

	mov	eax, DWORD PTR _j$[ebp]
	mov	ecx, DWORD PTR _pVector$[ebp]
	mov	DWORD PTR [ecx+eax*4], 0

; 2326 : 	}

	jmp	SHORT $LN7@UTIL_Strin
$LN1@UTIL_Strin:

; 2327 : }

	pop	edi
	pop	esi
	pop	ebx
	mov	ecx, DWORD PTR __$ArrayPad$[ebp]
	xor	ecx, ebp
	call	@__security_check_cookie@4
	mov	esp, ebp
	pop	ebp
	ret	0
?UTIL_StringToIntArray@@YAXPAHHPBD@Z ENDP		; UTIL_StringToIntArray
_TEXT	ENDS
; Function compile flags: /Odtp /ZI
; File d:\!diffusion 2020\source code 2022\client-server\server\util.cpp
;	COMDAT ?UTIL_StringToVector@@YAXPAMPBD@Z
_TEXT	SEGMENT
_j$ = -144						; size = 4
_tempString$ = -140					; size = 128
_pfront$ = -12						; size = 4
_pstr$ = -8						; size = 4
__$ArrayPad$ = -4					; size = 4
_pVector$ = 8						; size = 4
_pString$ = 12						; size = 4
?UTIL_StringToVector@@YAXPAMPBD@Z PROC			; UTIL_StringToVector, COMDAT

; 2273 : {

	push	ebp
	mov	ebp, esp
	sub	esp, 208				; 000000d0H
	mov	eax, DWORD PTR ___security_cookie
	xor	eax, ebp
	mov	DWORD PTR __$ArrayPad$[ebp], eax
	push	ebx
	push	esi
	push	edi

; 2274 : 	char *pstr, *pfront, tempString[128];
; 2275 : 	int	j;
; 2276 : 
; 2277 : 	strcpy( tempString, pString );

	mov	eax, DWORD PTR _pString$[ebp]
	push	eax
	lea	ecx, DWORD PTR _tempString$[ebp]
	push	ecx
	call	_strcpy
	add	esp, 8

; 2278 : 	pstr = pfront = tempString;

	lea	eax, DWORD PTR _tempString$[ebp]
	mov	DWORD PTR _pfront$[ebp], eax
	mov	ecx, DWORD PTR _pfront$[ebp]
	mov	DWORD PTR _pstr$[ebp], ecx

; 2279 : 
; 2280 : 	for ( j = 0; j < 3; j++ )			// lifted from pr_edict.c

	mov	DWORD PTR _j$[ebp], 0
	jmp	SHORT $LN4@UTIL_Strin
$LN2@UTIL_Strin:
	mov	eax, DWORD PTR _j$[ebp]
	add	eax, 1
	mov	DWORD PTR _j$[ebp], eax
$LN4@UTIL_Strin:
	cmp	DWORD PTR _j$[ebp], 3
	jge	SHORT $LN3@UTIL_Strin

; 2281 : 	{
; 2282 : 		pVector[j] = atof( pfront );

	mov	eax, DWORD PTR _pfront$[ebp]
	push	eax
	call	_atof
	add	esp, 4
	mov	ecx, DWORD PTR _j$[ebp]
	mov	edx, DWORD PTR _pVector$[ebp]
	fstp	DWORD PTR [edx+ecx*4]
$LN5@UTIL_Strin:

; 2283 : 
; 2284 : 		while ( *pstr && *pstr != ' ' )

	mov	eax, DWORD PTR _pstr$[ebp]
	movsx	ecx, BYTE PTR [eax]
	test	ecx, ecx
	je	SHORT $LN6@UTIL_Strin
	mov	eax, DWORD PTR _pstr$[ebp]
	movsx	ecx, BYTE PTR [eax]
	cmp	ecx, 32					; 00000020H
	je	SHORT $LN6@UTIL_Strin

; 2285 : 			pstr++;

	mov	eax, DWORD PTR _pstr$[ebp]
	add	eax, 1
	mov	DWORD PTR _pstr$[ebp], eax
	jmp	SHORT $LN5@UTIL_Strin
$LN6@UTIL_Strin:

; 2286 : 		if (!*pstr)

	mov	eax, DWORD PTR _pstr$[ebp]
	movsx	ecx, BYTE PTR [eax]
	test	ecx, ecx
	jne	SHORT $LN10@UTIL_Strin

; 2287 : 			break;

	jmp	SHORT $LN3@UTIL_Strin
$LN10@UTIL_Strin:

; 2288 : 		pstr++;

	mov	eax, DWORD PTR _pstr$[ebp]
	add	eax, 1
	mov	DWORD PTR _pstr$[ebp], eax

; 2289 : 		pfront = pstr;

	mov	eax, DWORD PTR _pstr$[ebp]
	mov	DWORD PTR _pfront$[ebp], eax

; 2290 : 	}

	jmp	SHORT $LN2@UTIL_Strin
$LN3@UTIL_Strin:

; 2291 : 	if (j < 2)

	cmp	DWORD PTR _j$[ebp], 2
	jge	SHORT $LN8@UTIL_Strin

; 2292 : 	{
; 2293 : 		/*
; 2294 : 		ALERT( at_error, "Bad field in entity!! %s:%s == \"%s\"\n",
; 2295 : 			pkvd->szClassName, pkvd->szKeyName, pkvd->szValue );
; 2296 : 		*/
; 2297 : 		for (j = j+1;j < 3; j++)

	mov	eax, DWORD PTR _j$[ebp]
	add	eax, 1
	mov	DWORD PTR _j$[ebp], eax
	jmp	SHORT $LN9@UTIL_Strin
$LN7@UTIL_Strin:
	mov	eax, DWORD PTR _j$[ebp]
	add	eax, 1
	mov	DWORD PTR _j$[ebp], eax
$LN9@UTIL_Strin:
	cmp	DWORD PTR _j$[ebp], 3
	jge	SHORT $LN8@UTIL_Strin

; 2298 : 			pVector[j] = 0;

	mov	eax, DWORD PTR _j$[ebp]
	mov	ecx, DWORD PTR _pVector$[ebp]
	xorps	xmm0, xmm0
	movss	DWORD PTR [ecx+eax*4], xmm0
	jmp	SHORT $LN7@UTIL_Strin
$LN8@UTIL_Strin:

; 2299 : 	}
; 2300 : }

	pop	edi
	pop	esi
	pop	ebx
	mov	ecx, DWORD PTR __$ArrayPad$[ebp]
	xor	ecx, ebp
	call	@__security_check_cookie@4
	mov	esp, ebp
	pop	ebp
	ret	0
?UTIL_StringToVector@@YAXPAMPBD@Z ENDP			; UTIL_StringToVector
_TEXT	ENDS
; Function compile flags: /Odtp /ZI
; File d:\!diffusion 2020\source code 2022\client-server\server\util.cpp
;	COMDAT ?UTIL_Ricochet@@YAXABVVector@@M@Z
_TEXT	SEGMENT
$T1 = -256						; size = 12
$T2 = -244						; size = 56
$T3 = -188						; size = 56
_newposition$ = -68					; size = 12
_GodDamnTrace$ = -56					; size = 56
_position$ = 8						; size = 4
_scale$ = 12						; size = 4
?UTIL_Ricochet@@YAXABVVector@@M@Z PROC			; UTIL_Ricochet, COMDAT

; 2224 : {

	push	ebp
	mov	ebp, esp
	sub	esp, 256				; 00000100H
	push	ebx
	push	esi
	push	edi

; 2225 : 	TraceResult GodDamnTrace = UTIL_GetGlobalTrace();

	lea	eax, DWORD PTR $T2[ebp]
	push	eax
	call	?UTIL_GetGlobalTrace@@YA?AUgametrace_s@@XZ ; UTIL_GetGlobalTrace
	add	esp, 4
	mov	ecx, 14					; 0000000eH
	mov	esi, eax
	lea	edi, DWORD PTR $T3[ebp]
	rep movsd
	lea	ecx, DWORD PTR $T3[ebp]
	push	ecx
	lea	ecx, DWORD PTR _GodDamnTrace$[ebp]
	call	??0gametrace_s@@QAE@$$QAU0@@Z

; 2226 : 	Vector newposition = position + GodDamnTrace.vecPlaneNormal * 3; // pull out from the touched surface

	push	ecx
	movss	xmm0, DWORD PTR __real@40400000
	movss	DWORD PTR [esp], xmm0
	lea	eax, DWORD PTR $T1[ebp]
	push	eax
	lea	ecx, DWORD PTR _GodDamnTrace$[ebp+36]
	call	??DVector@@QBE?AV0@M@Z			; Vector::operator*
	push	eax
	lea	ecx, DWORD PTR _newposition$[ebp]
	push	ecx
	mov	ecx, DWORD PTR _position$[ebp]
	call	??HVector@@QBE?AV0@ABV0@@Z		; Vector::operator+

; 2227 : 	
; 2228 : 	MESSAGE_BEGIN( MSG_PVS, SVC_TEMPENTITY, position );

	push	0
	mov	ecx, DWORD PTR _position$[ebp]
	call	??BVector@@QBEPBMXZ			; Vector::operator float const *
	push	eax
	push	23					; 00000017H
	push	4
	call	?MESSAGE_BEGIN@@YAXHHPBMPAUedict_s@@@Z	; MESSAGE_BEGIN
	add	esp, 16					; 00000010H

; 2229 : 		WRITE_BYTE( TE_ARMOR_RICOCHET );

	push	111					; 0000006fH
	call	DWORD PTR ?g_engfuncs@@3Uenginefuncs_s@@A+192
	add	esp, 4

; 2230 : 		WRITE_COORD( newposition.x );

	push	ecx
	movss	xmm0, DWORD PTR _newposition$[ebp]
	movss	DWORD PTR [esp], xmm0
	call	DWORD PTR ?g_engfuncs@@3Uenginefuncs_s@@A+212
	add	esp, 4

; 2231 : 		WRITE_COORD( newposition.y );

	push	ecx
	movss	xmm0, DWORD PTR _newposition$[ebp+4]
	movss	DWORD PTR [esp], xmm0
	call	DWORD PTR ?g_engfuncs@@3Uenginefuncs_s@@A+212
	add	esp, 4

; 2232 : 		WRITE_COORD( newposition.z );

	push	ecx
	movss	xmm0, DWORD PTR _newposition$[ebp+8]
	movss	DWORD PTR [esp], xmm0
	call	DWORD PTR ?g_engfuncs@@3Uenginefuncs_s@@A+212
	add	esp, 4

; 2233 : 		WRITE_BYTE( (int)(scale*10) );

	movss	xmm0, DWORD PTR _scale$[ebp]
	mulss	xmm0, DWORD PTR __real@41200000
	cvttss2si eax, xmm0
	push	eax
	call	DWORD PTR ?g_engfuncs@@3Uenginefuncs_s@@A+192
	add	esp, 4

; 2234 : 	MESSAGE_END();

	call	DWORD PTR ?g_engfuncs@@3Uenginefuncs_s@@A+188

; 2235 : }

	pop	edi
	pop	esi
	pop	ebx
	mov	esp, ebp
	pop	ebp
	ret	0
?UTIL_Ricochet@@YAXABVVector@@M@Z ENDP			; UTIL_Ricochet
_TEXT	ENDS
; Function compile flags: /Odtp /ZI
; File d:\!diffusion 2020\source code 2022\client-server\server\util.cpp
;	COMDAT ?UTIL_DoSparkNoSound@@YAXPAUentvars_s@@ABVVector@@@Z
_TEXT	SEGMENT
$T1 = -88						; size = 12
_tmp$ = -12						; size = 12
_pev$ = 8						; size = 4
_location$ = 12						; size = 4
?UTIL_DoSparkNoSound@@YAXPAUentvars_s@@ABVVector@@@Z PROC ; UTIL_DoSparkNoSound, COMDAT

; 2217 : {

	push	ebp
	mov	ebp, esp
	sub	esp, 88					; 00000058H
	push	ebx
	push	esi
	push	edi

; 2218 : 	Vector tmp = location + pev->size * 0.5;

	push	ecx
	movss	xmm0, DWORD PTR __real@3f000000
	movss	DWORD PTR [esp], xmm0
	lea	eax, DWORD PTR $T1[ebp]
	push	eax
	mov	ecx, DWORD PTR _pev$[ebp]
	add	ecx, 244				; 000000f4H
	call	??DVector@@QBE?AV0@M@Z			; Vector::operator*
	push	eax
	lea	ecx, DWORD PTR _tmp$[ebp]
	push	ecx
	mov	ecx, DWORD PTR _location$[ebp]
	call	??HVector@@QBE?AV0@ABV0@@Z		; Vector::operator+

; 2219 : 
; 2220 : 	UTIL_Sparks( tmp );

	lea	eax, DWORD PTR _tmp$[ebp]
	push	eax
	call	?UTIL_Sparks@@YAXABVVector@@@Z		; UTIL_Sparks
	add	esp, 4

; 2221 : }

	pop	edi
	pop	esi
	pop	ebx
	mov	esp, ebp
	pop	ebp
	ret	0
?UTIL_DoSparkNoSound@@YAXPAUentvars_s@@ABVVector@@@Z ENDP ; UTIL_DoSparkNoSound
_TEXT	ENDS
; Function compile flags: /Odtp /ZI
; File d:\!diffusion 2020\source code 2022\client-server\server\util.cpp
;	COMDAT ?UTIL_DoSpark@@YAXPAUentvars_s@@ABVVector@@@Z
_TEXT	SEGMENT
tv151 = -96						; size = 4
tv80 = -96						; size = 4
$T1 = -92						; size = 12
_flVolume$ = -16					; size = 4
_tmp$ = -12						; size = 12
_pev$ = 8						; size = 4
_location$ = 12						; size = 4
?UTIL_DoSpark@@YAXPAUentvars_s@@ABVVector@@@Z PROC	; UTIL_DoSpark, COMDAT

; 2197 : {

	push	ebp
	mov	ebp, esp
	sub	esp, 96					; 00000060H
	push	ebx
	push	esi
	push	edi

; 2198 : 	Vector tmp = location + pev->size * 0.5;

	push	ecx
	movss	xmm0, DWORD PTR __real@3f000000
	movss	DWORD PTR [esp], xmm0
	lea	eax, DWORD PTR $T1[ebp]
	push	eax
	mov	ecx, DWORD PTR _pev$[ebp]
	add	ecx, 244				; 000000f4H
	call	??DVector@@QBE?AV0@M@Z			; Vector::operator*
	push	eax
	lea	ecx, DWORD PTR _tmp$[ebp]
	push	ecx
	mov	ecx, DWORD PTR _location$[ebp]
	call	??HVector@@QBE?AV0@ABV0@@Z		; Vector::operator+

; 2199 : 
; 2200 : 	UTIL_Sparks( tmp );

	lea	eax, DWORD PTR _tmp$[ebp]
	push	eax
	call	?UTIL_Sparks@@YAXABVVector@@@Z		; UTIL_Sparks
	add	esp, 4

; 2201 : 
; 2202 : 	float flVolume = RANDOM_FLOAT( 0.25f, 0.75f ) * 0.75f; // random volume range

	push	ecx
	movss	xmm0, DWORD PTR __real@3f400000
	movss	DWORD PTR [esp], xmm0
	push	ecx
	movss	xmm0, DWORD PTR __real@3e800000
	movss	DWORD PTR [esp], xmm0
	call	DWORD PTR ?g_engfuncs@@3Uenginefuncs_s@@A+364
	add	esp, 8
	fstp	DWORD PTR tv151[ebp]
	movss	xmm0, DWORD PTR tv151[ebp]
	mulss	xmm0, DWORD PTR __real@3f400000
	movss	DWORD PTR _flVolume$[ebp], xmm0

; 2203 : 
; 2204 : 	switch( RANDOM_LONG( 0, 2 ))

	push	2
	push	0
	call	DWORD PTR ?g_engfuncs@@3Uenginefuncs_s@@A+360
	add	esp, 8
	mov	DWORD PTR tv80[ebp], eax
	cmp	DWORD PTR tv80[ebp], 0
	je	SHORT $LN4@UTIL_DoSpa
	cmp	DWORD PTR tv80[ebp], 1
	je	SHORT $LN5@UTIL_DoSpa
	cmp	DWORD PTR tv80[ebp], 2
	je	SHORT $LN6@UTIL_DoSpa
	jmp	$LN2@UTIL_DoSpa
$LN4@UTIL_DoSpa:

; 2205 : 	{
; 2206 : 	case 0: EMIT_SOUND( ENT(pev), CHAN_VOICE, "buttons/spark1.wav", flVolume, ATTN_STATIC ); break;

	push	ecx
	movss	xmm0, DWORD PTR __real@3fa00000
	movss	DWORD PTR [esp], xmm0
	push	ecx
	movss	xmm0, DWORD PTR _flVolume$[ebp]
	movss	DWORD PTR [esp], xmm0
	push	OFFSET ??_C@_0BD@PNMHEJJE@buttons?1spark1?4wav?$AA@
	push	2
	mov	eax, DWORD PTR _pev$[ebp]
	push	eax
	call	?ENT@@YAPAUedict_s@@PBUentvars_s@@@Z	; ENT
	add	esp, 4
	push	eax
	call	?EMIT_SOUND@@YAXPAUedict_s@@HPBDMM@Z	; EMIT_SOUND
	add	esp, 20					; 00000014H
	jmp	SHORT $LN2@UTIL_DoSpa
$LN5@UTIL_DoSpa:

; 2207 : 	case 1: EMIT_SOUND( ENT(pev), CHAN_VOICE, "buttons/spark2.wav", flVolume, ATTN_STATIC ); break;

	push	ecx
	movss	xmm0, DWORD PTR __real@3fa00000
	movss	DWORD PTR [esp], xmm0
	push	ecx
	movss	xmm0, DWORD PTR _flVolume$[ebp]
	movss	DWORD PTR [esp], xmm0
	push	OFFSET ??_C@_0BD@HLFDDLDK@buttons?1spark2?4wav?$AA@
	push	2
	mov	eax, DWORD PTR _pev$[ebp]
	push	eax
	call	?ENT@@YAPAUedict_s@@PBUentvars_s@@@Z	; ENT
	add	esp, 4
	push	eax
	call	?EMIT_SOUND@@YAXPAUedict_s@@HPBDMM@Z	; EMIT_SOUND
	add	esp, 20					; 00000014H
	jmp	SHORT $LN2@UTIL_DoSpa
$LN6@UTIL_DoSpa:

; 2208 : 	case 2: EMIT_SOUND( ENT(pev), CHAN_VOICE, "buttons/spark3.wav", flVolume, ATTN_STATIC ); break;

	push	ecx
	movss	xmm0, DWORD PTR __real@3fa00000
	movss	DWORD PTR [esp], xmm0
	push	ecx
	movss	xmm0, DWORD PTR _flVolume$[ebp]
	movss	DWORD PTR [esp], xmm0
	push	OFFSET ??_C@_0BD@LAAPOIJP@buttons?1spark3?4wav?$AA@
	push	2
	mov	eax, DWORD PTR _pev$[ebp]
	push	eax
	call	?ENT@@YAPAUedict_s@@PBUentvars_s@@@Z	; ENT
	add	esp, 4
	push	eax
	call	?EMIT_SOUND@@YAXPAUedict_s@@HPBDMM@Z	; EMIT_SOUND
	add	esp, 20					; 00000014H
$LN2@UTIL_DoSpa:

; 2209 : //	case 3: EMIT_SOUND( ENT(pev), CHAN_VOICE, "buttons/spark4.wav", flVolume, ATTN_STATIC ); break;
; 2210 : //	case 4: EMIT_SOUND( ENT(pev), CHAN_VOICE, "buttons/spark5.wav", flVolume, ATTN_STATIC ); break;
; 2211 : //	case 5: EMIT_SOUND( ENT(pev), CHAN_VOICE, "buttons/spark6.wav", flVolume, ATTN_STATIC ); break;
; 2212 : 	}
; 2213 : }

	pop	edi
	pop	esi
	pop	ebx
	mov	esp, ebp
	pop	ebp
	ret	0
?UTIL_DoSpark@@YAXPAUentvars_s@@ABVVector@@@Z ENDP	; UTIL_DoSpark
_TEXT	ENDS
; Function compile flags: /Odtp /ZI
; File d:\!diffusion 2020\source code 2022\client-server\server\util.cpp
;	COMDAT ?UTIL_Sparks@@YAXABVVector@@@Z
_TEXT	SEGMENT
_position$ = 8						; size = 4
?UTIL_Sparks@@YAXABVVector@@@Z PROC			; UTIL_Sparks, COMDAT

; 2184 : {

	push	ebp
	mov	ebp, esp
	sub	esp, 64					; 00000040H
	push	ebx
	push	esi
	push	edi

; 2185 : 	MESSAGE_BEGIN( MSG_PVS, gmsgTempEnt, position );

	push	0
	mov	ecx, DWORD PTR _position$[ebp]
	call	??BVector@@QBEPBMXZ			; Vector::operator float const *
	push	eax
	mov	eax, DWORD PTR ?gmsgTempEnt@@3HA	; gmsgTempEnt
	push	eax
	push	4
	call	?MESSAGE_BEGIN@@YAXHHPBMPAUedict_s@@@Z	; MESSAGE_BEGIN
	add	esp, 16					; 00000010H

; 2186 : 		WRITE_BYTE( TE_SPARKS );

	push	9
	call	DWORD PTR ?g_engfuncs@@3Uenginefuncs_s@@A+192
	add	esp, 4

; 2187 : 		WRITE_COORD( position.x );

	mov	eax, DWORD PTR _position$[ebp]
	push	ecx
	movss	xmm0, DWORD PTR [eax]
	movss	DWORD PTR [esp], xmm0
	call	DWORD PTR ?g_engfuncs@@3Uenginefuncs_s@@A+212
	add	esp, 4

; 2188 : 		WRITE_COORD( position.y );

	mov	eax, DWORD PTR _position$[ebp]
	push	ecx
	movss	xmm0, DWORD PTR [eax+4]
	movss	DWORD PTR [esp], xmm0
	call	DWORD PTR ?g_engfuncs@@3Uenginefuncs_s@@A+212
	add	esp, 4

; 2189 : 		WRITE_COORD( position.z );

	mov	eax, DWORD PTR _position$[ebp]
	push	ecx
	movss	xmm0, DWORD PTR [eax+8]
	movss	DWORD PTR [esp], xmm0
	call	DWORD PTR ?g_engfuncs@@3Uenginefuncs_s@@A+212
	add	esp, 4

; 2190 : 	MESSAGE_END();

	call	DWORD PTR ?g_engfuncs@@3Uenginefuncs_s@@A+188

; 2191 : }

	pop	edi
	pop	esi
	pop	ebx
	mov	esp, ebp
	pop	ebp
	ret	0
?UTIL_Sparks@@YAXABVVector@@@Z ENDP			; UTIL_Sparks
_TEXT	ENDS
; Function compile flags: /Odtp /ZI
; File d:\!diffusion 2020\source code 2022\client-server\server\util.cpp
;	COMDAT ?UTIL_GunshotDecalTrace@@YAXPAUgametrace_s@@H@Z
_TEXT	SEGMENT
_index$ = -4						; size = 4
_pTrace$ = 8						; size = 4
_decalNumber$ = 12					; size = 4
?UTIL_GunshotDecalTrace@@YAXPAUgametrace_s@@H@Z PROC	; UTIL_GunshotDecalTrace, COMDAT

; 2161 : {

	push	ebp
	mov	ebp, esp
	sub	esp, 68					; 00000044H
	push	ebx
	push	esi
	push	edi

; 2162 : 	if ( decalNumber < 0 )

	cmp	DWORD PTR _decalNumber$[ebp], 0
	jge	SHORT $LN2@UTIL_Gunsh

; 2163 : 		return;

	jmp	$LN1@UTIL_Gunsh
$LN2@UTIL_Gunsh:

; 2164 : 
; 2165 : 	int index = gDecals[ decalNumber ].index;

	mov	eax, DWORD PTR _decalNumber$[ebp]
	mov	ecx, DWORD PTR ?gDecals@@3PAUDLL_DECALLIST@@A[eax*8+4]
	mov	DWORD PTR _index$[ebp], ecx

; 2166 : 	if ( index < 0 )

	cmp	DWORD PTR _index$[ebp], 0
	jge	SHORT $LN3@UTIL_Gunsh

; 2167 : 		return;

	jmp	$LN1@UTIL_Gunsh
$LN3@UTIL_Gunsh:

; 2168 : 
; 2169 : 	if (pTrace->flFraction == 1.0)

	mov	eax, DWORD PTR _pTrace$[ebp]
	cvtss2sd xmm0, DWORD PTR [eax+16]
	ucomisd	xmm0, QWORD PTR __real@3ff0000000000000
	lahf
	test	ah, 68					; 00000044H
	jp	SHORT $LN4@UTIL_Gunsh

; 2170 : 		return;

	jmp	$LN1@UTIL_Gunsh
$LN4@UTIL_Gunsh:

; 2171 : 
; 2172 : 	MESSAGE_BEGIN( MSG_PAS, gmsgTempEnt, pTrace->vecEndPos );

	push	0
	mov	ecx, DWORD PTR _pTrace$[ebp]
	add	ecx, 20					; 00000014H
	call	??BVector@@QAEPAMXZ			; Vector::operator float *
	push	eax
	mov	eax, DWORD PTR ?gmsgTempEnt@@3HA	; gmsgTempEnt
	push	eax
	push	5
	call	?MESSAGE_BEGIN@@YAXHHPBMPAUedict_s@@@Z	; MESSAGE_BEGIN
	add	esp, 16					; 00000010H

; 2173 : 		WRITE_BYTE( TE_GUNSHOTDECAL );

	push	109					; 0000006dH
	call	DWORD PTR ?g_engfuncs@@3Uenginefuncs_s@@A+192
	add	esp, 4

; 2174 : 		WRITE_COORD( pTrace->vecEndPos.x );

	mov	eax, DWORD PTR _pTrace$[ebp]
	push	ecx
	movss	xmm0, DWORD PTR [eax+20]
	movss	DWORD PTR [esp], xmm0
	call	DWORD PTR ?g_engfuncs@@3Uenginefuncs_s@@A+212
	add	esp, 4

; 2175 : 		WRITE_COORD( pTrace->vecEndPos.y );

	mov	eax, DWORD PTR _pTrace$[ebp]
	push	ecx
	movss	xmm0, DWORD PTR [eax+24]
	movss	DWORD PTR [esp], xmm0
	call	DWORD PTR ?g_engfuncs@@3Uenginefuncs_s@@A+212
	add	esp, 4

; 2176 : 		WRITE_COORD( pTrace->vecEndPos.z );

	mov	eax, DWORD PTR _pTrace$[ebp]
	push	ecx
	movss	xmm0, DWORD PTR [eax+28]
	movss	DWORD PTR [esp], xmm0
	call	DWORD PTR ?g_engfuncs@@3Uenginefuncs_s@@A+212
	add	esp, 4

; 2177 : 		WRITE_SHORT( (short)ENTINDEX(pTrace->pHit) );

	mov	eax, DWORD PTR _pTrace$[ebp]
	mov	ecx, DWORD PTR [eax+48]
	push	ecx
	call	?ENTINDEX@@YAHPAUedict_s@@@Z		; ENTINDEX
	add	esp, 4
	movsx	edx, ax
	push	edx
	call	DWORD PTR ?g_engfuncs@@3Uenginefuncs_s@@A+200
	add	esp, 4

; 2178 : 		WRITE_BYTE( index );

	mov	eax, DWORD PTR _index$[ebp]
	push	eax
	call	DWORD PTR ?g_engfuncs@@3Uenginefuncs_s@@A+192
	add	esp, 4

; 2179 : 	MESSAGE_END();

	call	DWORD PTR ?g_engfuncs@@3Uenginefuncs_s@@A+188
$LN1@UTIL_Gunsh:

; 2180 : }

	pop	edi
	pop	esi
	pop	ebx
	mov	esp, ebp
	pop	ebp
	ret	0
?UTIL_GunshotDecalTrace@@YAXPAUgametrace_s@@H@Z ENDP	; UTIL_GunshotDecalTrace
_TEXT	ENDS
; Function compile flags: /Odtp /ZI
; File d:\!diffusion 2020\source code 2022\client-server\server\util.cpp
;	COMDAT ?UTIL_PlayerDecalTrace@@YAXPAUgametrace_s@@HHH@Z
_TEXT	SEGMENT
_index$ = -4						; size = 4
_pTrace$ = 8						; size = 4
_playernum$ = 12					; size = 4
_decalNumber$ = 16					; size = 4
_bIsCustom$ = 20					; size = 4
?UTIL_PlayerDecalTrace@@YAXPAUgametrace_s@@HHH@Z PROC	; UTIL_PlayerDecalTrace, COMDAT

; 2131 : {

	push	ebp
	mov	ebp, esp
	sub	esp, 68					; 00000044H
	push	ebx
	push	esi
	push	edi

; 2132 : 	int index;
; 2133 : 	
; 2134 : 	if (!bIsCustom)

	cmp	DWORD PTR _bIsCustom$[ebp], 0
	jne	SHORT $LN2@UTIL_Playe

; 2135 : 	{
; 2136 : 		if ( decalNumber < 0 )

	cmp	DWORD PTR _decalNumber$[ebp], 0
	jge	SHORT $LN4@UTIL_Playe

; 2137 : 			return;

	jmp	$LN1@UTIL_Playe
$LN4@UTIL_Playe:

; 2138 : 
; 2139 : 		index = gDecals[ decalNumber ].index;

	mov	eax, DWORD PTR _decalNumber$[ebp]
	mov	ecx, DWORD PTR ?gDecals@@3PAUDLL_DECALLIST@@A[eax*8+4]
	mov	DWORD PTR _index$[ebp], ecx

; 2140 : 		if ( index < 0 )

	cmp	DWORD PTR _index$[ebp], 0
	jge	SHORT $LN5@UTIL_Playe

; 2141 : 			return;

	jmp	$LN1@UTIL_Playe
$LN5@UTIL_Playe:

; 2142 : 	}
; 2143 : 	else

	jmp	SHORT $LN3@UTIL_Playe
$LN2@UTIL_Playe:

; 2144 : 		index = decalNumber;

	mov	eax, DWORD PTR _decalNumber$[ebp]
	mov	DWORD PTR _index$[ebp], eax
$LN3@UTIL_Playe:

; 2145 : 
; 2146 : 	if (pTrace->flFraction == 1.0)

	mov	eax, DWORD PTR _pTrace$[ebp]
	cvtss2sd xmm0, DWORD PTR [eax+16]
	ucomisd	xmm0, QWORD PTR __real@3ff0000000000000
	lahf
	test	ah, 68					; 00000044H
	jp	SHORT $LN6@UTIL_Playe

; 2147 : 		return;

	jmp	$LN1@UTIL_Playe
$LN6@UTIL_Playe:

; 2148 : 
; 2149 : 	MESSAGE_BEGIN( MSG_BROADCAST, SVC_TEMPENTITY );

	push	0
	push	0
	push	23					; 00000017H
	push	0
	call	?MESSAGE_BEGIN@@YAXHHPBMPAUedict_s@@@Z	; MESSAGE_BEGIN
	add	esp, 16					; 00000010H

; 2150 : 		WRITE_BYTE( TE_PLAYERDECAL );

	push	112					; 00000070H
	call	DWORD PTR ?g_engfuncs@@3Uenginefuncs_s@@A+192
	add	esp, 4

; 2151 : 		WRITE_BYTE ( playernum );

	mov	eax, DWORD PTR _playernum$[ebp]
	push	eax
	call	DWORD PTR ?g_engfuncs@@3Uenginefuncs_s@@A+192
	add	esp, 4

; 2152 : 		WRITE_COORD( pTrace->vecEndPos.x );

	mov	eax, DWORD PTR _pTrace$[ebp]
	push	ecx
	movss	xmm0, DWORD PTR [eax+20]
	movss	DWORD PTR [esp], xmm0
	call	DWORD PTR ?g_engfuncs@@3Uenginefuncs_s@@A+212
	add	esp, 4

; 2153 : 		WRITE_COORD( pTrace->vecEndPos.y );

	mov	eax, DWORD PTR _pTrace$[ebp]
	push	ecx
	movss	xmm0, DWORD PTR [eax+24]
	movss	DWORD PTR [esp], xmm0
	call	DWORD PTR ?g_engfuncs@@3Uenginefuncs_s@@A+212
	add	esp, 4

; 2154 : 		WRITE_COORD( pTrace->vecEndPos.z );

	mov	eax, DWORD PTR _pTrace$[ebp]
	push	ecx
	movss	xmm0, DWORD PTR [eax+28]
	movss	DWORD PTR [esp], xmm0
	call	DWORD PTR ?g_engfuncs@@3Uenginefuncs_s@@A+212
	add	esp, 4

; 2155 : 		WRITE_SHORT( (short)ENTINDEX(pTrace->pHit) );

	mov	eax, DWORD PTR _pTrace$[ebp]
	mov	ecx, DWORD PTR [eax+48]
	push	ecx
	call	?ENTINDEX@@YAHPAUedict_s@@@Z		; ENTINDEX
	add	esp, 4
	movsx	edx, ax
	push	edx
	call	DWORD PTR ?g_engfuncs@@3Uenginefuncs_s@@A+200
	add	esp, 4

; 2156 : 		WRITE_BYTE( index );

	mov	eax, DWORD PTR _index$[ebp]
	push	eax
	call	DWORD PTR ?g_engfuncs@@3Uenginefuncs_s@@A+192
	add	esp, 4

; 2157 : 	MESSAGE_END();

	call	DWORD PTR ?g_engfuncs@@3Uenginefuncs_s@@A+188
$LN1@UTIL_Playe:

; 2158 : }

	pop	edi
	pop	esi
	pop	ebx
	mov	esp, ebp
	pop	ebp
	ret	0
?UTIL_PlayerDecalTrace@@YAXPAUgametrace_s@@HHH@Z ENDP	; UTIL_PlayerDecalTrace
_TEXT	ENDS
; Function compile flags: /Odtp /ZI
; File d:\!diffusion 2020\source code 2022\client-server\server\util.cpp
;	COMDAT ?UTIL_RestoreStudioDecal@@YAXABVVector@@0HHPBDHPAUmodelstate_s@@H@Z
_TEXT	SEGMENT
_vecEnd$ = 8						; size = 4
_vecSrc$ = 12						; size = 4
_entityIndex$ = 16					; size = 4
_modelIndex$ = 20					; size = 4
_name$ = 24						; size = 4
_flags$ = 28						; size = 4
_state$ = 32						; size = 4
_lightcache$ = 36					; size = 4
?UTIL_RestoreStudioDecal@@YAXABVVector@@0HHPBDHPAUmodelstate_s@@H@Z PROC ; UTIL_RestoreStudioDecal, COMDAT

; 2090 : {

	push	ebp
	mov	ebp, esp
	sub	esp, 64					; 00000040H
	push	ebx
	push	esi
	push	edi

; 2091 : 	return; // diffusion - studiodecalsfpslossissue
; 2092 : 	/*
; 2093 : 	MESSAGE_BEGIN( MSG_INIT, gmsgStudioDecal );
; 2094 : 		WRITE_COORD( vecEnd.x );	// write pos
; 2095 : 		WRITE_COORD( vecEnd.y );
; 2096 : 		WRITE_COORD( vecEnd.z );
; 2097 : 		WRITE_COORD( vecSrc.x );	// write start
; 2098 : 		WRITE_COORD( vecSrc.y );
; 2099 : 		WRITE_COORD( vecSrc.z );
; 2100 : 		WRITE_SHORT( DECAL_INDEX( name ));	// decal texture
; 2101 : 		WRITE_SHORT( entityIndex );
; 2102 : 		WRITE_SHORT( modelIndex );
; 2103 : 		WRITE_BYTE( flags );
; 2104 : 
; 2105 : 		// write model state for correct restore
; 2106 : 		WRITE_SHORT( state->sequence );
; 2107 : 		WRITE_SHORT( state->frame );	// already premultiplied by 8
; 2108 : 		WRITE_BYTE( state->blending[0] );
; 2109 : 		WRITE_BYTE( state->blending[1] );
; 2110 : 		WRITE_BYTE( state->controller[0] );
; 2111 : 		WRITE_BYTE( state->controller[1] );
; 2112 : 		WRITE_BYTE( state->controller[2] );
; 2113 : 		WRITE_BYTE( state->controller[3] );
; 2114 : 		WRITE_BYTE( state->body );
; 2115 : 		WRITE_BYTE( state->skin );
; 2116 : 		WRITE_SHORT( lightcache );
; 2117 : 	MESSAGE_END();
; 2118 : 	*/
; 2119 : }

	pop	edi
	pop	esi
	pop	ebx
	mov	esp, ebp
	pop	ebp
	ret	0
?UTIL_RestoreStudioDecal@@YAXABVVector@@0HHPBDHPAUmodelstate_s@@H@Z ENDP ; UTIL_RestoreStudioDecal
_TEXT	ENDS
; Function compile flags: /Odtp /ZI
; File d:\!diffusion 2020\source code 2022\client-server\server\util.cpp
;	COMDAT ?UTIL_StudioDecalTrace@@YAXPAUgametrace_s@@HH@Z
_TEXT	SEGMENT
_pTrace$ = 8						; size = 4
_decalNumber$ = 12					; size = 4
_flags$ = 16						; size = 4
?UTIL_StudioDecalTrace@@YAXPAUgametrace_s@@HH@Z PROC	; UTIL_StudioDecalTrace, COMDAT

; 2016 : {

	push	ebp
	mov	ebp, esp
	sub	esp, 64					; 00000040H
	push	ebx
	push	esi
	push	edi

; 2017 : 	return; // diffusion - studiodecalsfpslossissue
; 2018 : 	/*
; 2019 : 	short entityIndex;
; 2020 : 	int decalIndex;
; 2021 : 
; 2022 : 	if ( decalNumber < 0 )
; 2023 : 		return;
; 2024 : 
; 2025 : 	decalIndex = gDecals[ decalNumber ].index;
; 2026 : 
; 2027 : 	if( decalIndex < 0 )
; 2028 : 		return;
; 2029 : 
; 2030 : 	if( pTrace->flFraction == 1.0f )
; 2031 : 		return;
; 2032 : 
; 2033 : 	CBaseEntity *pEntity;
; 2034 : 
; 2035 : 	// Only decal Studio models
; 2036 : 	if( pTrace->pHit )
; 2037 : 	{
; 2038 : 		pEntity = CBaseEntity::Instance( pTrace->pHit );
; 2039 : 
; 2040 : 		if( !pEntity || UTIL_GetModelType( pEntity->pev->modelindex ) != mod_studio )
; 2041 : 			return;
; 2042 : 
; 2043 : 		entityIndex = ENTINDEX( pTrace->pHit );
; 2044 : 	}
; 2045 : 	else
; 2046 : 	{
; 2047 : 		return;
; 2048 : 	} 
; 2049 : 
; 2050 : 	Vector vecSrc = pTrace->vecEndPos + pTrace->vecPlaneNormal * 5.0f;	// magic Valve constant
; 2051 : 	Vector vecEnd = pTrace->vecEndPos;
; 2052 : #if 1
; 2053 : 	// write local coords to avoid reduce precision
; 2054 : 	matrix4x4 mat = pEntity->EntityToWorldTransform();
; 2055 : 	vecSrc = mat.VectorITransform( vecSrc );
; 2056 : 	vecEnd = mat.VectorITransform( vecEnd );
; 2057 : 	SetBits( flags, FDECAL_LOCAL_SPACE ); // now it's in local space
; 2058 : #endif	
; 2059 : 	MESSAGE_BEGIN( MSG_BROADCAST, gmsgStudioDecal );
; 2060 : 		WRITE_COORD( vecEnd.x );		// write pos
; 2061 : 		WRITE_COORD( vecEnd.y );
; 2062 : 		WRITE_COORD( vecEnd.z );
; 2063 : 		WRITE_COORD( vecSrc.x );		// write start
; 2064 : 		WRITE_COORD( vecSrc.y );
; 2065 : 		WRITE_COORD( vecSrc.z );
; 2066 : 		WRITE_SHORT( decalIndex );		// decal texture
; 2067 : 		WRITE_SHORT( entityIndex );
; 2068 : 		WRITE_SHORT( pEntity->pev->modelindex );
; 2069 : 		WRITE_BYTE( flags );
; 2070 : 
; 2071 : 		// write model state for correct restore
; 2072 : 		WRITE_SHORT( pEntity->pev->sequence );
; 2073 : 		WRITE_SHORT( (int)( pEntity->pev->frame * 8.0f ));
; 2074 : 		WRITE_BYTE( pEntity->pev->blending[0] );
; 2075 : 		WRITE_BYTE( pEntity->pev->blending[1] );
; 2076 : 		WRITE_BYTE( pEntity->pev->controller[0] );
; 2077 : 		WRITE_BYTE( pEntity->pev->controller[1] );
; 2078 : 		WRITE_BYTE( pEntity->pev->controller[2] );
; 2079 : 		WRITE_BYTE( pEntity->pev->controller[3] );
; 2080 : 		WRITE_BYTE( pEntity->pev->body );
; 2081 : 		WRITE_BYTE( pEntity->pev->skin );
; 2082 : 
; 2083 : 		if( FBitSet( pEntity->pev->iuser1, CF_STATIC_ENTITY ))
; 2084 : 			WRITE_SHORT( pEntity->pev->iuser3 );
; 2085 : 		else WRITE_SHORT( 0 );
; 2086 : 	MESSAGE_END();*/
; 2087 : }

	pop	edi
	pop	esi
	pop	ebx
	mov	esp, ebp
	pop	ebp
	ret	0
?UTIL_StudioDecalTrace@@YAXPAUgametrace_s@@HH@Z ENDP	; UTIL_StudioDecalTrace
_TEXT	ENDS
; Function compile flags: /Odtp /ZI
; File d:\!diffusion 2020\source code 2022\client-server\server\util.cpp
;	COMDAT ?UTIL_DecalTrace@@YAXPAUgametrace_s@@H@Z
_TEXT	SEGMENT
_pEntity$1 = -16					; size = 4
_message$ = -12						; size = 4
_index$ = -8						; size = 4
_entityIndex$ = -4					; size = 2
_pTrace$ = 8						; size = 4
_decalNumber$ = 12					; size = 4
?UTIL_DecalTrace@@YAXPAUgametrace_s@@H@Z PROC		; UTIL_DecalTrace, COMDAT

; 1957 : {

	push	ebp
	mov	ebp, esp
	sub	esp, 80					; 00000050H
	push	ebx
	push	esi
	push	edi

; 1958 : 	short entityIndex;
; 1959 : 	int index;
; 1960 : 	int message;
; 1961 : 
; 1962 : 	if ( decalNumber < 0 )

	cmp	DWORD PTR _decalNumber$[ebp], 0
	jge	SHORT $LN2@UTIL_Decal

; 1963 : 		return;

	jmp	$LN1@UTIL_Decal
$LN2@UTIL_Decal:

; 1964 : 
; 1965 : 	index = gDecals[ decalNumber ].index;

	mov	eax, DWORD PTR _decalNumber$[ebp]
	mov	ecx, DWORD PTR ?gDecals@@3PAUDLL_DECALLIST@@A[eax*8+4]
	mov	DWORD PTR _index$[ebp], ecx

; 1966 : 
; 1967 : 	if ( index < 0 )

	cmp	DWORD PTR _index$[ebp], 0
	jge	SHORT $LN3@UTIL_Decal

; 1968 : 		return;

	jmp	$LN1@UTIL_Decal
$LN3@UTIL_Decal:

; 1969 : 
; 1970 : 	if (pTrace->flFraction == 1.0)

	mov	eax, DWORD PTR _pTrace$[ebp]
	cvtss2sd xmm0, DWORD PTR [eax+16]
	ucomisd	xmm0, QWORD PTR __real@3ff0000000000000
	lahf
	test	ah, 68					; 00000044H
	jp	SHORT $LN4@UTIL_Decal

; 1971 : 		return;

	jmp	$LN1@UTIL_Decal
$LN4@UTIL_Decal:

; 1972 : 
; 1973 : 	// Only decal BSP models
; 1974 : 	if ( pTrace->pHit )

	mov	eax, DWORD PTR _pTrace$[ebp]
	cmp	DWORD PTR [eax+48], 0
	je	SHORT $LN5@UTIL_Decal

; 1975 : 	{
; 1976 : 		CBaseEntity *pEntity = CBaseEntity::Instance( pTrace->pHit );

	mov	eax, DWORD PTR _pTrace$[ebp]
	mov	ecx, DWORD PTR [eax+48]
	push	ecx
	call	?Instance@CBaseEntity@@SAPAV1@PAUedict_s@@@Z ; CBaseEntity::Instance
	add	esp, 4
	mov	DWORD PTR _pEntity$1[ebp], eax

; 1977 : 		if ( pEntity && !pEntity->IsBSPModel() )

	cmp	DWORD PTR _pEntity$1[ebp], 0
	je	SHORT $LN7@UTIL_Decal
	mov	eax, DWORD PTR _pEntity$1[ebp]
	mov	edx, DWORD PTR [eax]
	mov	ecx, DWORD PTR _pEntity$1[ebp]
	mov	eax, DWORD PTR [edx+200]
	call	eax
	test	eax, eax
	jne	SHORT $LN7@UTIL_Decal

; 1978 : 			return;

	jmp	$LN1@UTIL_Decal
$LN7@UTIL_Decal:

; 1979 : 		entityIndex = ENTINDEX( pTrace->pHit );

	mov	eax, DWORD PTR _pTrace$[ebp]
	mov	ecx, DWORD PTR [eax+48]
	push	ecx
	call	?ENTINDEX@@YAHPAUedict_s@@@Z		; ENTINDEX
	add	esp, 4
	mov	WORD PTR _entityIndex$[ebp], ax

; 1980 : 	}
; 1981 : 	else 

	jmp	SHORT $LN6@UTIL_Decal
$LN5@UTIL_Decal:

; 1982 : 		entityIndex = 0;

	xor	eax, eax
	mov	WORD PTR _entityIndex$[ebp], ax
$LN6@UTIL_Decal:

; 1983 : 
; 1984 : 	message = TE_DECAL;

	mov	DWORD PTR _message$[ebp], 104		; 00000068H

; 1985 : 	if ( entityIndex != 0 )

	movsx	eax, WORD PTR _entityIndex$[ebp]
	test	eax, eax
	je	SHORT $LN8@UTIL_Decal

; 1986 : 	{
; 1987 : 		if ( index > 255 )

	cmp	DWORD PTR _index$[ebp], 255		; 000000ffH
	jle	SHORT $LN10@UTIL_Decal

; 1988 : 		{
; 1989 : 			message = TE_DECALHIGH;

	mov	DWORD PTR _message$[ebp], 118		; 00000076H

; 1990 : 			index -= 256;

	mov	eax, DWORD PTR _index$[ebp]
	sub	eax, 256				; 00000100H
	mov	DWORD PTR _index$[ebp], eax
$LN10@UTIL_Decal:

; 1991 : 		}
; 1992 : 	}
; 1993 : 	else

	jmp	SHORT $LN11@UTIL_Decal
$LN8@UTIL_Decal:

; 1994 : 	{
; 1995 : 		message = TE_WORLDDECAL;

	mov	DWORD PTR _message$[ebp], 116		; 00000074H

; 1996 : 		if ( index > 255 )

	cmp	DWORD PTR _index$[ebp], 255		; 000000ffH
	jle	SHORT $LN11@UTIL_Decal

; 1997 : 		{
; 1998 : 			message = TE_WORLDDECALHIGH;

	mov	DWORD PTR _message$[ebp], 117		; 00000075H

; 1999 : 			index -= 256;

	mov	eax, DWORD PTR _index$[ebp]
	sub	eax, 256				; 00000100H
	mov	DWORD PTR _index$[ebp], eax
$LN11@UTIL_Decal:

; 2000 : 		}
; 2001 : 	}
; 2002 : 	
; 2003 : 	MESSAGE_BEGIN( MSG_BROADCAST, SVC_TEMPENTITY );

	push	0
	push	0
	push	23					; 00000017H
	push	0
	call	?MESSAGE_BEGIN@@YAXHHPBMPAUedict_s@@@Z	; MESSAGE_BEGIN
	add	esp, 16					; 00000010H

; 2004 : 		WRITE_BYTE( message );

	mov	eax, DWORD PTR _message$[ebp]
	push	eax
	call	DWORD PTR ?g_engfuncs@@3Uenginefuncs_s@@A+192
	add	esp, 4

; 2005 : 		WRITE_COORD( pTrace->vecEndPos.x );

	mov	eax, DWORD PTR _pTrace$[ebp]
	push	ecx
	movss	xmm0, DWORD PTR [eax+20]
	movss	DWORD PTR [esp], xmm0
	call	DWORD PTR ?g_engfuncs@@3Uenginefuncs_s@@A+212
	add	esp, 4

; 2006 : 		WRITE_COORD( pTrace->vecEndPos.y );

	mov	eax, DWORD PTR _pTrace$[ebp]
	push	ecx
	movss	xmm0, DWORD PTR [eax+24]
	movss	DWORD PTR [esp], xmm0
	call	DWORD PTR ?g_engfuncs@@3Uenginefuncs_s@@A+212
	add	esp, 4

; 2007 : 		WRITE_COORD( pTrace->vecEndPos.z );

	mov	eax, DWORD PTR _pTrace$[ebp]
	push	ecx
	movss	xmm0, DWORD PTR [eax+28]
	movss	DWORD PTR [esp], xmm0
	call	DWORD PTR ?g_engfuncs@@3Uenginefuncs_s@@A+212
	add	esp, 4

; 2008 : 		WRITE_BYTE( index );

	mov	eax, DWORD PTR _index$[ebp]
	push	eax
	call	DWORD PTR ?g_engfuncs@@3Uenginefuncs_s@@A+192
	add	esp, 4

; 2009 : 		if ( entityIndex )

	movsx	eax, WORD PTR _entityIndex$[ebp]
	test	eax, eax
	je	SHORT $LN12@UTIL_Decal

; 2010 : 			WRITE_SHORT( entityIndex );

	movsx	eax, WORD PTR _entityIndex$[ebp]
	push	eax
	call	DWORD PTR ?g_engfuncs@@3Uenginefuncs_s@@A+200
	add	esp, 4
$LN12@UTIL_Decal:

; 2011 : 		WRITE_BYTE(100); // scale 1.0

	push	100					; 00000064H
	call	DWORD PTR ?g_engfuncs@@3Uenginefuncs_s@@A+192
	add	esp, 4

; 2012 : 	MESSAGE_END();

	call	DWORD PTR ?g_engfuncs@@3Uenginefuncs_s@@A+188
$LN1@UTIL_Decal:

; 2013 : }

	pop	edi
	pop	esi
	pop	ebx
	mov	esp, ebp
	pop	ebp
	ret	0
?UTIL_DecalTrace@@YAXPAUgametrace_s@@H@Z ENDP		; UTIL_DecalTrace
_TEXT	ENDS
; Function compile flags: /Odtp /ZI
; File d:\!diffusion 2020\source code 2022\client-server\server\util.cpp
;	COMDAT ?UTIL_BloodStudioDecalTrace@@YAXPAUgametrace_s@@H@Z
_TEXT	SEGMENT
_pTrace$ = 8						; size = 4
_bloodColor$ = 12					; size = 4
?UTIL_BloodStudioDecalTrace@@YAXPAUgametrace_s@@H@Z PROC ; UTIL_BloodStudioDecalTrace, COMDAT

; 1946 : {

	push	ebp
	mov	ebp, esp
	sub	esp, 64					; 00000040H
	push	ebx
	push	esi
	push	edi

; 1947 : 	if ( UTIL_ShouldShowBlood( bloodColor ) )

	mov	eax, DWORD PTR _bloodColor$[ebp]
	push	eax
	call	?UTIL_ShouldShowBlood@@YAHH@Z		; UTIL_ShouldShowBlood
	add	esp, 4
	test	eax, eax
	je	SHORT $LN1@UTIL_Blood

; 1948 : 	{
; 1949 : 		if ( bloodColor == BLOOD_COLOR_RED )

	cmp	DWORD PTR _bloodColor$[ebp], 247	; 000000f7H
	jne	SHORT $LN3@UTIL_Blood

; 1950 : 			UTIL_StudioDecalTrace( pTrace, DECAL_BLOOD1 + RANDOM_LONG(0,5), 0 );

	push	0
	push	5
	push	0
	call	DWORD PTR ?g_engfuncs@@3Uenginefuncs_s@@A+360
	add	esp, 8
	add	eax, 13					; 0000000dH
	push	eax
	mov	eax, DWORD PTR _pTrace$[ebp]
	push	eax
	call	?UTIL_StudioDecalTrace@@YAXPAUgametrace_s@@HH@Z ; UTIL_StudioDecalTrace
	add	esp, 12					; 0000000cH

; 1951 : 		else

	jmp	SHORT $LN1@UTIL_Blood
$LN3@UTIL_Blood:

; 1952 : 			UTIL_StudioDecalTrace( pTrace, DECAL_YBLOOD1 + RANDOM_LONG(0,5), 0 );

	push	0
	push	5
	push	0
	call	DWORD PTR ?g_engfuncs@@3Uenginefuncs_s@@A+360
	add	esp, 8
	add	eax, 19					; 00000013H
	push	eax
	mov	eax, DWORD PTR _pTrace$[ebp]
	push	eax
	call	?UTIL_StudioDecalTrace@@YAXPAUgametrace_s@@HH@Z ; UTIL_StudioDecalTrace
	add	esp, 12					; 0000000cH
$LN1@UTIL_Blood:

; 1953 : 	}
; 1954 : }

	pop	edi
	pop	esi
	pop	ebx
	mov	esp, ebp
	pop	ebp
	ret	0
?UTIL_BloodStudioDecalTrace@@YAXPAUgametrace_s@@H@Z ENDP ; UTIL_BloodStudioDecalTrace
_TEXT	ENDS
; Function compile flags: /Odtp /ZI
; File d:\!diffusion 2020\source code 2022\client-server\server\util.cpp
;	COMDAT ?UTIL_BloodDecalTrace@@YAXPAUgametrace_s@@H@Z
_TEXT	SEGMENT
_pTrace$ = 8						; size = 4
_bloodColor$ = 12					; size = 4
?UTIL_BloodDecalTrace@@YAXPAUgametrace_s@@H@Z PROC	; UTIL_BloodDecalTrace, COMDAT

; 1935 : {

	push	ebp
	mov	ebp, esp
	sub	esp, 64					; 00000040H
	push	ebx
	push	esi
	push	edi

; 1936 : 	if ( UTIL_ShouldShowBlood( bloodColor ) )

	mov	eax, DWORD PTR _bloodColor$[ebp]
	push	eax
	call	?UTIL_ShouldShowBlood@@YAHH@Z		; UTIL_ShouldShowBlood
	add	esp, 4
	test	eax, eax
	je	SHORT $LN1@UTIL_Blood

; 1937 : 	{
; 1938 : 		if ( bloodColor == BLOOD_COLOR_RED )

	cmp	DWORD PTR _bloodColor$[ebp], 247	; 000000f7H
	jne	SHORT $LN3@UTIL_Blood

; 1939 : 			UTIL_DecalTrace( pTrace, DECAL_BLOOD1 + RANDOM_LONG(0,5) );

	push	5
	push	0
	call	DWORD PTR ?g_engfuncs@@3Uenginefuncs_s@@A+360
	add	esp, 8
	add	eax, 13					; 0000000dH
	push	eax
	mov	eax, DWORD PTR _pTrace$[ebp]
	push	eax
	call	?UTIL_DecalTrace@@YAXPAUgametrace_s@@H@Z ; UTIL_DecalTrace
	add	esp, 8

; 1940 : 		else

	jmp	SHORT $LN1@UTIL_Blood
$LN3@UTIL_Blood:

; 1941 : 			UTIL_DecalTrace( pTrace, DECAL_YBLOOD1 + RANDOM_LONG(0,5) );

	push	5
	push	0
	call	DWORD PTR ?g_engfuncs@@3Uenginefuncs_s@@A+360
	add	esp, 8
	add	eax, 19					; 00000013H
	push	eax
	mov	eax, DWORD PTR _pTrace$[ebp]
	push	eax
	call	?UTIL_DecalTrace@@YAXPAUgametrace_s@@H@Z ; UTIL_DecalTrace
	add	esp, 8
$LN1@UTIL_Blood:

; 1942 : 	}
; 1943 : }

	pop	edi
	pop	esi
	pop	ebx
	mov	esp, ebp
	pop	ebp
	ret	0
?UTIL_BloodDecalTrace@@YAXPAUgametrace_s@@H@Z ENDP	; UTIL_BloodDecalTrace
_TEXT	ENDS
; Function compile flags: /Odtp /ZI
; File d:\!diffusion 2020\source code 2022\client-server\server\util.cpp
;	COMDAT ?UTIL_ShouldShowBlood@@YAHH@Z
_TEXT	SEGMENT
_color$ = 8						; size = 4
?UTIL_ShouldShowBlood@@YAHH@Z PROC			; UTIL_ShouldShowBlood, COMDAT

; 1839 : {

	push	ebp
	mov	ebp, esp
	sub	esp, 64					; 00000040H
	push	ebx
	push	esi
	push	edi

; 1840 : 	if ( color != DONT_BLEED )

	cmp	DWORD PTR _color$[ebp], -1
	je	SHORT $LN2@UTIL_Shoul

; 1841 : 		return TRUE;

	mov	eax, 1
	jmp	SHORT $LN1@UTIL_Shoul
$LN2@UTIL_Shoul:

; 1842 : 
; 1843 : 	return FALSE;

	xor	eax, eax
$LN1@UTIL_Shoul:

; 1844 : }

	pop	edi
	pop	esi
	pop	ebx
	mov	esp, ebp
	pop	ebp
	ret	0
?UTIL_ShouldShowBlood@@YAHH@Z ENDP			; UTIL_ShouldShowBlood
_TEXT	ENDS
; Function compile flags: /Odtp /ZI
; File d:\!diffusion 2020\source code 2022\client-server\server\util.cpp
;	COMDAT ?UTIL_RandomBloodVector@@YA?AVVector@@XZ
_TEXT	SEGMENT
_direction$ = -12					; size = 12
___$ReturnUdt$ = 8					; size = 4
?UTIL_RandomBloodVector@@YA?AVVector@@XZ PROC		; UTIL_RandomBloodVector, COMDAT

; 1923 : {

	push	ebp
	mov	ebp, esp
	sub	esp, 76					; 0000004cH
	push	ebx
	push	esi
	push	edi

; 1924 : 	Vector direction;

	lea	ecx, DWORD PTR _direction$[ebp]
	call	??0Vector@@QAE@XZ			; Vector::Vector

; 1925 : 
; 1926 : 	direction.x = RANDOM_FLOAT ( -1, 1 );

	push	ecx
	movss	xmm0, DWORD PTR __real@3f800000
	movss	DWORD PTR [esp], xmm0
	push	ecx
	movss	xmm0, DWORD PTR __real@bf800000
	movss	DWORD PTR [esp], xmm0
	call	DWORD PTR ?g_engfuncs@@3Uenginefuncs_s@@A+364
	add	esp, 8
	fstp	DWORD PTR _direction$[ebp]

; 1927 : 	direction.y = RANDOM_FLOAT ( -1, 1 );

	push	ecx
	movss	xmm0, DWORD PTR __real@3f800000
	movss	DWORD PTR [esp], xmm0
	push	ecx
	movss	xmm0, DWORD PTR __real@bf800000
	movss	DWORD PTR [esp], xmm0
	call	DWORD PTR ?g_engfuncs@@3Uenginefuncs_s@@A+364
	add	esp, 8
	fstp	DWORD PTR _direction$[ebp+4]

; 1928 : 	direction.z = RANDOM_FLOAT ( 0, 1 );

	push	ecx
	movss	xmm0, DWORD PTR __real@3f800000
	movss	DWORD PTR [esp], xmm0
	push	ecx
	xorps	xmm0, xmm0
	movss	DWORD PTR [esp], xmm0
	call	DWORD PTR ?g_engfuncs@@3Uenginefuncs_s@@A+364
	add	esp, 8
	fstp	DWORD PTR _direction$[ebp+8]

; 1929 : 
; 1930 : 	return direction;

	lea	eax, DWORD PTR _direction$[ebp]
	push	eax
	mov	ecx, DWORD PTR ___$ReturnUdt$[ebp]
	call	??0Vector@@QAE@ABV0@@Z			; Vector::Vector
	mov	eax, DWORD PTR ___$ReturnUdt$[ebp]

; 1931 : }

	pop	edi
	pop	esi
	pop	ebx
	mov	esp, ebp
	pop	ebp
	ret	0
?UTIL_RandomBloodVector@@YA?AVVector@@XZ ENDP		; UTIL_RandomBloodVector
_TEXT	ENDS
; Function compile flags: /Odtp /ZI
; File d:\!diffusion 2020\source code 2022\client-server\server\util.cpp
;	COMDAT ?UTIL_BloodDrips@@YAXABVVector@@0HH@Z
_TEXT	SEGMENT
tv153 = -100						; size = 4
tv152 = -96						; size = 4
tv147 = -92						; size = 4
$T1 = -88						; size = 12
_ColorVec$ = -12					; size = 12
_origin$ = 8						; size = 4
_direction$ = 12					; size = 4
_color$ = 16						; size = 4
_amount$ = 20						; size = 4
?UTIL_BloodDrips@@YAXABVVector@@0HH@Z PROC		; UTIL_BloodDrips, COMDAT

; 1874 : {

	push	ebp
	mov	ebp, esp
	sub	esp, 100				; 00000064H
	push	ebx
	push	esi
	push	edi

; 1875 : 	if ( !UTIL_ShouldShowBlood( color ) )

	mov	eax, DWORD PTR _color$[ebp]
	push	eax
	call	?UTIL_ShouldShowBlood@@YAHH@Z		; UTIL_ShouldShowBlood
	add	esp, 4
	test	eax, eax
	jne	SHORT $LN2@UTIL_Blood

; 1876 : 		return;

	jmp	$LN1@UTIL_Blood
$LN2@UTIL_Blood:

; 1877 : 
; 1878 : 	if ( color == DONT_BLEED || amount == 0 )

	cmp	DWORD PTR _color$[ebp], -1
	je	SHORT $LN4@UTIL_Blood
	cmp	DWORD PTR _amount$[ebp], 0
	jne	SHORT $LN3@UTIL_Blood
$LN4@UTIL_Blood:

; 1879 : 		return;

	jmp	$LN1@UTIL_Blood
$LN3@UTIL_Blood:

; 1880 : 
; 1881 : 	if ( g_pGameRules->IsMultiplayer() )

	mov	eax, DWORD PTR ?g_pGameRules@@3PAVCGameRules@@A ; g_pGameRules
	mov	edx, DWORD PTR [eax]
	mov	ecx, DWORD PTR ?g_pGameRules@@3PAVCGameRules@@A ; g_pGameRules
	mov	eax, DWORD PTR [edx+24]
	call	eax
	test	eax, eax
	je	SHORT $LN5@UTIL_Blood

; 1882 : 	{
; 1883 : 		// scale up blood effect in multiplayer for better visibility
; 1884 : 		amount *= 2;

	mov	eax, DWORD PTR _amount$[ebp]
	shl	eax, 1
	mov	DWORD PTR _amount$[ebp], eax
$LN5@UTIL_Blood:

; 1885 : 	}
; 1886 : 
; 1887 : 	if ( amount > 255 )

	cmp	DWORD PTR _amount$[ebp], 255		; 000000ffH
	jle	SHORT $LN6@UTIL_Blood

; 1888 : 		amount = 255;

	mov	DWORD PTR _amount$[ebp], 255		; 000000ffH
$LN6@UTIL_Blood:

; 1889 : 	/*
; 1890 : 	MESSAGE_BEGIN( MSG_PVS, SVC_TEMPENTITY, origin );
; 1891 : 		WRITE_BYTE( TE_BLOODSPRITE );
; 1892 : 		WRITE_COORD( origin.x);								// pos
; 1893 : 		WRITE_COORD( origin.y);
; 1894 : 		WRITE_COORD( origin.z);
; 1895 : 		WRITE_SHORT( g_sModelIndexBloodSpray );				// initial sprite model
; 1896 : 		WRITE_SHORT( g_sModelIndexBloodDrop );				// droplet sprite models
; 1897 : 		WRITE_BYTE( color );								// color index into host_basepal
; 1898 : 		WRITE_BYTE( Q_min( Q_max( 3, amount / 10 ), 16 ) );		// size
; 1899 : 	MESSAGE_END();
; 1900 : 	*/
; 1901 : 
; 1902 : 	// diffusion - new particles
; 1903 : 	Vector ColorVec = Vector( 127, 0, 0 );// Vector( 136, 8, 8 ); // red by default

	push	ecx
	xorps	xmm0, xmm0
	movss	DWORD PTR [esp], xmm0
	push	ecx
	xorps	xmm0, xmm0
	movss	DWORD PTR [esp], xmm0
	push	ecx
	movss	xmm0, DWORD PTR __real@42fe0000
	movss	DWORD PTR [esp], xmm0
	lea	ecx, DWORD PTR _ColorVec$[ebp]
	call	??0Vector@@QAE@MMM@Z			; Vector::Vector

; 1904 : 	if( color == BLOOD_COLOR_YELLOW )

	cmp	DWORD PTR _color$[ebp], 195		; 000000c3H
	jne	SHORT $LN7@UTIL_Blood

; 1905 : 		ColorVec = Vector( 220, 220, 0 );

	push	ecx
	xorps	xmm0, xmm0
	movss	DWORD PTR [esp], xmm0
	push	ecx
	movss	xmm0, DWORD PTR __real@435c0000
	movss	DWORD PTR [esp], xmm0
	push	ecx
	movss	xmm0, DWORD PTR __real@435c0000
	movss	DWORD PTR [esp], xmm0
	lea	ecx, DWORD PTR $T1[ebp]
	call	??0Vector@@QAE@MMM@Z			; Vector::Vector
	mov	ecx, DWORD PTR [eax]
	mov	DWORD PTR _ColorVec$[ebp], ecx
	mov	edx, DWORD PTR [eax+4]
	mov	DWORD PTR _ColorVec$[ebp+4], edx
	mov	eax, DWORD PTR [eax+8]
	mov	DWORD PTR _ColorVec$[ebp+8], eax
$LN7@UTIL_Blood:

; 1906 : 
; 1907 : 	MESSAGE_BEGIN( MSG_PVS, gmsgTempEnt, origin );

	push	0
	mov	ecx, DWORD PTR _origin$[ebp]
	call	??BVector@@QBEPBMXZ			; Vector::operator float const *
	push	eax
	mov	eax, DWORD PTR ?gmsgTempEnt@@3HA	; gmsgTempEnt
	push	eax
	push	4
	call	?MESSAGE_BEGIN@@YAXHHPBMPAUedict_s@@@Z	; MESSAGE_BEGIN
	add	esp, 16					; 00000010H

; 1908 : 	WRITE_BYTE( TE_BLOODSPRITE );

	push	115					; 00000073H
	call	DWORD PTR ?g_engfuncs@@3Uenginefuncs_s@@A+192
	add	esp, 4

; 1909 : 	WRITE_COORD( origin.x );								// pos

	mov	eax, DWORD PTR _origin$[ebp]
	push	ecx
	movss	xmm0, DWORD PTR [eax]
	movss	DWORD PTR [esp], xmm0
	call	DWORD PTR ?g_engfuncs@@3Uenginefuncs_s@@A+212
	add	esp, 4

; 1910 : 	WRITE_COORD( origin.y );

	mov	eax, DWORD PTR _origin$[ebp]
	push	ecx
	movss	xmm0, DWORD PTR [eax+4]
	movss	DWORD PTR [esp], xmm0
	call	DWORD PTR ?g_engfuncs@@3Uenginefuncs_s@@A+212
	add	esp, 4

; 1911 : 	WRITE_COORD( origin.z );

	mov	eax, DWORD PTR _origin$[ebp]
	push	ecx
	movss	xmm0, DWORD PTR [eax+8]
	movss	DWORD PTR [esp], xmm0
	call	DWORD PTR ?g_engfuncs@@3Uenginefuncs_s@@A+212
	add	esp, 4

; 1912 : 	WRITE_BYTE( ColorVec.x );	

	cvttss2si eax, DWORD PTR _ColorVec$[ebp]
	push	eax
	call	DWORD PTR ?g_engfuncs@@3Uenginefuncs_s@@A+192
	add	esp, 4

; 1913 : 	WRITE_BYTE( ColorVec.y );

	cvttss2si eax, DWORD PTR _ColorVec$[ebp+4]
	push	eax
	call	DWORD PTR ?g_engfuncs@@3Uenginefuncs_s@@A+192
	add	esp, 4

; 1914 : 	WRITE_BYTE( ColorVec.z );

	cvttss2si eax, DWORD PTR _ColorVec$[ebp+8]
	push	eax
	call	DWORD PTR ?g_engfuncs@@3Uenginefuncs_s@@A+192
	add	esp, 4

; 1915 : 	WRITE_COORD( direction.x );

	mov	eax, DWORD PTR _direction$[ebp]
	push	ecx
	movss	xmm0, DWORD PTR [eax]
	movss	DWORD PTR [esp], xmm0
	call	DWORD PTR ?g_engfuncs@@3Uenginefuncs_s@@A+212
	add	esp, 4

; 1916 : 	WRITE_COORD( direction.y );

	mov	eax, DWORD PTR _direction$[ebp]
	push	ecx
	movss	xmm0, DWORD PTR [eax+4]
	movss	DWORD PTR [esp], xmm0
	call	DWORD PTR ?g_engfuncs@@3Uenginefuncs_s@@A+212
	add	esp, 4

; 1917 : 	WRITE_COORD( direction.z );

	mov	eax, DWORD PTR _direction$[ebp]
	push	ecx
	movss	xmm0, DWORD PTR [eax+8]
	movss	DWORD PTR [esp], xmm0
	call	DWORD PTR ?g_engfuncs@@3Uenginefuncs_s@@A+212
	add	esp, 4

; 1918 : 	WRITE_BYTE( Q_min( Q_max( 3, amount / 10 ), 16 ) );		// size

	mov	eax, DWORD PTR _amount$[ebp]
	cdq
	mov	ecx, 10					; 0000000aH
	idiv	ecx
	cmp	eax, 3
	jge	SHORT $LN9@UTIL_Blood
	mov	DWORD PTR tv147[ebp], 3
	jmp	SHORT $LN10@UTIL_Blood
$LN9@UTIL_Blood:
	mov	eax, DWORD PTR _amount$[ebp]
	cdq
	mov	ecx, 10					; 0000000aH
	idiv	ecx
	mov	DWORD PTR tv147[ebp], eax
$LN10@UTIL_Blood:
	cmp	DWORD PTR tv147[ebp], 16		; 00000010H
	jge	SHORT $LN13@UTIL_Blood
	mov	eax, DWORD PTR _amount$[ebp]
	cdq
	mov	ecx, 10					; 0000000aH
	idiv	ecx
	cmp	eax, 3
	jge	SHORT $LN11@UTIL_Blood
	mov	DWORD PTR tv152[ebp], 3
	jmp	SHORT $LN12@UTIL_Blood
$LN11@UTIL_Blood:
	mov	eax, DWORD PTR _amount$[ebp]
	cdq
	mov	ecx, 10					; 0000000aH
	idiv	ecx
	mov	DWORD PTR tv152[ebp], eax
$LN12@UTIL_Blood:
	mov	edx, DWORD PTR tv152[ebp]
	mov	DWORD PTR tv153[ebp], edx
	jmp	SHORT $LN14@UTIL_Blood
$LN13@UTIL_Blood:
	mov	DWORD PTR tv153[ebp], 16		; 00000010H
$LN14@UTIL_Blood:
	mov	eax, DWORD PTR tv153[ebp]
	push	eax
	call	DWORD PTR ?g_engfuncs@@3Uenginefuncs_s@@A+192
	add	esp, 4

; 1919 : 	MESSAGE_END();

	call	DWORD PTR ?g_engfuncs@@3Uenginefuncs_s@@A+188
$LN1@UTIL_Blood:

; 1920 : }				

	pop	edi
	pop	esi
	pop	ebx
	mov	esp, ebp
	pop	ebp
	ret	0
?UTIL_BloodDrips@@YAXABVVector@@0HH@Z ENDP		; UTIL_BloodDrips
_TEXT	ENDS
; Function compile flags: /Odtp /ZI
; File d:\!diffusion 2020\source code 2022\client-server\server\util.cpp
;	COMDAT ?UTIL_BloodStream@@YAXABVVector@@0HH@Z
_TEXT	SEGMENT
tv90 = -68						; size = 4
_origin$ = 8						; size = 4
_direction$ = 12					; size = 4
_color$ = 16						; size = 4
_amount$ = 20						; size = 4
?UTIL_BloodStream@@YAXABVVector@@0HH@Z PROC		; UTIL_BloodStream, COMDAT

; 1852 : {

	push	ebp
	mov	ebp, esp
	sub	esp, 68					; 00000044H
	push	ebx
	push	esi
	push	edi

; 1853 : 	if ( !UTIL_ShouldShowBlood( color ) )

	mov	eax, DWORD PTR _color$[ebp]
	push	eax
	call	?UTIL_ShouldShowBlood@@YAHH@Z		; UTIL_ShouldShowBlood
	add	esp, 4
	test	eax, eax
	jne	SHORT $LN2@UTIL_Blood

; 1854 : 		return;

	jmp	$LN1@UTIL_Blood
$LN2@UTIL_Blood:

; 1855 : 
; 1856 : 	if ( g_Language == LANGUAGE_GERMAN && color == BLOOD_COLOR_RED )

	cmp	DWORD PTR ?g_Language@@3HA, 1		; g_Language
	jne	SHORT $LN3@UTIL_Blood
	cmp	DWORD PTR _color$[ebp], 247		; 000000f7H
	jne	SHORT $LN3@UTIL_Blood

; 1857 : 		color = 0;

	mov	DWORD PTR _color$[ebp], 0
$LN3@UTIL_Blood:

; 1858 : 
; 1859 : 	
; 1860 : 	MESSAGE_BEGIN( MSG_PVS, SVC_TEMPENTITY, origin );

	push	0
	mov	ecx, DWORD PTR _origin$[ebp]
	call	??BVector@@QBEPBMXZ			; Vector::operator float const *
	push	eax
	push	23					; 00000017H
	push	4
	call	?MESSAGE_BEGIN@@YAXHHPBMPAUedict_s@@@Z	; MESSAGE_BEGIN
	add	esp, 16					; 00000010H

; 1861 : 		WRITE_BYTE( TE_BLOODSTREAM );

	push	101					; 00000065H
	call	DWORD PTR ?g_engfuncs@@3Uenginefuncs_s@@A+192
	add	esp, 4

; 1862 : 		WRITE_COORD( origin.x );

	mov	eax, DWORD PTR _origin$[ebp]
	push	ecx
	movss	xmm0, DWORD PTR [eax]
	movss	DWORD PTR [esp], xmm0
	call	DWORD PTR ?g_engfuncs@@3Uenginefuncs_s@@A+212
	add	esp, 4

; 1863 : 		WRITE_COORD( origin.y );

	mov	eax, DWORD PTR _origin$[ebp]
	push	ecx
	movss	xmm0, DWORD PTR [eax+4]
	movss	DWORD PTR [esp], xmm0
	call	DWORD PTR ?g_engfuncs@@3Uenginefuncs_s@@A+212
	add	esp, 4

; 1864 : 		WRITE_COORD( origin.z );

	mov	eax, DWORD PTR _origin$[ebp]
	push	ecx
	movss	xmm0, DWORD PTR [eax+8]
	movss	DWORD PTR [esp], xmm0
	call	DWORD PTR ?g_engfuncs@@3Uenginefuncs_s@@A+212
	add	esp, 4

; 1865 : 		WRITE_COORD( direction.x );

	mov	eax, DWORD PTR _direction$[ebp]
	push	ecx
	movss	xmm0, DWORD PTR [eax]
	movss	DWORD PTR [esp], xmm0
	call	DWORD PTR ?g_engfuncs@@3Uenginefuncs_s@@A+212
	add	esp, 4

; 1866 : 		WRITE_COORD( direction.y );

	mov	eax, DWORD PTR _direction$[ebp]
	push	ecx
	movss	xmm0, DWORD PTR [eax+4]
	movss	DWORD PTR [esp], xmm0
	call	DWORD PTR ?g_engfuncs@@3Uenginefuncs_s@@A+212
	add	esp, 4

; 1867 : 		WRITE_COORD( direction.z );

	mov	eax, DWORD PTR _direction$[ebp]
	push	ecx
	movss	xmm0, DWORD PTR [eax+8]
	movss	DWORD PTR [esp], xmm0
	call	DWORD PTR ?g_engfuncs@@3Uenginefuncs_s@@A+212
	add	esp, 4

; 1868 : 		WRITE_BYTE( color );

	mov	eax, DWORD PTR _color$[ebp]
	push	eax
	call	DWORD PTR ?g_engfuncs@@3Uenginefuncs_s@@A+192
	add	esp, 4

; 1869 : 		WRITE_BYTE( Q_min( amount, 255 ) );

	cmp	DWORD PTR _amount$[ebp], 255		; 000000ffH
	jge	SHORT $LN5@UTIL_Blood
	mov	eax, DWORD PTR _amount$[ebp]
	mov	DWORD PTR tv90[ebp], eax
	jmp	SHORT $LN6@UTIL_Blood
$LN5@UTIL_Blood:
	mov	DWORD PTR tv90[ebp], 255		; 000000ffH
$LN6@UTIL_Blood:
	mov	ecx, DWORD PTR tv90[ebp]
	push	ecx
	call	DWORD PTR ?g_engfuncs@@3Uenginefuncs_s@@A+192
	add	esp, 4

; 1870 : 	MESSAGE_END();

	call	DWORD PTR ?g_engfuncs@@3Uenginefuncs_s@@A+188
$LN1@UTIL_Blood:

; 1871 : }				

	pop	edi
	pop	esi
	pop	ebx
	mov	esp, ebp
	pop	ebp
	ret	0
?UTIL_BloodStream@@YAXABVVector@@0HH@Z ENDP		; UTIL_BloodStream
_TEXT	ENDS
; Function compile flags: /Odtp /ZI
; File d:\!diffusion 2020\source code 2022\client-server\server\util.cpp
;	COMDAT ?UTIL_IsMasterTriggered@@YAHHPAVCBaseEntity@@@Z
_TEXT	SEGMENT
$T1 = -240						; size = 4
$T2 = -236						; size = 4
_found$3 = -168						; size = 4
_reverse$4 = -164					; size = 4
_szBuf$ = -160						; size = 128
_MASTER_STATE$ = -32					; size = 4
_numMasters$ = -28					; size = 4
_j$ = -24						; size = 4
_i$ = -20						; size = 4
_pOldMaster$ = -16					; size = 4
_pMaster$ = -12						; size = 4
_szMaster$ = -8						; size = 4
__$ArrayPad$ = -4					; size = 4
_sMaster$ = 8						; size = 4
_pActivator$ = 12					; size = 4
?UTIL_IsMasterTriggered@@YAHHPAVCBaseEntity@@@Z PROC	; UTIL_IsMasterTriggered, COMDAT

; 1623 : {

	push	ebp
	mov	ebp, esp
	sub	esp, 240				; 000000f0H
	mov	eax, DWORD PTR ___security_cookie
	xor	eax, ebp
	mov	DWORD PTR __$ArrayPad$[ebp], eax
	push	ebx
	push	esi
	push	edi

; 1624 : 	const char *szMaster;
; 1625 : 	CBaseEntity *pMaster, *pOldMaster;
; 1626 : 	int i, j, numMasters = 0;

	mov	DWORD PTR _numMasters$[ebp], 0

; 1627 : 	int MASTER_STATE = 1;

	mov	DWORD PTR _MASTER_STATE$[ebp], 1

; 1628 : 	char szBuf[128];
; 1629 : 
; 1630 : 	if( sMaster )

	cmp	DWORD PTR _sMaster$[ebp], 0
	je	$LN11@UTIL_IsMas

; 1631 : 	{
; 1632 : //		ALERT( at_console, "IsMasterTriggered(%s, %s \"%s\")\n", STRING( sMaster ), pActivator->GetClassname(), pActivator->GetTargetname());
; 1633 : 
; 1634 : 		pMaster = NULL;

	mov	DWORD PTR _pMaster$[ebp], 0
$LN4@UTIL_IsMas:

; 1635 : 
; 1636 : 		do {
; 1637 : 			int reverse = false;

	mov	DWORD PTR _reverse$4[ebp], 0

; 1638 : 			int found = false;

	mov	DWORD PTR _found$3[ebp], 0

; 1639 : 
; 1640 : 			szMaster = STRING( sMaster );

	mov	eax, DWORD PTR _sMaster$[ebp]
	push	eax
	call	DWORD PTR ?g_engfuncs@@3Uenginefuncs_s@@A+264
	add	esp, 4
	mov	DWORD PTR _szMaster$[ebp], eax

; 1641 : 			if( szMaster[0] == '~' ) // inverse master

	mov	eax, 1
	imul	ecx, eax, 0
	mov	edx, DWORD PTR _szMaster$[ebp]
	movsx	eax, BYTE PTR [edx+ecx]
	cmp	eax, 126				; 0000007eH
	jne	SHORT $LN12@UTIL_IsMas

; 1642 : 			{
; 1643 : 				reverse = true;

	mov	DWORD PTR _reverse$4[ebp], 1

; 1644 : 				szMaster++;

	mov	eax, DWORD PTR _szMaster$[ebp]
	add	eax, 1
	mov	DWORD PTR _szMaster$[ebp], eax
$LN12@UTIL_IsMas:

; 1645 : 			}
; 1646 : 
; 1647 : 			pOldMaster = pMaster;

	mov	eax, DWORD PTR _pMaster$[ebp]
	mov	DWORD PTR _pOldMaster$[ebp], eax

; 1648 : 			pMaster = UTIL_FindEntityByTargetname( pMaster, szMaster );

	mov	eax, DWORD PTR _szMaster$[ebp]
	push	eax
	mov	ecx, DWORD PTR _pMaster$[ebp]
	push	ecx
	call	?UTIL_FindEntityByTargetname@@YAPAVCBaseEntity@@PAV1@PBD@Z ; UTIL_FindEntityByTargetname
	add	esp, 8
	mov	DWORD PTR _pMaster$[ebp], eax

; 1649 : 
; 1650 : 			if( !pMaster )

	cmp	DWORD PTR _pMaster$[ebp], 0
	jne	$LN13@UTIL_IsMas

; 1651 : 			{
; 1652 : 				for( i = 0; szMaster[i]; i++ )

	mov	DWORD PTR _i$[ebp], 0
	jmp	SHORT $LN7@UTIL_IsMas
$LN5@UTIL_IsMas:
	mov	eax, DWORD PTR _i$[ebp]
	add	eax, 1
	mov	DWORD PTR _i$[ebp], eax
$LN7@UTIL_IsMas:
	mov	eax, DWORD PTR _szMaster$[ebp]
	add	eax, DWORD PTR _i$[ebp]
	movsx	ecx, BYTE PTR [eax]
	test	ecx, ecx
	je	$LN6@UTIL_IsMas

; 1653 : 				{
; 1654 : 					if( szMaster[i] == '(' )

	mov	eax, DWORD PTR _szMaster$[ebp]
	add	eax, DWORD PTR _i$[ebp]
	movsx	ecx, BYTE PTR [eax]
	cmp	ecx, 40					; 00000028H
	jne	$LN14@UTIL_IsMas

; 1655 : 					{
; 1656 : 						for( j = i+1; szMaster[j]; j++ )

	mov	eax, DWORD PTR _i$[ebp]
	add	eax, 1
	mov	DWORD PTR _j$[ebp], eax
	jmp	SHORT $LN10@UTIL_IsMas
$LN8@UTIL_IsMas:
	mov	eax, DWORD PTR _j$[ebp]
	add	eax, 1
	mov	DWORD PTR _j$[ebp], eax
$LN10@UTIL_IsMas:
	mov	eax, DWORD PTR _szMaster$[ebp]
	add	eax, DWORD PTR _j$[ebp]
	movsx	ecx, BYTE PTR [eax]
	test	ecx, ecx
	je	$LN9@UTIL_IsMas

; 1657 : 						{
; 1658 : 							if( szMaster[j] == ')' )

	mov	eax, DWORD PTR _szMaster$[ebp]
	add	eax, DWORD PTR _j$[ebp]
	movsx	ecx, BYTE PTR [eax]
	cmp	ecx, 41					; 00000029H
	jne	SHORT $LN15@UTIL_IsMas

; 1659 : 							{
; 1660 : 								Q_strncpy( szBuf, szMaster + i + 1, (j - i) - 1 );

	mov	eax, DWORD PTR _j$[ebp]
	sub	eax, DWORD PTR _i$[ebp]
	sub	eax, 1
	push	eax
	mov	ecx, DWORD PTR _i$[ebp]
	mov	edx, DWORD PTR _szMaster$[ebp]
	lea	eax, DWORD PTR [edx+ecx+1]
	push	eax
	lea	ecx, DWORD PTR _szBuf$[ebp]
	push	ecx
	call	?Q_strncpy@@YAIPADPBDI@Z		; Q_strncpy
	add	esp, 12					; 0000000cH

; 1661 : 								szBuf[(j-i)-1] = 0;

	mov	eax, DWORD PTR _j$[ebp]
	sub	eax, DWORD PTR _i$[ebp]
	sub	eax, 1
	mov	DWORD PTR $T2[ebp], eax
	cmp	DWORD PTR $T2[ebp], 128			; 00000080H
	jae	SHORT $LN25@UTIL_IsMas
	jmp	SHORT $LN26@UTIL_IsMas
$LN25@UTIL_IsMas:
	call	___report_rangecheckfailure
$LN26@UTIL_IsMas:
	mov	ecx, DWORD PTR $T2[ebp]
	mov	BYTE PTR _szBuf$[ebp+ecx], 0

; 1662 : 								pActivator = UTIL_FindEntityByTargetname( NULL, szBuf );

	lea	eax, DWORD PTR _szBuf$[ebp]
	push	eax
	push	0
	call	?UTIL_FindEntityByTargetname@@YAPAVCBaseEntity@@PAV1@PBD@Z ; UTIL_FindEntityByTargetname
	add	esp, 8
	mov	DWORD PTR _pActivator$[ebp], eax

; 1663 : 								found = true;

	mov	DWORD PTR _found$3[ebp], 1

; 1664 : 								break;

	jmp	SHORT $LN9@UTIL_IsMas
$LN15@UTIL_IsMas:

; 1665 : 							}
; 1666 : 						}

	jmp	$LN8@UTIL_IsMas
$LN9@UTIL_IsMas:

; 1667 : 
; 1668 : 						if( !found )

	cmp	DWORD PTR _found$3[ebp], 0
	jne	SHORT $LN16@UTIL_IsMas

; 1669 : 						{
; 1670 : 							ALERT( at_error, "Missing ')' in master \"%s\"\n", szMaster );

	mov	eax, DWORD PTR _szMaster$[ebp]
	push	eax
	push	OFFSET ??_C@_0BM@LHAMECIN@Missing?5?8?$CJ?8?5in?5master?5?$CC?$CFs?$CC?6?$AA@
	push	4
	call	DWORD PTR ?g_engfuncs@@3Uenginefuncs_s@@A+244
	add	esp, 12					; 0000000cH

; 1671 : 							return FALSE;

	xor	eax, eax
	jmp	$LN24@UTIL_IsMas
$LN16@UTIL_IsMas:

; 1672 : 						}
; 1673 : 						break;

	jmp	SHORT $LN6@UTIL_IsMas
$LN14@UTIL_IsMas:

; 1674 : 					}
; 1675 : 				}

	jmp	$LN5@UTIL_IsMas
$LN6@UTIL_IsMas:

; 1676 : 
; 1677 : 				if( !found && !numMasters ) // no ( found

	cmp	DWORD PTR _found$3[ebp], 0
	jne	SHORT $LN17@UTIL_IsMas
	cmp	DWORD PTR _numMasters$[ebp], 0
	jne	SHORT $LN17@UTIL_IsMas

; 1678 : 				{
; 1679 : 					return TRUE;

	mov	eax, 1
	jmp	$LN24@UTIL_IsMas
$LN17@UTIL_IsMas:

; 1680 : 				}
; 1681 : 
; 1682 : 				Q_strncpy( szBuf, szMaster, i );

	mov	eax, DWORD PTR _i$[ebp]
	push	eax
	mov	ecx, DWORD PTR _szMaster$[ebp]
	push	ecx
	lea	edx, DWORD PTR _szBuf$[ebp]
	push	edx
	call	?Q_strncpy@@YAIPADPBDI@Z		; Q_strncpy
	add	esp, 12					; 0000000cH

; 1683 : 				szBuf[i] = 0;

	mov	eax, DWORD PTR _i$[ebp]
	mov	DWORD PTR $T1[ebp], eax
	cmp	DWORD PTR $T1[ebp], 128			; 00000080H
	jae	SHORT $LN27@UTIL_IsMas
	jmp	SHORT $LN28@UTIL_IsMas
$LN27@UTIL_IsMas:
	call	___report_rangecheckfailure
$LN28@UTIL_IsMas:
	mov	ecx, DWORD PTR $T1[ebp]
	mov	BYTE PTR _szBuf$[ebp+ecx], 0

; 1684 : 				pMaster = UTIL_FindEntityByTargetname( pOldMaster, szBuf );

	lea	eax, DWORD PTR _szBuf$[ebp]
	push	eax
	mov	ecx, DWORD PTR _pOldMaster$[ebp]
	push	ecx
	call	?UTIL_FindEntityByTargetname@@YAPAVCBaseEntity@@PAV1@PBD@Z ; UTIL_FindEntityByTargetname
	add	esp, 8
	mov	DWORD PTR _pMaster$[ebp], eax
$LN13@UTIL_IsMas:

; 1685 : 			}
; 1686 : 
; 1687 : 			if( pMaster )

	cmp	DWORD PTR _pMaster$[ebp], 0
	je	SHORT $LN2@UTIL_IsMas

; 1688 : 			{
; 1689 : 				// some entities can't be used as masters
; 1690 : 				if( pMaster->ObjectCaps() & FCAP_NOT_MASTER )

	mov	eax, DWORD PTR _pMaster$[ebp]
	mov	edx, DWORD PTR [eax]
	mov	ecx, DWORD PTR _pMaster$[ebp]
	mov	eax, DWORD PTR [edx+24]
	call	eax
	and	eax, 2048				; 00000800H
	je	SHORT $LN19@UTIL_IsMas

; 1691 : 					continue;

	jmp	SHORT $LN2@UTIL_IsMas
$LN19@UTIL_IsMas:

; 1692 :  
; 1693 : 				if( pMaster->GetState( pActivator ) == STATE_ON )

	mov	eax, DWORD PTR _pActivator$[ebp]
	push	eax
	mov	ecx, DWORD PTR _pMaster$[ebp]
	mov	edx, DWORD PTR [ecx]
	mov	ecx, DWORD PTR _pMaster$[ebp]
	mov	eax, DWORD PTR [edx+84]
	call	eax
	cmp	eax, 1
	jne	SHORT $LN20@UTIL_IsMas

; 1694 : 				{
; 1695 : 					if( reverse )

	cmp	DWORD PTR _reverse$4[ebp], 0
	je	SHORT $LN22@UTIL_IsMas

; 1696 : 						return FALSE;

	xor	eax, eax
	jmp	SHORT $LN24@UTIL_IsMas
$LN22@UTIL_IsMas:

; 1697 : 				}
; 1698 : 				else

	jmp	SHORT $LN21@UTIL_IsMas
$LN20@UTIL_IsMas:

; 1699 : 				{
; 1700 : 					if( !reverse )

	cmp	DWORD PTR _reverse$4[ebp], 0
	jne	SHORT $LN21@UTIL_IsMas

; 1701 : 						return FALSE;

	xor	eax, eax
	jmp	SHORT $LN24@UTIL_IsMas
$LN21@UTIL_IsMas:

; 1702 : 				}
; 1703 : 				numMasters++;

	mov	eax, DWORD PTR _numMasters$[ebp]
	add	eax, 1
	mov	DWORD PTR _numMasters$[ebp], eax
$LN2@UTIL_IsMas:

; 1704 : 			}
; 1705 : 
; 1706 : 		} while( pMaster != NULL );

	cmp	DWORD PTR _pMaster$[ebp], 0
	jne	$LN4@UTIL_IsMas
$LN11@UTIL_IsMas:

; 1707 : 	}
; 1708 : 
; 1709 : 	// if the entity has no master (or the master is missing), just say yes.
; 1710 : 	return TRUE;

	mov	eax, 1
$LN24@UTIL_IsMas:

; 1711 : }

	pop	edi
	pop	esi
	pop	ebx
	mov	ecx, DWORD PTR __$ArrayPad$[ebp]
	xor	ecx, ebp
	call	@__security_check_cookie@4
	mov	esp, ebp
	pop	ebp
	ret	0
?UTIL_IsMasterTriggered@@YAHHPAVCBaseEntity@@@Z ENDP	; UTIL_IsMasterTriggered
_TEXT	ENDS
; Function compile flags: /Odtp /ZI
; File d:\!diffusion 2020\source code 2022\client-server\server\util.cpp
;	COMDAT ?UTIL_PointContents@@YAHABVVector@@@Z
_TEXT	SEGMENT
_vec$ = 8						; size = 4
?UTIL_PointContents@@YAHABVVector@@@Z PROC		; UTIL_PointContents, COMDAT

; 1847 : {

	push	ebp
	mov	ebp, esp
	sub	esp, 64					; 00000040H
	push	ebx
	push	esi
	push	edi

; 1848 : 	return POINT_CONTENTS(vec);

	mov	ecx, DWORD PTR _vec$[ebp]
	call	??BVector@@QBEPBMXZ			; Vector::operator float const *
	push	eax
	call	DWORD PTR ?g_engfuncs@@3Uenginefuncs_s@@A+180
	add	esp, 4

; 1849 : }

	pop	edi
	pop	esi
	pop	ebx
	mov	esp, ebp
	pop	ebp
	ret	0
?UTIL_PointContents@@YAHABVVector@@@Z ENDP		; UTIL_PointContents
_TEXT	ENDS
; Function compile flags: /Odtp /ZI
; File d:\!diffusion 2020\source code 2022\client-server\server\util.cpp
;	COMDAT ?UTIL_GetAimVector@@YA?AVVector@@PAUedict_s@@M@Z
_TEXT	SEGMENT
_tmp$ = -12						; size = 12
___$ReturnUdt$ = 8					; size = 4
_pent$ = 12						; size = 4
_flSpeed$ = 16						; size = 4
?UTIL_GetAimVector@@YA?AVVector@@PAUedict_s@@M@Z PROC	; UTIL_GetAimVector, COMDAT

; 1616 : {

	push	ebp
	mov	ebp, esp
	sub	esp, 76					; 0000004cH
	push	ebx
	push	esi
	push	edi

; 1617 : 	Vector tmp;

	lea	ecx, DWORD PTR _tmp$[ebp]
	call	??0Vector@@QAE@XZ			; Vector::Vector

; 1618 : 	GET_AIM_VECTOR(pent, flSpeed, tmp);

	lea	ecx, DWORD PTR _tmp$[ebp]
	call	??BVector@@QAEPAMXZ			; Vector::operator float *
	push	eax
	push	ecx
	movss	xmm0, DWORD PTR _flSpeed$[ebp]
	movss	DWORD PTR [esp], xmm0
	mov	eax, DWORD PTR _pent$[ebp]
	push	eax
	call	DWORD PTR ?g_engfuncs@@3Uenginefuncs_s@@A+152
	add	esp, 12					; 0000000cH

; 1619 : 	return tmp;

	lea	eax, DWORD PTR _tmp$[ebp]
	push	eax
	mov	ecx, DWORD PTR ___$ReturnUdt$[ebp]
	call	??0Vector@@QAE@ABV0@@Z			; Vector::Vector
	mov	eax, DWORD PTR ___$ReturnUdt$[ebp]

; 1620 : }

	pop	edi
	pop	esi
	pop	ebx
	mov	esp, ebp
	pop	ebp
	ret	0
?UTIL_GetAimVector@@YA?AVVector@@PAUedict_s@@M@Z ENDP	; UTIL_GetAimVector
_TEXT	ENDS
; Function compile flags: /Odtp /ZI
; File d:\!diffusion 2020\source code 2022\client-server\server\util.cpp
;	COMDAT ?UTIL_TraceEntity@@YAXPAVCBaseEntity@@ABVVector@@1PAUgametrace_s@@@Z
_TEXT	SEGMENT
_pEntity$ = 8						; size = 4
_vecStart$ = 12						; size = 4
_vecEnd$ = 16						; size = 4
_ptr$ = 20						; size = 4
?UTIL_TraceEntity@@YAXPAVCBaseEntity@@ABVVector@@1PAUgametrace_s@@@Z PROC ; UTIL_TraceEntity, COMDAT

; 1410 : {

	push	ebp
	mov	ebp, esp
	sub	esp, 64					; 00000040H
	push	ebx
	push	esi
	push	edi

; 1411 : 	// setup the improved trace filter (don't collide with entity parent)
; 1412 : 	pEntity->m_pRootParent = pEntity->GetRootParent();

	mov	ecx, DWORD PTR _pEntity$[ebp]
	call	?GetRootParent@CBaseEntity@@QAEPAV1@XZ	; CBaseEntity::GetRootParent
	mov	ecx, DWORD PTR _pEntity$[ebp]
	mov	DWORD PTR [ecx+36], eax

; 1413 : 	pEntity->m_iParentFilter = TRUE;

	mov	eax, DWORD PTR _pEntity$[ebp]
	mov	DWORD PTR [eax+40], 1

; 1414 : 
; 1415 : 	if( pEntity->m_iActorType == ACTOR_DYNAMIC )

	mov	eax, DWORD PTR _pEntity$[ebp]
	movzx	ecx, BYTE PTR [eax+1616]
	cmp	ecx, 1
	jne	SHORT $LN2@UTIL_Trace

; 1416 : 		WorldPhysic->SweepEntity( pEntity, vecStart, vecEnd, ptr );

	mov	eax, DWORD PTR _ptr$[ebp]
	push	eax
	mov	ecx, DWORD PTR _vecEnd$[ebp]
	push	ecx
	mov	edx, DWORD PTR _vecStart$[ebp]
	push	edx
	mov	eax, DWORD PTR _pEntity$[ebp]
	push	eax
	mov	ecx, DWORD PTR ?WorldPhysic@@3PAVIPhysicLayer@@A ; WorldPhysic
	mov	edx, DWORD PTR [ecx]
	mov	ecx, DWORD PTR ?WorldPhysic@@3PAVIPhysicLayer@@A ; WorldPhysic
	mov	eax, DWORD PTR [edx+156]
	call	eax
	jmp	$LN3@UTIL_Trace
$LN2@UTIL_Trace:

; 1417 : 	else if( pEntity->pev->movetype == MOVETYPE_FLYMISSILE )

	mov	eax, DWORD PTR _pEntity$[ebp]
	mov	ecx, DWORD PTR [eax+4]
	cmp	DWORD PTR [ecx+264], 9
	jne	SHORT $LN4@UTIL_Trace

; 1418 : 		TRACE_MONSTER_HULL( pEntity->edict(), vecStart, vecEnd, missile, pEntity->edict(), ptr ); 

	mov	eax, DWORD PTR _ptr$[ebp]
	push	eax
	mov	ecx, DWORD PTR _pEntity$[ebp]
	call	?edict@CBaseEntity@@QAEPAUedict_s@@XZ	; CBaseEntity::edict
	push	eax
	push	2
	mov	ecx, DWORD PTR _vecEnd$[ebp]
	call	??BVector@@QBEPBMXZ			; Vector::operator float const *
	push	eax
	mov	ecx, DWORD PTR _vecStart$[ebp]
	call	??BVector@@QBEPBMXZ			; Vector::operator float const *
	push	eax
	mov	ecx, DWORD PTR _pEntity$[ebp]
	call	?edict@CBaseEntity@@QAEPAUedict_s@@XZ	; CBaseEntity::edict
	push	eax
	call	DWORD PTR ?g_engfuncs@@3Uenginefuncs_s@@A+132
	add	esp, 24					; 00000018H
	jmp	$LN3@UTIL_Trace
$LN4@UTIL_Trace:

; 1419 : 	else if( pEntity->pev->solid == SOLID_TRIGGER || pEntity->pev->solid == SOLID_NOT ) // only clip against bmodels

	mov	eax, DWORD PTR _pEntity$[ebp]
	mov	ecx, DWORD PTR [eax+4]
	cmp	DWORD PTR [ecx+268], 1
	je	SHORT $LN8@UTIL_Trace
	mov	eax, DWORD PTR _pEntity$[ebp]
	mov	ecx, DWORD PTR [eax+4]
	cmp	DWORD PTR [ecx+268], 0
	jne	SHORT $LN6@UTIL_Trace
$LN8@UTIL_Trace:

; 1420 : 		TRACE_MONSTER_HULL( pEntity->edict(), vecStart, vecEnd, ignore_monsters, pEntity->edict(), ptr ); 

	mov	eax, DWORD PTR _ptr$[ebp]
	push	eax
	mov	ecx, DWORD PTR _pEntity$[ebp]
	call	?edict@CBaseEntity@@QAEPAUedict_s@@XZ	; CBaseEntity::edict
	push	eax
	push	1
	mov	ecx, DWORD PTR _vecEnd$[ebp]
	call	??BVector@@QBEPBMXZ			; Vector::operator float const *
	push	eax
	mov	ecx, DWORD PTR _vecStart$[ebp]
	call	??BVector@@QBEPBMXZ			; Vector::operator float const *
	push	eax
	mov	ecx, DWORD PTR _pEntity$[ebp]
	call	?edict@CBaseEntity@@QAEPAUedict_s@@XZ	; CBaseEntity::edict
	push	eax
	call	DWORD PTR ?g_engfuncs@@3Uenginefuncs_s@@A+132
	add	esp, 24					; 00000018H
	jmp	SHORT $LN3@UTIL_Trace
$LN6@UTIL_Trace:

; 1421 : 	else TRACE_MONSTER_HULL( pEntity->edict(), vecStart, vecEnd, dont_ignore_monsters, pEntity->edict(), ptr );

	mov	eax, DWORD PTR _ptr$[ebp]
	push	eax
	mov	ecx, DWORD PTR _pEntity$[ebp]
	call	?edict@CBaseEntity@@QAEPAUedict_s@@XZ	; CBaseEntity::edict
	push	eax
	push	0
	mov	ecx, DWORD PTR _vecEnd$[ebp]
	call	??BVector@@QBEPBMXZ			; Vector::operator float const *
	push	eax
	mov	ecx, DWORD PTR _vecStart$[ebp]
	call	??BVector@@QBEPBMXZ			; Vector::operator float const *
	push	eax
	mov	ecx, DWORD PTR _pEntity$[ebp]
	call	?edict@CBaseEntity@@QAEPAUedict_s@@XZ	; CBaseEntity::edict
	push	eax
	call	DWORD PTR ?g_engfuncs@@3Uenginefuncs_s@@A+132
	add	esp, 24					; 00000018H
$LN3@UTIL_Trace:

; 1422 : 
; 1423 : 	pEntity->m_iParentFilter = FALSE;

	mov	eax, DWORD PTR _pEntity$[ebp]
	mov	DWORD PTR [eax+40], 0

; 1424 : }

	pop	edi
	pop	esi
	pop	ebx
	mov	esp, ebp
	pop	ebp
	ret	0
?UTIL_TraceEntity@@YAXPAVCBaseEntity@@ABVVector@@1PAUgametrace_s@@@Z ENDP ; UTIL_TraceEntity
_TEXT	ENDS
; Function compile flags: /Odtp /ZI
; File d:\!diffusion 2020\source code 2022\client-server\server\util.cpp
;	COMDAT ?UTIL_TraceModel@@YAXABVVector@@0HPAUedict_s@@PAUgametrace_s@@@Z
_TEXT	SEGMENT
_vecStart$ = 8						; size = 4
_vecEnd$ = 12						; size = 4
_hullNumber$ = 16					; size = 4
_pentModel$ = 20					; size = 4
_ptr$ = 24						; size = 4
?UTIL_TraceModel@@YAXABVVector@@0HPAUedict_s@@PAUgametrace_s@@@Z PROC ; UTIL_TraceModel, COMDAT

; 1405 : {

	push	ebp
	mov	ebp, esp
	sub	esp, 64					; 00000040H
	push	ebx
	push	esi
	push	edi

; 1406 : 	g_engfuncs.pfnTraceModel( vecStart, vecEnd, hullNumber, pentModel, ptr );

	mov	eax, DWORD PTR _ptr$[ebp]
	push	eax
	mov	ecx, DWORD PTR _pentModel$[ebp]
	push	ecx
	mov	edx, DWORD PTR _hullNumber$[ebp]
	push	edx
	mov	ecx, DWORD PTR _vecEnd$[ebp]
	call	??BVector@@QBEPBMXZ			; Vector::operator float const *
	push	eax
	mov	ecx, DWORD PTR _vecStart$[ebp]
	call	??BVector@@QBEPBMXZ			; Vector::operator float const *
	push	eax
	call	DWORD PTR ?g_engfuncs@@3Uenginefuncs_s@@A+140
	add	esp, 20					; 00000014H

; 1407 : }

	pop	edi
	pop	esi
	pop	ebx
	mov	esp, ebp
	pop	ebp
	ret	0
?UTIL_TraceModel@@YAXABVVector@@0HPAUedict_s@@PAUgametrace_s@@@Z ENDP ; UTIL_TraceModel
_TEXT	ENDS
; Function compile flags: /Odtp /ZI
; File d:\!diffusion 2020\source code 2022\client-server\server\util.cpp
;	COMDAT ?UTIL_CopyTraceToGlobal@@YAXPAUgametrace_s@@@Z
_TEXT	SEGMENT
_trace$ = 8						; size = 4
?UTIL_CopyTraceToGlobal@@YAXPAUgametrace_s@@@Z PROC	; UTIL_CopyTraceToGlobal, COMDAT

; 1451 : {

	push	ebp
	mov	ebp, esp
	sub	esp, 64					; 00000040H
	push	ebx
	push	esi
	push	edi

; 1452 : 	gpGlobals->trace_allsolid = trace->fAllSolid;

	mov	eax, DWORD PTR _trace$[ebp]
	cvtsi2ss xmm0, DWORD PTR [eax]
	mov	ecx, DWORD PTR ?gpGlobals@@3PAUglobalvars_t@@A ; gpGlobals
	movss	DWORD PTR [ecx+76], xmm0

; 1453 : 	gpGlobals->trace_startsolid = trace->fStartSolid;

	mov	eax, DWORD PTR _trace$[ebp]
	cvtsi2ss xmm0, DWORD PTR [eax+4]
	mov	ecx, DWORD PTR ?gpGlobals@@3PAUglobalvars_t@@A ; gpGlobals
	movss	DWORD PTR [ecx+80], xmm0

; 1454 : 	gpGlobals->trace_fraction = trace->flFraction;

	mov	eax, DWORD PTR ?gpGlobals@@3PAUglobalvars_t@@A ; gpGlobals
	mov	ecx, DWORD PTR _trace$[ebp]
	mov	edx, DWORD PTR [ecx+16]
	mov	DWORD PTR [eax+84], edx

; 1455 : 	gpGlobals->trace_plane_dist = trace->flPlaneDist;

	mov	eax, DWORD PTR ?gpGlobals@@3PAUglobalvars_t@@A ; gpGlobals
	mov	ecx, DWORD PTR _trace$[ebp]
	mov	edx, DWORD PTR [ecx+32]
	mov	DWORD PTR [eax+112], edx

; 1456 : 	gpGlobals->trace_inopen = trace->fInOpen;

	mov	eax, DWORD PTR _trace$[ebp]
	cvtsi2ss xmm0, DWORD PTR [eax+8]
	mov	ecx, DWORD PTR ?gpGlobals@@3PAUglobalvars_t@@A ; gpGlobals
	movss	DWORD PTR [ecx+120], xmm0

; 1457 : 	gpGlobals->trace_inwater = trace->fInWater;

	mov	eax, DWORD PTR _trace$[ebp]
	cvtsi2ss xmm0, DWORD PTR [eax+12]
	mov	ecx, DWORD PTR ?gpGlobals@@3PAUglobalvars_t@@A ; gpGlobals
	movss	DWORD PTR [ecx+124], xmm0

; 1458 : 	gpGlobals->trace_endpos = trace->vecEndPos;

	mov	eax, DWORD PTR _trace$[ebp]
	add	eax, 20					; 00000014H
	mov	ecx, DWORD PTR ?gpGlobals@@3PAUglobalvars_t@@A ; gpGlobals
	add	ecx, 88					; 00000058H
	mov	edx, DWORD PTR [eax]
	mov	DWORD PTR [ecx], edx
	mov	edx, DWORD PTR [eax+4]
	mov	DWORD PTR [ecx+4], edx
	mov	eax, DWORD PTR [eax+8]
	mov	DWORD PTR [ecx+8], eax

; 1459 : 	gpGlobals->trace_plane_normal = trace->vecPlaneNormal;

	mov	eax, DWORD PTR _trace$[ebp]
	add	eax, 36					; 00000024H
	mov	ecx, DWORD PTR ?gpGlobals@@3PAUglobalvars_t@@A ; gpGlobals
	add	ecx, 100				; 00000064H
	mov	edx, DWORD PTR [eax]
	mov	DWORD PTR [ecx], edx
	mov	edx, DWORD PTR [eax+4]
	mov	DWORD PTR [ecx+4], edx
	mov	eax, DWORD PTR [eax+8]
	mov	DWORD PTR [ecx+8], eax

; 1460 : 	gpGlobals->trace_hitgroup = trace->iHitgroup;

	mov	eax, DWORD PTR ?gpGlobals@@3PAUglobalvars_t@@A ; gpGlobals
	mov	ecx, DWORD PTR _trace$[ebp]
	mov	edx, DWORD PTR [ecx+52]
	mov	DWORD PTR [eax+128], edx

; 1461 : 	gpGlobals->trace_flags = 0;	// clear trace flags

	mov	eax, DWORD PTR ?gpGlobals@@3PAUglobalvars_t@@A ; gpGlobals
	mov	DWORD PTR [eax+132], 0

; 1462 : 
; 1463 : 	if( !FNullEnt( trace->pHit ))

	mov	eax, DWORD PTR _trace$[ebp]
	mov	ecx, DWORD PTR [eax+48]
	push	ecx
	call	?FNullEnt@@YAHPBUedict_s@@@Z		; FNullEnt
	add	esp, 4
	test	eax, eax
	jne	SHORT $LN2@UTIL_CopyT

; 1464 : 		gpGlobals->trace_ent = trace->pHit;

	mov	eax, DWORD PTR ?gpGlobals@@3PAUglobalvars_t@@A ; gpGlobals
	mov	ecx, DWORD PTR _trace$[ebp]
	mov	edx, DWORD PTR [ecx+48]
	mov	DWORD PTR [eax+116], edx
	jmp	SHORT $LN3@UTIL_CopyT
$LN2@UTIL_CopyT:

; 1465 : 	else gpGlobals->trace_ent = ENT(0); // world

	push	0
	call	?ENT@@YAPAUedict_s@@H@Z			; ENT
	add	esp, 4
	mov	ecx, DWORD PTR ?gpGlobals@@3PAUglobalvars_t@@A ; gpGlobals
	mov	DWORD PTR [ecx+116], eax
$LN3@UTIL_CopyT:

; 1466 : }

	pop	edi
	pop	esi
	pop	ebx
	mov	esp, ebp
	pop	ebp
	ret	0
?UTIL_CopyTraceToGlobal@@YAXPAUgametrace_s@@@Z ENDP	; UTIL_CopyTraceToGlobal
_TEXT	ENDS
; Function compile flags: /Odtp /ZI
; File d:\!diffusion 2020\source code 2022\client-server\server\util.cpp
;	COMDAT ?UTIL_GetGlobalTrace@@YA?AUgametrace_s@@XZ
_TEXT	SEGMENT
$T1 = -176						; size = 56
_tr$ = -56						; size = 56
$T2 = 8							; size = 4
?UTIL_GetGlobalTrace@@YA?AUgametrace_s@@XZ PROC		; UTIL_GetGlobalTrace, COMDAT

; 1427 : {

	push	ebp
	mov	ebp, esp
	sub	esp, 176				; 000000b0H
	push	ebx
	push	esi
	push	edi

; 1428 : 	TraceResult tr;

	lea	ecx, DWORD PTR _tr$[ebp]
	call	??0gametrace_s@@QAE@XZ

; 1429 : 
; 1430 : 	tr.fAllSolid		= gpGlobals->trace_allsolid;

	mov	eax, DWORD PTR ?gpGlobals@@3PAUglobalvars_t@@A ; gpGlobals
	cvttss2si ecx, DWORD PTR [eax+76]
	mov	DWORD PTR _tr$[ebp], ecx

; 1431 : 	tr.fStartSolid		= gpGlobals->trace_startsolid;

	mov	eax, DWORD PTR ?gpGlobals@@3PAUglobalvars_t@@A ; gpGlobals
	cvttss2si ecx, DWORD PTR [eax+80]
	mov	DWORD PTR _tr$[ebp+4], ecx

; 1432 : 	tr.fInOpen			= gpGlobals->trace_inopen;

	mov	eax, DWORD PTR ?gpGlobals@@3PAUglobalvars_t@@A ; gpGlobals
	cvttss2si ecx, DWORD PTR [eax+120]
	mov	DWORD PTR _tr$[ebp+8], ecx

; 1433 : 	tr.fInWater			= gpGlobals->trace_inwater;

	mov	eax, DWORD PTR ?gpGlobals@@3PAUglobalvars_t@@A ; gpGlobals
	cvttss2si ecx, DWORD PTR [eax+124]
	mov	DWORD PTR _tr$[ebp+12], ecx

; 1434 : 	tr.flFraction		= gpGlobals->trace_fraction;

	mov	eax, DWORD PTR ?gpGlobals@@3PAUglobalvars_t@@A ; gpGlobals
	movss	xmm0, DWORD PTR [eax+84]
	movss	DWORD PTR _tr$[ebp+16], xmm0

; 1435 : 	tr.flPlaneDist		= gpGlobals->trace_plane_dist;

	mov	eax, DWORD PTR ?gpGlobals@@3PAUglobalvars_t@@A ; gpGlobals
	movss	xmm0, DWORD PTR [eax+112]
	movss	DWORD PTR _tr$[ebp+32], xmm0

; 1436 : 	tr.pHit			= gpGlobals->trace_ent;

	mov	eax, DWORD PTR ?gpGlobals@@3PAUglobalvars_t@@A ; gpGlobals
	mov	ecx, DWORD PTR [eax+116]
	mov	DWORD PTR _tr$[ebp+48], ecx

; 1437 : 	tr.vecEndPos		= gpGlobals->trace_endpos;

	mov	eax, DWORD PTR ?gpGlobals@@3PAUglobalvars_t@@A ; gpGlobals
	add	eax, 88					; 00000058H
	mov	ecx, DWORD PTR [eax]
	mov	DWORD PTR _tr$[ebp+20], ecx
	mov	edx, DWORD PTR [eax+4]
	mov	DWORD PTR _tr$[ebp+24], edx
	mov	eax, DWORD PTR [eax+8]
	mov	DWORD PTR _tr$[ebp+28], eax

; 1438 : 	tr.vecPlaneNormal	= gpGlobals->trace_plane_normal;

	mov	eax, DWORD PTR ?gpGlobals@@3PAUglobalvars_t@@A ; gpGlobals
	add	eax, 100				; 00000064H
	mov	ecx, DWORD PTR [eax]
	mov	DWORD PTR _tr$[ebp+36], ecx
	mov	edx, DWORD PTR [eax+4]
	mov	DWORD PTR _tr$[ebp+40], edx
	mov	eax, DWORD PTR [eax+8]
	mov	DWORD PTR _tr$[ebp+44], eax

; 1439 : 	tr.iHitgroup		= gpGlobals->trace_hitgroup;

	mov	eax, DWORD PTR ?gpGlobals@@3PAUglobalvars_t@@A ; gpGlobals
	mov	ecx, DWORD PTR [eax+128]
	mov	DWORD PTR _tr$[ebp+52], ecx

; 1440 : 	return tr;

	lea	eax, DWORD PTR _tr$[ebp]
	push	eax
	lea	ecx, DWORD PTR $T1[ebp]
	call	??0gametrace_s@@QAE@$$QAU0@@Z
	mov	ecx, 14					; 0000000eH
	mov	esi, eax
	mov	edi, DWORD PTR $T2[ebp]
	rep movsd
	mov	eax, DWORD PTR $T2[ebp]

; 1441 : }

	pop	edi
	pop	esi
	pop	ebx
	mov	esp, ebp
	pop	ebp
	ret	0
?UTIL_GetGlobalTrace@@YA?AUgametrace_s@@XZ ENDP		; UTIL_GetGlobalTrace
_TEXT	ENDS
; Function compile flags: /Odtp /ZI
; File d:\!diffusion 2020\source code 2022\client-server\server\util.cpp
;	COMDAT ?UTIL_TraceHull@@YAXABVVector@@0W4IGNORE_MONSTERS@@HPAUedict_s@@PAUgametrace_s@@@Z
_TEXT	SEGMENT
tv68 = -68						; size = 4
_vecStart$ = 8						; size = 4
_vecEnd$ = 12						; size = 4
_igmon$ = 16						; size = 4
_hullNumber$ = 20					; size = 4
_pentIgnore$ = 24					; size = 4
_ptr$ = 28						; size = 4
?UTIL_TraceHull@@YAXABVVector@@0W4IGNORE_MONSTERS@@HPAUedict_s@@PAUgametrace_s@@@Z PROC ; UTIL_TraceHull, COMDAT

; 1400 : {

	push	ebp
	mov	ebp, esp
	sub	esp, 68					; 00000044H
	push	ebx
	push	esi
	push	edi

; 1401 : 	TRACE_HULL( vecStart, vecEnd, (igmon == ignore_monsters ? TRUE : FALSE), hullNumber, pentIgnore, ptr );

	cmp	DWORD PTR _igmon$[ebp], 1
	jne	SHORT $LN3@UTIL_Trace
	mov	DWORD PTR tv68[ebp], 1
	jmp	SHORT $LN4@UTIL_Trace
$LN3@UTIL_Trace:
	mov	DWORD PTR tv68[ebp], 0
$LN4@UTIL_Trace:
	mov	eax, DWORD PTR _ptr$[ebp]
	push	eax
	mov	ecx, DWORD PTR _pentIgnore$[ebp]
	push	ecx
	mov	edx, DWORD PTR _hullNumber$[ebp]
	push	edx
	mov	eax, DWORD PTR tv68[ebp]
	push	eax
	mov	ecx, DWORD PTR _vecEnd$[ebp]
	call	??BVector@@QBEPBMXZ			; Vector::operator float const *
	push	eax
	mov	ecx, DWORD PTR _vecStart$[ebp]
	call	??BVector@@QBEPBMXZ			; Vector::operator float const *
	push	eax
	call	DWORD PTR ?g_engfuncs@@3Uenginefuncs_s@@A+136
	add	esp, 24					; 00000018H

; 1402 : }

	pop	edi
	pop	esi
	pop	ebx
	mov	esp, ebp
	pop	ebp
	ret	0
?UTIL_TraceHull@@YAXABVVector@@0W4IGNORE_MONSTERS@@HPAUedict_s@@PAUgametrace_s@@@Z ENDP ; UTIL_TraceHull
_TEXT	ENDS
; Function compile flags: /Odtp /ZI
; File d:\!diffusion 2020\source code 2022\client-server\server\util.cpp
;	COMDAT ?UTIL_TraceLine@@YAXABVVector@@0W4IGNORE_MONSTERS@@W4IGNORE_GLASS@@PAUedict_s@@PAUgametrace_s@@@Z
_TEXT	SEGMENT
tv69 = -72						; size = 4
tv67 = -68						; size = 4
_vecStart$ = 8						; size = 4
_vecEnd$ = 12						; size = 4
_igmon$ = 16						; size = 4
_ignoreGlass$ = 20					; size = 4
_pentIgnore$ = 24					; size = 4
_ptr$ = 28						; size = 4
?UTIL_TraceLine@@YAXABVVector@@0W4IGNORE_MONSTERS@@W4IGNORE_GLASS@@PAUedict_s@@PAUgametrace_s@@@Z PROC ; UTIL_TraceLine, COMDAT

; 1388 : {

	push	ebp
	mov	ebp, esp
	sub	esp, 72					; 00000048H
	push	ebx
	push	esi
	push	edi

; 1389 : 	TRACE_LINE( vecStart, vecEnd, (igmon == ignore_monsters ? TRUE : FALSE) | (ignoreGlass?0x100:0), pentIgnore, ptr );

	cmp	DWORD PTR _igmon$[ebp], 1
	jne	SHORT $LN3@UTIL_Trace
	mov	DWORD PTR tv67[ebp], 1
	jmp	SHORT $LN4@UTIL_Trace
$LN3@UTIL_Trace:
	mov	DWORD PTR tv67[ebp], 0
$LN4@UTIL_Trace:
	cmp	DWORD PTR _ignoreGlass$[ebp], 0
	je	SHORT $LN5@UTIL_Trace
	mov	DWORD PTR tv69[ebp], 256		; 00000100H
	jmp	SHORT $LN6@UTIL_Trace
$LN5@UTIL_Trace:
	mov	DWORD PTR tv69[ebp], 0
$LN6@UTIL_Trace:
	mov	eax, DWORD PTR _ptr$[ebp]
	push	eax
	mov	ecx, DWORD PTR _pentIgnore$[ebp]
	push	ecx
	mov	edx, DWORD PTR tv67[ebp]
	or	edx, DWORD PTR tv69[ebp]
	push	edx
	mov	ecx, DWORD PTR _vecEnd$[ebp]
	call	??BVector@@QBEPBMXZ			; Vector::operator float const *
	push	eax
	mov	ecx, DWORD PTR _vecStart$[ebp]
	call	??BVector@@QBEPBMXZ			; Vector::operator float const *
	push	eax
	call	DWORD PTR ?g_engfuncs@@3Uenginefuncs_s@@A+124
	add	esp, 20					; 00000014H

; 1390 : }

	pop	edi
	pop	esi
	pop	ebx
	mov	esp, ebp
	pop	ebp
	ret	0
?UTIL_TraceLine@@YAXABVVector@@0W4IGNORE_MONSTERS@@W4IGNORE_GLASS@@PAUedict_s@@PAUgametrace_s@@@Z ENDP ; UTIL_TraceLine
_TEXT	ENDS
; Function compile flags: /Odtp /ZI
; File d:\!diffusion 2020\source code 2022\client-server\server\util.cpp
;	COMDAT ?UTIL_TraceLine@@YAXABVVector@@0W4IGNORE_MONSTERS@@PAUedict_s@@PAUgametrace_s@@@Z
_TEXT	SEGMENT
tv67 = -68						; size = 4
_vecStart$ = 8						; size = 4
_vecEnd$ = 12						; size = 4
_igmon$ = 16						; size = 4
_pentIgnore$ = 20					; size = 4
_ptr$ = 24						; size = 4
?UTIL_TraceLine@@YAXABVVector@@0W4IGNORE_MONSTERS@@PAUedict_s@@PAUgametrace_s@@@Z PROC ; UTIL_TraceLine, COMDAT

; 1394 : {

	push	ebp
	mov	ebp, esp
	sub	esp, 68					; 00000044H
	push	ebx
	push	esi
	push	edi

; 1395 : 	TRACE_LINE( vecStart, vecEnd, (igmon == ignore_monsters ? TRUE : FALSE), pentIgnore, ptr );

	cmp	DWORD PTR _igmon$[ebp], 1
	jne	SHORT $LN3@UTIL_Trace
	mov	DWORD PTR tv67[ebp], 1
	jmp	SHORT $LN4@UTIL_Trace
$LN3@UTIL_Trace:
	mov	DWORD PTR tv67[ebp], 0
$LN4@UTIL_Trace:
	mov	eax, DWORD PTR _ptr$[ebp]
	push	eax
	mov	ecx, DWORD PTR _pentIgnore$[ebp]
	push	ecx
	mov	edx, DWORD PTR tv67[ebp]
	push	edx
	mov	ecx, DWORD PTR _vecEnd$[ebp]
	call	??BVector@@QBEPBMXZ			; Vector::operator float const *
	push	eax
	mov	ecx, DWORD PTR _vecStart$[ebp]
	call	??BVector@@QBEPBMXZ			; Vector::operator float const *
	push	eax
	call	DWORD PTR ?g_engfuncs@@3Uenginefuncs_s@@A+124
	add	esp, 20					; 00000014H

; 1396 : }

	pop	edi
	pop	esi
	pop	ebx
	mov	esp, ebp
	pop	ebp
	ret	0
?UTIL_TraceLine@@YAXABVVector@@0W4IGNORE_MONSTERS@@PAUedict_s@@PAUgametrace_s@@@Z ENDP ; UTIL_TraceLine
_TEXT	ENDS
; Function compile flags: /Odtp /ZI
; File d:\!diffusion 2020\source code 2022\client-server\server\util.cpp
;	COMDAT ?UTIL_FireTargets@@YAXHPAVCBaseEntity@@0W4USE_TYPE@@M@Z
_TEXT	SEGMENT
_targetName$ = 8					; size = 4
_pActivator$ = 12					; size = 4
_pCaller$ = 16						; size = 4
_useType$ = 20						; size = 4
_value$ = 24						; size = 4
?UTIL_FireTargets@@YAXHPAVCBaseEntity@@0W4USE_TYPE@@M@Z PROC ; UTIL_FireTargets, COMDAT

; 1718 : {

	push	ebp
	mov	ebp, esp
	sub	esp, 64					; 00000040H
	push	ebx
	push	esi
	push	edi

; 1719 : 	if( targetName != NULL_STRING )

	cmp	DWORD PTR _targetName$[ebp], 0
	je	SHORT $LN2@UTIL_FireT

; 1720 : 		UTIL_FireTargets( STRING( targetName ), pActivator, pCaller, useType, value );	

	push	ecx
	movss	xmm0, DWORD PTR _value$[ebp]
	movss	DWORD PTR [esp], xmm0
	mov	eax, DWORD PTR _useType$[ebp]
	push	eax
	mov	ecx, DWORD PTR _pCaller$[ebp]
	push	ecx
	mov	edx, DWORD PTR _pActivator$[ebp]
	push	edx
	mov	eax, DWORD PTR _targetName$[ebp]
	push	eax
	call	DWORD PTR ?g_engfuncs@@3Uenginefuncs_s@@A+264
	add	esp, 4
	push	eax
	call	?UTIL_FireTargets@@YAXPBDPAVCBaseEntity@@1W4USE_TYPE@@M@Z ; UTIL_FireTargets
	add	esp, 20					; 00000014H
$LN2@UTIL_FireT:

; 1721 : }

	pop	edi
	pop	esi
	pop	ebx
	mov	esp, ebp
	pop	ebp
	ret	0
?UTIL_FireTargets@@YAXHPAVCBaseEntity@@0W4USE_TYPE@@M@Z ENDP ; UTIL_FireTargets
_TEXT	ENDS
; Function compile flags: /Odtp /ZI
; File d:\!diffusion 2020\source code 2022\client-server\server\util.cpp
;	COMDAT ?UTIL_FireTargets@@YAXPBDPAVCBaseEntity@@1W4USE_TYPE@@M@Z
_TEXT	SEGMENT
$T1 = -224						; size = 4
_szBuf$ = -156						; size = 128
_found$ = -28						; size = 4
_j$ = -24						; size = 4
_i$ = -20						; size = 4
_pTarget$ = -16						; size = 4
_inputActivator$ = -12					; size = 4
_inputTargetName$ = -8					; size = 4
__$ArrayPad$ = -4					; size = 4
_targetName$ = 8					; size = 4
_pActivator$ = 12					; size = 4
_pCaller$ = 16						; size = 4
_useType$ = 20						; size = 4
_value$ = 24						; size = 4
?UTIL_FireTargets@@YAXPBDPAVCBaseEntity@@1W4USE_TYPE@@M@Z PROC ; UTIL_FireTargets, COMDAT

; 1724 : {

	push	ebp
	mov	ebp, esp
	sub	esp, 224				; 000000e0H
	mov	eax, DWORD PTR ___security_cookie
	xor	eax, ebp
	mov	DWORD PTR __$ArrayPad$[ebp], eax
	push	ebx
	push	esi
	push	edi

; 1725 : 	const char *inputTargetName = targetName;

	mov	eax, DWORD PTR _targetName$[ebp]
	mov	DWORD PTR _inputTargetName$[ebp], eax

; 1726 : 	CBaseEntity *inputActivator = pActivator;

	mov	eax, DWORD PTR _pActivator$[ebp]
	mov	DWORD PTR _inputActivator$[ebp], eax

; 1727 : 	CBaseEntity *pTarget = NULL;

	mov	DWORD PTR _pTarget$[ebp], 0

; 1728 : 	int i, j, found = false;

	mov	DWORD PTR _found$[ebp], 0

; 1729 : 	char szBuf[128];
; 1730 : 
; 1731 : 	if( !targetName || !*targetName )

	cmp	DWORD PTR _targetName$[ebp], 0
	je	SHORT $LN15@UTIL_FireT
	mov	eax, DWORD PTR _targetName$[ebp]
	movsx	ecx, BYTE PTR [eax]
	test	ecx, ecx
	jne	SHORT $LN14@UTIL_FireT
$LN15@UTIL_FireT:

; 1732 : 		return;

	jmp	$LN1@UTIL_FireT
$LN14@UTIL_FireT:

; 1733 : 	
; 1734 : 	if( targetName[0] == '+' )

	mov	eax, 1
	imul	ecx, eax, 0
	mov	edx, DWORD PTR _targetName$[ebp]
	movsx	eax, BYTE PTR [edx+ecx]
	cmp	eax, 43					; 0000002bH
	jne	SHORT $LN16@UTIL_FireT

; 1735 : 	{
; 1736 : 		targetName++;

	mov	eax, DWORD PTR _targetName$[ebp]
	add	eax, 1
	mov	DWORD PTR _targetName$[ebp], eax

; 1737 : 		useType = USE_ON;

	mov	DWORD PTR _useType$[ebp], 1
	jmp	$LN24@UTIL_FireT
$LN16@UTIL_FireT:

; 1738 : 	}
; 1739 : 	else if( targetName[0] == '-' )

	mov	eax, 1
	imul	ecx, eax, 0
	mov	edx, DWORD PTR _targetName$[ebp]
	movsx	eax, BYTE PTR [edx+ecx]
	cmp	eax, 45					; 0000002dH
	jne	SHORT $LN18@UTIL_FireT

; 1740 : 	{
; 1741 : 		targetName++;

	mov	eax, DWORD PTR _targetName$[ebp]
	add	eax, 1
	mov	DWORD PTR _targetName$[ebp], eax

; 1742 : 		useType = USE_OFF;

	mov	DWORD PTR _useType$[ebp], 0
	jmp	SHORT $LN24@UTIL_FireT
$LN18@UTIL_FireT:

; 1743 : 	}
; 1744 :  	else if( targetName[0] == '<' )

	mov	eax, 1
	imul	ecx, eax, 0
	mov	edx, DWORD PTR _targetName$[ebp]
	movsx	eax, BYTE PTR [edx+ecx]
	cmp	eax, 60					; 0000003cH
	jne	SHORT $LN20@UTIL_FireT

; 1745 : 	{
; 1746 : 		targetName++;

	mov	eax, DWORD PTR _targetName$[ebp]
	add	eax, 1
	mov	DWORD PTR _targetName$[ebp], eax

; 1747 : 		useType = USE_SET;

	mov	DWORD PTR _useType$[ebp], 2
	jmp	SHORT $LN24@UTIL_FireT
$LN20@UTIL_FireT:

; 1748 : 	}
; 1749 : 	else if( targetName[0] == '>' )

	mov	eax, 1
	imul	ecx, eax, 0
	mov	edx, DWORD PTR _targetName$[ebp]
	movsx	eax, BYTE PTR [edx+ecx]
	cmp	eax, 62					; 0000003eH
	jne	SHORT $LN22@UTIL_FireT

; 1750 : 	{
; 1751 : 		targetName++;

	mov	eax, DWORD PTR _targetName$[ebp]
	add	eax, 1
	mov	DWORD PTR _targetName$[ebp], eax

; 1752 : 		useType = USE_RESET;

	mov	DWORD PTR _useType$[ebp], 4
	jmp	SHORT $LN24@UTIL_FireT
$LN22@UTIL_FireT:

; 1753 : 	}	
; 1754 : 	else if( targetName[0] == '!' )

	mov	eax, 1
	imul	ecx, eax, 0
	mov	edx, DWORD PTR _targetName$[ebp]
	movsx	eax, BYTE PTR [edx+ecx]
	cmp	eax, 33					; 00000021H
	jne	SHORT $LN24@UTIL_FireT

; 1755 : 	{
; 1756 : 		targetName++;

	mov	eax, DWORD PTR _targetName$[ebp]
	add	eax, 1
	mov	DWORD PTR _targetName$[ebp], eax

; 1757 : 		useType = USE_REMOVE;

	mov	DWORD PTR _useType$[ebp], 5
$LN24@UTIL_FireT:

; 1758 : 	}
; 1759 : 
; 1760 : 	pTarget = UTIL_FindEntityByTargetname( pTarget, targetName, pActivator );

	mov	eax, DWORD PTR _pActivator$[ebp]
	push	eax
	mov	ecx, DWORD PTR _targetName$[ebp]
	push	ecx
	mov	edx, DWORD PTR _pTarget$[ebp]
	push	edx
	call	?UTIL_FindEntityByTargetname@@YAPAVCBaseEntity@@PAV1@PBD0@Z ; UTIL_FindEntityByTargetname
	add	esp, 12					; 0000000cH
	mov	DWORD PTR _pTarget$[ebp], eax

; 1761 : 
; 1762 : 	// smart field name?
; 1763 : 	if( !pTarget )

	cmp	DWORD PTR _pTarget$[ebp], 0
	jne	$LN33@UTIL_FireT

; 1764 : 	{
; 1765 : 		// try to extract value from name (it's more usefully than "locus" specifier)
; 1766 : 		for( i = 0; targetName[i]; i++ )

	mov	DWORD PTR _i$[ebp], 0
	jmp	SHORT $LN4@UTIL_FireT
$LN2@UTIL_FireT:
	mov	eax, DWORD PTR _i$[ebp]
	add	eax, 1
	mov	DWORD PTR _i$[ebp], eax
$LN4@UTIL_FireT:
	mov	eax, DWORD PTR _targetName$[ebp]
	add	eax, DWORD PTR _i$[ebp]
	movsx	ecx, BYTE PTR [eax]
	test	ecx, ecx
	je	$LN3@UTIL_FireT

; 1767 : 		{
; 1768 : 			if( targetName[i] == '.' )

	mov	eax, DWORD PTR _targetName$[ebp]
	add	eax, DWORD PTR _i$[ebp]
	movsx	ecx, BYTE PTR [eax]
	cmp	ecx, 46					; 0000002eH
	jne	SHORT $LN26@UTIL_FireT

; 1769 : 			{
; 1770 : 				// value specifier
; 1771 : 				value = Q_atof( &targetName[i+1] );

	mov	eax, DWORD PTR _i$[ebp]
	mov	ecx, DWORD PTR _targetName$[ebp]
	lea	edx, DWORD PTR [ecx+eax+1]
	push	edx
	call	?Q_atof@@YAMPBD@Z			; Q_atof
	add	esp, 4
	fstp	DWORD PTR _value$[ebp]

; 1772 : 				Q_strncpy( szBuf, targetName, sizeof( szBuf ));

	push	128					; 00000080H
	mov	eax, DWORD PTR _targetName$[ebp]
	push	eax
	lea	ecx, DWORD PTR _szBuf$[ebp]
	push	ecx
	call	?Q_strncpy@@YAIPADPBDI@Z		; Q_strncpy
	add	esp, 12					; 0000000cH

; 1773 : 				szBuf[i] = 0;

	mov	eax, DWORD PTR _i$[ebp]
	mov	DWORD PTR $T1[ebp], eax
	cmp	DWORD PTR $T1[ebp], 128			; 00000080H
	jae	SHORT $LN38@UTIL_FireT
	jmp	SHORT $LN39@UTIL_FireT
$LN38@UTIL_FireT:
	call	___report_rangecheckfailure
$LN39@UTIL_FireT:
	mov	ecx, DWORD PTR $T1[ebp]
	mov	BYTE PTR _szBuf$[ebp+ecx], 0

; 1774 : 				targetName = szBuf;

	lea	eax, DWORD PTR _szBuf$[ebp]
	mov	DWORD PTR _targetName$[ebp], eax

; 1775 : 				pTarget = UTIL_FindEntityByTargetname( NULL, targetName, inputActivator );						

	mov	eax, DWORD PTR _inputActivator$[ebp]
	push	eax
	mov	ecx, DWORD PTR _targetName$[ebp]
	push	ecx
	push	0
	call	?UTIL_FindEntityByTargetname@@YAPAVCBaseEntity@@PAV1@PBD0@Z ; UTIL_FindEntityByTargetname
	add	esp, 12					; 0000000cH
	mov	DWORD PTR _pTarget$[ebp], eax

; 1776 : 				break;

	jmp	SHORT $LN3@UTIL_FireT
$LN26@UTIL_FireT:

; 1777 : 			}
; 1778 : 		}

	jmp	$LN2@UTIL_FireT
$LN3@UTIL_FireT:

; 1779 : 
; 1780 : 		// try to extract activator specified
; 1781 : 		if( !pTarget )

	cmp	DWORD PTR _pTarget$[ebp], 0
	jne	$LN33@UTIL_FireT

; 1782 : 		{
; 1783 : 			for( i = 0; targetName[i]; i++ )

	mov	DWORD PTR _i$[ebp], 0
	jmp	SHORT $LN7@UTIL_FireT
$LN5@UTIL_FireT:
	mov	eax, DWORD PTR _i$[ebp]
	add	eax, 1
	mov	DWORD PTR _i$[ebp], eax
$LN7@UTIL_FireT:
	mov	eax, DWORD PTR _targetName$[ebp]
	add	eax, DWORD PTR _i$[ebp]
	movsx	ecx, BYTE PTR [eax]
	test	ecx, ecx
	je	$LN6@UTIL_FireT

; 1784 : 			{
; 1785 : 				if( targetName[i] == '(' )

	mov	eax, DWORD PTR _targetName$[ebp]
	add	eax, DWORD PTR _i$[ebp]
	movsx	ecx, BYTE PTR [eax]
	cmp	ecx, 40					; 00000028H
	jne	$LN28@UTIL_FireT

; 1786 : 				{
; 1787 : 					i++;

	mov	eax, DWORD PTR _i$[ebp]
	add	eax, 1
	mov	DWORD PTR _i$[ebp], eax

; 1788 : 					for( j = i; targetName[j]; j++ )

	mov	eax, DWORD PTR _i$[ebp]
	mov	DWORD PTR _j$[ebp], eax
	jmp	SHORT $LN10@UTIL_FireT
$LN8@UTIL_FireT:
	mov	eax, DWORD PTR _j$[ebp]
	add	eax, 1
	mov	DWORD PTR _j$[ebp], eax
$LN10@UTIL_FireT:
	mov	eax, DWORD PTR _targetName$[ebp]
	add	eax, DWORD PTR _j$[ebp]
	movsx	ecx, BYTE PTR [eax]
	test	ecx, ecx
	je	SHORT $LN9@UTIL_FireT

; 1789 : 					{
; 1790 : 						if( targetName[j] == ')' )

	mov	eax, DWORD PTR _targetName$[ebp]
	add	eax, DWORD PTR _j$[ebp]
	movsx	ecx, BYTE PTR [eax]
	cmp	ecx, 41					; 00000029H
	jne	SHORT $LN29@UTIL_FireT

; 1791 : 						{
; 1792 : 							Q_strncpy( szBuf, targetName+i, j - i + 1 );

	mov	eax, DWORD PTR _j$[ebp]
	sub	eax, DWORD PTR _i$[ebp]
	add	eax, 1
	push	eax
	mov	ecx, DWORD PTR _targetName$[ebp]
	add	ecx, DWORD PTR _i$[ebp]
	push	ecx
	lea	edx, DWORD PTR _szBuf$[ebp]
	push	edx
	call	?Q_strncpy@@YAIPADPBDI@Z		; Q_strncpy
	add	esp, 12					; 0000000cH

; 1793 : 							pActivator = UTIL_FindEntityByTargetname( NULL, szBuf, inputActivator );

	mov	eax, DWORD PTR _inputActivator$[ebp]
	push	eax
	lea	ecx, DWORD PTR _szBuf$[ebp]
	push	ecx
	push	0
	call	?UTIL_FindEntityByTargetname@@YAPAVCBaseEntity@@PAV1@PBD0@Z ; UTIL_FindEntityByTargetname
	add	esp, 12					; 0000000cH
	mov	DWORD PTR _pActivator$[ebp], eax

; 1794 : 							if( !pActivator ) return; // it's a locus specifier, but the locus is invalid.

	cmp	DWORD PTR _pActivator$[ebp], 0
	jne	SHORT $LN30@UTIL_FireT
	jmp	$LN1@UTIL_FireT
$LN30@UTIL_FireT:

; 1795 : 							found = true;

	mov	DWORD PTR _found$[ebp], 1

; 1796 : 							break;

	jmp	SHORT $LN9@UTIL_FireT
$LN29@UTIL_FireT:

; 1797 : 						}
; 1798 : 					}

	jmp	SHORT $LN8@UTIL_FireT
$LN9@UTIL_FireT:

; 1799 : 
; 1800 : 					if( !found )

	cmp	DWORD PTR _found$[ebp], 0
	jne	SHORT $LN31@UTIL_FireT

; 1801 : 						ALERT( at_error, "Missing ')' in targetname: %s", inputTargetName );

	mov	eax, DWORD PTR _inputTargetName$[ebp]
	push	eax
	push	OFFSET ??_C@_0BO@DJEDJFHM@Missing?5?8?$CJ?8?5in?5targetname?3?5?$CFs?$AA@
	push	4
	call	DWORD PTR ?g_engfuncs@@3Uenginefuncs_s@@A+244
	add	esp, 12					; 0000000cH
$LN31@UTIL_FireT:

; 1802 : 					break;

	jmp	SHORT $LN6@UTIL_FireT
$LN28@UTIL_FireT:

; 1803 : 				}
; 1804 : 			}

	jmp	$LN5@UTIL_FireT
$LN6@UTIL_FireT:

; 1805 : 
; 1806 : 			// no, it's not a locus specifier.
; 1807 : 			if( !found ) return;

	cmp	DWORD PTR _found$[ebp], 0
	jne	SHORT $LN32@UTIL_FireT
	jmp	$LN1@UTIL_FireT
$LN32@UTIL_FireT:

; 1808 : 
; 1809 : 			Q_strncpy( szBuf, targetName, i );

	mov	eax, DWORD PTR _i$[ebp]
	push	eax
	mov	ecx, DWORD PTR _targetName$[ebp]
	push	ecx
	lea	edx, DWORD PTR _szBuf$[ebp]
	push	edx
	call	?Q_strncpy@@YAIPADPBDI@Z		; Q_strncpy
	add	esp, 12					; 0000000cH

; 1810 : 			targetName = szBuf;

	lea	eax, DWORD PTR _szBuf$[ebp]
	mov	DWORD PTR _targetName$[ebp], eax

; 1811 : 			pTarget = UTIL_FindEntityByTargetname( NULL, targetName, inputActivator );

	mov	eax, DWORD PTR _inputActivator$[ebp]
	push	eax
	mov	ecx, DWORD PTR _targetName$[ebp]
	push	ecx
	push	0
	call	?UTIL_FindEntityByTargetname@@YAPAVCBaseEntity@@PAV1@PBD0@Z ; UTIL_FindEntityByTargetname
	add	esp, 12					; 0000000cH
	mov	DWORD PTR _pTarget$[ebp], eax

; 1812 : 
; 1813 : 			// it's a locus specifier all right, but the target's invalid.
; 1814 : 			if( !pTarget ) return;

	cmp	DWORD PTR _pTarget$[ebp], 0
	jne	SHORT $LN33@UTIL_FireT
	jmp	$LN1@UTIL_FireT
$LN33@UTIL_FireT:

; 1815 : 		}
; 1816 : 	}
; 1817 : 
; 1818 : 	//start firing targets
; 1819 : 	do
; 1820 : 	{
; 1821 : 		if(!( pTarget->pev->flags & FL_KILLME ))

	mov	eax, DWORD PTR _pTarget$[ebp]
	mov	ecx, DWORD PTR [eax+4]
	mov	edx, DWORD PTR [ecx+420]
	and	edx, 1073741824				; 40000000H
	jne	SHORT $LN36@UTIL_FireT

; 1822 : 		{
; 1823 : 			if( useType == USE_REMOVE )

	cmp	DWORD PTR _useType$[ebp], 5
	jne	SHORT $LN35@UTIL_FireT

; 1824 : 				UTIL_Remove( pTarget );

	mov	eax, DWORD PTR _pTarget$[ebp]
	push	eax
	call	?UTIL_Remove@@YAXPAVCBaseEntity@@@Z	; UTIL_Remove
	add	esp, 4

; 1825 : 			else

	jmp	SHORT $LN36@UTIL_FireT
$LN35@UTIL_FireT:

; 1826 : 			{
; 1827 : 				pTarget->Use( pActivator, pCaller, useType, value );

	push	ecx
	movss	xmm0, DWORD PTR _value$[ebp]
	movss	DWORD PTR [esp], xmm0
	mov	eax, DWORD PTR _useType$[ebp]
	push	eax
	mov	ecx, DWORD PTR _pCaller$[ebp]
	push	ecx
	mov	edx, DWORD PTR _pActivator$[ebp]
	push	edx
	mov	eax, DWORD PTR _pTarget$[ebp]
	mov	edx, DWORD PTR [eax]
	mov	ecx, DWORD PTR _pTarget$[ebp]
	mov	eax, DWORD PTR [edx+308]
	call	eax

; 1828 : 				// diffusion - moved alert here
; 1829 : 				ALERT( at_aiconsole, "Firing: %s (%s) with %s and value %g\n", pTarget->GetClassname(), targetName, GetStringForUseType( useType ), value );

	cvtss2sd xmm0, DWORD PTR _value$[ebp]
	sub	esp, 8
	movsd	QWORD PTR [esp], xmm0
	mov	eax, DWORD PTR _useType$[ebp]
	push	eax
	call	?GetStringForUseType@@YAPBDW4USE_TYPE@@@Z ; GetStringForUseType
	add	esp, 4
	push	eax
	mov	ecx, DWORD PTR _targetName$[ebp]
	push	ecx
	mov	ecx, DWORD PTR _pTarget$[ebp]
	call	?GetClassname@CBaseEntity@@QAEPBDXZ	; CBaseEntity::GetClassname
	push	eax
	push	OFFSET ??_C@_0CG@KKOBGNAB@Firing?3?5?$CFs?5?$CI?$CFs?$CJ?5with?5?$CFs?5and?5valu@
	push	2
	call	DWORD PTR ?g_engfuncs@@3Uenginefuncs_s@@A+244
	add	esp, 28					; 0000001cH
$LN36@UTIL_FireT:

; 1830 : 			}
; 1831 : 		}
; 1832 : 
; 1833 : 		pTarget = UTIL_FindEntityByTargetname( pTarget, targetName, inputActivator );

	mov	eax, DWORD PTR _inputActivator$[ebp]
	push	eax
	mov	ecx, DWORD PTR _targetName$[ebp]
	push	ecx
	mov	edx, DWORD PTR _pTarget$[ebp]
	push	edx
	call	?UTIL_FindEntityByTargetname@@YAPAVCBaseEntity@@PAV1@PBD0@Z ; UTIL_FindEntityByTargetname
	add	esp, 12					; 0000000cH
	mov	DWORD PTR _pTarget$[ebp], eax

; 1834 : 
; 1835 : 	} while( pTarget != NULL );

	cmp	DWORD PTR _pTarget$[ebp], 0
	jne	$LN33@UTIL_FireT
$LN1@UTIL_FireT:

; 1836 : }

	pop	edi
	pop	esi
	pop	ebx
	mov	ecx, DWORD PTR __$ArrayPad$[ebp]
	xor	ecx, ebp
	call	@__security_check_cookie@4
	mov	esp, ebp
	pop	ebp
	ret	0
?UTIL_FireTargets@@YAXPBDPAVCBaseEntity@@1W4USE_TYPE@@M@Z ENDP ; UTIL_FireTargets
_TEXT	ENDS
; Function compile flags: /Odtp /ZI
; File d:\!diffusion 2020\source code 2022\client-server\server\util.cpp
;	COMDAT ?UTIL_ScreenFade@@YAXPAVCBaseEntity@@ABVVector@@MMHH@Z
_TEXT	SEGMENT
_fade$ = -16						; size = 10
__$ArrayPad$ = -4					; size = 4
_pEntity$ = 8						; size = 4
_color$ = 12						; size = 4
_fadeTime$ = 16						; size = 4
_fadeHold$ = 20						; size = 4
_alpha$ = 24						; size = 4
_flags$ = 28						; size = 4
?UTIL_ScreenFade@@YAXPAVCBaseEntity@@ABVVector@@MMHH@Z PROC ; UTIL_ScreenFade, COMDAT

; 1207 : {

	push	ebp
	mov	ebp, esp
	sub	esp, 80					; 00000050H
	mov	eax, DWORD PTR ___security_cookie
	xor	eax, ebp
	mov	DWORD PTR __$ArrayPad$[ebp], eax
	push	ebx
	push	esi
	push	edi

; 1208 : 	ScreenFade	fade;
; 1209 : 
; 1210 : 	UTIL_ScreenFadeBuild( fade, color, fadeTime, fadeHold, alpha, flags );

	mov	eax, DWORD PTR _flags$[ebp]
	push	eax
	mov	ecx, DWORD PTR _alpha$[ebp]
	push	ecx
	push	ecx
	movss	xmm0, DWORD PTR _fadeHold$[ebp]
	movss	DWORD PTR [esp], xmm0
	push	ecx
	movss	xmm0, DWORD PTR _fadeTime$[ebp]
	movss	DWORD PTR [esp], xmm0
	mov	edx, DWORD PTR _color$[ebp]
	push	edx
	lea	eax, DWORD PTR _fade$[ebp]
	push	eax
	call	?UTIL_ScreenFadeBuild@@YAXAAUScreenFade@@ABVVector@@MMHH@Z ; UTIL_ScreenFadeBuild
	add	esp, 24					; 00000018H

; 1211 : 	UTIL_ScreenFadeWrite( fade, pEntity );

	mov	eax, DWORD PTR _pEntity$[ebp]
	push	eax
	lea	ecx, DWORD PTR _fade$[ebp]
	push	ecx
	call	?UTIL_ScreenFadeWrite@@YAXABUScreenFade@@PAVCBaseEntity@@@Z ; UTIL_ScreenFadeWrite
	add	esp, 8

; 1212 : }

	pop	edi
	pop	esi
	pop	ebx
	mov	ecx, DWORD PTR __$ArrayPad$[ebp]
	xor	ecx, ebp
	call	@__security_check_cookie@4
	mov	esp, ebp
	pop	ebp
	ret	0
?UTIL_ScreenFade@@YAXPAVCBaseEntity@@ABVVector@@MMHH@Z ENDP ; UTIL_ScreenFade
_TEXT	ENDS
; Function compile flags: /Odtp /ZI
; File d:\!diffusion 2020\source code 2022\client-server\server\util.cpp
;	COMDAT ?UTIL_ScreenFadeAll@@YAXABVVector@@MMHH@Z
_TEXT	SEGMENT
_pPlayer$1 = -24					; size = 4
_fade$ = -20						; size = 10
_i$ = -8						; size = 4
__$ArrayPad$ = -4					; size = 4
_color$ = 8						; size = 4
_fadeTime$ = 12						; size = 4
_fadeHold$ = 16						; size = 4
_alpha$ = 20						; size = 4
_flags$ = 24						; size = 4
?UTIL_ScreenFadeAll@@YAXABVVector@@MMHH@Z PROC		; UTIL_ScreenFadeAll, COMDAT

; 1190 : {

	push	ebp
	mov	ebp, esp
	sub	esp, 88					; 00000058H
	mov	eax, DWORD PTR ___security_cookie
	xor	eax, ebp
	mov	DWORD PTR __$ArrayPad$[ebp], eax
	push	ebx
	push	esi
	push	edi

; 1191 : 	int			i;
; 1192 : 	ScreenFade	fade;
; 1193 : 
; 1194 : 
; 1195 : 	UTIL_ScreenFadeBuild( fade, color, fadeTime, fadeHold, alpha, flags );

	mov	eax, DWORD PTR _flags$[ebp]
	push	eax
	mov	ecx, DWORD PTR _alpha$[ebp]
	push	ecx
	push	ecx
	movss	xmm0, DWORD PTR _fadeHold$[ebp]
	movss	DWORD PTR [esp], xmm0
	push	ecx
	movss	xmm0, DWORD PTR _fadeTime$[ebp]
	movss	DWORD PTR [esp], xmm0
	mov	edx, DWORD PTR _color$[ebp]
	push	edx
	lea	eax, DWORD PTR _fade$[ebp]
	push	eax
	call	?UTIL_ScreenFadeBuild@@YAXAAUScreenFade@@ABVVector@@MMHH@Z ; UTIL_ScreenFadeBuild
	add	esp, 24					; 00000018H

; 1196 : 
; 1197 : 	for ( i = 1; i <= gpGlobals->maxClients; i++ )

	mov	DWORD PTR _i$[ebp], 1
	jmp	SHORT $LN4@UTIL_Scree
$LN2@UTIL_Scree:
	mov	eax, DWORD PTR _i$[ebp]
	add	eax, 1
	mov	DWORD PTR _i$[ebp], eax
$LN4@UTIL_Scree:
	mov	eax, DWORD PTR ?gpGlobals@@3PAUglobalvars_t@@A ; gpGlobals
	mov	ecx, DWORD PTR _i$[ebp]
	cmp	ecx, DWORD PTR [eax+144]
	jg	SHORT $LN3@UTIL_Scree

; 1198 : 	{
; 1199 : 		CBaseEntity *pPlayer = UTIL_PlayerByIndex( i );

	mov	eax, DWORD PTR _i$[ebp]
	push	eax
	call	?UTIL_PlayerByIndex@@YAPAVCBaseEntity@@H@Z ; UTIL_PlayerByIndex
	add	esp, 4
	mov	DWORD PTR _pPlayer$1[ebp], eax

; 1200 : 	
; 1201 : 		UTIL_ScreenFadeWrite( fade, pPlayer );

	mov	eax, DWORD PTR _pPlayer$1[ebp]
	push	eax
	lea	ecx, DWORD PTR _fade$[ebp]
	push	ecx
	call	?UTIL_ScreenFadeWrite@@YAXABUScreenFade@@PAVCBaseEntity@@@Z ; UTIL_ScreenFadeWrite
	add	esp, 8

; 1202 : 	}

	jmp	SHORT $LN2@UTIL_Scree
$LN3@UTIL_Scree:

; 1203 : }

	pop	edi
	pop	esi
	pop	ebx
	mov	ecx, DWORD PTR __$ArrayPad$[ebp]
	xor	ecx, ebp
	call	@__security_check_cookie@4
	mov	esp, ebp
	pop	ebp
	ret	0
?UTIL_ScreenFadeAll@@YAXABVVector@@MMHH@Z ENDP		; UTIL_ScreenFadeAll
_TEXT	ENDS
; Function compile flags: /Odtp /ZI
; File d:\!diffusion 2020\source code 2022\client-server\server\util.cpp
;	COMDAT ?UTIL_ShowMessageAll@@YAXPBD@Z
_TEXT	SEGMENT
_pPlayer$1 = -8						; size = 4
_i$ = -4						; size = 4
_pString$ = 8						; size = 4
?UTIL_ShowMessageAll@@YAXPBD@Z PROC			; UTIL_ShowMessageAll, COMDAT

; 1373 : {

	push	ebp
	mov	ebp, esp
	sub	esp, 72					; 00000048H
	push	ebx
	push	esi
	push	edi

; 1374 : 	int		i;
; 1375 : 
; 1376 : 	// loop through all players
; 1377 : 
; 1378 : 	for ( i = 1; i <= gpGlobals->maxClients; i++ )

	mov	DWORD PTR _i$[ebp], 1
	jmp	SHORT $LN4@UTIL_ShowM
$LN2@UTIL_ShowM:
	mov	eax, DWORD PTR _i$[ebp]
	add	eax, 1
	mov	DWORD PTR _i$[ebp], eax
$LN4@UTIL_ShowM:
	mov	eax, DWORD PTR ?gpGlobals@@3PAUglobalvars_t@@A ; gpGlobals
	mov	ecx, DWORD PTR _i$[ebp]
	cmp	ecx, DWORD PTR [eax+144]
	jg	SHORT $LN1@UTIL_ShowM

; 1379 : 	{
; 1380 : 		CBaseEntity *pPlayer = UTIL_PlayerByIndex( i );

	mov	eax, DWORD PTR _i$[ebp]
	push	eax
	call	?UTIL_PlayerByIndex@@YAPAVCBaseEntity@@H@Z ; UTIL_PlayerByIndex
	add	esp, 4
	mov	DWORD PTR _pPlayer$1[ebp], eax

; 1381 : 		if ( pPlayer )

	cmp	DWORD PTR _pPlayer$1[ebp], 0
	je	SHORT $LN5@UTIL_ShowM

; 1382 : 			UTIL_ShowMessage( pString, pPlayer );

	mov	eax, DWORD PTR _pPlayer$1[ebp]
	push	eax
	mov	ecx, DWORD PTR _pString$[ebp]
	push	ecx
	call	?UTIL_ShowMessage@@YAXPBDPAVCBaseEntity@@@Z ; UTIL_ShowMessage
	add	esp, 8
$LN5@UTIL_ShowM:

; 1383 : 	}

	jmp	SHORT $LN2@UTIL_ShowM
$LN1@UTIL_ShowM:

; 1384 : }

	pop	edi
	pop	esi
	pop	ebx
	mov	esp, ebp
	pop	ebp
	ret	0
?UTIL_ShowMessageAll@@YAXPBD@Z ENDP			; UTIL_ShowMessageAll
_TEXT	ENDS
; Function compile flags: /Odtp /ZI
; File d:\!diffusion 2020\source code 2022\client-server\server\util.cpp
;	COMDAT ?UTIL_ShowMessage@@YAXPBDPAVCBaseEntity@@@Z
_TEXT	SEGMENT
_pString$ = 8						; size = 4
_pEntity$ = 12						; size = 4
?UTIL_ShowMessage@@YAXPBDPAVCBaseEntity@@@Z PROC	; UTIL_ShowMessage, COMDAT

; 1362 : {

	push	ebp
	mov	ebp, esp
	sub	esp, 64					; 00000040H
	push	ebx
	push	esi
	push	edi

; 1363 : 	if ( !pEntity || !pEntity->IsNetClient() )

	cmp	DWORD PTR _pEntity$[ebp], 0
	je	SHORT $LN3@UTIL_ShowM
	mov	eax, DWORD PTR _pEntity$[ebp]
	mov	edx, DWORD PTR [eax]
	mov	ecx, DWORD PTR _pEntity$[ebp]
	mov	eax, DWORD PTR [edx+224]
	call	eax
	test	eax, eax
	jne	SHORT $LN2@UTIL_ShowM
$LN3@UTIL_ShowM:

; 1364 : 		return;

	jmp	SHORT $LN1@UTIL_ShowM
$LN2@UTIL_ShowM:

; 1365 : 
; 1366 : 	MESSAGE_BEGIN( MSG_ONE, gmsgHudText, NULL, pEntity->edict() ); //gmsgHudText

	mov	ecx, DWORD PTR _pEntity$[ebp]
	call	?edict@CBaseEntity@@QAEPAUedict_s@@XZ	; CBaseEntity::edict
	push	eax
	push	0
	mov	eax, DWORD PTR ?gmsgHudText@@3HA	; gmsgHudText
	push	eax
	push	1
	call	?MESSAGE_BEGIN@@YAXHHPBMPAUedict_s@@@Z	; MESSAGE_BEGIN
	add	esp, 16					; 00000010H

; 1367 : 		WRITE_STRING( pString );

	mov	eax, DWORD PTR _pString$[ebp]
	push	eax
	call	DWORD PTR ?g_engfuncs@@3Uenginefuncs_s@@A+216
	add	esp, 4

; 1368 : 	MESSAGE_END();

	call	DWORD PTR ?g_engfuncs@@3Uenginefuncs_s@@A+188
$LN1@UTIL_ShowM:

; 1369 : }

	pop	edi
	pop	esi
	pop	ebx
	mov	esp, ebp
	pop	ebp
	ret	0
?UTIL_ShowMessage@@YAXPBDPAVCBaseEntity@@@Z ENDP	; UTIL_ShowMessage
_TEXT	ENDS
; Function compile flags: /Odtp /ZI
; File d:\!diffusion 2020\source code 2022\client-server\server\util.cpp
;	COMDAT ?UTIL_ScreenShakeLocal@@YAXPAVCBaseEntity@@ABVVector@@MMMM_N@Z
_TEXT	SEGMENT
_distance$1 = -28					; size = 4
_delta$2 = -24						; size = 12
_shake$ = -12						; size = 6
_localAmplitude$ = -4					; size = 4
_pEntity$ = 8						; size = 4
_center$ = 12						; size = 4
_amplitude$ = 16					; size = 4
_frequency$ = 20					; size = 4
_duration$ = 24						; size = 4
_radius$ = 28						; size = 4
_bAllowInAir$ = 32					; size = 1
?UTIL_ScreenShakeLocal@@YAXPAVCBaseEntity@@ABVVector@@MMMM_N@Z PROC ; UTIL_ScreenShakeLocal, COMDAT

; 1122 : {

	push	ebp
	mov	ebp, esp
	sub	esp, 92					; 0000005cH
	push	ebx
	push	esi
	push	edi

; 1123 : 	float		localAmplitude;
; 1124 : 	ScreenShake	shake;
; 1125 : 
; 1126 : 	shake.duration = FixedUnsigned16(duration, 1 << 12);		// 4.12 fixed

	push	ecx
	movss	xmm0, DWORD PTR __real@45800000
	movss	DWORD PTR [esp], xmm0
	push	ecx
	movss	xmm0, DWORD PTR _duration$[ebp]
	movss	DWORD PTR [esp], xmm0
	call	?FixedUnsigned16@@YAGMM@Z		; FixedUnsigned16
	add	esp, 8
	mov	WORD PTR _shake$[ebp+2], ax

; 1127 : 	shake.frequency = FixedUnsigned16(frequency, 1 << 8);	// 8.8 fixed

	push	ecx
	movss	xmm0, DWORD PTR __real@43800000
	movss	DWORD PTR [esp], xmm0
	push	ecx
	movss	xmm0, DWORD PTR _frequency$[ebp]
	movss	DWORD PTR [esp], xmm0
	call	?FixedUnsigned16@@YAGMM@Z		; FixedUnsigned16
	add	esp, 8
	mov	WORD PTR _shake$[ebp+4], ax

; 1128 : 
; 1129 : 	if (!pEntity || (!FBitSet(pEntity->pev->flags, FL_ONGROUND) && !bAllowInAir)) // Don't shake if not onground

	cmp	DWORD PTR _pEntity$[ebp], 0
	je	SHORT $LN3@UTIL_Scree
	mov	eax, DWORD PTR _pEntity$[ebp]
	mov	ecx, DWORD PTR [eax+4]
	mov	edx, DWORD PTR [ecx+420]
	and	edx, 512				; 00000200H
	jne	SHORT $LN2@UTIL_Scree
	movzx	eax, BYTE PTR _bAllowInAir$[ebp]
	test	eax, eax
	jne	SHORT $LN2@UTIL_Scree
$LN3@UTIL_Scree:

; 1130 : 		return;

	jmp	$LN1@UTIL_Scree
$LN2@UTIL_Scree:

; 1131 : 
; 1132 : 	localAmplitude = 0;

	xorps	xmm0, xmm0
	movss	DWORD PTR _localAmplitude$[ebp], xmm0

; 1133 : 
; 1134 : 	if (radius <= 0)

	xorps	xmm0, xmm0
	comiss	xmm0, DWORD PTR _radius$[ebp]
	jb	SHORT $LN4@UTIL_Scree

; 1135 : 		localAmplitude = amplitude;

	movss	xmm0, DWORD PTR _amplitude$[ebp]
	movss	DWORD PTR _localAmplitude$[ebp], xmm0

; 1136 : 	else

	jmp	SHORT $LN6@UTIL_Scree
$LN4@UTIL_Scree:

; 1137 : 	{
; 1138 : 		Vector delta = center - pEntity->GetAbsOrigin();

	mov	ecx, DWORD PTR _pEntity$[ebp]
	call	?GetAbsOrigin@CBaseEntity@@QBEABVVector@@XZ ; CBaseEntity::GetAbsOrigin
	push	eax
	lea	eax, DWORD PTR _delta$2[ebp]
	push	eax
	mov	ecx, DWORD PTR _center$[ebp]
	call	??GVector@@QBE?AV0@ABV0@@Z		; Vector::operator-

; 1139 : 		float distance = delta.Length();

	lea	ecx, DWORD PTR _delta$2[ebp]
	call	?Length@Vector@@QBEMXZ			; Vector::Length
	fstp	DWORD PTR _distance$1[ebp]

; 1140 : 
; 1141 : 		// Had to get rid of this falloff - it didn't work well
; 1142 : 		if (distance < radius)

	movss	xmm0, DWORD PTR _radius$[ebp]
	comiss	xmm0, DWORD PTR _distance$1[ebp]
	jbe	SHORT $LN6@UTIL_Scree

; 1143 : 			localAmplitude = amplitude;//radius - distance;

	movss	xmm0, DWORD PTR _amplitude$[ebp]
	movss	DWORD PTR _localAmplitude$[ebp], xmm0
$LN6@UTIL_Scree:

; 1144 : 	}
; 1145 : 
; 1146 : 	if (localAmplitude)

	movss	xmm0, DWORD PTR _localAmplitude$[ebp]
	ucomiss	xmm0, DWORD PTR __real@00000000
	lahf
	test	ah, 68					; 00000044H
	jnp	SHORT $LN7@UTIL_Scree

; 1147 : 	{
; 1148 : 		shake.amplitude = FixedUnsigned16(localAmplitude, 1 << 12);		// 4.12 fixed

	push	ecx
	movss	xmm0, DWORD PTR __real@45800000
	movss	DWORD PTR [esp], xmm0
	push	ecx
	movss	xmm0, DWORD PTR _localAmplitude$[ebp]
	movss	DWORD PTR [esp], xmm0
	call	?FixedUnsigned16@@YAGMM@Z		; FixedUnsigned16
	add	esp, 8
	mov	WORD PTR _shake$[ebp], ax

; 1149 : 
; 1150 : 		MESSAGE_BEGIN(MSG_ONE, gmsgTempEnt, NULL, pEntity->edict());		// use the magic #1 for "one client"

	mov	ecx, DWORD PTR _pEntity$[ebp]
	call	?edict@CBaseEntity@@QAEPAUedict_s@@XZ	; CBaseEntity::edict
	push	eax
	push	0
	mov	eax, DWORD PTR ?gmsgTempEnt@@3HA	; gmsgTempEnt
	push	eax
	push	1
	call	?MESSAGE_BEGIN@@YAXHHPBMPAUedict_s@@@Z	; MESSAGE_BEGIN
	add	esp, 16					; 00000010H

; 1151 : 			WRITE_BYTE( TE_SCREENSHAKE );

	push	134					; 00000086H
	call	DWORD PTR ?g_engfuncs@@3Uenginefuncs_s@@A+192
	add	esp, 4

; 1152 : 			WRITE_SHORT(shake.amplitude);		// shake amount

	movzx	eax, WORD PTR _shake$[ebp]
	push	eax
	call	DWORD PTR ?g_engfuncs@@3Uenginefuncs_s@@A+200
	add	esp, 4

; 1153 : 			WRITE_SHORT(shake.duration);		// shake lasts this long

	movzx	eax, WORD PTR _shake$[ebp+2]
	push	eax
	call	DWORD PTR ?g_engfuncs@@3Uenginefuncs_s@@A+200
	add	esp, 4

; 1154 : 			WRITE_SHORT(shake.frequency);		// shake noise frequency

	movzx	eax, WORD PTR _shake$[ebp+4]
	push	eax
	call	DWORD PTR ?g_engfuncs@@3Uenginefuncs_s@@A+200
	add	esp, 4

; 1155 : 		MESSAGE_END();

	call	DWORD PTR ?g_engfuncs@@3Uenginefuncs_s@@A+188
$LN7@UTIL_Scree:
$LN1@UTIL_Scree:

; 1156 : 	}
; 1157 : }

	pop	edi
	pop	esi
	pop	ebx
	mov	esp, ebp
	pop	ebp
	ret	0
?UTIL_ScreenShakeLocal@@YAXPAVCBaseEntity@@ABVVector@@MMMM_N@Z ENDP ; UTIL_ScreenShakeLocal
_TEXT	ENDS
; Function compile flags: /Odtp /ZI
; File d:\!diffusion 2020\source code 2022\client-server\server\util.cpp
;	COMDAT ?UTIL_ScreenShakeAll@@YAXABVVector@@MMM@Z
_TEXT	SEGMENT
_center$ = 8						; size = 4
_amplitude$ = 12					; size = 4
_frequency$ = 16					; size = 4
_duration$ = 20						; size = 4
?UTIL_ScreenShakeAll@@YAXABVVector@@MMM@Z PROC		; UTIL_ScreenShakeAll, COMDAT

; 1116 : {

	push	ebp
	mov	ebp, esp
	sub	esp, 64					; 00000040H
	push	ebx
	push	esi
	push	edi

; 1117 : 	UTIL_ScreenShake( center, amplitude, frequency, duration, 0 );

	push	0
	push	ecx
	xorps	xmm0, xmm0
	movss	DWORD PTR [esp], xmm0
	push	ecx
	movss	xmm0, DWORD PTR _duration$[ebp]
	movss	DWORD PTR [esp], xmm0
	push	ecx
	movss	xmm0, DWORD PTR _frequency$[ebp]
	movss	DWORD PTR [esp], xmm0
	push	ecx
	movss	xmm0, DWORD PTR _amplitude$[ebp]
	movss	DWORD PTR [esp], xmm0
	mov	eax, DWORD PTR _center$[ebp]
	push	eax
	call	?UTIL_ScreenShake@@YAXABVVector@@MMMM_N@Z ; UTIL_ScreenShake
	add	esp, 24					; 00000018H

; 1118 : }

	pop	edi
	pop	esi
	pop	ebx
	mov	esp, ebp
	pop	ebp
	ret	0
?UTIL_ScreenShakeAll@@YAXABVVector@@MMM@Z ENDP		; UTIL_ScreenShakeAll
_TEXT	ENDS
; Function compile flags: /Odtp /ZI
; File d:\!diffusion 2020\source code 2022\client-server\server\util.cpp
;	COMDAT ?UTIL_ScreenShake@@YAXABVVector@@MMMM_N@Z
_TEXT	SEGMENT
_distance$1 = -36					; size = 4
_delta$2 = -32						; size = 12
_pPlayer$3 = -20					; size = 4
_shake$ = -16						; size = 6
_localAmplitude$ = -8					; size = 4
_i$ = -4						; size = 4
_center$ = 8						; size = 4
_amplitude$ = 12					; size = 4
_frequency$ = 16					; size = 4
_duration$ = 20						; size = 4
_radius$ = 24						; size = 4
_bAllowInAir$ = 28					; size = 1
?UTIL_ScreenShake@@YAXABVVector@@MMMM_N@Z PROC		; UTIL_ScreenShake, COMDAT

; 1071 : {

	push	ebp
	mov	ebp, esp
	sub	esp, 100				; 00000064H
	push	ebx
	push	esi
	push	edi

; 1072 : 	int			i;
; 1073 : 	float		localAmplitude;
; 1074 : 	ScreenShake	shake;
; 1075 : 
; 1076 : 	shake.duration = FixedUnsigned16( duration, 1<<12 );		// 4.12 fixed

	push	ecx
	movss	xmm0, DWORD PTR __real@45800000
	movss	DWORD PTR [esp], xmm0
	push	ecx
	movss	xmm0, DWORD PTR _duration$[ebp]
	movss	DWORD PTR [esp], xmm0
	call	?FixedUnsigned16@@YAGMM@Z		; FixedUnsigned16
	add	esp, 8
	mov	WORD PTR _shake$[ebp+2], ax

; 1077 : 	shake.frequency = FixedUnsigned16( frequency, 1<<8 );	// 8.8 fixed

	push	ecx
	movss	xmm0, DWORD PTR __real@43800000
	movss	DWORD PTR [esp], xmm0
	push	ecx
	movss	xmm0, DWORD PTR _frequency$[ebp]
	movss	DWORD PTR [esp], xmm0
	call	?FixedUnsigned16@@YAGMM@Z		; FixedUnsigned16
	add	esp, 8
	mov	WORD PTR _shake$[ebp+4], ax

; 1078 : 
; 1079 : 	for ( i = 1; i <= gpGlobals->maxClients; i++ )

	mov	DWORD PTR _i$[ebp], 1
	jmp	SHORT $LN4@UTIL_Scree
$LN2@UTIL_Scree:
	mov	eax, DWORD PTR _i$[ebp]
	add	eax, 1
	mov	DWORD PTR _i$[ebp], eax
$LN4@UTIL_Scree:
	mov	eax, DWORD PTR ?gpGlobals@@3PAUglobalvars_t@@A ; gpGlobals
	mov	ecx, DWORD PTR _i$[ebp]
	cmp	ecx, DWORD PTR [eax+144]
	jg	$LN3@UTIL_Scree

; 1080 : 	{
; 1081 : 		CBaseEntity *pPlayer = UTIL_PlayerByIndex( i );

	mov	eax, DWORD PTR _i$[ebp]
	push	eax
	call	?UTIL_PlayerByIndex@@YAPAVCBaseEntity@@H@Z ; UTIL_PlayerByIndex
	add	esp, 4
	mov	DWORD PTR _pPlayer$3[ebp], eax

; 1082 : 
; 1083 : 		if ( !pPlayer || ( !FBitSet( pPlayer->pev->flags, FL_ONGROUND ) && !bAllowInAir )) // Don't shake if not onground

	cmp	DWORD PTR _pPlayer$3[ebp], 0
	je	SHORT $LN6@UTIL_Scree
	mov	eax, DWORD PTR _pPlayer$3[ebp]
	mov	ecx, DWORD PTR [eax+4]
	mov	edx, DWORD PTR [ecx+420]
	and	edx, 512				; 00000200H
	jne	SHORT $LN5@UTIL_Scree
	movzx	eax, BYTE PTR _bAllowInAir$[ebp]
	test	eax, eax
	jne	SHORT $LN5@UTIL_Scree
$LN6@UTIL_Scree:

; 1084 : 			continue;

	jmp	SHORT $LN2@UTIL_Scree
$LN5@UTIL_Scree:

; 1085 : 
; 1086 : 		localAmplitude = 0;

	xorps	xmm0, xmm0
	movss	DWORD PTR _localAmplitude$[ebp], xmm0

; 1087 : 
; 1088 : 		if ( radius <= 0 )

	xorps	xmm0, xmm0
	comiss	xmm0, DWORD PTR _radius$[ebp]
	jb	SHORT $LN7@UTIL_Scree

; 1089 : 			localAmplitude = amplitude;

	movss	xmm0, DWORD PTR _amplitude$[ebp]
	movss	DWORD PTR _localAmplitude$[ebp], xmm0

; 1090 : 		else

	jmp	SHORT $LN9@UTIL_Scree
$LN7@UTIL_Scree:

; 1091 : 		{
; 1092 : 			Vector delta = center - pPlayer->GetAbsOrigin();

	mov	ecx, DWORD PTR _pPlayer$3[ebp]
	call	?GetAbsOrigin@CBaseEntity@@QBEABVVector@@XZ ; CBaseEntity::GetAbsOrigin
	push	eax
	lea	eax, DWORD PTR _delta$2[ebp]
	push	eax
	mov	ecx, DWORD PTR _center$[ebp]
	call	??GVector@@QBE?AV0@ABV0@@Z		; Vector::operator-

; 1093 : 			float distance = delta.Length();

	lea	ecx, DWORD PTR _delta$2[ebp]
	call	?Length@Vector@@QBEMXZ			; Vector::Length
	fstp	DWORD PTR _distance$1[ebp]

; 1094 : 	
; 1095 : 			// Had to get rid of this falloff - it didn't work well
; 1096 : 			if ( distance < radius )

	movss	xmm0, DWORD PTR _radius$[ebp]
	comiss	xmm0, DWORD PTR _distance$1[ebp]
	jbe	SHORT $LN9@UTIL_Scree

; 1097 : 				localAmplitude = amplitude;//radius - distance;

	movss	xmm0, DWORD PTR _amplitude$[ebp]
	movss	DWORD PTR _localAmplitude$[ebp], xmm0
$LN9@UTIL_Scree:

; 1098 : 		}
; 1099 : 		if ( localAmplitude )

	movss	xmm0, DWORD PTR _localAmplitude$[ebp]
	ucomiss	xmm0, DWORD PTR __real@00000000
	lahf
	test	ah, 68					; 00000044H
	jnp	SHORT $LN10@UTIL_Scree

; 1100 : 		{
; 1101 : 			shake.amplitude = FixedUnsigned16( localAmplitude, 1<<12 );		// 4.12 fixed

	push	ecx
	movss	xmm0, DWORD PTR __real@45800000
	movss	DWORD PTR [esp], xmm0
	push	ecx
	movss	xmm0, DWORD PTR _localAmplitude$[ebp]
	movss	DWORD PTR [esp], xmm0
	call	?FixedUnsigned16@@YAGMM@Z		; FixedUnsigned16
	add	esp, 8
	mov	WORD PTR _shake$[ebp], ax

; 1102 : 			
; 1103 : 			MESSAGE_BEGIN( MSG_ONE, gmsgTempEnt, NULL, pPlayer->edict() );		// use the magic #1 for "one client"

	mov	ecx, DWORD PTR _pPlayer$3[ebp]
	call	?edict@CBaseEntity@@QAEPAUedict_s@@XZ	; CBaseEntity::edict
	push	eax
	push	0
	mov	eax, DWORD PTR ?gmsgTempEnt@@3HA	; gmsgTempEnt
	push	eax
	push	1
	call	?MESSAGE_BEGIN@@YAXHHPBMPAUedict_s@@@Z	; MESSAGE_BEGIN
	add	esp, 16					; 00000010H

; 1104 : 				
; 1105 : 				WRITE_BYTE( TE_SCREENSHAKE );

	push	134					; 00000086H
	call	DWORD PTR ?g_engfuncs@@3Uenginefuncs_s@@A+192
	add	esp, 4

; 1106 : 				WRITE_SHORT( shake.amplitude );				// shake amount

	movzx	eax, WORD PTR _shake$[ebp]
	push	eax
	call	DWORD PTR ?g_engfuncs@@3Uenginefuncs_s@@A+200
	add	esp, 4

; 1107 : 				WRITE_SHORT( shake.duration );				// shake lasts this long

	movzx	eax, WORD PTR _shake$[ebp+2]
	push	eax
	call	DWORD PTR ?g_engfuncs@@3Uenginefuncs_s@@A+200
	add	esp, 4

; 1108 : 				WRITE_SHORT( shake.frequency );				// shake noise frequency

	movzx	eax, WORD PTR _shake$[ebp+4]
	push	eax
	call	DWORD PTR ?g_engfuncs@@3Uenginefuncs_s@@A+200
	add	esp, 4

; 1109 : 
; 1110 : 			MESSAGE_END();

	call	DWORD PTR ?g_engfuncs@@3Uenginefuncs_s@@A+188
$LN10@UTIL_Scree:

; 1111 : 		}
; 1112 : 	}

	jmp	$LN2@UTIL_Scree
$LN3@UTIL_Scree:

; 1113 : }

	pop	edi
	pop	esi
	pop	ebx
	mov	esp, ebp
	pop	ebp
	ret	0
?UTIL_ScreenShake@@YAXABVVector@@MMMM_N@Z ENDP		; UTIL_ScreenShake
_TEXT	ENDS
; Function compile flags: /Odtp /ZI
; File d:\!diffusion 2020\source code 2022\client-server\server\util.cpp
;	COMDAT ?UTIL_ParticleEffect@@YAXABVVector@@0KK@Z
_TEXT	SEGMENT
tv87 = -88						; size = 8
tv83 = -80						; size = 4
tv78 = -76						; size = 8
tv74 = -68						; size = 4
_vecOrigin$ = 8						; size = 4
_vecDirection$ = 12					; size = 4
_ulColor$ = 16						; size = 4
_ulCount$ = 20						; size = 4
?UTIL_ParticleEffect@@YAXABVVector@@0KK@Z PROC		; UTIL_ParticleEffect, COMDAT

; 1532 : {

	push	ebp
	mov	ebp, esp
	sub	esp, 88					; 00000058H
	push	ebx
	push	esi
	push	edi

; 1533 : 	PARTICLE_EFFECT( vecOrigin, vecDirection, (float)ulColor, (float)ulCount );

	mov	eax, DWORD PTR _ulCount$[ebp]
	mov	DWORD PTR tv74[ebp], eax
	cvtsi2sd xmm0, DWORD PTR tv74[ebp]
	mov	ecx, DWORD PTR tv74[ebp]
	shr	ecx, 31					; 0000001fH
	addsd	xmm0, QWORD PTR __xmm@41f00000000000000000000000000000[ecx*8]
	movsd	QWORD PTR tv78[ebp], xmm0
	cvtsd2ss xmm0, QWORD PTR tv78[ebp]
	push	ecx
	movss	DWORD PTR [esp], xmm0
	mov	edx, DWORD PTR _ulColor$[ebp]
	mov	DWORD PTR tv83[ebp], edx
	cvtsi2sd xmm0, DWORD PTR tv83[ebp]
	mov	eax, DWORD PTR tv83[ebp]
	shr	eax, 31					; 0000001fH
	addsd	xmm0, QWORD PTR __xmm@41f00000000000000000000000000000[eax*8]
	movsd	QWORD PTR tv87[ebp], xmm0
	cvtsd2ss xmm0, QWORD PTR tv87[ebp]
	push	ecx
	movss	DWORD PTR [esp], xmm0
	mov	ecx, DWORD PTR _vecDirection$[ebp]
	call	??BVector@@QBEPBMXZ			; Vector::operator float const *
	push	eax
	mov	ecx, DWORD PTR _vecOrigin$[ebp]
	call	??BVector@@QBEPBMXZ			; Vector::operator float const *
	push	eax
	call	DWORD PTR ?g_engfuncs@@3Uenginefuncs_s@@A+168
	add	esp, 16					; 00000010H

; 1534 : }

	pop	edi
	pop	esi
	pop	ebx
	mov	esp, ebp
	pop	ebp
	ret	0
?UTIL_ParticleEffect@@YAXABVVector@@0KK@Z ENDP		; UTIL_ParticleEffect
_TEXT	ENDS
; Function compile flags: /Odtp /ZI
; File d:\!diffusion 2020\source code 2022\client-server\server\util.cpp
;	COMDAT ?UTIL_EmitAmbientSound@@YAXPAUedict_s@@ABVVector@@PBDMMHH@Z
_TEXT	SEGMENT
_name$1 = -48						; size = 32
_rgfl$ = -16						; size = 12
__$ArrayPad$ = -4					; size = 4
_entity$ = 8						; size = 4
_vecOrigin$ = 12					; size = 4
_samp$ = 16						; size = 4
_vol$ = 20						; size = 4
_attenuation$ = 24					; size = 4
_fFlags$ = 28						; size = 4
_pitch$ = 32						; size = 4
?UTIL_EmitAmbientSound@@YAXPAUedict_s@@ABVVector@@PBDMMHH@Z PROC ; UTIL_EmitAmbientSound, COMDAT

; 1023 : {

	push	ebp
	mov	ebp, esp
	sub	esp, 112				; 00000070H
	mov	eax, DWORD PTR ___security_cookie
	xor	eax, ebp
	mov	DWORD PTR __$ArrayPad$[ebp], eax
	push	ebx
	push	esi
	push	edi

; 1024 : 	float rgfl[3];
; 1025 : 	vecOrigin.CopyToArray(rgfl);

	lea	eax, DWORD PTR _rgfl$[ebp]
	push	eax
	mov	ecx, DWORD PTR _vecOrigin$[ebp]
	call	?CopyToArray@Vector@@QBEXPAM@Z		; Vector::CopyToArray

; 1026 : 
; 1027 : 	if (samp && *samp == '!')

	cmp	DWORD PTR _samp$[ebp], 0
	je	SHORT $LN2@UTIL_EmitA
	mov	eax, DWORD PTR _samp$[ebp]
	movsx	ecx, BYTE PTR [eax]
	cmp	ecx, 33					; 00000021H
	jne	SHORT $LN2@UTIL_EmitA

; 1028 : 	{
; 1029 : 		char name[32];
; 1030 : 		if (SENTENCEG_Lookup(samp, name) >= 0)

	lea	eax, DWORD PTR _name$1[ebp]
	push	eax
	mov	ecx, DWORD PTR _samp$[ebp]
	push	ecx
	call	?SENTENCEG_Lookup@@YAHPBDPAD@Z		; SENTENCEG_Lookup
	add	esp, 8
	test	eax, eax
	jl	SHORT $LN4@UTIL_EmitA

; 1031 : 			EMIT_AMBIENT_SOUND(entity, rgfl, name, vol, attenuation, fFlags, pitch);

	mov	eax, DWORD PTR _pitch$[ebp]
	push	eax
	mov	ecx, DWORD PTR _fFlags$[ebp]
	push	ecx
	push	ecx
	movss	xmm0, DWORD PTR _attenuation$[ebp]
	movss	DWORD PTR [esp], xmm0
	push	ecx
	movss	xmm0, DWORD PTR _vol$[ebp]
	movss	DWORD PTR [esp], xmm0
	lea	edx, DWORD PTR _name$1[ebp]
	push	edx
	lea	eax, DWORD PTR _rgfl$[ebp]
	push	eax
	mov	ecx, DWORD PTR _entity$[ebp]
	push	ecx
	call	DWORD PTR ?g_engfuncs@@3Uenginefuncs_s@@A+120
	add	esp, 28					; 0000001cH
$LN4@UTIL_EmitA:

; 1032 : 	}
; 1033 : 	else

	jmp	SHORT $LN3@UTIL_EmitA
$LN2@UTIL_EmitA:

; 1034 : 		EMIT_AMBIENT_SOUND(entity, rgfl, samp, vol, attenuation, fFlags, pitch);

	mov	eax, DWORD PTR _pitch$[ebp]
	push	eax
	mov	ecx, DWORD PTR _fFlags$[ebp]
	push	ecx
	push	ecx
	movss	xmm0, DWORD PTR _attenuation$[ebp]
	movss	DWORD PTR [esp], xmm0
	push	ecx
	movss	xmm0, DWORD PTR _vol$[ebp]
	movss	DWORD PTR [esp], xmm0
	mov	edx, DWORD PTR _samp$[ebp]
	push	edx
	lea	eax, DWORD PTR _rgfl$[ebp]
	push	eax
	mov	ecx, DWORD PTR _entity$[ebp]
	push	ecx
	call	DWORD PTR ?g_engfuncs@@3Uenginefuncs_s@@A+120
	add	esp, 28					; 0000001cH
$LN3@UTIL_EmitA:

; 1035 : }

	pop	edi
	pop	esi
	pop	ebx
	mov	ecx, DWORD PTR __$ArrayPad$[ebp]
	xor	ecx, ebp
	call	@__security_check_cookie@4
	mov	esp, ebp
	pop	ebp
	ret	0
?UTIL_EmitAmbientSound@@YAXPAUedict_s@@ABVVector@@PBDMMHH@Z ENDP ; UTIL_EmitAmbientSound
_TEXT	ENDS
; Function compile flags: /Odtp /ZI
; File d:\!diffusion 2020\source code 2022\client-server\server\util.cpp
;	COMDAT ?UTIL_SetAngles@@YAXPAVCBaseEntity@@ABVVector@@@Z
_TEXT	SEGMENT
_pEntity$ = 8						; size = 4
_vecAngles$ = 12					; size = 4
?UTIL_SetAngles@@YAXPAVCBaseEntity@@ABVVector@@@Z PROC	; UTIL_SetAngles, COMDAT

; 1527 : {

	push	ebp
	mov	ebp, esp
	sub	esp, 64					; 00000040H
	push	ebx
	push	esi
	push	edi

; 1528 : 	pEntity->SetLocalAngles( vecAngles );

	mov	eax, DWORD PTR _vecAngles$[ebp]
	push	eax
	mov	ecx, DWORD PTR _pEntity$[ebp]
	call	?SetLocalAngles@CBaseEntity@@QAEXABVVector@@@Z ; CBaseEntity::SetLocalAngles

; 1529 : }

	pop	edi
	pop	esi
	pop	ebx
	mov	esp, ebp
	pop	ebp
	ret	0
?UTIL_SetAngles@@YAXPAVCBaseEntity@@ABVVector@@@Z ENDP	; UTIL_SetAngles
_TEXT	ENDS
; Function compile flags: /Odtp /ZI
; File d:\!diffusion 2020\source code 2022\client-server\server\util.cpp
;	COMDAT ?UTIL_SetOrigin@@YAXPAVCBaseEntity@@ABVVector@@@Z
_TEXT	SEGMENT
_pEntity$ = 8						; size = 4
_vecOrigin$ = 12					; size = 4
?UTIL_SetOrigin@@YAXPAVCBaseEntity@@ABVVector@@@Z PROC	; UTIL_SetOrigin, COMDAT

; 1521 : {

	push	ebp
	mov	ebp, esp
	sub	esp, 64					; 00000040H
	push	ebx
	push	esi
	push	edi

; 1522 : 	pEntity->SetLocalOrigin( vecOrigin );

	mov	eax, DWORD PTR _vecOrigin$[ebp]
	push	eax
	mov	ecx, DWORD PTR _pEntity$[ebp]
	call	?SetLocalOrigin@CBaseEntity@@QAEXABVVector@@@Z ; CBaseEntity::SetLocalOrigin

; 1523 : 	pEntity->RelinkEntity( TRUE );

	push	0
	push	0
	push	1
	mov	ecx, DWORD PTR _pEntity$[ebp]
	call	?RelinkEntity@CBaseEntity@@QAEXHPBVVector@@H@Z ; CBaseEntity::RelinkEntity

; 1524 : }

	pop	edi
	pop	esi
	pop	ebx
	mov	esp, ebp
	pop	ebp
	ret	0
?UTIL_SetOrigin@@YAXPAVCBaseEntity@@ABVVector@@@Z ENDP	; UTIL_SetOrigin
_TEXT	ENDS
; Function compile flags: /Odtp /ZI
; File d:\!diffusion 2020\source code 2022\client-server\server\util.cpp
;	COMDAT ?UTIL_MakeInvVectors@@YAXABVVector@@PAUglobalvars_t@@@Z
_TEXT	SEGMENT
$T1 = -80						; size = 12
_tmp$ = -4						; size = 4
_vec$ = 8						; size = 4
_pgv$ = 12						; size = 4
?UTIL_MakeInvVectors@@YAXABVVector@@PAUglobalvars_t@@@Z PROC ; UTIL_MakeInvVectors, COMDAT

; 1010 : {

	push	ebp
	mov	ebp, esp
	sub	esp, 80					; 00000050H
	push	ebx
	push	esi
	push	edi

; 1011 : 	MAKE_VECTORS(vec);

	mov	ecx, DWORD PTR _vec$[ebp]
	call	??BVector@@QBEPBMXZ			; Vector::operator float const *
	push	eax
	call	DWORD PTR ?g_engfuncs@@3Uenginefuncs_s@@A+76
	add	esp, 4

; 1012 : 
; 1013 : 	float tmp;
; 1014 : 	pgv->v_right = pgv->v_right * -1;

	push	ecx
	movss	xmm0, DWORD PTR __real@bf800000
	movss	DWORD PTR [esp], xmm0
	lea	eax, DWORD PTR $T1[ebp]
	push	eax
	mov	ecx, DWORD PTR _pgv$[ebp]
	add	ecx, 64					; 00000040H
	call	??DVector@@QBE?AV0@M@Z			; Vector::operator*
	mov	ecx, DWORD PTR _pgv$[ebp]
	add	ecx, 64					; 00000040H
	mov	edx, DWORD PTR [eax]
	mov	DWORD PTR [ecx], edx
	mov	edx, DWORD PTR [eax+4]
	mov	DWORD PTR [ecx+4], edx
	mov	eax, DWORD PTR [eax+8]
	mov	DWORD PTR [ecx+8], eax

; 1015 : 
; 1016 : 	SWAP(pgv->v_forward.y, pgv->v_right.x, tmp);

	mov	eax, DWORD PTR _pgv$[ebp]
	movss	xmm0, DWORD PTR [eax+44]
	movss	DWORD PTR _tmp$[ebp], xmm0
	mov	ecx, DWORD PTR _pgv$[ebp]
	mov	edx, DWORD PTR _pgv$[ebp]
	mov	eax, DWORD PTR [edx+64]
	mov	DWORD PTR [ecx+44], eax
	mov	ecx, DWORD PTR _pgv$[ebp]
	movss	xmm0, DWORD PTR _tmp$[ebp]
	movss	DWORD PTR [ecx+64], xmm0

; 1017 : 	SWAP(pgv->v_forward.z, pgv->v_up.x, tmp);

	mov	eax, DWORD PTR _pgv$[ebp]
	movss	xmm0, DWORD PTR [eax+48]
	movss	DWORD PTR _tmp$[ebp], xmm0
	mov	ecx, DWORD PTR _pgv$[ebp]
	mov	edx, DWORD PTR _pgv$[ebp]
	mov	eax, DWORD PTR [edx+52]
	mov	DWORD PTR [ecx+48], eax
	mov	ecx, DWORD PTR _pgv$[ebp]
	movss	xmm0, DWORD PTR _tmp$[ebp]
	movss	DWORD PTR [ecx+52], xmm0

; 1018 : 	SWAP(pgv->v_right.z, pgv->v_up.y, tmp);

	mov	eax, DWORD PTR _pgv$[ebp]
	movss	xmm0, DWORD PTR [eax+72]
	movss	DWORD PTR _tmp$[ebp], xmm0
	mov	ecx, DWORD PTR _pgv$[ebp]
	mov	edx, DWORD PTR _pgv$[ebp]
	mov	eax, DWORD PTR [edx+56]
	mov	DWORD PTR [ecx+72], eax
	mov	ecx, DWORD PTR _pgv$[ebp]
	movss	xmm0, DWORD PTR _tmp$[ebp]
	movss	DWORD PTR [ecx+56], xmm0

; 1019 : }

	pop	edi
	pop	esi
	pop	ebx
	mov	esp, ebp
	pop	ebp
	ret	0
?UTIL_MakeInvVectors@@YAXABVVector@@PAUglobalvars_t@@@Z ENDP ; UTIL_MakeInvVectors
_TEXT	ENDS
; Function compile flags: /Odtp /ZI
; File d:\!diffusion 2020\source code 2022\client-server\server\util.cpp
;	COMDAT ?UTIL_MakeAimVectors@@YAXABVVector@@@Z
_TEXT	SEGMENT
_rgflVec$ = -16						; size = 12
__$ArrayPad$ = -4					; size = 4
_vecAngles$ = 8						; size = 4
?UTIL_MakeAimVectors@@YAXABVVector@@@Z PROC		; UTIL_MakeAimVectors, COMDAT

; 999  : {

	push	ebp
	mov	ebp, esp
	sub	esp, 80					; 00000050H
	mov	eax, DWORD PTR ___security_cookie
	xor	eax, ebp
	mov	DWORD PTR __$ArrayPad$[ebp], eax
	push	ebx
	push	esi
	push	edi

; 1000 : 	float rgflVec[3];
; 1001 : 	vecAngles.CopyToArray(rgflVec);

	lea	eax, DWORD PTR _rgflVec$[ebp]
	push	eax
	mov	ecx, DWORD PTR _vecAngles$[ebp]
	call	?CopyToArray@Vector@@QBEXPAM@Z		; Vector::CopyToArray

; 1002 : 	rgflVec[0] = -rgflVec[0];

	mov	eax, 4
	imul	ecx, eax, 0
	movss	xmm0, DWORD PTR _rgflVec$[ebp+ecx]
	xorps	xmm0, DWORD PTR __xmm@80000000800000008000000080000000
	mov	edx, 4
	imul	eax, edx, 0
	movss	DWORD PTR _rgflVec$[ebp+eax], xmm0

; 1003 : 	MAKE_VECTORS(rgflVec);

	lea	eax, DWORD PTR _rgflVec$[ebp]
	push	eax
	call	DWORD PTR ?g_engfuncs@@3Uenginefuncs_s@@A+76
	add	esp, 4

; 1004 : }

	pop	edi
	pop	esi
	pop	ebx
	mov	ecx, DWORD PTR __$ArrayPad$[ebp]
	xor	ecx, ebp
	call	@__security_check_cookie@4
	mov	esp, ebp
	pop	ebp
	ret	0
?UTIL_MakeAimVectors@@YAXABVVector@@@Z ENDP		; UTIL_MakeAimVectors
_TEXT	ENDS
; Function compile flags: /Odtp /ZI
; File d:\!diffusion 2020\source code 2022\client-server\server\util.h
;	COMDAT ?UTIL_MakeVectorsPrivate@@YAXABVVector@@PAM11@Z
_TEXT	SEGMENT
_vecAngles$ = 8						; size = 4
_p_vForward$ = 12					; size = 4
_p_vRight$ = 16						; size = 4
_p_vUp$ = 20						; size = 4
?UTIL_MakeVectorsPrivate@@YAXABVVector@@PAM11@Z PROC	; UTIL_MakeVectorsPrivate, COMDAT

; 354  : {

	push	ebp
	mov	ebp, esp
	sub	esp, 64					; 00000040H
	push	ebx
	push	esi
	push	edi

; 355  : 	g_engfuncs.pfnAngleVectors( vecAngles, p_vForward, p_vRight, p_vUp );

	mov	eax, DWORD PTR _p_vUp$[ebp]
	push	eax
	mov	ecx, DWORD PTR _p_vRight$[ebp]
	push	ecx
	mov	edx, DWORD PTR _p_vForward$[ebp]
	push	edx
	mov	ecx, DWORD PTR _vecAngles$[ebp]
	call	??BVector@@QBEPBMXZ			; Vector::operator float const *
	push	eax
	call	DWORD PTR ?g_engfuncs@@3Uenginefuncs_s@@A+80
	add	esp, 16					; 00000010H

; 356  : }

	pop	edi
	pop	esi
	pop	ebx
	mov	esp, ebp
	pop	ebp
	ret	0
?UTIL_MakeVectorsPrivate@@YAXABVVector@@PAM11@Z ENDP	; UTIL_MakeVectorsPrivate
_TEXT	ENDS
; Function compile flags: /Odtp /ZI
; File d:\!diffusion 2020\source code 2022\client-server\server\util.cpp
;	COMDAT ?UTIL_ButtonSound@@YAPBDH@Z
_TEXT	SEGMENT
tv66 = -76						; size = 4
_m_iSoundString$ = -8					; size = 4
_pszSound$ = -4						; size = 4
_sound$ = 8						; size = 4
?UTIL_ButtonSound@@YAPBDH@Z PROC			; UTIL_ButtonSound, COMDAT

; 352  : { 

	push	ebp
	mov	ebp, esp
	sub	esp, 76					; 0000004cH
	push	ebx
	push	esi
	push	edi

; 353  : 	const char *pszSound;
; 354  : 
; 355  : 	int m_iSoundString = UTIL_LoadSoundPreset( sound );

	mov	eax, DWORD PTR _sound$[ebp]
	push	eax
	call	?UTIL_LoadSoundPreset@@YAHH@Z		; UTIL_LoadSoundPreset
	add	esp, 4
	mov	DWORD PTR _m_iSoundString$[ebp], eax

; 356  : 
; 357  : 	switch( m_iSoundString )

	mov	eax, DWORD PTR _m_iSoundString$[ebp]
	mov	DWORD PTR tv66[ebp], eax
	cmp	DWORD PTR tv66[ebp], 25			; 00000019H
	ja	$LN24@UTIL_Butto
	mov	ecx, DWORD PTR tv66[ebp]
	jmp	DWORD PTR $LN26@UTIL_Butto[ecx*4]
$LN4@UTIL_Butto:

; 358  : 	{
; 359  : 	case 0: pszSound = "common/null.wav"; break;

	mov	DWORD PTR _pszSound$[ebp], OFFSET ??_C@_0BA@HKOJACLM@common?1null?4wav?$AA@
	jmp	$LN2@UTIL_Butto
$LN5@UTIL_Butto:

; 360  : 	case 1: pszSound = "buttons/button1.wav"; break;

	mov	DWORD PTR _pszSound$[ebp], OFFSET ??_C@_0BE@CAMCEHHF@buttons?1button1?4wav?$AA@
	jmp	$LN2@UTIL_Butto
$LN6@UTIL_Butto:

; 361  : 	case 2: pszSound = "buttons/button2.wav"; break;

	mov	DWORD PTR _pszSound$[ebp], OFFSET ??_C@_0BE@KGFGDFNL@buttons?1button2?4wav?$AA@
	jmp	$LN2@UTIL_Butto
$LN7@UTIL_Butto:

; 362  : 	case 3: pszSound = "buttons/button3.wav"; break;

	mov	DWORD PTR _pszSound$[ebp], OFFSET ??_C@_0BE@GNAKOGHO@buttons?1button3?4wav?$AA@
	jmp	$LN2@UTIL_Butto
$LN8@UTIL_Butto:

; 363  : 	case 4: pszSound = "buttons/button4.wav"; break;

	mov	DWORD PTR _pszSound$[ebp], OFFSET ??_C@_0BE@HAAPNGMG@buttons?1button4?4wav?$AA@
	jmp	$LN2@UTIL_Butto
$LN9@UTIL_Butto:

; 364  : 	case 5: pszSound = "buttons/button5.wav"; break;

	mov	DWORD PTR _pszSound$[ebp], OFFSET ??_C@_0BE@LLFDAFGD@buttons?1button5?4wav?$AA@
	jmp	$LN2@UTIL_Butto
$LN10@UTIL_Butto:

; 365  : 	case 6: pszSound = "buttons/button6.wav"; break;

	mov	DWORD PTR _pszSound$[ebp], OFFSET ??_C@_0BE@DNMHHHMN@buttons?1button6?4wav?$AA@
	jmp	$LN2@UTIL_Butto
$LN11@UTIL_Butto:

; 366  : 	case 7: pszSound = "buttons/button7.wav"; break;

	mov	DWORD PTR _pszSound$[ebp], OFFSET ??_C@_0BE@PGJLKEGI@buttons?1button7?4wav?$AA@
	jmp	$LN2@UTIL_Butto
$LN12@UTIL_Butto:

; 367  : 	case 8: pszSound = "buttons/button8.wav"; break;

	mov	DWORD PTR _pszSound$[ebp], OFFSET ??_C@_0BE@HMNBGLN@buttons?1button8?4wav?$AA@
	jmp	SHORT $LN2@UTIL_Butto
$LN13@UTIL_Butto:

; 368  : 	case 9: pszSound = "buttons/button9.wav"; break;

	mov	DWORD PTR _pszSound$[ebp], OFFSET ??_C@_0BE@MMJBMFBI@buttons?1button9?4wav?$AA@
	jmp	SHORT $LN2@UTIL_Butto
$LN14@UTIL_Butto:

; 369  : 	case 10: pszSound = "buttons/button10.wav"; break;

	mov	DWORD PTR _pszSound$[ebp], OFFSET ??_C@_0BF@DJOOOKGD@buttons?1button10?4wav?$AA@
	jmp	SHORT $LN2@UTIL_Butto
$LN15@UTIL_Butto:

; 370  : 	case 11: pszSound = "buttons/button11.wav"; break;

	mov	DWORD PTR _pszSound$[ebp], OFFSET ??_C@_0BF@PCLCDJMG@buttons?1button11?4wav?$AA@
	jmp	SHORT $LN2@UTIL_Butto
$LN16@UTIL_Butto:

; 371  : 	case 12: pszSound = "buttons/latchlocked1.wav"; break;

	mov	DWORD PTR _pszSound$[ebp], OFFSET ??_C@_0BJ@NJGHAHDG@buttons?1latchlocked1?4wav?$AA@
	jmp	SHORT $LN2@UTIL_Butto
$LN17@UTIL_Butto:

; 372  : 	case 13: pszSound = "buttons/latchunlocked1.wav";	break;

	mov	DWORD PTR _pszSound$[ebp], OFFSET ??_C@_0BL@KIJJHNJN@buttons?1latchunlocked1?4wav?$AA@
	jmp	SHORT $LN2@UTIL_Butto
$LN18@UTIL_Butto:

; 373  : 	case 14: pszSound = "buttons/lightswitch2.wav"; break;

	mov	DWORD PTR _pszSound$[ebp], OFFSET ??_C@_0BJ@BHFHBCLE@buttons?1lightswitch2?4wav?$AA@
	jmp	SHORT $LN2@UTIL_Butto
$LN19@UTIL_Butto:

; 374  : 
; 375  : // next 6 slots reserved for any additional sliding button sounds we may add
; 376  : 	
; 377  : 	case 21: pszSound = "buttons/lever1.wav"; break;

	mov	DWORD PTR _pszSound$[ebp], OFFSET ??_C@_0BD@ENNHPNKC@buttons?1lever1?4wav?$AA@
	jmp	SHORT $LN2@UTIL_Butto
$LN20@UTIL_Butto:

; 378  : 	case 22: pszSound = "buttons/lever2.wav"; break;

	mov	DWORD PTR _pszSound$[ebp], OFFSET ??_C@_0BD@MLEDIPAM@buttons?1lever2?4wav?$AA@
	jmp	SHORT $LN2@UTIL_Butto
$LN21@UTIL_Butto:

; 379  : 	case 23: pszSound = "buttons/lever3.wav"; break;

	mov	DWORD PTR _pszSound$[ebp], OFFSET ??_C@_0BD@BPFMKJ@buttons?1lever3?4wav?$AA@
	jmp	SHORT $LN2@UTIL_Butto
$LN22@UTIL_Butto:

; 380  : 	case 24: pszSound = "buttons/lever4.wav"; break;

	mov	DWORD PTR _pszSound$[ebp], OFFSET ??_C@_0BD@BNBKGMBB@buttons?1lever4?4wav?$AA@
	jmp	SHORT $LN2@UTIL_Butto
$LN23@UTIL_Butto:

; 381  : 	case 25: pszSound = "buttons/lever5.wav"; break;

	mov	DWORD PTR _pszSound$[ebp], OFFSET ??_C@_0BD@NGEGLPLE@buttons?1lever5?4wav?$AA@
	jmp	SHORT $LN2@UTIL_Butto
$LN24@UTIL_Butto:

; 382  : 	default: pszSound = STRING( UTIL_PrecacheSound( m_iSoundString )); break;

	mov	eax, DWORD PTR _m_iSoundString$[ebp]
	push	eax
	call	?UTIL_PrecacheSound@@YAHH@Z		; UTIL_PrecacheSound
	add	esp, 4
	push	eax
	call	DWORD PTR ?g_engfuncs@@3Uenginefuncs_s@@A+264
	add	esp, 4
	mov	DWORD PTR _pszSound$[ebp], eax
$LN2@UTIL_Butto:

; 383  : 	}
; 384  : 
; 385  : 	return pszSound;

	mov	eax, DWORD PTR _pszSound$[ebp]

; 386  : }

	pop	edi
	pop	esi
	pop	ebx
	mov	esp, ebp
	pop	ebp
	ret	0
	npad	3
$LN26@UTIL_Butto:
	DD	$LN4@UTIL_Butto
	DD	$LN5@UTIL_Butto
	DD	$LN6@UTIL_Butto
	DD	$LN7@UTIL_Butto
	DD	$LN8@UTIL_Butto
	DD	$LN9@UTIL_Butto
	DD	$LN10@UTIL_Butto
	DD	$LN11@UTIL_Butto
	DD	$LN12@UTIL_Butto
	DD	$LN13@UTIL_Butto
	DD	$LN14@UTIL_Butto
	DD	$LN15@UTIL_Butto
	DD	$LN16@UTIL_Butto
	DD	$LN17@UTIL_Butto
	DD	$LN18@UTIL_Butto
	DD	$LN24@UTIL_Butto
	DD	$LN24@UTIL_Butto
	DD	$LN24@UTIL_Butto
	DD	$LN24@UTIL_Butto
	DD	$LN24@UTIL_Butto
	DD	$LN24@UTIL_Butto
	DD	$LN19@UTIL_Butto
	DD	$LN20@UTIL_Butto
	DD	$LN21@UTIL_Butto
	DD	$LN22@UTIL_Butto
	DD	$LN23@UTIL_Butto
?UTIL_ButtonSound@@YAPBDH@Z ENDP			; UTIL_ButtonSound
_TEXT	ENDS
; Function compile flags: /Odtp /ZI
; File d:\!diffusion 2020\source code 2022\client-server\server\util.cpp
;	COMDAT ?UTIL_EntitiesInBox@@YAHPAPAVCBaseEntity@@HABVVector@@1H@Z
_TEXT	SEGMENT
_i$1 = -16						; size = 4
_count$ = -12						; size = 4
_pEntity$ = -8						; size = 4
_pEdict$ = -4						; size = 4
_pList$ = 8						; size = 4
_listMax$ = 12						; size = 4
_mins$ = 16						; size = 4
_maxs$ = 20						; size = 4
_flagMask$ = 24						; size = 4
?UTIL_EntitiesInBox@@YAHPAPAVCBaseEntity@@HABVVector@@1H@Z PROC ; UTIL_EntitiesInBox, COMDAT

; 676  : {

	push	ebp
	mov	ebp, esp
	sub	esp, 80					; 00000050H
	push	ebx
	push	esi
	push	edi

; 677  : 	edict_t *pEdict = INDEXENT( 1 );

	push	1
	call	?INDEXENT@@YAPAUedict_s@@H@Z		; INDEXENT
	add	esp, 4
	mov	DWORD PTR _pEdict$[ebp], eax

; 678  : 	CBaseEntity *pEntity;
; 679  : 	int count = 0;

	mov	DWORD PTR _count$[ebp], 0

; 680  : 
; 681  : 	if ( !pEdict )

	cmp	DWORD PTR _pEdict$[ebp], 0
	jne	SHORT $LN5@UTIL_Entit

; 682  : 		return count;

	mov	eax, DWORD PTR _count$[ebp]
	jmp	$LN1@UTIL_Entit
$LN5@UTIL_Entit:

; 683  : 
; 684  : 	for ( int i = 1; i < gpGlobals->maxEntities; i++, pEdict++ )

	mov	DWORD PTR _i$1[ebp], 1
	jmp	SHORT $LN4@UTIL_Entit
$LN2@UTIL_Entit:
	mov	eax, DWORD PTR _i$1[ebp]
	add	eax, 1
	mov	DWORD PTR _i$1[ebp], eax
	mov	ecx, DWORD PTR _pEdict$[ebp]
	add	ecx, 804				; 00000324H
	mov	DWORD PTR _pEdict$[ebp], ecx
$LN4@UTIL_Entit:
	mov	eax, DWORD PTR ?gpGlobals@@3PAUglobalvars_t@@A ; gpGlobals
	mov	ecx, DWORD PTR _i$1[ebp]
	cmp	ecx, DWORD PTR [eax+148]
	jge	$LN3@UTIL_Entit

; 685  : 	{
; 686  : 		if ( pEdict->free )	// Not in use

	mov	eax, DWORD PTR _pEdict$[ebp]
	cmp	DWORD PTR [eax], 0
	je	SHORT $LN6@UTIL_Entit

; 687  : 			continue;

	jmp	SHORT $LN2@UTIL_Entit
$LN6@UTIL_Entit:

; 688  : 		
; 689  : 		if ( flagMask && !(pEdict->v.flags & flagMask) )	// Does it meet the criteria?

	cmp	DWORD PTR _flagMask$[ebp], 0
	je	SHORT $LN7@UTIL_Entit
	mov	eax, DWORD PTR _pEdict$[ebp]
	mov	ecx, DWORD PTR [eax+548]
	and	ecx, DWORD PTR _flagMask$[ebp]
	jne	SHORT $LN7@UTIL_Entit

; 690  : 			continue;

	jmp	SHORT $LN2@UTIL_Entit
$LN7@UTIL_Entit:

; 691  : 
; 692  : 		if ( mins.x > pEdict->v.absmax.x ||
; 693  : 			 mins.y > pEdict->v.absmax.y ||
; 694  : 			 mins.z > pEdict->v.absmax.z ||
; 695  : 			 maxs.x < pEdict->v.absmin.x ||
; 696  : 			 maxs.y < pEdict->v.absmin.y ||

	mov	eax, DWORD PTR _mins$[ebp]
	mov	ecx, DWORD PTR _pEdict$[ebp]
	movss	xmm0, DWORD PTR [eax]
	comiss	xmm0, DWORD PTR [ecx+336]
	ja	SHORT $LN9@UTIL_Entit
	mov	eax, DWORD PTR _mins$[ebp]
	mov	ecx, DWORD PTR _pEdict$[ebp]
	movss	xmm0, DWORD PTR [eax+4]
	comiss	xmm0, DWORD PTR [ecx+340]
	ja	SHORT $LN9@UTIL_Entit
	mov	eax, DWORD PTR _mins$[ebp]
	mov	ecx, DWORD PTR _pEdict$[ebp]
	movss	xmm0, DWORD PTR [eax+8]
	comiss	xmm0, DWORD PTR [ecx+344]
	ja	SHORT $LN9@UTIL_Entit
	mov	eax, DWORD PTR _pEdict$[ebp]
	mov	ecx, DWORD PTR _maxs$[ebp]
	movss	xmm0, DWORD PTR [eax+324]
	comiss	xmm0, DWORD PTR [ecx]
	ja	SHORT $LN9@UTIL_Entit
	mov	eax, DWORD PTR _pEdict$[ebp]
	mov	ecx, DWORD PTR _maxs$[ebp]
	movss	xmm0, DWORD PTR [eax+328]
	comiss	xmm0, DWORD PTR [ecx+4]
	ja	SHORT $LN9@UTIL_Entit
	mov	eax, DWORD PTR _pEdict$[ebp]
	mov	ecx, DWORD PTR _maxs$[ebp]
	movss	xmm0, DWORD PTR [eax+332]
	comiss	xmm0, DWORD PTR [ecx+8]
	jbe	SHORT $LN8@UTIL_Entit
$LN9@UTIL_Entit:

; 697  : 			 maxs.z < pEdict->v.absmin.z )
; 698  : 			 continue;

	jmp	$LN2@UTIL_Entit
$LN8@UTIL_Entit:

; 699  : 
; 700  : 		pEntity = CBaseEntity::Instance(pEdict);

	mov	eax, DWORD PTR _pEdict$[ebp]
	push	eax
	call	?Instance@CBaseEntity@@SAPAV1@PAUedict_s@@@Z ; CBaseEntity::Instance
	add	esp, 4
	mov	DWORD PTR _pEntity$[ebp], eax

; 701  : 		if ( !pEntity )

	cmp	DWORD PTR _pEntity$[ebp], 0
	jne	SHORT $LN10@UTIL_Entit

; 702  : 			continue;

	jmp	$LN2@UTIL_Entit
$LN10@UTIL_Entit:

; 703  : 
; 704  : 		pList[ count ] = pEntity;

	mov	eax, DWORD PTR _count$[ebp]
	mov	ecx, DWORD PTR _pList$[ebp]
	mov	edx, DWORD PTR _pEntity$[ebp]
	mov	DWORD PTR [ecx+eax*4], edx

; 705  : 		count++;

	mov	eax, DWORD PTR _count$[ebp]
	add	eax, 1
	mov	DWORD PTR _count$[ebp], eax

; 706  : 
; 707  : 		if ( count >= listMax )

	mov	eax, DWORD PTR _count$[ebp]
	cmp	eax, DWORD PTR _listMax$[ebp]
	jl	SHORT $LN11@UTIL_Entit

; 708  : 			return count;

	mov	eax, DWORD PTR _count$[ebp]
	jmp	SHORT $LN1@UTIL_Entit
$LN11@UTIL_Entit:

; 709  : 	}

	jmp	$LN2@UTIL_Entit
$LN3@UTIL_Entit:

; 710  : 
; 711  : 	return count;

	mov	eax, DWORD PTR _count$[ebp]
$LN1@UTIL_Entit:

; 712  : }

	pop	edi
	pop	esi
	pop	ebx
	mov	esp, ebp
	pop	ebp
	ret	0
?UTIL_EntitiesInBox@@YAHPAPAVCBaseEntity@@HABVVector@@1H@Z ENDP ; UTIL_EntitiesInBox
_TEXT	ENDS
; Function compile flags: /Odtp /ZI
; File d:\!diffusion 2020\source code 2022\client-server\server\util.cpp
;	COMDAT ?UTIL_MonstersInSphere@@YAHPAPAVCBaseEntity@@HABVVector@@M@Z
_TEXT	SEGMENT
_i$1 = -28						; size = 4
_radiusSquared$ = -24					; size = 4
_delta$ = -20						; size = 4
_distance$ = -16					; size = 4
_count$ = -12						; size = 4
_pEntity$ = -8						; size = 4
_pEdict$ = -4						; size = 4
_pList$ = 8						; size = 4
_listMax$ = 12						; size = 4
_center$ = 16						; size = 4
_radius$ = 20						; size = 4
?UTIL_MonstersInSphere@@YAHPAPAVCBaseEntity@@HABVVector@@M@Z PROC ; UTIL_MonstersInSphere, COMDAT

; 716  : {

	push	ebp
	mov	ebp, esp
	sub	esp, 92					; 0000005cH
	push	ebx
	push	esi
	push	edi

; 717  : 	edict_t *pEdict = INDEXENT( 1 );

	push	1
	call	?INDEXENT@@YAPAUedict_s@@H@Z		; INDEXENT
	add	esp, 4
	mov	DWORD PTR _pEdict$[ebp], eax

; 718  : 	CBaseEntity *pEntity;
; 719  : 	int count = 0;

	mov	DWORD PTR _count$[ebp], 0

; 720  : 	float distance, delta;
; 721  : 	float radiusSquared = radius * radius;

	movss	xmm0, DWORD PTR _radius$[ebp]
	mulss	xmm0, DWORD PTR _radius$[ebp]
	movss	DWORD PTR _radiusSquared$[ebp], xmm0

; 722  : 
; 723  : 	if ( !pEdict )

	cmp	DWORD PTR _pEdict$[ebp], 0
	jne	SHORT $LN5@UTIL_Monst

; 724  : 		return count;

	mov	eax, DWORD PTR _count$[ebp]
	jmp	$LN1@UTIL_Monst
$LN5@UTIL_Monst:

; 725  : 
; 726  : 	for ( int i = 1; i < gpGlobals->maxEntities; i++, pEdict++ )

	mov	DWORD PTR _i$1[ebp], 1
	jmp	SHORT $LN4@UTIL_Monst
$LN2@UTIL_Monst:
	mov	eax, DWORD PTR _i$1[ebp]
	add	eax, 1
	mov	DWORD PTR _i$1[ebp], eax
	mov	ecx, DWORD PTR _pEdict$[ebp]
	add	ecx, 804				; 00000324H
	mov	DWORD PTR _pEdict$[ebp], ecx
$LN4@UTIL_Monst:
	mov	eax, DWORD PTR ?gpGlobals@@3PAUglobalvars_t@@A ; gpGlobals
	mov	ecx, DWORD PTR _i$1[ebp]
	cmp	ecx, DWORD PTR [eax+148]
	jge	$LN3@UTIL_Monst

; 727  : 	{
; 728  : 		if ( pEdict->free )	// Not in use

	mov	eax, DWORD PTR _pEdict$[ebp]
	cmp	DWORD PTR [eax], 0
	je	SHORT $LN6@UTIL_Monst

; 729  : 			continue;

	jmp	SHORT $LN2@UTIL_Monst
$LN6@UTIL_Monst:

; 730  : 		
; 731  : 		if ( !(pEdict->v.flags & (FL_CLIENT|FL_MONSTER)) )	// Not a client/monster ?

	mov	eax, DWORD PTR _pEdict$[ebp]
	mov	ecx, DWORD PTR [eax+548]
	and	ecx, 40					; 00000028H
	jne	SHORT $LN7@UTIL_Monst

; 732  : 			continue;

	jmp	SHORT $LN2@UTIL_Monst
$LN7@UTIL_Monst:

; 733  : 
; 734  : 		// Use origin for X & Y since they are centered for all monsters
; 735  : 		// Now X
; 736  : 		delta = center.x - pEdict->v.origin.x;//(pEdict->v.absmin.x + pEdict->v.absmax.x)*0.5;

	mov	eax, DWORD PTR _center$[ebp]
	mov	ecx, DWORD PTR _pEdict$[ebp]
	movss	xmm0, DWORD PTR [eax]
	subss	xmm0, DWORD PTR [ecx+136]
	movss	DWORD PTR _delta$[ebp], xmm0

; 737  : 		delta *= delta;

	movss	xmm0, DWORD PTR _delta$[ebp]
	mulss	xmm0, DWORD PTR _delta$[ebp]
	movss	DWORD PTR _delta$[ebp], xmm0

; 738  : 
; 739  : 		if ( delta > radiusSquared )

	movss	xmm0, DWORD PTR _delta$[ebp]
	comiss	xmm0, DWORD PTR _radiusSquared$[ebp]
	jbe	SHORT $LN8@UTIL_Monst

; 740  : 			continue;

	jmp	SHORT $LN2@UTIL_Monst
$LN8@UTIL_Monst:

; 741  : 		distance = delta;

	movss	xmm0, DWORD PTR _delta$[ebp]
	movss	DWORD PTR _distance$[ebp], xmm0

; 742  : 		
; 743  : 		// Now Y
; 744  : 		delta = center.y - pEdict->v.origin.y;//(pEdict->v.absmin.y + pEdict->v.absmax.y)*0.5;

	mov	eax, DWORD PTR _center$[ebp]
	mov	ecx, DWORD PTR _pEdict$[ebp]
	movss	xmm0, DWORD PTR [eax+4]
	subss	xmm0, DWORD PTR [ecx+140]
	movss	DWORD PTR _delta$[ebp], xmm0

; 745  : 		delta *= delta;

	movss	xmm0, DWORD PTR _delta$[ebp]
	mulss	xmm0, DWORD PTR _delta$[ebp]
	movss	DWORD PTR _delta$[ebp], xmm0

; 746  : 
; 747  : 		distance += delta;

	movss	xmm0, DWORD PTR _distance$[ebp]
	addss	xmm0, DWORD PTR _delta$[ebp]
	movss	DWORD PTR _distance$[ebp], xmm0

; 748  : 		if ( distance > radiusSquared )

	movss	xmm0, DWORD PTR _distance$[ebp]
	comiss	xmm0, DWORD PTR _radiusSquared$[ebp]
	jbe	SHORT $LN9@UTIL_Monst

; 749  : 			continue;

	jmp	$LN2@UTIL_Monst
$LN9@UTIL_Monst:

; 750  : 
; 751  : 		// Now Z
; 752  : 		delta = center.z - (pEdict->v.absmin.z + pEdict->v.absmax.z)*0.5;

	mov	eax, DWORD PTR _center$[ebp]
	cvtss2sd xmm0, DWORD PTR [eax+8]
	mov	ecx, DWORD PTR _pEdict$[ebp]
	mov	edx, DWORD PTR _pEdict$[ebp]
	movss	xmm1, DWORD PTR [ecx+332]
	addss	xmm1, DWORD PTR [edx+344]
	cvtss2sd xmm1, xmm1
	mulsd	xmm1, QWORD PTR __real@3fe0000000000000
	subsd	xmm0, xmm1
	cvtsd2ss xmm0, xmm0
	movss	DWORD PTR _delta$[ebp], xmm0

; 753  : 		delta *= delta;

	movss	xmm0, DWORD PTR _delta$[ebp]
	mulss	xmm0, DWORD PTR _delta$[ebp]
	movss	DWORD PTR _delta$[ebp], xmm0

; 754  : 
; 755  : 		distance += delta;

	movss	xmm0, DWORD PTR _distance$[ebp]
	addss	xmm0, DWORD PTR _delta$[ebp]
	movss	DWORD PTR _distance$[ebp], xmm0

; 756  : 		if ( distance > radiusSquared )

	movss	xmm0, DWORD PTR _distance$[ebp]
	comiss	xmm0, DWORD PTR _radiusSquared$[ebp]
	jbe	SHORT $LN10@UTIL_Monst

; 757  : 			continue;

	jmp	$LN2@UTIL_Monst
$LN10@UTIL_Monst:

; 758  : 
; 759  : 		pEntity = CBaseEntity::Instance(pEdict);

	mov	eax, DWORD PTR _pEdict$[ebp]
	push	eax
	call	?Instance@CBaseEntity@@SAPAV1@PAUedict_s@@@Z ; CBaseEntity::Instance
	add	esp, 4
	mov	DWORD PTR _pEntity$[ebp], eax

; 760  : 		if ( !pEntity )

	cmp	DWORD PTR _pEntity$[ebp], 0
	jne	SHORT $LN11@UTIL_Monst

; 761  : 			continue;

	jmp	$LN2@UTIL_Monst
$LN11@UTIL_Monst:

; 762  : 
; 763  : 		pList[ count ] = pEntity;

	mov	eax, DWORD PTR _count$[ebp]
	mov	ecx, DWORD PTR _pList$[ebp]
	mov	edx, DWORD PTR _pEntity$[ebp]
	mov	DWORD PTR [ecx+eax*4], edx

; 764  : 		count++;

	mov	eax, DWORD PTR _count$[ebp]
	add	eax, 1
	mov	DWORD PTR _count$[ebp], eax

; 765  : 
; 766  : 		if ( count >= listMax )

	mov	eax, DWORD PTR _count$[ebp]
	cmp	eax, DWORD PTR _listMax$[ebp]
	jl	SHORT $LN12@UTIL_Monst

; 767  : 			return count;

	mov	eax, DWORD PTR _count$[ebp]
	jmp	SHORT $LN1@UTIL_Monst
$LN12@UTIL_Monst:

; 768  : 	}

	jmp	$LN2@UTIL_Monst
$LN3@UTIL_Monst:

; 769  : 
; 770  : 	return count;

	mov	eax, DWORD PTR _count$[ebp]
$LN1@UTIL_Monst:

; 771  : }

	pop	edi
	pop	esi
	pop	ebx
	mov	esp, ebp
	pop	ebp
	ret	0
?UTIL_MonstersInSphere@@YAHPAPAVCBaseEntity@@HABVVector@@M@Z ENDP ; UTIL_MonstersInSphere
_TEXT	ENDS
; Function compile flags: /Odtp /ZI
; File d:\!diffusion 2020\source code 2022\client-server\server\util.cpp
;	COMDAT ?UTIL_MakeVectors@@YAXABVVector@@@Z
_TEXT	SEGMENT
_vecAngles$ = 8						; size = 4
?UTIL_MakeVectors@@YAXABVVector@@@Z PROC		; UTIL_MakeVectors, COMDAT

; 993  : {

	push	ebp
	mov	ebp, esp
	sub	esp, 64					; 00000040H
	push	ebx
	push	esi
	push	edi

; 994  : 	MAKE_VECTORS( vecAngles );

	mov	ecx, DWORD PTR _vecAngles$[ebp]
	call	??BVector@@QBEPBMXZ			; Vector::operator float const *
	push	eax
	call	DWORD PTR ?g_engfuncs@@3Uenginefuncs_s@@A+76
	add	esp, 4

; 995  : }

	pop	edi
	pop	esi
	pop	ebx
	mov	esp, ebp
	pop	ebp
	ret	0
?UTIL_MakeVectors@@YAXABVVector@@@Z ENDP		; UTIL_MakeVectors
_TEXT	ENDS
; Function compile flags: /Odtp /ZI
; File d:\!diffusion 2020\source code 2022\client-server\server\util.cpp
;	COMDAT ?UTIL_PlayerByIndex@@YAPAVCBaseEntity@@H@Z
_TEXT	SEGMENT
_pPlayerEdict$1 = -8					; size = 4
_pPlayer$ = -4						; size = 4
_playerIndex$ = 8					; size = 4
?UTIL_PlayerByIndex@@YAPAVCBaseEntity@@H@Z PROC		; UTIL_PlayerByIndex, COMDAT

; 976  : {

	push	ebp
	mov	ebp, esp
	sub	esp, 72					; 00000048H
	push	ebx
	push	esi
	push	edi

; 977  : 	CBaseEntity *pPlayer = NULL;

	mov	DWORD PTR _pPlayer$[ebp], 0

; 978  : 
; 979  : 	if ( playerIndex > 0 && playerIndex <= gpGlobals->maxClients )

	cmp	DWORD PTR _playerIndex$[ebp], 0
	jle	SHORT $LN2@UTIL_Playe
	mov	eax, DWORD PTR ?gpGlobals@@3PAUglobalvars_t@@A ; gpGlobals
	mov	ecx, DWORD PTR _playerIndex$[ebp]
	cmp	ecx, DWORD PTR [eax+144]
	jg	SHORT $LN2@UTIL_Playe

; 980  : 	{
; 981  : 		edict_t *pPlayerEdict = INDEXENT( playerIndex );

	mov	eax, DWORD PTR _playerIndex$[ebp]
	push	eax
	call	?INDEXENT@@YAPAUedict_s@@H@Z		; INDEXENT
	add	esp, 4
	mov	DWORD PTR _pPlayerEdict$1[ebp], eax

; 982  : 		if ( pPlayerEdict && !pPlayerEdict->free )

	cmp	DWORD PTR _pPlayerEdict$1[ebp], 0
	je	SHORT $LN2@UTIL_Playe
	mov	eax, DWORD PTR _pPlayerEdict$1[ebp]
	cmp	DWORD PTR [eax], 0
	jne	SHORT $LN2@UTIL_Playe

; 983  : 		{
; 984  : 			pPlayer = CBaseEntity::Instance( pPlayerEdict );

	mov	eax, DWORD PTR _pPlayerEdict$1[ebp]
	push	eax
	call	?Instance@CBaseEntity@@SAPAV1@PAUedict_s@@@Z ; CBaseEntity::Instance
	add	esp, 4
	mov	DWORD PTR _pPlayer$[ebp], eax
$LN2@UTIL_Playe:

; 985  : 		}
; 986  : 	}
; 987  : 	
; 988  : 	return pPlayer;

	mov	eax, DWORD PTR _pPlayer$[ebp]

; 989  : }

	pop	edi
	pop	esi
	pop	ebx
	mov	esp, ebp
	pop	ebp
	ret	0
?UTIL_PlayerByIndex@@YAPAVCBaseEntity@@H@Z ENDP		; UTIL_PlayerByIndex
_TEXT	ENDS
; Function compile flags: /Odtp /ZI
; File d:\!diffusion 2020\source code 2022\client-server\server\util.cpp
;	COMDAT ?UTIL_FindEntityByMonsterTarget@@YAPAVCBaseEntity@@PAV1@PBD@Z
_TEXT	SEGMENT
_pMonster$1 = -12					; size = 4
_pEdict$2 = -8						; size = 4
_e$ = -4						; size = 4
_pStartEntity$ = 8					; size = 4
_szName$ = 12						; size = 4
?UTIL_FindEntityByMonsterTarget@@YAPAVCBaseEntity@@PAV1@PBD@Z PROC ; UTIL_FindEntityByMonsterTarget, COMDAT

; 920  : {

	push	ebp
	mov	ebp, esp
	sub	esp, 76					; 0000004cH
	push	ebx
	push	esi
	push	edi

; 921  : 	if( !szName || !*szName )

	cmp	DWORD PTR _szName$[ebp], 0
	je	SHORT $LN6@UTIL_FindE
	mov	eax, DWORD PTR _szName$[ebp]
	movsx	ecx, BYTE PTR [eax]
	test	ecx, ecx
	jne	SHORT $LN5@UTIL_FindE
$LN6@UTIL_FindE:

; 922  : 		return NULL;

	xor	eax, eax
	jmp	$LN1@UTIL_FindE
$LN5@UTIL_FindE:

; 923  : 
; 924  : 	int e = 0;

	mov	DWORD PTR _e$[ebp], 0

; 925  : 
; 926  : 	if (pStartEntity)

	cmp	DWORD PTR _pStartEntity$[ebp], 0
	je	SHORT $LN7@UTIL_FindE

; 927  : 		e = pStartEntity->entindex();

	mov	ecx, DWORD PTR _pStartEntity$[ebp]
	call	?entindex@CBaseEntity@@QAEHXZ		; CBaseEntity::entindex
	mov	DWORD PTR _e$[ebp], eax
$LN7@UTIL_FindE:

; 928  : 
; 929  : 	for ( e++; e < gpGlobals->maxEntities; e++ )

	mov	eax, DWORD PTR _e$[ebp]
	add	eax, 1
	mov	DWORD PTR _e$[ebp], eax
	jmp	SHORT $LN4@UTIL_FindE
$LN2@UTIL_FindE:
	mov	eax, DWORD PTR _e$[ebp]
	add	eax, 1
	mov	DWORD PTR _e$[ebp], eax
$LN4@UTIL_FindE:
	mov	eax, DWORD PTR ?gpGlobals@@3PAUglobalvars_t@@A ; gpGlobals
	mov	ecx, DWORD PTR _e$[ebp]
	cmp	ecx, DWORD PTR [eax+148]
	jge	SHORT $LN3@UTIL_FindE

; 930  : 	{
; 931  : 		edict_t *pEdict = INDEXENT( e );

	mov	eax, DWORD PTR _e$[ebp]
	push	eax
	call	?INDEXENT@@YAPAUedict_s@@H@Z		; INDEXENT
	add	esp, 4
	mov	DWORD PTR _pEdict$2[ebp], eax

; 932  : 
; 933  : 		if( !pEdict || pEdict->free )	// Not in use

	cmp	DWORD PTR _pEdict$2[ebp], 0
	je	SHORT $LN9@UTIL_FindE
	mov	eax, DWORD PTR _pEdict$2[ebp]
	cmp	DWORD PTR [eax], 0
	je	SHORT $LN8@UTIL_FindE
$LN9@UTIL_FindE:

; 934  : 			continue;

	jmp	SHORT $LN2@UTIL_FindE
$LN8@UTIL_FindE:

; 935  : 
; 936  : 		CBaseMonster *pMonster = CBaseEntity::GetMonsterPointer( pEdict );

	mov	eax, DWORD PTR _pEdict$2[ebp]
	push	eax
	call	?GetMonsterPointer@CBaseEntity@@SAPAVCBaseMonster@@PAUedict_s@@@Z ; CBaseEntity::GetMonsterPointer
	add	esp, 4
	mov	DWORD PTR _pMonster$1[ebp], eax

; 937  : 
; 938  : 		if( !pMonster )

	cmp	DWORD PTR _pMonster$1[ebp], 0
	jne	SHORT $LN10@UTIL_FindE

; 939  : 			continue;

	jmp	SHORT $LN2@UTIL_FindE
$LN10@UTIL_FindE:

; 940  : 
; 941  : 		if( !Q_strcmp( szName, STRING( pMonster->m_iszTriggerTarget )) )

	push	99999					; 0001869fH
	mov	eax, DWORD PTR _pMonster$1[ebp]
	mov	ecx, DWORD PTR [eax+2420]
	push	ecx
	call	DWORD PTR ?g_engfuncs@@3Uenginefuncs_s@@A+264
	add	esp, 4
	push	eax
	mov	edx, DWORD PTR _szName$[ebp]
	push	edx
	call	?Q_strncmp@@YAHPBD0H@Z			; Q_strncmp
	add	esp, 12					; 0000000cH
	test	eax, eax
	jne	SHORT $LN11@UTIL_FindE

; 942  : 			return pMonster;

	mov	eax, DWORD PTR _pMonster$1[ebp]
	jmp	SHORT $LN1@UTIL_FindE
$LN11@UTIL_FindE:

; 943  : 	}

	jmp	SHORT $LN2@UTIL_FindE
$LN3@UTIL_FindE:

; 944  : 
; 945  : 	return NULL;

	xor	eax, eax
$LN1@UTIL_FindE:

; 946  : }

	pop	edi
	pop	esi
	pop	ebx
	mov	esp, ebp
	pop	ebp
	ret	0
?UTIL_FindEntityByMonsterTarget@@YAPAVCBaseEntity@@PAV1@PBD@Z ENDP ; UTIL_FindEntityByMonsterTarget
_TEXT	ENDS
; Function compile flags: /Odtp /ZI
; File d:\!diffusion 2020\source code 2022\client-server\server\util.cpp
;	COMDAT ?UTIL_FindEntityByTarget@@YAPAVCBaseEntity@@PAV1@PBD@Z
_TEXT	SEGMENT
_pStartEntity$ = 8					; size = 4
_szName$ = 12						; size = 4
?UTIL_FindEntityByTarget@@YAPAVCBaseEntity@@PAV1@PBD@Z PROC ; UTIL_FindEntityByTarget, COMDAT

; 915  : {

	push	ebp
	mov	ebp, esp
	sub	esp, 64					; 00000040H
	push	ebx
	push	esi
	push	edi

; 916  : 	return UTIL_FindEntityByString( pStartEntity, "target", szName );

	mov	eax, DWORD PTR _szName$[ebp]
	push	eax
	push	OFFSET ??_C@_06JJLAMBGK@target?$AA@
	mov	ecx, DWORD PTR _pStartEntity$[ebp]
	push	ecx
	call	?UTIL_FindEntityByString@@YAPAVCBaseEntity@@PAV1@PBD1@Z ; UTIL_FindEntityByString
	add	esp, 12					; 0000000cH

; 917  : }

	pop	edi
	pop	esi
	pop	ebx
	mov	esp, ebp
	pop	ebp
	ret	0
?UTIL_FindEntityByTarget@@YAPAVCBaseEntity@@PAV1@PBD@Z ENDP ; UTIL_FindEntityByTarget
_TEXT	ENDS
; Function compile flags: /Odtp /ZI
; File d:\!diffusion 2020\source code 2022\client-server\server\util.cpp
;	COMDAT ?UTIL_FindEntityGeneric@@YAPAVCBaseEntity@@PBDABVVector@@M@Z
_TEXT	SEGMENT
$T1 = -92						; size = 12
_flDist2$2 = -16					; size = 4
_flMaxDist2$ = -12					; size = 4
_pSearch$ = -8						; size = 4
_pEntity$ = -4						; size = 4
_szWhatever$ = 8					; size = 4
_vecSrc$ = 12						; size = 4
_flRadius$ = 16						; size = 4
?UTIL_FindEntityGeneric@@YAPAVCBaseEntity@@PBDABVVector@@M@Z PROC ; UTIL_FindEntityGeneric, COMDAT

; 949  : {

	push	ebp
	mov	ebp, esp
	sub	esp, 92					; 0000005cH
	push	ebx
	push	esi
	push	edi

; 950  : 	CBaseEntity *pEntity = NULL;

	mov	DWORD PTR _pEntity$[ebp], 0

; 951  : 
; 952  : 	pEntity = UTIL_FindEntityByTargetname( NULL, szWhatever );

	mov	eax, DWORD PTR _szWhatever$[ebp]
	push	eax
	push	0
	call	?UTIL_FindEntityByTargetname@@YAPAVCBaseEntity@@PAV1@PBD@Z ; UTIL_FindEntityByTargetname
	add	esp, 8
	mov	DWORD PTR _pEntity$[ebp], eax

; 953  : 	if (pEntity)

	cmp	DWORD PTR _pEntity$[ebp], 0
	je	SHORT $LN4@UTIL_FindE

; 954  : 		return pEntity;

	mov	eax, DWORD PTR _pEntity$[ebp]
	jmp	SHORT $LN1@UTIL_FindE
$LN4@UTIL_FindE:

; 955  : 
; 956  : 	CBaseEntity *pSearch = NULL;

	mov	DWORD PTR _pSearch$[ebp], 0

; 957  : 	float flMaxDist2 = flRadius * flRadius;

	movss	xmm0, DWORD PTR _flRadius$[ebp]
	mulss	xmm0, DWORD PTR _flRadius$[ebp]
	movss	DWORD PTR _flMaxDist2$[ebp], xmm0
$LN2@UTIL_FindE:

; 958  : 	while ((pSearch = UTIL_FindEntityByClassname( pSearch, szWhatever )) != NULL)

	mov	eax, DWORD PTR _szWhatever$[ebp]
	push	eax
	mov	ecx, DWORD PTR _pSearch$[ebp]
	push	ecx
	call	?UTIL_FindEntityByClassname@@YAPAVCBaseEntity@@PAV1@PBD@Z ; UTIL_FindEntityByClassname
	add	esp, 8
	mov	DWORD PTR _pSearch$[ebp], eax
	cmp	DWORD PTR _pSearch$[ebp], 0
	je	SHORT $LN3@UTIL_FindE

; 959  : 	{
; 960  : 		float flDist2 = (pSearch->GetAbsOrigin() - vecSrc).Length();

	mov	eax, DWORD PTR _vecSrc$[ebp]
	push	eax
	lea	ecx, DWORD PTR $T1[ebp]
	push	ecx
	mov	ecx, DWORD PTR _pSearch$[ebp]
	call	?GetAbsOrigin@CBaseEntity@@QBEABVVector@@XZ ; CBaseEntity::GetAbsOrigin
	mov	ecx, eax
	call	??GVector@@QBE?AV0@ABV0@@Z		; Vector::operator-
	mov	ecx, eax
	call	?Length@Vector@@QBEMXZ			; Vector::Length
	fstp	DWORD PTR _flDist2$2[ebp]

; 961  : 		flDist2 = flDist2 * flDist2;

	movss	xmm0, DWORD PTR _flDist2$2[ebp]
	mulss	xmm0, DWORD PTR _flDist2$2[ebp]
	movss	DWORD PTR _flDist2$2[ebp], xmm0

; 962  : 		if (flMaxDist2 > flDist2)

	movss	xmm0, DWORD PTR _flMaxDist2$[ebp]
	comiss	xmm0, DWORD PTR _flDist2$2[ebp]
	jbe	SHORT $LN5@UTIL_FindE

; 963  : 		{
; 964  : 			pEntity = pSearch;

	mov	eax, DWORD PTR _pSearch$[ebp]
	mov	DWORD PTR _pEntity$[ebp], eax

; 965  : 			flMaxDist2 = flDist2;

	movss	xmm0, DWORD PTR _flDist2$2[ebp]
	movss	DWORD PTR _flMaxDist2$[ebp], xmm0
$LN5@UTIL_FindE:

; 966  : 		}
; 967  : 	}

	jmp	SHORT $LN2@UTIL_FindE
$LN3@UTIL_FindE:

; 968  : 	return pEntity;

	mov	eax, DWORD PTR _pEntity$[ebp]
$LN1@UTIL_FindE:

; 969  : }

	pop	edi
	pop	esi
	pop	ebx
	mov	esp, ebp
	pop	ebp
	ret	0
?UTIL_FindEntityGeneric@@YAPAVCBaseEntity@@PBDABVVector@@M@Z ENDP ; UTIL_FindEntityGeneric
_TEXT	ENDS
; Function compile flags: /Odtp /ZI
; File d:\!diffusion 2020\source code 2022\client-server\server\util.cpp
;	COMDAT ?UTIL_FindEntityByTargetname@@YAPAVCBaseEntity@@PAV1@PBD0@Z
_TEXT	SEGMENT
_pStartEntity$ = 8					; size = 4
_szName$ = 12						; size = 4
_pActivator$ = 16					; size = 4
?UTIL_FindEntityByTargetname@@YAPAVCBaseEntity@@PAV1@PBD0@Z PROC ; UTIL_FindEntityByTargetname, COMDAT

; 904  : {

	push	ebp
	mov	ebp, esp
	sub	esp, 64					; 00000040H
	push	ebx
	push	esi
	push	edi

; 905  : 	if( FStrEq( szName, "*locus" ))

	push	OFFSET ??_C@_06BCLBLBIN@?$CKlocus?$AA@
	mov	eax, DWORD PTR _szName$[ebp]
	push	eax
	call	?FStrEq@@YAHPBD0@Z			; FStrEq
	add	esp, 8
	test	eax, eax
	je	SHORT $LN2@UTIL_FindE

; 906  : 	{
; 907  : 		if( pActivator && ( pStartEntity == NULL || pActivator->eoffset() > pStartEntity->eoffset( )))

	cmp	DWORD PTR _pActivator$[ebp], 0
	je	SHORT $LN3@UTIL_FindE
	cmp	DWORD PTR _pStartEntity$[ebp], 0
	je	SHORT $LN4@UTIL_FindE
	mov	ecx, DWORD PTR _pActivator$[ebp]
	call	?eoffset@CBaseEntity@@QAEHXZ		; CBaseEntity::eoffset
	mov	esi, eax
	mov	ecx, DWORD PTR _pStartEntity$[ebp]
	call	?eoffset@CBaseEntity@@QAEHXZ		; CBaseEntity::eoffset
	cmp	esi, eax
	jle	SHORT $LN3@UTIL_FindE
$LN4@UTIL_FindE:

; 908  : 			return pActivator;

	mov	eax, DWORD PTR _pActivator$[ebp]
	jmp	SHORT $LN1@UTIL_FindE
$LN3@UTIL_FindE:

; 909  : 		return NULL;

	xor	eax, eax
	jmp	SHORT $LN1@UTIL_FindE
$LN2@UTIL_FindE:

; 910  : 	}
; 911  : 	return UTIL_FindEntityByTargetname( pStartEntity, szName );

	mov	eax, DWORD PTR _szName$[ebp]
	push	eax
	mov	ecx, DWORD PTR _pStartEntity$[ebp]
	push	ecx
	call	?UTIL_FindEntityByTargetname@@YAPAVCBaseEntity@@PAV1@PBD@Z ; UTIL_FindEntityByTargetname
	add	esp, 8
$LN1@UTIL_FindE:

; 912  : }

	pop	edi
	pop	esi
	pop	ebx
	mov	esp, ebp
	pop	ebp
	ret	0
?UTIL_FindEntityByTargetname@@YAPAVCBaseEntity@@PAV1@PBD0@Z ENDP ; UTIL_FindEntityByTargetname
_TEXT	ENDS
; Function compile flags: /Odtp /ZI
; File d:\!diffusion 2020\source code 2022\client-server\server\util.cpp
;	COMDAT ?UTIL_FindEntityByTargetname@@YAPAVCBaseEntity@@PAV1@PBD@Z
_TEXT	SEGMENT
_pStartEntity$ = 8					; size = 4
_szName$ = 12						; size = 4
?UTIL_FindEntityByTargetname@@YAPAVCBaseEntity@@PAV1@PBD@Z PROC ; UTIL_FindEntityByTargetname, COMDAT

; 899  : {

	push	ebp
	mov	ebp, esp
	sub	esp, 64					; 00000040H
	push	ebx
	push	esi
	push	edi

; 900  : 	return UTIL_FindEntityByString( pStartEntity, "targetname", szName );

	mov	eax, DWORD PTR _szName$[ebp]
	push	eax
	push	OFFSET ??_C@_0L@FEPNPAJD@targetname?$AA@
	mov	ecx, DWORD PTR _pStartEntity$[ebp]
	push	ecx
	call	?UTIL_FindEntityByString@@YAPAVCBaseEntity@@PAV1@PBD1@Z ; UTIL_FindEntityByString
	add	esp, 12					; 0000000cH

; 901  : }

	pop	edi
	pop	esi
	pop	ebx
	mov	esp, ebp
	pop	ebp
	ret	0
?UTIL_FindEntityByTargetname@@YAPAVCBaseEntity@@PAV1@PBD@Z ENDP ; UTIL_FindEntityByTargetname
_TEXT	ENDS
; Function compile flags: /Odtp /ZI
; File d:\!diffusion 2020\source code 2022\client-server\server\util.cpp
;	COMDAT ?UTIL_FindEntityByClassname@@YAPAVCBaseEntity@@PAV1@PBD_N2@Z
_TEXT	SEGMENT
tv89 = -100						; size = 4
_name$1 = -32						; size = 4
_name$2 = -28						; size = 4
_pEdict$ = -24						; size = 4
_pEdictMiddle$ = -20					; size = 4
_pEdictEnd$ = -16					; size = 4
_pEdictStart$ = -12					; size = 4
_pEdictFound$ = -8					; size = 4
_pEntity$ = -4						; size = 4
_pStartEntity$ = 8					; size = 4
_szName$ = 12						; size = 4
_bLoop$ = 16						; size = 1
_bReverse$ = 20						; size = 1
?UTIL_FindEntityByClassname@@YAPAVCBaseEntity@@PAV1@PBD_N2@Z PROC ; UTIL_FindEntityByClassname, COMDAT

; 838  : {

	push	ebp
	mov	ebp, esp
	sub	esp, 100				; 00000064H
	push	ebx
	push	esi
	push	edi

; 839  : 	if (szName == NULL || *szName == 0)

	cmp	DWORD PTR _szName$[ebp], 0
	je	SHORT $LN9@UTIL_FindE
	mov	eax, DWORD PTR _szName$[ebp]
	movsx	ecx, BYTE PTR [eax]
	test	ecx, ecx
	jne	SHORT $LN8@UTIL_FindE
$LN9@UTIL_FindE:

; 840  : 		return NULL;

	xor	eax, eax
	jmp	$LN1@UTIL_FindE
$LN8@UTIL_FindE:

; 841  : 
; 842  : 	CBaseEntity* pEntity;
; 843  : 
; 844  : 	if (!bReverse)

	movzx	eax, BYTE PTR _bReverse$[ebp]
	test	eax, eax
	jne	SHORT $LN10@UTIL_FindE

; 845  : 	{
; 846  : 		pEntity = UTIL_FindEntityByClassname(pStartEntity, szName);

	mov	eax, DWORD PTR _szName$[ebp]
	push	eax
	mov	ecx, DWORD PTR _pStartEntity$[ebp]
	push	ecx
	call	?UTIL_FindEntityByClassname@@YAPAVCBaseEntity@@PAV1@PBD@Z ; UTIL_FindEntityByClassname
	add	esp, 8
	mov	DWORD PTR _pEntity$[ebp], eax

; 847  : 		if (pEntity == NULL && pStartEntity != NULL && bLoop)

	cmp	DWORD PTR _pEntity$[ebp], 0
	jne	SHORT $LN11@UTIL_FindE
	cmp	DWORD PTR _pStartEntity$[ebp], 0
	je	SHORT $LN11@UTIL_FindE
	movzx	eax, BYTE PTR _bLoop$[ebp]
	test	eax, eax
	je	SHORT $LN11@UTIL_FindE

; 848  : 		{
; 849  : 			pEntity = UTIL_FindEntityByClassname(NULL, szName);

	mov	eax, DWORD PTR _szName$[ebp]
	push	eax
	push	0
	call	?UTIL_FindEntityByClassname@@YAPAVCBaseEntity@@PAV1@PBD@Z ; UTIL_FindEntityByClassname
	add	esp, 8
	mov	DWORD PTR _pEntity$[ebp], eax

; 850  : 			if (pEntity == pStartEntity)

	mov	eax, DWORD PTR _pEntity$[ebp]
	cmp	eax, DWORD PTR _pStartEntity$[ebp]
	jne	SHORT $LN11@UTIL_FindE

; 851  : 				pEntity = NULL;

	mov	DWORD PTR _pEntity$[ebp], 0
$LN11@UTIL_FindE:

; 852  : 		}
; 853  : 		return pEntity;

	mov	eax, DWORD PTR _pEntity$[ebp]
	jmp	$LN1@UTIL_FindE
$LN10@UTIL_FindE:

; 854  : 	}
; 855  : 
; 856  : 	// Do reverse search logic
; 857  : 	edict_t* pEdictFound = NULL;

	mov	DWORD PTR _pEdictFound$[ebp], 0

; 858  : 	edict_t* pEdictStart = g_engfuncs.pfnPEntityOfEntIndex(0);

	push	0
	call	DWORD PTR ?g_engfuncs@@3Uenginefuncs_s@@A+288
	add	esp, 4
	mov	DWORD PTR _pEdictStart$[ebp], eax

; 859  : 	edict_t* pEdictEnd = pEdictStart + gpGlobals->maxEntities - 1;

	mov	eax, DWORD PTR ?gpGlobals@@3PAUglobalvars_t@@A ; gpGlobals
	imul	ecx, DWORD PTR [eax+148], 804
	mov	edx, DWORD PTR _pEdictStart$[ebp]
	lea	eax, DWORD PTR [edx+ecx-804]
	mov	DWORD PTR _pEdictEnd$[ebp], eax

; 860  : 	edict_t* pEdictMiddle = pStartEntity == NULL ? pEdictStart : pStartEntity->edict();

	cmp	DWORD PTR _pStartEntity$[ebp], 0
	jne	SHORT $LN22@UTIL_FindE
	mov	eax, DWORD PTR _pEdictStart$[ebp]
	mov	DWORD PTR tv89[ebp], eax
	jmp	SHORT $LN23@UTIL_FindE
$LN22@UTIL_FindE:
	mov	ecx, DWORD PTR _pStartEntity$[ebp]
	call	?edict@CBaseEntity@@QAEPAUedict_s@@XZ	; CBaseEntity::edict
	mov	DWORD PTR tv89[ebp], eax
$LN23@UTIL_FindE:
	mov	ecx, DWORD PTR tv89[ebp]
	mov	DWORD PTR _pEdictMiddle$[ebp], ecx

; 861  : 
; 862  : 	edict_t* pEdict;
; 863  : 	// Search from the middle to the start
; 864  : 	for (pEdict = pEdictMiddle - 1; pEdict >= pEdictStart; pEdict--)

	mov	eax, DWORD PTR _pEdictMiddle$[ebp]
	sub	eax, 804				; 00000324H
	mov	DWORD PTR _pEdict$[ebp], eax
	jmp	SHORT $LN4@UTIL_FindE
$LN2@UTIL_FindE:
	mov	eax, DWORD PTR _pEdict$[ebp]
	sub	eax, 804				; 00000324H
	mov	DWORD PTR _pEdict$[ebp], eax
$LN4@UTIL_FindE:
	mov	eax, DWORD PTR _pEdict$[ebp]
	cmp	eax, DWORD PTR _pEdictStart$[ebp]
	jb	SHORT $LN3@UTIL_FindE

; 865  : 	{
; 866  : 		if (pEdict->free)	// Not in use

	mov	eax, DWORD PTR _pEdict$[ebp]
	cmp	DWORD PTR [eax], 0
	je	SHORT $LN13@UTIL_FindE

; 867  : 			continue;

	jmp	SHORT $LN2@UTIL_FindE
$LN13@UTIL_FindE:

; 868  : 		if (pEdict->v.classname == NULL)

	mov	eax, DWORD PTR _pEdict$[ebp]
	cmp	DWORD PTR [eax+128], 0
	jne	SHORT $LN14@UTIL_FindE

; 869  : 			continue;

	jmp	SHORT $LN2@UTIL_FindE
$LN14@UTIL_FindE:

; 870  : 		const char* name = STRING(pEdict->v.classname);

	mov	eax, DWORD PTR _pEdict$[ebp]
	mov	ecx, DWORD PTR [eax+128]
	push	ecx
	call	DWORD PTR ?g_engfuncs@@3Uenginefuncs_s@@A+264
	add	esp, 4
	mov	DWORD PTR _name$2[ebp], eax

; 871  : 		if (strcmp(szName, name))

	mov	eax, DWORD PTR _name$2[ebp]
	push	eax
	mov	ecx, DWORD PTR _szName$[ebp]
	push	ecx
	call	_strcmp
	add	esp, 8
	test	eax, eax
	je	SHORT $LN15@UTIL_FindE

; 872  : 			continue;

	jmp	SHORT $LN2@UTIL_FindE
$LN15@UTIL_FindE:

; 873  : 		pEdictFound = pEdict;

	mov	eax, DWORD PTR _pEdict$[ebp]
	mov	DWORD PTR _pEdictFound$[ebp], eax

; 874  : 		break;

	jmp	SHORT $LN3@UTIL_FindE

; 875  : 	}

	jmp	SHORT $LN2@UTIL_FindE
$LN3@UTIL_FindE:

; 876  : 	if (!pEdictFound && bLoop)

	cmp	DWORD PTR _pEdictFound$[ebp], 0
	jne	SHORT $LN16@UTIL_FindE
	movzx	eax, BYTE PTR _bLoop$[ebp]
	test	eax, eax
	je	SHORT $LN16@UTIL_FindE

; 877  : 	{
; 878  : 		// Loop: Search from the end to the middle
; 879  : 		for (pEdict = pEdictEnd; pEdict > pEdictMiddle; pEdict--)

	mov	eax, DWORD PTR _pEdictEnd$[ebp]
	mov	DWORD PTR _pEdict$[ebp], eax
	jmp	SHORT $LN7@UTIL_FindE
$LN5@UTIL_FindE:
	mov	eax, DWORD PTR _pEdict$[ebp]
	sub	eax, 804				; 00000324H
	mov	DWORD PTR _pEdict$[ebp], eax
$LN7@UTIL_FindE:
	mov	eax, DWORD PTR _pEdict$[ebp]
	cmp	eax, DWORD PTR _pEdictMiddle$[ebp]
	jbe	SHORT $LN16@UTIL_FindE

; 880  : 		{
; 881  : 			if (pEdict->free)	// Not in use

	mov	eax, DWORD PTR _pEdict$[ebp]
	cmp	DWORD PTR [eax], 0
	je	SHORT $LN17@UTIL_FindE

; 882  : 				continue;

	jmp	SHORT $LN5@UTIL_FindE
$LN17@UTIL_FindE:

; 883  : 			if (pEdict->v.classname == NULL)

	mov	eax, DWORD PTR _pEdict$[ebp]
	cmp	DWORD PTR [eax+128], 0
	jne	SHORT $LN18@UTIL_FindE

; 884  : 				continue;

	jmp	SHORT $LN5@UTIL_FindE
$LN18@UTIL_FindE:

; 885  : 			const char* name = STRING(pEdict->v.classname);

	mov	eax, DWORD PTR _pEdict$[ebp]
	mov	ecx, DWORD PTR [eax+128]
	push	ecx
	call	DWORD PTR ?g_engfuncs@@3Uenginefuncs_s@@A+264
	add	esp, 4
	mov	DWORD PTR _name$1[ebp], eax

; 886  : 			if (strcmp(szName, name))

	mov	eax, DWORD PTR _name$1[ebp]
	push	eax
	mov	ecx, DWORD PTR _szName$[ebp]
	push	ecx
	call	_strcmp
	add	esp, 8
	test	eax, eax
	je	SHORT $LN19@UTIL_FindE

; 887  : 				continue;

	jmp	SHORT $LN5@UTIL_FindE
$LN19@UTIL_FindE:

; 888  : 			pEdictFound = pEdict;

	mov	eax, DWORD PTR _pEdict$[ebp]
	mov	DWORD PTR _pEdictFound$[ebp], eax

; 889  : 			break;

	jmp	SHORT $LN16@UTIL_FindE

; 890  : 		}

	jmp	SHORT $LN5@UTIL_FindE
$LN16@UTIL_FindE:

; 891  : 	}
; 892  : 
; 893  : 	if (!FNullEnt(pEdictFound))

	mov	eax, DWORD PTR _pEdictFound$[ebp]
	push	eax
	call	?FNullEnt@@YAHPBUedict_s@@@Z		; FNullEnt
	add	esp, 4
	test	eax, eax
	jne	SHORT $LN20@UTIL_FindE

; 894  : 		return CBaseEntity::Instance(pEdictFound);

	mov	eax, DWORD PTR _pEdictFound$[ebp]
	push	eax
	call	?Instance@CBaseEntity@@SAPAV1@PAUedict_s@@@Z ; CBaseEntity::Instance
	add	esp, 4
	jmp	SHORT $LN1@UTIL_FindE
$LN20@UTIL_FindE:

; 895  : 	return NULL;

	xor	eax, eax
$LN1@UTIL_FindE:

; 896  : }

	pop	edi
	pop	esi
	pop	ebx
	mov	esp, ebp
	pop	ebp
	ret	0
?UTIL_FindEntityByClassname@@YAPAVCBaseEntity@@PAV1@PBD_N2@Z ENDP ; UTIL_FindEntityByClassname
_TEXT	ENDS
; Function compile flags: /Odtp /ZI
; File d:\!diffusion 2020\source code 2022\client-server\server\util.cpp
;	COMDAT ?UTIL_FindEntityByClassname@@YAPAVCBaseEntity@@PAV1@PBD@Z
_TEXT	SEGMENT
_pStartEntity$ = 8					; size = 4
_szName$ = 12						; size = 4
?UTIL_FindEntityByClassname@@YAPAVCBaseEntity@@PAV1@PBD@Z PROC ; UTIL_FindEntityByClassname, COMDAT

; 831  : {

	push	ebp
	mov	ebp, esp
	sub	esp, 64					; 00000040H
	push	ebx
	push	esi
	push	edi

; 832  : 	return UTIL_FindEntityByString( pStartEntity, "classname", szName );

	mov	eax, DWORD PTR _szName$[ebp]
	push	eax
	push	OFFSET ??_C@_09CNJINBGN@classname?$AA@
	mov	ecx, DWORD PTR _pStartEntity$[ebp]
	push	ecx
	call	?UTIL_FindEntityByString@@YAPAVCBaseEntity@@PAV1@PBD1@Z ; UTIL_FindEntityByString
	add	esp, 12					; 0000000cH

; 833  : }

	pop	edi
	pop	esi
	pop	ebx
	mov	esp, ebp
	pop	ebp
	ret	0
?UTIL_FindEntityByClassname@@YAPAVCBaseEntity@@PAV1@PBD@Z ENDP ; UTIL_FindEntityByClassname
_TEXT	ENDS
; Function compile flags: /Odtp /ZI
; File d:\!diffusion 2020\source code 2022\client-server\server\util.cpp
;	COMDAT ?UTIL_FindEntityByString@@YAPAVCBaseEntity@@PAV1@PBD1@Z
_TEXT	SEGMENT
_pentEntity$ = -4					; size = 4
_pStartEntity$ = 8					; size = 4
_szKeyword$ = 12					; size = 4
_szValue$ = 16						; size = 4
?UTIL_FindEntityByString@@YAPAVCBaseEntity@@PAV1@PBD1@Z PROC ; UTIL_FindEntityByString, COMDAT

; 815  : {

	push	ebp
	mov	ebp, esp
	sub	esp, 68					; 00000044H
	push	ebx
	push	esi
	push	edi

; 816  : 	edict_t	*pentEntity;
; 817  : 
; 818  : 	if (pStartEntity)

	cmp	DWORD PTR _pStartEntity$[ebp], 0
	je	SHORT $LN2@UTIL_FindE

; 819  : 		pentEntity = pStartEntity->edict();

	mov	ecx, DWORD PTR _pStartEntity$[ebp]
	call	?edict@CBaseEntity@@QAEPAUedict_s@@XZ	; CBaseEntity::edict
	mov	DWORD PTR _pentEntity$[ebp], eax

; 820  : 	else

	jmp	SHORT $LN3@UTIL_FindE
$LN2@UTIL_FindE:

; 821  : 		pentEntity = NULL;

	mov	DWORD PTR _pentEntity$[ebp], 0
$LN3@UTIL_FindE:

; 822  : 
; 823  : 	pentEntity = FIND_ENTITY_BY_STRING( pentEntity, szKeyword, szValue );

	mov	eax, DWORD PTR _szValue$[ebp]
	push	eax
	mov	ecx, DWORD PTR _szKeyword$[ebp]
	push	ecx
	mov	edx, DWORD PTR _pentEntity$[ebp]
	push	edx
	call	DWORD PTR ?g_engfuncs@@3Uenginefuncs_s@@A+56
	add	esp, 12					; 0000000cH
	mov	DWORD PTR _pentEntity$[ebp], eax

; 824  : 
; 825  : 	if (!FNullEnt(pentEntity))

	mov	eax, DWORD PTR _pentEntity$[ebp]
	push	eax
	call	?FNullEnt@@YAHPBUedict_s@@@Z		; FNullEnt
	add	esp, 4
	test	eax, eax
	jne	SHORT $LN4@UTIL_FindE

; 826  : 		return CBaseEntity::Instance(pentEntity);

	mov	eax, DWORD PTR _pentEntity$[ebp]
	push	eax
	call	?Instance@CBaseEntity@@SAPAV1@PAUedict_s@@@Z ; CBaseEntity::Instance
	add	esp, 4
	jmp	SHORT $LN1@UTIL_FindE
$LN4@UTIL_FindE:

; 827  : 	return NULL;

	xor	eax, eax
$LN1@UTIL_FindE:

; 828  : }

	pop	edi
	pop	esi
	pop	ebx
	mov	esp, ebp
	pop	ebp
	ret	0
?UTIL_FindEntityByString@@YAPAVCBaseEntity@@PAV1@PBD1@Z ENDP ; UTIL_FindEntityByString
_TEXT	ENDS
; Function compile flags: /Odtp /ZI
; File d:\!diffusion 2020\source code 2022\client-server\server\util.cpp
;	COMDAT ?UTIL_FindEntityInSphere@@YAPAVCBaseEntity@@PAV1@ABVVector@@M@Z
_TEXT	SEGMENT
_pentEntity$ = -8					; size = 4
_resultEntity$ = -4					; size = 4
_pStartEntity$ = 8					; size = 4
_vecCenter$ = 12					; size = 4
_flRadius$ = 16						; size = 4
?UTIL_FindEntityInSphere@@YAPAVCBaseEntity@@PAV1@ABVVector@@M@Z PROC ; UTIL_FindEntityInSphere, COMDAT

; 775  : {

	push	ebp
	mov	ebp, esp
	sub	esp, 72					; 00000048H
	push	ebx
	push	esi
	push	edi

; 776  : 	CBaseEntity* resultEntity = NULL;

	mov	DWORD PTR _resultEntity$[ebp], 0

; 777  : 	edict_t* pentEntity;
; 778  : 
; 779  : 	if (pStartEntity)

	cmp	DWORD PTR _pStartEntity$[ebp], 0
	je	SHORT $LN4@UTIL_FindE

; 780  : 		pentEntity = pStartEntity->edict();

	mov	ecx, DWORD PTR _pStartEntity$[ebp]
	call	?edict@CBaseEntity@@QAEPAUedict_s@@XZ	; CBaseEntity::edict
	mov	DWORD PTR _pentEntity$[ebp], eax

; 781  : 	else

	jmp	SHORT $LN5@UTIL_FindE
$LN4@UTIL_FindE:

; 782  : 		pentEntity = NULL;

	mov	DWORD PTR _pentEntity$[ebp], 0
$LN5@UTIL_FindE:

; 783  : 
; 784  : 	while (true)

	mov	eax, 1
	test	eax, eax
	je	SHORT $LN3@UTIL_FindE

; 785  : 	{
; 786  : 		pentEntity = FIND_ENTITY_IN_SPHERE(pentEntity, vecCenter, flRadius);

	push	ecx
	movss	xmm0, DWORD PTR _flRadius$[ebp]
	movss	DWORD PTR [esp], xmm0
	mov	ecx, DWORD PTR _vecCenter$[ebp]
	call	??BVector@@QBEPBMXZ			; Vector::operator float const *
	push	eax
	mov	eax, DWORD PTR _pentEntity$[ebp]
	push	eax
	call	DWORD PTR ?g_engfuncs@@3Uenginefuncs_s@@A+64
	add	esp, 12					; 0000000cH
	mov	DWORD PTR _pentEntity$[ebp], eax

; 787  : 		if (pentEntity == NULL) return NULL;

	cmp	DWORD PTR _pentEntity$[ebp], 0
	jne	SHORT $LN6@UTIL_FindE
	xor	eax, eax
	jmp	SHORT $LN1@UTIL_FindE
$LN6@UTIL_FindE:

; 788  : 		if (FNullEnt(pentEntity)) return NULL;

	mov	eax, DWORD PTR _pentEntity$[ebp]
	push	eax
	call	?FNullEnt@@YAHPBUedict_s@@@Z		; FNullEnt
	add	esp, 4
	test	eax, eax
	je	SHORT $LN7@UTIL_FindE
	xor	eax, eax
	jmp	SHORT $LN1@UTIL_FindE
$LN7@UTIL_FindE:

; 789  : 		resultEntity = CBaseEntity::Instance(pentEntity);

	mov	eax, DWORD PTR _pentEntity$[ebp]
	push	eax
	call	?Instance@CBaseEntity@@SAPAV1@PAUedict_s@@@Z ; CBaseEntity::Instance
	add	esp, 4
	mov	DWORD PTR _resultEntity$[ebp], eax

; 790  : 		// If we will find edict that doesn't have class we will skip it
; 791  : 		if (resultEntity != NULL) break;

	cmp	DWORD PTR _resultEntity$[ebp], 0
	je	SHORT $LN8@UTIL_FindE
	jmp	SHORT $LN3@UTIL_FindE
$LN8@UTIL_FindE:

; 792  : 	}

	jmp	SHORT $LN5@UTIL_FindE
$LN3@UTIL_FindE:

; 793  : 
; 794  : 	return resultEntity;

	mov	eax, DWORD PTR _resultEntity$[ebp]
$LN1@UTIL_FindE:

; 795  : }

	pop	edi
	pop	esi
	pop	ebx
	mov	esp, ebp
	pop	ebp
	ret	0
?UTIL_FindEntityInSphere@@YAPAVCBaseEntity@@PAV1@ABVVector@@M@Z ENDP ; UTIL_FindEntityInSphere
_TEXT	ENDS
; Function compile flags: /Odtp /ZI
; File d:\!diffusion 2020\source code 2022\client-server\server\util.cpp
;	COMDAT ?UTIL_AngleDiff@@YAMMM@Z
_TEXT	SEGMENT
_delta$ = -4						; size = 4
_destAngle$ = 8						; size = 4
_srcAngle$ = 12						; size = 4
?UTIL_AngleDiff@@YAMMM@Z PROC				; UTIL_AngleDiff, COMDAT

; 527  : {

	push	ebp
	mov	ebp, esp
	sub	esp, 68					; 00000044H
	push	ebx
	push	esi
	push	edi

; 528  : 	float delta;
; 529  : 
; 530  : 	delta = destAngle - srcAngle;

	movss	xmm0, DWORD PTR _destAngle$[ebp]
	subss	xmm0, DWORD PTR _srcAngle$[ebp]
	movss	DWORD PTR _delta$[ebp], xmm0

; 531  : 	if ( destAngle > srcAngle )

	movss	xmm0, DWORD PTR _destAngle$[ebp]
	comiss	xmm0, DWORD PTR _srcAngle$[ebp]
	jbe	SHORT $LN2@UTIL_Angle

; 532  : 	{
; 533  : 		if ( delta >= 180 )

	movss	xmm0, DWORD PTR _delta$[ebp]
	comiss	xmm0, DWORD PTR __real@43340000
	jb	SHORT $LN4@UTIL_Angle

; 534  : 			delta -= 360;

	movss	xmm0, DWORD PTR _delta$[ebp]
	subss	xmm0, DWORD PTR __real@43b40000
	movss	DWORD PTR _delta$[ebp], xmm0
$LN4@UTIL_Angle:

; 535  : 	}
; 536  : 	else

	jmp	SHORT $LN5@UTIL_Angle
$LN2@UTIL_Angle:

; 537  : 	{
; 538  : 		if ( delta <= -180 )

	movss	xmm0, DWORD PTR __real@c3340000
	comiss	xmm0, DWORD PTR _delta$[ebp]
	jb	SHORT $LN5@UTIL_Angle

; 539  : 			delta += 360;

	movss	xmm0, DWORD PTR _delta$[ebp]
	addss	xmm0, DWORD PTR __real@43b40000
	movss	DWORD PTR _delta$[ebp], xmm0
$LN5@UTIL_Angle:

; 540  : 	}
; 541  : 	return delta;

	fld	DWORD PTR _delta$[ebp]

; 542  : }

	pop	edi
	pop	esi
	pop	ebx
	mov	esp, ebp
	pop	ebp
	ret	0
?UTIL_AngleDiff@@YAMMM@Z ENDP				; UTIL_AngleDiff
_TEXT	ENDS
; Function compile flags: /Odtp /ZI
; File d:\!diffusion 2020\source code 2022\client-server\server\util.cpp
;	COMDAT ?UTIL_AngleMod@@YAMM@Z
_TEXT	SEGMENT
_a$ = 8							; size = 4
?UTIL_AngleMod@@YAMM@Z PROC				; UTIL_AngleMod, COMDAT

; 512  : {

	push	ebp
	mov	ebp, esp
	sub	esp, 64					; 00000040H
	push	ebx
	push	esi
	push	edi

; 513  : 	/*
; 514  : 	if (a < 0)
; 515  : 	{
; 516  : 		a = a + 360 * ((int)(a / 360) + 1);
; 517  : 	}
; 518  : 	else if (a >= 360)
; 519  : 	{
; 520  : 		a = a - 360 * ((int)(a / 360));
; 521  : 	}*/
; 522  : 	a = (360.f / 65536) * ((int)(a * (65536.f / 360.0f)) & 65535);

	movss	xmm0, DWORD PTR _a$[ebp]
	mulss	xmm0, DWORD PTR __real@43360b61
	cvttss2si eax, xmm0
	and	eax, 65535				; 0000ffffH
	cvtsi2ss xmm0, eax
	mulss	xmm0, DWORD PTR __real@3bb40000
	movss	DWORD PTR _a$[ebp], xmm0

; 523  : 	return a;

	fld	DWORD PTR _a$[ebp]

; 524  : }

	pop	edi
	pop	esi
	pop	ebx
	mov	esp, ebp
	pop	ebp
	ret	0
?UTIL_AngleMod@@YAMM@Z ENDP				; UTIL_AngleMod
_TEXT	ENDS
; Function compile flags: /Odtp /ZI
; File d:\!diffusion 2020\source code 2022\client-server\server\util.cpp
;	COMDAT ?UTIL_VecToAngles@@YA?AVVector@@ABV1@@Z
_TEXT	SEGMENT
_angles$ = -12						; size = 12
___$ReturnUdt$ = 8					; size = 4
_vec$ = 12						; size = 4
?UTIL_VecToAngles@@YA?AVVector@@ABV1@@Z PROC		; UTIL_VecToAngles, COMDAT

; 545  : {

	push	ebp
	mov	ebp, esp
	sub	esp, 76					; 0000004cH
	push	ebx
	push	esi
	push	edi

; 546  : 	Vector angles;

	lea	ecx, DWORD PTR _angles$[ebp]
	call	??0Vector@@QAE@XZ			; Vector::Vector

; 547  : 
; 548  : 	VectorAngles( vec, angles );

	lea	eax, DWORD PTR _angles$[ebp]
	push	eax
	mov	ecx, DWORD PTR _vec$[ebp]
	push	ecx
	call	?VectorAngles@@YAXABVVector@@AAV1@@Z	; VectorAngles
	add	esp, 8

; 549  : 
; 550  : 	return angles;

	lea	eax, DWORD PTR _angles$[ebp]
	push	eax
	mov	ecx, DWORD PTR ___$ReturnUdt$[ebp]
	call	??0Vector@@QAE@ABV0@@Z			; Vector::Vector
	mov	eax, DWORD PTR ___$ReturnUdt$[ebp]

; 551  : }

	pop	edi
	pop	esi
	pop	ebx
	mov	esp, ebp
	pop	ebp
	ret	0
?UTIL_VecToAngles@@YA?AVVector@@ABV1@@Z ENDP		; UTIL_VecToAngles
_TEXT	ENDS
; Function compile flags: /Odtp /ZI
; File d:\!diffusion 2020\source code 2022\client-server\server\util.cpp
;	COMDAT ?UTIL_VecToYaw@@YAMABVVector@@@Z
_TEXT	SEGMENT
_vec$ = 8						; size = 4
?UTIL_VecToYaw@@YAMABVVector@@@Z PROC			; UTIL_VecToYaw, COMDAT

; 1516 : {

	push	ebp
	mov	ebp, esp
	sub	esp, 64					; 00000040H
	push	ebx
	push	esi
	push	edi

; 1517 : 	return VEC_TO_YAW(vec);

	mov	ecx, DWORD PTR _vec$[ebp]
	call	??BVector@@QBEPBMXZ			; Vector::operator float const *
	push	eax
	call	DWORD PTR ?g_engfuncs@@3Uenginefuncs_s@@A+36
	add	esp, 4

; 1518 : }

	pop	edi
	pop	esi
	pop	ebx
	mov	esp, ebp
	pop	ebp
	ret	0
?UTIL_VecToYaw@@YAMABVVector@@@Z ENDP			; UTIL_VecToYaw
_TEXT	ENDS
; Function compile flags: /Odtp /ZI
; File d:\!diffusion 2020\source code 2022\client-server\server\util.cpp
;	COMDAT ?UTIL_SetSize@@YAXPAUentvars_s@@ABVVector@@1@Z
_TEXT	SEGMENT
_pev$ = 8						; size = 4
_vecMin$ = 12						; size = 4
_vecMax$ = 16						; size = 4
?UTIL_SetSize@@YAXPAUentvars_s@@ABVVector@@1@Z PROC	; UTIL_SetSize, COMDAT

; 1511 : {

	push	ebp
	mov	ebp, esp
	sub	esp, 64					; 00000040H
	push	ebx
	push	esi
	push	edi

; 1512 : 	SET_SIZE( ENT(pev), vecMin, vecMax );

	mov	ecx, DWORD PTR _vecMax$[ebp]
	call	??BVector@@QBEPBMXZ			; Vector::operator float const *
	push	eax
	mov	ecx, DWORD PTR _vecMin$[ebp]
	call	??BVector@@QBEPBMXZ			; Vector::operator float const *
	push	eax
	mov	eax, DWORD PTR _pev$[ebp]
	push	eax
	call	?ENT@@YAPAUedict_s@@PBUentvars_s@@@Z	; ENT
	add	esp, 4
	push	eax
	call	DWORD PTR ?g_engfuncs@@3Uenginefuncs_s@@A+20
	add	esp, 12					; 0000000cH

; 1513 : }

	pop	edi
	pop	esi
	pop	ebx
	mov	esp, ebp
	pop	ebp
	ret	0
?UTIL_SetSize@@YAXPAUentvars_s@@ABVVector@@1@Z ENDP	; UTIL_SetSize
_TEXT	ENDS
; Function compile flags: /Odtp /ZI
; File d:\!diffusion 2020\source code 2022\client-server\server\util.cpp
;	COMDAT ?GetStateForString@@YA?AW4STATE@@PBD@Z
_TEXT	SEGMENT
_string$ = 8						; size = 4
?GetStateForString@@YA?AW4STATE@@PBD@Z PROC		; GetStateForString, COMDAT

; 417  : {

	push	ebp
	mov	ebp, esp
	sub	esp, 64					; 00000040H
	push	ebx
	push	esi
	push	edi

; 418  : 	if( !Q_stricmp( string, "ON" ))

	push	99999					; 0001869fH
	push	OFFSET ??_C@_02BFICIOJL@ON?$AA@
	mov	eax, DWORD PTR _string$[ebp]
	push	eax
	call	?Q_strnicmp@@YAHPBD0H@Z			; Q_strnicmp
	add	esp, 12					; 0000000cH
	test	eax, eax
	jne	SHORT $LN2@GetStateFo

; 419  : 		return STATE_ON;

	mov	eax, 1
	jmp	$LN1@GetStateFo
	jmp	$LN3@GetStateFo
$LN2@GetStateFo:

; 420  : 	else if( !Q_stricmp( string, "OFF" ))

	push	99999					; 0001869fH
	push	OFFSET ??_C@_03MPPIHBHJ@OFF?$AA@
	mov	eax, DWORD PTR _string$[ebp]
	push	eax
	call	?Q_strnicmp@@YAHPBD0H@Z			; Q_strnicmp
	add	esp, 12					; 0000000cH
	test	eax, eax
	jne	SHORT $LN4@GetStateFo

; 421  : 		return STATE_OFF;

	xor	eax, eax
	jmp	$LN1@GetStateFo
	jmp	$LN3@GetStateFo
$LN4@GetStateFo:

; 422  : 	else if( !Q_stricmp( string, "TURN ON" ))

	push	99999					; 0001869fH
	push	OFFSET ??_C@_07CJNHFDCG@TURN?5ON?$AA@
	mov	eax, DWORD PTR _string$[ebp]
	push	eax
	call	?Q_strnicmp@@YAHPBD0H@Z			; Q_strnicmp
	add	esp, 12					; 0000000cH
	test	eax, eax
	jne	SHORT $LN6@GetStateFo

; 423  : 		return STATE_TURN_ON;

	mov	eax, 2
	jmp	$LN1@GetStateFo
	jmp	$LN3@GetStateFo
$LN6@GetStateFo:

; 424  : 	else if( !Q_stricmp( string, "TURN OFF" ))

	push	99999					; 0001869fH
	push	OFFSET ??_C@_08HKBEOLJF@TURN?5OFF?$AA@
	mov	eax, DWORD PTR _string$[ebp]
	push	eax
	call	?Q_strnicmp@@YAHPBD0H@Z			; Q_strnicmp
	add	esp, 12					; 0000000cH
	test	eax, eax
	jne	SHORT $LN8@GetStateFo

; 425  : 		return STATE_TURN_OFF;

	mov	eax, 3
	jmp	$LN1@GetStateFo
	jmp	SHORT $LN3@GetStateFo
$LN8@GetStateFo:

; 426  : 	else if( !Q_stricmp( string, "IN USE" ))

	push	99999					; 0001869fH
	push	OFFSET ??_C@_06FILEIAAK@IN?5USE?$AA@
	mov	eax, DWORD PTR _string$[ebp]
	push	eax
	call	?Q_strnicmp@@YAHPBD0H@Z			; Q_strnicmp
	add	esp, 12					; 0000000cH
	test	eax, eax
	jne	SHORT $LN10@GetStateFo

; 427  : 		return STATE_IN_USE;

	mov	eax, 4
	jmp	SHORT $LN1@GetStateFo
	jmp	SHORT $LN3@GetStateFo
$LN10@GetStateFo:

; 428  : 	else if( !Q_stricmp( string, "DEAD" ))

	push	99999					; 0001869fH
	push	OFFSET ??_C@_04NNCJDDJC@DEAD?$AA@
	mov	eax, DWORD PTR _string$[ebp]
	push	eax
	call	?Q_strnicmp@@YAHPBD0H@Z			; Q_strnicmp
	add	esp, 12					; 0000000cH
	test	eax, eax
	jne	SHORT $LN12@GetStateFo

; 429  : 		return STATE_DEAD;

	mov	eax, 5
	jmp	SHORT $LN1@GetStateFo
	jmp	SHORT $LN3@GetStateFo
$LN12@GetStateFo:

; 430  : 	else if( Q_isdigit( string ))

	mov	eax, DWORD PTR _string$[ebp]
	push	eax
	call	?Q_isdigit@@YA_NPBD@Z			; Q_isdigit
	add	esp, 4
	movzx	ecx, al
	test	ecx, ecx
	je	SHORT $LN3@GetStateFo

; 431  : 		return (STATE)Q_atoi( string );

	mov	eax, DWORD PTR _string$[ebp]
	push	eax
	call	?Q_atoi@@YAHPBD@Z			; Q_atoi
	add	esp, 4
	jmp	SHORT $LN1@GetStateFo
$LN3@GetStateFo:

; 432  : 
; 433  : 	// assume error
; 434  : 	ALERT( at_error, "Unknown state '%s' specified\n", string );

	mov	eax, DWORD PTR _string$[ebp]
	push	eax
	push	OFFSET ??_C@_0BO@CJHNLOLN@Unknown?5state?5?8?$CFs?8?5specified?6?$AA@
	push	4
	call	DWORD PTR ?g_engfuncs@@3Uenginefuncs_s@@A+244
	add	esp, 12					; 0000000cH

; 435  : 
; 436  : 	return (STATE)-1;

	or	eax, -1
$LN1@GetStateFo:

; 437  : }

	pop	edi
	pop	esi
	pop	ebx
	mov	esp, ebp
	pop	ebp
	ret	0
?GetStateForString@@YA?AW4STATE@@PBD@Z ENDP		; GetStateForString
_TEXT	ENDS
; Function compile flags: /Odtp /ZI
; File d:\!diffusion 2020\source code 2022\client-server\server\util.cpp
;	COMDAT ?PrintStringForDamage@@YAXH@Z
_TEXT	SEGMENT
_szDmgBits$ = -260					; size = 256
__$ArrayPad$ = -4					; size = 4
_dmgbits$ = 8						; size = 4
?PrintStringForDamage@@YAXH@Z PROC			; PrintStringForDamage, COMDAT

; 440  : {

	push	ebp
	mov	ebp, esp
	sub	esp, 324				; 00000144H
	mov	eax, DWORD PTR ___security_cookie
	xor	eax, ebp
	mov	DWORD PTR __$ArrayPad$[ebp], eax
	push	ebx
	push	esi
	push	edi

; 441  : 	char szDmgBits[256];
; 442  : 	Q_strcat( szDmgBits, "DAMAGE: " );

	push	99999					; 0001869fH
	push	OFFSET ??_C@_08GEAGNOOL@DAMAGE?3?5?$AA@
	lea	eax, DWORD PTR _szDmgBits$[ebp]
	push	eax
	call	?Q_strncat@@YAIPADPBDI@Z		; Q_strncat
	add	esp, 12					; 0000000cH

; 443  : 
; 444  : 	if( dmgbits & DMG_GENERIC ) Q_strcat( szDmgBits, "Generic " );

	mov	eax, DWORD PTR _dmgbits$[ebp]
	and	eax, 0
	je	SHORT $LN2@PrintStrin
	push	99999					; 0001869fH
	push	OFFSET ??_C@_08KCJHNIOM@Generic?5?$AA@
	lea	eax, DWORD PTR _szDmgBits$[ebp]
	push	eax
	call	?Q_strncat@@YAIPADPBDI@Z		; Q_strncat
	add	esp, 12					; 0000000cH
$LN2@PrintStrin:

; 445  : 	if( dmgbits & DMG_CRUSH ) Q_strcat( szDmgBits, "Crush "  );

	mov	eax, DWORD PTR _dmgbits$[ebp]
	and	eax, 1
	je	SHORT $LN3@PrintStrin
	push	99999					; 0001869fH
	push	OFFSET ??_C@_06MKGCDNFI@Crush?5?$AA@
	lea	eax, DWORD PTR _szDmgBits$[ebp]
	push	eax
	call	?Q_strncat@@YAIPADPBDI@Z		; Q_strncat
	add	esp, 12					; 0000000cH
$LN3@PrintStrin:

; 446  : 	if( dmgbits & DMG_BULLET ) Q_strcat( szDmgBits, "Bullet "   );

	mov	eax, DWORD PTR _dmgbits$[ebp]
	and	eax, 2
	je	SHORT $LN4@PrintStrin
	push	99999					; 0001869fH
	push	OFFSET ??_C@_07KGEFKMPI@Bullet?5?$AA@
	lea	eax, DWORD PTR _szDmgBits$[ebp]
	push	eax
	call	?Q_strncat@@YAIPADPBDI@Z		; Q_strncat
	add	esp, 12					; 0000000cH
$LN4@PrintStrin:

; 447  : 	if( dmgbits & DMG_SLASH ) Q_strcat( szDmgBits, "Slash " );

	mov	eax, DWORD PTR _dmgbits$[ebp]
	and	eax, 4
	je	SHORT $LN5@PrintStrin
	push	99999					; 0001869fH
	push	OFFSET ??_C@_06BAAPDDP@Slash?5?$AA@
	lea	eax, DWORD PTR _szDmgBits$[ebp]
	push	eax
	call	?Q_strncat@@YAIPADPBDI@Z		; Q_strncat
	add	esp, 12					; 0000000cH
$LN5@PrintStrin:

; 448  : 	if( dmgbits & DMG_BURN ) Q_strcat( szDmgBits, "Burn " );

	mov	eax, DWORD PTR _dmgbits$[ebp]
	and	eax, 8
	je	SHORT $LN6@PrintStrin
	push	99999					; 0001869fH
	push	OFFSET ??_C@_05CLGEDABL@Burn?5?$AA@
	lea	eax, DWORD PTR _szDmgBits$[ebp]
	push	eax
	call	?Q_strncat@@YAIPADPBDI@Z		; Q_strncat
	add	esp, 12					; 0000000cH
$LN6@PrintStrin:

; 449  : 	if( dmgbits & DMG_FREEZE ) Q_strcat( szDmgBits, "Freeze "  );

	mov	eax, DWORD PTR _dmgbits$[ebp]
	and	eax, 16					; 00000010H
	je	SHORT $LN7@PrintStrin
	push	99999					; 0001869fH
	push	OFFSET ??_C@_07NICJCBLL@Freeze?5?$AA@
	lea	eax, DWORD PTR _szDmgBits$[ebp]
	push	eax
	call	?Q_strncat@@YAIPADPBDI@Z		; Q_strncat
	add	esp, 12					; 0000000cH
$LN7@PrintStrin:

; 450  : 	if( dmgbits & DMG_FALL ) Q_strcat( szDmgBits, "Fall " );

	mov	eax, DWORD PTR _dmgbits$[ebp]
	and	eax, 32					; 00000020H
	je	SHORT $LN8@PrintStrin
	push	99999					; 0001869fH
	push	OFFSET ??_C@_05JGNHLHIN@Fall?5?$AA@
	lea	eax, DWORD PTR _szDmgBits$[ebp]
	push	eax
	call	?Q_strncat@@YAIPADPBDI@Z		; Q_strncat
	add	esp, 12					; 0000000cH
$LN8@PrintStrin:

; 451  : 	if( dmgbits & DMG_BLAST ) Q_strcat( szDmgBits, "Blast "  );

	mov	eax, DWORD PTR _dmgbits$[ebp]
	and	eax, 64					; 00000040H
	je	SHORT $LN9@PrintStrin
	push	99999					; 0001869fH
	push	OFFSET ??_C@_06NFJFDOFB@Blast?5?$AA@
	lea	eax, DWORD PTR _szDmgBits$[ebp]
	push	eax
	call	?Q_strncat@@YAIPADPBDI@Z		; Q_strncat
	add	esp, 12					; 0000000cH
$LN9@PrintStrin:

; 452  : 	if( dmgbits & DMG_CLUB ) Q_strcat( szDmgBits, "Club "   );

	mov	eax, DWORD PTR _dmgbits$[ebp]
	and	eax, 128				; 00000080H
	je	SHORT $LN10@PrintStrin
	push	99999					; 0001869fH
	push	OFFSET ??_C@_05BJAFNHJA@Club?5?$AA@
	lea	eax, DWORD PTR _szDmgBits$[ebp]
	push	eax
	call	?Q_strncat@@YAIPADPBDI@Z		; Q_strncat
	add	esp, 12					; 0000000cH
$LN10@PrintStrin:

; 453  : 	if( dmgbits & DMG_SHOCK ) Q_strcat( szDmgBits, "Shock " );

	mov	eax, DWORD PTR _dmgbits$[ebp]
	and	eax, 256				; 00000100H
	je	SHORT $LN11@PrintStrin
	push	99999					; 0001869fH
	push	OFFSET ??_C@_06HHPOOGIO@Shock?5?$AA@
	lea	eax, DWORD PTR _szDmgBits$[ebp]
	push	eax
	call	?Q_strncat@@YAIPADPBDI@Z		; Q_strncat
	add	esp, 12					; 0000000cH
$LN11@PrintStrin:

; 454  : 	if( dmgbits & DMG_SONIC ) Q_strcat( szDmgBits, "Sonic " );

	mov	eax, DWORD PTR _dmgbits$[ebp]
	and	eax, 512				; 00000200H
	je	SHORT $LN12@PrintStrin
	push	99999					; 0001869fH
	push	OFFSET ??_C@_06DGDFEOFK@Sonic?5?$AA@
	lea	eax, DWORD PTR _szDmgBits$[ebp]
	push	eax
	call	?Q_strncat@@YAIPADPBDI@Z		; Q_strncat
	add	esp, 12					; 0000000cH
$LN12@PrintStrin:

; 455  : 	if( dmgbits & DMG_ENERGYBEAM ) Q_strcat( szDmgBits, "Energy Beam " );

	mov	eax, DWORD PTR _dmgbits$[ebp]
	and	eax, 1024				; 00000400H
	je	SHORT $LN13@PrintStrin
	push	99999					; 0001869fH
	push	OFFSET ??_C@_0N@EDIGKLKL@Energy?5Beam?5?$AA@
	lea	eax, DWORD PTR _szDmgBits$[ebp]
	push	eax
	call	?Q_strncat@@YAIPADPBDI@Z		; Q_strncat
	add	esp, 12					; 0000000cH
$LN13@PrintStrin:

; 456  : 	if( dmgbits & DMG_NEVERGIB ) Q_strcat( szDmgBits, "Never Gib " );

	mov	eax, DWORD PTR _dmgbits$[ebp]
	and	eax, 4096				; 00001000H
	je	SHORT $LN14@PrintStrin
	push	99999					; 0001869fH
	push	OFFSET ??_C@_0L@DCELGEEG@Never?5Gib?5?$AA@
	lea	eax, DWORD PTR _szDmgBits$[ebp]
	push	eax
	call	?Q_strncat@@YAIPADPBDI@Z		; Q_strncat
	add	esp, 12					; 0000000cH
$LN14@PrintStrin:

; 457  : 	if( dmgbits & DMG_ALWAYSGIB ) Q_strcat( szDmgBits, "Always Gib " );

	mov	eax, DWORD PTR _dmgbits$[ebp]
	and	eax, 8192				; 00002000H
	je	SHORT $LN15@PrintStrin
	push	99999					; 0001869fH
	push	OFFSET ??_C@_0M@DBLGIPPB@Always?5Gib?5?$AA@
	lea	eax, DWORD PTR _szDmgBits$[ebp]
	push	eax
	call	?Q_strncat@@YAIPADPBDI@Z		; Q_strncat
	add	esp, 12					; 0000000cH
$LN15@PrintStrin:

; 458  : 	if( dmgbits & DMG_DROWN ) Q_strcat( szDmgBits, "Drown " );

	mov	eax, DWORD PTR _dmgbits$[ebp]
	and	eax, 16384				; 00004000H
	je	SHORT $LN16@PrintStrin
	push	99999					; 0001869fH
	push	OFFSET ??_C@_06KOHKGHBA@Drown?5?$AA@
	lea	eax, DWORD PTR _szDmgBits$[ebp]
	push	eax
	call	?Q_strncat@@YAIPADPBDI@Z		; Q_strncat
	add	esp, 12					; 0000000cH
$LN16@PrintStrin:

; 459  : 	if( dmgbits & DMG_PARALYZE ) Q_strcat( szDmgBits, "Paralyze Gas " );

	mov	eax, DWORD PTR _dmgbits$[ebp]
	and	eax, 32768				; 00008000H
	je	SHORT $LN17@PrintStrin
	push	99999					; 0001869fH
	push	OFFSET ??_C@_0O@FNBCIECF@Paralyze?5Gas?5?$AA@
	lea	eax, DWORD PTR _szDmgBits$[ebp]
	push	eax
	call	?Q_strncat@@YAIPADPBDI@Z		; Q_strncat
	add	esp, 12					; 0000000cH
$LN17@PrintStrin:

; 460  : 	if( dmgbits & DMG_NERVEGAS ) Q_strcat( szDmgBits, "Nerve Gas " );

	mov	eax, DWORD PTR _dmgbits$[ebp]
	and	eax, 65536				; 00010000H
	je	SHORT $LN18@PrintStrin
	push	99999					; 0001869fH
	push	OFFSET ??_C@_0L@OHLKEAGK@Nerve?5Gas?5?$AA@
	lea	eax, DWORD PTR _szDmgBits$[ebp]
	push	eax
	call	?Q_strncat@@YAIPADPBDI@Z		; Q_strncat
	add	esp, 12					; 0000000cH
$LN18@PrintStrin:

; 461  : 	if( dmgbits & DMG_POISON ) Q_strcat( szDmgBits, "Poison "  );

	mov	eax, DWORD PTR _dmgbits$[ebp]
	and	eax, 131072				; 00020000H
	je	SHORT $LN19@PrintStrin
	push	99999					; 0001869fH
	push	OFFSET ??_C@_07JHAEAOAM@Poison?5?$AA@
	lea	eax, DWORD PTR _szDmgBits$[ebp]
	push	eax
	call	?Q_strncat@@YAIPADPBDI@Z		; Q_strncat
	add	esp, 12					; 0000000cH
$LN19@PrintStrin:

; 462  : 	if( dmgbits & DMG_RADIATION ) Q_strcat( szDmgBits, "Radiation " );

	mov	eax, DWORD PTR _dmgbits$[ebp]
	and	eax, 262144				; 00040000H
	je	SHORT $LN20@PrintStrin
	push	99999					; 0001869fH
	push	OFFSET ??_C@_0L@NJHMBGOH@Radiation?5?$AA@
	lea	eax, DWORD PTR _szDmgBits$[ebp]
	push	eax
	call	?Q_strncat@@YAIPADPBDI@Z		; Q_strncat
	add	esp, 12					; 0000000cH
$LN20@PrintStrin:

; 463  : 	if( dmgbits & DMG_DROWNRECOVER ) Q_strcat( szDmgBits, "Drown Recover "  );

	mov	eax, DWORD PTR _dmgbits$[ebp]
	and	eax, 524288				; 00080000H
	je	SHORT $LN21@PrintStrin
	push	99999					; 0001869fH
	push	OFFSET ??_C@_0P@GIMMOKAK@Drown?5Recover?5?$AA@
	lea	eax, DWORD PTR _szDmgBits$[ebp]
	push	eax
	call	?Q_strncat@@YAIPADPBDI@Z		; Q_strncat
	add	esp, 12					; 0000000cH
$LN21@PrintStrin:

; 464  : 	if( dmgbits & DMG_ACID ) Q_strcat( szDmgBits, "Acid "   );

	mov	eax, DWORD PTR _dmgbits$[ebp]
	and	eax, 1048576				; 00100000H
	je	SHORT $LN22@PrintStrin
	push	99999					; 0001869fH
	push	OFFSET ??_C@_05MINPHFNP@Acid?5?$AA@
	lea	eax, DWORD PTR _szDmgBits$[ebp]
	push	eax
	call	?Q_strncat@@YAIPADPBDI@Z		; Q_strncat
	add	esp, 12					; 0000000cH
$LN22@PrintStrin:

; 465  : 	if( dmgbits & DMG_SLOWBURN ) Q_strcat( szDmgBits, "Slow Burn " );

	mov	eax, DWORD PTR _dmgbits$[ebp]
	and	eax, 2097152				; 00200000H
	je	SHORT $LN23@PrintStrin
	push	99999					; 0001869fH
	push	OFFSET ??_C@_0L@DBFEJAOP@Slow?5Burn?5?$AA@
	lea	eax, DWORD PTR _szDmgBits$[ebp]
	push	eax
	call	?Q_strncat@@YAIPADPBDI@Z		; Q_strncat
	add	esp, 12					; 0000000cH
$LN23@PrintStrin:

; 466  : 	if( dmgbits & DMG_SLOWFREEZE ) Q_strcat( szDmgBits, "Slow Freeze " );

	mov	eax, DWORD PTR _dmgbits$[ebp]
	and	eax, 4194304				; 00400000H
	je	SHORT $LN24@PrintStrin
	push	99999					; 0001869fH
	push	OFFSET ??_C@_0N@HOCPLMNK@Slow?5Freeze?5?$AA@
	lea	eax, DWORD PTR _szDmgBits$[ebp]
	push	eax
	call	?Q_strncat@@YAIPADPBDI@Z		; Q_strncat
	add	esp, 12					; 0000000cH
$LN24@PrintStrin:

; 467  : 	if( dmgbits & DMG_MORTAR ) Q_strcat( szDmgBits, "Mortar "  );

	mov	eax, DWORD PTR _dmgbits$[ebp]
	and	eax, 16777216				; 01000000H
	je	SHORT $LN25@PrintStrin
	push	99999					; 0001869fH
	push	OFFSET ??_C@_07FOGICJJJ@Mortar?5?$AA@
	lea	eax, DWORD PTR _szDmgBits$[ebp]
	push	eax
	call	?Q_strncat@@YAIPADPBDI@Z		; Q_strncat
	add	esp, 12					; 0000000cH
$LN25@PrintStrin:

; 468  : 	if( dmgbits & DMG_NUCLEAR ) Q_strcat( szDmgBits, "Nuclear Explode " );		

	mov	eax, DWORD PTR _dmgbits$[ebp]
	and	eax, 8388608				; 00800000H
	je	SHORT $LN26@PrintStrin
	push	99999					; 0001869fH
	push	OFFSET ??_C@_0BB@DPEOBDLP@Nuclear?5Explode?5?$AA@
	lea	eax, DWORD PTR _szDmgBits$[ebp]
	push	eax
	call	?Q_strncat@@YAIPADPBDI@Z		; Q_strncat
	add	esp, 12					; 0000000cH
$LN26@PrintStrin:

; 469  : 
; 470  : 	Msg( "%s\n", szDmgBits );

	lea	eax, DWORD PTR _szDmgBits$[ebp]
	push	eax
	push	OFFSET ??_C@_03OFAPEBGM@?$CFs?6?$AA@
	call	?Msg@@YAXPBDZZ				; Msg
	add	esp, 8

; 471  : }

	pop	edi
	pop	esi
	pop	ebx
	mov	ecx, DWORD PTR __$ArrayPad$[ebp]
	xor	ecx, ebp
	call	@__security_check_cookie@4
	mov	esp, ebp
	pop	ebp
	ret	0
?PrintStringForDamage@@YAXH@Z ENDP			; PrintStringForDamage
_TEXT	ENDS
; Function compile flags: /Odtp /ZI
; File d:\!diffusion 2020\source code 2022\client-server\server\util.cpp
;	COMDAT ?GetContentsString@@YAPBDH@Z
_TEXT	SEGMENT
tv64 = -68						; size = 4
_contents$ = 8						; size = 4
?GetContentsString@@YAPBDH@Z PROC			; GetContentsString, COMDAT

; 474  : {

	push	ebp
	mov	ebp, esp
	sub	esp, 68					; 00000044H
	push	ebx
	push	esi
	push	edi

; 475  : 	switch( contents )

	mov	eax, DWORD PTR _contents$[ebp]
	mov	DWORD PTR tv64[ebp], eax
	mov	ecx, DWORD PTR tv64[ebp]
	add	ecx, 22					; 00000016H
	mov	DWORD PTR tv64[ebp], ecx
	cmp	DWORD PTR tv64[ebp], 21			; 00000015H
	ja	SHORT $LN17@GetContent
	mov	edx, DWORD PTR tv64[ebp]
	movzx	eax, BYTE PTR $LN19@GetContent[edx]
	jmp	DWORD PTR $LN20@GetContent[eax*4]
$LN4@GetContent:

; 476  : 	{
; 477  : 	case -1: return "EMPTY";

	mov	eax, OFFSET ??_C@_05HKAKDGKI@EMPTY?$AA@
	jmp	SHORT $LN1@GetContent
$LN5@GetContent:

; 478  : 	case -2: return "SOLID";

	mov	eax, OFFSET ??_C@_05CEBIDAFG@SOLID?$AA@
	jmp	SHORT $LN1@GetContent
$LN6@GetContent:

; 479  : 	case -3: return "WATER";

	mov	eax, OFFSET ??_C@_05IAJGPPOC@WATER?$AA@
	jmp	SHORT $LN1@GetContent
$LN7@GetContent:

; 480  : 	case -4: return "SLIME";

	mov	eax, OFFSET ??_C@_05EKHECDCJ@SLIME?$AA@
	jmp	SHORT $LN1@GetContent
$LN8@GetContent:

; 481  : 	case -5: return "LAVA";

	mov	eax, OFFSET ??_C@_04GCFKOLE@LAVA?$AA@
	jmp	SHORT $LN1@GetContent
$LN9@GetContent:

; 482  : 	case -6: return "SKY";

	mov	eax, OFFSET ??_C@_03BALFAEJD@SKY?$AA@
	jmp	SHORT $LN1@GetContent
$LN10@GetContent:

; 483  : 	case -16: return "LADDER";

	mov	eax, OFFSET ??_C@_06GCOFKHFL@LADDER?$AA@
	jmp	SHORT $LN1@GetContent
$LN11@GetContent:

; 484  : 	case -17: return "FLYFIELD";

	mov	eax, OFFSET ??_C@_08LBLMGPPJ@FLYFIELD?$AA@
	jmp	SHORT $LN1@GetContent
$LN12@GetContent:

; 485  : 	case -18: return "GRAVITY_FLYFIELD";

	mov	eax, OFFSET ??_C@_0BB@EODHJKLI@GRAVITY_FLYFIELD?$AA@
	jmp	SHORT $LN1@GetContent
$LN13@GetContent:

; 486  : 	case -19: return "FOG";

	mov	eax, OFFSET ??_C@_03KEDKDEDN@FOG?$AA@
	jmp	SHORT $LN1@GetContent
$LN14@GetContent:

; 487  : 	case -20: return "SPECIAL 1";

	mov	eax, OFFSET ??_C@_09EKIMMEFD@SPECIAL?51?$AA@
	jmp	SHORT $LN1@GetContent
$LN15@GetContent:

; 488  : 	case -21: return "SPECIAL 2";

	mov	eax, OFFSET ??_C@_09GBKBJHJA@SPECIAL?52?$AA@
	jmp	SHORT $LN1@GetContent
$LN16@GetContent:

; 489  : 	case -22: return "SPECIAL 3";

	mov	eax, OFFSET ??_C@_09HILKKGNB@SPECIAL?53?$AA@
	jmp	SHORT $LN1@GetContent
$LN17@GetContent:

; 490  : 	default: return "NO CONTENTS!";

	mov	eax, OFFSET ??_C@_0N@PCPMIODG@NO?5CONTENTS?$CB?$AA@
$LN1@GetContent:

; 491  : 	}
; 492  : }

	pop	edi
	pop	esi
	pop	ebx
	mov	esp, ebp
	pop	ebp
	ret	0
	npad	2
$LN20@GetContent:
	DD	$LN16@GetContent
	DD	$LN15@GetContent
	DD	$LN14@GetContent
	DD	$LN13@GetContent
	DD	$LN12@GetContent
	DD	$LN11@GetContent
	DD	$LN10@GetContent
	DD	$LN9@GetContent
	DD	$LN8@GetContent
	DD	$LN7@GetContent
	DD	$LN6@GetContent
	DD	$LN5@GetContent
	DD	$LN4@GetContent
	DD	$LN17@GetContent
$LN19@GetContent:
	DB	0
	DB	1
	DB	2
	DB	3
	DB	4
	DB	5
	DB	6
	DB	13					; 0000000dH
	DB	13					; 0000000dH
	DB	13					; 0000000dH
	DB	13					; 0000000dH
	DB	13					; 0000000dH
	DB	13					; 0000000dH
	DB	13					; 0000000dH
	DB	13					; 0000000dH
	DB	13					; 0000000dH
	DB	7
	DB	8
	DB	9
	DB	10					; 0000000aH
	DB	11					; 0000000bH
	DB	12					; 0000000cH
?GetContentsString@@YAPBDH@Z ENDP			; GetContentsString
_TEXT	ENDS
; Function compile flags: /Odtp /ZI
; File d:\!diffusion 2020\source code 2022\client-server\server\util.cpp
;	COMDAT ?GetStringForGlobalState@@YAPBDW4GLOBALESTATE@@@Z
_TEXT	SEGMENT
tv64 = -68						; size = 4
_state$ = 8						; size = 4
?GetStringForGlobalState@@YAPBDW4GLOBALESTATE@@@Z PROC	; GetStringForGlobalState, COMDAT

; 495  : {

	push	ebp
	mov	ebp, esp
	sub	esp, 68					; 00000044H
	push	ebx
	push	esi
	push	edi

; 496  : 	switch( state )

	mov	eax, DWORD PTR _state$[ebp]
	mov	DWORD PTR tv64[ebp], eax
	cmp	DWORD PTR tv64[ebp], 0
	je	SHORT $LN5@GetStringF
	cmp	DWORD PTR tv64[ebp], 1
	je	SHORT $LN4@GetStringF
	cmp	DWORD PTR tv64[ebp], 2
	je	SHORT $LN6@GetStringF
	jmp	SHORT $LN7@GetStringF
$LN4@GetStringF:

; 497  : 	{
; 498  : 	case GLOBAL_ON: return "GLOBAL ON";

	mov	eax, OFFSET ??_C@_09JHJFKEJL@GLOBAL?5ON?$AA@
	jmp	SHORT $LN1@GetStringF
$LN5@GetStringF:

; 499  : 	case GLOBAL_OFF: return "GLOBAL OFF";

	mov	eax, OFFSET ??_C@_0L@MPHKGGFD@GLOBAL?5OFF?$AA@
	jmp	SHORT $LN1@GetStringF
$LN6@GetStringF:

; 500  : 	case GLOBAL_DEAD: return "GLOBAL DEAD";

	mov	eax, OFFSET ??_C@_0M@GJCHIFD@GLOBAL?5DEAD?$AA@
	jmp	SHORT $LN1@GetStringF
$LN7@GetStringF:

; 501  : 	default: return "UNKNOWN STATE!";

	mov	eax, OFFSET ??_C@_0P@DDEIIOOC@UNKNOWN?5STATE?$CB?$AA@
$LN1@GetStringF:

; 502  : 	}
; 503  : }

	pop	edi
	pop	esi
	pop	ebx
	mov	esp, ebp
	pop	ebp
	ret	0
?GetStringForGlobalState@@YAPBDW4GLOBALESTATE@@@Z ENDP	; GetStringForGlobalState
_TEXT	ENDS
; Function compile flags: /Odtp /ZI
; File d:\!diffusion 2020\source code 2022\client-server\server\util.cpp
;	COMDAT ?GetStringForState@@YAPBDW4STATE@@@Z
_TEXT	SEGMENT
tv64 = -68						; size = 4
_state$ = 8						; size = 4
?GetStringForState@@YAPBDW4STATE@@@Z PROC		; GetStringForState, COMDAT

; 403  : {

	push	ebp
	mov	ebp, esp
	sub	esp, 68					; 00000044H
	push	ebx
	push	esi
	push	edi

; 404  : 	switch( state )

	mov	eax, DWORD PTR _state$[ebp]
	mov	DWORD PTR tv64[ebp], eax
	cmp	DWORD PTR tv64[ebp], 5
	ja	SHORT $LN10@GetStringF
	mov	ecx, DWORD PTR tv64[ebp]
	jmp	DWORD PTR $LN12@GetStringF[ecx*4]
$LN4@GetStringF:

; 405  : 	{
; 406  : 	case STATE_ON: return "ON";

	mov	eax, OFFSET ??_C@_02BFICIOJL@ON?$AA@
	jmp	SHORT $LN1@GetStringF
$LN5@GetStringF:

; 407  : 	case STATE_OFF: return "OFF";

	mov	eax, OFFSET ??_C@_03MPPIHBHJ@OFF?$AA@
	jmp	SHORT $LN1@GetStringF
$LN6@GetStringF:

; 408  : 	case STATE_TURN_ON: return "TURN ON";

	mov	eax, OFFSET ??_C@_07CJNHFDCG@TURN?5ON?$AA@
	jmp	SHORT $LN1@GetStringF
$LN7@GetStringF:

; 409  : 	case STATE_TURN_OFF: return "TURN OFF";

	mov	eax, OFFSET ??_C@_08HKBEOLJF@TURN?5OFF?$AA@
	jmp	SHORT $LN1@GetStringF
$LN8@GetStringF:

; 410  : 	case STATE_IN_USE: return "IN USE";

	mov	eax, OFFSET ??_C@_06FILEIAAK@IN?5USE?$AA@
	jmp	SHORT $LN1@GetStringF
$LN9@GetStringF:

; 411  : 	case STATE_DEAD: return "DEAD";

	mov	eax, OFFSET ??_C@_04NNCJDDJC@DEAD?$AA@
	jmp	SHORT $LN1@GetStringF
$LN10@GetStringF:

; 412  : 	default: return "UNKNOWN STATE!";

	mov	eax, OFFSET ??_C@_0P@DDEIIOOC@UNKNOWN?5STATE?$CB?$AA@
$LN1@GetStringF:

; 413  : 	}
; 414  : }

	pop	edi
	pop	esi
	pop	ebx
	mov	esp, ebp
	pop	ebp
	ret	0
	npad	3
$LN12@GetStringF:
	DD	$LN5@GetStringF
	DD	$LN4@GetStringF
	DD	$LN6@GetStringF
	DD	$LN7@GetStringF
	DD	$LN8@GetStringF
	DD	$LN9@GetStringF
?GetStringForState@@YAPBDW4STATE@@@Z ENDP		; GetStringForState
_TEXT	ENDS
; Function compile flags: /Odtp /ZI
; File d:\!diffusion 2020\source code 2022\client-server\server\util.cpp
;	COMDAT ?GetStringForUseType@@YAPBDW4USE_TYPE@@@Z
_TEXT	SEGMENT
tv64 = -68						; size = 4
_useType$ = 8						; size = 4
?GetStringForUseType@@YAPBDW4USE_TYPE@@@Z PROC		; GetStringForUseType, COMDAT

; 389  : {

	push	ebp
	mov	ebp, esp
	sub	esp, 68					; 00000044H
	push	ebx
	push	esi
	push	edi

; 390  : 	switch( useType )

	mov	eax, DWORD PTR _useType$[ebp]
	mov	DWORD PTR tv64[ebp], eax
	cmp	DWORD PTR tv64[ebp], 5
	ja	SHORT $LN10@GetStringF
	mov	ecx, DWORD PTR tv64[ebp]
	jmp	DWORD PTR $LN12@GetStringF[ecx*4]
$LN4@GetStringF:

; 391  : 	{
; 392  : 	case USE_ON: return "USE_ON";

	mov	eax, OFFSET ??_C@_06IPCFPMHD@USE_ON?$AA@
	jmp	SHORT $LN1@GetStringF
$LN5@GetStringF:

; 393  : 	case USE_OFF: return "USE_OFF";

	mov	eax, OFFSET ??_C@_07GBLDLMEB@USE_OFF?$AA@
	jmp	SHORT $LN1@GetStringF
$LN6@GetStringF:

; 394  : 	case USE_TOGGLE: return "USE_TOGGLE";

	mov	eax, OFFSET ??_C@_0L@OGLLPLDI@USE_TOGGLE?$AA@
	jmp	SHORT $LN1@GetStringF
$LN7@GetStringF:

; 395  : 	case USE_SET: return "USE_SET";

	mov	eax, OFFSET ??_C@_07BMOJKOM@USE_SET?$AA@
	jmp	SHORT $LN1@GetStringF
$LN8@GetStringF:

; 396  : 	case USE_RESET: return "USE_RESET";

	mov	eax, OFFSET ??_C@_09BMBMPLBD@USE_RESET?$AA@
	jmp	SHORT $LN1@GetStringF
$LN9@GetStringF:

; 397  : 	case USE_REMOVE: return "USE_REMOVE";

	mov	eax, OFFSET ??_C@_0L@LKEFPLIM@USE_REMOVE?$AA@
	jmp	SHORT $LN1@GetStringF
$LN10@GetStringF:

; 398  : 	default: return "UNKNOWN USE_TYPE!";

	mov	eax, OFFSET ??_C@_0BC@KILIBAEO@UNKNOWN?5USE_TYPE?$CB?$AA@
$LN1@GetStringF:

; 399  : 	}
; 400  : }

	pop	edi
	pop	esi
	pop	ebx
	mov	esp, ebp
	pop	ebp
	ret	0
	npad	3
$LN12@GetStringF:
	DD	$LN5@GetStringF
	DD	$LN4@GetStringF
	DD	$LN7@GetStringF
	DD	$LN6@GetStringF
	DD	$LN8@GetStringF
	DD	$LN9@GetStringF
?GetStringForUseType@@YAPBDW4USE_TYPE@@@Z ENDP		; GetStringForUseType
_TEXT	ENDS
; Function compile flags: /Odtp /ZI
; File d:\!diffusion 2020\source code 2022\client-server\server\util.cpp
;	COMDAT ?DumpStrings_f@@YAXXZ
_TEXT	SEGMENT
?DumpStrings_f@@YAXXZ PROC				; DumpStrings_f, COMDAT

; 169  : {

	push	ebp
	mov	ebp, esp
	sub	esp, 64					; 00000040H
	push	ebx
	push	esi
	push	edi

; 170  : 	g_GameStringPool.Dump();

	mov	ecx, OFFSET ?g_GameStringPool@@3VCStringPool@@A ; g_GameStringPool
	call	?Dump@CStringPool@@QAEXXZ		; CStringPool::Dump

; 171  : }

	pop	edi
	pop	esi
	pop	ebx
	mov	esp, ebp
	pop	ebp
	ret	0
?DumpStrings_f@@YAXXZ ENDP				; DumpStrings_f
_TEXT	ENDS
; Function compile flags: /Odtp /ZI
; File d:\!diffusion 2020\source code 2022\client-server\server\util.cpp
;	COMDAT ?DumpEntitySizes_f@@YAXXZ
_TEXT	SEGMENT
?DumpEntitySizes_f@@YAXXZ PROC				; DumpEntitySizes_f, COMDAT

; 164  : {

	push	ebp
	mov	ebp, esp
	sub	esp, 64					; 00000040H
	push	ebx
	push	esi
	push	edi

; 165  : 	((CEntityFactoryDictionary*)EntityFactoryDictionary())->ReportEntitySizes();

	call	?EntityFactoryDictionary@@YAPAVIEntityFactoryDictionary@@XZ ; EntityFactoryDictionary
	mov	ecx, eax
	call	?ReportEntitySizes@CEntityFactoryDictionary@@QAEXXZ ; CEntityFactoryDictionary::ReportEntitySizes

; 166  : }

	pop	edi
	pop	esi
	pop	ebx
	mov	esp, ebp
	pop	ebp
	ret	0
?DumpEntitySizes_f@@YAXXZ ENDP				; DumpEntitySizes_f
_TEXT	ENDS
; Function compile flags: /Odtp /ZI
; File d:\!diffusion 2020\source code 2022\client-server\server\util.cpp
;	COMDAT ?DumpEntityNames_f@@YAXXZ
_TEXT	SEGMENT
_i$1 = -8						; size = 4
_dict$ = -4						; size = 4
?DumpEntityNames_f@@YAXXZ PROC				; DumpEntityNames_f, COMDAT

; 148  : {

	push	ebp
	mov	ebp, esp
	sub	esp, 72					; 00000048H
	push	ebx
	push	esi
	push	edi

; 149  : 	CEntityFactoryDictionary *dict = (CEntityFactoryDictionary *)EntityFactoryDictionary();

	call	?EntityFactoryDictionary@@YAPAVIEntityFactoryDictionary@@XZ ; EntityFactoryDictionary
	mov	DWORD PTR _dict$[ebp], eax

; 150  : 
; 151  : 	if( !dict )

	cmp	DWORD PTR _dict$[ebp], 0
	jne	SHORT $LN5@DumpEntity

; 152  : 	{
; 153  : 		ALERT( at_error, "Entity Factory not installed!\n" );

	push	OFFSET ??_C@_0BP@EKJAMGDB@Entity?5Factory?5not?5installed?$CB?6?$AA@
	push	4
	call	DWORD PTR ?g_engfuncs@@3Uenginefuncs_s@@A+244
	add	esp, 8

; 154  : 		return;

	jmp	SHORT $LN1@DumpEntity
$LN5@DumpEntity:

; 155  : 	}
; 156  : 
; 157  : 	for( int i = dict->m_Factories.First(); i != dict->m_Factories.InvalidIndex(); i = dict->m_Factories.Next( i ))

	mov	ecx, DWORD PTR _dict$[ebp]
	add	ecx, 4
	call	?First@?$CUtlDict@PAVIEntityFactory@@G@@QBEGXZ ; CUtlDict<IEntityFactory *,unsigned short>::First
	movzx	eax, ax
	mov	DWORD PTR _i$1[ebp], eax
	jmp	SHORT $LN4@DumpEntity
$LN2@DumpEntity:
	movzx	eax, WORD PTR _i$1[ebp]
	push	eax
	mov	ecx, DWORD PTR _dict$[ebp]
	add	ecx, 4
	call	?Next@?$CUtlDict@PAVIEntityFactory@@G@@QBEGG@Z ; CUtlDict<IEntityFactory *,unsigned short>::Next
	movzx	ecx, ax
	mov	DWORD PTR _i$1[ebp], ecx
$LN4@DumpEntity:
	call	?InvalidIndex@?$CUtlDict@PAVIEntityFactory@@G@@SAGXZ ; CUtlDict<IEntityFactory *,unsigned short>::InvalidIndex
	movzx	eax, ax
	cmp	DWORD PTR _i$1[ebp], eax
	je	SHORT $LN1@DumpEntity

; 158  : 	{
; 159  : 		ALERT( at_console, "%s\n", dict->m_Factories.GetElementName( i ));

	movzx	eax, WORD PTR _i$1[ebp]
	push	eax
	mov	ecx, DWORD PTR _dict$[ebp]
	add	ecx, 4
	call	?GetElementName@?$CUtlDict@PAVIEntityFactory@@G@@QAEPADG@Z ; CUtlDict<IEntityFactory *,unsigned short>::GetElementName
	push	eax
	push	OFFSET ??_C@_03OFAPEBGM@?$CFs?6?$AA@
	push	1
	call	DWORD PTR ?g_engfuncs@@3Uenginefuncs_s@@A+244
	add	esp, 12					; 0000000cH

; 160  : 	}

	jmp	SHORT $LN2@DumpEntity
$LN1@DumpEntity:

; 161  : }

	pop	edi
	pop	esi
	pop	ebx
	mov	esp, ebp
	pop	ebp
	ret	0
?DumpEntityNames_f@@YAXXZ ENDP				; DumpEntityNames_f
_TEXT	ENDS
; Function compile flags: /Odtp /ZI
; File d:\!diffusion 2020\source code 2022\client-server\server\util.cpp
;	COMDAT ?FClassnameIs@@YAHPAVCBaseEntity@@PBD@Z
_TEXT	SEGMENT
_pEnt$ = 8						; size = 4
_szClassname$ = 12					; size = 4
?FClassnameIs@@YAHPAVCBaseEntity@@PBD@Z PROC		; FClassnameIs, COMDAT

; 261  : { 

	push	ebp
	mov	ebp, esp
	sub	esp, 64					; 00000040H
	push	ebx
	push	esi
	push	edi

; 262  : 	return FStrEq( pEnt->GetClassname(), szClassname );

	mov	eax, DWORD PTR _szClassname$[ebp]
	push	eax
	mov	ecx, DWORD PTR _pEnt$[ebp]
	call	?GetClassname@CBaseEntity@@QAEPBDXZ	; CBaseEntity::GetClassname
	push	eax
	call	?FStrEq@@YAHPBD0@Z			; FStrEq
	add	esp, 8

; 263  : }

	pop	edi
	pop	esi
	pop	ebx
	mov	esp, ebp
	pop	ebp
	ret	0
?FClassnameIs@@YAHPAVCBaseEntity@@PBD@Z ENDP		; FClassnameIs
_TEXT	ENDS
; Function compile flags: /Odtp /ZI
; File d:\!diffusion 2020\source code 2022\client-server\server\util.h
;	COMDAT ?FStrEq@@YAHPBD0@Z
_TEXT	SEGMENT
tv69 = -68						; size = 4
_sz1$ = 8						; size = 4
_sz2$ = 12						; size = 4
?FStrEq@@YAHPBD0@Z PROC					; FStrEq, COMDAT

; 287  : {

	push	ebp
	mov	ebp, esp
	sub	esp, 68					; 00000044H
	push	ebx
	push	esi
	push	edi

; 288  : 	return (Q_strcmp( sz1, sz2 ) == 0);

	push	99999					; 0001869fH
	mov	eax, DWORD PTR _sz2$[ebp]
	push	eax
	mov	ecx, DWORD PTR _sz1$[ebp]
	push	ecx
	call	?Q_strncmp@@YAHPBD0H@Z			; Q_strncmp
	add	esp, 12					; 0000000cH
	test	eax, eax
	jne	SHORT $LN3@FStrEq
	mov	DWORD PTR tv69[ebp], 1
	jmp	SHORT $LN4@FStrEq
$LN3@FStrEq:
	mov	DWORD PTR tv69[ebp], 0
$LN4@FStrEq:
	mov	eax, DWORD PTR tv69[ebp]

; 289  : }

	pop	edi
	pop	esi
	pop	ebx
	mov	esp, ebp
	pop	ebp
	ret	0
?FStrEq@@YAHPBD0@Z ENDP					; FStrEq
_TEXT	ENDS
; Function compile flags: /Odtp /ZI
; File d:\!diffusion 2020\source code 2022\client-server\server\util.cpp
;	COMDAT ?Sys_FreeLibrary@@YAXPAPAUHINSTANCE__@@@Z
_TEXT	SEGMENT
_handle$ = 8						; size = 4
?Sys_FreeLibrary@@YAXPAPAUHINSTANCE__@@@Z PROC		; Sys_FreeLibrary, COMDAT

; 3197 : {

	push	ebp
	mov	ebp, esp
	sub	esp, 64					; 00000040H
	push	ebx
	push	esi
	push	edi

; 3198 : 	if( !handle || !*handle )

	cmp	DWORD PTR _handle$[ebp], 0
	je	SHORT $LN3@Sys_FreeLi
	mov	eax, DWORD PTR _handle$[ebp]
	cmp	DWORD PTR [eax], 0
	jne	SHORT $LN2@Sys_FreeLi
$LN3@Sys_FreeLi:

; 3199 : 		return;

	jmp	SHORT $LN1@Sys_FreeLi
$LN2@Sys_FreeLi:

; 3200 : 
; 3201 : 	FreeLibrary( *handle );

	mov	eax, DWORD PTR _handle$[ebp]
	mov	ecx, DWORD PTR [eax]
	push	ecx
	call	DWORD PTR __imp__FreeLibrary@4

; 3202 : 	*handle = NULL;

	mov	eax, DWORD PTR _handle$[ebp]
	mov	DWORD PTR [eax], 0
$LN1@Sys_FreeLi:

; 3203 : }

	pop	edi
	pop	esi
	pop	ebx
	mov	esp, ebp
	pop	ebp
	ret	0
?Sys_FreeLibrary@@YAXPAPAUHINSTANCE__@@@Z ENDP		; Sys_FreeLibrary
_TEXT	ENDS
; Function compile flags: /Odtp /ZI
; File d:\!diffusion 2020\source code 2022\client-server\server\util.cpp
;	COMDAT ?Sys_GetProcAddress@@YAPAXPAUHINSTANCE__@@PBD@Z
_TEXT	SEGMENT
_handle$ = 8						; size = 4
_name$ = 12						; size = 4
?Sys_GetProcAddress@@YAPAXPAUHINSTANCE__@@PBD@Z PROC	; Sys_GetProcAddress, COMDAT

; 3192 : {

	push	ebp
	mov	ebp, esp
	sub	esp, 64					; 00000040H
	push	ebx
	push	esi
	push	edi

; 3193 : 	return (void *)GetProcAddress( handle, name );

	mov	eax, DWORD PTR _name$[ebp]
	push	eax
	mov	ecx, DWORD PTR _handle$[ebp]
	push	ecx
	call	DWORD PTR __imp__GetProcAddress@8

; 3194 : }

	pop	edi
	pop	esi
	pop	ebx
	mov	esp, ebp
	pop	ebp
	ret	0
?Sys_GetProcAddress@@YAPAXPAUHINSTANCE__@@PBD@Z ENDP	; Sys_GetProcAddress
_TEXT	ENDS
; Function compile flags: /Odtp /ZI
; File d:\!diffusion 2020\source code 2022\client-server\server\util.cpp
;	COMDAT ?Sys_LoadLibrary@@YA_NPBDPAPAUHINSTANCE__@@PBUdllfunc_s@@@Z
_TEXT	SEGMENT
tv137 = -468						; size = 4
tv93 = -468						; size = 4
_dllhandle$ = -400					; size = 4
_szDirName$ = -396					; size = 260
_dllpath$ = -136					; size = 128
_gamefunc$ = -8						; size = 4
__$ArrayPad$ = -4					; size = 4
_dllname$ = 8						; size = 4
_handle$ = 12						; size = 4
_fcts$ = 16						; size = 4
?Sys_LoadLibrary@@YA_NPBDPAPAUHINSTANCE__@@PBUdllfunc_s@@@Z PROC ; Sys_LoadLibrary, COMDAT

; 3152 : {

	push	ebp
	mov	ebp, esp
	sub	esp, 468				; 000001d4H
	mov	eax, DWORD PTR ___security_cookie
	xor	eax, ebp
	mov	DWORD PTR __$ArrayPad$[ebp], eax
	push	ebx
	push	esi
	push	edi

; 3153 : 	if( !handle ) return false;

	cmp	DWORD PTR _handle$[ebp], 0
	jne	SHORT $LN8@Sys_LoadLi
	xor	al, al
	jmp	$LN1@Sys_LoadLi
$LN8@Sys_LoadLi:

; 3154 : 
; 3155 : 	const dllfunc_t *gamefunc;
; 3156 : 
; 3157 : 	// Initializations
; 3158 : 	for( gamefunc = fcts; gamefunc && gamefunc->name != NULL; gamefunc++ )

	mov	eax, DWORD PTR _fcts$[ebp]
	mov	DWORD PTR _gamefunc$[ebp], eax
	jmp	SHORT $LN4@Sys_LoadLi
$LN2@Sys_LoadLi:
	mov	eax, DWORD PTR _gamefunc$[ebp]
	add	eax, 8
	mov	DWORD PTR _gamefunc$[ebp], eax
$LN4@Sys_LoadLi:
	cmp	DWORD PTR _gamefunc$[ebp], 0
	je	SHORT $LN3@Sys_LoadLi
	mov	eax, DWORD PTR _gamefunc$[ebp]
	cmp	DWORD PTR [eax], 0
	je	SHORT $LN3@Sys_LoadLi

; 3159 : 		*gamefunc->func = NULL;

	mov	eax, DWORD PTR _gamefunc$[ebp]
	mov	ecx, DWORD PTR [eax+4]
	mov	DWORD PTR [ecx], 0
	jmp	SHORT $LN2@Sys_LoadLi
$LN3@Sys_LoadLi:

; 3160 : 
; 3161 : 	char dllpath[128];
; 3162 : 	char szDirName[MAX_PATH];
; 3163 : 
; 3164 : 	GET_GAME_DIR( szDirName );

	lea	eax, DWORD PTR _szDirName$[ebp]
	push	eax
	call	DWORD PTR ?g_engfuncs@@3Uenginefuncs_s@@A+396
	add	esp, 4

; 3165 : 
; 3166 : 	// is direct path used ?
; 3167 : 	if( dllname[0] == '*' ) Q_strncpy( dllpath, dllname + 1, sizeof( dllpath ));

	mov	eax, 1
	imul	ecx, eax, 0
	mov	edx, DWORD PTR _dllname$[ebp]
	movsx	eax, BYTE PTR [edx+ecx]
	cmp	eax, 42					; 0000002aH
	jne	SHORT $LN9@Sys_LoadLi
	push	128					; 00000080H
	mov	eax, DWORD PTR _dllname$[ebp]
	add	eax, 1
	push	eax
	lea	ecx, DWORD PTR _dllpath$[ebp]
	push	ecx
	call	?Q_strncpy@@YAIPADPBDI@Z		; Q_strncpy
	add	esp, 12					; 0000000cH
	jmp	SHORT $LN10@Sys_LoadLi
$LN9@Sys_LoadLi:

; 3168 : 	else Q_snprintf( dllpath, sizeof( dllpath ), "%s/bin/%s", szDirName, dllname );

	mov	eax, DWORD PTR _dllname$[ebp]
	push	eax
	lea	ecx, DWORD PTR _szDirName$[ebp]
	push	ecx
	push	OFFSET ??_C@_09ILGMALND@?$CFs?1bin?1?$CFs?$AA@
	push	128					; 00000080H
	lea	edx, DWORD PTR _dllpath$[ebp]
	push	edx
	call	?Q_snprintf@@YAHPADIPBDZZ		; Q_snprintf
	add	esp, 20					; 00000014H
$LN10@Sys_LoadLi:

; 3169 : 
; 3170 : 	dllhandle_t dllhandle = LoadLibrary( dllpath );

	lea	eax, DWORD PTR _dllpath$[ebp]
	push	eax
	call	DWORD PTR __imp__LoadLibraryA@4
	mov	DWORD PTR _dllhandle$[ebp], eax

; 3171 :         
; 3172 : 	// No DLL found
; 3173 : 	if( !dllhandle ) return false;

	cmp	DWORD PTR _dllhandle$[ebp], 0
	jne	SHORT $LN11@Sys_LoadLi
	xor	al, al
	jmp	$LN1@Sys_LoadLi
$LN11@Sys_LoadLi:

; 3174 : 
; 3175 : 	// Get the function adresses
; 3176 : 	for( gamefunc = fcts; gamefunc && gamefunc->name != NULL; gamefunc++ )

	mov	eax, DWORD PTR _fcts$[ebp]
	mov	DWORD PTR _gamefunc$[ebp], eax
	jmp	SHORT $LN7@Sys_LoadLi
$LN5@Sys_LoadLi:
	mov	eax, DWORD PTR _gamefunc$[ebp]
	add	eax, 8
	mov	DWORD PTR _gamefunc$[ebp], eax
$LN7@Sys_LoadLi:
	cmp	DWORD PTR _gamefunc$[ebp], 0
	je	SHORT $LN6@Sys_LoadLi
	mov	eax, DWORD PTR _gamefunc$[ebp]
	cmp	DWORD PTR [eax], 0
	je	SHORT $LN6@Sys_LoadLi

; 3177 : 	{
; 3178 : 		if( !( *gamefunc->func = (void *)Sys_GetProcAddress( dllhandle, gamefunc->name )))

	mov	eax, DWORD PTR _gamefunc$[ebp]
	mov	ecx, DWORD PTR [eax]
	push	ecx
	mov	edx, DWORD PTR _dllhandle$[ebp]
	push	edx
	call	?Sys_GetProcAddress@@YAPAXPAUHINSTANCE__@@PBD@Z ; Sys_GetProcAddress
	add	esp, 8
	mov	DWORD PTR tv93[ebp], eax
	mov	eax, DWORD PTR _gamefunc$[ebp]
	mov	ecx, DWORD PTR [eax+4]
	mov	edx, DWORD PTR tv93[ebp]
	mov	DWORD PTR [ecx], edx
	cmp	DWORD PTR tv93[ebp], 0
	jne	SHORT $LN12@Sys_LoadLi

; 3179 : 		{
; 3180 : 			Sys_FreeLibrary( &dllhandle );

	lea	eax, DWORD PTR _dllhandle$[ebp]
	push	eax
	call	?Sys_FreeLibrary@@YAXPAPAUHINSTANCE__@@@Z ; Sys_FreeLibrary
	add	esp, 4

; 3181 : 			return false;

	xor	al, al
	jmp	SHORT $LN1@Sys_LoadLi
$LN12@Sys_LoadLi:

; 3182 : 		}
; 3183 : 	}          

	jmp	SHORT $LN5@Sys_LoadLi
$LN6@Sys_LoadLi:

; 3184 : 
; 3185 : 	ALERT( at_aiconsole, "%s loaded succesfully!\n", (dllname[0] == '*') ? (dllname+1) : (dllname));

	mov	eax, 1
	imul	ecx, eax, 0
	mov	edx, DWORD PTR _dllname$[ebp]
	movsx	eax, BYTE PTR [edx+ecx]
	cmp	eax, 42					; 0000002aH
	jne	SHORT $LN14@Sys_LoadLi
	mov	ecx, DWORD PTR _dllname$[ebp]
	add	ecx, 1
	mov	DWORD PTR tv137[ebp], ecx
	jmp	SHORT $LN15@Sys_LoadLi
$LN14@Sys_LoadLi:
	mov	edx, DWORD PTR _dllname$[ebp]
	mov	DWORD PTR tv137[ebp], edx
$LN15@Sys_LoadLi:
	mov	eax, DWORD PTR tv137[ebp]
	push	eax
	push	OFFSET ??_C@_0BI@BOKDEL@?$CFs?5loaded?5succesfully?$CB?6?$AA@
	push	2
	call	DWORD PTR ?g_engfuncs@@3Uenginefuncs_s@@A+244
	add	esp, 12					; 0000000cH

; 3186 : 	*handle = dllhandle;

	mov	eax, DWORD PTR _handle$[ebp]
	mov	ecx, DWORD PTR _dllhandle$[ebp]
	mov	DWORD PTR [eax], ecx

; 3187 : 
; 3188 : 	return true;

	mov	al, 1
$LN1@Sys_LoadLi:

; 3189 : }

	pop	edi
	pop	esi
	pop	ebx
	mov	ecx, DWORD PTR __$ArrayPad$[ebp]
	xor	ecx, ebp
	call	@__security_check_cookie@4
	mov	esp, ebp
	pop	ebp
	ret	0
?Sys_LoadLibrary@@YA_NPBDPAPAUHINSTANCE__@@PBUdllfunc_s@@@Z ENDP ; Sys_LoadLibrary
_TEXT	ENDS
; Function compile flags: /Odtp /ZI
; File d:\!diffusion 2020\source code 2022\client-server\server\util.cpp
;	COMDAT ?FNullEnt@@YAHPAVCBaseEntity@@@Z
_TEXT	SEGMENT
tv70 = -68						; size = 4
_ent$ = 8						; size = 4
?FNullEnt@@YAHPAVCBaseEntity@@@Z PROC			; FNullEnt, COMDAT

; 256  : {

	push	ebp
	mov	ebp, esp
	sub	esp, 68					; 00000044H
	push	ebx
	push	esi
	push	edi

; 257  : 	return (ent == NULL) || FNullEnt( ent->edict( ));

	cmp	DWORD PTR _ent$[ebp], 0
	je	SHORT $LN3@FNullEnt
	mov	ecx, DWORD PTR _ent$[ebp]
	call	?edict@CBaseEntity@@QAEPAUedict_s@@XZ	; CBaseEntity::edict
	push	eax
	call	?FNullEnt@@YAHPBUedict_s@@@Z		; FNullEnt
	add	esp, 4
	test	eax, eax
	jne	SHORT $LN3@FNullEnt
	mov	DWORD PTR tv70[ebp], 0
	jmp	SHORT $LN4@FNullEnt
$LN3@FNullEnt:
	mov	DWORD PTR tv70[ebp], 1
$LN4@FNullEnt:
	mov	eax, DWORD PTR tv70[ebp]

; 258  : }

	pop	edi
	pop	esi
	pop	ebx
	mov	esp, ebp
	pop	ebp
	ret	0
?FNullEnt@@YAHPAVCBaseEntity@@@Z ENDP			; FNullEnt
_TEXT	ENDS
; Function compile flags: /Odtp /ZI
; File d:\!diffusion 2020\source code 2022\client-server\server\util.h
;	COMDAT ?FNullEnt@@YAHPBUedict_s@@@Z
_TEXT	SEGMENT
tv70 = -68						; size = 4
_pent$ = 8						; size = 4
?FNullEnt@@YAHPBUedict_s@@@Z PROC			; FNullEnt, COMDAT

; 196  : inline BOOL FNullEnt(const edict_t* pent)	{ return pent == NULL || FNullEnt(OFFSET(pent)); }

	push	ebp
	mov	ebp, esp
	sub	esp, 68					; 00000044H
	push	ebx
	push	esi
	push	edi
	cmp	DWORD PTR _pent$[ebp], 0
	je	SHORT $LN3@FNullEnt
	mov	eax, DWORD PTR _pent$[ebp]
	push	eax
	call	?OFFSET@@YAHPBUedict_s@@@Z		; OFFSET
	add	esp, 4
	push	eax
	call	?FNullEnt@@YAHH@Z			; FNullEnt
	add	esp, 4
	test	eax, eax
	jne	SHORT $LN3@FNullEnt
	mov	DWORD PTR tv70[ebp], 0
	jmp	SHORT $LN4@FNullEnt
$LN3@FNullEnt:
	mov	DWORD PTR tv70[ebp], 1
$LN4@FNullEnt:
	mov	eax, DWORD PTR tv70[ebp]
	pop	edi
	pop	esi
	pop	ebx
	mov	esp, ebp
	pop	ebp
	ret	0
?FNullEnt@@YAHPBUedict_s@@@Z ENDP			; FNullEnt
_TEXT	ENDS
; Function compile flags: /Odtp /ZI
; File d:\!diffusion 2020\source code 2022\client-server\server\util.h
;	COMDAT ?FNullEnt@@YAHH@Z
_TEXT	SEGMENT
tv65 = -68						; size = 4
_eoffset$ = 8						; size = 4
?FNullEnt@@YAHH@Z PROC					; FNullEnt, COMDAT

; 195  : inline BOOL FNullEnt(EOFFSET eoffset)			{ return eoffset == 0; }

	push	ebp
	mov	ebp, esp
	sub	esp, 68					; 00000044H
	push	ebx
	push	esi
	push	edi
	cmp	DWORD PTR _eoffset$[ebp], 0
	jne	SHORT $LN3@FNullEnt
	mov	DWORD PTR tv65[ebp], 1
	jmp	SHORT $LN4@FNullEnt
$LN3@FNullEnt:
	mov	DWORD PTR tv65[ebp], 0
$LN4@FNullEnt:
	mov	eax, DWORD PTR tv65[ebp]
	pop	edi
	pop	esi
	pop	ebx
	mov	esp, ebp
	pop	ebp
	ret	0
?FNullEnt@@YAHH@Z ENDP					; FNullEnt
_TEXT	ENDS
; Function compile flags: /Odtp /ZI
; File d:\!diffusion 2020\source code 2022\client-server\server\util.h
;	COMDAT ?INDEXENT@@YAPAUedict_s@@H@Z
_TEXT	SEGMENT
_iEdictNum$ = 8						; size = 4
?INDEXENT@@YAPAUedict_s@@H@Z PROC			; INDEXENT, COMDAT

; 188  : inline edict_t *INDEXENT( int iEdictNum ) { return (*g_engfuncs.pfnPEntityOfEntIndexAllEntities)(iEdictNum); }

	push	ebp
	mov	ebp, esp
	sub	esp, 64					; 00000040H
	push	ebx
	push	esi
	push	edi
	mov	eax, DWORD PTR _iEdictNum$[ebp]
	push	eax
	call	DWORD PTR ?g_engfuncs@@3Uenginefuncs_s@@A+632
	add	esp, 4
	pop	edi
	pop	esi
	pop	ebx
	mov	esp, ebp
	pop	ebp
	ret	0
?INDEXENT@@YAPAUedict_s@@H@Z ENDP			; INDEXENT
_TEXT	ENDS
; Function compile flags: /Odtp /ZI
; File d:\!diffusion 2020\source code 2022\client-server\server\util.h
;	COMDAT ?ENTINDEX@@YAHPAUedict_s@@@Z
_TEXT	SEGMENT
_pEdict$ = 8						; size = 4
?ENTINDEX@@YAHPAUedict_s@@@Z PROC			; ENTINDEX, COMDAT

; 186  : inline int	  ENTINDEX(edict_t *pEdict)			{ return (*g_engfuncs.pfnIndexOfEdict)(pEdict); }

	push	ebp
	mov	ebp, esp
	sub	esp, 64					; 00000040H
	push	ebx
	push	esi
	push	edi
	mov	eax, DWORD PTR _pEdict$[ebp]
	push	eax
	call	DWORD PTR ?g_engfuncs@@3Uenginefuncs_s@@A+284
	add	esp, 4
	pop	edi
	pop	esi
	pop	ebx
	mov	esp, ebp
	pop	ebp
	ret	0
?ENTINDEX@@YAHPAUedict_s@@@Z ENDP			; ENTINDEX
_TEXT	ENDS
; Function compile flags: /Odtp /ZI
; File d:\!diffusion 2020\source code 2022\client-server\server\util.h
;	COMDAT ?OFFSET@@YAHPAUentvars_s@@@Z
_TEXT	SEGMENT
_pev$ = 8						; size = 4
?OFFSET@@YAHPAUentvars_s@@@Z PROC			; OFFSET, COMDAT

; 168  : { 

	push	ebp
	mov	ebp, esp
	sub	esp, 64					; 00000040H
	push	ebx
	push	esi
	push	edi

; 169  : #if _DEBUG
; 170  : 	if ( !pev )

	cmp	DWORD PTR _pev$[ebp], 0
	jne	SHORT $LN2@OFFSET

; 171  : 		ALERT( at_error, "Bad pev in OFFSET()\n" );

	push	OFFSET ??_C@_0BF@DOONGEFO@Bad?5pev?5in?5OFFSET?$CI?$CJ?6?$AA@
	push	4
	call	DWORD PTR ?g_engfuncs@@3Uenginefuncs_s@@A+244
	add	esp, 8
$LN2@OFFSET:

; 172  : #endif
; 173  : 	return OFFSET(ENT(pev)); 

	mov	eax, DWORD PTR _pev$[ebp]
	push	eax
	call	?ENT@@YAPAUedict_s@@PBUentvars_s@@@Z	; ENT
	add	esp, 4
	push	eax
	call	?OFFSET@@YAHPBUedict_s@@@Z		; OFFSET
	add	esp, 4

; 174  : }

	pop	edi
	pop	esi
	pop	ebx
	mov	esp, ebp
	pop	ebp
	ret	0
?OFFSET@@YAHPAUentvars_s@@@Z ENDP			; OFFSET
_TEXT	ENDS
; Function compile flags: /Odtp /ZI
; File d:\!diffusion 2020\source code 2022\client-server\server\util.h
;	COMDAT ?OFFSET@@YAHPBUedict_s@@@Z
_TEXT	SEGMENT
_pent$ = 8						; size = 4
?OFFSET@@YAHPBUedict_s@@@Z PROC				; OFFSET, COMDAT

; 160  : { 

	push	ebp
	mov	ebp, esp
	sub	esp, 64					; 00000040H
	push	ebx
	push	esi
	push	edi

; 161  : #if _DEBUG
; 162  : 	if ( !pent )

	cmp	DWORD PTR _pent$[ebp], 0
	jne	SHORT $LN2@OFFSET

; 163  : 		ALERT( at_error, "Bad ent in OFFSET()\n" );

	push	OFFSET ??_C@_0BF@CPEPILID@Bad?5ent?5in?5OFFSET?$CI?$CJ?6?$AA@
	push	4
	call	DWORD PTR ?g_engfuncs@@3Uenginefuncs_s@@A+244
	add	esp, 8
$LN2@OFFSET:

; 164  : #endif
; 165  : 	return (*g_engfuncs.pfnEntOffsetOfPEntity)(pent); 

	mov	eax, DWORD PTR _pent$[ebp]
	push	eax
	call	DWORD PTR ?g_engfuncs@@3Uenginefuncs_s@@A+280
	add	esp, 4

; 166  : }

	pop	edi
	pop	esi
	pop	ebx
	mov	esp, ebp
	pop	ebp
	ret	0
?OFFSET@@YAHPBUedict_s@@@Z ENDP				; OFFSET
_TEXT	ENDS
; Function compile flags: /Odtp /ZI
; File d:\!diffusion 2020\source code 2022\client-server\server\util.h
;	COMDAT ?ENT@@YAPAUedict_s@@H@Z
_TEXT	SEGMENT
_eoffset$ = 8						; size = 4
?ENT@@YAPAUedict_s@@H@Z PROC				; ENT, COMDAT

; 157  : inline edict_t *ENT(EOFFSET eoffset)			{ return (*g_engfuncs.pfnPEntityOfEntOffset)(eoffset); }

	push	ebp
	mov	ebp, esp
	sub	esp, 64					; 00000040H
	push	ebx
	push	esi
	push	edi
	mov	eax, DWORD PTR _eoffset$[ebp]
	push	eax
	call	DWORD PTR ?g_engfuncs@@3Uenginefuncs_s@@A+276
	add	esp, 4
	pop	edi
	pop	esi
	pop	ebx
	mov	esp, ebp
	pop	ebp
	ret	0
?ENT@@YAPAUedict_s@@H@Z ENDP				; ENT
_TEXT	ENDS
; Function compile flags: /Odtp /ZI
; File d:\!diffusion 2020\source code 2022\client-server\server\util.cpp
;	COMDAT ?ENT@@YAPAUedict_s@@PAVCBaseEntity@@@Z
_TEXT	SEGMENT
_pEntity$ = 8						; size = 4
?ENT@@YAPAUedict_s@@PAVCBaseEntity@@@Z PROC		; ENT, COMDAT

; 249  : {

	push	ebp
	mov	ebp, esp
	sub	esp, 64					; 00000040H
	push	ebx
	push	esi
	push	edi

; 250  : 	if( pEntity )

	cmp	DWORD PTR _pEntity$[ebp], 0
	je	SHORT $LN2@ENT

; 251  : 		return ENT( pEntity->pev );

	mov	eax, DWORD PTR _pEntity$[ebp]
	mov	ecx, DWORD PTR [eax+4]
	push	ecx
	call	?ENT@@YAPAUedict_s@@PBUentvars_s@@@Z	; ENT
	add	esp, 4
	jmp	SHORT $LN1@ENT
$LN2@ENT:

; 252  : 	return NULL;

	xor	eax, eax
$LN1@ENT:

; 253  : }

	pop	edi
	pop	esi
	pop	ebx
	mov	esp, ebp
	pop	ebp
	ret	0
?ENT@@YAPAUedict_s@@PAVCBaseEntity@@@Z ENDP		; ENT
_TEXT	ENDS
; Function compile flags: /Odtp /ZI
; File d:\!diffusion 2020\source code 2022\client-server\server\util.h
;	COMDAT ?ENT@@YAPAUedict_s@@PBUentvars_s@@@Z
_TEXT	SEGMENT
_pev$ = 8						; size = 4
?ENT@@YAPAUedict_s@@PBUentvars_s@@@Z PROC		; ENT, COMDAT

; 151  : 	inline edict_t *ENT(const entvars_t *pev)	{ return DBG_EntOfVars(pev); }

	push	ebp
	mov	ebp, esp
	sub	esp, 64					; 00000040H
	push	ebx
	push	esi
	push	edi
	mov	eax, DWORD PTR _pev$[ebp]
	push	eax
	call	?DBG_EntOfVars@@YAPAUedict_s@@PBUentvars_s@@@Z ; DBG_EntOfVars
	add	esp, 4
	pop	edi
	pop	esi
	pop	ebx
	mov	esp, ebp
	pop	ebp
	ret	0
?ENT@@YAPAUedict_s@@PBUentvars_s@@@Z ENDP		; ENT
_TEXT	ENDS
; Function compile flags: /Odtp /ZI
; File d:\!diffusion 2020\source code 2022\client-server\server\util.cpp
;	COMDAT ?DBG_EntOfVars@@YAPAUedict_s@@PBUentvars_s@@@Z
_TEXT	SEGMENT
_pent$ = -4						; size = 4
_pev$ = 8						; size = 4
?DBG_EntOfVars@@YAPAUedict_s@@PBUentvars_s@@@Z PROC	; DBG_EntOfVars, COMDAT

; 315  : {

	push	ebp
	mov	ebp, esp
	sub	esp, 68					; 00000044H
	push	ebx
	push	esi
	push	edi

; 316  : 	if (pev->pContainingEntity != NULL)

	mov	eax, DWORD PTR _pev$[ebp]
	cmp	DWORD PTR [eax+520], 0
	je	SHORT $LN2@DBG_EntOfV

; 317  : 		return pev->pContainingEntity;

	mov	eax, DWORD PTR _pev$[ebp]
	mov	eax, DWORD PTR [eax+520]
	jmp	SHORT $LN1@DBG_EntOfV
$LN2@DBG_EntOfV:

; 318  : 	ALERT(at_console, "entvars_t pContainingEntity is NULL, calling into engine");

	push	OFFSET ??_C@_0DJ@CNJCBHEO@entvars_t?5pContainingEntity?5is?5N@
	push	1
	call	DWORD PTR ?g_engfuncs@@3Uenginefuncs_s@@A+244
	add	esp, 8

; 319  : 	edict_t* pent = (*g_engfuncs.pfnFindEntityByVars)((entvars_t*)pev);

	mov	eax, DWORD PTR _pev$[ebp]
	push	eax
	call	DWORD PTR ?g_engfuncs@@3Uenginefuncs_s@@A+292
	add	esp, 4
	mov	DWORD PTR _pent$[ebp], eax

; 320  : 	if (pent == NULL)

	cmp	DWORD PTR _pent$[ebp], 0
	jne	SHORT $LN3@DBG_EntOfV

; 321  : 		ALERT(at_console, "DAMN!  Even the engine couldn't FindEntityByVars!");

	push	OFFSET ??_C@_0DC@GHGLEAMP@DAMN?$CB?5?5Even?5the?5engine?5couldn?8t?5@
	push	1
	call	DWORD PTR ?g_engfuncs@@3Uenginefuncs_s@@A+244
	add	esp, 8
$LN3@DBG_EntOfV:

; 322  : 	((entvars_t *)pev)->pContainingEntity = pent;

	mov	eax, DWORD PTR _pev$[ebp]
	mov	ecx, DWORD PTR _pent$[ebp]
	mov	DWORD PTR [eax+520], ecx

; 323  : 	return pent;

	mov	eax, DWORD PTR _pent$[ebp]
$LN1@DBG_EntOfV:

; 324  : }

	pop	edi
	pop	esi
	pop	ebx
	mov	esp, ebp
	pop	ebp
	ret	0
?DBG_EntOfVars@@YAPAUedict_s@@PBUentvars_s@@@Z ENDP	; DBG_EntOfVars
_TEXT	ENDS
; Function compile flags: /Odtp /ZI
; File d:\!diffusion 2020\source code 2022\client-server\server\util.cpp
;	COMDAT ?EntityFactoryDictionary@@YAPAVIEntityFactoryDictionary@@XZ
_TEXT	SEGMENT
__$EHRec$ = -12						; size = 12
?EntityFactoryDictionary@@YAPAVIEntityFactoryDictionary@@XZ PROC ; EntityFactoryDictionary, COMDAT

; 62   : {

	push	ebp
	mov	ebp, esp
	push	-1
	push	__ehhandler$?EntityFactoryDictionary@@YAPAVIEntityFactoryDictionary@@XZ
	mov	eax, DWORD PTR fs:0
	push	eax
	sub	esp, 64					; 00000040H
	push	ebx
	push	esi
	push	edi
	mov	eax, DWORD PTR ___security_cookie
	xor	eax, ebp
	push	eax
	lea	eax, DWORD PTR __$EHRec$[ebp]
	mov	DWORD PTR fs:0, eax

; 63   : 	static CEntityFactoryDictionary s_EntityFactory;

	mov	eax, DWORD PTR __tls_index
	mov	ecx, DWORD PTR fs:__tls_array
	mov	edx, DWORD PTR [ecx+eax*4]
	mov	eax, DWORD PTR ?$TSS0@?1??EntityFactoryDictionary@@YAPAVIEntityFactoryDictionary@@XZ@4HA
	cmp	eax, DWORD PTR __Init_thread_epoch[edx]
	jle	SHORT $LN2@EntityFact
	push	OFFSET ?$TSS0@?1??EntityFactoryDictionary@@YAPAVIEntityFactoryDictionary@@XZ@4HA
	call	__Init_thread_header
	add	esp, 4
	cmp	DWORD PTR ?$TSS0@?1??EntityFactoryDictionary@@YAPAVIEntityFactoryDictionary@@XZ@4HA, -1
	jne	SHORT $LN2@EntityFact
	mov	DWORD PTR __$EHRec$[ebp+8], 0
	mov	ecx, OFFSET ?s_EntityFactory@?1??EntityFactoryDictionary@@YAPAVIEntityFactoryDictionary@@XZ@4VCEntityFactoryDictionary@@A
	call	??0CEntityFactoryDictionary@@QAE@XZ	; CEntityFactoryDictionary::CEntityFactoryDictionary
	push	OFFSET ??__Fs_EntityFactory@?1??EntityFactoryDictionary@@YAPAVIEntityFactoryDictionary@@XZ@YAXXZ ; `EntityFactoryDictionary'::`2'::`dynamic atexit destructor for 's_EntityFactory''
	call	_atexit
	add	esp, 4
	mov	DWORD PTR __$EHRec$[ebp+8], -1
	push	OFFSET ?$TSS0@?1??EntityFactoryDictionary@@YAPAVIEntityFactoryDictionary@@XZ@4HA
	call	__Init_thread_footer
	add	esp, 4
$LN2@EntityFact:

; 64   : 	return &s_EntityFactory;

	mov	eax, OFFSET ?s_EntityFactory@?1??EntityFactoryDictionary@@YAPAVIEntityFactoryDictionary@@XZ@4VCEntityFactoryDictionary@@A

; 65   : }

	mov	ecx, DWORD PTR __$EHRec$[ebp]
	mov	DWORD PTR fs:0, ecx
	pop	ecx
	pop	edi
	pop	esi
	pop	ebx
	mov	esp, ebp
	pop	ebp
	ret	0
_TEXT	ENDS
;	COMDAT text$x
text$x	SEGMENT
__unwindfunclet$?EntityFactoryDictionary@@YAPAVIEntityFactoryDictionary@@XZ$0:
	push	OFFSET ?$TSS0@?1??EntityFactoryDictionary@@YAPAVIEntityFactoryDictionary@@XZ@4HA
	call	__Init_thread_abort
	pop	ecx
	ret	0
__ehhandler$?EntityFactoryDictionary@@YAPAVIEntityFactoryDictionary@@XZ:
	mov	edx, DWORD PTR [esp+8]
	lea	eax, DWORD PTR [edx+12]
	mov	ecx, DWORD PTR [edx-80]
	xor	ecx, eax
	call	@__security_check_cookie@4
	mov	eax, OFFSET __ehfuncinfo$?EntityFactoryDictionary@@YAPAVIEntityFactoryDictionary@@XZ
	jmp	___CxxFrameHandler3
text$x	ENDS
?EntityFactoryDictionary@@YAPAVIEntityFactoryDictionary@@XZ ENDP ; EntityFactoryDictionary
; Function compile flags: /Odtp /ZI
;	COMDAT ??0IEntityFactoryDictionary@@QAE@XZ
_TEXT	SEGMENT
_this$ = -4						; size = 4
??0IEntityFactoryDictionary@@QAE@XZ PROC		; IEntityFactoryDictionary::IEntityFactoryDictionary, COMDAT
; _this$ = ecx
	push	ebp
	mov	ebp, esp
	sub	esp, 68					; 00000044H
	push	ebx
	push	esi
	push	edi
	mov	DWORD PTR _this$[ebp], ecx
	mov	eax, DWORD PTR _this$[ebp]
	mov	DWORD PTR [eax], OFFSET ??_7IEntityFactoryDictionary@@6B@
	mov	eax, DWORD PTR _this$[ebp]
	pop	edi
	pop	esi
	pop	ebx
	mov	esp, ebp
	pop	ebp
	ret	0
??0IEntityFactoryDictionary@@QAE@XZ ENDP		; IEntityFactoryDictionary::IEntityFactoryDictionary
_TEXT	ENDS
; Function compile flags: /Odtp /ZI
; File d:\!diffusion 2020\source code 2022\client-server\server\util.cpp
;	COMDAT ?UTIL_Remove@@YAXPAVCBaseEntity@@@Z
_TEXT	SEGMENT
_pEntity$ = 8						; size = 4
?UTIL_Remove@@YAXPAVCBaseEntity@@@Z PROC		; UTIL_Remove, COMDAT

; 2472 : {

	push	ebp
	mov	ebp, esp
	sub	esp, 64					; 00000040H
	push	ebx
	push	esi
	push	edi

; 2473 : 	if ( !pEntity )

	cmp	DWORD PTR _pEntity$[ebp], 0
	jne	SHORT $LN2@UTIL_Remov

; 2474 : 		return;

	jmp	SHORT $LN1@UTIL_Remov
$LN2@UTIL_Remov:

; 2475 : 
; 2476 : 	pEntity->UpdateOnRemove();

	mov	ecx, DWORD PTR _pEntity$[ebp]
	call	?UpdateOnRemove@CBaseEntity@@QAEXXZ	; CBaseEntity::UpdateOnRemove

; 2477 : 	pEntity->pev->flags |= FL_KILLME;

	mov	eax, DWORD PTR _pEntity$[ebp]
	mov	ecx, DWORD PTR [eax+4]
	mov	edx, DWORD PTR [ecx+420]
	or	edx, 1073741824				; 40000000H
	mov	eax, DWORD PTR _pEntity$[ebp]
	mov	ecx, DWORD PTR [eax+4]
	mov	DWORD PTR [ecx+420], edx

; 2478 : 	pEntity->pev->targetname = 0;

	mov	eax, DWORD PTR _pEntity$[ebp]
	mov	ecx, DWORD PTR [eax+4]
	mov	DWORD PTR [ecx+460], 0

; 2479 : 	pEntity->pev->effects = 0; // diffusion

	mov	eax, DWORD PTR _pEntity$[ebp]
	mov	ecx, DWORD PTR [eax+4]
	mov	DWORD PTR [ecx+280], 0
$LN1@UTIL_Remov:

; 2480 : }

	pop	edi
	pop	esi
	pop	ebx
	mov	esp, ebp
	pop	ebp
	ret	0
?UTIL_Remove@@YAXPAVCBaseEntity@@@Z ENDP		; UTIL_Remove
_TEXT	ENDS
; Function compile flags: /Odtp /ZI
; File d:\!diffusion 2020\source code 2022\client-server\server\util.h
;	COMDAT ?MESSAGE_BEGIN@@YAXHHPBMPAUentvars_s@@@Z
_TEXT	SEGMENT
_msg_dest$ = 8						; size = 4
_msg_type$ = 12						; size = 4
_pOrigin$ = 16						; size = 4
_ent$ = 20						; size = 4
?MESSAGE_BEGIN@@YAXHHPBMPAUentvars_s@@@Z PROC		; MESSAGE_BEGIN, COMDAT

; 189  : inline void MESSAGE_BEGIN( int msg_dest, int msg_type, const float *pOrigin, entvars_t *ent ) {

	push	ebp
	mov	ebp, esp
	sub	esp, 64					; 00000040H
	push	ebx
	push	esi
	push	edi

; 190  : 	(*g_engfuncs.pfnMessageBegin)(msg_dest, msg_type, pOrigin, ENT(ent));

	mov	eax, DWORD PTR _ent$[ebp]
	push	eax
	call	?ENT@@YAPAUedict_s@@PBUentvars_s@@@Z	; ENT
	add	esp, 4
	push	eax
	mov	ecx, DWORD PTR _pOrigin$[ebp]
	push	ecx
	mov	edx, DWORD PTR _msg_type$[ebp]
	push	edx
	mov	eax, DWORD PTR _msg_dest$[ebp]
	push	eax
	call	DWORD PTR ?g_engfuncs@@3Uenginefuncs_s@@A+184
	add	esp, 16					; 00000010H

; 191  : }

	pop	edi
	pop	esi
	pop	ebx
	mov	esp, ebp
	pop	ebp
	ret	0
?MESSAGE_BEGIN@@YAXHHPBMPAUentvars_s@@@Z ENDP		; MESSAGE_BEGIN
_TEXT	ENDS
; Function compile flags: /Odtp /ZI
; File d:\!diffusion 2020\source code 2022\client-server\game_shared\utlrbtree.h
;	COMDAT ?CaselessStringLessThanIgnoreSlashes@@YA_NABQBD0@Z
_TEXT	SEGMENT
tv78 = -80						; size = 4
_b$1 = -10						; size = 1
_a$2 = -9						; size = 1
_pb$ = -8						; size = 4
_pa$ = -4						; size = 4
_lhs$ = 8						; size = 4
_rhs$ = 12						; size = 4
?CaselessStringLessThanIgnoreSlashes@@YA_NABQBD0@Z PROC	; CaselessStringLessThanIgnoreSlashes, COMDAT

; 41   : { 

	push	ebp
	mov	ebp, esp
	sub	esp, 80					; 00000050H
	push	ebx
	push	esi
	push	edi

; 42   : 	const char *pa = lhs;

	mov	eax, DWORD PTR _lhs$[ebp]
	mov	ecx, DWORD PTR [eax]
	mov	DWORD PTR _pa$[ebp], ecx

; 43   : 	const char *pb = rhs;

	mov	eax, DWORD PTR _rhs$[ebp]
	mov	ecx, DWORD PTR [eax]
	mov	DWORD PTR _pb$[ebp], ecx
$LN2@CaselessSt:

; 44   : 	while ( *pa && *pb )

	mov	eax, DWORD PTR _pa$[ebp]
	movsx	ecx, BYTE PTR [eax]
	test	ecx, ecx
	je	$LN3@CaselessSt
	mov	eax, DWORD PTR _pb$[ebp]
	movsx	ecx, BYTE PTR [eax]
	test	ecx, ecx
	je	$LN3@CaselessSt

; 45   : 	{
; 46   : 		char a = *pa;

	mov	eax, DWORD PTR _pa$[ebp]
	mov	cl, BYTE PTR [eax]
	mov	BYTE PTR _a$2[ebp], cl

; 47   : 		char b = *pb;

	mov	eax, DWORD PTR _pb$[ebp]
	mov	cl, BYTE PTR [eax]
	mov	BYTE PTR _b$1[ebp], cl

; 48   : 		
; 49   : 		// Check for dir slashes.
; 50   : 		if ( a == '/' || a == '\\' )

	movsx	eax, BYTE PTR _a$2[ebp]
	cmp	eax, 47					; 0000002fH
	je	SHORT $LN6@CaselessSt
	movsx	eax, BYTE PTR _a$2[ebp]
	cmp	eax, 92					; 0000005cH
	jne	SHORT $LN4@CaselessSt
$LN6@CaselessSt:

; 51   : 		{
; 52   : 			if ( b != '/' && b != '\\' )

	movsx	eax, BYTE PTR _b$1[ebp]
	cmp	eax, 47					; 0000002fH
	je	SHORT $LN7@CaselessSt
	movsx	eax, BYTE PTR _b$1[ebp]
	cmp	eax, 92					; 0000005cH
	je	SHORT $LN7@CaselessSt

; 53   : 				return ('/' < b);

	movsx	eax, BYTE PTR _b$1[ebp]
	cmp	eax, 47					; 0000002fH
	jle	SHORT $LN14@CaselessSt
	mov	DWORD PTR tv78[ebp], 1
	jmp	SHORT $LN15@CaselessSt
$LN14@CaselessSt:
	mov	DWORD PTR tv78[ebp], 0
$LN15@CaselessSt:
	mov	al, BYTE PTR tv78[ebp]
	jmp	SHORT $LN1@CaselessSt
$LN7@CaselessSt:

; 54   : 		}
; 55   : 		else

	jmp	SHORT $LN5@CaselessSt
$LN4@CaselessSt:

; 56   : 		{
; 57   : 			if ( a >= 'a' && a <= 'z' )

	movsx	eax, BYTE PTR _a$2[ebp]
	cmp	eax, 97					; 00000061H
	jl	SHORT $LN8@CaselessSt
	movsx	eax, BYTE PTR _a$2[ebp]
	cmp	eax, 122				; 0000007aH
	jg	SHORT $LN8@CaselessSt

; 58   : 				a = 'A' + (a - 'a');

	movsx	eax, BYTE PTR _a$2[ebp]
	sub	eax, 32					; 00000020H
	mov	BYTE PTR _a$2[ebp], al
$LN8@CaselessSt:

; 59   : 			
; 60   : 			if ( b >= 'a' && b <= 'z' )

	movsx	eax, BYTE PTR _b$1[ebp]
	cmp	eax, 97					; 00000061H
	jl	SHORT $LN9@CaselessSt
	movsx	eax, BYTE PTR _b$1[ebp]
	cmp	eax, 122				; 0000007aH
	jg	SHORT $LN9@CaselessSt

; 61   : 				b = 'A' + (b - 'a');

	movsx	eax, BYTE PTR _b$1[ebp]
	sub	eax, 32					; 00000020H
	mov	BYTE PTR _b$1[ebp], al
$LN9@CaselessSt:

; 62   : 				
; 63   : 			if ( a > b )

	movsx	eax, BYTE PTR _a$2[ebp]
	movsx	ecx, BYTE PTR _b$1[ebp]
	cmp	eax, ecx
	jle	SHORT $LN10@CaselessSt

; 64   : 				return false;

	xor	al, al
	jmp	SHORT $LN1@CaselessSt
	jmp	SHORT $LN5@CaselessSt
$LN10@CaselessSt:

; 65   : 			else if ( a < b )

	movsx	eax, BYTE PTR _a$2[ebp]
	movsx	ecx, BYTE PTR _b$1[ebp]
	cmp	eax, ecx
	jge	SHORT $LN5@CaselessSt

; 66   : 				return true;

	mov	al, 1
	jmp	SHORT $LN1@CaselessSt
$LN5@CaselessSt:

; 67   : 		}
; 68   : 		++pa;

	mov	eax, DWORD PTR _pa$[ebp]
	add	eax, 1
	mov	DWORD PTR _pa$[ebp], eax

; 69   : 		++pb;

	mov	eax, DWORD PTR _pb$[ebp]
	add	eax, 1
	mov	DWORD PTR _pb$[ebp], eax

; 70   : 	}

	jmp	$LN2@CaselessSt
$LN3@CaselessSt:

; 71   : 	
; 72   : 	return false;

	xor	al, al
$LN1@CaselessSt:

; 73   : }

	pop	edi
	pop	esi
	pop	ebx
	mov	esp, ebp
	pop	ebp
	ret	0
?CaselessStringLessThanIgnoreSlashes@@YA_NABQBD0@Z ENDP	; CaselessStringLessThanIgnoreSlashes
_TEXT	ENDS
; Function compile flags: /Odtp /ZI
; File d:\!diffusion 2020\source code 2022\client-server\game_shared\utlrbtree.h
;	COMDAT ?CaselessStringLessThan@@YA_NABQBD0@Z
_TEXT	SEGMENT
tv68 = -68						; size = 4
_lhs$ = 8						; size = 4
_rhs$ = 12						; size = 4
?CaselessStringLessThan@@YA_NABQBD0@Z PROC		; CaselessStringLessThan, COMDAT

; 37   : inline bool CaselessStringLessThan( const char * const &lhs, const char * const &rhs )	{ return ( stricmp( lhs, rhs) < 0 ); }

	push	ebp
	mov	ebp, esp
	sub	esp, 68					; 00000044H
	push	ebx
	push	esi
	push	edi
	mov	eax, DWORD PTR _rhs$[ebp]
	mov	ecx, DWORD PTR [eax]
	push	ecx
	mov	edx, DWORD PTR _lhs$[ebp]
	mov	eax, DWORD PTR [edx]
	push	eax
	call	_stricmp
	add	esp, 8
	test	eax, eax
	jge	SHORT $LN3@CaselessSt
	mov	DWORD PTR tv68[ebp], 1
	jmp	SHORT $LN4@CaselessSt
$LN3@CaselessSt:
	mov	DWORD PTR tv68[ebp], 0
$LN4@CaselessSt:
	mov	al, BYTE PTR tv68[ebp]
	pop	edi
	pop	esi
	pop	ebx
	mov	esp, ebp
	pop	ebp
	ret	0
?CaselessStringLessThan@@YA_NABQBD0@Z ENDP		; CaselessStringLessThan
_TEXT	ENDS
; Function compile flags: /Odtp /ZI
; File d:\!diffusion 2020\source code 2022\client-server\game_shared\utlrbtree.h
;	COMDAT ?StringLessThan@@YA_NABQBD0@Z
_TEXT	SEGMENT
tv68 = -68						; size = 4
_lhs$ = 8						; size = 4
_rhs$ = 12						; size = 4
?StringLessThan@@YA_NABQBD0@Z PROC			; StringLessThan, COMDAT

; 36   : inline bool StringLessThan( const char * const &lhs, const char * const &rhs)			{ return ( strcmp( lhs, rhs) < 0 );  }

	push	ebp
	mov	ebp, esp
	sub	esp, 68					; 00000044H
	push	ebx
	push	esi
	push	edi
	mov	eax, DWORD PTR _rhs$[ebp]
	mov	ecx, DWORD PTR [eax]
	push	ecx
	mov	edx, DWORD PTR _lhs$[ebp]
	mov	eax, DWORD PTR [edx]
	push	eax
	call	_strcmp
	add	esp, 8
	test	eax, eax
	jge	SHORT $LN3@StringLess
	mov	DWORD PTR tv68[ebp], 1
	jmp	SHORT $LN4@StringLess
$LN3@StringLess:
	mov	DWORD PTR tv68[ebp], 0
$LN4@StringLess:
	mov	al, BYTE PTR tv68[ebp]
	pop	edi
	pop	esi
	pop	ebx
	mov	esp, ebp
	pop	ebp
	ret	0
?StringLessThan@@YA_NABQBD0@Z ENDP			; StringLessThan
_TEXT	ENDS
; Function compile flags: /Odtp /ZI
; File d:\!diffusion 2020\source code 2022\client-server\game_shared\utlmemory.h
;	COMDAT ?UtlMemory_CalcNewAllocationCount@@YAHHHHH@Z
_TEXT	SEGMENT
_nAllocationCount$ = 8					; size = 4
_nGrowSize$ = 12					; size = 4
_nNewSize$ = 16						; size = 4
_nBytesItem$ = 20					; size = 4
?UtlMemory_CalcNewAllocationCount@@YAHHHHH@Z PROC	; UtlMemory_CalcNewAllocationCount, COMDAT

; 528  : {

	push	ebp
	mov	ebp, esp
	sub	esp, 64					; 00000040H
	push	ebx
	push	esi
	push	edi

; 529  : 	if ( nGrowSize )

	cmp	DWORD PTR _nGrowSize$[ebp], 0
	je	SHORT $LN4@UtlMemory_

; 530  : 	{ 
; 531  : 		nAllocationCount = ((1 + ((nNewSize - 1) / nGrowSize)) * nGrowSize);

	mov	eax, DWORD PTR _nNewSize$[ebp]
	sub	eax, 1
	cdq
	idiv	DWORD PTR _nGrowSize$[ebp]
	add	eax, 1
	imul	eax, DWORD PTR _nGrowSize$[ebp]
	mov	DWORD PTR _nAllocationCount$[ebp], eax

; 532  : 	}
; 533  : 	else 

	jmp	SHORT $LN5@UtlMemory_
$LN4@UtlMemory_:

; 534  : 	{
; 535  : 		if ( !nAllocationCount )

	cmp	DWORD PTR _nAllocationCount$[ebp], 0
	jne	SHORT $LN2@UtlMemory_

; 536  : 		{
; 537  : 			// Compute an allocation which is at least as big as a cache line...
; 538  : 			nAllocationCount = (31 + nBytesItem) / nBytesItem;

	mov	eax, DWORD PTR _nBytesItem$[ebp]
	add	eax, 31					; 0000001fH
	cdq
	idiv	DWORD PTR _nBytesItem$[ebp]
	mov	DWORD PTR _nAllocationCount$[ebp], eax
$LN2@UtlMemory_:

; 539  : 		}
; 540  : 
; 541  : 		while (nAllocationCount < nNewSize)

	mov	eax, DWORD PTR _nAllocationCount$[ebp]
	cmp	eax, DWORD PTR _nNewSize$[ebp]
	jge	SHORT $LN5@UtlMemory_

; 542  : 		{
; 543  : #ifndef _X360
; 544  : 			nAllocationCount *= 2;

	mov	eax, DWORD PTR _nAllocationCount$[ebp]
	shl	eax, 1
	mov	DWORD PTR _nAllocationCount$[ebp], eax

; 545  : #else
; 546  : 			int nNewAllocationCount = ( nAllocationCount * 9) / 8; // 12.5 %
; 547  : 			if ( nNewAllocationCount > nAllocationCount )
; 548  : 				nAllocationCount = nNewAllocationCount;
; 549  : 			else
; 550  : 				nAllocationCount *= 2;
; 551  : #endif
; 552  : 		}

	jmp	SHORT $LN2@UtlMemory_
$LN5@UtlMemory_:

; 553  : 	}
; 554  : 
; 555  : 	return nAllocationCount;

	mov	eax, DWORD PTR _nAllocationCount$[ebp]

; 556  : }

	pop	edi
	pop	esi
	pop	ebx
	mov	esp, ebp
	pop	ebp
	ret	0
?UtlMemory_CalcNewAllocationCount@@YAHHHHH@Z ENDP	; UtlMemory_CalcNewAllocationCount
_TEXT	ENDS
; Function compile flags: /Odtp /ZI
; File c:\program files (x86)\microsoft visual studio 14.0\vc\include\vcruntime_new.h
;	COMDAT ??3@YAXPAX0@Z
_TEXT	SEGMENT
___formal$ = 8						; size = 4
___formal$ = 12						; size = 4
??3@YAXPAX0@Z PROC					; operator delete, COMDAT

; 93   :     {

	push	ebp
	mov	ebp, esp
	sub	esp, 64					; 00000040H
	push	ebx
	push	esi
	push	edi

; 94   :         return;
; 95   :     }

	pop	edi
	pop	esi
	pop	ebx
	mov	esp, ebp
	pop	ebp
	ret	0
??3@YAXPAX0@Z ENDP					; operator delete
_TEXT	ENDS
; Function compile flags: /Odtp /ZI
; File c:\program files (x86)\microsoft visual studio 14.0\vc\include\vcruntime_new.h
;	COMDAT ??2@YAPAXIPAX@Z
_TEXT	SEGMENT
__Size$ = 8						; size = 4
__Where$ = 12						; size = 4
??2@YAPAXIPAX@Z PROC					; operator new, COMDAT

; 87   :     {

	push	ebp
	mov	ebp, esp
	sub	esp, 64					; 00000040H
	push	ebx
	push	esi
	push	edi

; 88   :         (void)_Size;
; 89   :         return _Where;

	mov	eax, DWORD PTR __Where$[ebp]

; 90   :     }

	pop	edi
	pop	esi
	pop	ebx
	mov	esp, ebp
	pop	ebp
	ret	0
??2@YAPAXIPAX@Z ENDP					; operator new
_TEXT	ENDS
; Function compile flags: /Odtp /ZI
; File d:\!diffusion 2020\source code 2022\client-server\server\util.cpp
;	COMDAT ?Msg@@YAXPBDZZ
_TEXT	SEGMENT
_szCommand$ = -4					; size = 4
_szText$ = 8						; size = 4
?Msg@@YAXPBDZZ PROC					; Msg, COMDAT

; 237  : {

	push	ebp
	mov	ebp, esp
	sub	esp, 68					; 00000044H
	push	ebx
	push	esi
	push	edi

; 238  : 	va_list szCommand;
; 239  : 	static char value[1024];
; 240  : 
; 241  : 	va_start( szCommand, szText );

	call	??$__vcrt_va_start_verify_argument_type@PBD@@YAXXZ ; __vcrt_va_start_verify_argument_type<char const *>
	lea	eax, DWORD PTR _szText$[ebp+4]
	mov	DWORD PTR _szCommand$[ebp], eax

; 242  : 	Q_vsnprintf( value, sizeof( value ), szText, szCommand );

	mov	eax, DWORD PTR _szCommand$[ebp]
	push	eax
	mov	ecx, DWORD PTR _szText$[ebp]
	push	ecx
	push	1024					; 00000400H
	push	OFFSET ?value@?1??Msg@@YAXPBDZZ@4PADA
	call	?Q_vsnprintf@@YAHPADIPBD0@Z		; Q_vsnprintf
	add	esp, 16					; 00000010H

; 243  : 	va_end( szCommand ); 

	mov	DWORD PTR _szCommand$[ebp], 0

; 244  :  
; 245  : 	g_engfuncs.pfnAlertMessage( at_console, value );

	push	OFFSET ?value@?1??Msg@@YAXPBDZZ@4PADA
	push	1
	call	DWORD PTR ?g_engfuncs@@3Uenginefuncs_s@@A+244
	add	esp, 8

; 246  : }

	pop	edi
	pop	esi
	pop	ebx
	mov	esp, ebp
	pop	ebp
	ret	0
?Msg@@YAXPBDZZ ENDP					; Msg
_TEXT	ENDS
; Function compile flags: /Odtp /ZI
; File d:\!diffusion 2020\source code 2022\client-server\server\enginecallback.h
;	COMDAT ?GET_PRIVATE@@YAPAXPAUedict_s@@@Z
_TEXT	SEGMENT
_pent$ = 8						; size = 4
?GET_PRIVATE@@YAPAXPAUedict_s@@@Z PROC			; GET_PRIVATE, COMDAT

; 106  : {

	push	ebp
	mov	ebp, esp
	sub	esp, 64					; 00000040H
	push	ebx
	push	esi
	push	edi

; 107  : 	if ( pent )

	cmp	DWORD PTR _pent$[ebp], 0
	je	SHORT $LN2@GET_PRIVAT

; 108  : 		return pent->pvPrivateData;

	mov	eax, DWORD PTR _pent$[ebp]
	mov	eax, DWORD PTR [eax+124]
	jmp	SHORT $LN1@GET_PRIVAT
$LN2@GET_PRIVAT:

; 109  : 	return NULL;

	xor	eax, eax
$LN1@GET_PRIVAT:

; 110  : }

	pop	edi
	pop	esi
	pop	ebx
	mov	esp, ebp
	pop	ebp
	ret	0
?GET_PRIVATE@@YAPAXPAUedict_s@@@Z ENDP			; GET_PRIVATE
_TEXT	ENDS
; Function compile flags: /Odtp /ZI
; File d:\!diffusion 2020\source code 2022\client-server\server\enginecallback.h
;	COMDAT ?MESSAGE_BEGIN@@YAXHHPBMPAUedict_s@@@Z
_TEXT	SEGMENT
_msg_dest$ = 8						; size = 4
_msg_type$ = 12						; size = 4
_pOrigin$ = 16						; size = 4
_ed$ = 20						; size = 4
?MESSAGE_BEGIN@@YAXHHPBMPAUedict_s@@@Z PROC		; MESSAGE_BEGIN, COMDAT

; 72   : inline void MESSAGE_BEGIN( int msg_dest, int msg_type, const float *pOrigin = NULL, edict_t *ed = NULL ) {

	push	ebp
	mov	ebp, esp
	sub	esp, 64					; 00000040H
	push	ebx
	push	esi
	push	edi

; 73   : 	(*g_engfuncs.pfnMessageBegin)(msg_dest, msg_type, pOrigin, ed);

	mov	eax, DWORD PTR _ed$[ebp]
	push	eax
	mov	ecx, DWORD PTR _pOrigin$[ebp]
	push	ecx
	mov	edx, DWORD PTR _msg_type$[ebp]
	push	edx
	mov	eax, DWORD PTR _msg_dest$[ebp]
	push	eax
	call	DWORD PTR ?g_engfuncs@@3Uenginefuncs_s@@A+184
	add	esp, 16					; 00000010H

; 74   : }

	pop	edi
	pop	esi
	pop	ebx
	mov	esp, ebp
	pop	ebp
	ret	0
?MESSAGE_BEGIN@@YAXHHPBMPAUedict_s@@@Z ENDP		; MESSAGE_BEGIN
_TEXT	ENDS
; Function compile flags: /Odtp /ZI
;	COMDAT ??0gametrace_s@@QAE@$$QAU0@@Z
_TEXT	SEGMENT
_this$ = -4						; size = 4
___that$ = 8						; size = 4
??0gametrace_s@@QAE@$$QAU0@@Z PROC			; gametrace_s::gametrace_s, COMDAT
; _this$ = ecx
	push	ebp
	mov	ebp, esp
	sub	esp, 68					; 00000044H
	push	ebx
	push	esi
	push	edi
	mov	DWORD PTR _this$[ebp], ecx
	mov	eax, DWORD PTR _this$[ebp]
	mov	ecx, DWORD PTR ___that$[ebp]
	mov	edx, DWORD PTR [ecx]
	mov	DWORD PTR [eax], edx
	mov	eax, DWORD PTR _this$[ebp]
	mov	ecx, DWORD PTR ___that$[ebp]
	mov	edx, DWORD PTR [ecx+4]
	mov	DWORD PTR [eax+4], edx
	mov	eax, DWORD PTR _this$[ebp]
	mov	ecx, DWORD PTR ___that$[ebp]
	mov	edx, DWORD PTR [ecx+8]
	mov	DWORD PTR [eax+8], edx
	mov	eax, DWORD PTR _this$[ebp]
	mov	ecx, DWORD PTR ___that$[ebp]
	mov	edx, DWORD PTR [ecx+12]
	mov	DWORD PTR [eax+12], edx
	mov	eax, DWORD PTR _this$[ebp]
	mov	ecx, DWORD PTR ___that$[ebp]
	mov	edx, DWORD PTR [ecx+16]
	mov	DWORD PTR [eax+16], edx
	mov	eax, DWORD PTR ___that$[ebp]
	add	eax, 20					; 00000014H
	push	eax
	mov	ecx, DWORD PTR _this$[ebp]
	add	ecx, 20					; 00000014H
	call	??0Vector@@QAE@ABV0@@Z			; Vector::Vector
	mov	eax, DWORD PTR _this$[ebp]
	mov	ecx, DWORD PTR ___that$[ebp]
	mov	edx, DWORD PTR [ecx+32]
	mov	DWORD PTR [eax+32], edx
	mov	eax, DWORD PTR ___that$[ebp]
	add	eax, 36					; 00000024H
	push	eax
	mov	ecx, DWORD PTR _this$[ebp]
	add	ecx, 36					; 00000024H
	call	??0Vector@@QAE@ABV0@@Z			; Vector::Vector
	mov	eax, DWORD PTR _this$[ebp]
	mov	ecx, DWORD PTR ___that$[ebp]
	mov	edx, DWORD PTR [ecx+48]
	mov	DWORD PTR [eax+48], edx
	mov	eax, DWORD PTR _this$[ebp]
	mov	ecx, DWORD PTR ___that$[ebp]
	mov	edx, DWORD PTR [ecx+52]
	mov	DWORD PTR [eax+52], edx
	mov	eax, DWORD PTR _this$[ebp]
	pop	edi
	pop	esi
	pop	ebx
	mov	esp, ebp
	pop	ebp
	ret	4
??0gametrace_s@@QAE@$$QAU0@@Z ENDP			; gametrace_s::gametrace_s
_TEXT	ENDS
; Function compile flags: /Odtp /ZI
;	COMDAT ??0gametrace_s@@QAE@XZ
_TEXT	SEGMENT
_this$ = -4						; size = 4
??0gametrace_s@@QAE@XZ PROC				; gametrace_s::gametrace_s, COMDAT
; _this$ = ecx
	push	ebp
	mov	ebp, esp
	sub	esp, 68					; 00000044H
	push	ebx
	push	esi
	push	edi
	mov	DWORD PTR _this$[ebp], ecx
	mov	ecx, DWORD PTR _this$[ebp]
	add	ecx, 20					; 00000014H
	call	??0Vector@@QAE@XZ			; Vector::Vector
	mov	ecx, DWORD PTR _this$[ebp]
	add	ecx, 36					; 00000024H
	call	??0Vector@@QAE@XZ			; Vector::Vector
	mov	eax, DWORD PTR _this$[ebp]
	pop	edi
	pop	esi
	pop	ebx
	mov	esp, ebp
	pop	ebp
	ret	0
??0gametrace_s@@QAE@XZ ENDP				; gametrace_s::gametrace_s
_TEXT	ENDS
; Function compile flags: /Odtp /ZI
;	COMDAT ??0trace_s@@QAE@ABU0@@Z
_TEXT	SEGMENT
_this$ = -4						; size = 4
___that$ = 8						; size = 4
??0trace_s@@QAE@ABU0@@Z PROC				; trace_s::trace_s, COMDAT
; _this$ = ecx
	push	ebp
	mov	ebp, esp
	sub	esp, 68					; 00000044H
	push	ebx
	push	esi
	push	edi
	mov	DWORD PTR _this$[ebp], ecx
	mov	eax, DWORD PTR _this$[ebp]
	mov	ecx, DWORD PTR ___that$[ebp]
	mov	edx, DWORD PTR [ecx]
	mov	DWORD PTR [eax], edx
	mov	eax, DWORD PTR _this$[ebp]
	mov	ecx, DWORD PTR ___that$[ebp]
	mov	edx, DWORD PTR [ecx+4]
	mov	DWORD PTR [eax+4], edx
	mov	eax, DWORD PTR _this$[ebp]
	mov	ecx, DWORD PTR ___that$[ebp]
	mov	edx, DWORD PTR [ecx+8]
	mov	DWORD PTR [eax+8], edx
	mov	eax, DWORD PTR _this$[ebp]
	mov	ecx, DWORD PTR ___that$[ebp]
	mov	edx, DWORD PTR [ecx+12]
	mov	DWORD PTR [eax+12], edx
	mov	eax, DWORD PTR _this$[ebp]
	mov	ecx, DWORD PTR ___that$[ebp]
	mov	edx, DWORD PTR [ecx+16]
	mov	DWORD PTR [eax+16], edx
	mov	eax, DWORD PTR ___that$[ebp]
	add	eax, 20					; 00000014H
	push	eax
	mov	ecx, DWORD PTR _this$[ebp]
	add	ecx, 20					; 00000014H
	call	??0Vector@@QAE@ABV0@@Z			; Vector::Vector
	mov	eax, DWORD PTR ___that$[ebp]
	add	eax, 32					; 00000020H
	push	eax
	mov	ecx, DWORD PTR _this$[ebp]
	add	ecx, 32					; 00000020H
	call	??0plane_s@@QAE@ABU0@@Z
	mov	eax, DWORD PTR _this$[ebp]
	mov	ecx, DWORD PTR ___that$[ebp]
	mov	edx, DWORD PTR [ecx+48]
	mov	DWORD PTR [eax+48], edx
	mov	eax, DWORD PTR _this$[ebp]
	mov	ecx, DWORD PTR ___that$[ebp]
	mov	edx, DWORD PTR [ecx+52]
	mov	DWORD PTR [eax+52], edx
	mov	eax, DWORD PTR _this$[ebp]
	pop	edi
	pop	esi
	pop	ebx
	mov	esp, ebp
	pop	ebp
	ret	4
??0trace_s@@QAE@ABU0@@Z ENDP				; trace_s::trace_s
_TEXT	ENDS
; Function compile flags: /Odtp /ZI
;	COMDAT ??0plane_s@@QAE@ABU0@@Z
_TEXT	SEGMENT
_this$ = -4						; size = 4
___that$ = 8						; size = 4
??0plane_s@@QAE@ABU0@@Z PROC				; plane_s::plane_s, COMDAT
; _this$ = ecx
	push	ebp
	mov	ebp, esp
	sub	esp, 68					; 00000044H
	push	ebx
	push	esi
	push	edi
	mov	DWORD PTR _this$[ebp], ecx
	mov	eax, DWORD PTR ___that$[ebp]
	push	eax
	mov	ecx, DWORD PTR _this$[ebp]
	call	??0Vector@@QAE@ABV0@@Z			; Vector::Vector
	mov	eax, DWORD PTR _this$[ebp]
	mov	ecx, DWORD PTR ___that$[ebp]
	mov	edx, DWORD PTR [ecx+12]
	mov	DWORD PTR [eax+12], edx
	mov	eax, DWORD PTR _this$[ebp]
	pop	edi
	pop	esi
	pop	ebx
	mov	esp, ebp
	pop	ebp
	ret	4
??0plane_s@@QAE@ABU0@@Z ENDP				; plane_s::plane_s
_TEXT	ENDS
; Function compile flags: /Odtp /ZI
;	COMDAT ??0matrix4x4@@QAE@ABV0@@Z
_TEXT	SEGMENT
_this$ = -4						; size = 4
___that$ = 8						; size = 4
??0matrix4x4@@QAE@ABV0@@Z PROC				; matrix4x4::matrix4x4, COMDAT
; _this$ = ecx
	push	ebp
	mov	ebp, esp
	sub	esp, 68					; 00000044H
	push	ebx
	push	esi
	push	edi
	mov	DWORD PTR _this$[ebp], ecx
	push	OFFSET ??0Vector4D@@QAE@ABV0@@Z		; Vector4D::Vector4D
	push	4
	push	16					; 00000010H
	mov	eax, DWORD PTR ___that$[ebp]
	push	eax
	mov	ecx, DWORD PTR _this$[ebp]
	push	ecx
	call	??__G@YGXPAX0IIP6EPAX00@Z@Z
	mov	eax, DWORD PTR _this$[ebp]
	pop	edi
	pop	esi
	pop	ebx
	mov	esp, ebp
	pop	ebp
	ret	4
??0matrix4x4@@QAE@ABV0@@Z ENDP				; matrix4x4::matrix4x4
_TEXT	ENDS
; Function compile flags: /Odtp /ZI
; File d:\!diffusion 2020\source code 2022\client-server\game_shared\matrix.h
;	COMDAT ?GetAngles@matrix4x4@@QAE?AVVector@@XZ
_TEXT	SEGMENT
tv370 = -96						; size = 4
tv368 = -96						; size = 4
tv366 = -96						; size = 4
tv364 = -96						; size = 4
tv362 = -96						; size = 4
tv350 = -92						; size = 8
tv334 = -92						; size = 8
tv321 = -92						; size = 8
tv306 = -92						; size = 8
tv291 = -92						; size = 8
tv360 = -88						; size = 4
_angles$ = -20						; size = 12
_xyDist$ = -8						; size = 4
_this$ = -4						; size = 4
___$ReturnUdt$ = 8					; size = 4
?GetAngles@matrix4x4@@QAE?AVVector@@XZ PROC		; matrix4x4::GetAngles, COMDAT
; _this$ = ecx

; 993  : 	{

	push	ebp
	mov	ebp, esp
	sub	esp, 96					; 00000060H
	push	ebx
	push	esi
	push	edi
	mov	DWORD PTR _this$[ebp], ecx

; 994  : 		float xyDist = sqrt( mat[0][0] * mat[0][0] + mat[0][1] * mat[0][1] );

	mov	eax, 16					; 00000010H
	imul	ecx, eax, 0
	add	ecx, DWORD PTR _this$[ebp]
	call	??BVector4D@@QAEPAMXZ			; Vector4D::operator float *
	mov	esi, eax
	mov	ecx, 4
	imul	edi, ecx, 0
	mov	edx, 16					; 00000010H
	imul	ecx, edx, 0
	add	ecx, DWORD PTR _this$[ebp]
	call	??BVector4D@@QAEPAMXZ			; Vector4D::operator float *
	mov	ecx, 4
	imul	edx, ecx, 0
	movss	xmm0, DWORD PTR [esi+edi]
	mulss	xmm0, DWORD PTR [eax+edx]
	mov	eax, 16					; 00000010H
	imul	ecx, eax, 0
	add	ecx, DWORD PTR _this$[ebp]
	movss	DWORD PTR tv360[ebp], xmm0
	call	??BVector4D@@QAEPAMXZ			; Vector4D::operator float *
	mov	esi, eax
	mov	edi, 4
	shl	edi, 0
	mov	ecx, 16					; 00000010H
	imul	ecx, ecx, 0
	add	ecx, DWORD PTR _this$[ebp]
	call	??BVector4D@@QAEPAMXZ			; Vector4D::operator float *
	mov	edx, 4
	shl	edx, 0
	movss	xmm0, DWORD PTR [esi+edi]
	mulss	xmm0, DWORD PTR [eax+edx]
	movss	xmm1, DWORD PTR tv360[ebp]
	addss	xmm1, xmm0
	cvtss2sd xmm0, xmm1
	sub	esp, 8
	movsd	QWORD PTR [esp], xmm0
	call	_sqrt
	add	esp, 8
	fstp	DWORD PTR _xyDist$[ebp]

; 995  : 		Vector angles;

	lea	ecx, DWORD PTR _angles$[ebp]
	call	??0Vector@@QAE@XZ			; Vector::Vector

; 996  : 
; 997  : 		// enough here to get angles?
; 998  : 		if( xyDist > 0.001f )

	movss	xmm0, DWORD PTR _xyDist$[ebp]
	comiss	xmm0, DWORD PTR __real@3a83126f
	jbe	$LN2@GetAngles

; 999  : 		{
; 1000 : 			angles[0] = RAD2DEG( atan2( -mat[0][2], xyDist ) );

	cvtss2sd xmm0, DWORD PTR _xyDist$[ebp]
	sub	esp, 8
	movsd	QWORD PTR [esp], xmm0
	mov	eax, 16					; 00000010H
	imul	ecx, eax, 0
	add	ecx, DWORD PTR _this$[ebp]
	call	??BVector4D@@QAEPAMXZ			; Vector4D::operator float *
	mov	ecx, 4
	shl	ecx, 1
	movss	xmm0, DWORD PTR [eax+ecx]
	xorps	xmm0, DWORD PTR __xmm@80000000800000008000000080000000
	cvtss2sd xmm0, xmm0
	sub	esp, 8
	movsd	QWORD PTR [esp], xmm0
	call	_atan2
	add	esp, 16					; 00000010H
	fstp	QWORD PTR tv291[ebp]
	movsd	xmm0, QWORD PTR tv291[ebp]
	cvtsd2ss xmm0, xmm0
	mulss	xmm0, DWORD PTR __real@42652ee1
	lea	ecx, DWORD PTR _angles$[ebp]
	movss	DWORD PTR tv362[ebp], xmm0
	call	??BVector@@QAEPAMXZ			; Vector::operator float *
	mov	edx, 4
	imul	ecx, edx, 0
	movss	xmm0, DWORD PTR tv362[ebp]
	movss	DWORD PTR [eax+ecx], xmm0

; 1001 : 			angles[1] = RAD2DEG( atan2( mat[0][1], mat[0][0] ) );

	mov	eax, 16					; 00000010H
	imul	ecx, eax, 0
	add	ecx, DWORD PTR _this$[ebp]
	call	??BVector4D@@QAEPAMXZ			; Vector4D::operator float *
	mov	ecx, 4
	imul	edx, ecx, 0
	cvtss2sd xmm0, DWORD PTR [eax+edx]
	sub	esp, 8
	movsd	QWORD PTR [esp], xmm0
	mov	eax, 16					; 00000010H
	imul	ecx, eax, 0
	add	ecx, DWORD PTR _this$[ebp]
	call	??BVector4D@@QAEPAMXZ			; Vector4D::operator float *
	mov	ecx, 4
	shl	ecx, 0
	cvtss2sd xmm0, DWORD PTR [eax+ecx]
	sub	esp, 8
	movsd	QWORD PTR [esp], xmm0
	call	_atan2
	add	esp, 16					; 00000010H
	fstp	QWORD PTR tv306[ebp]
	movsd	xmm0, QWORD PTR tv306[ebp]
	cvtsd2ss xmm0, xmm0
	mulss	xmm0, DWORD PTR __real@42652ee1
	lea	ecx, DWORD PTR _angles$[ebp]
	movss	DWORD PTR tv364[ebp], xmm0
	call	??BVector@@QAEPAMXZ			; Vector::operator float *
	mov	edx, 4
	shl	edx, 0
	movss	xmm0, DWORD PTR tv364[ebp]
	movss	DWORD PTR [eax+edx], xmm0

; 1002 : 			angles[2] = RAD2DEG( atan2( mat[1][2], mat[2][2] ) );

	mov	ecx, 16					; 00000010H
	shl	ecx, 1
	add	ecx, DWORD PTR _this$[ebp]
	call	??BVector4D@@QAEPAMXZ			; Vector4D::operator float *
	mov	ecx, 4
	shl	ecx, 1
	cvtss2sd xmm0, DWORD PTR [eax+ecx]
	sub	esp, 8
	movsd	QWORD PTR [esp], xmm0
	mov	ecx, 16					; 00000010H
	shl	ecx, 0
	add	ecx, DWORD PTR _this$[ebp]
	call	??BVector4D@@QAEPAMXZ			; Vector4D::operator float *
	mov	edx, 4
	shl	edx, 1
	cvtss2sd xmm0, DWORD PTR [eax+edx]
	sub	esp, 8
	movsd	QWORD PTR [esp], xmm0
	call	_atan2
	add	esp, 16					; 00000010H
	fstp	QWORD PTR tv321[ebp]
	movsd	xmm0, QWORD PTR tv321[ebp]
	cvtsd2ss xmm0, xmm0
	mulss	xmm0, DWORD PTR __real@42652ee1
	lea	ecx, DWORD PTR _angles$[ebp]
	movss	DWORD PTR tv366[ebp], xmm0
	call	??BVector@@QAEPAMXZ			; Vector::operator float *
	mov	ecx, 4
	shl	ecx, 1
	movss	xmm0, DWORD PTR tv366[ebp]
	movss	DWORD PTR [eax+ecx], xmm0

; 1003 : 		}
; 1004 : 		else	// forward is mostly Z, gimbal lock

	jmp	$LN3@GetAngles
$LN2@GetAngles:

; 1005 : 		{
; 1006 : 			angles[0] = RAD2DEG( atan2( -mat[0][2], xyDist ) );

	cvtss2sd xmm0, DWORD PTR _xyDist$[ebp]
	sub	esp, 8
	movsd	QWORD PTR [esp], xmm0
	mov	eax, 16					; 00000010H
	imul	ecx, eax, 0
	add	ecx, DWORD PTR _this$[ebp]
	call	??BVector4D@@QAEPAMXZ			; Vector4D::operator float *
	mov	ecx, 4
	shl	ecx, 1
	movss	xmm0, DWORD PTR [eax+ecx]
	xorps	xmm0, DWORD PTR __xmm@80000000800000008000000080000000
	cvtss2sd xmm0, xmm0
	sub	esp, 8
	movsd	QWORD PTR [esp], xmm0
	call	_atan2
	add	esp, 16					; 00000010H
	fstp	QWORD PTR tv334[ebp]
	movsd	xmm0, QWORD PTR tv334[ebp]
	cvtsd2ss xmm0, xmm0
	mulss	xmm0, DWORD PTR __real@42652ee1
	lea	ecx, DWORD PTR _angles$[ebp]
	movss	DWORD PTR tv368[ebp], xmm0
	call	??BVector@@QAEPAMXZ			; Vector::operator float *
	mov	edx, 4
	imul	ecx, edx, 0
	movss	xmm0, DWORD PTR tv368[ebp]
	movss	DWORD PTR [eax+ecx], xmm0

; 1007 : 			angles[1] = RAD2DEG( atan2( -mat[1][0], mat[1][1] ) );

	mov	ecx, 16					; 00000010H
	shl	ecx, 0
	add	ecx, DWORD PTR _this$[ebp]
	call	??BVector4D@@QAEPAMXZ			; Vector4D::operator float *
	mov	ecx, 4
	shl	ecx, 0
	cvtss2sd xmm0, DWORD PTR [eax+ecx]
	sub	esp, 8
	movsd	QWORD PTR [esp], xmm0
	mov	ecx, 16					; 00000010H
	shl	ecx, 0
	add	ecx, DWORD PTR _this$[ebp]
	call	??BVector4D@@QAEPAMXZ			; Vector4D::operator float *
	mov	edx, 4
	imul	ecx, edx, 0
	movss	xmm0, DWORD PTR [eax+ecx]
	xorps	xmm0, DWORD PTR __xmm@80000000800000008000000080000000
	cvtss2sd xmm0, xmm0
	sub	esp, 8
	movsd	QWORD PTR [esp], xmm0
	call	_atan2
	add	esp, 16					; 00000010H
	fstp	QWORD PTR tv350[ebp]
	movsd	xmm0, QWORD PTR tv350[ebp]
	cvtsd2ss xmm0, xmm0
	mulss	xmm0, DWORD PTR __real@42652ee1
	lea	ecx, DWORD PTR _angles$[ebp]
	movss	DWORD PTR tv370[ebp], xmm0
	call	??BVector@@QAEPAMXZ			; Vector::operator float *
	mov	edx, 4
	shl	edx, 0
	movss	xmm0, DWORD PTR tv370[ebp]
	movss	DWORD PTR [eax+edx], xmm0

; 1008 : 			angles[2] = 0;

	lea	ecx, DWORD PTR _angles$[ebp]
	call	??BVector@@QAEPAMXZ			; Vector::operator float *
	mov	ecx, 4
	shl	ecx, 1
	xorps	xmm0, xmm0
	movss	DWORD PTR [eax+ecx], xmm0
$LN3@GetAngles:

; 1009 : 		}
; 1010 : 
; 1011 : 		return angles;

	lea	eax, DWORD PTR _angles$[ebp]
	push	eax
	mov	ecx, DWORD PTR ___$ReturnUdt$[ebp]
	call	??0Vector@@QAE@ABV0@@Z			; Vector::Vector
	mov	eax, DWORD PTR ___$ReturnUdt$[ebp]

; 1012 : 	}

	pop	edi
	pop	esi
	pop	ebx
	mov	esp, ebp
	pop	ebp
	ret	4
?GetAngles@matrix4x4@@QAE?AVVector@@XZ ENDP		; matrix4x4::GetAngles
_TEXT	ENDS
; Function compile flags: /Odtp /ZI
; File d:\!diffusion 2020\source code 2022\client-server\game_shared\matrix.h
;	COMDAT ?GetOrigin@matrix4x4@@QBE?AVVector@@XZ
_TEXT	SEGMENT
$T1 = -80						; size = 12
_this$ = -4						; size = 4
___$ReturnUdt$ = 8					; size = 4
?GetOrigin@matrix4x4@@QBE?AVVector@@XZ PROC		; matrix4x4::GetOrigin, COMDAT
; _this$ = ecx

; 980  : 	Vector	GetOrigin() const { return mat[3]; };

	push	ebp
	mov	ebp, esp
	sub	esp, 80					; 00000050H
	push	ebx
	push	esi
	push	edi
	mov	DWORD PTR _this$[ebp], ecx
	lea	eax, DWORD PTR $T1[ebp]
	push	eax
	mov	ecx, 16					; 00000010H
	imul	ecx, ecx, 3
	add	ecx, DWORD PTR _this$[ebp]
	call	??BVector4D@@QBE?BVVector@@XZ		; Vector4D::operator Vector const 
	lea	edx, DWORD PTR $T1[ebp]
	push	edx
	mov	ecx, DWORD PTR ___$ReturnUdt$[ebp]
	call	??0Vector@@QAE@ABV0@@Z			; Vector::Vector
	mov	eax, DWORD PTR ___$ReturnUdt$[ebp]
	pop	edi
	pop	esi
	pop	ebx
	mov	esp, ebp
	pop	ebp
	ret	4
?GetOrigin@matrix4x4@@QBE?AVVector@@XZ ENDP		; matrix4x4::GetOrigin
_TEXT	ENDS
; Function compile flags: /Odtp /ZI
; File d:\!diffusion 2020\source code 2022\client-server\game_shared\matrix.h
;	COMDAT ??0matrix4x4@@QAE@ABVmatrix3x4@@@Z
_TEXT	SEGMENT
_this$ = -4						; size = 4
_in$ = 8						; size = 4
??0matrix4x4@@QAE@ABVmatrix3x4@@@Z PROC			; matrix4x4::matrix4x4, COMDAT
; _this$ = ecx

; 918  : 	_forceinline matrix4x4( const matrix3x4 &in )

	push	ebp
	mov	ebp, esp
	sub	esp, 68					; 00000044H
	push	ebx
	push	esi
	push	edi
	mov	DWORD PTR _this$[ebp], ecx

; 919  : 	{

	push	OFFSET ??0Vector4D@@QAE@XZ		; Vector4D::Vector4D
	push	4
	push	16					; 00000010H
	mov	eax, DWORD PTR _this$[ebp]
	push	eax
	call	??_H@YGXPAXIIP6EPAX0@Z@Z

; 920  : 		mat[0][0] = in[0][0];

	push	0
	mov	ecx, DWORD PTR _in$[ebp]
	call	??Amatrix3x4@@QBEPBMH@Z			; matrix3x4::operator[]
	mov	esi, eax
	mov	eax, 4
	imul	edi, eax, 0
	mov	ecx, 16					; 00000010H
	imul	ecx, ecx, 0
	add	ecx, DWORD PTR _this$[ebp]
	call	??BVector4D@@QAEPAMXZ			; Vector4D::operator float *
	mov	edx, 4
	imul	ecx, edx, 0
	mov	edx, DWORD PTR [esi+edi]
	mov	DWORD PTR [eax+ecx], edx

; 921  : 		mat[0][1] = in[0][1];

	push	0
	mov	ecx, DWORD PTR _in$[ebp]
	call	??Amatrix3x4@@QBEPBMH@Z			; matrix3x4::operator[]
	mov	esi, eax
	mov	edi, 4
	shl	edi, 0
	mov	eax, 16					; 00000010H
	imul	ecx, eax, 0
	add	ecx, DWORD PTR _this$[ebp]
	call	??BVector4D@@QAEPAMXZ			; Vector4D::operator float *
	mov	ecx, 4
	shl	ecx, 0
	mov	edx, DWORD PTR [esi+edi]
	mov	DWORD PTR [eax+ecx], edx

; 922  : 		mat[0][2] = in[0][2];

	push	0
	mov	ecx, DWORD PTR _in$[ebp]
	call	??Amatrix3x4@@QBEPBMH@Z			; matrix3x4::operator[]
	mov	esi, eax
	mov	edi, 4
	shl	edi, 1
	mov	eax, 16					; 00000010H
	imul	ecx, eax, 0
	add	ecx, DWORD PTR _this$[ebp]
	call	??BVector4D@@QAEPAMXZ			; Vector4D::operator float *
	mov	ecx, 4
	shl	ecx, 1
	mov	edx, DWORD PTR [esi+edi]
	mov	DWORD PTR [eax+ecx], edx

; 923  : 		mat[1][0] = in[1][0];

	push	1
	mov	ecx, DWORD PTR _in$[ebp]
	call	??Amatrix3x4@@QBEPBMH@Z			; matrix3x4::operator[]
	mov	esi, eax
	mov	eax, 4
	imul	edi, eax, 0
	mov	ecx, 16					; 00000010H
	shl	ecx, 0
	add	ecx, DWORD PTR _this$[ebp]
	call	??BVector4D@@QAEPAMXZ			; Vector4D::operator float *
	mov	ecx, 4
	imul	edx, ecx, 0
	mov	ecx, DWORD PTR [esi+edi]
	mov	DWORD PTR [eax+edx], ecx

; 924  : 		mat[1][1] = in[1][1];

	push	1
	mov	ecx, DWORD PTR _in$[ebp]
	call	??Amatrix3x4@@QBEPBMH@Z			; matrix3x4::operator[]
	mov	esi, eax
	mov	edi, 4
	shl	edi, 0
	mov	ecx, 16					; 00000010H
	shl	ecx, 0
	add	ecx, DWORD PTR _this$[ebp]
	call	??BVector4D@@QAEPAMXZ			; Vector4D::operator float *
	mov	ecx, 4
	shl	ecx, 0
	mov	edx, DWORD PTR [esi+edi]
	mov	DWORD PTR [eax+ecx], edx

; 925  : 		mat[1][2] = in[1][2];

	push	1
	mov	ecx, DWORD PTR _in$[ebp]
	call	??Amatrix3x4@@QBEPBMH@Z			; matrix3x4::operator[]
	mov	esi, eax
	mov	edi, 4
	shl	edi, 1
	mov	ecx, 16					; 00000010H
	shl	ecx, 0
	add	ecx, DWORD PTR _this$[ebp]
	call	??BVector4D@@QAEPAMXZ			; Vector4D::operator float *
	mov	ecx, 4
	shl	ecx, 1
	mov	edx, DWORD PTR [esi+edi]
	mov	DWORD PTR [eax+ecx], edx

; 926  : 		mat[2][0] = in[2][0];

	push	2
	mov	ecx, DWORD PTR _in$[ebp]
	call	??Amatrix3x4@@QBEPBMH@Z			; matrix3x4::operator[]
	mov	esi, eax
	mov	eax, 4
	imul	edi, eax, 0
	mov	ecx, 16					; 00000010H
	shl	ecx, 1
	add	ecx, DWORD PTR _this$[ebp]
	call	??BVector4D@@QAEPAMXZ			; Vector4D::operator float *
	mov	ecx, 4
	imul	edx, ecx, 0
	mov	ecx, DWORD PTR [esi+edi]
	mov	DWORD PTR [eax+edx], ecx

; 927  : 		mat[2][1] = in[2][1];

	push	2
	mov	ecx, DWORD PTR _in$[ebp]
	call	??Amatrix3x4@@QBEPBMH@Z			; matrix3x4::operator[]
	mov	esi, eax
	mov	edi, 4
	shl	edi, 0
	mov	ecx, 16					; 00000010H
	shl	ecx, 1
	add	ecx, DWORD PTR _this$[ebp]
	call	??BVector4D@@QAEPAMXZ			; Vector4D::operator float *
	mov	ecx, 4
	shl	ecx, 0
	mov	edx, DWORD PTR [esi+edi]
	mov	DWORD PTR [eax+ecx], edx

; 928  : 		mat[2][2] = in[2][2];

	push	2
	mov	ecx, DWORD PTR _in$[ebp]
	call	??Amatrix3x4@@QBEPBMH@Z			; matrix3x4::operator[]
	mov	esi, eax
	mov	edi, 4
	shl	edi, 1
	mov	ecx, 16					; 00000010H
	shl	ecx, 1
	add	ecx, DWORD PTR _this$[ebp]
	call	??BVector4D@@QAEPAMXZ			; Vector4D::operator float *
	mov	ecx, 4
	shl	ecx, 1
	mov	edx, DWORD PTR [esi+edi]
	mov	DWORD PTR [eax+ecx], edx

; 929  : 		mat[3][0] = in[3][0];

	push	3
	mov	ecx, DWORD PTR _in$[ebp]
	call	??Amatrix3x4@@QBEPBMH@Z			; matrix3x4::operator[]
	mov	esi, eax
	mov	eax, 4
	imul	edi, eax, 0
	mov	ecx, 16					; 00000010H
	imul	ecx, ecx, 3
	add	ecx, DWORD PTR _this$[ebp]
	call	??BVector4D@@QAEPAMXZ			; Vector4D::operator float *
	mov	edx, 4
	imul	ecx, edx, 0
	mov	edx, DWORD PTR [esi+edi]
	mov	DWORD PTR [eax+ecx], edx

; 930  : 		mat[3][1] = in[3][1];

	push	3
	mov	ecx, DWORD PTR _in$[ebp]
	call	??Amatrix3x4@@QBEPBMH@Z			; matrix3x4::operator[]
	mov	esi, eax
	mov	edi, 4
	shl	edi, 0
	mov	eax, 16					; 00000010H
	imul	ecx, eax, 3
	add	ecx, DWORD PTR _this$[ebp]
	call	??BVector4D@@QAEPAMXZ			; Vector4D::operator float *
	mov	ecx, 4
	shl	ecx, 0
	mov	edx, DWORD PTR [esi+edi]
	mov	DWORD PTR [eax+ecx], edx

; 931  : 		mat[3][2] = in[3][2];

	push	3
	mov	ecx, DWORD PTR _in$[ebp]
	call	??Amatrix3x4@@QBEPBMH@Z			; matrix3x4::operator[]
	mov	esi, eax
	mov	edi, 4
	shl	edi, 1
	mov	eax, 16					; 00000010H
	imul	ecx, eax, 3
	add	ecx, DWORD PTR _this$[ebp]
	call	??BVector4D@@QAEPAMXZ			; Vector4D::operator float *
	mov	ecx, 4
	shl	ecx, 1
	mov	edx, DWORD PTR [esi+edi]
	mov	DWORD PTR [eax+ecx], edx

; 932  : 		mat[0][3] = 0;

	mov	eax, 16					; 00000010H
	imul	ecx, eax, 0
	add	ecx, DWORD PTR _this$[ebp]
	call	??BVector4D@@QAEPAMXZ			; Vector4D::operator float *
	mov	ecx, 4
	imul	edx, ecx, 3
	xorps	xmm0, xmm0
	movss	DWORD PTR [eax+edx], xmm0

; 933  : 		mat[1][3] = 0;

	mov	ecx, 16					; 00000010H
	shl	ecx, 0
	add	ecx, DWORD PTR _this$[ebp]
	call	??BVector4D@@QAEPAMXZ			; Vector4D::operator float *
	mov	ecx, 4
	imul	edx, ecx, 3
	xorps	xmm0, xmm0
	movss	DWORD PTR [eax+edx], xmm0

; 934  : 		mat[2][3] = 0;

	mov	ecx, 16					; 00000010H
	shl	ecx, 1
	add	ecx, DWORD PTR _this$[ebp]
	call	??BVector4D@@QAEPAMXZ			; Vector4D::operator float *
	mov	ecx, 4
	imul	edx, ecx, 3
	xorps	xmm0, xmm0
	movss	DWORD PTR [eax+edx], xmm0

; 935  : 		mat[3][3] = 1;

	mov	eax, 16					; 00000010H
	imul	ecx, eax, 3
	add	ecx, DWORD PTR _this$[ebp]
	call	??BVector4D@@QAEPAMXZ			; Vector4D::operator float *
	mov	ecx, 4
	imul	edx, ecx, 3
	movss	xmm0, DWORD PTR __real@3f800000
	movss	DWORD PTR [eax+edx], xmm0

; 936  : 	}

	mov	eax, DWORD PTR _this$[ebp]
	pop	edi
	pop	esi
	pop	ebx
	mov	esp, ebp
	pop	ebp
	ret	4
??0matrix4x4@@QAE@ABVmatrix3x4@@@Z ENDP			; matrix4x4::matrix4x4
_TEXT	ENDS
; Function compile flags: /Odtp /ZI
; File d:\!diffusion 2020\source code 2022\client-server\game_shared\matrix.h
;	COMDAT ??0matrix4x4@@QAE@ABVVector@@0M@Z
_TEXT	SEGMENT
tv1056 = -100						; size = 4
tv1054 = -100						; size = 4
tv1052 = -100						; size = 4
tv1050 = -100						; size = 4
tv1048 = -100						; size = 4
tv1046 = -100						; size = 4
tv1044 = -100						; size = 4
tv1042 = -100						; size = 4
tv1040 = -100						; size = 4
tv1038 = -100						; size = 4
tv1036 = -100						; size = 4
tv1034 = -100						; size = 4
tv1032 = -100						; size = 4
tv1030 = -100						; size = 4
tv1028 = -100						; size = 4
tv1026 = -100						; size = 4
tv1024 = -100						; size = 4
tv1022 = -100						; size = 4
tv1020 = -100						; size = 4
tv1018 = -100						; size = 4
tv1016 = -100						; size = 4
_cy$ = -32						; size = 4
_cp$ = -28						; size = 4
_cr$ = -24						; size = 4
_sy$ = -20						; size = 4
_sp$ = -16						; size = 4
_sr$ = -12						; size = 4
_angle$ = -8						; size = 4
_this$ = -4						; size = 4
_origin$ = 8						; size = 4
_angles$ = 12						; size = 4
_scale$ = 16						; size = 4
??0matrix4x4@@QAE@ABVVector@@0M@Z PROC			; matrix4x4::matrix4x4, COMDAT
; _this$ = ecx

; 701  : 	_forceinline matrix4x4( const Vector &origin, const Vector &angles, float scale = 1.0f )

	push	ebp
	mov	ebp, esp
	sub	esp, 100				; 00000064H
	push	ebx
	push	esi
	push	edi
	mov	DWORD PTR _this$[ebp], ecx

; 702  : 	{

	push	OFFSET ??0Vector4D@@QAE@XZ		; Vector4D::Vector4D
	push	4
	push	16					; 00000010H
	mov	eax, DWORD PTR _this$[ebp]
	push	eax
	call	??_H@YGXPAXIIP6EPAX0@Z@Z

; 703  : 		float	angle, sr, sp, sy, cr, cp, cy;
; 704  : 
; 705  : 		if( angles[ROLL] )

	mov	ecx, DWORD PTR _angles$[ebp]
	call	??BVector@@QBEPBMXZ			; Vector::operator float const *
	mov	ecx, 4
	shl	ecx, 1
	movss	xmm0, DWORD PTR [eax+ecx]
	ucomiss	xmm0, DWORD PTR __real@00000000
	lahf
	test	ah, 68					; 00000044H
	jnp	$LN2@matrix4x4

; 706  : 		{
; 707  : 			angle = angles[YAW] * (M_PI*2 / 360);

	mov	ecx, DWORD PTR _angles$[ebp]
	call	??BVector@@QBEPBMXZ			; Vector::operator float const *
	mov	ecx, 4
	shl	ecx, 0
	cvtss2sd xmm0, DWORD PTR [eax+ecx]
	mulsd	xmm0, QWORD PTR __real@3f91df46a2529d39
	cvtsd2ss xmm0, xmm0
	movss	DWORD PTR _angle$[ebp], xmm0

; 708  : 			SinCos( angle, &sy, &cy );

	lea	eax, DWORD PTR _cy$[ebp]
	push	eax
	lea	ecx, DWORD PTR _sy$[ebp]
	push	ecx
	push	ecx
	movss	xmm0, DWORD PTR _angle$[ebp]
	movss	DWORD PTR [esp], xmm0
	call	?SinCos@@YAXMPAM0@Z			; SinCos
	add	esp, 12					; 0000000cH

; 709  : 			angle = angles[PITCH] * (M_PI*2 / 360);

	mov	ecx, DWORD PTR _angles$[ebp]
	call	??BVector@@QBEPBMXZ			; Vector::operator float const *
	mov	ecx, 4
	imul	edx, ecx, 0
	cvtss2sd xmm0, DWORD PTR [eax+edx]
	mulsd	xmm0, QWORD PTR __real@3f91df46a2529d39
	cvtsd2ss xmm0, xmm0
	movss	DWORD PTR _angle$[ebp], xmm0

; 710  : 			SinCos( angle, &sp, &cp );

	lea	eax, DWORD PTR _cp$[ebp]
	push	eax
	lea	ecx, DWORD PTR _sp$[ebp]
	push	ecx
	push	ecx
	movss	xmm0, DWORD PTR _angle$[ebp]
	movss	DWORD PTR [esp], xmm0
	call	?SinCos@@YAXMPAM0@Z			; SinCos
	add	esp, 12					; 0000000cH

; 711  : 			angle = angles[ROLL] * (M_PI*2 / 360);

	mov	ecx, DWORD PTR _angles$[ebp]
	call	??BVector@@QBEPBMXZ			; Vector::operator float const *
	mov	ecx, 4
	shl	ecx, 1
	cvtss2sd xmm0, DWORD PTR [eax+ecx]
	mulsd	xmm0, QWORD PTR __real@3f91df46a2529d39
	cvtsd2ss xmm0, xmm0
	movss	DWORD PTR _angle$[ebp], xmm0

; 712  : 			SinCos( angle, &sr, &cr );

	lea	eax, DWORD PTR _cr$[ebp]
	push	eax
	lea	ecx, DWORD PTR _sr$[ebp]
	push	ecx
	push	ecx
	movss	xmm0, DWORD PTR _angle$[ebp]
	movss	DWORD PTR [esp], xmm0
	call	?SinCos@@YAXMPAM0@Z			; SinCos
	add	esp, 12					; 0000000cH

; 713  : 
; 714  : 			mat[0][0] = (cp*cy) * scale;

	movss	xmm0, DWORD PTR _cp$[ebp]
	mulss	xmm0, DWORD PTR _cy$[ebp]
	mulss	xmm0, DWORD PTR _scale$[ebp]
	mov	eax, 16					; 00000010H
	imul	ecx, eax, 0
	add	ecx, DWORD PTR _this$[ebp]
	movss	DWORD PTR tv1016[ebp], xmm0
	call	??BVector4D@@QAEPAMXZ			; Vector4D::operator float *
	mov	ecx, 4
	imul	edx, ecx, 0
	movss	xmm0, DWORD PTR tv1016[ebp]
	movss	DWORD PTR [eax+edx], xmm0

; 715  : 			mat[1][0] = (sr*sp*cy+cr*-sy) * scale;

	movss	xmm0, DWORD PTR _sr$[ebp]
	mulss	xmm0, DWORD PTR _sp$[ebp]
	mulss	xmm0, DWORD PTR _cy$[ebp]
	movss	xmm1, DWORD PTR _sy$[ebp]
	xorps	xmm1, DWORD PTR __xmm@80000000800000008000000080000000
	mulss	xmm1, DWORD PTR _cr$[ebp]
	addss	xmm0, xmm1
	mulss	xmm0, DWORD PTR _scale$[ebp]
	mov	ecx, 16					; 00000010H
	shl	ecx, 0
	add	ecx, DWORD PTR _this$[ebp]
	movss	DWORD PTR tv1018[ebp], xmm0
	call	??BVector4D@@QAEPAMXZ			; Vector4D::operator float *
	mov	ecx, 4
	imul	edx, ecx, 0
	movss	xmm0, DWORD PTR tv1018[ebp]
	movss	DWORD PTR [eax+edx], xmm0

; 716  : 			mat[2][0] = (cr*sp*cy+-sr*-sy) * scale;

	movss	xmm0, DWORD PTR _cr$[ebp]
	mulss	xmm0, DWORD PTR _sp$[ebp]
	mulss	xmm0, DWORD PTR _cy$[ebp]
	movss	xmm1, DWORD PTR _sr$[ebp]
	xorps	xmm1, DWORD PTR __xmm@80000000800000008000000080000000
	movss	xmm2, DWORD PTR _sy$[ebp]
	xorps	xmm2, DWORD PTR __xmm@80000000800000008000000080000000
	mulss	xmm1, xmm2
	addss	xmm0, xmm1
	mulss	xmm0, DWORD PTR _scale$[ebp]
	mov	ecx, 16					; 00000010H
	shl	ecx, 1
	add	ecx, DWORD PTR _this$[ebp]
	movss	DWORD PTR tv1020[ebp], xmm0
	call	??BVector4D@@QAEPAMXZ			; Vector4D::operator float *
	mov	ecx, 4
	imul	edx, ecx, 0
	movss	xmm0, DWORD PTR tv1020[ebp]
	movss	DWORD PTR [eax+edx], xmm0

; 717  : 			mat[3][0] = origin.x;

	mov	eax, 16					; 00000010H
	imul	ecx, eax, 3
	add	ecx, DWORD PTR _this$[ebp]
	call	??BVector4D@@QAEPAMXZ			; Vector4D::operator float *
	mov	ecx, 4
	imul	edx, ecx, 0
	mov	ecx, DWORD PTR _origin$[ebp]
	mov	ecx, DWORD PTR [ecx]
	mov	DWORD PTR [eax+edx], ecx

; 718  : 			mat[0][1] = (cp*sy) * scale;

	movss	xmm0, DWORD PTR _cp$[ebp]
	mulss	xmm0, DWORD PTR _sy$[ebp]
	mulss	xmm0, DWORD PTR _scale$[ebp]
	mov	eax, 16					; 00000010H
	imul	ecx, eax, 0
	add	ecx, DWORD PTR _this$[ebp]
	movss	DWORD PTR tv1022[ebp], xmm0
	call	??BVector4D@@QAEPAMXZ			; Vector4D::operator float *
	mov	ecx, 4
	shl	ecx, 0
	movss	xmm0, DWORD PTR tv1022[ebp]
	movss	DWORD PTR [eax+ecx], xmm0

; 719  : 			mat[1][1] = (sr*sp*sy+cr*cy) * scale;

	movss	xmm0, DWORD PTR _sr$[ebp]
	mulss	xmm0, DWORD PTR _sp$[ebp]
	mulss	xmm0, DWORD PTR _sy$[ebp]
	movss	xmm1, DWORD PTR _cr$[ebp]
	mulss	xmm1, DWORD PTR _cy$[ebp]
	addss	xmm0, xmm1
	mulss	xmm0, DWORD PTR _scale$[ebp]
	mov	ecx, 16					; 00000010H
	shl	ecx, 0
	add	ecx, DWORD PTR _this$[ebp]
	movss	DWORD PTR tv1024[ebp], xmm0
	call	??BVector4D@@QAEPAMXZ			; Vector4D::operator float *
	mov	ecx, 4
	shl	ecx, 0
	movss	xmm0, DWORD PTR tv1024[ebp]
	movss	DWORD PTR [eax+ecx], xmm0

; 720  : 			mat[2][1] = (cr*sp*sy+-sr*cy) * scale;

	movss	xmm0, DWORD PTR _cr$[ebp]
	mulss	xmm0, DWORD PTR _sp$[ebp]
	mulss	xmm0, DWORD PTR _sy$[ebp]
	movss	xmm1, DWORD PTR _sr$[ebp]
	xorps	xmm1, DWORD PTR __xmm@80000000800000008000000080000000
	mulss	xmm1, DWORD PTR _cy$[ebp]
	addss	xmm0, xmm1
	mulss	xmm0, DWORD PTR _scale$[ebp]
	mov	ecx, 16					; 00000010H
	shl	ecx, 1
	add	ecx, DWORD PTR _this$[ebp]
	movss	DWORD PTR tv1026[ebp], xmm0
	call	??BVector4D@@QAEPAMXZ			; Vector4D::operator float *
	mov	ecx, 4
	shl	ecx, 0
	movss	xmm0, DWORD PTR tv1026[ebp]
	movss	DWORD PTR [eax+ecx], xmm0

; 721  : 			mat[3][1] = origin.y;

	mov	eax, 16					; 00000010H
	imul	ecx, eax, 3
	add	ecx, DWORD PTR _this$[ebp]
	call	??BVector4D@@QAEPAMXZ			; Vector4D::operator float *
	mov	ecx, 4
	shl	ecx, 0
	mov	edx, DWORD PTR _origin$[ebp]
	mov	edx, DWORD PTR [edx+4]
	mov	DWORD PTR [eax+ecx], edx

; 722  : 			mat[0][2] = (-sp) * scale;

	movss	xmm0, DWORD PTR _sp$[ebp]
	xorps	xmm0, DWORD PTR __xmm@80000000800000008000000080000000
	mulss	xmm0, DWORD PTR _scale$[ebp]
	mov	eax, 16					; 00000010H
	imul	ecx, eax, 0
	add	ecx, DWORD PTR _this$[ebp]
	movss	DWORD PTR tv1028[ebp], xmm0
	call	??BVector4D@@QAEPAMXZ			; Vector4D::operator float *
	mov	ecx, 4
	shl	ecx, 1
	movss	xmm0, DWORD PTR tv1028[ebp]
	movss	DWORD PTR [eax+ecx], xmm0

; 723  : 			mat[1][2] = (sr*cp) * scale;

	movss	xmm0, DWORD PTR _sr$[ebp]
	mulss	xmm0, DWORD PTR _cp$[ebp]
	mulss	xmm0, DWORD PTR _scale$[ebp]
	mov	ecx, 16					; 00000010H
	shl	ecx, 0
	add	ecx, DWORD PTR _this$[ebp]
	movss	DWORD PTR tv1030[ebp], xmm0
	call	??BVector4D@@QAEPAMXZ			; Vector4D::operator float *
	mov	ecx, 4
	shl	ecx, 1
	movss	xmm0, DWORD PTR tv1030[ebp]
	movss	DWORD PTR [eax+ecx], xmm0

; 724  : 			mat[2][2] = (cr*cp) * scale;

	movss	xmm0, DWORD PTR _cr$[ebp]
	mulss	xmm0, DWORD PTR _cp$[ebp]
	mulss	xmm0, DWORD PTR _scale$[ebp]
	mov	ecx, 16					; 00000010H
	shl	ecx, 1
	add	ecx, DWORD PTR _this$[ebp]
	movss	DWORD PTR tv1032[ebp], xmm0
	call	??BVector4D@@QAEPAMXZ			; Vector4D::operator float *
	mov	ecx, 4
	shl	ecx, 1
	movss	xmm0, DWORD PTR tv1032[ebp]
	movss	DWORD PTR [eax+ecx], xmm0

; 725  : 			mat[3][2] = origin.z;

	mov	eax, 16					; 00000010H
	imul	ecx, eax, 3
	add	ecx, DWORD PTR _this$[ebp]
	call	??BVector4D@@QAEPAMXZ			; Vector4D::operator float *
	mov	ecx, 4
	shl	ecx, 1
	mov	edx, DWORD PTR _origin$[ebp]
	mov	edx, DWORD PTR [edx+8]
	mov	DWORD PTR [eax+ecx], edx

; 726  : 			mat[0][3] = 0;

	mov	eax, 16					; 00000010H
	imul	ecx, eax, 0
	add	ecx, DWORD PTR _this$[ebp]
	call	??BVector4D@@QAEPAMXZ			; Vector4D::operator float *
	mov	ecx, 4
	imul	edx, ecx, 3
	xorps	xmm0, xmm0
	movss	DWORD PTR [eax+edx], xmm0

; 727  : 			mat[1][3] = 0;

	mov	ecx, 16					; 00000010H
	shl	ecx, 0
	add	ecx, DWORD PTR _this$[ebp]
	call	??BVector4D@@QAEPAMXZ			; Vector4D::operator float *
	mov	ecx, 4
	imul	edx, ecx, 3
	xorps	xmm0, xmm0
	movss	DWORD PTR [eax+edx], xmm0

; 728  : 			mat[2][3] = 0;

	mov	ecx, 16					; 00000010H
	shl	ecx, 1
	add	ecx, DWORD PTR _this$[ebp]
	call	??BVector4D@@QAEPAMXZ			; Vector4D::operator float *
	mov	ecx, 4
	imul	edx, ecx, 3
	xorps	xmm0, xmm0
	movss	DWORD PTR [eax+edx], xmm0

; 729  : 			mat[3][3] = 1;

	mov	eax, 16					; 00000010H
	imul	ecx, eax, 3
	add	ecx, DWORD PTR _this$[ebp]
	call	??BVector4D@@QAEPAMXZ			; Vector4D::operator float *
	mov	ecx, 4
	imul	edx, ecx, 3
	movss	xmm0, DWORD PTR __real@3f800000
	movss	DWORD PTR [eax+edx], xmm0
	jmp	$LN7@matrix4x4
$LN2@matrix4x4:

; 730  : 		}
; 731  : 		else if( angles[PITCH] )

	mov	ecx, DWORD PTR _angles$[ebp]
	call	??BVector@@QBEPBMXZ			; Vector::operator float const *
	mov	ecx, 4
	imul	edx, ecx, 0
	movss	xmm0, DWORD PTR [eax+edx]
	ucomiss	xmm0, DWORD PTR __real@00000000
	lahf
	test	ah, 68					; 00000044H
	jnp	$LN4@matrix4x4

; 732  : 		{
; 733  : 			angle = angles[YAW] * (M_PI*2 / 360);

	mov	ecx, DWORD PTR _angles$[ebp]
	call	??BVector@@QBEPBMXZ			; Vector::operator float const *
	mov	ecx, 4
	shl	ecx, 0
	cvtss2sd xmm0, DWORD PTR [eax+ecx]
	mulsd	xmm0, QWORD PTR __real@3f91df46a2529d39
	cvtsd2ss xmm0, xmm0
	movss	DWORD PTR _angle$[ebp], xmm0

; 734  : 			SinCos( angle, &sy, &cy );

	lea	eax, DWORD PTR _cy$[ebp]
	push	eax
	lea	ecx, DWORD PTR _sy$[ebp]
	push	ecx
	push	ecx
	movss	xmm0, DWORD PTR _angle$[ebp]
	movss	DWORD PTR [esp], xmm0
	call	?SinCos@@YAXMPAM0@Z			; SinCos
	add	esp, 12					; 0000000cH

; 735  : 			angle = angles[PITCH] * (M_PI*2 / 360);

	mov	ecx, DWORD PTR _angles$[ebp]
	call	??BVector@@QBEPBMXZ			; Vector::operator float const *
	mov	ecx, 4
	imul	edx, ecx, 0
	cvtss2sd xmm0, DWORD PTR [eax+edx]
	mulsd	xmm0, QWORD PTR __real@3f91df46a2529d39
	cvtsd2ss xmm0, xmm0
	movss	DWORD PTR _angle$[ebp], xmm0

; 736  : 			SinCos( angle, &sp, &cp );

	lea	eax, DWORD PTR _cp$[ebp]
	push	eax
	lea	ecx, DWORD PTR _sp$[ebp]
	push	ecx
	push	ecx
	movss	xmm0, DWORD PTR _angle$[ebp]
	movss	DWORD PTR [esp], xmm0
	call	?SinCos@@YAXMPAM0@Z			; SinCos
	add	esp, 12					; 0000000cH

; 737  : 
; 738  : 			mat[0][0] = (cp*cy) * scale;

	movss	xmm0, DWORD PTR _cp$[ebp]
	mulss	xmm0, DWORD PTR _cy$[ebp]
	mulss	xmm0, DWORD PTR _scale$[ebp]
	mov	eax, 16					; 00000010H
	imul	ecx, eax, 0
	add	ecx, DWORD PTR _this$[ebp]
	movss	DWORD PTR tv1034[ebp], xmm0
	call	??BVector4D@@QAEPAMXZ			; Vector4D::operator float *
	mov	ecx, 4
	imul	edx, ecx, 0
	movss	xmm0, DWORD PTR tv1034[ebp]
	movss	DWORD PTR [eax+edx], xmm0

; 739  : 			mat[1][0] = (-sy) * scale;

	movss	xmm0, DWORD PTR _sy$[ebp]
	xorps	xmm0, DWORD PTR __xmm@80000000800000008000000080000000
	mulss	xmm0, DWORD PTR _scale$[ebp]
	mov	ecx, 16					; 00000010H
	shl	ecx, 0
	add	ecx, DWORD PTR _this$[ebp]
	movss	DWORD PTR tv1036[ebp], xmm0
	call	??BVector4D@@QAEPAMXZ			; Vector4D::operator float *
	mov	ecx, 4
	imul	edx, ecx, 0
	movss	xmm0, DWORD PTR tv1036[ebp]
	movss	DWORD PTR [eax+edx], xmm0

; 740  : 			mat[2][0] = (sp*cy) * scale;

	movss	xmm0, DWORD PTR _sp$[ebp]
	mulss	xmm0, DWORD PTR _cy$[ebp]
	mulss	xmm0, DWORD PTR _scale$[ebp]
	mov	ecx, 16					; 00000010H
	shl	ecx, 1
	add	ecx, DWORD PTR _this$[ebp]
	movss	DWORD PTR tv1038[ebp], xmm0
	call	??BVector4D@@QAEPAMXZ			; Vector4D::operator float *
	mov	ecx, 4
	imul	edx, ecx, 0
	movss	xmm0, DWORD PTR tv1038[ebp]
	movss	DWORD PTR [eax+edx], xmm0

; 741  : 			mat[3][0] = origin.x;

	mov	eax, 16					; 00000010H
	imul	ecx, eax, 3
	add	ecx, DWORD PTR _this$[ebp]
	call	??BVector4D@@QAEPAMXZ			; Vector4D::operator float *
	mov	ecx, 4
	imul	edx, ecx, 0
	mov	ecx, DWORD PTR _origin$[ebp]
	mov	ecx, DWORD PTR [ecx]
	mov	DWORD PTR [eax+edx], ecx

; 742  : 			mat[0][1] = (cp*sy) * scale;

	movss	xmm0, DWORD PTR _cp$[ebp]
	mulss	xmm0, DWORD PTR _sy$[ebp]
	mulss	xmm0, DWORD PTR _scale$[ebp]
	mov	eax, 16					; 00000010H
	imul	ecx, eax, 0
	add	ecx, DWORD PTR _this$[ebp]
	movss	DWORD PTR tv1040[ebp], xmm0
	call	??BVector4D@@QAEPAMXZ			; Vector4D::operator float *
	mov	ecx, 4
	shl	ecx, 0
	movss	xmm0, DWORD PTR tv1040[ebp]
	movss	DWORD PTR [eax+ecx], xmm0

; 743  : 			mat[1][1] = (cy) * scale;

	movss	xmm0, DWORD PTR _cy$[ebp]
	mulss	xmm0, DWORD PTR _scale$[ebp]
	mov	ecx, 16					; 00000010H
	shl	ecx, 0
	add	ecx, DWORD PTR _this$[ebp]
	movss	DWORD PTR tv1042[ebp], xmm0
	call	??BVector4D@@QAEPAMXZ			; Vector4D::operator float *
	mov	ecx, 4
	shl	ecx, 0
	movss	xmm0, DWORD PTR tv1042[ebp]
	movss	DWORD PTR [eax+ecx], xmm0

; 744  : 			mat[2][1] = (sp*sy) * scale;

	movss	xmm0, DWORD PTR _sp$[ebp]
	mulss	xmm0, DWORD PTR _sy$[ebp]
	mulss	xmm0, DWORD PTR _scale$[ebp]
	mov	ecx, 16					; 00000010H
	shl	ecx, 1
	add	ecx, DWORD PTR _this$[ebp]
	movss	DWORD PTR tv1044[ebp], xmm0
	call	??BVector4D@@QAEPAMXZ			; Vector4D::operator float *
	mov	ecx, 4
	shl	ecx, 0
	movss	xmm0, DWORD PTR tv1044[ebp]
	movss	DWORD PTR [eax+ecx], xmm0

; 745  : 			mat[3][1] = origin.y;

	mov	eax, 16					; 00000010H
	imul	ecx, eax, 3
	add	ecx, DWORD PTR _this$[ebp]
	call	??BVector4D@@QAEPAMXZ			; Vector4D::operator float *
	mov	ecx, 4
	shl	ecx, 0
	mov	edx, DWORD PTR _origin$[ebp]
	mov	edx, DWORD PTR [edx+4]
	mov	DWORD PTR [eax+ecx], edx

; 746  : 			mat[0][2] = (-sp) * scale;

	movss	xmm0, DWORD PTR _sp$[ebp]
	xorps	xmm0, DWORD PTR __xmm@80000000800000008000000080000000
	mulss	xmm0, DWORD PTR _scale$[ebp]
	mov	eax, 16					; 00000010H
	imul	ecx, eax, 0
	add	ecx, DWORD PTR _this$[ebp]
	movss	DWORD PTR tv1046[ebp], xmm0
	call	??BVector4D@@QAEPAMXZ			; Vector4D::operator float *
	mov	ecx, 4
	shl	ecx, 1
	movss	xmm0, DWORD PTR tv1046[ebp]
	movss	DWORD PTR [eax+ecx], xmm0

; 747  : 			mat[1][2] = 0;

	mov	ecx, 16					; 00000010H
	shl	ecx, 0
	add	ecx, DWORD PTR _this$[ebp]
	call	??BVector4D@@QAEPAMXZ			; Vector4D::operator float *
	mov	ecx, 4
	shl	ecx, 1
	xorps	xmm0, xmm0
	movss	DWORD PTR [eax+ecx], xmm0

; 748  : 			mat[2][2] = (cp) * scale;

	movss	xmm0, DWORD PTR _cp$[ebp]
	mulss	xmm0, DWORD PTR _scale$[ebp]
	mov	ecx, 16					; 00000010H
	shl	ecx, 1
	add	ecx, DWORD PTR _this$[ebp]
	movss	DWORD PTR tv1048[ebp], xmm0
	call	??BVector4D@@QAEPAMXZ			; Vector4D::operator float *
	mov	ecx, 4
	shl	ecx, 1
	movss	xmm0, DWORD PTR tv1048[ebp]
	movss	DWORD PTR [eax+ecx], xmm0

; 749  : 			mat[3][2] = origin.z;

	mov	eax, 16					; 00000010H
	imul	ecx, eax, 3
	add	ecx, DWORD PTR _this$[ebp]
	call	??BVector4D@@QAEPAMXZ			; Vector4D::operator float *
	mov	ecx, 4
	shl	ecx, 1
	mov	edx, DWORD PTR _origin$[ebp]
	mov	edx, DWORD PTR [edx+8]
	mov	DWORD PTR [eax+ecx], edx

; 750  : 			mat[0][3] = 0;

	mov	eax, 16					; 00000010H
	imul	ecx, eax, 0
	add	ecx, DWORD PTR _this$[ebp]
	call	??BVector4D@@QAEPAMXZ			; Vector4D::operator float *
	mov	ecx, 4
	imul	edx, ecx, 3
	xorps	xmm0, xmm0
	movss	DWORD PTR [eax+edx], xmm0

; 751  : 			mat[1][3] = 0;

	mov	ecx, 16					; 00000010H
	shl	ecx, 0
	add	ecx, DWORD PTR _this$[ebp]
	call	??BVector4D@@QAEPAMXZ			; Vector4D::operator float *
	mov	ecx, 4
	imul	edx, ecx, 3
	xorps	xmm0, xmm0
	movss	DWORD PTR [eax+edx], xmm0

; 752  : 			mat[2][3] = 0;

	mov	ecx, 16					; 00000010H
	shl	ecx, 1
	add	ecx, DWORD PTR _this$[ebp]
	call	??BVector4D@@QAEPAMXZ			; Vector4D::operator float *
	mov	ecx, 4
	imul	edx, ecx, 3
	xorps	xmm0, xmm0
	movss	DWORD PTR [eax+edx], xmm0

; 753  : 			mat[3][3] = 1;

	mov	eax, 16					; 00000010H
	imul	ecx, eax, 3
	add	ecx, DWORD PTR _this$[ebp]
	call	??BVector4D@@QAEPAMXZ			; Vector4D::operator float *
	mov	ecx, 4
	imul	edx, ecx, 3
	movss	xmm0, DWORD PTR __real@3f800000
	movss	DWORD PTR [eax+edx], xmm0
	jmp	$LN7@matrix4x4
$LN4@matrix4x4:

; 754  : 		}
; 755  : 		else if( angles[YAW] )

	mov	ecx, DWORD PTR _angles$[ebp]
	call	??BVector@@QBEPBMXZ			; Vector::operator float const *
	mov	ecx, 4
	shl	ecx, 0
	movss	xmm0, DWORD PTR [eax+ecx]
	ucomiss	xmm0, DWORD PTR __real@00000000
	lahf
	test	ah, 68					; 00000044H
	jnp	$LN6@matrix4x4

; 756  : 		{
; 757  : 			angle = angles[YAW] * (M_PI*2 / 360);

	mov	ecx, DWORD PTR _angles$[ebp]
	call	??BVector@@QBEPBMXZ			; Vector::operator float const *
	mov	ecx, 4
	shl	ecx, 0
	cvtss2sd xmm0, DWORD PTR [eax+ecx]
	mulsd	xmm0, QWORD PTR __real@3f91df46a2529d39
	cvtsd2ss xmm0, xmm0
	movss	DWORD PTR _angle$[ebp], xmm0

; 758  : 			SinCos( angle, &sy, &cy );

	lea	eax, DWORD PTR _cy$[ebp]
	push	eax
	lea	ecx, DWORD PTR _sy$[ebp]
	push	ecx
	push	ecx
	movss	xmm0, DWORD PTR _angle$[ebp]
	movss	DWORD PTR [esp], xmm0
	call	?SinCos@@YAXMPAM0@Z			; SinCos
	add	esp, 12					; 0000000cH

; 759  : 
; 760  : 			mat[0][0] = (cy) * scale;

	movss	xmm0, DWORD PTR _cy$[ebp]
	mulss	xmm0, DWORD PTR _scale$[ebp]
	mov	eax, 16					; 00000010H
	imul	ecx, eax, 0
	add	ecx, DWORD PTR _this$[ebp]
	movss	DWORD PTR tv1050[ebp], xmm0
	call	??BVector4D@@QAEPAMXZ			; Vector4D::operator float *
	mov	ecx, 4
	imul	edx, ecx, 0
	movss	xmm0, DWORD PTR tv1050[ebp]
	movss	DWORD PTR [eax+edx], xmm0

; 761  : 			mat[1][0] = (-sy) * scale;

	movss	xmm0, DWORD PTR _sy$[ebp]
	xorps	xmm0, DWORD PTR __xmm@80000000800000008000000080000000
	mulss	xmm0, DWORD PTR _scale$[ebp]
	mov	ecx, 16					; 00000010H
	shl	ecx, 0
	add	ecx, DWORD PTR _this$[ebp]
	movss	DWORD PTR tv1052[ebp], xmm0
	call	??BVector4D@@QAEPAMXZ			; Vector4D::operator float *
	mov	ecx, 4
	imul	edx, ecx, 0
	movss	xmm0, DWORD PTR tv1052[ebp]
	movss	DWORD PTR [eax+edx], xmm0

; 762  : 			mat[2][0] = 0;

	mov	ecx, 16					; 00000010H
	shl	ecx, 1
	add	ecx, DWORD PTR _this$[ebp]
	call	??BVector4D@@QAEPAMXZ			; Vector4D::operator float *
	mov	ecx, 4
	imul	edx, ecx, 0
	xorps	xmm0, xmm0
	movss	DWORD PTR [eax+edx], xmm0

; 763  : 			mat[3][0] = origin.x;

	mov	eax, 16					; 00000010H
	imul	ecx, eax, 3
	add	ecx, DWORD PTR _this$[ebp]
	call	??BVector4D@@QAEPAMXZ			; Vector4D::operator float *
	mov	ecx, 4
	imul	edx, ecx, 0
	mov	ecx, DWORD PTR _origin$[ebp]
	mov	ecx, DWORD PTR [ecx]
	mov	DWORD PTR [eax+edx], ecx

; 764  : 			mat[0][1] = (sy) * scale;

	movss	xmm0, DWORD PTR _sy$[ebp]
	mulss	xmm0, DWORD PTR _scale$[ebp]
	mov	eax, 16					; 00000010H
	imul	ecx, eax, 0
	add	ecx, DWORD PTR _this$[ebp]
	movss	DWORD PTR tv1054[ebp], xmm0
	call	??BVector4D@@QAEPAMXZ			; Vector4D::operator float *
	mov	ecx, 4
	shl	ecx, 0
	movss	xmm0, DWORD PTR tv1054[ebp]
	movss	DWORD PTR [eax+ecx], xmm0

; 765  : 			mat[1][1] = (cy) * scale;

	movss	xmm0, DWORD PTR _cy$[ebp]
	mulss	xmm0, DWORD PTR _scale$[ebp]
	mov	ecx, 16					; 00000010H
	shl	ecx, 0
	add	ecx, DWORD PTR _this$[ebp]
	movss	DWORD PTR tv1056[ebp], xmm0
	call	??BVector4D@@QAEPAMXZ			; Vector4D::operator float *
	mov	ecx, 4
	shl	ecx, 0
	movss	xmm0, DWORD PTR tv1056[ebp]
	movss	DWORD PTR [eax+ecx], xmm0

; 766  : 			mat[2][1] = 0;

	mov	ecx, 16					; 00000010H
	shl	ecx, 1
	add	ecx, DWORD PTR _this$[ebp]
	call	??BVector4D@@QAEPAMXZ			; Vector4D::operator float *
	mov	ecx, 4
	shl	ecx, 0
	xorps	xmm0, xmm0
	movss	DWORD PTR [eax+ecx], xmm0

; 767  : 			mat[3][1] = origin.y;

	mov	eax, 16					; 00000010H
	imul	ecx, eax, 3
	add	ecx, DWORD PTR _this$[ebp]
	call	??BVector4D@@QAEPAMXZ			; Vector4D::operator float *
	mov	ecx, 4
	shl	ecx, 0
	mov	edx, DWORD PTR _origin$[ebp]
	mov	edx, DWORD PTR [edx+4]
	mov	DWORD PTR [eax+ecx], edx

; 768  : 			mat[0][2] = 0;

	mov	eax, 16					; 00000010H
	imul	ecx, eax, 0
	add	ecx, DWORD PTR _this$[ebp]
	call	??BVector4D@@QAEPAMXZ			; Vector4D::operator float *
	mov	ecx, 4
	shl	ecx, 1
	xorps	xmm0, xmm0
	movss	DWORD PTR [eax+ecx], xmm0

; 769  : 			mat[1][2] = 0;

	mov	ecx, 16					; 00000010H
	shl	ecx, 0
	add	ecx, DWORD PTR _this$[ebp]
	call	??BVector4D@@QAEPAMXZ			; Vector4D::operator float *
	mov	ecx, 4
	shl	ecx, 1
	xorps	xmm0, xmm0
	movss	DWORD PTR [eax+ecx], xmm0

; 770  : 			mat[2][2] = scale;

	mov	ecx, 16					; 00000010H
	shl	ecx, 1
	add	ecx, DWORD PTR _this$[ebp]
	call	??BVector4D@@QAEPAMXZ			; Vector4D::operator float *
	mov	ecx, 4
	shl	ecx, 1
	movss	xmm0, DWORD PTR _scale$[ebp]
	movss	DWORD PTR [eax+ecx], xmm0

; 771  : 			mat[3][2] = origin.z;

	mov	eax, 16					; 00000010H
	imul	ecx, eax, 3
	add	ecx, DWORD PTR _this$[ebp]
	call	??BVector4D@@QAEPAMXZ			; Vector4D::operator float *
	mov	ecx, 4
	shl	ecx, 1
	mov	edx, DWORD PTR _origin$[ebp]
	mov	edx, DWORD PTR [edx+8]
	mov	DWORD PTR [eax+ecx], edx

; 772  : 			mat[0][3] = 0;

	mov	eax, 16					; 00000010H
	imul	ecx, eax, 0
	add	ecx, DWORD PTR _this$[ebp]
	call	??BVector4D@@QAEPAMXZ			; Vector4D::operator float *
	mov	ecx, 4
	imul	edx, ecx, 3
	xorps	xmm0, xmm0
	movss	DWORD PTR [eax+edx], xmm0

; 773  : 			mat[1][3] = 0;

	mov	ecx, 16					; 00000010H
	shl	ecx, 0
	add	ecx, DWORD PTR _this$[ebp]
	call	??BVector4D@@QAEPAMXZ			; Vector4D::operator float *
	mov	ecx, 4
	imul	edx, ecx, 3
	xorps	xmm0, xmm0
	movss	DWORD PTR [eax+edx], xmm0

; 774  : 			mat[2][3] = 0;

	mov	ecx, 16					; 00000010H
	shl	ecx, 1
	add	ecx, DWORD PTR _this$[ebp]
	call	??BVector4D@@QAEPAMXZ			; Vector4D::operator float *
	mov	ecx, 4
	imul	edx, ecx, 3
	xorps	xmm0, xmm0
	movss	DWORD PTR [eax+edx], xmm0

; 775  : 			mat[3][3] = 1;

	mov	eax, 16					; 00000010H
	imul	ecx, eax, 3
	add	ecx, DWORD PTR _this$[ebp]
	call	??BVector4D@@QAEPAMXZ			; Vector4D::operator float *
	mov	ecx, 4
	imul	edx, ecx, 3
	movss	xmm0, DWORD PTR __real@3f800000
	movss	DWORD PTR [eax+edx], xmm0

; 776  : 		}
; 777  : 		else

	jmp	$LN7@matrix4x4
$LN6@matrix4x4:

; 778  : 		{
; 779  : 			mat[0][0] = scale;

	mov	eax, 16					; 00000010H
	imul	ecx, eax, 0
	add	ecx, DWORD PTR _this$[ebp]
	call	??BVector4D@@QAEPAMXZ			; Vector4D::operator float *
	mov	ecx, 4
	imul	edx, ecx, 0
	movss	xmm0, DWORD PTR _scale$[ebp]
	movss	DWORD PTR [eax+edx], xmm0

; 780  : 			mat[1][0] = 0;

	mov	ecx, 16					; 00000010H
	shl	ecx, 0
	add	ecx, DWORD PTR _this$[ebp]
	call	??BVector4D@@QAEPAMXZ			; Vector4D::operator float *
	mov	ecx, 4
	imul	edx, ecx, 0
	xorps	xmm0, xmm0
	movss	DWORD PTR [eax+edx], xmm0

; 781  : 			mat[2][0] = 0;

	mov	ecx, 16					; 00000010H
	shl	ecx, 1
	add	ecx, DWORD PTR _this$[ebp]
	call	??BVector4D@@QAEPAMXZ			; Vector4D::operator float *
	mov	ecx, 4
	imul	edx, ecx, 0
	xorps	xmm0, xmm0
	movss	DWORD PTR [eax+edx], xmm0

; 782  : 			mat[3][0] = origin.x;

	mov	eax, 16					; 00000010H
	imul	ecx, eax, 3
	add	ecx, DWORD PTR _this$[ebp]
	call	??BVector4D@@QAEPAMXZ			; Vector4D::operator float *
	mov	ecx, 4
	imul	edx, ecx, 0
	mov	ecx, DWORD PTR _origin$[ebp]
	mov	ecx, DWORD PTR [ecx]
	mov	DWORD PTR [eax+edx], ecx

; 783  : 			mat[0][1] = 0;

	mov	eax, 16					; 00000010H
	imul	ecx, eax, 0
	add	ecx, DWORD PTR _this$[ebp]
	call	??BVector4D@@QAEPAMXZ			; Vector4D::operator float *
	mov	ecx, 4
	shl	ecx, 0
	xorps	xmm0, xmm0
	movss	DWORD PTR [eax+ecx], xmm0

; 784  : 			mat[1][1] = scale;

	mov	ecx, 16					; 00000010H
	shl	ecx, 0
	add	ecx, DWORD PTR _this$[ebp]
	call	??BVector4D@@QAEPAMXZ			; Vector4D::operator float *
	mov	ecx, 4
	shl	ecx, 0
	movss	xmm0, DWORD PTR _scale$[ebp]
	movss	DWORD PTR [eax+ecx], xmm0

; 785  : 			mat[2][1] = 0;

	mov	ecx, 16					; 00000010H
	shl	ecx, 1
	add	ecx, DWORD PTR _this$[ebp]
	call	??BVector4D@@QAEPAMXZ			; Vector4D::operator float *
	mov	ecx, 4
	shl	ecx, 0
	xorps	xmm0, xmm0
	movss	DWORD PTR [eax+ecx], xmm0

; 786  : 			mat[3][1] = origin.y;

	mov	eax, 16					; 00000010H
	imul	ecx, eax, 3
	add	ecx, DWORD PTR _this$[ebp]
	call	??BVector4D@@QAEPAMXZ			; Vector4D::operator float *
	mov	ecx, 4
	shl	ecx, 0
	mov	edx, DWORD PTR _origin$[ebp]
	mov	edx, DWORD PTR [edx+4]
	mov	DWORD PTR [eax+ecx], edx

; 787  : 			mat[0][2] = 0;

	mov	eax, 16					; 00000010H
	imul	ecx, eax, 0
	add	ecx, DWORD PTR _this$[ebp]
	call	??BVector4D@@QAEPAMXZ			; Vector4D::operator float *
	mov	ecx, 4
	shl	ecx, 1
	xorps	xmm0, xmm0
	movss	DWORD PTR [eax+ecx], xmm0

; 788  : 			mat[1][2] = 0;

	mov	ecx, 16					; 00000010H
	shl	ecx, 0
	add	ecx, DWORD PTR _this$[ebp]
	call	??BVector4D@@QAEPAMXZ			; Vector4D::operator float *
	mov	ecx, 4
	shl	ecx, 1
	xorps	xmm0, xmm0
	movss	DWORD PTR [eax+ecx], xmm0

; 789  : 			mat[2][2] = scale;

	mov	ecx, 16					; 00000010H
	shl	ecx, 1
	add	ecx, DWORD PTR _this$[ebp]
	call	??BVector4D@@QAEPAMXZ			; Vector4D::operator float *
	mov	ecx, 4
	shl	ecx, 1
	movss	xmm0, DWORD PTR _scale$[ebp]
	movss	DWORD PTR [eax+ecx], xmm0

; 790  : 			mat[3][2] = origin.z;

	mov	eax, 16					; 00000010H
	imul	ecx, eax, 3
	add	ecx, DWORD PTR _this$[ebp]
	call	??BVector4D@@QAEPAMXZ			; Vector4D::operator float *
	mov	ecx, 4
	shl	ecx, 1
	mov	edx, DWORD PTR _origin$[ebp]
	mov	edx, DWORD PTR [edx+8]
	mov	DWORD PTR [eax+ecx], edx

; 791  : 			mat[0][3] = 0;

	mov	eax, 16					; 00000010H
	imul	ecx, eax, 0
	add	ecx, DWORD PTR _this$[ebp]
	call	??BVector4D@@QAEPAMXZ			; Vector4D::operator float *
	mov	ecx, 4
	imul	edx, ecx, 3
	xorps	xmm0, xmm0
	movss	DWORD PTR [eax+edx], xmm0

; 792  : 			mat[1][3] = 0;

	mov	ecx, 16					; 00000010H
	shl	ecx, 0
	add	ecx, DWORD PTR _this$[ebp]
	call	??BVector4D@@QAEPAMXZ			; Vector4D::operator float *
	mov	ecx, 4
	imul	edx, ecx, 3
	xorps	xmm0, xmm0
	movss	DWORD PTR [eax+edx], xmm0

; 793  : 			mat[2][3] = 0;

	mov	ecx, 16					; 00000010H
	shl	ecx, 1
	add	ecx, DWORD PTR _this$[ebp]
	call	??BVector4D@@QAEPAMXZ			; Vector4D::operator float *
	mov	ecx, 4
	imul	edx, ecx, 3
	xorps	xmm0, xmm0
	movss	DWORD PTR [eax+edx], xmm0

; 794  : 			mat[3][3] = 1;

	mov	eax, 16					; 00000010H
	imul	ecx, eax, 3
	add	ecx, DWORD PTR _this$[ebp]
	call	??BVector4D@@QAEPAMXZ			; Vector4D::operator float *
	mov	ecx, 4
	imul	edx, ecx, 3
	movss	xmm0, DWORD PTR __real@3f800000
	movss	DWORD PTR [eax+edx], xmm0
$LN7@matrix4x4:

; 795  : 		}
; 796  : 	}

	mov	eax, DWORD PTR _this$[ebp]
	pop	edi
	pop	esi
	pop	ebx
	mov	esp, ebp
	pop	ebp
	ret	12					; 0000000cH
??0matrix4x4@@QAE@ABVVector@@0M@Z ENDP			; matrix4x4::matrix4x4
_TEXT	ENDS
; Function compile flags: /Odtp /ZI
; File d:\!diffusion 2020\source code 2022\client-server\game_shared\matrix.h
;	COMDAT ??Amatrix3x4@@QBEPBMH@Z
_TEXT	SEGMENT
_this$ = -4						; size = 4
_i$ = 8							; size = 4
??Amatrix3x4@@QBEPBMH@Z PROC				; matrix3x4::operator[], COMDAT
; _this$ = ecx

; 498  : 	float const* operator[]( int i ) const { return mat[i]; }

	push	ebp
	mov	ebp, esp
	sub	esp, 68					; 00000044H
	push	ebx
	push	esi
	push	edi
	mov	DWORD PTR _this$[ebp], ecx
	imul	ecx, DWORD PTR _i$[ebp], 12
	add	ecx, DWORD PTR _this$[ebp]
	call	??BVector@@QBEPBMXZ			; Vector::operator float const *
	pop	edi
	pop	esi
	pop	ebx
	mov	esp, ebp
	pop	ebp
	ret	4
??Amatrix3x4@@QBEPBMH@Z ENDP				; matrix3x4::operator[]
_TEXT	ENDS
; Function compile flags: /Odtp /ZI
; File d:\!diffusion 2020\source code 2022\client-server\game_shared\matrix.h
;	COMDAT ??0matrix3x4@@QAE@ABVVector@@0M@Z
_TEXT	SEGMENT
tv880 = -100						; size = 4
tv878 = -100						; size = 4
tv876 = -100						; size = 4
tv874 = -100						; size = 4
tv872 = -100						; size = 4
tv870 = -100						; size = 4
tv868 = -100						; size = 4
tv866 = -100						; size = 4
tv864 = -100						; size = 4
tv862 = -100						; size = 4
tv860 = -100						; size = 4
tv858 = -100						; size = 4
tv856 = -100						; size = 4
tv854 = -100						; size = 4
tv852 = -100						; size = 4
tv850 = -100						; size = 4
tv848 = -100						; size = 4
tv846 = -100						; size = 4
tv844 = -100						; size = 4
tv842 = -100						; size = 4
tv840 = -100						; size = 4
_cy$ = -32						; size = 4
_cp$ = -28						; size = 4
_cr$ = -24						; size = 4
_sy$ = -20						; size = 4
_sp$ = -16						; size = 4
_sr$ = -12						; size = 4
_angle$ = -8						; size = 4
_this$ = -4						; size = 4
_origin$ = 8						; size = 4
_angles$ = 12						; size = 4
_scale$ = 16						; size = 4
??0matrix3x4@@QAE@ABVVector@@0M@Z PROC			; matrix3x4::matrix3x4, COMDAT
; _this$ = ecx

; 354  : 	_forceinline matrix3x4( const Vector &origin, const Vector &angles, float scale = 1.0f )

	push	ebp
	mov	ebp, esp
	sub	esp, 100				; 00000064H
	push	ebx
	push	esi
	push	edi
	mov	DWORD PTR _this$[ebp], ecx

; 355  : 	{

	push	OFFSET ??0Vector@@QAE@XZ		; Vector::Vector
	push	4
	push	12					; 0000000cH
	mov	eax, DWORD PTR _this$[ebp]
	push	eax
	call	??_H@YGXPAXIIP6EPAX0@Z@Z

; 356  : 		float	angle, sr, sp, sy, cr, cp, cy;
; 357  : 
; 358  : 		if( angles[ROLL] )

	mov	ecx, DWORD PTR _angles$[ebp]
	call	??BVector@@QBEPBMXZ			; Vector::operator float const *
	mov	ecx, 4
	shl	ecx, 1
	movss	xmm0, DWORD PTR [eax+ecx]
	ucomiss	xmm0, DWORD PTR __real@00000000
	lahf
	test	ah, 68					; 00000044H
	jnp	$LN2@matrix3x4

; 359  : 		{
; 360  : 			angle = angles[YAW] * (M_PI*2 / 360);

	mov	ecx, DWORD PTR _angles$[ebp]
	call	??BVector@@QBEPBMXZ			; Vector::operator float const *
	mov	ecx, 4
	shl	ecx, 0
	cvtss2sd xmm0, DWORD PTR [eax+ecx]
	mulsd	xmm0, QWORD PTR __real@3f91df46a2529d39
	cvtsd2ss xmm0, xmm0
	movss	DWORD PTR _angle$[ebp], xmm0

; 361  : 			SinCos( angle, &sy, &cy );

	lea	eax, DWORD PTR _cy$[ebp]
	push	eax
	lea	ecx, DWORD PTR _sy$[ebp]
	push	ecx
	push	ecx
	movss	xmm0, DWORD PTR _angle$[ebp]
	movss	DWORD PTR [esp], xmm0
	call	?SinCos@@YAXMPAM0@Z			; SinCos
	add	esp, 12					; 0000000cH

; 362  : 			angle = angles[PITCH] * (M_PI*2 / 360);

	mov	ecx, DWORD PTR _angles$[ebp]
	call	??BVector@@QBEPBMXZ			; Vector::operator float const *
	mov	ecx, 4
	imul	edx, ecx, 0
	cvtss2sd xmm0, DWORD PTR [eax+edx]
	mulsd	xmm0, QWORD PTR __real@3f91df46a2529d39
	cvtsd2ss xmm0, xmm0
	movss	DWORD PTR _angle$[ebp], xmm0

; 363  : 			SinCos( angle, &sp, &cp );

	lea	eax, DWORD PTR _cp$[ebp]
	push	eax
	lea	ecx, DWORD PTR _sp$[ebp]
	push	ecx
	push	ecx
	movss	xmm0, DWORD PTR _angle$[ebp]
	movss	DWORD PTR [esp], xmm0
	call	?SinCos@@YAXMPAM0@Z			; SinCos
	add	esp, 12					; 0000000cH

; 364  : 			angle = angles[ROLL] * (M_PI*2 / 360);

	mov	ecx, DWORD PTR _angles$[ebp]
	call	??BVector@@QBEPBMXZ			; Vector::operator float const *
	mov	ecx, 4
	shl	ecx, 1
	cvtss2sd xmm0, DWORD PTR [eax+ecx]
	mulsd	xmm0, QWORD PTR __real@3f91df46a2529d39
	cvtsd2ss xmm0, xmm0
	movss	DWORD PTR _angle$[ebp], xmm0

; 365  : 			SinCos( angle, &sr, &cr );

	lea	eax, DWORD PTR _cr$[ebp]
	push	eax
	lea	ecx, DWORD PTR _sr$[ebp]
	push	ecx
	push	ecx
	movss	xmm0, DWORD PTR _angle$[ebp]
	movss	DWORD PTR [esp], xmm0
	call	?SinCos@@YAXMPAM0@Z			; SinCos
	add	esp, 12					; 0000000cH

; 366  : 
; 367  : 			mat[0][0] = (cp*cy) * scale;

	movss	xmm0, DWORD PTR _cp$[ebp]
	mulss	xmm0, DWORD PTR _cy$[ebp]
	mulss	xmm0, DWORD PTR _scale$[ebp]
	mov	eax, 12					; 0000000cH
	imul	ecx, eax, 0
	add	ecx, DWORD PTR _this$[ebp]
	movss	DWORD PTR tv840[ebp], xmm0
	call	??BVector@@QAEPAMXZ			; Vector::operator float *
	mov	ecx, 4
	imul	edx, ecx, 0
	movss	xmm0, DWORD PTR tv840[ebp]
	movss	DWORD PTR [eax+edx], xmm0

; 368  : 			mat[1][0] = (sr*sp*cy+cr*-sy) * scale;

	movss	xmm0, DWORD PTR _sr$[ebp]
	mulss	xmm0, DWORD PTR _sp$[ebp]
	mulss	xmm0, DWORD PTR _cy$[ebp]
	movss	xmm1, DWORD PTR _sy$[ebp]
	xorps	xmm1, DWORD PTR __xmm@80000000800000008000000080000000
	mulss	xmm1, DWORD PTR _cr$[ebp]
	addss	xmm0, xmm1
	mulss	xmm0, DWORD PTR _scale$[ebp]
	mov	ecx, 12					; 0000000cH
	shl	ecx, 0
	add	ecx, DWORD PTR _this$[ebp]
	movss	DWORD PTR tv842[ebp], xmm0
	call	??BVector@@QAEPAMXZ			; Vector::operator float *
	mov	ecx, 4
	imul	edx, ecx, 0
	movss	xmm0, DWORD PTR tv842[ebp]
	movss	DWORD PTR [eax+edx], xmm0

; 369  : 			mat[2][0] = (cr*sp*cy+-sr*-sy) * scale;

	movss	xmm0, DWORD PTR _cr$[ebp]
	mulss	xmm0, DWORD PTR _sp$[ebp]
	mulss	xmm0, DWORD PTR _cy$[ebp]
	movss	xmm1, DWORD PTR _sr$[ebp]
	xorps	xmm1, DWORD PTR __xmm@80000000800000008000000080000000
	movss	xmm2, DWORD PTR _sy$[ebp]
	xorps	xmm2, DWORD PTR __xmm@80000000800000008000000080000000
	mulss	xmm1, xmm2
	addss	xmm0, xmm1
	mulss	xmm0, DWORD PTR _scale$[ebp]
	mov	ecx, 12					; 0000000cH
	shl	ecx, 1
	add	ecx, DWORD PTR _this$[ebp]
	movss	DWORD PTR tv844[ebp], xmm0
	call	??BVector@@QAEPAMXZ			; Vector::operator float *
	mov	ecx, 4
	imul	edx, ecx, 0
	movss	xmm0, DWORD PTR tv844[ebp]
	movss	DWORD PTR [eax+edx], xmm0

; 370  : 			mat[3][0] = origin.x;

	mov	eax, 12					; 0000000cH
	imul	ecx, eax, 3
	add	ecx, DWORD PTR _this$[ebp]
	call	??BVector@@QAEPAMXZ			; Vector::operator float *
	mov	ecx, 4
	imul	edx, ecx, 0
	mov	ecx, DWORD PTR _origin$[ebp]
	mov	ecx, DWORD PTR [ecx]
	mov	DWORD PTR [eax+edx], ecx

; 371  : 			mat[0][1] = (cp*sy) * scale;

	movss	xmm0, DWORD PTR _cp$[ebp]
	mulss	xmm0, DWORD PTR _sy$[ebp]
	mulss	xmm0, DWORD PTR _scale$[ebp]
	mov	eax, 12					; 0000000cH
	imul	ecx, eax, 0
	add	ecx, DWORD PTR _this$[ebp]
	movss	DWORD PTR tv846[ebp], xmm0
	call	??BVector@@QAEPAMXZ			; Vector::operator float *
	mov	ecx, 4
	shl	ecx, 0
	movss	xmm0, DWORD PTR tv846[ebp]
	movss	DWORD PTR [eax+ecx], xmm0

; 372  : 			mat[1][1] = (sr*sp*sy+cr*cy) * scale;

	movss	xmm0, DWORD PTR _sr$[ebp]
	mulss	xmm0, DWORD PTR _sp$[ebp]
	mulss	xmm0, DWORD PTR _sy$[ebp]
	movss	xmm1, DWORD PTR _cr$[ebp]
	mulss	xmm1, DWORD PTR _cy$[ebp]
	addss	xmm0, xmm1
	mulss	xmm0, DWORD PTR _scale$[ebp]
	mov	ecx, 12					; 0000000cH
	shl	ecx, 0
	add	ecx, DWORD PTR _this$[ebp]
	movss	DWORD PTR tv848[ebp], xmm0
	call	??BVector@@QAEPAMXZ			; Vector::operator float *
	mov	ecx, 4
	shl	ecx, 0
	movss	xmm0, DWORD PTR tv848[ebp]
	movss	DWORD PTR [eax+ecx], xmm0

; 373  : 			mat[2][1] = (cr*sp*sy+-sr*cy) * scale;

	movss	xmm0, DWORD PTR _cr$[ebp]
	mulss	xmm0, DWORD PTR _sp$[ebp]
	mulss	xmm0, DWORD PTR _sy$[ebp]
	movss	xmm1, DWORD PTR _sr$[ebp]
	xorps	xmm1, DWORD PTR __xmm@80000000800000008000000080000000
	mulss	xmm1, DWORD PTR _cy$[ebp]
	addss	xmm0, xmm1
	mulss	xmm0, DWORD PTR _scale$[ebp]
	mov	ecx, 12					; 0000000cH
	shl	ecx, 1
	add	ecx, DWORD PTR _this$[ebp]
	movss	DWORD PTR tv850[ebp], xmm0
	call	??BVector@@QAEPAMXZ			; Vector::operator float *
	mov	ecx, 4
	shl	ecx, 0
	movss	xmm0, DWORD PTR tv850[ebp]
	movss	DWORD PTR [eax+ecx], xmm0

; 374  : 			mat[3][1] = origin.y;

	mov	eax, 12					; 0000000cH
	imul	ecx, eax, 3
	add	ecx, DWORD PTR _this$[ebp]
	call	??BVector@@QAEPAMXZ			; Vector::operator float *
	mov	ecx, 4
	shl	ecx, 0
	mov	edx, DWORD PTR _origin$[ebp]
	mov	edx, DWORD PTR [edx+4]
	mov	DWORD PTR [eax+ecx], edx

; 375  : 			mat[0][2] = (-sp) * scale;

	movss	xmm0, DWORD PTR _sp$[ebp]
	xorps	xmm0, DWORD PTR __xmm@80000000800000008000000080000000
	mulss	xmm0, DWORD PTR _scale$[ebp]
	mov	eax, 12					; 0000000cH
	imul	ecx, eax, 0
	add	ecx, DWORD PTR _this$[ebp]
	movss	DWORD PTR tv852[ebp], xmm0
	call	??BVector@@QAEPAMXZ			; Vector::operator float *
	mov	ecx, 4
	shl	ecx, 1
	movss	xmm0, DWORD PTR tv852[ebp]
	movss	DWORD PTR [eax+ecx], xmm0

; 376  : 			mat[1][2] = (sr*cp) * scale;

	movss	xmm0, DWORD PTR _sr$[ebp]
	mulss	xmm0, DWORD PTR _cp$[ebp]
	mulss	xmm0, DWORD PTR _scale$[ebp]
	mov	ecx, 12					; 0000000cH
	shl	ecx, 0
	add	ecx, DWORD PTR _this$[ebp]
	movss	DWORD PTR tv854[ebp], xmm0
	call	??BVector@@QAEPAMXZ			; Vector::operator float *
	mov	ecx, 4
	shl	ecx, 1
	movss	xmm0, DWORD PTR tv854[ebp]
	movss	DWORD PTR [eax+ecx], xmm0

; 377  : 			mat[2][2] = (cr*cp) * scale;

	movss	xmm0, DWORD PTR _cr$[ebp]
	mulss	xmm0, DWORD PTR _cp$[ebp]
	mulss	xmm0, DWORD PTR _scale$[ebp]
	mov	ecx, 12					; 0000000cH
	shl	ecx, 1
	add	ecx, DWORD PTR _this$[ebp]
	movss	DWORD PTR tv856[ebp], xmm0
	call	??BVector@@QAEPAMXZ			; Vector::operator float *
	mov	ecx, 4
	shl	ecx, 1
	movss	xmm0, DWORD PTR tv856[ebp]
	movss	DWORD PTR [eax+ecx], xmm0

; 378  : 			mat[3][2] = origin.z;

	mov	eax, 12					; 0000000cH
	imul	ecx, eax, 3
	add	ecx, DWORD PTR _this$[ebp]
	call	??BVector@@QAEPAMXZ			; Vector::operator float *
	mov	ecx, 4
	shl	ecx, 1
	mov	edx, DWORD PTR _origin$[ebp]
	mov	edx, DWORD PTR [edx+8]
	mov	DWORD PTR [eax+ecx], edx
	jmp	$LN7@matrix3x4
$LN2@matrix3x4:

; 379  : 		}
; 380  : 		else if( angles[PITCH] )

	mov	ecx, DWORD PTR _angles$[ebp]
	call	??BVector@@QBEPBMXZ			; Vector::operator float const *
	mov	ecx, 4
	imul	edx, ecx, 0
	movss	xmm0, DWORD PTR [eax+edx]
	ucomiss	xmm0, DWORD PTR __real@00000000
	lahf
	test	ah, 68					; 00000044H
	jnp	$LN4@matrix3x4

; 381  : 		{
; 382  : 			angle = angles[YAW] * (M_PI*2 / 360);

	mov	ecx, DWORD PTR _angles$[ebp]
	call	??BVector@@QBEPBMXZ			; Vector::operator float const *
	mov	ecx, 4
	shl	ecx, 0
	cvtss2sd xmm0, DWORD PTR [eax+ecx]
	mulsd	xmm0, QWORD PTR __real@3f91df46a2529d39
	cvtsd2ss xmm0, xmm0
	movss	DWORD PTR _angle$[ebp], xmm0

; 383  : 			SinCos( angle, &sy, &cy );

	lea	eax, DWORD PTR _cy$[ebp]
	push	eax
	lea	ecx, DWORD PTR _sy$[ebp]
	push	ecx
	push	ecx
	movss	xmm0, DWORD PTR _angle$[ebp]
	movss	DWORD PTR [esp], xmm0
	call	?SinCos@@YAXMPAM0@Z			; SinCos
	add	esp, 12					; 0000000cH

; 384  : 			angle = angles[PITCH] * (M_PI*2 / 360);

	mov	ecx, DWORD PTR _angles$[ebp]
	call	??BVector@@QBEPBMXZ			; Vector::operator float const *
	mov	ecx, 4
	imul	edx, ecx, 0
	cvtss2sd xmm0, DWORD PTR [eax+edx]
	mulsd	xmm0, QWORD PTR __real@3f91df46a2529d39
	cvtsd2ss xmm0, xmm0
	movss	DWORD PTR _angle$[ebp], xmm0

; 385  : 			SinCos( angle, &sp, &cp );

	lea	eax, DWORD PTR _cp$[ebp]
	push	eax
	lea	ecx, DWORD PTR _sp$[ebp]
	push	ecx
	push	ecx
	movss	xmm0, DWORD PTR _angle$[ebp]
	movss	DWORD PTR [esp], xmm0
	call	?SinCos@@YAXMPAM0@Z			; SinCos
	add	esp, 12					; 0000000cH

; 386  : 
; 387  : 			mat[0][0] = (cp*cy) * scale;

	movss	xmm0, DWORD PTR _cp$[ebp]
	mulss	xmm0, DWORD PTR _cy$[ebp]
	mulss	xmm0, DWORD PTR _scale$[ebp]
	mov	eax, 12					; 0000000cH
	imul	ecx, eax, 0
	add	ecx, DWORD PTR _this$[ebp]
	movss	DWORD PTR tv858[ebp], xmm0
	call	??BVector@@QAEPAMXZ			; Vector::operator float *
	mov	ecx, 4
	imul	edx, ecx, 0
	movss	xmm0, DWORD PTR tv858[ebp]
	movss	DWORD PTR [eax+edx], xmm0

; 388  : 			mat[1][0] = (-sy) * scale;

	movss	xmm0, DWORD PTR _sy$[ebp]
	xorps	xmm0, DWORD PTR __xmm@80000000800000008000000080000000
	mulss	xmm0, DWORD PTR _scale$[ebp]
	mov	ecx, 12					; 0000000cH
	shl	ecx, 0
	add	ecx, DWORD PTR _this$[ebp]
	movss	DWORD PTR tv860[ebp], xmm0
	call	??BVector@@QAEPAMXZ			; Vector::operator float *
	mov	ecx, 4
	imul	edx, ecx, 0
	movss	xmm0, DWORD PTR tv860[ebp]
	movss	DWORD PTR [eax+edx], xmm0

; 389  : 			mat[2][0] = (sp*cy) * scale;

	movss	xmm0, DWORD PTR _sp$[ebp]
	mulss	xmm0, DWORD PTR _cy$[ebp]
	mulss	xmm0, DWORD PTR _scale$[ebp]
	mov	ecx, 12					; 0000000cH
	shl	ecx, 1
	add	ecx, DWORD PTR _this$[ebp]
	movss	DWORD PTR tv862[ebp], xmm0
	call	??BVector@@QAEPAMXZ			; Vector::operator float *
	mov	ecx, 4
	imul	edx, ecx, 0
	movss	xmm0, DWORD PTR tv862[ebp]
	movss	DWORD PTR [eax+edx], xmm0

; 390  : 			mat[3][0] = origin.x;

	mov	eax, 12					; 0000000cH
	imul	ecx, eax, 3
	add	ecx, DWORD PTR _this$[ebp]
	call	??BVector@@QAEPAMXZ			; Vector::operator float *
	mov	ecx, 4
	imul	edx, ecx, 0
	mov	ecx, DWORD PTR _origin$[ebp]
	mov	ecx, DWORD PTR [ecx]
	mov	DWORD PTR [eax+edx], ecx

; 391  : 			mat[0][1] = (cp*sy) * scale;

	movss	xmm0, DWORD PTR _cp$[ebp]
	mulss	xmm0, DWORD PTR _sy$[ebp]
	mulss	xmm0, DWORD PTR _scale$[ebp]
	mov	eax, 12					; 0000000cH
	imul	ecx, eax, 0
	add	ecx, DWORD PTR _this$[ebp]
	movss	DWORD PTR tv864[ebp], xmm0
	call	??BVector@@QAEPAMXZ			; Vector::operator float *
	mov	ecx, 4
	shl	ecx, 0
	movss	xmm0, DWORD PTR tv864[ebp]
	movss	DWORD PTR [eax+ecx], xmm0

; 392  : 			mat[1][1] = (cy) * scale;

	movss	xmm0, DWORD PTR _cy$[ebp]
	mulss	xmm0, DWORD PTR _scale$[ebp]
	mov	ecx, 12					; 0000000cH
	shl	ecx, 0
	add	ecx, DWORD PTR _this$[ebp]
	movss	DWORD PTR tv866[ebp], xmm0
	call	??BVector@@QAEPAMXZ			; Vector::operator float *
	mov	ecx, 4
	shl	ecx, 0
	movss	xmm0, DWORD PTR tv866[ebp]
	movss	DWORD PTR [eax+ecx], xmm0

; 393  : 			mat[2][1] = (sp*sy) * scale;

	movss	xmm0, DWORD PTR _sp$[ebp]
	mulss	xmm0, DWORD PTR _sy$[ebp]
	mulss	xmm0, DWORD PTR _scale$[ebp]
	mov	ecx, 12					; 0000000cH
	shl	ecx, 1
	add	ecx, DWORD PTR _this$[ebp]
	movss	DWORD PTR tv868[ebp], xmm0
	call	??BVector@@QAEPAMXZ			; Vector::operator float *
	mov	ecx, 4
	shl	ecx, 0
	movss	xmm0, DWORD PTR tv868[ebp]
	movss	DWORD PTR [eax+ecx], xmm0

; 394  : 			mat[3][1] = origin.y;

	mov	eax, 12					; 0000000cH
	imul	ecx, eax, 3
	add	ecx, DWORD PTR _this$[ebp]
	call	??BVector@@QAEPAMXZ			; Vector::operator float *
	mov	ecx, 4
	shl	ecx, 0
	mov	edx, DWORD PTR _origin$[ebp]
	mov	edx, DWORD PTR [edx+4]
	mov	DWORD PTR [eax+ecx], edx

; 395  : 			mat[0][2] = (-sp) * scale;

	movss	xmm0, DWORD PTR _sp$[ebp]
	xorps	xmm0, DWORD PTR __xmm@80000000800000008000000080000000
	mulss	xmm0, DWORD PTR _scale$[ebp]
	mov	eax, 12					; 0000000cH
	imul	ecx, eax, 0
	add	ecx, DWORD PTR _this$[ebp]
	movss	DWORD PTR tv870[ebp], xmm0
	call	??BVector@@QAEPAMXZ			; Vector::operator float *
	mov	ecx, 4
	shl	ecx, 1
	movss	xmm0, DWORD PTR tv870[ebp]
	movss	DWORD PTR [eax+ecx], xmm0

; 396  : 			mat[1][2] = 0;

	mov	ecx, 12					; 0000000cH
	shl	ecx, 0
	add	ecx, DWORD PTR _this$[ebp]
	call	??BVector@@QAEPAMXZ			; Vector::operator float *
	mov	ecx, 4
	shl	ecx, 1
	xorps	xmm0, xmm0
	movss	DWORD PTR [eax+ecx], xmm0

; 397  : 			mat[2][2] = (cp) * scale;

	movss	xmm0, DWORD PTR _cp$[ebp]
	mulss	xmm0, DWORD PTR _scale$[ebp]
	mov	ecx, 12					; 0000000cH
	shl	ecx, 1
	add	ecx, DWORD PTR _this$[ebp]
	movss	DWORD PTR tv872[ebp], xmm0
	call	??BVector@@QAEPAMXZ			; Vector::operator float *
	mov	ecx, 4
	shl	ecx, 1
	movss	xmm0, DWORD PTR tv872[ebp]
	movss	DWORD PTR [eax+ecx], xmm0

; 398  : 			mat[3][2] = origin.z;

	mov	eax, 12					; 0000000cH
	imul	ecx, eax, 3
	add	ecx, DWORD PTR _this$[ebp]
	call	??BVector@@QAEPAMXZ			; Vector::operator float *
	mov	ecx, 4
	shl	ecx, 1
	mov	edx, DWORD PTR _origin$[ebp]
	mov	edx, DWORD PTR [edx+8]
	mov	DWORD PTR [eax+ecx], edx
	jmp	$LN7@matrix3x4
$LN4@matrix3x4:

; 399  : 		}
; 400  : 		else if( angles[YAW] )

	mov	ecx, DWORD PTR _angles$[ebp]
	call	??BVector@@QBEPBMXZ			; Vector::operator float const *
	mov	ecx, 4
	shl	ecx, 0
	movss	xmm0, DWORD PTR [eax+ecx]
	ucomiss	xmm0, DWORD PTR __real@00000000
	lahf
	test	ah, 68					; 00000044H
	jnp	$LN6@matrix3x4

; 401  : 		{
; 402  : 			angle = angles[YAW] * (M_PI*2 / 360);

	mov	ecx, DWORD PTR _angles$[ebp]
	call	??BVector@@QBEPBMXZ			; Vector::operator float const *
	mov	ecx, 4
	shl	ecx, 0
	cvtss2sd xmm0, DWORD PTR [eax+ecx]
	mulsd	xmm0, QWORD PTR __real@3f91df46a2529d39
	cvtsd2ss xmm0, xmm0
	movss	DWORD PTR _angle$[ebp], xmm0

; 403  : 			SinCos( angle, &sy, &cy );

	lea	eax, DWORD PTR _cy$[ebp]
	push	eax
	lea	ecx, DWORD PTR _sy$[ebp]
	push	ecx
	push	ecx
	movss	xmm0, DWORD PTR _angle$[ebp]
	movss	DWORD PTR [esp], xmm0
	call	?SinCos@@YAXMPAM0@Z			; SinCos
	add	esp, 12					; 0000000cH

; 404  : 
; 405  : 			mat[0][0] = (cy) * scale;

	movss	xmm0, DWORD PTR _cy$[ebp]
	mulss	xmm0, DWORD PTR _scale$[ebp]
	mov	eax, 12					; 0000000cH
	imul	ecx, eax, 0
	add	ecx, DWORD PTR _this$[ebp]
	movss	DWORD PTR tv874[ebp], xmm0
	call	??BVector@@QAEPAMXZ			; Vector::operator float *
	mov	ecx, 4
	imul	edx, ecx, 0
	movss	xmm0, DWORD PTR tv874[ebp]
	movss	DWORD PTR [eax+edx], xmm0

; 406  : 			mat[1][0] = (-sy) * scale;

	movss	xmm0, DWORD PTR _sy$[ebp]
	xorps	xmm0, DWORD PTR __xmm@80000000800000008000000080000000
	mulss	xmm0, DWORD PTR _scale$[ebp]
	mov	ecx, 12					; 0000000cH
	shl	ecx, 0
	add	ecx, DWORD PTR _this$[ebp]
	movss	DWORD PTR tv876[ebp], xmm0
	call	??BVector@@QAEPAMXZ			; Vector::operator float *
	mov	ecx, 4
	imul	edx, ecx, 0
	movss	xmm0, DWORD PTR tv876[ebp]
	movss	DWORD PTR [eax+edx], xmm0

; 407  : 			mat[2][0] = 0;

	mov	ecx, 12					; 0000000cH
	shl	ecx, 1
	add	ecx, DWORD PTR _this$[ebp]
	call	??BVector@@QAEPAMXZ			; Vector::operator float *
	mov	ecx, 4
	imul	edx, ecx, 0
	xorps	xmm0, xmm0
	movss	DWORD PTR [eax+edx], xmm0

; 408  : 			mat[3][0] = origin.x;

	mov	eax, 12					; 0000000cH
	imul	ecx, eax, 3
	add	ecx, DWORD PTR _this$[ebp]
	call	??BVector@@QAEPAMXZ			; Vector::operator float *
	mov	ecx, 4
	imul	edx, ecx, 0
	mov	ecx, DWORD PTR _origin$[ebp]
	mov	ecx, DWORD PTR [ecx]
	mov	DWORD PTR [eax+edx], ecx

; 409  : 			mat[0][1] = (sy) * scale;

	movss	xmm0, DWORD PTR _sy$[ebp]
	mulss	xmm0, DWORD PTR _scale$[ebp]
	mov	eax, 12					; 0000000cH
	imul	ecx, eax, 0
	add	ecx, DWORD PTR _this$[ebp]
	movss	DWORD PTR tv878[ebp], xmm0
	call	??BVector@@QAEPAMXZ			; Vector::operator float *
	mov	ecx, 4
	shl	ecx, 0
	movss	xmm0, DWORD PTR tv878[ebp]
	movss	DWORD PTR [eax+ecx], xmm0

; 410  : 			mat[1][1] = (cy) * scale;

	movss	xmm0, DWORD PTR _cy$[ebp]
	mulss	xmm0, DWORD PTR _scale$[ebp]
	mov	ecx, 12					; 0000000cH
	shl	ecx, 0
	add	ecx, DWORD PTR _this$[ebp]
	movss	DWORD PTR tv880[ebp], xmm0
	call	??BVector@@QAEPAMXZ			; Vector::operator float *
	mov	ecx, 4
	shl	ecx, 0
	movss	xmm0, DWORD PTR tv880[ebp]
	movss	DWORD PTR [eax+ecx], xmm0

; 411  : 			mat[2][1] = 0;

	mov	ecx, 12					; 0000000cH
	shl	ecx, 1
	add	ecx, DWORD PTR _this$[ebp]
	call	??BVector@@QAEPAMXZ			; Vector::operator float *
	mov	ecx, 4
	shl	ecx, 0
	xorps	xmm0, xmm0
	movss	DWORD PTR [eax+ecx], xmm0

; 412  : 			mat[3][1] = origin.y;

	mov	eax, 12					; 0000000cH
	imul	ecx, eax, 3
	add	ecx, DWORD PTR _this$[ebp]
	call	??BVector@@QAEPAMXZ			; Vector::operator float *
	mov	ecx, 4
	shl	ecx, 0
	mov	edx, DWORD PTR _origin$[ebp]
	mov	edx, DWORD PTR [edx+4]
	mov	DWORD PTR [eax+ecx], edx

; 413  : 			mat[0][2] = 0;

	mov	eax, 12					; 0000000cH
	imul	ecx, eax, 0
	add	ecx, DWORD PTR _this$[ebp]
	call	??BVector@@QAEPAMXZ			; Vector::operator float *
	mov	ecx, 4
	shl	ecx, 1
	xorps	xmm0, xmm0
	movss	DWORD PTR [eax+ecx], xmm0

; 414  : 			mat[1][2] = 0;

	mov	ecx, 12					; 0000000cH
	shl	ecx, 0
	add	ecx, DWORD PTR _this$[ebp]
	call	??BVector@@QAEPAMXZ			; Vector::operator float *
	mov	ecx, 4
	shl	ecx, 1
	xorps	xmm0, xmm0
	movss	DWORD PTR [eax+ecx], xmm0

; 415  : 			mat[2][2] = scale;

	mov	ecx, 12					; 0000000cH
	shl	ecx, 1
	add	ecx, DWORD PTR _this$[ebp]
	call	??BVector@@QAEPAMXZ			; Vector::operator float *
	mov	ecx, 4
	shl	ecx, 1
	movss	xmm0, DWORD PTR _scale$[ebp]
	movss	DWORD PTR [eax+ecx], xmm0

; 416  : 			mat[3][2] = origin.z;

	mov	eax, 12					; 0000000cH
	imul	ecx, eax, 3
	add	ecx, DWORD PTR _this$[ebp]
	call	??BVector@@QAEPAMXZ			; Vector::operator float *
	mov	ecx, 4
	shl	ecx, 1
	mov	edx, DWORD PTR _origin$[ebp]
	mov	edx, DWORD PTR [edx+8]
	mov	DWORD PTR [eax+ecx], edx

; 417  : 		}
; 418  : 		else

	jmp	$LN7@matrix3x4
$LN6@matrix3x4:

; 419  : 		{
; 420  : 			mat[0][0] = scale;

	mov	eax, 12					; 0000000cH
	imul	ecx, eax, 0
	add	ecx, DWORD PTR _this$[ebp]
	call	??BVector@@QAEPAMXZ			; Vector::operator float *
	mov	ecx, 4
	imul	edx, ecx, 0
	movss	xmm0, DWORD PTR _scale$[ebp]
	movss	DWORD PTR [eax+edx], xmm0

; 421  : 			mat[1][0] = 0;

	mov	ecx, 12					; 0000000cH
	shl	ecx, 0
	add	ecx, DWORD PTR _this$[ebp]
	call	??BVector@@QAEPAMXZ			; Vector::operator float *
	mov	ecx, 4
	imul	edx, ecx, 0
	xorps	xmm0, xmm0
	movss	DWORD PTR [eax+edx], xmm0

; 422  : 			mat[2][0] = 0;

	mov	ecx, 12					; 0000000cH
	shl	ecx, 1
	add	ecx, DWORD PTR _this$[ebp]
	call	??BVector@@QAEPAMXZ			; Vector::operator float *
	mov	ecx, 4
	imul	edx, ecx, 0
	xorps	xmm0, xmm0
	movss	DWORD PTR [eax+edx], xmm0

; 423  : 			mat[3][0] = origin.x;

	mov	eax, 12					; 0000000cH
	imul	ecx, eax, 3
	add	ecx, DWORD PTR _this$[ebp]
	call	??BVector@@QAEPAMXZ			; Vector::operator float *
	mov	ecx, 4
	imul	edx, ecx, 0
	mov	ecx, DWORD PTR _origin$[ebp]
	mov	ecx, DWORD PTR [ecx]
	mov	DWORD PTR [eax+edx], ecx

; 424  : 			mat[0][1] = 0;

	mov	eax, 12					; 0000000cH
	imul	ecx, eax, 0
	add	ecx, DWORD PTR _this$[ebp]
	call	??BVector@@QAEPAMXZ			; Vector::operator float *
	mov	ecx, 4
	shl	ecx, 0
	xorps	xmm0, xmm0
	movss	DWORD PTR [eax+ecx], xmm0

; 425  : 			mat[1][1] = scale;

	mov	ecx, 12					; 0000000cH
	shl	ecx, 0
	add	ecx, DWORD PTR _this$[ebp]
	call	??BVector@@QAEPAMXZ			; Vector::operator float *
	mov	ecx, 4
	shl	ecx, 0
	movss	xmm0, DWORD PTR _scale$[ebp]
	movss	DWORD PTR [eax+ecx], xmm0

; 426  : 			mat[2][1] = 0;

	mov	ecx, 12					; 0000000cH
	shl	ecx, 1
	add	ecx, DWORD PTR _this$[ebp]
	call	??BVector@@QAEPAMXZ			; Vector::operator float *
	mov	ecx, 4
	shl	ecx, 0
	xorps	xmm0, xmm0
	movss	DWORD PTR [eax+ecx], xmm0

; 427  : 			mat[3][1] = origin.y;

	mov	eax, 12					; 0000000cH
	imul	ecx, eax, 3
	add	ecx, DWORD PTR _this$[ebp]
	call	??BVector@@QAEPAMXZ			; Vector::operator float *
	mov	ecx, 4
	shl	ecx, 0
	mov	edx, DWORD PTR _origin$[ebp]
	mov	edx, DWORD PTR [edx+4]
	mov	DWORD PTR [eax+ecx], edx

; 428  : 			mat[0][2] = 0;

	mov	eax, 12					; 0000000cH
	imul	ecx, eax, 0
	add	ecx, DWORD PTR _this$[ebp]
	call	??BVector@@QAEPAMXZ			; Vector::operator float *
	mov	ecx, 4
	shl	ecx, 1
	xorps	xmm0, xmm0
	movss	DWORD PTR [eax+ecx], xmm0

; 429  : 			mat[1][2] = 0;

	mov	ecx, 12					; 0000000cH
	shl	ecx, 0
	add	ecx, DWORD PTR _this$[ebp]
	call	??BVector@@QAEPAMXZ			; Vector::operator float *
	mov	ecx, 4
	shl	ecx, 1
	xorps	xmm0, xmm0
	movss	DWORD PTR [eax+ecx], xmm0

; 430  : 			mat[2][2] = scale;

	mov	ecx, 12					; 0000000cH
	shl	ecx, 1
	add	ecx, DWORD PTR _this$[ebp]
	call	??BVector@@QAEPAMXZ			; Vector::operator float *
	mov	ecx, 4
	shl	ecx, 1
	movss	xmm0, DWORD PTR _scale$[ebp]
	movss	DWORD PTR [eax+ecx], xmm0

; 431  : 			mat[3][2] = origin.z;

	mov	eax, 12					; 0000000cH
	imul	ecx, eax, 3
	add	ecx, DWORD PTR _this$[ebp]
	call	??BVector@@QAEPAMXZ			; Vector::operator float *
	mov	ecx, 4
	shl	ecx, 1
	mov	edx, DWORD PTR _origin$[ebp]
	mov	edx, DWORD PTR [edx+8]
	mov	DWORD PTR [eax+ecx], edx
$LN7@matrix3x4:

; 432  : 		}
; 433  : 	}

	mov	eax, DWORD PTR _this$[ebp]
	pop	edi
	pop	esi
	pop	ebx
	mov	esp, ebp
	pop	ebp
	ret	12					; 0000000cH
??0matrix3x4@@QAE@ABVVector@@0M@Z ENDP			; matrix3x4::matrix3x4
_TEXT	ENDS
; Function compile flags: /Odtp /ZI
; File d:\!diffusion 2020\source code 2022\client-server\game_shared\vector.h
;	COMDAT ??BVector4D@@QBE?BVVector@@XZ
_TEXT	SEGMENT
_this$ = -4						; size = 4
___$ReturnUdt$ = 8					; size = 4
??BVector4D@@QBE?BVVector@@XZ PROC			; Vector4D::operator Vector const , COMDAT
; _this$ = ecx

; 349  : 	operator const Vector() const				{ return Vector( x, y, z ); } 

	push	ebp
	mov	ebp, esp
	sub	esp, 68					; 00000044H
	push	ebx
	push	esi
	push	edi
	mov	DWORD PTR _this$[ebp], ecx
	mov	eax, DWORD PTR _this$[ebp]
	push	ecx
	movss	xmm0, DWORD PTR [eax+8]
	movss	DWORD PTR [esp], xmm0
	mov	ecx, DWORD PTR _this$[ebp]
	push	ecx
	movss	xmm0, DWORD PTR [ecx+4]
	movss	DWORD PTR [esp], xmm0
	mov	edx, DWORD PTR _this$[ebp]
	push	ecx
	movss	xmm0, DWORD PTR [edx]
	movss	DWORD PTR [esp], xmm0
	mov	ecx, DWORD PTR ___$ReturnUdt$[ebp]
	call	??0Vector@@QAE@MMM@Z			; Vector::Vector
	mov	eax, DWORD PTR ___$ReturnUdt$[ebp]
	pop	edi
	pop	esi
	pop	ebx
	mov	esp, ebp
	pop	ebp
	ret	4
??BVector4D@@QBE?BVVector@@XZ ENDP			; Vector4D::operator Vector const 
_TEXT	ENDS
; Function compile flags: /Odtp /ZI
; File d:\!diffusion 2020\source code 2022\client-server\game_shared\vector.h
;	COMDAT ??BVector4D@@QAEPAMXZ
_TEXT	SEGMENT
_this$ = -4						; size = 4
??BVector4D@@QAEPAMXZ PROC				; Vector4D::operator float *, COMDAT
; _this$ = ecx

; 344  : 	operator float *()					{ return &x; }

	push	ebp
	mov	ebp, esp
	sub	esp, 68					; 00000044H
	push	ebx
	push	esi
	push	edi
	mov	DWORD PTR _this$[ebp], ecx
	mov	eax, DWORD PTR _this$[ebp]
	pop	edi
	pop	esi
	pop	ebx
	mov	esp, ebp
	pop	ebp
	ret	0
??BVector4D@@QAEPAMXZ ENDP				; Vector4D::operator float *
_TEXT	ENDS
; Function compile flags: /Odtp /ZI
; File d:\!diffusion 2020\source code 2022\client-server\game_shared\vector.h
;	COMDAT ??0Vector4D@@QAE@ABV0@@Z
_TEXT	SEGMENT
_this$ = -4						; size = 4
_v$ = 8							; size = 4
??0Vector4D@@QAE@ABV0@@Z PROC				; Vector4D::Vector4D, COMDAT
; _this$ = ecx

; 332  : 	inline Vector4D( const Vector4D& v ) { x = v.x; y = v.y; z = v.z, w = v.w; } 

	push	ebp
	mov	ebp, esp
	sub	esp, 68					; 00000044H
	push	ebx
	push	esi
	push	edi
	mov	DWORD PTR _this$[ebp], ecx
	mov	eax, DWORD PTR _this$[ebp]
	mov	ecx, DWORD PTR _v$[ebp]
	mov	edx, DWORD PTR [ecx]
	mov	DWORD PTR [eax], edx
	mov	eax, DWORD PTR _this$[ebp]
	mov	ecx, DWORD PTR _v$[ebp]
	mov	edx, DWORD PTR [ecx+4]
	mov	DWORD PTR [eax+4], edx
	mov	eax, DWORD PTR _this$[ebp]
	mov	ecx, DWORD PTR _v$[ebp]
	mov	edx, DWORD PTR [ecx+8]
	mov	DWORD PTR [eax+8], edx
	mov	eax, DWORD PTR _this$[ebp]
	mov	ecx, DWORD PTR _v$[ebp]
	mov	edx, DWORD PTR [ecx+12]
	mov	DWORD PTR [eax+12], edx
	mov	eax, DWORD PTR _this$[ebp]
	pop	edi
	pop	esi
	pop	ebx
	mov	esp, ebp
	pop	ebp
	ret	4
??0Vector4D@@QAE@ABV0@@Z ENDP				; Vector4D::Vector4D
_TEXT	ENDS
; Function compile flags: /Odtp /ZI
; File d:\!diffusion 2020\source code 2022\client-server\game_shared\vector.h
;	COMDAT ??0Vector4D@@QAE@XZ
_TEXT	SEGMENT
_this$ = -4						; size = 4
??0Vector4D@@QAE@XZ PROC				; Vector4D::Vector4D, COMDAT
; _this$ = ecx

; 330  : 	inline Vector4D( void ) { }

	push	ebp
	mov	ebp, esp
	sub	esp, 68					; 00000044H
	push	ebx
	push	esi
	push	edi
	mov	DWORD PTR _this$[ebp], ecx
	mov	eax, DWORD PTR _this$[ebp]
	pop	edi
	pop	esi
	pop	ebx
	mov	esp, ebp
	pop	ebp
	ret	0
??0Vector4D@@QAE@XZ ENDP				; Vector4D::Vector4D
_TEXT	ENDS
; Function compile flags: /Odtp /ZI
; File d:\!diffusion 2020\source code 2022\client-server\game_shared\vector.h
;	COMDAT ?DotProduct@@YAMABVVector@@0@Z
_TEXT	SEGMENT
tv86 = -68						; size = 4
_a$ = 8							; size = 4
_b$ = 12						; size = 4
?DotProduct@@YAMABVVector@@0@Z PROC			; DotProduct, COMDAT

; 308  : inline float DotProduct(const Vector& a, const Vector& b ) { return( a.x * b.x + a.y * b.y + a.z * b.z ); }

	push	ebp
	mov	ebp, esp
	sub	esp, 68					; 00000044H
	push	ebx
	push	esi
	push	edi
	mov	eax, DWORD PTR _a$[ebp]
	mov	ecx, DWORD PTR _b$[ebp]
	movss	xmm0, DWORD PTR [eax]
	mulss	xmm0, DWORD PTR [ecx]
	mov	edx, DWORD PTR _a$[ebp]
	mov	eax, DWORD PTR _b$[ebp]
	movss	xmm1, DWORD PTR [edx+4]
	mulss	xmm1, DWORD PTR [eax+4]
	addss	xmm0, xmm1
	mov	ecx, DWORD PTR _a$[ebp]
	mov	edx, DWORD PTR _b$[ebp]
	movss	xmm1, DWORD PTR [ecx+8]
	mulss	xmm1, DWORD PTR [edx+8]
	addss	xmm0, xmm1
	movss	DWORD PTR tv86[ebp], xmm0
	fld	DWORD PTR tv86[ebp]
	pop	edi
	pop	esi
	pop	ebx
	mov	esp, ebp
	pop	ebp
	ret	0
?DotProduct@@YAMABVVector@@0@Z ENDP			; DotProduct
_TEXT	ENDS
; Function compile flags: /Odtp /ZI
; File d:\!diffusion 2020\source code 2022\client-server\game_shared\vector.h
;	COMDAT ?Make2D@Vector@@QBE?AVVector2D@@XZ
_TEXT	SEGMENT
_Vec2$ = -12						; size = 8
_this$ = -4						; size = 4
___$ReturnUdt$ = 8					; size = 4
?Make2D@Vector@@QBE?AVVector2D@@XZ PROC			; Vector::Make2D, COMDAT
; _this$ = ecx

; 294  : 	{

	push	ebp
	mov	ebp, esp
	sub	esp, 76					; 0000004cH
	push	ebx
	push	esi
	push	edi
	mov	DWORD PTR _this$[ebp], ecx

; 295  : 		Vector2D	Vec2;

	lea	ecx, DWORD PTR _Vec2$[ebp]
	call	??0Vector2D@@QAE@XZ			; Vector2D::Vector2D

; 296  : 		Vec2.x = x;

	mov	eax, DWORD PTR _this$[ebp]
	movss	xmm0, DWORD PTR [eax]
	movss	DWORD PTR _Vec2$[ebp], xmm0

; 297  : 		Vec2.y = y;

	mov	eax, DWORD PTR _this$[ebp]
	movss	xmm0, DWORD PTR [eax+4]
	movss	DWORD PTR _Vec2$[ebp+4], xmm0

; 298  : 		return Vec2;

	mov	eax, DWORD PTR ___$ReturnUdt$[ebp]
	mov	ecx, DWORD PTR _Vec2$[ebp]
	mov	DWORD PTR [eax], ecx
	mov	edx, DWORD PTR _Vec2$[ebp+4]
	mov	DWORD PTR [eax+4], edx
	mov	eax, DWORD PTR ___$ReturnUdt$[ebp]

; 299  : 	}

	pop	edi
	pop	esi
	pop	ebx
	mov	esp, ebp
	pop	ebp
	ret	4
?Make2D@Vector@@QBE?AVVector2D@@XZ ENDP			; Vector::Make2D
_TEXT	ENDS
; Function compile flags: /Odtp /ZI
; File d:\!diffusion 2020\source code 2022\client-server\game_shared\vector.h
;	COMDAT ?Normalize@Vector@@QBE?AV1@XZ
_TEXT	SEGMENT
_flLen$ = -8						; size = 4
_this$ = -4						; size = 4
___$ReturnUdt$ = 8					; size = 4
?Normalize@Vector@@QBE?AV1@XZ PROC			; Vector::Normalize, COMDAT
; _this$ = ecx

; 251  : 	{

	push	ebp
	mov	ebp, esp
	sub	esp, 72					; 00000048H
	push	ebx
	push	esi
	push	edi
	mov	DWORD PTR _this$[ebp], ecx

; 252  : 		float flLen = Length();

	mov	ecx, DWORD PTR _this$[ebp]
	call	?Length@Vector@@QBEMXZ			; Vector::Length
	fstp	DWORD PTR _flLen$[ebp]

; 253  : 
; 254  : 		if( flLen )

	movss	xmm0, DWORD PTR _flLen$[ebp]
	ucomiss	xmm0, DWORD PTR __real@00000000
	lahf
	test	ah, 68					; 00000044H
	jnp	SHORT $LN2@Normalize

; 255  : 		{
; 256  : 			flLen = 1.0f / flLen;

	movss	xmm0, DWORD PTR __real@3f800000
	divss	xmm0, DWORD PTR _flLen$[ebp]
	movss	DWORD PTR _flLen$[ebp], xmm0

; 257  : 			return Vector( x * flLen, y * flLen, z * flLen );

	mov	eax, DWORD PTR _this$[ebp]
	movss	xmm0, DWORD PTR [eax+8]
	mulss	xmm0, DWORD PTR _flLen$[ebp]
	push	ecx
	movss	DWORD PTR [esp], xmm0
	mov	ecx, DWORD PTR _this$[ebp]
	movss	xmm0, DWORD PTR [ecx+4]
	mulss	xmm0, DWORD PTR _flLen$[ebp]
	push	ecx
	movss	DWORD PTR [esp], xmm0
	mov	edx, DWORD PTR _this$[ebp]
	movss	xmm0, DWORD PTR [edx]
	mulss	xmm0, DWORD PTR _flLen$[ebp]
	push	ecx
	movss	DWORD PTR [esp], xmm0
	mov	ecx, DWORD PTR ___$ReturnUdt$[ebp]
	call	??0Vector@@QAE@MMM@Z			; Vector::Vector
	mov	eax, DWORD PTR ___$ReturnUdt$[ebp]
	jmp	SHORT $LN1@Normalize
$LN2@Normalize:

; 258  : 		}
; 259  : 
; 260  : 		return *this; // can't normalize

	mov	eax, DWORD PTR _this$[ebp]
	push	eax
	mov	ecx, DWORD PTR ___$ReturnUdt$[ebp]
	call	??0Vector@@QAE@ABV0@@Z			; Vector::Vector
	mov	eax, DWORD PTR ___$ReturnUdt$[ebp]
$LN1@Normalize:

; 261  : 	}

	pop	edi
	pop	esi
	pop	ebx
	mov	esp, ebp
	pop	ebp
	ret	4
?Normalize@Vector@@QBE?AV1@XZ ENDP			; Vector::Normalize
_TEXT	ENDS
; Function compile flags: /Odtp /ZI
; File d:\!diffusion 2020\source code 2022\client-server\game_shared\vector.h
;	COMDAT ??BVector@@QBEPBMXZ
_TEXT	SEGMENT
_this$ = -4						; size = 4
??BVector@@QBEPBMXZ PROC				; Vector::operator float const *, COMDAT
; _this$ = ecx

; 248  : 	operator const float *() const		{ return &x; } 

	push	ebp
	mov	ebp, esp
	sub	esp, 68					; 00000044H
	push	ebx
	push	esi
	push	edi
	mov	DWORD PTR _this$[ebp], ecx
	mov	eax, DWORD PTR _this$[ebp]
	pop	edi
	pop	esi
	pop	ebx
	mov	esp, ebp
	pop	ebp
	ret	0
??BVector@@QBEPBMXZ ENDP				; Vector::operator float const *
_TEXT	ENDS
; Function compile flags: /Odtp /ZI
; File d:\!diffusion 2020\source code 2022\client-server\game_shared\vector.h
;	COMDAT ??BVector@@QAEPAMXZ
_TEXT	SEGMENT
_this$ = -4						; size = 4
??BVector@@QAEPAMXZ PROC				; Vector::operator float *, COMDAT
; _this$ = ecx

; 247  : 	operator float *()				{ return &x; } // Vectors will now automatically convert to float * when needed

	push	ebp
	mov	ebp, esp
	sub	esp, 68					; 00000044H
	push	ebx
	push	esi
	push	edi
	mov	DWORD PTR _this$[ebp], ecx
	mov	eax, DWORD PTR _this$[ebp]
	pop	edi
	pop	esi
	pop	ebx
	mov	esp, ebp
	pop	ebp
	ret	0
??BVector@@QAEPAMXZ ENDP				; Vector::operator float *
_TEXT	ENDS
; Function compile flags: /Odtp /ZI
; File d:\!diffusion 2020\source code 2022\client-server\game_shared\vector.h
;	COMDAT ?Length@Vector@@QBEMXZ
_TEXT	SEGMENT
tv91 = -72						; size = 4
_this$ = -4						; size = 4
?Length@Vector@@QBEMXZ PROC				; Vector::Length, COMDAT
; _this$ = ecx

; 245  : 	inline float Length(void) const		{ return sqrt( x*x + y*y + z*z ); }

	push	ebp
	mov	ebp, esp
	sub	esp, 72					; 00000048H
	push	ebx
	push	esi
	push	edi
	mov	DWORD PTR _this$[ebp], ecx
	mov	eax, DWORD PTR _this$[ebp]
	mov	ecx, DWORD PTR _this$[ebp]
	movss	xmm0, DWORD PTR [eax]
	mulss	xmm0, DWORD PTR [ecx]
	mov	edx, DWORD PTR _this$[ebp]
	mov	eax, DWORD PTR _this$[ebp]
	movss	xmm1, DWORD PTR [edx+4]
	mulss	xmm1, DWORD PTR [eax+4]
	addss	xmm0, xmm1
	mov	ecx, DWORD PTR _this$[ebp]
	mov	edx, DWORD PTR _this$[ebp]
	movss	xmm1, DWORD PTR [ecx+8]
	mulss	xmm1, DWORD PTR [edx+8]
	addss	xmm0, xmm1
	cvtss2sd xmm0, xmm0
	sub	esp, 8
	movsd	QWORD PTR [esp], xmm0
	call	_sqrt
	add	esp, 8
	fstp	DWORD PTR tv91[ebp]
	fld	DWORD PTR tv91[ebp]
	pop	edi
	pop	esi
	pop	ebx
	mov	esp, ebp
	pop	ebp
	ret	0
?Length@Vector@@QBEMXZ ENDP				; Vector::Length
_TEXT	ENDS
; Function compile flags: /Odtp /ZI
; File d:\!diffusion 2020\source code 2022\client-server\game_shared\vector.h
;	COMDAT ?CopyToArray@Vector@@QBEXPAM@Z
_TEXT	SEGMENT
_this$ = -4						; size = 4
_rgfl$ = 8						; size = 4
?CopyToArray@Vector@@QBEXPAM@Z PROC			; Vector::CopyToArray, COMDAT
; _this$ = ecx

; 244  : 	inline void CopyToArray( float *rgfl ) const	{ rgfl[0] = x, rgfl[1] = y, rgfl[2] = z; }

	push	ebp
	mov	ebp, esp
	sub	esp, 68					; 00000044H
	push	ebx
	push	esi
	push	edi
	mov	DWORD PTR _this$[ebp], ecx
	mov	eax, 4
	imul	ecx, eax, 0
	mov	edx, DWORD PTR _rgfl$[ebp]
	mov	eax, DWORD PTR _this$[ebp]
	mov	eax, DWORD PTR [eax]
	mov	DWORD PTR [edx+ecx], eax
	mov	ecx, 4
	shl	ecx, 0
	mov	edx, DWORD PTR _rgfl$[ebp]
	mov	eax, DWORD PTR _this$[ebp]
	mov	eax, DWORD PTR [eax+4]
	mov	DWORD PTR [edx+ecx], eax
	mov	ecx, 4
	shl	ecx, 1
	mov	edx, DWORD PTR _rgfl$[ebp]
	mov	eax, DWORD PTR _this$[ebp]
	mov	eax, DWORD PTR [eax+8]
	mov	DWORD PTR [edx+ecx], eax
	pop	edi
	pop	esi
	pop	ebx
	mov	esp, ebp
	pop	ebp
	ret	4
?CopyToArray@Vector@@QBEXPAM@Z ENDP			; Vector::CopyToArray
_TEXT	ENDS
; Function compile flags: /Odtp /ZI
; File d:\!diffusion 2020\source code 2022\client-server\game_shared\vector.h
;	COMDAT ??YVector@@QAEAAV0@ABV0@@Z
_TEXT	SEGMENT
_this$ = -4						; size = 4
_v$ = 8							; size = 4
??YVector@@QAEAAV0@ABV0@@Z PROC				; Vector::operator+=, COMDAT
; _this$ = ecx

; 168  : 	{

	push	ebp
	mov	ebp, esp
	sub	esp, 68					; 00000044H
	push	ebx
	push	esi
	push	edi
	mov	DWORD PTR _this$[ebp], ecx

; 169  : 		x+=v.x; y+=v.y; z += v.z;	

	mov	eax, DWORD PTR _this$[ebp]
	mov	ecx, DWORD PTR _v$[ebp]
	movss	xmm0, DWORD PTR [eax]
	addss	xmm0, DWORD PTR [ecx]
	mov	edx, DWORD PTR _this$[ebp]
	movss	DWORD PTR [edx], xmm0
	mov	eax, DWORD PTR _this$[ebp]
	mov	ecx, DWORD PTR _v$[ebp]
	movss	xmm0, DWORD PTR [eax+4]
	addss	xmm0, DWORD PTR [ecx+4]
	mov	edx, DWORD PTR _this$[ebp]
	movss	DWORD PTR [edx+4], xmm0
	mov	eax, DWORD PTR _this$[ebp]
	mov	ecx, DWORD PTR _v$[ebp]
	movss	xmm0, DWORD PTR [eax+8]
	addss	xmm0, DWORD PTR [ecx+8]
	mov	edx, DWORD PTR _this$[ebp]
	movss	DWORD PTR [edx+8], xmm0

; 170  : 		return *this;

	mov	eax, DWORD PTR _this$[ebp]

; 171  : 	}			

	pop	edi
	pop	esi
	pop	ebx
	mov	esp, ebp
	pop	ebp
	ret	4
??YVector@@QAEAAV0@ABV0@@Z ENDP				; Vector::operator+=
_TEXT	ENDS
; Function compile flags: /Odtp /ZI
; File d:\!diffusion 2020\source code 2022\client-server\game_shared\vector.h
;	COMDAT ??DVector@@QBE?AV0@M@Z
_TEXT	SEGMENT
_this$ = -4						; size = 4
___$ReturnUdt$ = 8					; size = 4
_fl$ = 12						; size = 4
??DVector@@QBE?AV0@M@Z PROC				; Vector::operator*, COMDAT
; _this$ = ecx

; 162  : 	inline Vector operator*(float fl) const		{ return Vector(x*fl, y*fl, z*fl);	   }

	push	ebp
	mov	ebp, esp
	sub	esp, 68					; 00000044H
	push	ebx
	push	esi
	push	edi
	mov	DWORD PTR _this$[ebp], ecx
	mov	eax, DWORD PTR _this$[ebp]
	movss	xmm0, DWORD PTR [eax+8]
	mulss	xmm0, DWORD PTR _fl$[ebp]
	push	ecx
	movss	DWORD PTR [esp], xmm0
	mov	ecx, DWORD PTR _this$[ebp]
	movss	xmm0, DWORD PTR [ecx+4]
	mulss	xmm0, DWORD PTR _fl$[ebp]
	push	ecx
	movss	DWORD PTR [esp], xmm0
	mov	edx, DWORD PTR _this$[ebp]
	movss	xmm0, DWORD PTR [edx]
	mulss	xmm0, DWORD PTR _fl$[ebp]
	push	ecx
	movss	DWORD PTR [esp], xmm0
	mov	ecx, DWORD PTR ___$ReturnUdt$[ebp]
	call	??0Vector@@QAE@MMM@Z			; Vector::Vector
	mov	eax, DWORD PTR ___$ReturnUdt$[ebp]
	pop	edi
	pop	esi
	pop	ebx
	mov	esp, ebp
	pop	ebp
	ret	8
??DVector@@QBE?AV0@M@Z ENDP				; Vector::operator*
_TEXT	ENDS
; Function compile flags: /Odtp /ZI
; File d:\!diffusion 2020\source code 2022\client-server\game_shared\vector.h
;	COMDAT ??GVector@@QBE?AV0@ABV0@@Z
_TEXT	SEGMENT
_this$ = -4						; size = 4
___$ReturnUdt$ = 8					; size = 4
_v$ = 12						; size = 4
??GVector@@QBE?AV0@ABV0@@Z PROC				; Vector::operator-, COMDAT
; _this$ = ecx

; 159  : 	inline Vector operator-(const Vector& v) const	{ return Vector(x-v.x, y-v.y, z-v.z);	   }

	push	ebp
	mov	ebp, esp
	sub	esp, 68					; 00000044H
	push	ebx
	push	esi
	push	edi
	mov	DWORD PTR _this$[ebp], ecx
	mov	eax, DWORD PTR _this$[ebp]
	mov	ecx, DWORD PTR _v$[ebp]
	movss	xmm0, DWORD PTR [eax+8]
	subss	xmm0, DWORD PTR [ecx+8]
	push	ecx
	movss	DWORD PTR [esp], xmm0
	mov	edx, DWORD PTR _this$[ebp]
	mov	eax, DWORD PTR _v$[ebp]
	movss	xmm0, DWORD PTR [edx+4]
	subss	xmm0, DWORD PTR [eax+4]
	push	ecx
	movss	DWORD PTR [esp], xmm0
	mov	ecx, DWORD PTR _this$[ebp]
	mov	edx, DWORD PTR _v$[ebp]
	movss	xmm0, DWORD PTR [ecx]
	subss	xmm0, DWORD PTR [edx]
	push	ecx
	movss	DWORD PTR [esp], xmm0
	mov	ecx, DWORD PTR ___$ReturnUdt$[ebp]
	call	??0Vector@@QAE@MMM@Z			; Vector::Vector
	mov	eax, DWORD PTR ___$ReturnUdt$[ebp]
	pop	edi
	pop	esi
	pop	ebx
	mov	esp, ebp
	pop	ebp
	ret	8
??GVector@@QBE?AV0@ABV0@@Z ENDP				; Vector::operator-
_TEXT	ENDS
; Function compile flags: /Odtp /ZI
; File d:\!diffusion 2020\source code 2022\client-server\game_shared\vector.h
;	COMDAT ??HVector@@QBE?AV0@ABV0@@Z
_TEXT	SEGMENT
_this$ = -4						; size = 4
___$ReturnUdt$ = 8					; size = 4
_v$ = 12						; size = 4
??HVector@@QBE?AV0@ABV0@@Z PROC				; Vector::operator+, COMDAT
; _this$ = ecx

; 158  : 	inline Vector operator+(const Vector& v) const	{ return Vector(x+v.x, y+v.y, z+v.z);	   }

	push	ebp
	mov	ebp, esp
	sub	esp, 68					; 00000044H
	push	ebx
	push	esi
	push	edi
	mov	DWORD PTR _this$[ebp], ecx
	mov	eax, DWORD PTR _this$[ebp]
	mov	ecx, DWORD PTR _v$[ebp]
	movss	xmm0, DWORD PTR [eax+8]
	addss	xmm0, DWORD PTR [ecx+8]
	push	ecx
	movss	DWORD PTR [esp], xmm0
	mov	edx, DWORD PTR _this$[ebp]
	mov	eax, DWORD PTR _v$[ebp]
	movss	xmm0, DWORD PTR [edx+4]
	addss	xmm0, DWORD PTR [eax+4]
	push	ecx
	movss	DWORD PTR [esp], xmm0
	mov	ecx, DWORD PTR _this$[ebp]
	mov	edx, DWORD PTR _v$[ebp]
	movss	xmm0, DWORD PTR [ecx]
	addss	xmm0, DWORD PTR [edx]
	push	ecx
	movss	DWORD PTR [esp], xmm0
	mov	ecx, DWORD PTR ___$ReturnUdt$[ebp]
	call	??0Vector@@QAE@MMM@Z			; Vector::Vector
	mov	eax, DWORD PTR ___$ReturnUdt$[ebp]
	pop	edi
	pop	esi
	pop	ebx
	mov	esp, ebp
	pop	ebp
	ret	8
??HVector@@QBE?AV0@ABV0@@Z ENDP				; Vector::operator+
_TEXT	ENDS
; Function compile flags: /Odtp /ZI
; File d:\!diffusion 2020\source code 2022\client-server\game_shared\vector.h
;	COMDAT ??8Vector@@QBEHABV0@@Z
_TEXT	SEGMENT
tv73 = -72						; size = 4
_this$ = -4						; size = 4
_v$ = 8							; size = 4
??8Vector@@QBEHABV0@@Z PROC				; Vector::operator==, COMDAT
; _this$ = ecx

; 156  : 	inline int operator==(const Vector& v) const	{ return x==v.x && y==v.y && z==v.z;	   }

	push	ebp
	mov	ebp, esp
	sub	esp, 72					; 00000048H
	push	ebx
	push	esi
	push	edi
	mov	DWORD PTR _this$[ebp], ecx
	mov	eax, DWORD PTR _this$[ebp]
	mov	ecx, DWORD PTR _v$[ebp]
	movss	xmm0, DWORD PTR [eax]
	ucomiss	xmm0, DWORD PTR [ecx]
	lahf
	test	ah, 68					; 00000044H
	jp	SHORT $LN3@operator
	mov	edx, DWORD PTR _this$[ebp]
	mov	eax, DWORD PTR _v$[ebp]
	movss	xmm0, DWORD PTR [edx+4]
	ucomiss	xmm0, DWORD PTR [eax+4]
	lahf
	test	ah, 68					; 00000044H
	jp	SHORT $LN3@operator
	mov	ecx, DWORD PTR _this$[ebp]
	mov	edx, DWORD PTR _v$[ebp]
	movss	xmm0, DWORD PTR [ecx+8]
	ucomiss	xmm0, DWORD PTR [edx+8]
	lahf
	test	ah, 68					; 00000044H
	jp	SHORT $LN3@operator
	mov	DWORD PTR tv73[ebp], 1
	jmp	SHORT $LN4@operator
$LN3@operator:
	mov	DWORD PTR tv73[ebp], 0
$LN4@operator:
	mov	eax, DWORD PTR tv73[ebp]
	pop	edi
	pop	esi
	pop	ebx
	mov	esp, ebp
	pop	ebp
	ret	4
??8Vector@@QBEHABV0@@Z ENDP				; Vector::operator==
_TEXT	ENDS
; Function compile flags: /Odtp /ZI
; File d:\!diffusion 2020\source code 2022\client-server\game_shared\vector.h
;	COMDAT ??0Vector@@QAE@ABV0@@Z
_TEXT	SEGMENT
_this$ = -4						; size = 4
_v$ = 8							; size = 4
??0Vector@@QAE@ABV0@@Z PROC				; Vector::Vector, COMDAT
; _this$ = ecx

; 145  : 	inline Vector(const Vector& v)		{ x = v.x; y = v.y; z = v.z;		   }

	push	ebp
	mov	ebp, esp
	sub	esp, 68					; 00000044H
	push	ebx
	push	esi
	push	edi
	mov	DWORD PTR _this$[ebp], ecx
	mov	eax, DWORD PTR _this$[ebp]
	mov	ecx, DWORD PTR _v$[ebp]
	mov	edx, DWORD PTR [ecx]
	mov	DWORD PTR [eax], edx
	mov	eax, DWORD PTR _this$[ebp]
	mov	ecx, DWORD PTR _v$[ebp]
	mov	edx, DWORD PTR [ecx+4]
	mov	DWORD PTR [eax+4], edx
	mov	eax, DWORD PTR _this$[ebp]
	mov	ecx, DWORD PTR _v$[ebp]
	mov	edx, DWORD PTR [ecx+8]
	mov	DWORD PTR [eax+8], edx
	mov	eax, DWORD PTR _this$[ebp]
	pop	edi
	pop	esi
	pop	ebx
	mov	esp, ebp
	pop	ebp
	ret	4
??0Vector@@QAE@ABV0@@Z ENDP				; Vector::Vector
_TEXT	ENDS
; Function compile flags: /Odtp /ZI
; File d:\!diffusion 2020\source code 2022\client-server\game_shared\vector.h
;	COMDAT ??0Vector@@QAE@MMM@Z
_TEXT	SEGMENT
_this$ = -4						; size = 4
_X$ = 8							; size = 4
_Y$ = 12						; size = 4
_Z$ = 16						; size = 4
??0Vector@@QAE@MMM@Z PROC				; Vector::Vector, COMDAT
; _this$ = ecx

; 144  : 	inline Vector(float X, float Y, float Z)	{ x = X; y = Y; z = Z;                     }

	push	ebp
	mov	ebp, esp
	sub	esp, 68					; 00000044H
	push	ebx
	push	esi
	push	edi
	mov	DWORD PTR _this$[ebp], ecx
	mov	eax, DWORD PTR _this$[ebp]
	movss	xmm0, DWORD PTR _X$[ebp]
	movss	DWORD PTR [eax], xmm0
	mov	eax, DWORD PTR _this$[ebp]
	movss	xmm0, DWORD PTR _Y$[ebp]
	movss	DWORD PTR [eax+4], xmm0
	mov	eax, DWORD PTR _this$[ebp]
	movss	xmm0, DWORD PTR _Z$[ebp]
	movss	DWORD PTR [eax+8], xmm0
	mov	eax, DWORD PTR _this$[ebp]
	pop	edi
	pop	esi
	pop	ebx
	mov	esp, ebp
	pop	ebp
	ret	12					; 0000000cH
??0Vector@@QAE@MMM@Z ENDP				; Vector::Vector
_TEXT	ENDS
; Function compile flags: /Odtp /ZI
; File d:\!diffusion 2020\source code 2022\client-server\game_shared\vector.h
;	COMDAT ??0Vector@@QAE@XZ
_TEXT	SEGMENT
_this$ = -4						; size = 4
??0Vector@@QAE@XZ PROC					; Vector::Vector, COMDAT
; _this$ = ecx

; 143  : 	inline Vector(void)				{ }

	push	ebp
	mov	ebp, esp
	sub	esp, 68					; 00000044H
	push	ebx
	push	esi
	push	edi
	mov	DWORD PTR _this$[ebp], ecx
	mov	eax, DWORD PTR _this$[ebp]
	pop	edi
	pop	esi
	pop	ebx
	mov	esp, ebp
	pop	ebp
	ret	0
??0Vector@@QAE@XZ ENDP					; Vector::Vector
_TEXT	ENDS
; Function compile flags: /Odtp /ZI
; File d:\!diffusion 2020\source code 2022\client-server\game_shared\vector.h
;	COMDAT ?DotProduct@@YAMABVVector2D@@0@Z
_TEXT	SEGMENT
tv79 = -68						; size = 4
_a$ = 8							; size = 4
_b$ = 12						; size = 4
?DotProduct@@YAMABVVector2D@@0@Z PROC			; DotProduct, COMDAT

; 131  : inline float DotProduct(const Vector2D& a, const Vector2D& b) { return( a.x*b.x + a.y*b.y ); }

	push	ebp
	mov	ebp, esp
	sub	esp, 68					; 00000044H
	push	ebx
	push	esi
	push	edi
	mov	eax, DWORD PTR _a$[ebp]
	mov	ecx, DWORD PTR _b$[ebp]
	movss	xmm0, DWORD PTR [eax]
	mulss	xmm0, DWORD PTR [ecx]
	mov	edx, DWORD PTR _a$[ebp]
	mov	eax, DWORD PTR _b$[ebp]
	movss	xmm1, DWORD PTR [edx+4]
	mulss	xmm1, DWORD PTR [eax+4]
	addss	xmm0, xmm1
	movss	DWORD PTR tv79[ebp], xmm0
	fld	DWORD PTR tv79[ebp]
	pop	edi
	pop	esi
	pop	ebx
	mov	esp, ebp
	pop	ebp
	ret	0
?DotProduct@@YAMABVVector2D@@0@Z ENDP			; DotProduct
_TEXT	ENDS
; Function compile flags: /Odtp /ZI
; File d:\!diffusion 2020\source code 2022\client-server\game_shared\vector.h
;	COMDAT ?Normalize@Vector2D@@QBE?AV1@XZ
_TEXT	SEGMENT
_flLen$ = -16						; size = 4
_vec2$ = -12						; size = 8
_this$ = -4						; size = 4
___$ReturnUdt$ = 8					; size = 4
?Normalize@Vector2D@@QBE?AV1@XZ PROC			; Vector2D::Normalize, COMDAT
; _this$ = ecx

; 106  : 	{

	push	ebp
	mov	ebp, esp
	sub	esp, 80					; 00000050H
	push	ebx
	push	esi
	push	edi
	mov	DWORD PTR _this$[ebp], ecx

; 107  : 		Vector2D vec2;

	lea	ecx, DWORD PTR _vec2$[ebp]
	call	??0Vector2D@@QAE@XZ			; Vector2D::Vector2D

; 108  : 
; 109  : 		float flLen = Length();

	mov	ecx, DWORD PTR _this$[ebp]
	call	?Length@Vector2D@@QBEMXZ		; Vector2D::Length
	fstp	DWORD PTR _flLen$[ebp]

; 110  : 		if ( flLen == 0 )

	movss	xmm0, DWORD PTR _flLen$[ebp]
	ucomiss	xmm0, DWORD PTR __real@00000000
	lahf
	test	ah, 68					; 00000044H
	jp	SHORT $LN2@Normalize

; 111  : 		{
; 112  : 			return Vector2D( 0, 0 );

	push	ecx
	xorps	xmm0, xmm0
	movss	DWORD PTR [esp], xmm0
	push	ecx
	xorps	xmm0, xmm0
	movss	DWORD PTR [esp], xmm0
	mov	ecx, DWORD PTR ___$ReturnUdt$[ebp]
	call	??0Vector2D@@QAE@MM@Z			; Vector2D::Vector2D
	mov	eax, DWORD PTR ___$ReturnUdt$[ebp]
	jmp	SHORT $LN3@Normalize

; 113  : 		}
; 114  : 		else

	jmp	SHORT $LN3@Normalize
$LN2@Normalize:

; 115  : 		{
; 116  : 			flLen = 1 / flLen;

	movss	xmm0, DWORD PTR __real@3f800000
	divss	xmm0, DWORD PTR _flLen$[ebp]
	movss	DWORD PTR _flLen$[ebp], xmm0

; 117  : 			return Vector2D( x * flLen, y * flLen );

	mov	eax, DWORD PTR _this$[ebp]
	movss	xmm0, DWORD PTR [eax+4]
	mulss	xmm0, DWORD PTR _flLen$[ebp]
	push	ecx
	movss	DWORD PTR [esp], xmm0
	mov	ecx, DWORD PTR _this$[ebp]
	movss	xmm0, DWORD PTR [ecx]
	mulss	xmm0, DWORD PTR _flLen$[ebp]
	push	ecx
	movss	DWORD PTR [esp], xmm0
	mov	ecx, DWORD PTR ___$ReturnUdt$[ebp]
	call	??0Vector2D@@QAE@MM@Z			; Vector2D::Vector2D
	mov	eax, DWORD PTR ___$ReturnUdt$[ebp]
$LN3@Normalize:

; 118  : 		}
; 119  : 	}

	pop	edi
	pop	esi
	pop	ebx
	mov	esp, ebp
	pop	ebp
	ret	4
?Normalize@Vector2D@@QBE?AV1@XZ ENDP			; Vector2D::Normalize
_TEXT	ENDS
; Function compile flags: /Odtp /ZI
; File d:\!diffusion 2020\source code 2022\client-server\game_shared\vector.h
;	COMDAT ?Length@Vector2D@@QBEMXZ
_TEXT	SEGMENT
tv84 = -72						; size = 4
_this$ = -4						; size = 4
?Length@Vector2D@@QBEMXZ PROC				; Vector2D::Length, COMDAT
; _this$ = ecx

; 104  : 	inline float Length(void) const { return sqrt(x*x + y*y ); }

	push	ebp
	mov	ebp, esp
	sub	esp, 72					; 00000048H
	push	ebx
	push	esi
	push	edi
	mov	DWORD PTR _this$[ebp], ecx
	mov	eax, DWORD PTR _this$[ebp]
	mov	ecx, DWORD PTR _this$[ebp]
	movss	xmm0, DWORD PTR [eax]
	mulss	xmm0, DWORD PTR [ecx]
	mov	edx, DWORD PTR _this$[ebp]
	mov	eax, DWORD PTR _this$[ebp]
	movss	xmm1, DWORD PTR [edx+4]
	mulss	xmm1, DWORD PTR [eax+4]
	addss	xmm0, xmm1
	cvtss2sd xmm0, xmm0
	sub	esp, 8
	movsd	QWORD PTR [esp], xmm0
	call	_sqrt
	add	esp, 8
	fstp	DWORD PTR tv84[ebp]
	fld	DWORD PTR tv84[ebp]
	pop	edi
	pop	esi
	pop	ebx
	mov	esp, ebp
	pop	ebp
	ret	0
?Length@Vector2D@@QBEMXZ ENDP				; Vector2D::Length
_TEXT	ENDS
; Function compile flags: /Odtp /ZI
; File d:\!diffusion 2020\source code 2022\client-server\game_shared\vector.h
;	COMDAT ??0Vector2D@@QAE@MM@Z
_TEXT	SEGMENT
_this$ = -4						; size = 4
_X$ = 8							; size = 4
_Y$ = 12						; size = 4
??0Vector2D@@QAE@MM@Z PROC				; Vector2D::Vector2D, COMDAT
; _this$ = ecx

; 61   : 	inline Vector2D(float X, float Y) { x = X; y = Y; }

	push	ebp
	mov	ebp, esp
	sub	esp, 68					; 00000044H
	push	ebx
	push	esi
	push	edi
	mov	DWORD PTR _this$[ebp], ecx
	mov	eax, DWORD PTR _this$[ebp]
	movss	xmm0, DWORD PTR _X$[ebp]
	movss	DWORD PTR [eax], xmm0
	mov	eax, DWORD PTR _this$[ebp]
	movss	xmm0, DWORD PTR _Y$[ebp]
	movss	DWORD PTR [eax+4], xmm0
	mov	eax, DWORD PTR _this$[ebp]
	pop	edi
	pop	esi
	pop	ebx
	mov	esp, ebp
	pop	ebp
	ret	8
??0Vector2D@@QAE@MM@Z ENDP				; Vector2D::Vector2D
_TEXT	ENDS
; Function compile flags: /Odtp /ZI
; File d:\!diffusion 2020\source code 2022\client-server\game_shared\vector.h
;	COMDAT ??0Vector2D@@QAE@XZ
_TEXT	SEGMENT
_this$ = -4						; size = 4
??0Vector2D@@QAE@XZ PROC				; Vector2D::Vector2D, COMDAT
; _this$ = ecx

; 60   : 	inline Vector2D(void) { }

	push	ebp
	mov	ebp, esp
	sub	esp, 68					; 00000044H
	push	ebx
	push	esi
	push	edi
	mov	DWORD PTR _this$[ebp], ecx
	mov	eax, DWORD PTR _this$[ebp]
	pop	edi
	pop	esi
	pop	ebx
	mov	esp, ebp
	pop	ebp
	ret	0
??0Vector2D@@QAE@XZ ENDP				; Vector2D::Vector2D
_TEXT	ENDS
; Function compile flags: /Odtp /ZI
; File d:\!diffusion 2020\source code 2022\client-server\game_shared\vector.h
;	COMDAT ?SinCos@@YAXMPAM0@Z
_TEXT	SEGMENT
_angle$ = 8						; size = 4
_sine$ = 12						; size = 4
_cosine$ = 16						; size = 4
?SinCos@@YAXMPAM0@Z PROC				; SinCos, COMDAT

; 36   : {

	push	ebp
	mov	ebp, esp
	sub	esp, 64					; 00000040H
	push	ebx
	push	esi
	push	edi

; 37   : 	/*
; 38   : 	__asm
; 39   : 	{
; 40   : 		push	ecx
; 41   : 		fld	dword ptr angle
; 42   : 		fsincos
; 43   : 		mov	ecx, dword ptr[cosine]
; 44   : 		fstp      dword ptr [ecx]
; 45   : 		mov 	ecx, dword ptr[sine]
; 46   : 		fstp	dword ptr [ecx]
; 47   : 		pop	ecx
; 48   : 	}*/
; 49   : 	*sine = sin( angle );

	cvtss2sd xmm0, DWORD PTR _angle$[ebp]
	sub	esp, 8
	movsd	QWORD PTR [esp], xmm0
	call	_sin
	add	esp, 8
	mov	eax, DWORD PTR _sine$[ebp]
	fstp	DWORD PTR [eax]

; 50   : 	*cosine = cos( angle );

	cvtss2sd xmm0, DWORD PTR _angle$[ebp]
	sub	esp, 8
	movsd	QWORD PTR [esp], xmm0
	call	_cos
	add	esp, 8
	mov	eax, DWORD PTR _cosine$[ebp]
	fstp	DWORD PTR [eax]

; 51   : }

	pop	edi
	pop	esi
	pop	ebx
	mov	esp, ebp
	pop	ebp
	ret	0
?SinCos@@YAXMPAM0@Z ENDP				; SinCos
_TEXT	ENDS
; Function compile flags: /Odtp /ZI
; File c:\program files (x86)\windows kits\10\include\10.0.10240.0\ucrt\stdio.h
;	COMDAT _sprintf
_TEXT	SEGMENT
__ArgList$ = -8						; size = 4
__Result$ = -4						; size = 4
__Buffer$ = 8						; size = 4
__Format$ = 12						; size = 4
_sprintf PROC						; COMDAT

; 1776 : {

	push	ebp
	mov	ebp, esp
	sub	esp, 72					; 00000048H
	push	ebx
	push	esi
	push	edi

; 1777 :     int _Result;
; 1778 :     va_list _ArgList;
; 1779 :     __crt_va_start(_ArgList, _Format);

	call	??$__vcrt_va_start_verify_argument_type@QBD@@YAXXZ ; __vcrt_va_start_verify_argument_type<char const * const>
	lea	eax, DWORD PTR __Format$[ebp+4]
	mov	DWORD PTR __ArgList$[ebp], eax

; 1780 : 
; 1781 :     #pragma warning(push)
; 1782 :     #pragma warning(disable: 4996) // Deprecation
; 1783 :     _Result = _vsprintf_l(_Buffer, _Format, NULL, _ArgList);

	mov	eax, DWORD PTR __ArgList$[ebp]
	push	eax
	push	0
	mov	ecx, DWORD PTR __Format$[ebp]
	push	ecx
	mov	edx, DWORD PTR __Buffer$[ebp]
	push	edx
	call	__vsprintf_l
	add	esp, 16					; 00000010H
	mov	DWORD PTR __Result$[ebp], eax

; 1784 :     #pragma warning(pop)
; 1785 : 
; 1786 :     __crt_va_end(_ArgList);

	mov	DWORD PTR __ArgList$[ebp], 0

; 1787 :     return _Result;

	mov	eax, DWORD PTR __Result$[ebp]

; 1788 : }

	pop	edi
	pop	esi
	pop	ebx
	mov	esp, ebp
	pop	ebp
	ret	0
_sprintf ENDP
_TEXT	ENDS
; Function compile flags: /Odtp /ZI
; File c:\program files (x86)\windows kits\10\include\10.0.10240.0\ucrt\stdio.h
;	COMDAT _vsprintf
_TEXT	SEGMENT
__Buffer$ = 8						; size = 4
__Format$ = 12						; size = 4
__ArgList$ = 16						; size = 4
_vsprintf PROC						; COMDAT

; 1473 : {

	push	ebp
	mov	ebp, esp
	sub	esp, 64					; 00000040H
	push	ebx
	push	esi
	push	edi

; 1474 :     #pragma warning(push)
; 1475 :     #pragma warning(disable: 4996) // Deprecation
; 1476 :     return _vsnprintf_l(_Buffer, (size_t)-1, _Format, NULL, _ArgList);

	mov	eax, DWORD PTR __ArgList$[ebp]
	push	eax
	push	0
	mov	ecx, DWORD PTR __Format$[ebp]
	push	ecx
	push	-1
	mov	edx, DWORD PTR __Buffer$[ebp]
	push	edx
	call	__vsnprintf_l
	add	esp, 20					; 00000014H

; 1477 :     #pragma warning(pop)
; 1478 : }

	pop	edi
	pop	esi
	pop	ebx
	mov	esp, ebp
	pop	ebp
	ret	0
_vsprintf ENDP
_TEXT	ENDS
; Function compile flags: /Odtp /ZI
; File c:\program files (x86)\windows kits\10\include\10.0.10240.0\ucrt\stdio.h
;	COMDAT __vsprintf_l
_TEXT	SEGMENT
__Buffer$ = 8						; size = 4
__Format$ = 12						; size = 4
__Locale$ = 16						; size = 4
__ArgList$ = 20						; size = 4
__vsprintf_l PROC					; COMDAT

; 1455 : {

	push	ebp
	mov	ebp, esp
	sub	esp, 64					; 00000040H
	push	ebx
	push	esi
	push	edi

; 1456 :     #pragma warning(push)
; 1457 :     #pragma warning(disable: 4996) // Deprecation
; 1458 :     return _vsnprintf_l(_Buffer, (size_t)-1, _Format, _Locale, _ArgList);

	mov	eax, DWORD PTR __ArgList$[ebp]
	push	eax
	mov	ecx, DWORD PTR __Locale$[ebp]
	push	ecx
	mov	edx, DWORD PTR __Format$[ebp]
	push	edx
	push	-1
	mov	eax, DWORD PTR __Buffer$[ebp]
	push	eax
	call	__vsnprintf_l
	add	esp, 20					; 00000014H

; 1459 :     #pragma warning(pop)
; 1460 : }

	pop	edi
	pop	esi
	pop	ebx
	mov	esp, ebp
	pop	ebp
	ret	0
__vsprintf_l ENDP
_TEXT	ENDS
; Function compile flags: /Odtp /ZI
; File c:\program files (x86)\windows kits\10\include\10.0.10240.0\ucrt\stdio.h
;	COMDAT __vsnprintf_l
_TEXT	SEGMENT
tv74 = -72						; size = 4
__Result$ = -4						; size = 4
__Buffer$ = 8						; size = 4
__BufferCount$ = 12					; size = 4
__Format$ = 16						; size = 4
__Locale$ = 20						; size = 4
__ArgList$ = 24						; size = 4
__vsnprintf_l PROC					; COMDAT

; 1385 : {

	push	ebp
	mov	ebp, esp
	sub	esp, 72					; 00000048H
	push	ebx
	push	esi
	push	edi

; 1386 :     int const _Result = __stdio_common_vsprintf(

	mov	eax, DWORD PTR __ArgList$[ebp]
	push	eax
	mov	ecx, DWORD PTR __Locale$[ebp]
	push	ecx
	mov	edx, DWORD PTR __Format$[ebp]
	push	edx
	mov	eax, DWORD PTR __BufferCount$[ebp]
	push	eax
	mov	ecx, DWORD PTR __Buffer$[ebp]
	push	ecx
	call	___local_stdio_printf_options
	mov	edx, DWORD PTR [eax]
	or	edx, 1
	mov	eax, DWORD PTR [eax+4]
	push	eax
	push	edx
	call	___stdio_common_vsprintf
	add	esp, 28					; 0000001cH
	mov	DWORD PTR __Result$[ebp], eax

; 1387 :         _CRT_INTERNAL_LOCAL_PRINTF_OPTIONS | _CRT_INTERNAL_PRINTF_LEGACY_VSPRINTF_NULL_TERMINATION,
; 1388 :         _Buffer, _BufferCount, _Format, _Locale, _ArgList);
; 1389 : 
; 1390 :     return _Result < 0 ? -1 : _Result;

	cmp	DWORD PTR __Result$[ebp], 0
	jge	SHORT $LN3@vsnprintf_
	mov	DWORD PTR tv74[ebp], -1
	jmp	SHORT $LN4@vsnprintf_
$LN3@vsnprintf_:
	mov	eax, DWORD PTR __Result$[ebp]
	mov	DWORD PTR tv74[ebp], eax
$LN4@vsnprintf_:
	mov	eax, DWORD PTR tv74[ebp]

; 1391 : }

	pop	edi
	pop	esi
	pop	ebx
	mov	esp, ebp
	pop	ebp
	ret	0
__vsnprintf_l ENDP
_TEXT	ENDS
; Function compile flags: /Odtp /ZI
; File c:\program files (x86)\microsoft visual studio 14.0\vc\include\vadefs.h
;	COMDAT ??$__vcrt_va_start_verify_argument_type@QBD@@YAXXZ
_TEXT	SEGMENT
??$__vcrt_va_start_verify_argument_type@QBD@@YAXXZ PROC	; __vcrt_va_start_verify_argument_type<char const * const>, COMDAT

; 144  :         {

	push	ebp
	mov	ebp, esp
	sub	esp, 64					; 00000040H
	push	ebx
	push	esi
	push	edi

; 145  :             static_assert(!__vcrt_va_list_is_reference<_Ty>::__the_value, "va_start argument must not have reference type and must not be parenthesized");
; 146  :         }

	pop	edi
	pop	esi
	pop	ebx
	mov	esp, ebp
	pop	ebp
	ret	0
??$__vcrt_va_start_verify_argument_type@QBD@@YAXXZ ENDP	; __vcrt_va_start_verify_argument_type<char const * const>
_TEXT	ENDS
; Function compile flags: /Odtp /ZI
; File c:\program files (x86)\windows kits\10\include\10.0.10240.0\ucrt\corecrt_stdio_config.h
;	COMDAT ___local_stdio_printf_options
_TEXT	SEGMENT
___local_stdio_printf_options PROC			; COMDAT

; 73   : {

	push	ebp
	mov	ebp, esp
	sub	esp, 64					; 00000040H
	push	ebx
	push	esi
	push	edi

; 74   :     static unsigned __int64 _OptionsStorage;
; 75   :     return &_OptionsStorage;

	mov	eax, OFFSET ?_OptionsStorage@?1??__local_stdio_printf_options@@9@4_KA ; `__local_stdio_printf_options'::`2'::_OptionsStorage

; 76   : }

	pop	edi
	pop	esi
	pop	ebx
	mov	esp, ebp
	pop	ebp
	ret	0
___local_stdio_printf_options ENDP
_TEXT	ENDS
; Function compile flags: /Odtp /ZI
; File d:\!diffusion 2020\source code 2022\client-server\server\util.cpp
;	COMDAT ?__empty_global_delete@@YAXPAXI@Z
_TEXT	SEGMENT
___formal$ = 8						; size = 4
___formal$ = 12						; size = 4
?__empty_global_delete@@YAXPAXI@Z PROC			; __empty_global_delete, COMDAT

	push	ebp
	mov	ebp, esp
	sub	esp, 64					; 00000040H
	push	ebx
	push	esi
	push	edi
	pop	edi
	pop	esi
	pop	ebx
	mov	esp, ebp
	pop	ebp
	ret	0
?__empty_global_delete@@YAXPAXI@Z ENDP			; __empty_global_delete
_TEXT	ENDS
; Function compile flags: /Odtp /ZI
; File d:\!diffusion 2020\source code 2022\client-server\server\util.cpp
;	COMDAT ?__empty_global_delete@@YAXPAX@Z
_TEXT	SEGMENT
___formal$ = 8						; size = 4
?__empty_global_delete@@YAXPAX@Z PROC			; __empty_global_delete, COMDAT

	push	ebp
	mov	ebp, esp
	sub	esp, 64					; 00000040H
	push	ebx
	push	esi
	push	edi
	pop	edi
	pop	esi
	pop	ebx
	mov	esp, ebp
	pop	ebp
	ret	0
?__empty_global_delete@@YAXPAX@Z ENDP			; __empty_global_delete
_TEXT	ENDS
; Function compile flags: /Odtp /ZI
;	COMDAT ??__G@YGXPAX0IIP6EPAX00@Z@Z
_TEXT	SEGMENT
tv66 = -68						; size = 4
___t$ = 8						; size = 4
___u$ = 12						; size = 4
___s$ = 16						; size = 4
___n$ = 20						; size = 4
___f$ = 24						; size = 4
??__G@YGXPAX0IIP6EPAX00@Z@Z PROC			; `vector copy constructor iterator', COMDAT
	push	ebp
	mov	ebp, esp
	sub	esp, 68					; 00000044H
	push	ebx
	push	esi
	push	edi
$LN2@vector:
	mov	eax, DWORD PTR ___n$[ebp]
	mov	DWORD PTR tv66[ebp], eax
	mov	ecx, DWORD PTR ___n$[ebp]
	sub	ecx, 1
	mov	DWORD PTR ___n$[ebp], ecx
	cmp	DWORD PTR tv66[ebp], 0
	jbe	SHORT $LN1@vector
	mov	eax, DWORD PTR ___u$[ebp]
	push	eax
	mov	ecx, DWORD PTR ___t$[ebp]
	call	DWORD PTR ___f$[ebp]
	mov	eax, DWORD PTR ___t$[ebp]
	add	eax, DWORD PTR ___s$[ebp]
	mov	DWORD PTR ___t$[ebp], eax
	mov	eax, DWORD PTR ___u$[ebp]
	add	eax, DWORD PTR ___s$[ebp]
	mov	DWORD PTR ___u$[ebp], eax
	jmp	SHORT $LN2@vector
$LN1@vector:
	pop	edi
	pop	esi
	pop	ebx
	mov	esp, ebp
	pop	ebp
	ret	20					; 00000014H
??__G@YGXPAX0IIP6EPAX00@Z@Z ENDP			; `vector copy constructor iterator'
_TEXT	ENDS
; Function compile flags: /Odtp /ZI
;	COMDAT ??_H@YGXPAXIIP6EPAX0@Z@Z
_TEXT	SEGMENT
tv66 = -68						; size = 4
___t$ = 8						; size = 4
___s$ = 12						; size = 4
___n$ = 16						; size = 4
___f$ = 20						; size = 4
??_H@YGXPAXIIP6EPAX0@Z@Z PROC				; `vector constructor iterator', COMDAT
	push	ebp
	mov	ebp, esp
	sub	esp, 68					; 00000044H
	push	ebx
	push	esi
	push	edi
$LN2@vector:
	mov	eax, DWORD PTR ___n$[ebp]
	mov	DWORD PTR tv66[ebp], eax
	mov	ecx, DWORD PTR ___n$[ebp]
	sub	ecx, 1
	mov	DWORD PTR ___n$[ebp], ecx
	cmp	DWORD PTR tv66[ebp], 0
	jbe	SHORT $LN1@vector
	mov	ecx, DWORD PTR ___t$[ebp]
	call	DWORD PTR ___f$[ebp]
	mov	eax, DWORD PTR ___t$[ebp]
	add	eax, DWORD PTR ___s$[ebp]
	mov	DWORD PTR ___t$[ebp], eax
	jmp	SHORT $LN2@vector
$LN1@vector:
	pop	edi
	pop	esi
	pop	ebx
	mov	esp, ebp
	pop	ebp
	ret	16					; 00000010H
??_H@YGXPAXIIP6EPAX0@Z@Z ENDP				; `vector constructor iterator'
_TEXT	ENDS
END
