; Listing generated by Microsoft (R) Optimizing Compiler Version 19.00.24247.2 

	TITLE	D:\!DIFFUSION 2020\source code 2022\client-server\server\weapons\weapon_crossbow.cpp
	.686P
	.XMM
	include listing.inc
	.model	flat

INCLUDELIB LIBCMT
INCLUDELIB OLDNAMES

PUBLIC	?m_DataMap@CCrossbowBolt@@0Udatamap_s@@A	; CCrossbowBolt::m_DataMap
PUBLIC	??_C@_0O@HOCJNBBA@CCrossbowBolt?$AA@		; `string'
PUBLIC	?m_DataMap@CCrossbow@@2Udatamap_s@@A		; CCrossbow::m_DataMap
PUBLIC	??_C@_09JMHCAHNN@CCrossbow?$AA@			; `string'
PUBLIC	??_C@_09OCFAMIJK@m_fInZoom?$AA@			; `string'
PUBLIC	??_C@_0N@DNCHHJGO@m_fZoomInUse?$AA@		; `string'
;	COMDAT ??_C@_0N@DNCHHJGO@m_fZoomInUse?$AA@
CONST	SEGMENT
??_C@_0N@DNCHHJGO@m_fZoomInUse?$AA@ DB 'm_fZoomInUse', 00H ; `string'
CONST	ENDS
;	COMDAT ??_C@_09OCFAMIJK@m_fInZoom?$AA@
CONST	SEGMENT
??_C@_09OCFAMIJK@m_fInZoom?$AA@ DB 'm_fInZoom', 00H	; `string'
CONST	ENDS
;	COMDAT ??_C@_09JMHCAHNN@CCrossbow?$AA@
CONST	SEGMENT
??_C@_09JMHCAHNN@CCrossbow?$AA@ DB 'CCrossbow', 00H	; `string'
CONST	ENDS
;	COMDAT ??_C@_0O@HOCJNBBA@CCrossbowBolt?$AA@
CONST	SEGMENT
??_C@_0O@HOCJNBBA@CCrossbowBolt?$AA@ DB 'CCrossbowBolt', 00H ; `string'
CONST	ENDS
_DATA	SEGMENT
?m_DataMap@CCrossbowBolt@@0Udatamap_s@@A DD 00H		; CCrossbowBolt::m_DataMap
	DD	00H
	DD	FLAT:??_C@_0O@HOCJNBBA@CCrossbowBolt?$AA@
	DD	00H
?dataDesc@?1???$DataMapInit@VCCrossbowBolt@@@@YAPAUdatamap_s@@PAVCCrossbowBolt@@@Z@4PAUtypedescription_s@@A DD 012H ; `DataMapInit<CCrossbowBolt>'::`2'::dataDesc
	DD	00H
	DD	00H
	DW	00H
	DW	00H
	DD	00H
	DD	00H
	DD	012H
	ORG $+92
?m_DataMap@CCrossbow@@2Udatamap_s@@A DD 00H		; CCrossbow::m_DataMap
	DD	00H
	DD	FLAT:??_C@_09JMHCAHNN@CCrossbow?$AA@
	DD	00H
?dataDesc@?1???$DataMapInit@VCCrossbow@@@@YAPAUdatamap_s@@PAVCCrossbow@@@Z@4PAUtypedescription_s@@A DD 012H ; `DataMapInit<CCrossbow>'::`2'::dataDesc
	DD	00H
	DD	00H
	DW	00H
	DW	00H
	DD	00H
	DD	00H
	DD	0cH
	DD	FLAT:??_C@_09OCFAMIJK@m_fInZoom?$AA@
	DD	0784H
	DW	01H
	DW	02H
	DD	00H
	DD	00H
	DD	0cH
	DD	FLAT:??_C@_0N@DNCHHJGO@m_fZoomInUse?$AA@
	DD	0788H
	DW	01H
	DW	02H
	DD	00H
	DD	00H
_DATA	ENDS
PUBLIC	??_H@YGXPAXIIP6EPAX0@Z@Z			; `vector constructor iterator'
PUBLIC	??__G@YGXPAX0IIP6EPAX00@Z@Z			; `vector copy constructor iterator'
PUBLIC	?__empty_global_delete@@YAXPAX@Z		; __empty_global_delete
PUBLIC	?__empty_global_delete@@YAXPAXI@Z		; __empty_global_delete
PUBLIC	___local_stdio_printf_options
PUBLIC	??$__vcrt_va_start_verify_argument_type@QBD@@YAXXZ ; __vcrt_va_start_verify_argument_type<char const * const>
PUBLIC	__vsnprintf_l
PUBLIC	__vsprintf_l
PUBLIC	_sprintf
PUBLIC	??0Vector@@QAE@XZ				; Vector::Vector
PUBLIC	??0Vector@@QAE@MMM@Z				; Vector::Vector
PUBLIC	??0Vector@@QAE@ABV0@@Z				; Vector::Vector
PUBLIC	??8Vector@@QBEHABV0@@Z				; Vector::operator==
PUBLIC	??9Vector@@QBEHABV0@@Z				; Vector::operator!=
PUBLIC	??HVector@@QBE?AV0@ABV0@@Z			; Vector::operator+
PUBLIC	??GVector@@QBE?AV0@ABV0@@Z			; Vector::operator-
PUBLIC	??DVector@@QBE?AV0@M@Z				; Vector::operator*
PUBLIC	??YVector@@QAEAAV0@ABV0@@Z			; Vector::operator+=
PUBLIC	?Length@Vector@@QBEMXZ				; Vector::Length
PUBLIC	??BVector@@QAEPAMXZ				; Vector::operator float *
PUBLIC	?Normalize@Vector@@QBE?AV1@XZ			; Vector::Normalize
PUBLIC	??0gametrace_s@@QAE@XZ				; gametrace_s::gametrace_s
PUBLIC	??0gametrace_s@@QAE@$$QAU0@@Z			; gametrace_s::gametrace_s
PUBLIC	?MESSAGE_BEGIN@@YAXHHPBMPAUedict_s@@@Z		; MESSAGE_BEGIN
PUBLIC	?GET_PRIVATE@@YAPAXPAUedict_s@@@Z		; GET_PRIVATE
PUBLIC	??2@YAPAXIPAX@Z					; operator new
PUBLIC	?UtlMemory_CalcNewAllocationCount@@YAHHHHH@Z	; UtlMemory_CalcNewAllocationCount
PUBLIC	??0CDatadescGeneratedNameHolder@@QAE@PBD@Z	; CDatadescGeneratedNameHolder::CDatadescGeneratedNameHolder
PUBLIC	??1CDatadescGeneratedNameHolder@@QAE@XZ		; CDatadescGeneratedNameHolder::~CDatadescGeneratedNameHolder
PUBLIC	?GenerateName@CDatadescGeneratedNameHolder@@QAEPBDPBD@Z ; CDatadescGeneratedNameHolder::GenerateName
PUBLIC	??0?$CUtlArray@PADV?$CUtlMemory@PADH@@@@QAE@HH@Z ; CUtlArray<char *,CUtlMemory<char *,int> >::CUtlArray<char *,CUtlMemory<char *,int> >
PUBLIC	??1?$CUtlArray@PADV?$CUtlMemory@PADH@@@@QAE@XZ	; CUtlArray<char *,CUtlMemory<char *,int> >::~CUtlArray<char *,CUtlMemory<char *,int> >
PUBLIC	??A?$CUtlArray@PADV?$CUtlMemory@PADH@@@@QAEAAPADH@Z ; CUtlArray<char *,CUtlMemory<char *,int> >::operator[]
PUBLIC	?Element@?$CUtlArray@PADV?$CUtlMemory@PADH@@@@QAEAAPADH@Z ; CUtlArray<char *,CUtlMemory<char *,int> >::Element
PUBLIC	?Base@?$CUtlArray@PADV?$CUtlMemory@PADH@@@@QAEPAPADXZ ; CUtlArray<char *,CUtlMemory<char *,int> >::Base
PUBLIC	?Count@?$CUtlArray@PADV?$CUtlMemory@PADH@@@@QBEHXZ ; CUtlArray<char *,CUtlMemory<char *,int> >::Count
PUBLIC	?IsValidIndex@?$CUtlArray@PADV?$CUtlMemory@PADH@@@@QBE_NH@Z ; CUtlArray<char *,CUtlMemory<char *,int> >::IsValidIndex
PUBLIC	?AddToTail@?$CUtlArray@PADV?$CUtlMemory@PADH@@@@QAEHABQAD@Z ; CUtlArray<char *,CUtlMemory<char *,int> >::AddToTail
PUBLIC	?InsertBefore@?$CUtlArray@PADV?$CUtlMemory@PADH@@@@QAEHHABQAD@Z ; CUtlArray<char *,CUtlMemory<char *,int> >::InsertBefore
PUBLIC	?RemoveAll@?$CUtlArray@PADV?$CUtlMemory@PADH@@@@QAEXXZ ; CUtlArray<char *,CUtlMemory<char *,int> >::RemoveAll
PUBLIC	?Purge@?$CUtlArray@PADV?$CUtlMemory@PADH@@@@QAEXXZ ; CUtlArray<char *,CUtlMemory<char *,int> >::Purge
PUBLIC	?GrowVector@?$CUtlArray@PADV?$CUtlMemory@PADH@@@@IAEXH@Z ; CUtlArray<char *,CUtlMemory<char *,int> >::GrowVector
PUBLIC	?ShiftElementsRight@?$CUtlArray@PADV?$CUtlMemory@PADH@@@@IAEXHH@Z ; CUtlArray<char *,CUtlMemory<char *,int> >::ShiftElementsRight
PUBLIC	??0?$CUtlMemory@PADH@@QAE@HH@Z			; CUtlMemory<char *,int>::CUtlMemory<char *,int>
PUBLIC	??1?$CUtlMemory@PADH@@QAE@XZ			; CUtlMemory<char *,int>::~CUtlMemory<char *,int>
PUBLIC	??A?$CUtlMemory@PADH@@QAEAAPADH@Z		; CUtlMemory<char *,int>::operator[]
PUBLIC	?IsIdxValid@?$CUtlMemory@PADH@@QBE_NH@Z		; CUtlMemory<char *,int>::IsIdxValid
PUBLIC	?Base@?$CUtlMemory@PADH@@QAEPAPADXZ		; CUtlMemory<char *,int>::Base
PUBLIC	?NumAllocated@?$CUtlMemory@PADH@@QBEHXZ		; CUtlMemory<char *,int>::NumAllocated
PUBLIC	?Grow@?$CUtlMemory@PADH@@QAEXH@Z		; CUtlMemory<char *,int>::Grow
PUBLIC	?Purge@?$CUtlMemory@PADH@@QAEXXZ		; CUtlMemory<char *,int>::Purge
PUBLIC	?IsExternallyAllocated@?$CUtlMemory@PADH@@QBE_NXZ ; CUtlMemory<char *,int>::IsExternallyAllocated
PUBLIC	?IsReadOnly@?$CUtlMemory@PADH@@QBE_NXZ		; CUtlMemory<char *,int>::IsReadOnly
PUBLIC	?ValidateGrowSize@?$CUtlMemory@PADH@@IAEXXZ	; CUtlMemory<char *,int>::ValidateGrowSize
PUBLIC	?ResetDbgInfo@?$CUtlArray@PADV?$CUtlMemory@PADH@@@@IAEXXZ ; CUtlArray<char *,CUtlMemory<char *,int> >::ResetDbgInfo
PUBLIC	?MESSAGE_BEGIN@@YAXHHPBMPAUentvars_s@@@Z	; MESSAGE_BEGIN
PUBLIC	??0IEntityFactory@@QAE@XZ			; IEntityFactory::IEntityFactory
PUBLIC	?ENT@@YAPAUedict_s@@PBUentvars_s@@@Z		; ENT
PUBLIC	?ENT@@YAPAUedict_s@@H@Z				; ENT
PUBLIC	?OFFSET@@YAHPBUedict_s@@@Z			; OFFSET
PUBLIC	?OFFSET@@YAHPAUentvars_s@@@Z			; OFFSET
PUBLIC	?VARS@@YAPAUentvars_s@@PAUedict_s@@@Z		; VARS
PUBLIC	?ENTINDEX@@YAHPAUedict_s@@@Z			; ENTINDEX
PUBLIC	?FNullEnt@@YAHH@Z				; FNullEnt
PUBLIC	?FNullEnt@@YAHPBUedict_s@@@Z			; FNullEnt
PUBLIC	?FNullEnt@@YAHPAUentvars_s@@@Z			; FNullEnt
PUBLIC	?FStrEq@@YAHPBD0@Z				; FStrEq
PUBLIC	?FClassnameIs@@YAHPAUedict_s@@PBD@Z		; FClassnameIs
PUBLIC	?FClassnameIs@@YAHPAUentvars_s@@PBD@Z		; FClassnameIs
PUBLIC	?EMIT_SOUND@@YAXPAUedict_s@@HPBDMM@Z		; EMIT_SOUND
PUBLIC	?Get@EHANDLE@@QAEPAUedict_s@@XZ			; EHANDLE::Get
PUBLIC	??BEHANDLE@@QAEHXZ				; EHANDLE::operator int
PUBLIC	??CEHANDLE@@QAEPAVCBaseEntity@@XZ		; EHANDLE::operator->
PUBLIC	?GetClassname@CBaseEntity@@QAEPBDXZ		; CBaseEntity::GetClassname
PUBLIC	?SetClassname@CBaseEntity@@QAEXPBD@Z		; CBaseEntity::SetClassname
PUBLIC	?Spawn@CBaseEntity@@UAEXXZ			; CBaseEntity::Spawn
PUBLIC	?Precache@CBaseEntity@@UAEXXZ			; CBaseEntity::Precache
PUBLIC	?KeyValue@CBaseEntity@@UAEXPAUKeyValueData_s@@@Z ; CBaseEntity::KeyValue
PUBLIC	?ObjectCaps@CBaseEntity@@UAEHXZ			; CBaseEntity::ObjectCaps
PUBLIC	?Activate@CBaseEntity@@UAEXXZ			; CBaseEntity::Activate
PUBLIC	?OnChangeLevel@CBaseEntity@@UAEXXZ		; CBaseEntity::OnChangeLevel
PUBLIC	?OnTeleport@CBaseEntity@@UAEXXZ			; CBaseEntity::OnTeleport
PUBLIC	?PortalSleep@CBaseEntity@@UAEXM@Z		; CBaseEntity::PortalSleep
PUBLIC	?StartMessage@CBaseEntity@@UAEXPAVCBasePlayer@@@Z ; CBaseEntity::StartMessage
PUBLIC	?GetPosition@CBaseEntity@@UAEMXZ		; CBaseEntity::GetPosition
PUBLIC	?OnChangeParent@CBaseEntity@@UAEXXZ		; CBaseEntity::OnChangeParent
PUBLIC	?OnClearParent@CBaseEntity@@UAEXXZ		; CBaseEntity::OnClearParent
PUBLIC	?OnRemove@CBaseEntity@@UAEXXZ			; CBaseEntity::OnRemove
PUBLIC	?Classify@CBaseEntity@@UAEHXZ			; CBaseEntity::Classify
PUBLIC	?DeathNotice@CBaseEntity@@UAEXPAUentvars_s@@@Z	; CBaseEntity::DeathNotice
PUBLIC	?IsRigidBody@CBaseEntity@@UAEHXZ		; CBaseEntity::IsRigidBody
PUBLIC	?GetState@CBaseEntity@@UAE?AW4STATE@@XZ		; CBaseEntity::GetState
PUBLIC	?GetState@CBaseEntity@@UAE?AW4STATE@@PAV1@@Z	; CBaseEntity::GetState
PUBLIC	?BloodColor@CBaseEntity@@UAEHXZ			; CBaseEntity::BloodColor
PUBLIC	?IsTriggered@CBaseEntity@@UAEHPAV1@@Z		; CBaseEntity::IsTriggered
PUBLIC	?MyMonsterPointer@CBaseEntity@@UAEPAVCBaseMonster@@XZ ; CBaseEntity::MyMonsterPointer
PUBLIC	?MySquadMonsterPointer@CBaseEntity@@UAEPAVCSquadMonster@@XZ ; CBaseEntity::MySquadMonsterPointer
PUBLIC	?GetToggleState@CBaseEntity@@UAEHXZ		; CBaseEntity::GetToggleState
PUBLIC	?AddPoints@CBaseEntity@@UAEXHH@Z		; CBaseEntity::AddPoints
PUBLIC	?AddPointsToTeam@CBaseEntity@@UAEXHH@Z		; CBaseEntity::AddPointsToTeam
PUBLIC	?AddPlayerItem@CBaseEntity@@UAEHPAVCBasePlayerItem@@@Z ; CBaseEntity::AddPlayerItem
PUBLIC	?RemovePlayerItem@CBaseEntity@@UAEHPAVCBasePlayerItem@@@Z ; CBaseEntity::RemovePlayerItem
PUBLIC	?GiveAmmo@CBaseEntity@@UAEHHPADH@Z		; CBaseEntity::GiveAmmo
PUBLIC	?GetDelay@CBaseEntity@@UAEMXZ			; CBaseEntity::GetDelay
PUBLIC	?IsMoving@CBaseEntity@@UAEHXZ			; CBaseEntity::IsMoving
PUBLIC	?OverrideReset@CBaseEntity@@UAEXXZ		; CBaseEntity::OverrideReset
PUBLIC	?TransferReset@CBaseEntity@@UAEXXZ		; CBaseEntity::TransferReset
PUBLIC	?SetToggleState@CBaseEntity@@UAEXH@Z		; CBaseEntity::SetToggleState
PUBLIC	?StartSneaking@CBaseEntity@@UAEXXZ		; CBaseEntity::StartSneaking
PUBLIC	?StopSneaking@CBaseEntity@@UAEXXZ		; CBaseEntity::StopSneaking
PUBLIC	?OnControls@CBaseEntity@@UAEHPAV1@@Z		; CBaseEntity::OnControls
PUBLIC	?IsSneaking@CBaseEntity@@UAEHXZ			; CBaseEntity::IsSneaking
PUBLIC	?IsAlive@CBaseEntity@@UAEHXZ			; CBaseEntity::IsAlive
PUBLIC	?IsBSPModel@CBaseEntity@@UAEHXZ			; CBaseEntity::IsBSPModel
PUBLIC	?IsCustomModel@CBaseEntity@@UAEHXZ		; CBaseEntity::IsCustomModel
PUBLIC	?ReflectGauss@CBaseEntity@@UAEHXZ		; CBaseEntity::ReflectGauss
PUBLIC	?HasTarget@CBaseEntity@@UAEHH@Z			; CBaseEntity::HasTarget
PUBLIC	?IsPlayer@CBaseEntity@@UAEHXZ			; CBaseEntity::IsPlayer
PUBLIC	?IsNetClient@CBaseEntity@@UAEHXZ		; CBaseEntity::IsNetClient
PUBLIC	?IsMonster@CBaseEntity@@UAEHXZ			; CBaseEntity::IsMonster
PUBLIC	?IsPushable@CBaseEntity@@UAEHXZ			; CBaseEntity::IsPushable
PUBLIC	?IsProjectile@CBaseEntity@@UAEHXZ		; CBaseEntity::IsProjectile
PUBLIC	?IsFuncScreen@CBaseEntity@@UAEHXZ		; CBaseEntity::IsFuncScreen
PUBLIC	?IsPortal@CBaseEntity@@UAEHXZ			; CBaseEntity::IsPortal
PUBLIC	?IsTank@CBaseEntity@@UAEHXZ			; CBaseEntity::IsTank
PUBLIC	?IsMover@CBaseEntity@@UAEHXZ			; CBaseEntity::IsMover
PUBLIC	?IsBreakable@CBaseEntity@@UAEHXZ		; CBaseEntity::IsBreakable
PUBLIC	?TeamID@CBaseEntity@@UAEPBDXZ			; CBaseEntity::TeamID
PUBLIC	?AddSpawnFlags@CBaseEntity@@UAEXH@Z		; CBaseEntity::AddSpawnFlags
PUBLIC	?HasSpawnFlags@CBaseEntity@@UBE_NH@Z		; CBaseEntity::HasSpawnFlags
PUBLIC	?SetFadeDistance@CBaseEntity@@UAEXH@Z		; CBaseEntity::SetFadeDistance
PUBLIC	?SetFlag@CBaseEntity@@UAEXH@Z			; CBaseEntity::SetFlag
PUBLIC	?HasFlag@CBaseEntity@@UBE_NH@Z			; CBaseEntity::HasFlag
PUBLIC	?RemoveFlag@CBaseEntity@@UAEXH@Z		; CBaseEntity::RemoveFlag
PUBLIC	?SetNullModel@CBaseEntity@@UAEXXZ		; CBaseEntity::SetNullModel
PUBLIC	?OnPickupObject@CBaseEntity@@UAEXXZ		; CBaseEntity::OnPickupObject
PUBLIC	?OnDropObject@CBaseEntity@@UAEXXZ		; CBaseEntity::OnDropObject
PUBLIC	?Think@CBaseEntity@@UAEXXZ			; CBaseEntity::Think
PUBLIC	?Use@CBaseEntity@@UAEXPAV1@0W4USE_TYPE@@M@Z	; CBaseEntity::Use
PUBLIC	?Touch@CBaseEntity@@UAEXPAV1@@Z			; CBaseEntity::Touch
PUBLIC	?Blocked@CBaseEntity@@UAEXPAV1@@Z		; CBaseEntity::Blocked
PUBLIC	?MoveDone@CBaseEntity@@UAEXXZ			; CBaseEntity::MoveDone
PUBLIC	??2CBaseEntity@@SAPAXIPAUentvars_s@@@Z		; CBaseEntity::operator new
PUBLIC	??3CBaseEntity@@SAXPAXPAUentvars_s@@@Z		; CBaseEntity::operator delete
PUBLIC	?Respawn@CBaseEntity@@UAEPAV1@XZ		; CBaseEntity::Respawn
PUBLIC	?Instance@CBaseEntity@@SAPAV1@PAUedict_s@@@Z	; CBaseEntity::Instance
PUBLIC	?FunctionCheck@CBaseEntity@@QAEXPAXPAD@Z	; CBaseEntity::FunctionCheck
PUBLIC	?ThinkSet@CBaseEntity@@QAEP81@AEXXZP81@AEXXZPAD@Z ; CBaseEntity::ThinkSet
PUBLIC	?TouchSet@CBaseEntity@@QAEP81@AEXPAV1@@ZP81@AEX0@ZPAD@Z ; CBaseEntity::TouchSet
PUBLIC	?GetGroundEntity@CBaseEntity@@QAEPAV1@XZ	; CBaseEntity::GetGroundEntity
PUBLIC	?UpdateOwner@CBaseEntity@@UAEXXZ		; CBaseEntity::UpdateOwner
PUBLIC	?FBecomeProne@CBaseEntity@@UAEHXZ		; CBaseEntity::FBecomeProne
PUBLIC	?edict@CBaseEntity@@QAEPAUedict_s@@XZ		; CBaseEntity::edict
PUBLIC	?Center@CBaseEntity@@UAE?AVVector@@XZ		; CBaseEntity::Center
PUBLIC	?EyePosition@CBaseEntity@@UAE?AVVector@@XZ	; CBaseEntity::EyePosition
PUBLIC	?EarPosition@CBaseEntity@@UAE?AVVector@@XZ	; CBaseEntity::EarPosition
PUBLIC	?BodyTarget@CBaseEntity@@UAE?AVVector@@ABV2@@Z	; CBaseEntity::BodyTarget
PUBLIC	?IsPointSized@CBaseEntity@@UBEHXZ		; CBaseEntity::IsPointSized
PUBLIC	?Illumination@CBaseEntity@@UAEHXZ		; CBaseEntity::Illumination
PUBLIC	??0CBaseEntity@@QAE@XZ				; CBaseEntity::CBaseEntity
PUBLIC	?GetState@CBaseDelay@@UAE?AW4STATE@@XZ		; CBaseDelay::GetState
PUBLIC	??0CBaseDelay@@QAE@XZ				; CBaseDelay::CBaseDelay
PUBLIC	?HandleAnimEvent@CBaseAnimating@@UAEXPAUMonsterEvent_t@@@Z ; CBaseAnimating::HandleAnimEvent
PUBLIC	??0CBaseAnimating@@QAE@XZ			; CBaseAnimating::CBaseAnimating
PUBLIC	?AddDuplicate@CBasePlayerItem@@UAEHPAV1@@Z	; CBasePlayerItem::AddDuplicate
PUBLIC	?GetItemInfo@CBasePlayerItem@@UAEHPAUItemInfo@@@Z ; CBasePlayerItem::GetItemInfo
PUBLIC	?CanDeploy@CBasePlayerItem@@UAEHXZ		; CBasePlayerItem::CanDeploy
PUBLIC	?Deploy@CBasePlayerItem@@UAEHXZ			; CBasePlayerItem::Deploy
PUBLIC	?CanHolster@CBasePlayerItem@@UAEHXZ		; CBasePlayerItem::CanHolster
PUBLIC	?UpdateItemInfo@CBasePlayerItem@@UAEXXZ		; CBasePlayerItem::UpdateItemInfo
PUBLIC	?ItemPreFrame@CBasePlayerItem@@UAEXXZ		; CBasePlayerItem::ItemPreFrame
PUBLIC	?ItemPostFrame@CBasePlayerItem@@UAEXXZ		; CBasePlayerItem::ItemPostFrame
PUBLIC	?PrimaryAmmoIndex@CBasePlayerItem@@UAEHXZ	; CBasePlayerItem::PrimaryAmmoIndex
PUBLIC	?SecondaryAmmoIndex@CBasePlayerItem@@UAEHXZ	; CBasePlayerItem::SecondaryAmmoIndex
PUBLIC	?UpdateClientData@CBasePlayerItem@@UAEHPAVCBasePlayer@@@Z ; CBasePlayerItem::UpdateClientData
PUBLIC	?GetWeaponPtr@CBasePlayerItem@@UAEPAV1@XZ	; CBasePlayerItem::GetWeaponPtr
PUBLIC	?iItemSlot@CBasePlayerItem@@UAEHXZ		; CBasePlayerItem::iItemSlot
PUBLIC	??0CBasePlayerItem@@QAE@XZ			; CBasePlayerItem::CBasePlayerItem
PUBLIC	?AddWeapon@CBasePlayerWeapon@@UAEHXZ		; CBasePlayerWeapon::AddWeapon
PUBLIC	?UpdateItemInfo@CBasePlayerWeapon@@UAEXXZ	; CBasePlayerWeapon::UpdateItemInfo
PUBLIC	?PrimaryAttack@CBasePlayerWeapon@@UAEXXZ	; CBasePlayerWeapon::PrimaryAttack
PUBLIC	?SecondaryAttack@CBasePlayerWeapon@@UAEXXZ	; CBasePlayerWeapon::SecondaryAttack
PUBLIC	?Reload@CBasePlayerWeapon@@UAEXXZ		; CBasePlayerWeapon::Reload
PUBLIC	?WeaponIdle@CBasePlayerWeapon@@UAEXXZ		; CBasePlayerWeapon::WeaponIdle
PUBLIC	?ShouldWeaponIdle@CBasePlayerWeapon@@UAEHXZ	; CBasePlayerWeapon::ShouldWeaponIdle
PUBLIC	?UseDecrement@CBasePlayerWeapon@@UAEHXZ		; CBasePlayerWeapon::UseDecrement
PUBLIC	?GetWeaponPtr@CBasePlayerWeapon@@UAEPAVCBasePlayerItem@@XZ ; CBasePlayerWeapon::GetWeaponPtr
PUBLIC	??0CBasePlayerWeapon@@QAE@XZ			; CBasePlayerWeapon::CBasePlayerWeapon
PUBLIC	?AddAmmo@CBasePlayerAmmo@@UAEHPAVCBaseEntity@@@Z ; CBasePlayerAmmo::AddAmmo
PUBLIC	??0CBasePlayerAmmo@@QAE@XZ			; CBasePlayerAmmo::CBasePlayerAmmo
PUBLIC	?Spawn@CCrossbowBolt@@EAEXXZ			; CCrossbowBolt::Spawn
PUBLIC	?Precache@CCrossbowBolt@@EAEXXZ			; CCrossbowBolt::Precache
PUBLIC	?Classify@CCrossbowBolt@@EAEHXZ			; CCrossbowBolt::Classify
PUBLIC	?BubbleThink@CCrossbowBolt@@AAEXXZ		; CCrossbowBolt::BubbleThink
PUBLIC	?BoltTouch@CCrossbowBolt@@AAEXPAVCBaseEntity@@@Z ; CCrossbowBolt::BoltTouch
PUBLIC	?ExplodeThink@CCrossbowBolt@@AAEXXZ		; CCrossbowBolt::ExplodeThink
PUBLIC	?IsProjectile@CCrossbowBolt@@EAEHXZ		; CCrossbowBolt::IsProjectile
PUBLIC	?TransferReset@CCrossbowBolt@@EAEXXZ		; CCrossbowBolt::TransferReset
PUBLIC	?OnChangeLevel@CCrossbowBolt@@EAEXXZ		; CCrossbowBolt::OnChangeLevel
PUBLIC	?OnTeleport@CCrossbowBolt@@EAEXXZ		; CCrossbowBolt::OnTeleport
PUBLIC	?PlayTouchSound@CCrossbowBolt@@AAEXPAVCBaseEntity@@@Z ; CCrossbowBolt::PlayTouchSound
PUBLIC	?GetBaseMap@CCrossbowBolt@@CAPAUdatamap_s@@XZ	; CCrossbowBolt::GetBaseMap
PUBLIC	?GetDataDescMap@CCrossbowBolt@@EAEPAUdatamap_s@@XZ ; CCrossbowBolt::GetDataDescMap
PUBLIC	?BoltCreate@CCrossbowBolt@@SAPAV1@XZ		; CCrossbowBolt::BoltCreate
PUBLIC	??0CCrossbowBolt@@QAE@XZ			; CCrossbowBolt::CCrossbowBolt
PUBLIC	??0?$CEntityFactory@VCCrossbowBolt@@@@QAE@PBD@Z	; CEntityFactory<CCrossbowBolt>::CEntityFactory<CCrossbowBolt>
PUBLIC	?Create@?$CEntityFactory@VCCrossbowBolt@@@@UAEPAVCBaseEntity@@PBDPAUentvars_s@@@Z ; CEntityFactory<CCrossbowBolt>::Create
PUBLIC	?Destroy@?$CEntityFactory@VCCrossbowBolt@@@@UAEXPAVCBaseEntity@@@Z ; CEntityFactory<CCrossbowBolt>::Destroy
PUBLIC	?GetEntitySize@?$CEntityFactory@VCCrossbowBolt@@@@UAEIXZ ; CEntityFactory<CCrossbowBolt>::GetEntitySize
PUBLIC	??$DataMapAccess@VCBaseEntity@@@@YAXPAVCBaseEntity@@PAPAUdatamap_s@@@Z ; DataMapAccess<CBaseEntity>
PUBLIC	??$DataMapInit@VCCrossbowBolt@@@@YAPAUdatamap_s@@PAVCCrossbowBolt@@@Z ; DataMapInit<CCrossbowBolt>
PUBLIC	??$GetClassPtr@VCCrossbowBolt@@@@YAPAVCCrossbowBolt@@PAV0@@Z ; GetClassPtr<CCrossbowBolt>
PUBLIC	?Spawn@CCrossbow@@UAEXXZ			; CCrossbow::Spawn
PUBLIC	?Precache@CCrossbow@@UAEXXZ			; CCrossbow::Precache
PUBLIC	?iItemSlot@CCrossbow@@UAEHXZ			; CCrossbow::iItemSlot
PUBLIC	?GetItemInfo@CCrossbow@@UAEHPAUItemInfo@@@Z	; CCrossbow::GetItemInfo
PUBLIC	?FireBolt@CCrossbow@@QAEXXZ			; CCrossbow::FireBolt
PUBLIC	?FireSniperBolt@CCrossbow@@QAEXXZ		; CCrossbow::FireSniperBolt
PUBLIC	?PrimaryAttack@CCrossbow@@UAEXXZ		; CCrossbow::PrimaryAttack
PUBLIC	?SecondaryAttack@CCrossbow@@UAEXXZ		; CCrossbow::SecondaryAttack
PUBLIC	?AddToPlayer@CCrossbow@@UAEHPAVCBasePlayer@@@Z	; CCrossbow::AddToPlayer
PUBLIC	?GetBaseMap@CCrossbow@@SAPAUdatamap_s@@XZ	; CCrossbow::GetBaseMap
PUBLIC	?GetDataDescMap@CCrossbow@@UAEPAUdatamap_s@@XZ	; CCrossbow::GetDataDescMap
PUBLIC	?Deploy@CCrossbow@@UAEHXZ			; CCrossbow::Deploy
PUBLIC	?Holster@CCrossbow@@UAEXXZ			; CCrossbow::Holster
PUBLIC	?Reload@CCrossbow@@UAEXXZ			; CCrossbow::Reload
PUBLIC	?WeaponIdle@CCrossbow@@UAEXXZ			; CCrossbow::WeaponIdle
PUBLIC	?ResetZoom@CCrossbow@@QAEXXZ			; CCrossbow::ResetZoom
PUBLIC	??0CCrossbow@@QAE@XZ				; CCrossbow::CCrossbow
PUBLIC	??0?$CEntityFactory@VCCrossbow@@@@QAE@PBD@Z	; CEntityFactory<CCrossbow>::CEntityFactory<CCrossbow>
PUBLIC	?Create@?$CEntityFactory@VCCrossbow@@@@UAEPAVCBaseEntity@@PBDPAUentvars_s@@@Z ; CEntityFactory<CCrossbow>::Create
PUBLIC	?Destroy@?$CEntityFactory@VCCrossbow@@@@UAEXPAVCBaseEntity@@@Z ; CEntityFactory<CCrossbow>::Destroy
PUBLIC	?GetEntitySize@?$CEntityFactory@VCCrossbow@@@@UAEIXZ ; CEntityFactory<CCrossbow>::GetEntitySize
PUBLIC	??$DataMapAccess@VCBasePlayerWeapon@@@@YAXPAVCBasePlayerWeapon@@PAPAUdatamap_s@@@Z ; DataMapAccess<CBasePlayerWeapon>
PUBLIC	??$DataMapInit@VCCrossbow@@@@YAPAUdatamap_s@@PAVCCrossbow@@@Z ; DataMapInit<CCrossbow>
PUBLIC	?Spawn@CCrossbowAmmo@@EAEXXZ			; CCrossbowAmmo::Spawn
PUBLIC	?Precache@CCrossbowAmmo@@EAEXXZ			; CCrossbowAmmo::Precache
PUBLIC	?AddAmmo@CCrossbowAmmo@@EAEHPAVCBaseEntity@@@Z	; CCrossbowAmmo::AddAmmo
PUBLIC	??0CCrossbowAmmo@@QAE@XZ			; CCrossbowAmmo::CCrossbowAmmo
PUBLIC	??0?$CEntityFactory@VCCrossbowAmmo@@@@QAE@PBD@Z	; CEntityFactory<CCrossbowAmmo>::CEntityFactory<CCrossbowAmmo>
PUBLIC	?Create@?$CEntityFactory@VCCrossbowAmmo@@@@UAEPAVCBaseEntity@@PBDPAUentvars_s@@@Z ; CEntityFactory<CCrossbowAmmo>::Create
PUBLIC	?Destroy@?$CEntityFactory@VCCrossbowAmmo@@@@UAEXPAVCBaseEntity@@@Z ; CEntityFactory<CCrossbowAmmo>::Destroy
PUBLIC	?GetEntitySize@?$CEntityFactory@VCCrossbowAmmo@@@@UAEIXZ ; CEntityFactory<CCrossbowAmmo>::GetEntitySize
PUBLIC	??$GetClassPtr@VCCrossbowAmmo@@@@YAPAVCCrossbowAmmo@@PAV0@PBD@Z ; GetClassPtr<CCrossbowAmmo>
PUBLIC	??$GetClassPtr@VCCrossbow@@@@YAPAVCCrossbow@@PAV0@PBD@Z ; GetClassPtr<CCrossbow>
PUBLIC	??$GetClassPtr@VCCrossbowBolt@@@@YAPAVCCrossbowBolt@@PAV0@PBD@Z ; GetClassPtr<CCrossbowBolt>
PUBLIC	??$CopyConstruct@PAD@@YAXPAPADABQAD@Z		; CopyConstruct<char *>
PUBLIC	??$Destruct@PAD@@YAXPAPAD@Z			; Destruct<char *>
PUBLIC	?_OptionsStorage@?1??__local_stdio_printf_options@@9@4_KA ; `__local_stdio_printf_options'::`2'::_OptionsStorage
PUBLIC	??_C@_00CNPNBAHC@?$AA@				; `string'
PUBLIC	??_C@_04EFCDBJNL@?$CFs?3?3?$AA@			; `string'
PUBLIC	??_7IEntityFactory@@6B@				; IEntityFactory::`vftable'
PUBLIC	??_C@_0BF@CPEPILID@Bad?5ent?5in?5OFFSET?$CI?$CJ?6?$AA@ ; `string'
PUBLIC	??_C@_0BF@DOONGEFO@Bad?5pev?5in?5OFFSET?$CI?$CJ?6?$AA@ ; `string'
PUBLIC	??_7CBaseEntity@@6B@				; CBaseEntity::`vftable'
PUBLIC	??_C@_06MLKDMCBD@parent?$AA@			; `string'
PUBLIC	??_C@_08JJJAOBDI@movewith?$AA@			; `string'
PUBLIC	??_C@_0M@EAELDHJO@parentflags?$AA@		; `string'
PUBLIC	??_C@_05IAKJCFIM@style?$AA@			; `string'
PUBLIC	??_C@_0L@IKCANML@reflection?$AA@		; `string'
PUBLIC	??_C@_0N@JILDNHAP@vlight_cache?$AA@		; `string'
PUBLIC	??_C@_0L@JIJDCONP@customname?$AA@		; `string'
PUBLIC	??_C@_0CH@HELFJPDL@FUNCTION?5NOT?5IN?5TABLE?$CB?3?5?$CFs?3?$CFs?5?$CI?$CF@ ; `string'
PUBLIC	??_7CBaseDelay@@6B@				; CBaseDelay::`vftable'
PUBLIC	??_7CBaseAnimating@@6B@				; CBaseAnimating::`vftable'
PUBLIC	??_C@_0BB@EMJBJDBM@sprites?1null?4spr?$AA@	; `string'
PUBLIC	??_C@_0BJ@EIFNLFLK@?$CGCBaseEntity?3?3SUB_Remove?$AA@ ; `string'
PUBLIC	??_7CBasePlayerItem@@6B@			; CBasePlayerItem::`vftable'
PUBLIC	??_7CBasePlayerWeapon@@6B@			; CBasePlayerWeapon::`vftable'
PUBLIC	??_7CBasePlayerAmmo@@6B@			; CBasePlayerAmmo::`vftable'
PUBLIC	??_7CCrossbowBolt@@6B@				; CCrossbowBolt::`vftable'
PUBLIC	??_7?$CEntityFactory@VCCrossbowBolt@@@@6B@	; CEntityFactory<CCrossbowBolt>::`vftable'
PUBLIC	??_C@_0O@BEIBOGJ@crossbow_bolt?$AA@		; `string'
PUBLIC	?g_DataMapHolder@CCrossbowBolt_DataDescInit@@3PAUdatamap_s@@A ; CCrossbowBolt_DataDescInit::g_DataMapHolder
PUBLIC	??_C@_0M@JCHJNPDF@BubbleThink?$AA@		; `string'
PUBLIC	??_C@_0N@PFFAMDBG@ExplodeThink?$AA@		; `string'
PUBLIC	??_C@_09KNKKCBKI@BoltTouch?$AA@			; `string'
PUBLIC	??_C@_0P@FANIOOGJ@PlayTouchSound?$AA@		; `string'
PUBLIC	??_C@_0BJ@LNJGAJBE@models?1crossbow_bolt?4mdl?$AA@ ; `string'
PUBLIC	??_C@_0BK@PKIBDBIH@?$CGCCrossbowBolt?3?3BoltTouch?$AA@ ; `string'
PUBLIC	??_C@_0BM@JNNCKABH@?$CGCCrossbowBolt?3?3BubbleThink?$AA@ ; `string'
PUBLIC	??_C@_0BJ@KHGAHBFE@weapons?1xbow_hitbod1?4wav?$AA@ ; `string'
PUBLIC	??_C@_0BJ@CBPEADPK@weapons?1xbow_hitbod2?4wav?$AA@ ; `string'
PUBLIC	??_C@_0BK@DFAHJJAI@weapons?1xbow_hitmetal?4wav?$AA@ ; `string'
PUBLIC	??_C@_0BG@NIMDOGJE@weapons?1xbow_fly1?4wav?$AA@	; `string'
PUBLIC	??_C@_0BG@DJDGFCKC@weapons?1xbow_hit1?4wav?$AA@	; `string'
PUBLIC	??_C@_0O@GAGAOGDF@fvox?1beep?4wav?$AA@		; `string'
PUBLIC	??_C@_0BD@FFDNFDIF@sprites?1streak?4spr?$AA@	; `string'
PUBLIC	??_C@_0BC@EJJKNDGP@SetNewParent?3?5?$CFs?6?$AA@	; `string'
PUBLIC	??_C@_0O@MDKCAHNO@monster_alice?$AA@		; `string'
PUBLIC	??_C@_0N@INNMLFB@_playerdrone?$AA@		; `string'
PUBLIC	??_C@_0O@EFJOMFML@_playersentry?$AA@		; `string'
PUBLIC	??_C@_04HIBGFPH@NULL?$AA@			; `string'
PUBLIC	??_7CCrossbow@@6B@				; CCrossbow::`vftable'
PUBLIC	??_7?$CEntityFactory@VCCrossbow@@@@6B@		; CEntityFactory<CCrossbow>::`vftable'
PUBLIC	??_C@_0BA@IMEECLKD@weapon_crossbow?$AA@		; `string'
PUBLIC	?g_DataMapHolder@CCrossbow_DataDescInit@@3PAUdatamap_s@@A ; CCrossbow_DataDescInit::g_DataMapHolder
PUBLIC	??_C@_0BG@OBBNACPI@models?1w_crossbow?4mdl?$AA@	; `string'
PUBLIC	??_C@_0BG@FIOGNJBA@models?1v_crossbow?4mdl?$AA@	; `string'
PUBLIC	??_C@_0BG@HKBMANOC@models?1p_crossbow?4mdl?$AA@	; `string'
PUBLIC	??_C@_0BH@OFCAHODE@weapons?1xbow_fire1?4wav?$AA@ ; `string'
PUBLIC	??_C@_0BJ@JLOJNCHH@weapons?1xbow_reload1?4wav?$AA@ ; `string'
PUBLIC	??_C@_0BH@PEMOGDHE@weapons?1xbow_scope?4wav?$AA@ ; `string'
PUBLIC	??_C@_05DGHJLCJD@bolts?$AA@			; `string'
PUBLIC	??_C@_03GMGBHMEH@bow?$AA@			; `string'
PUBLIC	??_C@_0L@BIFLFHPF@worldspawn?$AA@		; `string'
PUBLIC	??_C@_08MNDBFPDE@?9attack?6?$AA@		; `string'
PUBLIC	??_C@_09KNGNPJEJ@?$CBHEV_AMO0?$AA@		; `string'
PUBLIC	??_C@_09PBOOJJEI@?9attack2?6?$AA@		; `string'
PUBLIC	??_C@_0M@LPOJOBFH@default_fov?$AA@		; `string'
PUBLIC	??_C@_0DF@GEMHGODB@weapon_crossbow?5can?8t?5zoom?0?5defa@ ; `string'
PUBLIC	??_C@_08PEMEPKH@?9reload?6?$AA@			; `string'
PUBLIC	??_7CCrossbowAmmo@@6B@				; CCrossbowAmmo::`vftable'
PUBLIC	??_C@_0BL@OLELNEJC@models?1w_crossbow_clip?4mdl?$AA@ ; `string'
PUBLIC	??_C@_0BD@BADMCPNB@items?19mmclip1?4wav?$AA@	; `string'
PUBLIC	??_7?$CEntityFactory@VCCrossbowAmmo@@@@6B@	; CEntityFactory<CCrossbowAmmo>::`vftable'
PUBLIC	??_C@_0O@DMPMCOMO@ammo_crossbow?$AA@		; `string'
PUBLIC	??_C@_1JC@EMNIBBBG@?$AAd?$AA?3?$AA?2?$AA?$CB?$AAd?$AAi?$AAf?$AAf?$AAu?$AAs?$AAi?$AAo?$AAn?$AA?5?$AA2?$AA0?$AA2?$AA0?$AA?2?$AAs?$AAo?$AAu?$AAr?$AAc?$AAe?$AA?5?$AAc?$AAo?$AAd?$AAe?$AA?5?$AA2@ ; `string'
PUBLIC	??_C@_1IK@DGJDJNN@?$AA?$CI?$AAB?$AAa?$AAs?$AAe?$AA?$CI?$AA?$CJ?$AA?5?$AA?$DN?$AA?$DN?$AA?5?$AAN?$AAU?$AAL?$AAL?$AA?$CJ?$AA?5?$AA?$HM?$AA?$HM?$AA?5?$AA?$CI?$AA?$CG?$AAs?$AAr?$AAc?$AA?5?$AA?$DM?$AA?5?$AAB?$AAa?$AAs?$AAe@ ; `string'
PUBLIC	??_C@_1JE@CIIIAKCN@?$AAd?$AA?3?$AA?2?$AA?$CB?$AAd?$AAi?$AAf?$AAf?$AAu?$AAs?$AAi?$AAo?$AAn?$AA?5?$AA2?$AA0?$AA2?$AA0?$AA?2?$AAs?$AAo?$AAu?$AAr?$AAc?$AAe?$AA?5?$AAc?$AAo?$AAd?$AAe?$AA?5?$AA2@ ; `string'
PUBLIC	??_C@_1BO@FOOHAONO@?$AAn?$AAG?$AAr?$AAo?$AAw?$AAS?$AAi?$AAz?$AAe?$AA?5?$AA?$DO?$AA?$DN?$AA?5?$AA0?$AA?$AA@ ; `string'
PUBLIC	??_C@_1BM@PFNFCCHH@?$AA?$CB?$AAI?$AAs?$AAR?$AAe?$AAa?$AAd?$AAO?$AAn?$AAl?$AAy?$AA?$CI?$AA?$CJ?$AA?$AA@ ; `string'
PUBLIC	??_C@_1BM@CKILBAKK@?$AAI?$AAs?$AAI?$AAd?$AAx?$AAV?$AAa?$AAl?$AAi?$AAd?$AA?$CI?$AAi?$AA?$CJ?$AA?$AA@ ; `string'
PUBLIC	??_C@_1FA@BPFBJKPF@?$AA?$CI?$AAe?$AAl?$AAe?$AAm?$AA?5?$AA?$DN?$AA?$DN?$AA?5?$AAC?$AAo?$AAu?$AAn?$AAt?$AA?$CI?$AA?$CJ?$AA?$CJ?$AA?5?$AA?$HM?$AA?$HM?$AA?5?$AAI?$AAs?$AAV?$AAa?$AAl?$AAi?$AAd?$AAI?$AAn?$AAd?$AAe@ ; `string'
PUBLIC	??_C@_1GM@CDMJDFPA@?$AAI?$AAs?$AAV?$AAa?$AAl?$AAi?$AAd?$AAI?$AAn?$AAd?$AAe?$AAx?$AA?$CI?$AAe?$AAl?$AAe?$AAm?$AA?$CJ?$AA?5?$AA?$HM?$AA?$HM?$AA?5?$AA?$CI?$AA?5?$AAm?$AA_?$AAS?$AAi?$AAz?$AAe?$AA?5?$AA?$DN@ ; `string'
PUBLIC	??_C@_1BA@PKCLMAEA@?$AAn?$AAu?$AAm?$AA?5?$AA?$DO?$AA?5?$AA0?$AA?$AA@ ; `string'
PUBLIC	??_C@_13COJANIEC@?$AA0?$AA?$AA@			; `string'
PUBLIC	??_C@_1BE@OPPFELHC@?$AAm?$AA_?$AAp?$AAM?$AAe?$AAm?$AAo?$AAr?$AAy?$AA?$AA@ ; `string'
PUBLIC	??_R4CBaseEntity@@6B@				; CBaseEntity::`RTTI Complete Object Locator'
PUBLIC	??_R0?AVCBaseEntity@@@8				; CBaseEntity `RTTI Type Descriptor'
PUBLIC	??_R3CBaseEntity@@8				; CBaseEntity::`RTTI Class Hierarchy Descriptor'
PUBLIC	??_R2CBaseEntity@@8				; CBaseEntity::`RTTI Base Class Array'
PUBLIC	??_R1A@?0A@EA@CBaseEntity@@8			; CBaseEntity::`RTTI Base Class Descriptor at (0,-1,0,64)'
PUBLIC	??_R4IEntityFactory@@6B@			; IEntityFactory::`RTTI Complete Object Locator'
PUBLIC	??_R0?AVIEntityFactory@@@8			; IEntityFactory `RTTI Type Descriptor'
PUBLIC	??_R3IEntityFactory@@8				; IEntityFactory::`RTTI Class Hierarchy Descriptor'
PUBLIC	??_R2IEntityFactory@@8				; IEntityFactory::`RTTI Base Class Array'
PUBLIC	??_R1A@?0A@EA@IEntityFactory@@8			; IEntityFactory::`RTTI Base Class Descriptor at (0,-1,0,64)'
PUBLIC	??_R4CBasePlayerItem@@6B@			; CBasePlayerItem::`RTTI Complete Object Locator'
PUBLIC	??_R0?AVCBasePlayerItem@@@8			; CBasePlayerItem `RTTI Type Descriptor'
PUBLIC	??_R3CBasePlayerItem@@8				; CBasePlayerItem::`RTTI Class Hierarchy Descriptor'
PUBLIC	??_R2CBasePlayerItem@@8				; CBasePlayerItem::`RTTI Base Class Array'
PUBLIC	??_R1A@?0A@EA@CBasePlayerItem@@8		; CBasePlayerItem::`RTTI Base Class Descriptor at (0,-1,0,64)'
PUBLIC	??_R1A@?0A@EA@CBaseAnimating@@8			; CBaseAnimating::`RTTI Base Class Descriptor at (0,-1,0,64)'
PUBLIC	??_R0?AVCBaseAnimating@@@8			; CBaseAnimating `RTTI Type Descriptor'
PUBLIC	??_R3CBaseAnimating@@8				; CBaseAnimating::`RTTI Class Hierarchy Descriptor'
PUBLIC	??_R2CBaseAnimating@@8				; CBaseAnimating::`RTTI Base Class Array'
PUBLIC	??_R1A@?0A@EA@CBaseDelay@@8			; CBaseDelay::`RTTI Base Class Descriptor at (0,-1,0,64)'
PUBLIC	??_R0?AVCBaseDelay@@@8				; CBaseDelay `RTTI Type Descriptor'
PUBLIC	??_R3CBaseDelay@@8				; CBaseDelay::`RTTI Class Hierarchy Descriptor'
PUBLIC	??_R2CBaseDelay@@8				; CBaseDelay::`RTTI Base Class Array'
PUBLIC	??_R4CBaseDelay@@6B@				; CBaseDelay::`RTTI Complete Object Locator'
PUBLIC	??_R4CBaseAnimating@@6B@			; CBaseAnimating::`RTTI Complete Object Locator'
PUBLIC	??_R4CBasePlayerWeapon@@6B@			; CBasePlayerWeapon::`RTTI Complete Object Locator'
PUBLIC	??_R0?AVCBasePlayerWeapon@@@8			; CBasePlayerWeapon `RTTI Type Descriptor'
PUBLIC	??_R3CBasePlayerWeapon@@8			; CBasePlayerWeapon::`RTTI Class Hierarchy Descriptor'
PUBLIC	??_R2CBasePlayerWeapon@@8			; CBasePlayerWeapon::`RTTI Base Class Array'
PUBLIC	??_R1A@?0A@EA@CBasePlayerWeapon@@8		; CBasePlayerWeapon::`RTTI Base Class Descriptor at (0,-1,0,64)'
PUBLIC	??_R4CBasePlayerAmmo@@6B@			; CBasePlayerAmmo::`RTTI Complete Object Locator'
PUBLIC	??_R0?AVCBasePlayerAmmo@@@8			; CBasePlayerAmmo `RTTI Type Descriptor'
PUBLIC	??_R3CBasePlayerAmmo@@8				; CBasePlayerAmmo::`RTTI Class Hierarchy Descriptor'
PUBLIC	??_R2CBasePlayerAmmo@@8				; CBasePlayerAmmo::`RTTI Base Class Array'
PUBLIC	??_R1A@?0A@EA@CBasePlayerAmmo@@8		; CBasePlayerAmmo::`RTTI Base Class Descriptor at (0,-1,0,64)'
PUBLIC	??_R4CCrossbowBolt@@6B@				; CCrossbowBolt::`RTTI Complete Object Locator'
PUBLIC	??_R0?AVCCrossbowBolt@@@8			; CCrossbowBolt `RTTI Type Descriptor'
PUBLIC	??_R3CCrossbowBolt@@8				; CCrossbowBolt::`RTTI Class Hierarchy Descriptor'
PUBLIC	??_R2CCrossbowBolt@@8				; CCrossbowBolt::`RTTI Base Class Array'
PUBLIC	??_R1A@?0A@EA@CCrossbowBolt@@8			; CCrossbowBolt::`RTTI Base Class Descriptor at (0,-1,0,64)'
PUBLIC	??_R4?$CEntityFactory@VCCrossbowBolt@@@@6B@	; CEntityFactory<CCrossbowBolt>::`RTTI Complete Object Locator'
PUBLIC	??_R0?AV?$CEntityFactory@VCCrossbowBolt@@@@@8	; CEntityFactory<CCrossbowBolt> `RTTI Type Descriptor'
PUBLIC	??_R3?$CEntityFactory@VCCrossbowBolt@@@@8	; CEntityFactory<CCrossbowBolt>::`RTTI Class Hierarchy Descriptor'
PUBLIC	??_R2?$CEntityFactory@VCCrossbowBolt@@@@8	; CEntityFactory<CCrossbowBolt>::`RTTI Base Class Array'
PUBLIC	??_R1A@?0A@EA@?$CEntityFactory@VCCrossbowBolt@@@@8 ; CEntityFactory<CCrossbowBolt>::`RTTI Base Class Descriptor at (0,-1,0,64)'
PUBLIC	??_R4CCrossbow@@6B@				; CCrossbow::`RTTI Complete Object Locator'
PUBLIC	??_R0?AVCCrossbow@@@8				; CCrossbow `RTTI Type Descriptor'
PUBLIC	??_R3CCrossbow@@8				; CCrossbow::`RTTI Class Hierarchy Descriptor'
PUBLIC	??_R2CCrossbow@@8				; CCrossbow::`RTTI Base Class Array'
PUBLIC	??_R1A@?0A@EA@CCrossbow@@8			; CCrossbow::`RTTI Base Class Descriptor at (0,-1,0,64)'
PUBLIC	??_R4?$CEntityFactory@VCCrossbow@@@@6B@		; CEntityFactory<CCrossbow>::`RTTI Complete Object Locator'
PUBLIC	??_R0?AV?$CEntityFactory@VCCrossbow@@@@@8	; CEntityFactory<CCrossbow> `RTTI Type Descriptor'
PUBLIC	??_R3?$CEntityFactory@VCCrossbow@@@@8		; CEntityFactory<CCrossbow>::`RTTI Class Hierarchy Descriptor'
PUBLIC	??_R2?$CEntityFactory@VCCrossbow@@@@8		; CEntityFactory<CCrossbow>::`RTTI Base Class Array'
PUBLIC	??_R1A@?0A@EA@?$CEntityFactory@VCCrossbow@@@@8	; CEntityFactory<CCrossbow>::`RTTI Base Class Descriptor at (0,-1,0,64)'
PUBLIC	??_R4CCrossbowAmmo@@6B@				; CCrossbowAmmo::`RTTI Complete Object Locator'
PUBLIC	??_R0?AVCCrossbowAmmo@@@8			; CCrossbowAmmo `RTTI Type Descriptor'
PUBLIC	??_R3CCrossbowAmmo@@8				; CCrossbowAmmo::`RTTI Class Hierarchy Descriptor'
PUBLIC	??_R2CCrossbowAmmo@@8				; CCrossbowAmmo::`RTTI Base Class Array'
PUBLIC	??_R1A@?0A@EA@CCrossbowAmmo@@8			; CCrossbowAmmo::`RTTI Base Class Descriptor at (0,-1,0,64)'
PUBLIC	??_R4?$CEntityFactory@VCCrossbowAmmo@@@@6B@	; CEntityFactory<CCrossbowAmmo>::`RTTI Complete Object Locator'
PUBLIC	??_R0?AV?$CEntityFactory@VCCrossbowAmmo@@@@@8	; CEntityFactory<CCrossbowAmmo> `RTTI Type Descriptor'
PUBLIC	??_R3?$CEntityFactory@VCCrossbowAmmo@@@@8	; CEntityFactory<CCrossbowAmmo>::`RTTI Class Hierarchy Descriptor'
PUBLIC	??_R2?$CEntityFactory@VCCrossbowAmmo@@@@8	; CEntityFactory<CCrossbowAmmo>::`RTTI Base Class Array'
PUBLIC	??_R1A@?0A@EA@?$CEntityFactory@VCCrossbowAmmo@@@@8 ; CEntityFactory<CCrossbowAmmo>::`RTTI Base Class Descriptor at (0,-1,0,64)'
PUBLIC	__real@00000000
PUBLIC	__real@3d0ef2c6
PUBLIC	__real@3dcccccd
PUBLIC	__real@3e19999a
PUBLIC	__real@3e800000
PUBLIC	__real@3eb33333
PUBLIC	__real@3f000000
PUBLIC	__real@3f400000
PUBLIC	__real@3f4ccccd
PUBLIC	__real@3f733333
PUBLIC	__real@3f800000
PUBLIC	__real@3fc00000
PUBLIC	__real@3fc999999999999a
PUBLIC	__real@3fe0000000000000
PUBLIC	__real@3fe8000000000000
PUBLIC	__real@40000000
PUBLIC	__real@4005555555555555
PUBLIC	__real@4008000000000000
PUBLIC	__real@4014000000000000
PUBLIC	__real@40900000
PUBLIC	__real@40a00000
PUBLIC	__real@41200000
PUBLIC	__real@41400000
PUBLIC	__real@41700000
PUBLIC	__real@41a00000
PUBLIC	__real@42000000
PUBLIC	__real@42200000
PUBLIC	__real@42dc0000
PUBLIC	__real@42f00000
PUBLIC	__real@43000000
PUBLIC	__real@43700000
PUBLIC	__real@44bb8000
PUBLIC	__real@455ac000
PUBLIC	__real@46000000
PUBLIC	__real@c2000000
EXTRN	__purecall:PROC
EXTRN	??3@YAXPAXI@Z:PROC				; operator delete
EXTRN	??_U@YAPAXI@Z:PROC				; operator new[]
EXTRN	_atexit:PROC
EXTRN	__Init_thread_header:PROC
EXTRN	__Init_thread_abort:PROC
EXTRN	__Init_thread_footer:PROC
EXTRN	_memmove:PROC
EXTRN	_memset:PROC
EXTRN	_strcat:PROC
EXTRN	_strlen:PROC
EXTRN	___stdio_common_vsprintf:PROC
EXTRN	_free:PROC
EXTRN	_malloc:PROC
EXTRN	_realloc:PROC
EXTRN	_atoi:PROC
EXTRN	_sqrt:PROC
EXTRN	??0matrix4x4@@QAE@XZ:PROC			; matrix4x4::matrix4x4
EXTRN	?Q_atoi@@YAHPBD@Z:PROC				; Q_atoi
EXTRN	?Q_strncmp@@YAHPBD0H@Z:PROC			; Q_strncmp
EXTRN	__wassert:PROC
EXTRN	?UTIL_Remove@@YAXPAVCBaseEntity@@@Z:PROC	; UTIL_Remove
EXTRN	?EntityFactoryDictionary@@YAPAVIEntityFactoryDictionary@@XZ:PROC ; EntityFactoryDictionary
EXTRN	?DBG_EntOfVars@@YAPAUedict_s@@PBUentvars_s@@@Z:PROC ; DBG_EntOfVars
EXTRN	?UTIL_SetSize@@YAXPAUentvars_s@@ABVVector@@1@Z:PROC ; UTIL_SetSize
EXTRN	?UTIL_VecToAngles@@YA?AVVector@@ABV1@@Z:PROC	; UTIL_VecToAngles
EXTRN	?UTIL_MakeVectors@@YAXABVVector@@@Z:PROC	; UTIL_MakeVectors
EXTRN	?UTIL_SetOrigin@@YAXPAVCBaseEntity@@ABVVector@@@Z:PROC ; UTIL_SetOrigin
EXTRN	?UTIL_ScreenFade@@YAXPAVCBaseEntity@@ABVVector@@MMHH@Z:PROC ; UTIL_ScreenFade
EXTRN	?UTIL_TraceLine@@YAXABVVector@@0W4IGNORE_MONSTERS@@PAUedict_s@@PAUgametrace_s@@@Z:PROC ; UTIL_TraceLine
EXTRN	?UTIL_TraceHull@@YAXABVVector@@0W4IGNORE_MONSTERS@@HPAUedict_s@@PAUgametrace_s@@@Z:PROC ; UTIL_TraceHull
EXTRN	?UTIL_GetGlobalTrace@@YA?AUgametrace_s@@XZ:PROC	; UTIL_GetGlobalTrace
EXTRN	?UTIL_PointContents@@YAHABVVector@@@Z:PROC	; UTIL_PointContents
EXTRN	?UTIL_Sparks@@YAXABVVector@@@Z:PROC		; UTIL_Sparks
EXTRN	?UTIL_BubbleTrail@@YAXVVector@@0H@Z:PROC	; UTIL_BubbleTrail
EXTRN	?UTIL_PrecacheOther@@YAXPBD@Z:PROC		; UTIL_PrecacheOther
EXTRN	?EMIT_SOUND_DYN@@YAXPAUedict_s@@HPBDMMHH@Z:PROC	; EMIT_SOUND_DYN
EXTRN	?UTIL_GetModelType@@YA?AW4modtype_t@@H@Z:PROC	; UTIL_GetModelType
EXTRN	?UTIL_FunctionToName@@YAPBDPAUdatamap_s@@PAX@Z:PROC ; UTIL_FunctionToName
EXTRN	??0CMeshDesc@@QAE@XZ:PROC			; CMeshDesc::CMeshDesc
EXTRN	??1CMeshDesc@@QAE@XZ:PROC			; CMeshDesc::~CMeshDesc
EXTRN	?GetDataDescMap@CBaseEntity@@UAEPAUdatamap_s@@XZ:PROC ; CBaseEntity::GetDataDescMap
EXTRN	?SetAbsOrigin@CBaseEntity@@QAEXABVVector@@@Z:PROC ; CBaseEntity::SetAbsOrigin
EXTRN	?GetAbsOrigin@CBaseEntity@@QBEABVVector@@XZ:PROC ; CBaseEntity::GetAbsOrigin
EXTRN	?SetAbsAngles@CBaseEntity@@QAEXABVVector@@@Z:PROC ; CBaseEntity::SetAbsAngles
EXTRN	?GetAbsAngles@CBaseEntity@@QBEABVVector@@XZ:PROC ; CBaseEntity::GetAbsAngles
EXTRN	?SetLocalAngles@CBaseEntity@@QAEXABVVector@@@Z:PROC ; CBaseEntity::SetLocalAngles
EXTRN	?GetLocalAngles@CBaseEntity@@QBEABVVector@@XZ:PROC ; CBaseEntity::GetLocalAngles
EXTRN	?SetLocalVelocity@CBaseEntity@@QAEXABVVector@@@Z:PROC ; CBaseEntity::SetLocalVelocity
EXTRN	?GetLocalVelocity@CBaseEntity@@QBEABVVector@@XZ:PROC ; CBaseEntity::GetLocalVelocity
EXTRN	?SetLocalAvelocity@CBaseEntity@@QAEXABVVector@@@Z:PROC ; CBaseEntity::SetLocalAvelocity
EXTRN	?SetAbsVelocity@CBaseEntity@@QAEXABVVector@@@Z:PROC ; CBaseEntity::SetAbsVelocity
EXTRN	?GetAbsVelocity@CBaseEntity@@QBEABVVector@@XZ:PROC ; CBaseEntity::GetAbsVelocity
EXTRN	?SetParent@CBaseEntity@@QAEXHH@Z:PROC		; CBaseEntity::SetParent
EXTRN	?SetParent@CBaseEntity@@QAEXPAV1@H@Z:PROC	; CBaseEntity::SetParent
EXTRN	?Save@CBaseEntity@@UAEHAAVCSave@@@Z:PROC	; CBaseEntity::Save
EXTRN	?Restore@CBaseEntity@@UAEHAAVCRestore@@@Z:PROC	; CBaseEntity::Restore
EXTRN	?SetObjectCollisionBox@CBaseEntity@@UAEXXZ:PROC	; CBaseEntity::SetObjectCollisionBox
EXTRN	?SetNextThink@CBaseEntity@@UAEXM@Z:PROC		; CBaseEntity::SetNextThink
EXTRN	?TraceAttack@CBaseEntity@@UAEXPAUentvars_s@@MVVector@@PAUgametrace_s@@H@Z:PROC ; CBaseEntity::TraceAttack
EXTRN	?TakeDamage@CBaseEntity@@UAEHPAUentvars_s@@0MH@Z:PROC ; CBaseEntity::TakeDamage
EXTRN	?TakeHealth@CBaseEntity@@UAEHMH@Z:PROC		; CBaseEntity::TakeHealth
EXTRN	?TakeArmor@CBaseEntity@@UAEHMH@Z:PROC		; CBaseEntity::TakeArmor
EXTRN	?Killed@CBaseEntity@@UAEXPAUentvars_s@@H@Z:PROC	; CBaseEntity::Killed
EXTRN	?TraceBleed@CBaseEntity@@UAEXMVVector@@PAUgametrace_s@@H@Z:PROC ; CBaseEntity::TraceBleed
EXTRN	?DamageDecal@CBaseEntity@@UAEHH@Z:PROC		; CBaseEntity::DamageDecal
EXTRN	?IsInWorld@CBaseEntity@@UAEHH@Z:PROC		; CBaseEntity::IsInWorld
EXTRN	?GetNextTarget@CBaseEntity@@UAEPAV1@XZ:PROC	; CBaseEntity::GetNextTarget
EXTRN	?SUB_Remove@CBaseEntity@@QAEXXZ:PROC		; CBaseEntity::SUB_Remove
EXTRN	?RelinkEntity@CBaseEntity@@QAEXHPBVVector@@H@Z:PROC ; CBaseEntity::RelinkEntity
EXTRN	?Create@CBaseEntity@@SAPAV1@PADABVVector@@1PAUedict_s@@@Z:PROC ; CBaseEntity::Create
EXTRN	?FVisible@CBaseEntity@@UAEHPAV1@@Z:PROC		; CBaseEntity::FVisible
EXTRN	?FVisible@CBaseEntity@@UAEHABVVector@@@Z:PROC	; CBaseEntity::FVisible
EXTRN	?ShouldCollide@CBaseEntity@@UAEHPAV1@@Z:PROC	; CBaseEntity::ShouldCollide
EXTRN	?ClearEffects@CBaseEntity@@UAEXXZ:PROC		; CBaseEntity::ClearEffects
EXTRN	?KeyValue@CBaseDelay@@UAEXPAUKeyValueData_s@@@Z:PROC ; CBaseDelay::KeyValue
EXTRN	?GetDataDescMap@CBaseDelay@@UAEPAUdatamap_s@@XZ:PROC ; CBaseDelay::GetDataDescMap
EXTRN	?GetDataDescMap@CBaseAnimating@@UAEPAUdatamap_s@@XZ:PROC ; CBaseAnimating::GetDataDescMap
EXTRN	?PlayPickupSound@@YAXPAVCBaseEntity@@H@Z:PROC	; PlayPickupSound
EXTRN	?PlayClientSound@@YAXPAVCBaseEntity@@HHHVVector@@@Z:PROC ; PlayClientSound
EXTRN	?SetObjectCollisionBox@CBasePlayerItem@@UAEXXZ:PROC ; CBasePlayerItem::SetObjectCollisionBox
EXTRN	?GetDataDescMap@CBasePlayerItem@@UAEPAUdatamap_s@@XZ:PROC ; CBasePlayerItem::GetDataDescMap
EXTRN	?AddToPlayer@CBasePlayerItem@@UAEHPAVCBasePlayer@@@Z:PROC ; CBasePlayerItem::AddToPlayer
EXTRN	?Respawn@CBasePlayerItem@@UAEPAVCBaseEntity@@XZ:PROC ; CBasePlayerItem::Respawn
EXTRN	?FallInit@CBasePlayerItem@@QAEXXZ:PROC		; CBasePlayerItem::FallInit
EXTRN	?Holster@CBasePlayerItem@@UAEXXZ:PROC		; CBasePlayerItem::Holster
EXTRN	?Drop@CBasePlayerItem@@UAEXXZ:PROC		; CBasePlayerItem::Drop
EXTRN	?Kill@CBasePlayerItem@@UAEXXZ:PROC		; CBasePlayerItem::Kill
EXTRN	?AttachToPlayer@CBasePlayerItem@@UAEXPAVCBasePlayer@@@Z:PROC ; CBasePlayerItem::AttachToPlayer
EXTRN	?GetDataDescMap@CBasePlayerWeapon@@UAEPAUdatamap_s@@XZ:PROC ; CBasePlayerWeapon::GetDataDescMap
EXTRN	?AddToPlayer@CBasePlayerWeapon@@UAEHPAVCBasePlayer@@@Z:PROC ; CBasePlayerWeapon::AddToPlayer
EXTRN	?AddDuplicate@CBasePlayerWeapon@@UAEHPAVCBasePlayerItem@@@Z:PROC ; CBasePlayerWeapon::AddDuplicate
EXTRN	?ExtractAmmo@CBasePlayerWeapon@@UAEHPAV1@@Z:PROC ; CBasePlayerWeapon::ExtractAmmo
EXTRN	?ExtractClipAmmo@CBasePlayerWeapon@@UAEHPAV1@@Z:PROC ; CBasePlayerWeapon::ExtractClipAmmo
EXTRN	?PlayEmptySound@CBasePlayerWeapon@@UAEHXZ:PROC	; CBasePlayerWeapon::PlayEmptySound
EXTRN	?ResetEmptySound@CBasePlayerWeapon@@UAEXXZ:PROC	; CBasePlayerWeapon::ResetEmptySound
EXTRN	?SendWeaponAnim@CBasePlayerWeapon@@UAEXHHH@Z:PROC ; CBasePlayerWeapon::SendWeaponAnim
EXTRN	?CanDeploy@CBasePlayerWeapon@@UAEHXZ:PROC	; CBasePlayerWeapon::CanDeploy
EXTRN	?IsUseable@CBasePlayerWeapon@@UAEHXZ:PROC	; CBasePlayerWeapon::IsUseable
EXTRN	?DefaultDeploy@CBasePlayerWeapon@@QAEHPAD0H0HH@Z:PROC ; CBasePlayerWeapon::DefaultDeploy
EXTRN	?DefaultReload@CBasePlayerWeapon@@QAEHHHMH@Z:PROC ; CBasePlayerWeapon::DefaultReload
EXTRN	?ItemPostFrame@CBasePlayerWeapon@@UAEXXZ:PROC	; CBasePlayerWeapon::ItemPostFrame
EXTRN	?UpdateClientData@CBasePlayerWeapon@@UAEHPAVCBasePlayer@@@Z:PROC ; CBasePlayerWeapon::UpdateClientData
EXTRN	?RetireWeapon@CBasePlayerWeapon@@UAEXXZ:PROC	; CBasePlayerWeapon::RetireWeapon
EXTRN	?Holster@CBasePlayerWeapon@@UAEXXZ:PROC		; CBasePlayerWeapon::Holster
EXTRN	?LowAmmoMsg@CBasePlayerWeapon@@UAEXPAVCBasePlayer@@@Z:PROC ; CBasePlayerWeapon::LowAmmoMsg
EXTRN	?PrimaryAmmoIndex@CBasePlayerWeapon@@UAEHXZ:PROC ; CBasePlayerWeapon::PrimaryAmmoIndex
EXTRN	?SecondaryAmmoIndex@CBasePlayerWeapon@@UAEHXZ:PROC ; CBasePlayerWeapon::SecondaryAmmoIndex
EXTRN	?Spawn@CBasePlayerAmmo@@UAEXXZ:PROC		; CBasePlayerAmmo::Spawn
EXTRN	?Respawn@CBasePlayerAmmo@@UAEPAVCBaseEntity@@XZ:PROC ; CBasePlayerAmmo::Respawn
EXTRN	?GetDataDescMap@CBasePlayerAmmo@@UAEPAUdatamap_s@@XZ:PROC ; CBasePlayerAmmo::GetDataDescMap
EXTRN	?ClearMultiDamage@@YAXXZ:PROC			; ClearMultiDamage
EXTRN	?ApplyMultiDamage@@YAXPAUentvars_s@@0@Z:PROC	; ApplyMultiDamage
EXTRN	?RadiusDamage@@YAXVVector@@PAUentvars_s@@1MMHH@Z:PROC ; RadiusDamage
EXTRN	?SetAnimation@CBasePlayer@@QAEXW4PLAYER_ANIM@@@Z:PROC ; CBasePlayer::SetAnimation
EXTRN	?SetSuitUpdate@CBasePlayer@@QAEXPADHH@Z:PROC	; CBasePlayer::SetSuitUpdate
EXTRN	?GetAutoaimVector@CBasePlayer@@QAE?AVVector@@M@Z:PROC ; CBasePlayer::GetAutoaimVector
EXTRN	?InsertSound@CSoundEnt@@SAXHABVVector@@HMH@Z:PROC ; CSoundEnt::InsertSound
EXTRN	@__security_check_cookie@4:PROC
EXTRN	___CxxFrameHandler3:PROC
EXTRN	__Init_thread_epoch:DWORD
EXTRN	?g_vecZero@@3VVector@@B:BYTE			; g_vecZero
EXTRN	?g_engfuncs@@3Uenginefuncs_s@@A:BYTE		; g_engfuncs
EXTRN	??_7type_info@@6B@:QWORD			; type_info::`vftable'
EXTRN	?gpGlobals@@3PAUglobalvars_t@@A:DWORD		; gpGlobals
EXTRN	?m_DataMap@CBaseEntity@@2Udatamap_s@@A:BYTE	; CBaseEntity::m_DataMap
EXTRN	?gmsgTempEnt@@3HA:DWORD				; gmsgTempEnt
EXTRN	?gmsgWeapPickup@@3HA:DWORD			; gmsgWeapPickup
EXTRN	?gmsgZoom@@3HA:DWORD				; gmsgZoom
EXTRN	?m_DataMap@CBasePlayerWeapon@@2Udatamap_s@@A:BYTE ; CBasePlayerWeapon::m_DataMap
EXTRN	?g_sModelIndexFireball@@3FA:WORD		; g_sModelIndexFireball
EXTRN	?g_sModelIndexWExplosion@@3FA:WORD		; g_sModelIndexWExplosion
EXTRN	___security_cookie:DWORD
EXTRN	__fltused:DWORD
EXTRN	__tls_array:DWORD
EXTRN	__tls_index:DWORD
;	COMDAT ?_OptionsStorage@?1??__local_stdio_printf_options@@9@4_KA
_BSS	SEGMENT
?_OptionsStorage@?1??__local_stdio_printf_options@@9@4_KA DQ 01H DUP (?) ; `__local_stdio_printf_options'::`2'::_OptionsStorage
_BSS	ENDS
_BSS	SEGMENT
?crossbow_bolt@@3V?$CEntityFactory@VCCrossbowBolt@@@@A DD 01H DUP (?) ; crossbow_bolt
?g_DataMapHolder@CCrossbowBolt_DataDescInit@@3PAUdatamap_s@@A DD 01H DUP (?) ; CCrossbowBolt_DataDescInit::g_DataMapHolder
?nameHolder@?1???$DataMapInit@VCCrossbowBolt@@@@YAPAUdatamap_s@@PAVCCrossbowBolt@@@Z@4VCDatadescGeneratedNameHolder@@A DB 01cH DUP (?) ; `DataMapInit<CCrossbowBolt>'::`2'::nameHolder
?$TSS0@?1???$DataMapInit@VCCrossbowBolt@@@@YAPAUdatamap_s@@PAVCCrossbowBolt@@@Z@4HA DD 01H DUP (?) ; `DataMapInit<CCrossbowBolt>'::`2'::$TSS0
?$TSS1@?1???$DataMapInit@VCCrossbowBolt@@@@YAPAUdatamap_s@@PAVCCrossbowBolt@@@Z@4HA DD 01H DUP (?) ; `DataMapInit<CCrossbowBolt>'::`2'::$TSS1
?weapon_crossbow@@3V?$CEntityFactory@VCCrossbow@@@@A DD 01H DUP (?) ; weapon_crossbow
?g_DataMapHolder@CCrossbow_DataDescInit@@3PAUdatamap_s@@A DD 01H DUP (?) ; CCrossbow_DataDescInit::g_DataMapHolder
?nameHolder@?1???$DataMapInit@VCCrossbow@@@@YAPAUdatamap_s@@PAVCCrossbow@@@Z@4VCDatadescGeneratedNameHolder@@A DB 01cH DUP (?) ; `DataMapInit<CCrossbow>'::`2'::nameHolder
?$TSS0@?1???$DataMapInit@VCCrossbow@@@@YAPAUdatamap_s@@PAVCCrossbow@@@Z@4HA DD 01H DUP (?) ; `DataMapInit<CCrossbow>'::`2'::$TSS0
?ammo_crossbow@@3V?$CEntityFactory@VCCrossbowAmmo@@@@A DD 01H DUP (?) ; ammo_crossbow
_BSS	ENDS
CRT$XCU	SEGMENT
?crossbow_bolt$initializer$@@3P6AXXZA DD FLAT:??__Ecrossbow_bolt@@YAXXZ ; crossbow_bolt$initializer$
CRT$XCU	ENDS
;	COMDAT __real@c2000000
CONST	SEGMENT
__real@c2000000 DD 0c2000000r			; -32
CONST	ENDS
;	COMDAT __real@46000000
CONST	SEGMENT
__real@46000000 DD 046000000r			; 8192
CONST	ENDS
;	COMDAT __real@455ac000
CONST	SEGMENT
__real@455ac000 DD 0455ac000r			; 3500
CONST	ENDS
;	COMDAT __real@44bb8000
CONST	SEGMENT
__real@44bb8000 DD 044bb8000r			; 1500
CONST	ENDS
;	COMDAT __real@43700000
CONST	SEGMENT
__real@43700000 DD 043700000r			; 240
CONST	ENDS
;	COMDAT __real@43000000
CONST	SEGMENT
__real@43000000 DD 043000000r			; 128
CONST	ENDS
;	COMDAT __real@42f00000
CONST	SEGMENT
__real@42f00000 DD 042f00000r			; 120
CONST	ENDS
;	COMDAT __real@42dc0000
CONST	SEGMENT
__real@42dc0000 DD 042dc0000r			; 110
CONST	ENDS
;	COMDAT __real@42200000
CONST	SEGMENT
__real@42200000 DD 042200000r			; 40
CONST	ENDS
;	COMDAT __real@42000000
CONST	SEGMENT
__real@42000000 DD 042000000r			; 32
CONST	ENDS
;	COMDAT __real@41a00000
CONST	SEGMENT
__real@41a00000 DD 041a00000r			; 20
CONST	ENDS
;	COMDAT __real@41700000
CONST	SEGMENT
__real@41700000 DD 041700000r			; 15
CONST	ENDS
;	COMDAT __real@41400000
CONST	SEGMENT
__real@41400000 DD 041400000r			; 12
CONST	ENDS
;	COMDAT __real@41200000
CONST	SEGMENT
__real@41200000 DD 041200000r			; 10
CONST	ENDS
;	COMDAT __real@40a00000
CONST	SEGMENT
__real@40a00000 DD 040a00000r			; 5
CONST	ENDS
;	COMDAT __real@40900000
CONST	SEGMENT
__real@40900000 DD 040900000r			; 4.5
CONST	ENDS
;	COMDAT __real@4014000000000000
CONST	SEGMENT
__real@4014000000000000 DQ 04014000000000000r	; 5
CONST	ENDS
;	COMDAT __real@4008000000000000
CONST	SEGMENT
__real@4008000000000000 DQ 04008000000000000r	; 3
CONST	ENDS
;	COMDAT __real@4005555555555555
CONST	SEGMENT
__real@4005555555555555 DQ 04005555555555555r	; 2.66667
CONST	ENDS
;	COMDAT __real@40000000
CONST	SEGMENT
__real@40000000 DD 040000000r			; 2
CONST	ENDS
;	COMDAT __real@3fe8000000000000
CONST	SEGMENT
__real@3fe8000000000000 DQ 03fe8000000000000r	; 0.75
CONST	ENDS
;	COMDAT __real@3fe0000000000000
CONST	SEGMENT
__real@3fe0000000000000 DQ 03fe0000000000000r	; 0.5
CONST	ENDS
;	COMDAT __real@3fc999999999999a
CONST	SEGMENT
__real@3fc999999999999a DQ 03fc999999999999ar	; 0.2
CONST	ENDS
;	COMDAT __real@3fc00000
CONST	SEGMENT
__real@3fc00000 DD 03fc00000r			; 1.5
CONST	ENDS
;	COMDAT __real@3f800000
CONST	SEGMENT
__real@3f800000 DD 03f800000r			; 1
CONST	ENDS
;	COMDAT __real@3f733333
CONST	SEGMENT
__real@3f733333 DD 03f733333r			; 0.95
CONST	ENDS
;	COMDAT __real@3f4ccccd
CONST	SEGMENT
__real@3f4ccccd DD 03f4ccccdr			; 0.8
CONST	ENDS
;	COMDAT __real@3f400000
CONST	SEGMENT
__real@3f400000 DD 03f400000r			; 0.75
CONST	ENDS
;	COMDAT __real@3f000000
CONST	SEGMENT
__real@3f000000 DD 03f000000r			; 0.5
CONST	ENDS
;	COMDAT __real@3eb33333
CONST	SEGMENT
__real@3eb33333 DD 03eb33333r			; 0.35
CONST	ENDS
;	COMDAT __real@3e800000
CONST	SEGMENT
__real@3e800000 DD 03e800000r			; 0.25
CONST	ENDS
;	COMDAT __real@3e19999a
CONST	SEGMENT
__real@3e19999a DD 03e19999ar			; 0.15
CONST	ENDS
;	COMDAT __real@3dcccccd
CONST	SEGMENT
__real@3dcccccd DD 03dcccccdr			; 0.1
CONST	ENDS
;	COMDAT __real@3d0ef2c6
CONST	SEGMENT
__real@3d0ef2c6 DD 03d0ef2c6r			; 0.0348995
CONST	ENDS
;	COMDAT __real@00000000
CONST	SEGMENT
__real@00000000 DD 000000000r			; 0
CONST	ENDS
;	COMDAT ??_R1A@?0A@EA@?$CEntityFactory@VCCrossbowAmmo@@@@8
rdata$r	SEGMENT
??_R1A@?0A@EA@?$CEntityFactory@VCCrossbowAmmo@@@@8 DD FLAT:??_R0?AV?$CEntityFactory@VCCrossbowAmmo@@@@@8 ; CEntityFactory<CCrossbowAmmo>::`RTTI Base Class Descriptor at (0,-1,0,64)'
	DD	01H
	DD	00H
	DD	0ffffffffH
	DD	00H
	DD	040H
	DD	FLAT:??_R3?$CEntityFactory@VCCrossbowAmmo@@@@8
rdata$r	ENDS
;	COMDAT ??_R2?$CEntityFactory@VCCrossbowAmmo@@@@8
rdata$r	SEGMENT
??_R2?$CEntityFactory@VCCrossbowAmmo@@@@8 DD FLAT:??_R1A@?0A@EA@?$CEntityFactory@VCCrossbowAmmo@@@@8 ; CEntityFactory<CCrossbowAmmo>::`RTTI Base Class Array'
	DD	FLAT:??_R1A@?0A@EA@IEntityFactory@@8
rdata$r	ENDS
;	COMDAT ??_R3?$CEntityFactory@VCCrossbowAmmo@@@@8
rdata$r	SEGMENT
??_R3?$CEntityFactory@VCCrossbowAmmo@@@@8 DD 00H	; CEntityFactory<CCrossbowAmmo>::`RTTI Class Hierarchy Descriptor'
	DD	00H
	DD	02H
	DD	FLAT:??_R2?$CEntityFactory@VCCrossbowAmmo@@@@8
rdata$r	ENDS
;	COMDAT ??_R0?AV?$CEntityFactory@VCCrossbowAmmo@@@@@8
data$r	SEGMENT
??_R0?AV?$CEntityFactory@VCCrossbowAmmo@@@@@8 DD FLAT:??_7type_info@@6B@ ; CEntityFactory<CCrossbowAmmo> `RTTI Type Descriptor'
	DD	00H
	DB	'.?AV?$CEntityFactory@VCCrossbowAmmo@@@@', 00H
data$r	ENDS
;	COMDAT ??_R4?$CEntityFactory@VCCrossbowAmmo@@@@6B@
rdata$r	SEGMENT
??_R4?$CEntityFactory@VCCrossbowAmmo@@@@6B@ DD 00H	; CEntityFactory<CCrossbowAmmo>::`RTTI Complete Object Locator'
	DD	00H
	DD	00H
	DD	FLAT:??_R0?AV?$CEntityFactory@VCCrossbowAmmo@@@@@8
	DD	FLAT:??_R3?$CEntityFactory@VCCrossbowAmmo@@@@8
rdata$r	ENDS
;	COMDAT ??_R1A@?0A@EA@CCrossbowAmmo@@8
rdata$r	SEGMENT
??_R1A@?0A@EA@CCrossbowAmmo@@8 DD FLAT:??_R0?AVCCrossbowAmmo@@@8 ; CCrossbowAmmo::`RTTI Base Class Descriptor at (0,-1,0,64)'
	DD	02H
	DD	00H
	DD	0ffffffffH
	DD	00H
	DD	040H
	DD	FLAT:??_R3CCrossbowAmmo@@8
rdata$r	ENDS
;	COMDAT ??_R2CCrossbowAmmo@@8
rdata$r	SEGMENT
??_R2CCrossbowAmmo@@8 DD FLAT:??_R1A@?0A@EA@CCrossbowAmmo@@8 ; CCrossbowAmmo::`RTTI Base Class Array'
	DD	FLAT:??_R1A@?0A@EA@CBasePlayerAmmo@@8
	DD	FLAT:??_R1A@?0A@EA@CBaseEntity@@8
rdata$r	ENDS
;	COMDAT ??_R3CCrossbowAmmo@@8
rdata$r	SEGMENT
??_R3CCrossbowAmmo@@8 DD 00H				; CCrossbowAmmo::`RTTI Class Hierarchy Descriptor'
	DD	00H
	DD	03H
	DD	FLAT:??_R2CCrossbowAmmo@@8
rdata$r	ENDS
;	COMDAT ??_R0?AVCCrossbowAmmo@@@8
data$r	SEGMENT
??_R0?AVCCrossbowAmmo@@@8 DD FLAT:??_7type_info@@6B@	; CCrossbowAmmo `RTTI Type Descriptor'
	DD	00H
	DB	'.?AVCCrossbowAmmo@@', 00H
data$r	ENDS
;	COMDAT ??_R4CCrossbowAmmo@@6B@
rdata$r	SEGMENT
??_R4CCrossbowAmmo@@6B@ DD 00H				; CCrossbowAmmo::`RTTI Complete Object Locator'
	DD	00H
	DD	00H
	DD	FLAT:??_R0?AVCCrossbowAmmo@@@8
	DD	FLAT:??_R3CCrossbowAmmo@@8
rdata$r	ENDS
;	COMDAT ??_R1A@?0A@EA@?$CEntityFactory@VCCrossbow@@@@8
rdata$r	SEGMENT
??_R1A@?0A@EA@?$CEntityFactory@VCCrossbow@@@@8 DD FLAT:??_R0?AV?$CEntityFactory@VCCrossbow@@@@@8 ; CEntityFactory<CCrossbow>::`RTTI Base Class Descriptor at (0,-1,0,64)'
	DD	01H
	DD	00H
	DD	0ffffffffH
	DD	00H
	DD	040H
	DD	FLAT:??_R3?$CEntityFactory@VCCrossbow@@@@8
rdata$r	ENDS
;	COMDAT ??_R2?$CEntityFactory@VCCrossbow@@@@8
rdata$r	SEGMENT
??_R2?$CEntityFactory@VCCrossbow@@@@8 DD FLAT:??_R1A@?0A@EA@?$CEntityFactory@VCCrossbow@@@@8 ; CEntityFactory<CCrossbow>::`RTTI Base Class Array'
	DD	FLAT:??_R1A@?0A@EA@IEntityFactory@@8
rdata$r	ENDS
;	COMDAT ??_R3?$CEntityFactory@VCCrossbow@@@@8
rdata$r	SEGMENT
??_R3?$CEntityFactory@VCCrossbow@@@@8 DD 00H		; CEntityFactory<CCrossbow>::`RTTI Class Hierarchy Descriptor'
	DD	00H
	DD	02H
	DD	FLAT:??_R2?$CEntityFactory@VCCrossbow@@@@8
rdata$r	ENDS
;	COMDAT ??_R0?AV?$CEntityFactory@VCCrossbow@@@@@8
data$r	SEGMENT
??_R0?AV?$CEntityFactory@VCCrossbow@@@@@8 DD FLAT:??_7type_info@@6B@ ; CEntityFactory<CCrossbow> `RTTI Type Descriptor'
	DD	00H
	DB	'.?AV?$CEntityFactory@VCCrossbow@@@@', 00H
data$r	ENDS
;	COMDAT ??_R4?$CEntityFactory@VCCrossbow@@@@6B@
rdata$r	SEGMENT
??_R4?$CEntityFactory@VCCrossbow@@@@6B@ DD 00H		; CEntityFactory<CCrossbow>::`RTTI Complete Object Locator'
	DD	00H
	DD	00H
	DD	FLAT:??_R0?AV?$CEntityFactory@VCCrossbow@@@@@8
	DD	FLAT:??_R3?$CEntityFactory@VCCrossbow@@@@8
rdata$r	ENDS
;	COMDAT ??_R1A@?0A@EA@CCrossbow@@8
rdata$r	SEGMENT
??_R1A@?0A@EA@CCrossbow@@8 DD FLAT:??_R0?AVCCrossbow@@@8 ; CCrossbow::`RTTI Base Class Descriptor at (0,-1,0,64)'
	DD	05H
	DD	00H
	DD	0ffffffffH
	DD	00H
	DD	040H
	DD	FLAT:??_R3CCrossbow@@8
rdata$r	ENDS
;	COMDAT ??_R2CCrossbow@@8
rdata$r	SEGMENT
??_R2CCrossbow@@8 DD FLAT:??_R1A@?0A@EA@CCrossbow@@8	; CCrossbow::`RTTI Base Class Array'
	DD	FLAT:??_R1A@?0A@EA@CBasePlayerWeapon@@8
	DD	FLAT:??_R1A@?0A@EA@CBasePlayerItem@@8
	DD	FLAT:??_R1A@?0A@EA@CBaseAnimating@@8
	DD	FLAT:??_R1A@?0A@EA@CBaseDelay@@8
	DD	FLAT:??_R1A@?0A@EA@CBaseEntity@@8
rdata$r	ENDS
;	COMDAT ??_R3CCrossbow@@8
rdata$r	SEGMENT
??_R3CCrossbow@@8 DD 00H				; CCrossbow::`RTTI Class Hierarchy Descriptor'
	DD	00H
	DD	06H
	DD	FLAT:??_R2CCrossbow@@8
rdata$r	ENDS
;	COMDAT ??_R0?AVCCrossbow@@@8
data$r	SEGMENT
??_R0?AVCCrossbow@@@8 DD FLAT:??_7type_info@@6B@	; CCrossbow `RTTI Type Descriptor'
	DD	00H
	DB	'.?AVCCrossbow@@', 00H
data$r	ENDS
;	COMDAT ??_R4CCrossbow@@6B@
rdata$r	SEGMENT
??_R4CCrossbow@@6B@ DD 00H				; CCrossbow::`RTTI Complete Object Locator'
	DD	00H
	DD	00H
	DD	FLAT:??_R0?AVCCrossbow@@@8
	DD	FLAT:??_R3CCrossbow@@8
rdata$r	ENDS
;	COMDAT ??_R1A@?0A@EA@?$CEntityFactory@VCCrossbowBolt@@@@8
rdata$r	SEGMENT
??_R1A@?0A@EA@?$CEntityFactory@VCCrossbowBolt@@@@8 DD FLAT:??_R0?AV?$CEntityFactory@VCCrossbowBolt@@@@@8 ; CEntityFactory<CCrossbowBolt>::`RTTI Base Class Descriptor at (0,-1,0,64)'
	DD	01H
	DD	00H
	DD	0ffffffffH
	DD	00H
	DD	040H
	DD	FLAT:??_R3?$CEntityFactory@VCCrossbowBolt@@@@8
rdata$r	ENDS
;	COMDAT ??_R2?$CEntityFactory@VCCrossbowBolt@@@@8
rdata$r	SEGMENT
??_R2?$CEntityFactory@VCCrossbowBolt@@@@8 DD FLAT:??_R1A@?0A@EA@?$CEntityFactory@VCCrossbowBolt@@@@8 ; CEntityFactory<CCrossbowBolt>::`RTTI Base Class Array'
	DD	FLAT:??_R1A@?0A@EA@IEntityFactory@@8
rdata$r	ENDS
;	COMDAT ??_R3?$CEntityFactory@VCCrossbowBolt@@@@8
rdata$r	SEGMENT
??_R3?$CEntityFactory@VCCrossbowBolt@@@@8 DD 00H	; CEntityFactory<CCrossbowBolt>::`RTTI Class Hierarchy Descriptor'
	DD	00H
	DD	02H
	DD	FLAT:??_R2?$CEntityFactory@VCCrossbowBolt@@@@8
rdata$r	ENDS
;	COMDAT ??_R0?AV?$CEntityFactory@VCCrossbowBolt@@@@@8
data$r	SEGMENT
??_R0?AV?$CEntityFactory@VCCrossbowBolt@@@@@8 DD FLAT:??_7type_info@@6B@ ; CEntityFactory<CCrossbowBolt> `RTTI Type Descriptor'
	DD	00H
	DB	'.?AV?$CEntityFactory@VCCrossbowBolt@@@@', 00H
data$r	ENDS
;	COMDAT ??_R4?$CEntityFactory@VCCrossbowBolt@@@@6B@
rdata$r	SEGMENT
??_R4?$CEntityFactory@VCCrossbowBolt@@@@6B@ DD 00H	; CEntityFactory<CCrossbowBolt>::`RTTI Complete Object Locator'
	DD	00H
	DD	00H
	DD	FLAT:??_R0?AV?$CEntityFactory@VCCrossbowBolt@@@@@8
	DD	FLAT:??_R3?$CEntityFactory@VCCrossbowBolt@@@@8
rdata$r	ENDS
;	COMDAT ??_R1A@?0A@EA@CCrossbowBolt@@8
rdata$r	SEGMENT
??_R1A@?0A@EA@CCrossbowBolt@@8 DD FLAT:??_R0?AVCCrossbowBolt@@@8 ; CCrossbowBolt::`RTTI Base Class Descriptor at (0,-1,0,64)'
	DD	01H
	DD	00H
	DD	0ffffffffH
	DD	00H
	DD	040H
	DD	FLAT:??_R3CCrossbowBolt@@8
rdata$r	ENDS
;	COMDAT ??_R2CCrossbowBolt@@8
rdata$r	SEGMENT
??_R2CCrossbowBolt@@8 DD FLAT:??_R1A@?0A@EA@CCrossbowBolt@@8 ; CCrossbowBolt::`RTTI Base Class Array'
	DD	FLAT:??_R1A@?0A@EA@CBaseEntity@@8
rdata$r	ENDS
;	COMDAT ??_R3CCrossbowBolt@@8
rdata$r	SEGMENT
??_R3CCrossbowBolt@@8 DD 00H				; CCrossbowBolt::`RTTI Class Hierarchy Descriptor'
	DD	00H
	DD	02H
	DD	FLAT:??_R2CCrossbowBolt@@8
rdata$r	ENDS
;	COMDAT ??_R0?AVCCrossbowBolt@@@8
data$r	SEGMENT
??_R0?AVCCrossbowBolt@@@8 DD FLAT:??_7type_info@@6B@	; CCrossbowBolt `RTTI Type Descriptor'
	DD	00H
	DB	'.?AVCCrossbowBolt@@', 00H
data$r	ENDS
;	COMDAT ??_R4CCrossbowBolt@@6B@
rdata$r	SEGMENT
??_R4CCrossbowBolt@@6B@ DD 00H				; CCrossbowBolt::`RTTI Complete Object Locator'
	DD	00H
	DD	00H
	DD	FLAT:??_R0?AVCCrossbowBolt@@@8
	DD	FLAT:??_R3CCrossbowBolt@@8
rdata$r	ENDS
;	COMDAT ??_R1A@?0A@EA@CBasePlayerAmmo@@8
rdata$r	SEGMENT
??_R1A@?0A@EA@CBasePlayerAmmo@@8 DD FLAT:??_R0?AVCBasePlayerAmmo@@@8 ; CBasePlayerAmmo::`RTTI Base Class Descriptor at (0,-1,0,64)'
	DD	01H
	DD	00H
	DD	0ffffffffH
	DD	00H
	DD	040H
	DD	FLAT:??_R3CBasePlayerAmmo@@8
rdata$r	ENDS
;	COMDAT ??_R2CBasePlayerAmmo@@8
rdata$r	SEGMENT
??_R2CBasePlayerAmmo@@8 DD FLAT:??_R1A@?0A@EA@CBasePlayerAmmo@@8 ; CBasePlayerAmmo::`RTTI Base Class Array'
	DD	FLAT:??_R1A@?0A@EA@CBaseEntity@@8
rdata$r	ENDS
;	COMDAT ??_R3CBasePlayerAmmo@@8
rdata$r	SEGMENT
??_R3CBasePlayerAmmo@@8 DD 00H				; CBasePlayerAmmo::`RTTI Class Hierarchy Descriptor'
	DD	00H
	DD	02H
	DD	FLAT:??_R2CBasePlayerAmmo@@8
rdata$r	ENDS
;	COMDAT ??_R0?AVCBasePlayerAmmo@@@8
data$r	SEGMENT
??_R0?AVCBasePlayerAmmo@@@8 DD FLAT:??_7type_info@@6B@	; CBasePlayerAmmo `RTTI Type Descriptor'
	DD	00H
	DB	'.?AVCBasePlayerAmmo@@', 00H
data$r	ENDS
;	COMDAT ??_R4CBasePlayerAmmo@@6B@
rdata$r	SEGMENT
??_R4CBasePlayerAmmo@@6B@ DD 00H			; CBasePlayerAmmo::`RTTI Complete Object Locator'
	DD	00H
	DD	00H
	DD	FLAT:??_R0?AVCBasePlayerAmmo@@@8
	DD	FLAT:??_R3CBasePlayerAmmo@@8
rdata$r	ENDS
;	COMDAT ??_R1A@?0A@EA@CBasePlayerWeapon@@8
rdata$r	SEGMENT
??_R1A@?0A@EA@CBasePlayerWeapon@@8 DD FLAT:??_R0?AVCBasePlayerWeapon@@@8 ; CBasePlayerWeapon::`RTTI Base Class Descriptor at (0,-1,0,64)'
	DD	04H
	DD	00H
	DD	0ffffffffH
	DD	00H
	DD	040H
	DD	FLAT:??_R3CBasePlayerWeapon@@8
rdata$r	ENDS
;	COMDAT ??_R2CBasePlayerWeapon@@8
rdata$r	SEGMENT
??_R2CBasePlayerWeapon@@8 DD FLAT:??_R1A@?0A@EA@CBasePlayerWeapon@@8 ; CBasePlayerWeapon::`RTTI Base Class Array'
	DD	FLAT:??_R1A@?0A@EA@CBasePlayerItem@@8
	DD	FLAT:??_R1A@?0A@EA@CBaseAnimating@@8
	DD	FLAT:??_R1A@?0A@EA@CBaseDelay@@8
	DD	FLAT:??_R1A@?0A@EA@CBaseEntity@@8
rdata$r	ENDS
;	COMDAT ??_R3CBasePlayerWeapon@@8
rdata$r	SEGMENT
??_R3CBasePlayerWeapon@@8 DD 00H			; CBasePlayerWeapon::`RTTI Class Hierarchy Descriptor'
	DD	00H
	DD	05H
	DD	FLAT:??_R2CBasePlayerWeapon@@8
rdata$r	ENDS
;	COMDAT ??_R0?AVCBasePlayerWeapon@@@8
data$r	SEGMENT
??_R0?AVCBasePlayerWeapon@@@8 DD FLAT:??_7type_info@@6B@ ; CBasePlayerWeapon `RTTI Type Descriptor'
	DD	00H
	DB	'.?AVCBasePlayerWeapon@@', 00H
data$r	ENDS
;	COMDAT ??_R4CBasePlayerWeapon@@6B@
rdata$r	SEGMENT
??_R4CBasePlayerWeapon@@6B@ DD 00H			; CBasePlayerWeapon::`RTTI Complete Object Locator'
	DD	00H
	DD	00H
	DD	FLAT:??_R0?AVCBasePlayerWeapon@@@8
	DD	FLAT:??_R3CBasePlayerWeapon@@8
rdata$r	ENDS
;	COMDAT ??_R4CBaseAnimating@@6B@
rdata$r	SEGMENT
??_R4CBaseAnimating@@6B@ DD 00H				; CBaseAnimating::`RTTI Complete Object Locator'
	DD	00H
	DD	00H
	DD	FLAT:??_R0?AVCBaseAnimating@@@8
	DD	FLAT:??_R3CBaseAnimating@@8
rdata$r	ENDS
;	COMDAT ??_R4CBaseDelay@@6B@
rdata$r	SEGMENT
??_R4CBaseDelay@@6B@ DD 00H				; CBaseDelay::`RTTI Complete Object Locator'
	DD	00H
	DD	00H
	DD	FLAT:??_R0?AVCBaseDelay@@@8
	DD	FLAT:??_R3CBaseDelay@@8
rdata$r	ENDS
;	COMDAT ??_R2CBaseDelay@@8
rdata$r	SEGMENT
??_R2CBaseDelay@@8 DD FLAT:??_R1A@?0A@EA@CBaseDelay@@8	; CBaseDelay::`RTTI Base Class Array'
	DD	FLAT:??_R1A@?0A@EA@CBaseEntity@@8
rdata$r	ENDS
;	COMDAT ??_R3CBaseDelay@@8
rdata$r	SEGMENT
??_R3CBaseDelay@@8 DD 00H				; CBaseDelay::`RTTI Class Hierarchy Descriptor'
	DD	00H
	DD	02H
	DD	FLAT:??_R2CBaseDelay@@8
rdata$r	ENDS
;	COMDAT ??_R0?AVCBaseDelay@@@8
data$r	SEGMENT
??_R0?AVCBaseDelay@@@8 DD FLAT:??_7type_info@@6B@	; CBaseDelay `RTTI Type Descriptor'
	DD	00H
	DB	'.?AVCBaseDelay@@', 00H
data$r	ENDS
;	COMDAT ??_R1A@?0A@EA@CBaseDelay@@8
rdata$r	SEGMENT
??_R1A@?0A@EA@CBaseDelay@@8 DD FLAT:??_R0?AVCBaseDelay@@@8 ; CBaseDelay::`RTTI Base Class Descriptor at (0,-1,0,64)'
	DD	01H
	DD	00H
	DD	0ffffffffH
	DD	00H
	DD	040H
	DD	FLAT:??_R3CBaseDelay@@8
rdata$r	ENDS
;	COMDAT ??_R2CBaseAnimating@@8
rdata$r	SEGMENT
??_R2CBaseAnimating@@8 DD FLAT:??_R1A@?0A@EA@CBaseAnimating@@8 ; CBaseAnimating::`RTTI Base Class Array'
	DD	FLAT:??_R1A@?0A@EA@CBaseDelay@@8
	DD	FLAT:??_R1A@?0A@EA@CBaseEntity@@8
rdata$r	ENDS
;	COMDAT ??_R3CBaseAnimating@@8
rdata$r	SEGMENT
??_R3CBaseAnimating@@8 DD 00H				; CBaseAnimating::`RTTI Class Hierarchy Descriptor'
	DD	00H
	DD	03H
	DD	FLAT:??_R2CBaseAnimating@@8
rdata$r	ENDS
;	COMDAT ??_R0?AVCBaseAnimating@@@8
data$r	SEGMENT
??_R0?AVCBaseAnimating@@@8 DD FLAT:??_7type_info@@6B@	; CBaseAnimating `RTTI Type Descriptor'
	DD	00H
	DB	'.?AVCBaseAnimating@@', 00H
data$r	ENDS
;	COMDAT ??_R1A@?0A@EA@CBaseAnimating@@8
rdata$r	SEGMENT
??_R1A@?0A@EA@CBaseAnimating@@8 DD FLAT:??_R0?AVCBaseAnimating@@@8 ; CBaseAnimating::`RTTI Base Class Descriptor at (0,-1,0,64)'
	DD	02H
	DD	00H
	DD	0ffffffffH
	DD	00H
	DD	040H
	DD	FLAT:??_R3CBaseAnimating@@8
rdata$r	ENDS
;	COMDAT ??_R1A@?0A@EA@CBasePlayerItem@@8
rdata$r	SEGMENT
??_R1A@?0A@EA@CBasePlayerItem@@8 DD FLAT:??_R0?AVCBasePlayerItem@@@8 ; CBasePlayerItem::`RTTI Base Class Descriptor at (0,-1,0,64)'
	DD	03H
	DD	00H
	DD	0ffffffffH
	DD	00H
	DD	040H
	DD	FLAT:??_R3CBasePlayerItem@@8
rdata$r	ENDS
;	COMDAT ??_R2CBasePlayerItem@@8
rdata$r	SEGMENT
??_R2CBasePlayerItem@@8 DD FLAT:??_R1A@?0A@EA@CBasePlayerItem@@8 ; CBasePlayerItem::`RTTI Base Class Array'
	DD	FLAT:??_R1A@?0A@EA@CBaseAnimating@@8
	DD	FLAT:??_R1A@?0A@EA@CBaseDelay@@8
	DD	FLAT:??_R1A@?0A@EA@CBaseEntity@@8
rdata$r	ENDS
;	COMDAT ??_R3CBasePlayerItem@@8
rdata$r	SEGMENT
??_R3CBasePlayerItem@@8 DD 00H				; CBasePlayerItem::`RTTI Class Hierarchy Descriptor'
	DD	00H
	DD	04H
	DD	FLAT:??_R2CBasePlayerItem@@8
rdata$r	ENDS
;	COMDAT ??_R0?AVCBasePlayerItem@@@8
data$r	SEGMENT
??_R0?AVCBasePlayerItem@@@8 DD FLAT:??_7type_info@@6B@	; CBasePlayerItem `RTTI Type Descriptor'
	DD	00H
	DB	'.?AVCBasePlayerItem@@', 00H
data$r	ENDS
;	COMDAT ??_R4CBasePlayerItem@@6B@
rdata$r	SEGMENT
??_R4CBasePlayerItem@@6B@ DD 00H			; CBasePlayerItem::`RTTI Complete Object Locator'
	DD	00H
	DD	00H
	DD	FLAT:??_R0?AVCBasePlayerItem@@@8
	DD	FLAT:??_R3CBasePlayerItem@@8
rdata$r	ENDS
;	COMDAT ??_R1A@?0A@EA@IEntityFactory@@8
rdata$r	SEGMENT
??_R1A@?0A@EA@IEntityFactory@@8 DD FLAT:??_R0?AVIEntityFactory@@@8 ; IEntityFactory::`RTTI Base Class Descriptor at (0,-1,0,64)'
	DD	00H
	DD	00H
	DD	0ffffffffH
	DD	00H
	DD	040H
	DD	FLAT:??_R3IEntityFactory@@8
rdata$r	ENDS
;	COMDAT ??_R2IEntityFactory@@8
rdata$r	SEGMENT
??_R2IEntityFactory@@8 DD FLAT:??_R1A@?0A@EA@IEntityFactory@@8 ; IEntityFactory::`RTTI Base Class Array'
rdata$r	ENDS
;	COMDAT ??_R3IEntityFactory@@8
rdata$r	SEGMENT
??_R3IEntityFactory@@8 DD 00H				; IEntityFactory::`RTTI Class Hierarchy Descriptor'
	DD	00H
	DD	01H
	DD	FLAT:??_R2IEntityFactory@@8
rdata$r	ENDS
;	COMDAT ??_R0?AVIEntityFactory@@@8
data$r	SEGMENT
??_R0?AVIEntityFactory@@@8 DD FLAT:??_7type_info@@6B@	; IEntityFactory `RTTI Type Descriptor'
	DD	00H
	DB	'.?AVIEntityFactory@@', 00H
data$r	ENDS
;	COMDAT ??_R4IEntityFactory@@6B@
rdata$r	SEGMENT
??_R4IEntityFactory@@6B@ DD 00H				; IEntityFactory::`RTTI Complete Object Locator'
	DD	00H
	DD	00H
	DD	FLAT:??_R0?AVIEntityFactory@@@8
	DD	FLAT:??_R3IEntityFactory@@8
rdata$r	ENDS
;	COMDAT ??_R1A@?0A@EA@CBaseEntity@@8
rdata$r	SEGMENT
??_R1A@?0A@EA@CBaseEntity@@8 DD FLAT:??_R0?AVCBaseEntity@@@8 ; CBaseEntity::`RTTI Base Class Descriptor at (0,-1,0,64)'
	DD	00H
	DD	00H
	DD	0ffffffffH
	DD	00H
	DD	040H
	DD	FLAT:??_R3CBaseEntity@@8
rdata$r	ENDS
;	COMDAT ??_R2CBaseEntity@@8
rdata$r	SEGMENT
??_R2CBaseEntity@@8 DD FLAT:??_R1A@?0A@EA@CBaseEntity@@8 ; CBaseEntity::`RTTI Base Class Array'
rdata$r	ENDS
;	COMDAT ??_R3CBaseEntity@@8
rdata$r	SEGMENT
??_R3CBaseEntity@@8 DD 00H				; CBaseEntity::`RTTI Class Hierarchy Descriptor'
	DD	00H
	DD	01H
	DD	FLAT:??_R2CBaseEntity@@8
rdata$r	ENDS
;	COMDAT ??_R0?AVCBaseEntity@@@8
data$r	SEGMENT
??_R0?AVCBaseEntity@@@8 DD FLAT:??_7type_info@@6B@	; CBaseEntity `RTTI Type Descriptor'
	DD	00H
	DB	'.?AVCBaseEntity@@', 00H
data$r	ENDS
;	COMDAT ??_R4CBaseEntity@@6B@
rdata$r	SEGMENT
??_R4CBaseEntity@@6B@ DD 00H				; CBaseEntity::`RTTI Complete Object Locator'
	DD	00H
	DD	00H
	DD	FLAT:??_R0?AVCBaseEntity@@@8
	DD	FLAT:??_R3CBaseEntity@@8
rdata$r	ENDS
;	COMDAT ??_C@_1BE@OPPFELHC@?$AAm?$AA_?$AAp?$AAM?$AAe?$AAm?$AAo?$AAr?$AAy?$AA?$AA@
CONST	SEGMENT
??_C@_1BE@OPPFELHC@?$AAm?$AA_?$AAp?$AAM?$AAe?$AAm?$AAo?$AAr?$AAy?$AA?$AA@ DB 'm'
	DB	00H, '_', 00H, 'p', 00H, 'M', 00H, 'e', 00H, 'm', 00H, 'o', 00H
	DB	'r', 00H, 'y', 00H, 00H, 00H			; `string'
CONST	ENDS
;	COMDAT ??_C@_13COJANIEC@?$AA0?$AA?$AA@
CONST	SEGMENT
??_C@_13COJANIEC@?$AA0?$AA?$AA@ DB '0', 00H, 00H, 00H	; `string'
CONST	ENDS
;	COMDAT ??_C@_1BA@PKCLMAEA@?$AAn?$AAu?$AAm?$AA?5?$AA?$DO?$AA?5?$AA0?$AA?$AA@
CONST	SEGMENT
??_C@_1BA@PKCLMAEA@?$AAn?$AAu?$AAm?$AA?5?$AA?$DO?$AA?5?$AA0?$AA?$AA@ DB 'n'
	DB	00H, 'u', 00H, 'm', 00H, ' ', 00H, '>', 00H, ' ', 00H, '0', 00H
	DB	00H, 00H					; `string'
CONST	ENDS
;	COMDAT ??_C@_1GM@CDMJDFPA@?$AAI?$AAs?$AAV?$AAa?$AAl?$AAi?$AAd?$AAI?$AAn?$AAd?$AAe?$AAx?$AA?$CI?$AAe?$AAl?$AAe?$AAm?$AA?$CJ?$AA?5?$AA?$HM?$AA?$HM?$AA?5?$AA?$CI?$AA?5?$AAm?$AA_?$AAS?$AAi?$AAz?$AAe?$AA?5?$AA?$DN@
CONST	SEGMENT
??_C@_1GM@CDMJDFPA@?$AAI?$AAs?$AAV?$AAa?$AAl?$AAi?$AAd?$AAI?$AAn?$AAd?$AAe?$AAx?$AA?$CI?$AAe?$AAl?$AAe?$AAm?$AA?$CJ?$AA?5?$AA?$HM?$AA?$HM?$AA?5?$AA?$CI?$AA?5?$AAm?$AA_?$AAS?$AAi?$AAz?$AAe?$AA?5?$AA?$DN@ DB 'I'
	DB	00H, 's', 00H, 'V', 00H, 'a', 00H, 'l', 00H, 'i', 00H, 'd', 00H
	DB	'I', 00H, 'n', 00H, 'd', 00H, 'e', 00H, 'x', 00H, '(', 00H, 'e'
	DB	00H, 'l', 00H, 'e', 00H, 'm', 00H, ')', 00H, ' ', 00H, '|', 00H
	DB	'|', 00H, ' ', 00H, '(', 00H, ' ', 00H, 'm', 00H, '_', 00H, 'S'
	DB	00H, 'i', 00H, 'z', 00H, 'e', 00H, ' ', 00H, '=', 00H, '=', 00H
	DB	' ', 00H, '0', 00H, ' ', 00H, ')', 00H, ' ', 00H, '|', 00H, '|'
	DB	00H, ' ', 00H, '(', 00H, ' ', 00H, 'n', 00H, 'u', 00H, 'm', 00H
	DB	' ', 00H, '=', 00H, '=', 00H, ' ', 00H, '0', 00H, ' ', 00H, ')'
	DB	00H, 00H, 00H				; `string'
CONST	ENDS
;	COMDAT ??_C@_1FA@BPFBJKPF@?$AA?$CI?$AAe?$AAl?$AAe?$AAm?$AA?5?$AA?$DN?$AA?$DN?$AA?5?$AAC?$AAo?$AAu?$AAn?$AAt?$AA?$CI?$AA?$CJ?$AA?$CJ?$AA?5?$AA?$HM?$AA?$HM?$AA?5?$AAI?$AAs?$AAV?$AAa?$AAl?$AAi?$AAd?$AAI?$AAn?$AAd?$AAe@
CONST	SEGMENT
??_C@_1FA@BPFBJKPF@?$AA?$CI?$AAe?$AAl?$AAe?$AAm?$AA?5?$AA?$DN?$AA?$DN?$AA?5?$AAC?$AAo?$AAu?$AAn?$AAt?$AA?$CI?$AA?$CJ?$AA?$CJ?$AA?5?$AA?$HM?$AA?$HM?$AA?5?$AAI?$AAs?$AAV?$AAa?$AAl?$AAi?$AAd?$AAI?$AAn?$AAd?$AAe@ DB '('
	DB	00H, 'e', 00H, 'l', 00H, 'e', 00H, 'm', 00H, ' ', 00H, '=', 00H
	DB	'=', 00H, ' ', 00H, 'C', 00H, 'o', 00H, 'u', 00H, 'n', 00H, 't'
	DB	00H, '(', 00H, ')', 00H, ')', 00H, ' ', 00H, '|', 00H, '|', 00H
	DB	' ', 00H, 'I', 00H, 's', 00H, 'V', 00H, 'a', 00H, 'l', 00H, 'i'
	DB	00H, 'd', 00H, 'I', 00H, 'n', 00H, 'd', 00H, 'e', 00H, 'x', 00H
	DB	'(', 00H, 'e', 00H, 'l', 00H, 'e', 00H, 'm', 00H, ')', 00H, 00H
	DB	00H						; `string'
CONST	ENDS
;	COMDAT ??_C@_1BM@CKILBAKK@?$AAI?$AAs?$AAI?$AAd?$AAx?$AAV?$AAa?$AAl?$AAi?$AAd?$AA?$CI?$AAi?$AA?$CJ?$AA?$AA@
CONST	SEGMENT
??_C@_1BM@CKILBAKK@?$AAI?$AAs?$AAI?$AAd?$AAx?$AAV?$AAa?$AAl?$AAi?$AAd?$AA?$CI?$AAi?$AA?$CJ?$AA?$AA@ DB 'I'
	DB	00H, 's', 00H, 'I', 00H, 'd', 00H, 'x', 00H, 'V', 00H, 'a', 00H
	DB	'l', 00H, 'i', 00H, 'd', 00H, '(', 00H, 'i', 00H, ')', 00H, 00H
	DB	00H						; `string'
CONST	ENDS
;	COMDAT ??_C@_1BM@PFNFCCHH@?$AA?$CB?$AAI?$AAs?$AAR?$AAe?$AAa?$AAd?$AAO?$AAn?$AAl?$AAy?$AA?$CI?$AA?$CJ?$AA?$AA@
CONST	SEGMENT
??_C@_1BM@PFNFCCHH@?$AA?$CB?$AAI?$AAs?$AAR?$AAe?$AAa?$AAd?$AAO?$AAn?$AAl?$AAy?$AA?$CI?$AA?$CJ?$AA?$AA@ DB '!'
	DB	00H, 'I', 00H, 's', 00H, 'R', 00H, 'e', 00H, 'a', 00H, 'd', 00H
	DB	'O', 00H, 'n', 00H, 'l', 00H, 'y', 00H, '(', 00H, ')', 00H, 00H
	DB	00H						; `string'
CONST	ENDS
;	COMDAT ??_C@_1BO@FOOHAONO@?$AAn?$AAG?$AAr?$AAo?$AAw?$AAS?$AAi?$AAz?$AAe?$AA?5?$AA?$DO?$AA?$DN?$AA?5?$AA0?$AA?$AA@
CONST	SEGMENT
??_C@_1BO@FOOHAONO@?$AAn?$AAG?$AAr?$AAo?$AAw?$AAS?$AAi?$AAz?$AAe?$AA?5?$AA?$DO?$AA?$DN?$AA?5?$AA0?$AA?$AA@ DB 'n'
	DB	00H, 'G', 00H, 'r', 00H, 'o', 00H, 'w', 00H, 'S', 00H, 'i', 00H
	DB	'z', 00H, 'e', 00H, ' ', 00H, '>', 00H, '=', 00H, ' ', 00H, '0'
	DB	00H, 00H, 00H				; `string'
CONST	ENDS
;	COMDAT ??_C@_1JE@CIIIAKCN@?$AAd?$AA?3?$AA?2?$AA?$CB?$AAd?$AAi?$AAf?$AAf?$AAu?$AAs?$AAi?$AAo?$AAn?$AA?5?$AA2?$AA0?$AA2?$AA0?$AA?2?$AAs?$AAo?$AAu?$AAr?$AAc?$AAe?$AA?5?$AAc?$AAo?$AAd?$AAe?$AA?5?$AA2@
CONST	SEGMENT
??_C@_1JE@CIIIAKCN@?$AAd?$AA?3?$AA?2?$AA?$CB?$AAd?$AAi?$AAf?$AAf?$AAu?$AAs?$AAi?$AAo?$AAn?$AA?5?$AA2?$AA0?$AA2?$AA0?$AA?2?$AAs?$AAo?$AAu?$AAr?$AAc?$AAe?$AA?5?$AAc?$AAo?$AAd?$AAe?$AA?5?$AA2@ DB 'd'
	DB	00H, ':', 00H, '\', 00H, '!', 00H, 'd', 00H, 'i', 00H, 'f', 00H
	DB	'f', 00H, 'u', 00H, 's', 00H, 'i', 00H, 'o', 00H, 'n', 00H, ' '
	DB	00H, '2', 00H, '0', 00H, '2', 00H, '0', 00H, '\', 00H, 's', 00H
	DB	'o', 00H, 'u', 00H, 'r', 00H, 'c', 00H, 'e', 00H, ' ', 00H, 'c'
	DB	00H, 'o', 00H, 'd', 00H, 'e', 00H, ' ', 00H, '2', 00H, '0', 00H
	DB	'2', 00H, '2', 00H, '\', 00H, 'c', 00H, 'l', 00H, 'i', 00H, 'e'
	DB	00H, 'n', 00H, 't', 00H, '-', 00H, 's', 00H, 'e', 00H, 'r', 00H
	DB	'v', 00H, 'e', 00H, 'r', 00H, '\', 00H, 'g', 00H, 'a', 00H, 'm'
	DB	00H, 'e', 00H, '_', 00H, 's', 00H, 'h', 00H, 'a', 00H, 'r', 00H
	DB	'e', 00H, 'd', 00H, '\', 00H, 'u', 00H, 't', 00H, 'l', 00H, 'm'
	DB	00H, 'e', 00H, 'm', 00H, 'o', 00H, 'r', 00H, 'y', 00H, '.', 00H
	DB	'h', 00H, 00H, 00H				; `string'
CONST	ENDS
;	COMDAT ??_C@_1IK@DGJDJNN@?$AA?$CI?$AAB?$AAa?$AAs?$AAe?$AA?$CI?$AA?$CJ?$AA?5?$AA?$DN?$AA?$DN?$AA?5?$AAN?$AAU?$AAL?$AAL?$AA?$CJ?$AA?5?$AA?$HM?$AA?$HM?$AA?5?$AA?$CI?$AA?$CG?$AAs?$AAr?$AAc?$AA?5?$AA?$DM?$AA?5?$AAB?$AAa?$AAs?$AAe@
CONST	SEGMENT
??_C@_1IK@DGJDJNN@?$AA?$CI?$AAB?$AAa?$AAs?$AAe?$AA?$CI?$AA?$CJ?$AA?5?$AA?$DN?$AA?$DN?$AA?5?$AAN?$AAU?$AAL?$AAL?$AA?$CJ?$AA?5?$AA?$HM?$AA?$HM?$AA?5?$AA?$CI?$AA?$CG?$AAs?$AAr?$AAc?$AA?5?$AA?$DM?$AA?5?$AAB?$AAa?$AAs?$AAe@ DB '('
	DB	00H, 'B', 00H, 'a', 00H, 's', 00H, 'e', 00H, '(', 00H, ')', 00H
	DB	' ', 00H, '=', 00H, '=', 00H, ' ', 00H, 'N', 00H, 'U', 00H, 'L'
	DB	00H, 'L', 00H, ')', 00H, ' ', 00H, '|', 00H, '|', 00H, ' ', 00H
	DB	'(', 00H, '&', 00H, 's', 00H, 'r', 00H, 'c', 00H, ' ', 00H, '<'
	DB	00H, ' ', 00H, 'B', 00H, 'a', 00H, 's', 00H, 'e', 00H, '(', 00H
	DB	')', 00H, ')', 00H, ' ', 00H, '|', 00H, '|', 00H, ' ', 00H, '('
	DB	00H, '&', 00H, 's', 00H, 'r', 00H, 'c', 00H, ' ', 00H, '>', 00H
	DB	'=', 00H, ' ', 00H, '(', 00H, 'B', 00H, 'a', 00H, 's', 00H, 'e'
	DB	00H, '(', 00H, ')', 00H, ' ', 00H, '+', 00H, ' ', 00H, 'C', 00H
	DB	'o', 00H, 'u', 00H, 'n', 00H, 't', 00H, '(', 00H, ')', 00H, ')'
	DB	00H, ' ', 00H, ')', 00H, 00H, 00H		; `string'
CONST	ENDS
;	COMDAT ??_C@_1JC@EMNIBBBG@?$AAd?$AA?3?$AA?2?$AA?$CB?$AAd?$AAi?$AAf?$AAf?$AAu?$AAs?$AAi?$AAo?$AAn?$AA?5?$AA2?$AA0?$AA2?$AA0?$AA?2?$AAs?$AAo?$AAu?$AAr?$AAc?$AAe?$AA?5?$AAc?$AAo?$AAd?$AAe?$AA?5?$AA2@
CONST	SEGMENT
??_C@_1JC@EMNIBBBG@?$AAd?$AA?3?$AA?2?$AA?$CB?$AAd?$AAi?$AAf?$AAf?$AAu?$AAs?$AAi?$AAo?$AAn?$AA?5?$AA2?$AA0?$AA2?$AA0?$AA?2?$AAs?$AAo?$AAu?$AAr?$AAc?$AAe?$AA?5?$AAc?$AAo?$AAd?$AAe?$AA?5?$AA2@ DB 'd'
	DB	00H, ':', 00H, '\', 00H, '!', 00H, 'd', 00H, 'i', 00H, 'f', 00H
	DB	'f', 00H, 'u', 00H, 's', 00H, 'i', 00H, 'o', 00H, 'n', 00H, ' '
	DB	00H, '2', 00H, '0', 00H, '2', 00H, '0', 00H, '\', 00H, 's', 00H
	DB	'o', 00H, 'u', 00H, 'r', 00H, 'c', 00H, 'e', 00H, ' ', 00H, 'c'
	DB	00H, 'o', 00H, 'd', 00H, 'e', 00H, ' ', 00H, '2', 00H, '0', 00H
	DB	'2', 00H, '2', 00H, '\', 00H, 'c', 00H, 'l', 00H, 'i', 00H, 'e'
	DB	00H, 'n', 00H, 't', 00H, '-', 00H, 's', 00H, 'e', 00H, 'r', 00H
	DB	'v', 00H, 'e', 00H, 'r', 00H, '\', 00H, 'g', 00H, 'a', 00H, 'm'
	DB	00H, 'e', 00H, '_', 00H, 's', 00H, 'h', 00H, 'a', 00H, 'r', 00H
	DB	'e', 00H, 'd', 00H, '\', 00H, 'u', 00H, 't', 00H, 'l', 00H, 'a'
	DB	00H, 'r', 00H, 'r', 00H, 'a', 00H, 'y', 00H, '.', 00H, 'h', 00H
	DB	00H, 00H					; `string'
CONST	ENDS
;	COMDAT ??_C@_0O@DMPMCOMO@ammo_crossbow?$AA@
CONST	SEGMENT
??_C@_0O@DMPMCOMO@ammo_crossbow?$AA@ DB 'ammo_crossbow', 00H ; `string'
CONST	ENDS
;	COMDAT ??_7?$CEntityFactory@VCCrossbowAmmo@@@@6B@
CONST	SEGMENT
??_7?$CEntityFactory@VCCrossbowAmmo@@@@6B@ DD FLAT:??_R4?$CEntityFactory@VCCrossbowAmmo@@@@6B@ ; CEntityFactory<CCrossbowAmmo>::`vftable'
	DD	FLAT:?Create@?$CEntityFactory@VCCrossbowAmmo@@@@UAEPAVCBaseEntity@@PBDPAUentvars_s@@@Z
	DD	FLAT:?Destroy@?$CEntityFactory@VCCrossbowAmmo@@@@UAEXPAVCBaseEntity@@@Z
	DD	FLAT:?GetEntitySize@?$CEntityFactory@VCCrossbowAmmo@@@@UAEIXZ
CONST	ENDS
;	COMDAT ??_C@_0BD@BADMCPNB@items?19mmclip1?4wav?$AA@
CONST	SEGMENT
??_C@_0BD@BADMCPNB@items?19mmclip1?4wav?$AA@ DB 'items/9mmclip1.wav', 00H ; `string'
CONST	ENDS
;	COMDAT ??_C@_0BL@OLELNEJC@models?1w_crossbow_clip?4mdl?$AA@
CONST	SEGMENT
??_C@_0BL@OLELNEJC@models?1w_crossbow_clip?4mdl?$AA@ DB 'models/w_crossbo'
	DB	'w_clip.mdl', 00H				; `string'
CONST	ENDS
;	COMDAT ??_7CCrossbowAmmo@@6B@
CONST	SEGMENT
??_7CCrossbowAmmo@@6B@ DD FLAT:??_R4CCrossbowAmmo@@6B@	; CCrossbowAmmo::`vftable'
	DD	FLAT:?GetDataDescMap@CBasePlayerAmmo@@UAEPAUdatamap_s@@XZ
	DD	FLAT:?Spawn@CCrossbowAmmo@@EAEXXZ
	DD	FLAT:?Precache@CCrossbowAmmo@@EAEXXZ
	DD	FLAT:?KeyValue@CBaseEntity@@UAEXPAUKeyValueData_s@@@Z
	DD	FLAT:?Save@CBaseEntity@@UAEHAAVCSave@@@Z
	DD	FLAT:?Restore@CBaseEntity@@UAEHAAVCRestore@@@Z
	DD	FLAT:?ObjectCaps@CBaseEntity@@UAEHXZ
	DD	FLAT:?Activate@CBaseEntity@@UAEXXZ
	DD	FLAT:?OnChangeLevel@CBaseEntity@@UAEXXZ
	DD	FLAT:?OnTeleport@CBaseEntity@@UAEXXZ
	DD	FLAT:?PortalSleep@CBaseEntity@@UAEXM@Z
	DD	FLAT:?StartMessage@CBaseEntity@@UAEXPAVCBasePlayer@@@Z
	DD	FLAT:?GetPosition@CBaseEntity@@UAEMXZ
	DD	FLAT:?OnChangeParent@CBaseEntity@@UAEXXZ
	DD	FLAT:?OnClearParent@CBaseEntity@@UAEXXZ
	DD	FLAT:?OnRemove@CBaseEntity@@UAEXXZ
	DD	FLAT:?SetObjectCollisionBox@CBaseEntity@@UAEXXZ
	DD	FLAT:?Classify@CBaseEntity@@UAEHXZ
	DD	FLAT:?DeathNotice@CBaseEntity@@UAEXPAUentvars_s@@@Z
	DD	FLAT:?IsRigidBody@CBaseEntity@@UAEHXZ
	DD	FLAT:?SetNextThink@CBaseEntity@@UAEXM@Z
	DD	FLAT:?GetState@CBaseEntity@@UAE?AW4STATE@@PAV1@@Z
	DD	FLAT:?GetState@CBaseEntity@@UAE?AW4STATE@@XZ
	DD	FLAT:?TraceAttack@CBaseEntity@@UAEXPAUentvars_s@@MVVector@@PAUgametrace_s@@H@Z
	DD	FLAT:?TakeDamage@CBaseEntity@@UAEHPAUentvars_s@@0MH@Z
	DD	FLAT:?TakeHealth@CBaseEntity@@UAEHMH@Z
	DD	FLAT:?TakeArmor@CBaseEntity@@UAEHMH@Z
	DD	FLAT:?Killed@CBaseEntity@@UAEXPAUentvars_s@@H@Z
	DD	FLAT:?BloodColor@CBaseEntity@@UAEHXZ
	DD	FLAT:?TraceBleed@CBaseEntity@@UAEXMVVector@@PAUgametrace_s@@H@Z
	DD	FLAT:?IsTriggered@CBaseEntity@@UAEHPAV1@@Z
	DD	FLAT:?MyMonsterPointer@CBaseEntity@@UAEPAVCBaseMonster@@XZ
	DD	FLAT:?MySquadMonsterPointer@CBaseEntity@@UAEPAVCSquadMonster@@XZ
	DD	FLAT:?GetToggleState@CBaseEntity@@UAEHXZ
	DD	FLAT:?AddPoints@CBaseEntity@@UAEXHH@Z
	DD	FLAT:?AddPointsToTeam@CBaseEntity@@UAEXHH@Z
	DD	FLAT:?AddPlayerItem@CBaseEntity@@UAEHPAVCBasePlayerItem@@@Z
	DD	FLAT:?RemovePlayerItem@CBaseEntity@@UAEHPAVCBasePlayerItem@@@Z
	DD	FLAT:?GiveAmmo@CBaseEntity@@UAEHHPADH@Z
	DD	FLAT:?GetDelay@CBaseEntity@@UAEMXZ
	DD	FLAT:?IsMoving@CBaseEntity@@UAEHXZ
	DD	FLAT:?OverrideReset@CBaseEntity@@UAEXXZ
	DD	FLAT:?TransferReset@CBaseEntity@@UAEXXZ
	DD	FLAT:?DamageDecal@CBaseEntity@@UAEHH@Z
	DD	FLAT:?SetToggleState@CBaseEntity@@UAEXH@Z
	DD	FLAT:?StartSneaking@CBaseEntity@@UAEXXZ
	DD	FLAT:?StopSneaking@CBaseEntity@@UAEXXZ
	DD	FLAT:?OnControls@CBaseEntity@@UAEHPAV1@@Z
	DD	FLAT:?IsSneaking@CBaseEntity@@UAEHXZ
	DD	FLAT:?IsAlive@CBaseEntity@@UAEHXZ
	DD	FLAT:?IsBSPModel@CBaseEntity@@UAEHXZ
	DD	FLAT:?IsCustomModel@CBaseEntity@@UAEHXZ
	DD	FLAT:?ReflectGauss@CBaseEntity@@UAEHXZ
	DD	FLAT:?HasTarget@CBaseEntity@@UAEHH@Z
	DD	FLAT:?IsInWorld@CBaseEntity@@UAEHH@Z
	DD	FLAT:?IsPlayer@CBaseEntity@@UAEHXZ
	DD	FLAT:?IsNetClient@CBaseEntity@@UAEHXZ
	DD	FLAT:?IsMonster@CBaseEntity@@UAEHXZ
	DD	FLAT:?IsPushable@CBaseEntity@@UAEHXZ
	DD	FLAT:?IsProjectile@CBaseEntity@@UAEHXZ
	DD	FLAT:?IsFuncScreen@CBaseEntity@@UAEHXZ
	DD	FLAT:?IsPortal@CBaseEntity@@UAEHXZ
	DD	FLAT:?IsTank@CBaseEntity@@UAEHXZ
	DD	FLAT:?IsMover@CBaseEntity@@UAEHXZ
	DD	FLAT:?IsBreakable@CBaseEntity@@UAEHXZ
	DD	FLAT:?TeamID@CBaseEntity@@UAEPBDXZ
	DD	FLAT:?AddSpawnFlags@CBaseEntity@@UAEXH@Z
	DD	FLAT:?HasSpawnFlags@CBaseEntity@@UBE_NH@Z
	DD	FLAT:?SetFadeDistance@CBaseEntity@@UAEXH@Z
	DD	FLAT:?SetFlag@CBaseEntity@@UAEXH@Z
	DD	FLAT:?HasFlag@CBaseEntity@@UBE_NH@Z
	DD	FLAT:?RemoveFlag@CBaseEntity@@UAEXH@Z
	DD	FLAT:?SetNullModel@CBaseEntity@@UAEXXZ
	DD	FLAT:?OnPickupObject@CBaseEntity@@UAEXXZ
	DD	FLAT:?OnDropObject@CBaseEntity@@UAEXXZ
	DD	FLAT:?GetNextTarget@CBaseEntity@@UAEPAV1@XZ
	DD	FLAT:?Think@CBaseEntity@@UAEXXZ
	DD	FLAT:?Use@CBaseEntity@@UAEXPAV1@0W4USE_TYPE@@M@Z
	DD	FLAT:?Touch@CBaseEntity@@UAEXPAV1@@Z
	DD	FLAT:?Blocked@CBaseEntity@@UAEXPAV1@@Z
	DD	FLAT:?MoveDone@CBaseEntity@@UAEXXZ
	DD	FLAT:?Respawn@CBasePlayerAmmo@@UAEPAVCBaseEntity@@XZ
	DD	FLAT:?UpdateOwner@CBaseEntity@@UAEXXZ
	DD	FLAT:?FBecomeProne@CBaseEntity@@UAEHXZ
	DD	FLAT:?Center@CBaseEntity@@UAE?AVVector@@XZ
	DD	FLAT:?EyePosition@CBaseEntity@@UAE?AVVector@@XZ
	DD	FLAT:?EarPosition@CBaseEntity@@UAE?AVVector@@XZ
	DD	FLAT:?BodyTarget@CBaseEntity@@UAE?AVVector@@ABV2@@Z
	DD	FLAT:?IsPointSized@CBaseEntity@@UBEHXZ
	DD	FLAT:?Illumination@CBaseEntity@@UAEHXZ
	DD	FLAT:?FVisible@CBaseEntity@@UAEHABVVector@@@Z
	DD	FLAT:?FVisible@CBaseEntity@@UAEHPAV1@@Z
	DD	FLAT:?ShouldCollide@CBaseEntity@@UAEHPAV1@@Z
	DD	FLAT:?ClearEffects@CBaseEntity@@UAEXXZ
	DD	FLAT:?AddAmmo@CCrossbowAmmo@@EAEHPAVCBaseEntity@@@Z
CONST	ENDS
;	COMDAT ??_C@_08PEMEPKH@?9reload?6?$AA@
CONST	SEGMENT
??_C@_08PEMEPKH@?9reload?6?$AA@ DB '-reload', 0aH, 00H	; `string'
CONST	ENDS
;	COMDAT ??_C@_0DF@GEMHGODB@weapon_crossbow?5can?8t?5zoom?0?5defa@
CONST	SEGMENT
??_C@_0DF@GEMHGODB@weapon_crossbow?5can?8t?5zoom?0?5defa@ DB 'weapon_cros'
	DB	'sbow can''t zoom, default_fov is too low!', 0aH, 00H ; `string'
CONST	ENDS
;	COMDAT ??_C@_0M@LPOJOBFH@default_fov?$AA@
CONST	SEGMENT
??_C@_0M@LPOJOBFH@default_fov?$AA@ DB 'default_fov', 00H ; `string'
CONST	ENDS
;	COMDAT ??_C@_09PBOOJJEI@?9attack2?6?$AA@
CONST	SEGMENT
??_C@_09PBOOJJEI@?9attack2?6?$AA@ DB '-attack2', 0aH, 00H ; `string'
CONST	ENDS
;	COMDAT ??_C@_09KNGNPJEJ@?$CBHEV_AMO0?$AA@
CONST	SEGMENT
??_C@_09KNGNPJEJ@?$CBHEV_AMO0?$AA@ DB '!HEV_AMO0', 00H	; `string'
CONST	ENDS
;	COMDAT ??_C@_08MNDBFPDE@?9attack?6?$AA@
CONST	SEGMENT
??_C@_08MNDBFPDE@?9attack?6?$AA@ DB '-attack', 0aH, 00H	; `string'
CONST	ENDS
;	COMDAT ??_C@_0L@BIFLFHPF@worldspawn?$AA@
CONST	SEGMENT
??_C@_0L@BIFLFHPF@worldspawn?$AA@ DB 'worldspawn', 00H	; `string'
CONST	ENDS
;	COMDAT ??_C@_03GMGBHMEH@bow?$AA@
CONST	SEGMENT
??_C@_03GMGBHMEH@bow?$AA@ DB 'bow', 00H			; `string'
CONST	ENDS
;	COMDAT ??_C@_05DGHJLCJD@bolts?$AA@
CONST	SEGMENT
??_C@_05DGHJLCJD@bolts?$AA@ DB 'bolts', 00H		; `string'
CONST	ENDS
;	COMDAT ??_C@_0BH@PEMOGDHE@weapons?1xbow_scope?4wav?$AA@
CONST	SEGMENT
??_C@_0BH@PEMOGDHE@weapons?1xbow_scope?4wav?$AA@ DB 'weapons/xbow_scope.w'
	DB	'av', 00H					; `string'
CONST	ENDS
;	COMDAT ??_C@_0BJ@JLOJNCHH@weapons?1xbow_reload1?4wav?$AA@
CONST	SEGMENT
??_C@_0BJ@JLOJNCHH@weapons?1xbow_reload1?4wav?$AA@ DB 'weapons/xbow_reloa'
	DB	'd1.wav', 00H				; `string'
CONST	ENDS
;	COMDAT ??_C@_0BH@OFCAHODE@weapons?1xbow_fire1?4wav?$AA@
CONST	SEGMENT
??_C@_0BH@OFCAHODE@weapons?1xbow_fire1?4wav?$AA@ DB 'weapons/xbow_fire1.w'
	DB	'av', 00H					; `string'
CONST	ENDS
;	COMDAT ??_C@_0BG@HKBMANOC@models?1p_crossbow?4mdl?$AA@
CONST	SEGMENT
??_C@_0BG@HKBMANOC@models?1p_crossbow?4mdl?$AA@ DB 'models/p_crossbow.mdl'
	DB	00H						; `string'
CONST	ENDS
;	COMDAT ??_C@_0BG@FIOGNJBA@models?1v_crossbow?4mdl?$AA@
CONST	SEGMENT
??_C@_0BG@FIOGNJBA@models?1v_crossbow?4mdl?$AA@ DB 'models/v_crossbow.mdl'
	DB	00H						; `string'
CONST	ENDS
;	COMDAT ??_C@_0BG@OBBNACPI@models?1w_crossbow?4mdl?$AA@
CONST	SEGMENT
??_C@_0BG@OBBNACPI@models?1w_crossbow?4mdl?$AA@ DB 'models/w_crossbow.mdl'
	DB	00H						; `string'
CONST	ENDS
;	COMDAT ??_C@_0BA@IMEECLKD@weapon_crossbow?$AA@
CONST	SEGMENT
??_C@_0BA@IMEECLKD@weapon_crossbow?$AA@ DB 'weapon_crossbow', 00H ; `string'
CONST	ENDS
;	COMDAT ??_7?$CEntityFactory@VCCrossbow@@@@6B@
CONST	SEGMENT
??_7?$CEntityFactory@VCCrossbow@@@@6B@ DD FLAT:??_R4?$CEntityFactory@VCCrossbow@@@@6B@ ; CEntityFactory<CCrossbow>::`vftable'
	DD	FLAT:?Create@?$CEntityFactory@VCCrossbow@@@@UAEPAVCBaseEntity@@PBDPAUentvars_s@@@Z
	DD	FLAT:?Destroy@?$CEntityFactory@VCCrossbow@@@@UAEXPAVCBaseEntity@@@Z
	DD	FLAT:?GetEntitySize@?$CEntityFactory@VCCrossbow@@@@UAEIXZ
CONST	ENDS
;	COMDAT ??_7CCrossbow@@6B@
CONST	SEGMENT
??_7CCrossbow@@6B@ DD FLAT:??_R4CCrossbow@@6B@		; CCrossbow::`vftable'
	DD	FLAT:?GetDataDescMap@CCrossbow@@UAEPAUdatamap_s@@XZ
	DD	FLAT:?Spawn@CCrossbow@@UAEXXZ
	DD	FLAT:?Precache@CCrossbow@@UAEXXZ
	DD	FLAT:?KeyValue@CBaseDelay@@UAEXPAUKeyValueData_s@@@Z
	DD	FLAT:?Save@CBaseEntity@@UAEHAAVCSave@@@Z
	DD	FLAT:?Restore@CBaseEntity@@UAEHAAVCRestore@@@Z
	DD	FLAT:?ObjectCaps@CBaseEntity@@UAEHXZ
	DD	FLAT:?Activate@CBaseEntity@@UAEXXZ
	DD	FLAT:?OnChangeLevel@CBaseEntity@@UAEXXZ
	DD	FLAT:?OnTeleport@CBaseEntity@@UAEXXZ
	DD	FLAT:?PortalSleep@CBaseEntity@@UAEXM@Z
	DD	FLAT:?StartMessage@CBaseEntity@@UAEXPAVCBasePlayer@@@Z
	DD	FLAT:?GetPosition@CBaseEntity@@UAEMXZ
	DD	FLAT:?OnChangeParent@CBaseEntity@@UAEXXZ
	DD	FLAT:?OnClearParent@CBaseEntity@@UAEXXZ
	DD	FLAT:?OnRemove@CBaseEntity@@UAEXXZ
	DD	FLAT:?SetObjectCollisionBox@CBasePlayerItem@@UAEXXZ
	DD	FLAT:?Classify@CBaseEntity@@UAEHXZ
	DD	FLAT:?DeathNotice@CBaseEntity@@UAEXPAUentvars_s@@@Z
	DD	FLAT:?IsRigidBody@CBaseEntity@@UAEHXZ
	DD	FLAT:?SetNextThink@CBaseEntity@@UAEXM@Z
	DD	FLAT:?GetState@CBaseEntity@@UAE?AW4STATE@@PAV1@@Z
	DD	FLAT:?GetState@CBaseDelay@@UAE?AW4STATE@@XZ
	DD	FLAT:?TraceAttack@CBaseEntity@@UAEXPAUentvars_s@@MVVector@@PAUgametrace_s@@H@Z
	DD	FLAT:?TakeDamage@CBaseEntity@@UAEHPAUentvars_s@@0MH@Z
	DD	FLAT:?TakeHealth@CBaseEntity@@UAEHMH@Z
	DD	FLAT:?TakeArmor@CBaseEntity@@UAEHMH@Z
	DD	FLAT:?Killed@CBaseEntity@@UAEXPAUentvars_s@@H@Z
	DD	FLAT:?BloodColor@CBaseEntity@@UAEHXZ
	DD	FLAT:?TraceBleed@CBaseEntity@@UAEXMVVector@@PAUgametrace_s@@H@Z
	DD	FLAT:?IsTriggered@CBaseEntity@@UAEHPAV1@@Z
	DD	FLAT:?MyMonsterPointer@CBaseEntity@@UAEPAVCBaseMonster@@XZ
	DD	FLAT:?MySquadMonsterPointer@CBaseEntity@@UAEPAVCSquadMonster@@XZ
	DD	FLAT:?GetToggleState@CBaseEntity@@UAEHXZ
	DD	FLAT:?AddPoints@CBaseEntity@@UAEXHH@Z
	DD	FLAT:?AddPointsToTeam@CBaseEntity@@UAEXHH@Z
	DD	FLAT:?AddPlayerItem@CBaseEntity@@UAEHPAVCBasePlayerItem@@@Z
	DD	FLAT:?RemovePlayerItem@CBaseEntity@@UAEHPAVCBasePlayerItem@@@Z
	DD	FLAT:?GiveAmmo@CBaseEntity@@UAEHHPADH@Z
	DD	FLAT:?GetDelay@CBaseEntity@@UAEMXZ
	DD	FLAT:?IsMoving@CBaseEntity@@UAEHXZ
	DD	FLAT:?OverrideReset@CBaseEntity@@UAEXXZ
	DD	FLAT:?TransferReset@CBaseEntity@@UAEXXZ
	DD	FLAT:?DamageDecal@CBaseEntity@@UAEHH@Z
	DD	FLAT:?SetToggleState@CBaseEntity@@UAEXH@Z
	DD	FLAT:?StartSneaking@CBaseEntity@@UAEXXZ
	DD	FLAT:?StopSneaking@CBaseEntity@@UAEXXZ
	DD	FLAT:?OnControls@CBaseEntity@@UAEHPAV1@@Z
	DD	FLAT:?IsSneaking@CBaseEntity@@UAEHXZ
	DD	FLAT:?IsAlive@CBaseEntity@@UAEHXZ
	DD	FLAT:?IsBSPModel@CBaseEntity@@UAEHXZ
	DD	FLAT:?IsCustomModel@CBaseEntity@@UAEHXZ
	DD	FLAT:?ReflectGauss@CBaseEntity@@UAEHXZ
	DD	FLAT:?HasTarget@CBaseEntity@@UAEHH@Z
	DD	FLAT:?IsInWorld@CBaseEntity@@UAEHH@Z
	DD	FLAT:?IsPlayer@CBaseEntity@@UAEHXZ
	DD	FLAT:?IsNetClient@CBaseEntity@@UAEHXZ
	DD	FLAT:?IsMonster@CBaseEntity@@UAEHXZ
	DD	FLAT:?IsPushable@CBaseEntity@@UAEHXZ
	DD	FLAT:?IsProjectile@CBaseEntity@@UAEHXZ
	DD	FLAT:?IsFuncScreen@CBaseEntity@@UAEHXZ
	DD	FLAT:?IsPortal@CBaseEntity@@UAEHXZ
	DD	FLAT:?IsTank@CBaseEntity@@UAEHXZ
	DD	FLAT:?IsMover@CBaseEntity@@UAEHXZ
	DD	FLAT:?IsBreakable@CBaseEntity@@UAEHXZ
	DD	FLAT:?TeamID@CBaseEntity@@UAEPBDXZ
	DD	FLAT:?AddSpawnFlags@CBaseEntity@@UAEXH@Z
	DD	FLAT:?HasSpawnFlags@CBaseEntity@@UBE_NH@Z
	DD	FLAT:?SetFadeDistance@CBaseEntity@@UAEXH@Z
	DD	FLAT:?SetFlag@CBaseEntity@@UAEXH@Z
	DD	FLAT:?HasFlag@CBaseEntity@@UBE_NH@Z
	DD	FLAT:?RemoveFlag@CBaseEntity@@UAEXH@Z
	DD	FLAT:?SetNullModel@CBaseEntity@@UAEXXZ
	DD	FLAT:?OnPickupObject@CBaseEntity@@UAEXXZ
	DD	FLAT:?OnDropObject@CBaseEntity@@UAEXXZ
	DD	FLAT:?GetNextTarget@CBaseEntity@@UAEPAV1@XZ
	DD	FLAT:?Think@CBaseEntity@@UAEXXZ
	DD	FLAT:?Use@CBaseEntity@@UAEXPAV1@0W4USE_TYPE@@M@Z
	DD	FLAT:?Touch@CBaseEntity@@UAEXPAV1@@Z
	DD	FLAT:?Blocked@CBaseEntity@@UAEXPAV1@@Z
	DD	FLAT:?MoveDone@CBaseEntity@@UAEXXZ
	DD	FLAT:?Respawn@CBasePlayerItem@@UAEPAVCBaseEntity@@XZ
	DD	FLAT:?UpdateOwner@CBaseEntity@@UAEXXZ
	DD	FLAT:?FBecomeProne@CBaseEntity@@UAEHXZ
	DD	FLAT:?Center@CBaseEntity@@UAE?AVVector@@XZ
	DD	FLAT:?EyePosition@CBaseEntity@@UAE?AVVector@@XZ
	DD	FLAT:?EarPosition@CBaseEntity@@UAE?AVVector@@XZ
	DD	FLAT:?BodyTarget@CBaseEntity@@UAE?AVVector@@ABV2@@Z
	DD	FLAT:?IsPointSized@CBaseEntity@@UBEHXZ
	DD	FLAT:?Illumination@CBaseEntity@@UAEHXZ
	DD	FLAT:?FVisible@CBaseEntity@@UAEHABVVector@@@Z
	DD	FLAT:?FVisible@CBaseEntity@@UAEHPAV1@@Z
	DD	FLAT:?ShouldCollide@CBaseEntity@@UAEHPAV1@@Z
	DD	FLAT:?ClearEffects@CBaseEntity@@UAEXXZ
	DD	FLAT:?HandleAnimEvent@CBaseAnimating@@UAEXPAUMonsterEvent_t@@@Z
	DD	FLAT:?AddToPlayer@CCrossbow@@UAEHPAVCBasePlayer@@@Z
	DD	FLAT:?AddDuplicate@CBasePlayerWeapon@@UAEHPAVCBasePlayerItem@@@Z
	DD	FLAT:?GetItemInfo@CCrossbow@@UAEHPAUItemInfo@@@Z
	DD	FLAT:?CanDeploy@CBasePlayerWeapon@@UAEHXZ
	DD	FLAT:?Deploy@CCrossbow@@UAEHXZ
	DD	FLAT:?CanHolster@CBasePlayerItem@@UAEHXZ
	DD	FLAT:?Holster@CCrossbow@@UAEXXZ
	DD	FLAT:?UpdateItemInfo@CBasePlayerWeapon@@UAEXXZ
	DD	FLAT:?ItemPreFrame@CBasePlayerItem@@UAEXXZ
	DD	FLAT:?ItemPostFrame@CBasePlayerWeapon@@UAEXXZ
	DD	FLAT:?Drop@CBasePlayerItem@@UAEXXZ
	DD	FLAT:?Kill@CBasePlayerItem@@UAEXXZ
	DD	FLAT:?AttachToPlayer@CBasePlayerItem@@UAEXPAVCBasePlayer@@@Z
	DD	FLAT:?PrimaryAmmoIndex@CBasePlayerWeapon@@UAEHXZ
	DD	FLAT:?SecondaryAmmoIndex@CBasePlayerWeapon@@UAEHXZ
	DD	FLAT:?UpdateClientData@CBasePlayerWeapon@@UAEHPAVCBasePlayer@@@Z
	DD	FLAT:?GetWeaponPtr@CBasePlayerWeapon@@UAEPAVCBasePlayerItem@@XZ
	DD	FLAT:?iItemSlot@CCrossbow@@UAEHXZ
	DD	FLAT:?ExtractAmmo@CBasePlayerWeapon@@UAEHPAV1@@Z
	DD	FLAT:?ExtractClipAmmo@CBasePlayerWeapon@@UAEHPAV1@@Z
	DD	FLAT:?AddWeapon@CBasePlayerWeapon@@UAEHXZ
	DD	FLAT:?PlayEmptySound@CBasePlayerWeapon@@UAEHXZ
	DD	FLAT:?ResetEmptySound@CBasePlayerWeapon@@UAEXXZ
	DD	FLAT:?SendWeaponAnim@CBasePlayerWeapon@@UAEXHHH@Z
	DD	FLAT:?IsUseable@CBasePlayerWeapon@@UAEHXZ
	DD	FLAT:?PrimaryAttack@CCrossbow@@UAEXXZ
	DD	FLAT:?SecondaryAttack@CCrossbow@@UAEXXZ
	DD	FLAT:?Reload@CCrossbow@@UAEXXZ
	DD	FLAT:?WeaponIdle@CCrossbow@@UAEXXZ
	DD	FLAT:?RetireWeapon@CBasePlayerWeapon@@UAEXXZ
	DD	FLAT:?ShouldWeaponIdle@CBasePlayerWeapon@@UAEHXZ
	DD	FLAT:?UseDecrement@CBasePlayerWeapon@@UAEHXZ
	DD	FLAT:?LowAmmoMsg@CBasePlayerWeapon@@UAEXPAVCBasePlayer@@@Z
CONST	ENDS
;	COMDAT ??_C@_04HIBGFPH@NULL?$AA@
CONST	SEGMENT
??_C@_04HIBGFPH@NULL?$AA@ DB 'NULL', 00H		; `string'
CONST	ENDS
;	COMDAT ??_C@_0O@EFJOMFML@_playersentry?$AA@
CONST	SEGMENT
??_C@_0O@EFJOMFML@_playersentry?$AA@ DB '_playersentry', 00H ; `string'
CONST	ENDS
;	COMDAT ??_C@_0N@INNMLFB@_playerdrone?$AA@
CONST	SEGMENT
??_C@_0N@INNMLFB@_playerdrone?$AA@ DB '_playerdrone', 00H ; `string'
CONST	ENDS
;	COMDAT ??_C@_0O@MDKCAHNO@monster_alice?$AA@
CONST	SEGMENT
??_C@_0O@MDKCAHNO@monster_alice?$AA@ DB 'monster_alice', 00H ; `string'
CONST	ENDS
;	COMDAT ??_C@_0BC@EJJKNDGP@SetNewParent?3?5?$CFs?6?$AA@
CONST	SEGMENT
??_C@_0BC@EJJKNDGP@SetNewParent?3?5?$CFs?6?$AA@ DB 'SetNewParent: %s', 0aH
	DB	00H						; `string'
CONST	ENDS
;	COMDAT ??_C@_0BD@FFDNFDIF@sprites?1streak?4spr?$AA@
CONST	SEGMENT
??_C@_0BD@FFDNFDIF@sprites?1streak?4spr?$AA@ DB 'sprites/streak.spr', 00H ; `string'
CONST	ENDS
;	COMDAT ??_C@_0O@GAGAOGDF@fvox?1beep?4wav?$AA@
CONST	SEGMENT
??_C@_0O@GAGAOGDF@fvox?1beep?4wav?$AA@ DB 'fvox/beep.wav', 00H ; `string'
CONST	ENDS
;	COMDAT ??_C@_0BG@DJDGFCKC@weapons?1xbow_hit1?4wav?$AA@
CONST	SEGMENT
??_C@_0BG@DJDGFCKC@weapons?1xbow_hit1?4wav?$AA@ DB 'weapons/xbow_hit1.wav'
	DB	00H						; `string'
CONST	ENDS
;	COMDAT ??_C@_0BG@NIMDOGJE@weapons?1xbow_fly1?4wav?$AA@
CONST	SEGMENT
??_C@_0BG@NIMDOGJE@weapons?1xbow_fly1?4wav?$AA@ DB 'weapons/xbow_fly1.wav'
	DB	00H						; `string'
CONST	ENDS
;	COMDAT ??_C@_0BK@DFAHJJAI@weapons?1xbow_hitmetal?4wav?$AA@
CONST	SEGMENT
??_C@_0BK@DFAHJJAI@weapons?1xbow_hitmetal?4wav?$AA@ DB 'weapons/xbow_hitm'
	DB	'etal.wav', 00H				; `string'
CONST	ENDS
;	COMDAT ??_C@_0BJ@CBPEADPK@weapons?1xbow_hitbod2?4wav?$AA@
CONST	SEGMENT
??_C@_0BJ@CBPEADPK@weapons?1xbow_hitbod2?4wav?$AA@ DB 'weapons/xbow_hitbo'
	DB	'd2.wav', 00H				; `string'
CONST	ENDS
;	COMDAT ??_C@_0BJ@KHGAHBFE@weapons?1xbow_hitbod1?4wav?$AA@
CONST	SEGMENT
??_C@_0BJ@KHGAHBFE@weapons?1xbow_hitbod1?4wav?$AA@ DB 'weapons/xbow_hitbo'
	DB	'd1.wav', 00H				; `string'
CONST	ENDS
;	COMDAT ??_C@_0BM@JNNCKABH@?$CGCCrossbowBolt?3?3BubbleThink?$AA@
CONST	SEGMENT
??_C@_0BM@JNNCKABH@?$CGCCrossbowBolt?3?3BubbleThink?$AA@ DB '&CCrossbowBo'
	DB	'lt::BubbleThink', 00H			; `string'
CONST	ENDS
;	COMDAT ??_C@_0BK@PKIBDBIH@?$CGCCrossbowBolt?3?3BoltTouch?$AA@
CONST	SEGMENT
??_C@_0BK@PKIBDBIH@?$CGCCrossbowBolt?3?3BoltTouch?$AA@ DB '&CCrossbowBolt'
	DB	'::BoltTouch', 00H				; `string'
CONST	ENDS
;	COMDAT ??_C@_0BJ@LNJGAJBE@models?1crossbow_bolt?4mdl?$AA@
CONST	SEGMENT
??_C@_0BJ@LNJGAJBE@models?1crossbow_bolt?4mdl?$AA@ DB 'models/crossbow_bo'
	DB	'lt.mdl', 00H				; `string'
CONST	ENDS
;	COMDAT ??_C@_0P@FANIOOGJ@PlayTouchSound?$AA@
CONST	SEGMENT
??_C@_0P@FANIOOGJ@PlayTouchSound?$AA@ DB 'PlayTouchSound', 00H ; `string'
CONST	ENDS
;	COMDAT ??_C@_09KNKKCBKI@BoltTouch?$AA@
CONST	SEGMENT
??_C@_09KNKKCBKI@BoltTouch?$AA@ DB 'BoltTouch', 00H	; `string'
CONST	ENDS
;	COMDAT ??_C@_0N@PFFAMDBG@ExplodeThink?$AA@
CONST	SEGMENT
??_C@_0N@PFFAMDBG@ExplodeThink?$AA@ DB 'ExplodeThink', 00H ; `string'
CONST	ENDS
;	COMDAT ??_C@_0M@JCHJNPDF@BubbleThink?$AA@
CONST	SEGMENT
??_C@_0M@JCHJNPDF@BubbleThink?$AA@ DB 'BubbleThink', 00H ; `string'
CONST	ENDS
;	COMDAT ??_C@_0O@BEIBOGJ@crossbow_bolt?$AA@
CONST	SEGMENT
??_C@_0O@BEIBOGJ@crossbow_bolt?$AA@ DB 'crossbow_bolt', 00H ; `string'
CONST	ENDS
;	COMDAT ??_7?$CEntityFactory@VCCrossbowBolt@@@@6B@
CONST	SEGMENT
??_7?$CEntityFactory@VCCrossbowBolt@@@@6B@ DD FLAT:??_R4?$CEntityFactory@VCCrossbowBolt@@@@6B@ ; CEntityFactory<CCrossbowBolt>::`vftable'
	DD	FLAT:?Create@?$CEntityFactory@VCCrossbowBolt@@@@UAEPAVCBaseEntity@@PBDPAUentvars_s@@@Z
	DD	FLAT:?Destroy@?$CEntityFactory@VCCrossbowBolt@@@@UAEXPAVCBaseEntity@@@Z
	DD	FLAT:?GetEntitySize@?$CEntityFactory@VCCrossbowBolt@@@@UAEIXZ
CONST	ENDS
;	COMDAT ??_7CCrossbowBolt@@6B@
CONST	SEGMENT
??_7CCrossbowBolt@@6B@ DD FLAT:??_R4CCrossbowBolt@@6B@	; CCrossbowBolt::`vftable'
	DD	FLAT:?GetDataDescMap@CCrossbowBolt@@EAEPAUdatamap_s@@XZ
	DD	FLAT:?Spawn@CCrossbowBolt@@EAEXXZ
	DD	FLAT:?Precache@CCrossbowBolt@@EAEXXZ
	DD	FLAT:?KeyValue@CBaseEntity@@UAEXPAUKeyValueData_s@@@Z
	DD	FLAT:?Save@CBaseEntity@@UAEHAAVCSave@@@Z
	DD	FLAT:?Restore@CBaseEntity@@UAEHAAVCRestore@@@Z
	DD	FLAT:?ObjectCaps@CBaseEntity@@UAEHXZ
	DD	FLAT:?Activate@CBaseEntity@@UAEXXZ
	DD	FLAT:?OnChangeLevel@CCrossbowBolt@@EAEXXZ
	DD	FLAT:?OnTeleport@CCrossbowBolt@@EAEXXZ
	DD	FLAT:?PortalSleep@CBaseEntity@@UAEXM@Z
	DD	FLAT:?StartMessage@CBaseEntity@@UAEXPAVCBasePlayer@@@Z
	DD	FLAT:?GetPosition@CBaseEntity@@UAEMXZ
	DD	FLAT:?OnChangeParent@CBaseEntity@@UAEXXZ
	DD	FLAT:?OnClearParent@CBaseEntity@@UAEXXZ
	DD	FLAT:?OnRemove@CBaseEntity@@UAEXXZ
	DD	FLAT:?SetObjectCollisionBox@CBaseEntity@@UAEXXZ
	DD	FLAT:?Classify@CCrossbowBolt@@EAEHXZ
	DD	FLAT:?DeathNotice@CBaseEntity@@UAEXPAUentvars_s@@@Z
	DD	FLAT:?IsRigidBody@CBaseEntity@@UAEHXZ
	DD	FLAT:?SetNextThink@CBaseEntity@@UAEXM@Z
	DD	FLAT:?GetState@CBaseEntity@@UAE?AW4STATE@@PAV1@@Z
	DD	FLAT:?GetState@CBaseEntity@@UAE?AW4STATE@@XZ
	DD	FLAT:?TraceAttack@CBaseEntity@@UAEXPAUentvars_s@@MVVector@@PAUgametrace_s@@H@Z
	DD	FLAT:?TakeDamage@CBaseEntity@@UAEHPAUentvars_s@@0MH@Z
	DD	FLAT:?TakeHealth@CBaseEntity@@UAEHMH@Z
	DD	FLAT:?TakeArmor@CBaseEntity@@UAEHMH@Z
	DD	FLAT:?Killed@CBaseEntity@@UAEXPAUentvars_s@@H@Z
	DD	FLAT:?BloodColor@CBaseEntity@@UAEHXZ
	DD	FLAT:?TraceBleed@CBaseEntity@@UAEXMVVector@@PAUgametrace_s@@H@Z
	DD	FLAT:?IsTriggered@CBaseEntity@@UAEHPAV1@@Z
	DD	FLAT:?MyMonsterPointer@CBaseEntity@@UAEPAVCBaseMonster@@XZ
	DD	FLAT:?MySquadMonsterPointer@CBaseEntity@@UAEPAVCSquadMonster@@XZ
	DD	FLAT:?GetToggleState@CBaseEntity@@UAEHXZ
	DD	FLAT:?AddPoints@CBaseEntity@@UAEXHH@Z
	DD	FLAT:?AddPointsToTeam@CBaseEntity@@UAEXHH@Z
	DD	FLAT:?AddPlayerItem@CBaseEntity@@UAEHPAVCBasePlayerItem@@@Z
	DD	FLAT:?RemovePlayerItem@CBaseEntity@@UAEHPAVCBasePlayerItem@@@Z
	DD	FLAT:?GiveAmmo@CBaseEntity@@UAEHHPADH@Z
	DD	FLAT:?GetDelay@CBaseEntity@@UAEMXZ
	DD	FLAT:?IsMoving@CBaseEntity@@UAEHXZ
	DD	FLAT:?OverrideReset@CBaseEntity@@UAEXXZ
	DD	FLAT:?TransferReset@CCrossbowBolt@@EAEXXZ
	DD	FLAT:?DamageDecal@CBaseEntity@@UAEHH@Z
	DD	FLAT:?SetToggleState@CBaseEntity@@UAEXH@Z
	DD	FLAT:?StartSneaking@CBaseEntity@@UAEXXZ
	DD	FLAT:?StopSneaking@CBaseEntity@@UAEXXZ
	DD	FLAT:?OnControls@CBaseEntity@@UAEHPAV1@@Z
	DD	FLAT:?IsSneaking@CBaseEntity@@UAEHXZ
	DD	FLAT:?IsAlive@CBaseEntity@@UAEHXZ
	DD	FLAT:?IsBSPModel@CBaseEntity@@UAEHXZ
	DD	FLAT:?IsCustomModel@CBaseEntity@@UAEHXZ
	DD	FLAT:?ReflectGauss@CBaseEntity@@UAEHXZ
	DD	FLAT:?HasTarget@CBaseEntity@@UAEHH@Z
	DD	FLAT:?IsInWorld@CBaseEntity@@UAEHH@Z
	DD	FLAT:?IsPlayer@CBaseEntity@@UAEHXZ
	DD	FLAT:?IsNetClient@CBaseEntity@@UAEHXZ
	DD	FLAT:?IsMonster@CBaseEntity@@UAEHXZ
	DD	FLAT:?IsPushable@CBaseEntity@@UAEHXZ
	DD	FLAT:?IsProjectile@CCrossbowBolt@@EAEHXZ
	DD	FLAT:?IsFuncScreen@CBaseEntity@@UAEHXZ
	DD	FLAT:?IsPortal@CBaseEntity@@UAEHXZ
	DD	FLAT:?IsTank@CBaseEntity@@UAEHXZ
	DD	FLAT:?IsMover@CBaseEntity@@UAEHXZ
	DD	FLAT:?IsBreakable@CBaseEntity@@UAEHXZ
	DD	FLAT:?TeamID@CBaseEntity@@UAEPBDXZ
	DD	FLAT:?AddSpawnFlags@CBaseEntity@@UAEXH@Z
	DD	FLAT:?HasSpawnFlags@CBaseEntity@@UBE_NH@Z
	DD	FLAT:?SetFadeDistance@CBaseEntity@@UAEXH@Z
	DD	FLAT:?SetFlag@CBaseEntity@@UAEXH@Z
	DD	FLAT:?HasFlag@CBaseEntity@@UBE_NH@Z
	DD	FLAT:?RemoveFlag@CBaseEntity@@UAEXH@Z
	DD	FLAT:?SetNullModel@CBaseEntity@@UAEXXZ
	DD	FLAT:?OnPickupObject@CBaseEntity@@UAEXXZ
	DD	FLAT:?OnDropObject@CBaseEntity@@UAEXXZ
	DD	FLAT:?GetNextTarget@CBaseEntity@@UAEPAV1@XZ
	DD	FLAT:?Think@CBaseEntity@@UAEXXZ
	DD	FLAT:?Use@CBaseEntity@@UAEXPAV1@0W4USE_TYPE@@M@Z
	DD	FLAT:?Touch@CBaseEntity@@UAEXPAV1@@Z
	DD	FLAT:?Blocked@CBaseEntity@@UAEXPAV1@@Z
	DD	FLAT:?MoveDone@CBaseEntity@@UAEXXZ
	DD	FLAT:?Respawn@CBaseEntity@@UAEPAV1@XZ
	DD	FLAT:?UpdateOwner@CBaseEntity@@UAEXXZ
	DD	FLAT:?FBecomeProne@CBaseEntity@@UAEHXZ
	DD	FLAT:?Center@CBaseEntity@@UAE?AVVector@@XZ
	DD	FLAT:?EyePosition@CBaseEntity@@UAE?AVVector@@XZ
	DD	FLAT:?EarPosition@CBaseEntity@@UAE?AVVector@@XZ
	DD	FLAT:?BodyTarget@CBaseEntity@@UAE?AVVector@@ABV2@@Z
	DD	FLAT:?IsPointSized@CBaseEntity@@UBEHXZ
	DD	FLAT:?Illumination@CBaseEntity@@UAEHXZ
	DD	FLAT:?FVisible@CBaseEntity@@UAEHABVVector@@@Z
	DD	FLAT:?FVisible@CBaseEntity@@UAEHPAV1@@Z
	DD	FLAT:?ShouldCollide@CBaseEntity@@UAEHPAV1@@Z
	DD	FLAT:?ClearEffects@CBaseEntity@@UAEXXZ
CONST	ENDS
;	COMDAT ??_7CBasePlayerAmmo@@6B@
CONST	SEGMENT
??_7CBasePlayerAmmo@@6B@ DD FLAT:??_R4CBasePlayerAmmo@@6B@ ; CBasePlayerAmmo::`vftable'
	DD	FLAT:?GetDataDescMap@CBasePlayerAmmo@@UAEPAUdatamap_s@@XZ
	DD	FLAT:?Spawn@CBasePlayerAmmo@@UAEXXZ
	DD	FLAT:?Precache@CBaseEntity@@UAEXXZ
	DD	FLAT:?KeyValue@CBaseEntity@@UAEXPAUKeyValueData_s@@@Z
	DD	FLAT:?Save@CBaseEntity@@UAEHAAVCSave@@@Z
	DD	FLAT:?Restore@CBaseEntity@@UAEHAAVCRestore@@@Z
	DD	FLAT:?ObjectCaps@CBaseEntity@@UAEHXZ
	DD	FLAT:?Activate@CBaseEntity@@UAEXXZ
	DD	FLAT:?OnChangeLevel@CBaseEntity@@UAEXXZ
	DD	FLAT:?OnTeleport@CBaseEntity@@UAEXXZ
	DD	FLAT:?PortalSleep@CBaseEntity@@UAEXM@Z
	DD	FLAT:?StartMessage@CBaseEntity@@UAEXPAVCBasePlayer@@@Z
	DD	FLAT:?GetPosition@CBaseEntity@@UAEMXZ
	DD	FLAT:?OnChangeParent@CBaseEntity@@UAEXXZ
	DD	FLAT:?OnClearParent@CBaseEntity@@UAEXXZ
	DD	FLAT:?OnRemove@CBaseEntity@@UAEXXZ
	DD	FLAT:?SetObjectCollisionBox@CBaseEntity@@UAEXXZ
	DD	FLAT:?Classify@CBaseEntity@@UAEHXZ
	DD	FLAT:?DeathNotice@CBaseEntity@@UAEXPAUentvars_s@@@Z
	DD	FLAT:?IsRigidBody@CBaseEntity@@UAEHXZ
	DD	FLAT:?SetNextThink@CBaseEntity@@UAEXM@Z
	DD	FLAT:?GetState@CBaseEntity@@UAE?AW4STATE@@PAV1@@Z
	DD	FLAT:?GetState@CBaseEntity@@UAE?AW4STATE@@XZ
	DD	FLAT:?TraceAttack@CBaseEntity@@UAEXPAUentvars_s@@MVVector@@PAUgametrace_s@@H@Z
	DD	FLAT:?TakeDamage@CBaseEntity@@UAEHPAUentvars_s@@0MH@Z
	DD	FLAT:?TakeHealth@CBaseEntity@@UAEHMH@Z
	DD	FLAT:?TakeArmor@CBaseEntity@@UAEHMH@Z
	DD	FLAT:?Killed@CBaseEntity@@UAEXPAUentvars_s@@H@Z
	DD	FLAT:?BloodColor@CBaseEntity@@UAEHXZ
	DD	FLAT:?TraceBleed@CBaseEntity@@UAEXMVVector@@PAUgametrace_s@@H@Z
	DD	FLAT:?IsTriggered@CBaseEntity@@UAEHPAV1@@Z
	DD	FLAT:?MyMonsterPointer@CBaseEntity@@UAEPAVCBaseMonster@@XZ
	DD	FLAT:?MySquadMonsterPointer@CBaseEntity@@UAEPAVCSquadMonster@@XZ
	DD	FLAT:?GetToggleState@CBaseEntity@@UAEHXZ
	DD	FLAT:?AddPoints@CBaseEntity@@UAEXHH@Z
	DD	FLAT:?AddPointsToTeam@CBaseEntity@@UAEXHH@Z
	DD	FLAT:?AddPlayerItem@CBaseEntity@@UAEHPAVCBasePlayerItem@@@Z
	DD	FLAT:?RemovePlayerItem@CBaseEntity@@UAEHPAVCBasePlayerItem@@@Z
	DD	FLAT:?GiveAmmo@CBaseEntity@@UAEHHPADH@Z
	DD	FLAT:?GetDelay@CBaseEntity@@UAEMXZ
	DD	FLAT:?IsMoving@CBaseEntity@@UAEHXZ
	DD	FLAT:?OverrideReset@CBaseEntity@@UAEXXZ
	DD	FLAT:?TransferReset@CBaseEntity@@UAEXXZ
	DD	FLAT:?DamageDecal@CBaseEntity@@UAEHH@Z
	DD	FLAT:?SetToggleState@CBaseEntity@@UAEXH@Z
	DD	FLAT:?StartSneaking@CBaseEntity@@UAEXXZ
	DD	FLAT:?StopSneaking@CBaseEntity@@UAEXXZ
	DD	FLAT:?OnControls@CBaseEntity@@UAEHPAV1@@Z
	DD	FLAT:?IsSneaking@CBaseEntity@@UAEHXZ
	DD	FLAT:?IsAlive@CBaseEntity@@UAEHXZ
	DD	FLAT:?IsBSPModel@CBaseEntity@@UAEHXZ
	DD	FLAT:?IsCustomModel@CBaseEntity@@UAEHXZ
	DD	FLAT:?ReflectGauss@CBaseEntity@@UAEHXZ
	DD	FLAT:?HasTarget@CBaseEntity@@UAEHH@Z
	DD	FLAT:?IsInWorld@CBaseEntity@@UAEHH@Z
	DD	FLAT:?IsPlayer@CBaseEntity@@UAEHXZ
	DD	FLAT:?IsNetClient@CBaseEntity@@UAEHXZ
	DD	FLAT:?IsMonster@CBaseEntity@@UAEHXZ
	DD	FLAT:?IsPushable@CBaseEntity@@UAEHXZ
	DD	FLAT:?IsProjectile@CBaseEntity@@UAEHXZ
	DD	FLAT:?IsFuncScreen@CBaseEntity@@UAEHXZ
	DD	FLAT:?IsPortal@CBaseEntity@@UAEHXZ
	DD	FLAT:?IsTank@CBaseEntity@@UAEHXZ
	DD	FLAT:?IsMover@CBaseEntity@@UAEHXZ
	DD	FLAT:?IsBreakable@CBaseEntity@@UAEHXZ
	DD	FLAT:?TeamID@CBaseEntity@@UAEPBDXZ
	DD	FLAT:?AddSpawnFlags@CBaseEntity@@UAEXH@Z
	DD	FLAT:?HasSpawnFlags@CBaseEntity@@UBE_NH@Z
	DD	FLAT:?SetFadeDistance@CBaseEntity@@UAEXH@Z
	DD	FLAT:?SetFlag@CBaseEntity@@UAEXH@Z
	DD	FLAT:?HasFlag@CBaseEntity@@UBE_NH@Z
	DD	FLAT:?RemoveFlag@CBaseEntity@@UAEXH@Z
	DD	FLAT:?SetNullModel@CBaseEntity@@UAEXXZ
	DD	FLAT:?OnPickupObject@CBaseEntity@@UAEXXZ
	DD	FLAT:?OnDropObject@CBaseEntity@@UAEXXZ
	DD	FLAT:?GetNextTarget@CBaseEntity@@UAEPAV1@XZ
	DD	FLAT:?Think@CBaseEntity@@UAEXXZ
	DD	FLAT:?Use@CBaseEntity@@UAEXPAV1@0W4USE_TYPE@@M@Z
	DD	FLAT:?Touch@CBaseEntity@@UAEXPAV1@@Z
	DD	FLAT:?Blocked@CBaseEntity@@UAEXPAV1@@Z
	DD	FLAT:?MoveDone@CBaseEntity@@UAEXXZ
	DD	FLAT:?Respawn@CBasePlayerAmmo@@UAEPAVCBaseEntity@@XZ
	DD	FLAT:?UpdateOwner@CBaseEntity@@UAEXXZ
	DD	FLAT:?FBecomeProne@CBaseEntity@@UAEHXZ
	DD	FLAT:?Center@CBaseEntity@@UAE?AVVector@@XZ
	DD	FLAT:?EyePosition@CBaseEntity@@UAE?AVVector@@XZ
	DD	FLAT:?EarPosition@CBaseEntity@@UAE?AVVector@@XZ
	DD	FLAT:?BodyTarget@CBaseEntity@@UAE?AVVector@@ABV2@@Z
	DD	FLAT:?IsPointSized@CBaseEntity@@UBEHXZ
	DD	FLAT:?Illumination@CBaseEntity@@UAEHXZ
	DD	FLAT:?FVisible@CBaseEntity@@UAEHABVVector@@@Z
	DD	FLAT:?FVisible@CBaseEntity@@UAEHPAV1@@Z
	DD	FLAT:?ShouldCollide@CBaseEntity@@UAEHPAV1@@Z
	DD	FLAT:?ClearEffects@CBaseEntity@@UAEXXZ
	DD	FLAT:?AddAmmo@CBasePlayerAmmo@@UAEHPAVCBaseEntity@@@Z
CONST	ENDS
;	COMDAT ??_7CBasePlayerWeapon@@6B@
CONST	SEGMENT
??_7CBasePlayerWeapon@@6B@ DD FLAT:??_R4CBasePlayerWeapon@@6B@ ; CBasePlayerWeapon::`vftable'
	DD	FLAT:?GetDataDescMap@CBasePlayerWeapon@@UAEPAUdatamap_s@@XZ
	DD	FLAT:?Spawn@CBaseEntity@@UAEXXZ
	DD	FLAT:?Precache@CBaseEntity@@UAEXXZ
	DD	FLAT:?KeyValue@CBaseDelay@@UAEXPAUKeyValueData_s@@@Z
	DD	FLAT:?Save@CBaseEntity@@UAEHAAVCSave@@@Z
	DD	FLAT:?Restore@CBaseEntity@@UAEHAAVCRestore@@@Z
	DD	FLAT:?ObjectCaps@CBaseEntity@@UAEHXZ
	DD	FLAT:?Activate@CBaseEntity@@UAEXXZ
	DD	FLAT:?OnChangeLevel@CBaseEntity@@UAEXXZ
	DD	FLAT:?OnTeleport@CBaseEntity@@UAEXXZ
	DD	FLAT:?PortalSleep@CBaseEntity@@UAEXM@Z
	DD	FLAT:?StartMessage@CBaseEntity@@UAEXPAVCBasePlayer@@@Z
	DD	FLAT:?GetPosition@CBaseEntity@@UAEMXZ
	DD	FLAT:?OnChangeParent@CBaseEntity@@UAEXXZ
	DD	FLAT:?OnClearParent@CBaseEntity@@UAEXXZ
	DD	FLAT:?OnRemove@CBaseEntity@@UAEXXZ
	DD	FLAT:?SetObjectCollisionBox@CBasePlayerItem@@UAEXXZ
	DD	FLAT:?Classify@CBaseEntity@@UAEHXZ
	DD	FLAT:?DeathNotice@CBaseEntity@@UAEXPAUentvars_s@@@Z
	DD	FLAT:?IsRigidBody@CBaseEntity@@UAEHXZ
	DD	FLAT:?SetNextThink@CBaseEntity@@UAEXM@Z
	DD	FLAT:?GetState@CBaseEntity@@UAE?AW4STATE@@PAV1@@Z
	DD	FLAT:?GetState@CBaseDelay@@UAE?AW4STATE@@XZ
	DD	FLAT:?TraceAttack@CBaseEntity@@UAEXPAUentvars_s@@MVVector@@PAUgametrace_s@@H@Z
	DD	FLAT:?TakeDamage@CBaseEntity@@UAEHPAUentvars_s@@0MH@Z
	DD	FLAT:?TakeHealth@CBaseEntity@@UAEHMH@Z
	DD	FLAT:?TakeArmor@CBaseEntity@@UAEHMH@Z
	DD	FLAT:?Killed@CBaseEntity@@UAEXPAUentvars_s@@H@Z
	DD	FLAT:?BloodColor@CBaseEntity@@UAEHXZ
	DD	FLAT:?TraceBleed@CBaseEntity@@UAEXMVVector@@PAUgametrace_s@@H@Z
	DD	FLAT:?IsTriggered@CBaseEntity@@UAEHPAV1@@Z
	DD	FLAT:?MyMonsterPointer@CBaseEntity@@UAEPAVCBaseMonster@@XZ
	DD	FLAT:?MySquadMonsterPointer@CBaseEntity@@UAEPAVCSquadMonster@@XZ
	DD	FLAT:?GetToggleState@CBaseEntity@@UAEHXZ
	DD	FLAT:?AddPoints@CBaseEntity@@UAEXHH@Z
	DD	FLAT:?AddPointsToTeam@CBaseEntity@@UAEXHH@Z
	DD	FLAT:?AddPlayerItem@CBaseEntity@@UAEHPAVCBasePlayerItem@@@Z
	DD	FLAT:?RemovePlayerItem@CBaseEntity@@UAEHPAVCBasePlayerItem@@@Z
	DD	FLAT:?GiveAmmo@CBaseEntity@@UAEHHPADH@Z
	DD	FLAT:?GetDelay@CBaseEntity@@UAEMXZ
	DD	FLAT:?IsMoving@CBaseEntity@@UAEHXZ
	DD	FLAT:?OverrideReset@CBaseEntity@@UAEXXZ
	DD	FLAT:?TransferReset@CBaseEntity@@UAEXXZ
	DD	FLAT:?DamageDecal@CBaseEntity@@UAEHH@Z
	DD	FLAT:?SetToggleState@CBaseEntity@@UAEXH@Z
	DD	FLAT:?StartSneaking@CBaseEntity@@UAEXXZ
	DD	FLAT:?StopSneaking@CBaseEntity@@UAEXXZ
	DD	FLAT:?OnControls@CBaseEntity@@UAEHPAV1@@Z
	DD	FLAT:?IsSneaking@CBaseEntity@@UAEHXZ
	DD	FLAT:?IsAlive@CBaseEntity@@UAEHXZ
	DD	FLAT:?IsBSPModel@CBaseEntity@@UAEHXZ
	DD	FLAT:?IsCustomModel@CBaseEntity@@UAEHXZ
	DD	FLAT:?ReflectGauss@CBaseEntity@@UAEHXZ
	DD	FLAT:?HasTarget@CBaseEntity@@UAEHH@Z
	DD	FLAT:?IsInWorld@CBaseEntity@@UAEHH@Z
	DD	FLAT:?IsPlayer@CBaseEntity@@UAEHXZ
	DD	FLAT:?IsNetClient@CBaseEntity@@UAEHXZ
	DD	FLAT:?IsMonster@CBaseEntity@@UAEHXZ
	DD	FLAT:?IsPushable@CBaseEntity@@UAEHXZ
	DD	FLAT:?IsProjectile@CBaseEntity@@UAEHXZ
	DD	FLAT:?IsFuncScreen@CBaseEntity@@UAEHXZ
	DD	FLAT:?IsPortal@CBaseEntity@@UAEHXZ
	DD	FLAT:?IsTank@CBaseEntity@@UAEHXZ
	DD	FLAT:?IsMover@CBaseEntity@@UAEHXZ
	DD	FLAT:?IsBreakable@CBaseEntity@@UAEHXZ
	DD	FLAT:?TeamID@CBaseEntity@@UAEPBDXZ
	DD	FLAT:?AddSpawnFlags@CBaseEntity@@UAEXH@Z
	DD	FLAT:?HasSpawnFlags@CBaseEntity@@UBE_NH@Z
	DD	FLAT:?SetFadeDistance@CBaseEntity@@UAEXH@Z
	DD	FLAT:?SetFlag@CBaseEntity@@UAEXH@Z
	DD	FLAT:?HasFlag@CBaseEntity@@UBE_NH@Z
	DD	FLAT:?RemoveFlag@CBaseEntity@@UAEXH@Z
	DD	FLAT:?SetNullModel@CBaseEntity@@UAEXXZ
	DD	FLAT:?OnPickupObject@CBaseEntity@@UAEXXZ
	DD	FLAT:?OnDropObject@CBaseEntity@@UAEXXZ
	DD	FLAT:?GetNextTarget@CBaseEntity@@UAEPAV1@XZ
	DD	FLAT:?Think@CBaseEntity@@UAEXXZ
	DD	FLAT:?Use@CBaseEntity@@UAEXPAV1@0W4USE_TYPE@@M@Z
	DD	FLAT:?Touch@CBaseEntity@@UAEXPAV1@@Z
	DD	FLAT:?Blocked@CBaseEntity@@UAEXPAV1@@Z
	DD	FLAT:?MoveDone@CBaseEntity@@UAEXXZ
	DD	FLAT:?Respawn@CBasePlayerItem@@UAEPAVCBaseEntity@@XZ
	DD	FLAT:?UpdateOwner@CBaseEntity@@UAEXXZ
	DD	FLAT:?FBecomeProne@CBaseEntity@@UAEHXZ
	DD	FLAT:?Center@CBaseEntity@@UAE?AVVector@@XZ
	DD	FLAT:?EyePosition@CBaseEntity@@UAE?AVVector@@XZ
	DD	FLAT:?EarPosition@CBaseEntity@@UAE?AVVector@@XZ
	DD	FLAT:?BodyTarget@CBaseEntity@@UAE?AVVector@@ABV2@@Z
	DD	FLAT:?IsPointSized@CBaseEntity@@UBEHXZ
	DD	FLAT:?Illumination@CBaseEntity@@UAEHXZ
	DD	FLAT:?FVisible@CBaseEntity@@UAEHABVVector@@@Z
	DD	FLAT:?FVisible@CBaseEntity@@UAEHPAV1@@Z
	DD	FLAT:?ShouldCollide@CBaseEntity@@UAEHPAV1@@Z
	DD	FLAT:?ClearEffects@CBaseEntity@@UAEXXZ
	DD	FLAT:?HandleAnimEvent@CBaseAnimating@@UAEXPAUMonsterEvent_t@@@Z
	DD	FLAT:?AddToPlayer@CBasePlayerWeapon@@UAEHPAVCBasePlayer@@@Z
	DD	FLAT:?AddDuplicate@CBasePlayerWeapon@@UAEHPAVCBasePlayerItem@@@Z
	DD	FLAT:?GetItemInfo@CBasePlayerItem@@UAEHPAUItemInfo@@@Z
	DD	FLAT:?CanDeploy@CBasePlayerWeapon@@UAEHXZ
	DD	FLAT:?Deploy@CBasePlayerItem@@UAEHXZ
	DD	FLAT:?CanHolster@CBasePlayerItem@@UAEHXZ
	DD	FLAT:?Holster@CBasePlayerWeapon@@UAEXXZ
	DD	FLAT:?UpdateItemInfo@CBasePlayerWeapon@@UAEXXZ
	DD	FLAT:?ItemPreFrame@CBasePlayerItem@@UAEXXZ
	DD	FLAT:?ItemPostFrame@CBasePlayerWeapon@@UAEXXZ
	DD	FLAT:?Drop@CBasePlayerItem@@UAEXXZ
	DD	FLAT:?Kill@CBasePlayerItem@@UAEXXZ
	DD	FLAT:?AttachToPlayer@CBasePlayerItem@@UAEXPAVCBasePlayer@@@Z
	DD	FLAT:?PrimaryAmmoIndex@CBasePlayerWeapon@@UAEHXZ
	DD	FLAT:?SecondaryAmmoIndex@CBasePlayerWeapon@@UAEHXZ
	DD	FLAT:?UpdateClientData@CBasePlayerWeapon@@UAEHPAVCBasePlayer@@@Z
	DD	FLAT:?GetWeaponPtr@CBasePlayerWeapon@@UAEPAVCBasePlayerItem@@XZ
	DD	FLAT:?iItemSlot@CBasePlayerItem@@UAEHXZ
	DD	FLAT:?ExtractAmmo@CBasePlayerWeapon@@UAEHPAV1@@Z
	DD	FLAT:?ExtractClipAmmo@CBasePlayerWeapon@@UAEHPAV1@@Z
	DD	FLAT:?AddWeapon@CBasePlayerWeapon@@UAEHXZ
	DD	FLAT:?PlayEmptySound@CBasePlayerWeapon@@UAEHXZ
	DD	FLAT:?ResetEmptySound@CBasePlayerWeapon@@UAEXXZ
	DD	FLAT:?SendWeaponAnim@CBasePlayerWeapon@@UAEXHHH@Z
	DD	FLAT:?IsUseable@CBasePlayerWeapon@@UAEHXZ
	DD	FLAT:?PrimaryAttack@CBasePlayerWeapon@@UAEXXZ
	DD	FLAT:?SecondaryAttack@CBasePlayerWeapon@@UAEXXZ
	DD	FLAT:?Reload@CBasePlayerWeapon@@UAEXXZ
	DD	FLAT:?WeaponIdle@CBasePlayerWeapon@@UAEXXZ
	DD	FLAT:?RetireWeapon@CBasePlayerWeapon@@UAEXXZ
	DD	FLAT:?ShouldWeaponIdle@CBasePlayerWeapon@@UAEHXZ
	DD	FLAT:?UseDecrement@CBasePlayerWeapon@@UAEHXZ
	DD	FLAT:?LowAmmoMsg@CBasePlayerWeapon@@UAEXPAVCBasePlayer@@@Z
CONST	ENDS
;	COMDAT ??_7CBasePlayerItem@@6B@
CONST	SEGMENT
??_7CBasePlayerItem@@6B@ DD FLAT:??_R4CBasePlayerItem@@6B@ ; CBasePlayerItem::`vftable'
	DD	FLAT:?GetDataDescMap@CBasePlayerItem@@UAEPAUdatamap_s@@XZ
	DD	FLAT:?Spawn@CBaseEntity@@UAEXXZ
	DD	FLAT:?Precache@CBaseEntity@@UAEXXZ
	DD	FLAT:?KeyValue@CBaseDelay@@UAEXPAUKeyValueData_s@@@Z
	DD	FLAT:?Save@CBaseEntity@@UAEHAAVCSave@@@Z
	DD	FLAT:?Restore@CBaseEntity@@UAEHAAVCRestore@@@Z
	DD	FLAT:?ObjectCaps@CBaseEntity@@UAEHXZ
	DD	FLAT:?Activate@CBaseEntity@@UAEXXZ
	DD	FLAT:?OnChangeLevel@CBaseEntity@@UAEXXZ
	DD	FLAT:?OnTeleport@CBaseEntity@@UAEXXZ
	DD	FLAT:?PortalSleep@CBaseEntity@@UAEXM@Z
	DD	FLAT:?StartMessage@CBaseEntity@@UAEXPAVCBasePlayer@@@Z
	DD	FLAT:?GetPosition@CBaseEntity@@UAEMXZ
	DD	FLAT:?OnChangeParent@CBaseEntity@@UAEXXZ
	DD	FLAT:?OnClearParent@CBaseEntity@@UAEXXZ
	DD	FLAT:?OnRemove@CBaseEntity@@UAEXXZ
	DD	FLAT:?SetObjectCollisionBox@CBasePlayerItem@@UAEXXZ
	DD	FLAT:?Classify@CBaseEntity@@UAEHXZ
	DD	FLAT:?DeathNotice@CBaseEntity@@UAEXPAUentvars_s@@@Z
	DD	FLAT:?IsRigidBody@CBaseEntity@@UAEHXZ
	DD	FLAT:?SetNextThink@CBaseEntity@@UAEXM@Z
	DD	FLAT:?GetState@CBaseEntity@@UAE?AW4STATE@@PAV1@@Z
	DD	FLAT:?GetState@CBaseDelay@@UAE?AW4STATE@@XZ
	DD	FLAT:?TraceAttack@CBaseEntity@@UAEXPAUentvars_s@@MVVector@@PAUgametrace_s@@H@Z
	DD	FLAT:?TakeDamage@CBaseEntity@@UAEHPAUentvars_s@@0MH@Z
	DD	FLAT:?TakeHealth@CBaseEntity@@UAEHMH@Z
	DD	FLAT:?TakeArmor@CBaseEntity@@UAEHMH@Z
	DD	FLAT:?Killed@CBaseEntity@@UAEXPAUentvars_s@@H@Z
	DD	FLAT:?BloodColor@CBaseEntity@@UAEHXZ
	DD	FLAT:?TraceBleed@CBaseEntity@@UAEXMVVector@@PAUgametrace_s@@H@Z
	DD	FLAT:?IsTriggered@CBaseEntity@@UAEHPAV1@@Z
	DD	FLAT:?MyMonsterPointer@CBaseEntity@@UAEPAVCBaseMonster@@XZ
	DD	FLAT:?MySquadMonsterPointer@CBaseEntity@@UAEPAVCSquadMonster@@XZ
	DD	FLAT:?GetToggleState@CBaseEntity@@UAEHXZ
	DD	FLAT:?AddPoints@CBaseEntity@@UAEXHH@Z
	DD	FLAT:?AddPointsToTeam@CBaseEntity@@UAEXHH@Z
	DD	FLAT:?AddPlayerItem@CBaseEntity@@UAEHPAVCBasePlayerItem@@@Z
	DD	FLAT:?RemovePlayerItem@CBaseEntity@@UAEHPAVCBasePlayerItem@@@Z
	DD	FLAT:?GiveAmmo@CBaseEntity@@UAEHHPADH@Z
	DD	FLAT:?GetDelay@CBaseEntity@@UAEMXZ
	DD	FLAT:?IsMoving@CBaseEntity@@UAEHXZ
	DD	FLAT:?OverrideReset@CBaseEntity@@UAEXXZ
	DD	FLAT:?TransferReset@CBaseEntity@@UAEXXZ
	DD	FLAT:?DamageDecal@CBaseEntity@@UAEHH@Z
	DD	FLAT:?SetToggleState@CBaseEntity@@UAEXH@Z
	DD	FLAT:?StartSneaking@CBaseEntity@@UAEXXZ
	DD	FLAT:?StopSneaking@CBaseEntity@@UAEXXZ
	DD	FLAT:?OnControls@CBaseEntity@@UAEHPAV1@@Z
	DD	FLAT:?IsSneaking@CBaseEntity@@UAEHXZ
	DD	FLAT:?IsAlive@CBaseEntity@@UAEHXZ
	DD	FLAT:?IsBSPModel@CBaseEntity@@UAEHXZ
	DD	FLAT:?IsCustomModel@CBaseEntity@@UAEHXZ
	DD	FLAT:?ReflectGauss@CBaseEntity@@UAEHXZ
	DD	FLAT:?HasTarget@CBaseEntity@@UAEHH@Z
	DD	FLAT:?IsInWorld@CBaseEntity@@UAEHH@Z
	DD	FLAT:?IsPlayer@CBaseEntity@@UAEHXZ
	DD	FLAT:?IsNetClient@CBaseEntity@@UAEHXZ
	DD	FLAT:?IsMonster@CBaseEntity@@UAEHXZ
	DD	FLAT:?IsPushable@CBaseEntity@@UAEHXZ
	DD	FLAT:?IsProjectile@CBaseEntity@@UAEHXZ
	DD	FLAT:?IsFuncScreen@CBaseEntity@@UAEHXZ
	DD	FLAT:?IsPortal@CBaseEntity@@UAEHXZ
	DD	FLAT:?IsTank@CBaseEntity@@UAEHXZ
	DD	FLAT:?IsMover@CBaseEntity@@UAEHXZ
	DD	FLAT:?IsBreakable@CBaseEntity@@UAEHXZ
	DD	FLAT:?TeamID@CBaseEntity@@UAEPBDXZ
	DD	FLAT:?AddSpawnFlags@CBaseEntity@@UAEXH@Z
	DD	FLAT:?HasSpawnFlags@CBaseEntity@@UBE_NH@Z
	DD	FLAT:?SetFadeDistance@CBaseEntity@@UAEXH@Z
	DD	FLAT:?SetFlag@CBaseEntity@@UAEXH@Z
	DD	FLAT:?HasFlag@CBaseEntity@@UBE_NH@Z
	DD	FLAT:?RemoveFlag@CBaseEntity@@UAEXH@Z
	DD	FLAT:?SetNullModel@CBaseEntity@@UAEXXZ
	DD	FLAT:?OnPickupObject@CBaseEntity@@UAEXXZ
	DD	FLAT:?OnDropObject@CBaseEntity@@UAEXXZ
	DD	FLAT:?GetNextTarget@CBaseEntity@@UAEPAV1@XZ
	DD	FLAT:?Think@CBaseEntity@@UAEXXZ
	DD	FLAT:?Use@CBaseEntity@@UAEXPAV1@0W4USE_TYPE@@M@Z
	DD	FLAT:?Touch@CBaseEntity@@UAEXPAV1@@Z
	DD	FLAT:?Blocked@CBaseEntity@@UAEXPAV1@@Z
	DD	FLAT:?MoveDone@CBaseEntity@@UAEXXZ
	DD	FLAT:?Respawn@CBasePlayerItem@@UAEPAVCBaseEntity@@XZ
	DD	FLAT:?UpdateOwner@CBaseEntity@@UAEXXZ
	DD	FLAT:?FBecomeProne@CBaseEntity@@UAEHXZ
	DD	FLAT:?Center@CBaseEntity@@UAE?AVVector@@XZ
	DD	FLAT:?EyePosition@CBaseEntity@@UAE?AVVector@@XZ
	DD	FLAT:?EarPosition@CBaseEntity@@UAE?AVVector@@XZ
	DD	FLAT:?BodyTarget@CBaseEntity@@UAE?AVVector@@ABV2@@Z
	DD	FLAT:?IsPointSized@CBaseEntity@@UBEHXZ
	DD	FLAT:?Illumination@CBaseEntity@@UAEHXZ
	DD	FLAT:?FVisible@CBaseEntity@@UAEHABVVector@@@Z
	DD	FLAT:?FVisible@CBaseEntity@@UAEHPAV1@@Z
	DD	FLAT:?ShouldCollide@CBaseEntity@@UAEHPAV1@@Z
	DD	FLAT:?ClearEffects@CBaseEntity@@UAEXXZ
	DD	FLAT:?HandleAnimEvent@CBaseAnimating@@UAEXPAUMonsterEvent_t@@@Z
	DD	FLAT:?AddToPlayer@CBasePlayerItem@@UAEHPAVCBasePlayer@@@Z
	DD	FLAT:?AddDuplicate@CBasePlayerItem@@UAEHPAV1@@Z
	DD	FLAT:?GetItemInfo@CBasePlayerItem@@UAEHPAUItemInfo@@@Z
	DD	FLAT:?CanDeploy@CBasePlayerItem@@UAEHXZ
	DD	FLAT:?Deploy@CBasePlayerItem@@UAEHXZ
	DD	FLAT:?CanHolster@CBasePlayerItem@@UAEHXZ
	DD	FLAT:?Holster@CBasePlayerItem@@UAEXXZ
	DD	FLAT:?UpdateItemInfo@CBasePlayerItem@@UAEXXZ
	DD	FLAT:?ItemPreFrame@CBasePlayerItem@@UAEXXZ
	DD	FLAT:?ItemPostFrame@CBasePlayerItem@@UAEXXZ
	DD	FLAT:?Drop@CBasePlayerItem@@UAEXXZ
	DD	FLAT:?Kill@CBasePlayerItem@@UAEXXZ
	DD	FLAT:?AttachToPlayer@CBasePlayerItem@@UAEXPAVCBasePlayer@@@Z
	DD	FLAT:?PrimaryAmmoIndex@CBasePlayerItem@@UAEHXZ
	DD	FLAT:?SecondaryAmmoIndex@CBasePlayerItem@@UAEHXZ
	DD	FLAT:?UpdateClientData@CBasePlayerItem@@UAEHPAVCBasePlayer@@@Z
	DD	FLAT:?GetWeaponPtr@CBasePlayerItem@@UAEPAV1@XZ
	DD	FLAT:?iItemSlot@CBasePlayerItem@@UAEHXZ
CONST	ENDS
;	COMDAT ??_C@_0BJ@EIFNLFLK@?$CGCBaseEntity?3?3SUB_Remove?$AA@
CONST	SEGMENT
??_C@_0BJ@EIFNLFLK@?$CGCBaseEntity?3?3SUB_Remove?$AA@ DB '&CBaseEntity::S'
	DB	'UB_Remove', 00H				; `string'
CONST	ENDS
;	COMDAT ??_C@_0BB@EMJBJDBM@sprites?1null?4spr?$AA@
CONST	SEGMENT
??_C@_0BB@EMJBJDBM@sprites?1null?4spr?$AA@ DB 'sprites/null.spr', 00H ; `string'
CONST	ENDS
;	COMDAT ??_7CBaseAnimating@@6B@
CONST	SEGMENT
??_7CBaseAnimating@@6B@ DD FLAT:??_R4CBaseAnimating@@6B@ ; CBaseAnimating::`vftable'
	DD	FLAT:?GetDataDescMap@CBaseAnimating@@UAEPAUdatamap_s@@XZ
	DD	FLAT:?Spawn@CBaseEntity@@UAEXXZ
	DD	FLAT:?Precache@CBaseEntity@@UAEXXZ
	DD	FLAT:?KeyValue@CBaseDelay@@UAEXPAUKeyValueData_s@@@Z
	DD	FLAT:?Save@CBaseEntity@@UAEHAAVCSave@@@Z
	DD	FLAT:?Restore@CBaseEntity@@UAEHAAVCRestore@@@Z
	DD	FLAT:?ObjectCaps@CBaseEntity@@UAEHXZ
	DD	FLAT:?Activate@CBaseEntity@@UAEXXZ
	DD	FLAT:?OnChangeLevel@CBaseEntity@@UAEXXZ
	DD	FLAT:?OnTeleport@CBaseEntity@@UAEXXZ
	DD	FLAT:?PortalSleep@CBaseEntity@@UAEXM@Z
	DD	FLAT:?StartMessage@CBaseEntity@@UAEXPAVCBasePlayer@@@Z
	DD	FLAT:?GetPosition@CBaseEntity@@UAEMXZ
	DD	FLAT:?OnChangeParent@CBaseEntity@@UAEXXZ
	DD	FLAT:?OnClearParent@CBaseEntity@@UAEXXZ
	DD	FLAT:?OnRemove@CBaseEntity@@UAEXXZ
	DD	FLAT:?SetObjectCollisionBox@CBaseEntity@@UAEXXZ
	DD	FLAT:?Classify@CBaseEntity@@UAEHXZ
	DD	FLAT:?DeathNotice@CBaseEntity@@UAEXPAUentvars_s@@@Z
	DD	FLAT:?IsRigidBody@CBaseEntity@@UAEHXZ
	DD	FLAT:?SetNextThink@CBaseEntity@@UAEXM@Z
	DD	FLAT:?GetState@CBaseEntity@@UAE?AW4STATE@@PAV1@@Z
	DD	FLAT:?GetState@CBaseDelay@@UAE?AW4STATE@@XZ
	DD	FLAT:?TraceAttack@CBaseEntity@@UAEXPAUentvars_s@@MVVector@@PAUgametrace_s@@H@Z
	DD	FLAT:?TakeDamage@CBaseEntity@@UAEHPAUentvars_s@@0MH@Z
	DD	FLAT:?TakeHealth@CBaseEntity@@UAEHMH@Z
	DD	FLAT:?TakeArmor@CBaseEntity@@UAEHMH@Z
	DD	FLAT:?Killed@CBaseEntity@@UAEXPAUentvars_s@@H@Z
	DD	FLAT:?BloodColor@CBaseEntity@@UAEHXZ
	DD	FLAT:?TraceBleed@CBaseEntity@@UAEXMVVector@@PAUgametrace_s@@H@Z
	DD	FLAT:?IsTriggered@CBaseEntity@@UAEHPAV1@@Z
	DD	FLAT:?MyMonsterPointer@CBaseEntity@@UAEPAVCBaseMonster@@XZ
	DD	FLAT:?MySquadMonsterPointer@CBaseEntity@@UAEPAVCSquadMonster@@XZ
	DD	FLAT:?GetToggleState@CBaseEntity@@UAEHXZ
	DD	FLAT:?AddPoints@CBaseEntity@@UAEXHH@Z
	DD	FLAT:?AddPointsToTeam@CBaseEntity@@UAEXHH@Z
	DD	FLAT:?AddPlayerItem@CBaseEntity@@UAEHPAVCBasePlayerItem@@@Z
	DD	FLAT:?RemovePlayerItem@CBaseEntity@@UAEHPAVCBasePlayerItem@@@Z
	DD	FLAT:?GiveAmmo@CBaseEntity@@UAEHHPADH@Z
	DD	FLAT:?GetDelay@CBaseEntity@@UAEMXZ
	DD	FLAT:?IsMoving@CBaseEntity@@UAEHXZ
	DD	FLAT:?OverrideReset@CBaseEntity@@UAEXXZ
	DD	FLAT:?TransferReset@CBaseEntity@@UAEXXZ
	DD	FLAT:?DamageDecal@CBaseEntity@@UAEHH@Z
	DD	FLAT:?SetToggleState@CBaseEntity@@UAEXH@Z
	DD	FLAT:?StartSneaking@CBaseEntity@@UAEXXZ
	DD	FLAT:?StopSneaking@CBaseEntity@@UAEXXZ
	DD	FLAT:?OnControls@CBaseEntity@@UAEHPAV1@@Z
	DD	FLAT:?IsSneaking@CBaseEntity@@UAEHXZ
	DD	FLAT:?IsAlive@CBaseEntity@@UAEHXZ
	DD	FLAT:?IsBSPModel@CBaseEntity@@UAEHXZ
	DD	FLAT:?IsCustomModel@CBaseEntity@@UAEHXZ
	DD	FLAT:?ReflectGauss@CBaseEntity@@UAEHXZ
	DD	FLAT:?HasTarget@CBaseEntity@@UAEHH@Z
	DD	FLAT:?IsInWorld@CBaseEntity@@UAEHH@Z
	DD	FLAT:?IsPlayer@CBaseEntity@@UAEHXZ
	DD	FLAT:?IsNetClient@CBaseEntity@@UAEHXZ
	DD	FLAT:?IsMonster@CBaseEntity@@UAEHXZ
	DD	FLAT:?IsPushable@CBaseEntity@@UAEHXZ
	DD	FLAT:?IsProjectile@CBaseEntity@@UAEHXZ
	DD	FLAT:?IsFuncScreen@CBaseEntity@@UAEHXZ
	DD	FLAT:?IsPortal@CBaseEntity@@UAEHXZ
	DD	FLAT:?IsTank@CBaseEntity@@UAEHXZ
	DD	FLAT:?IsMover@CBaseEntity@@UAEHXZ
	DD	FLAT:?IsBreakable@CBaseEntity@@UAEHXZ
	DD	FLAT:?TeamID@CBaseEntity@@UAEPBDXZ
	DD	FLAT:?AddSpawnFlags@CBaseEntity@@UAEXH@Z
	DD	FLAT:?HasSpawnFlags@CBaseEntity@@UBE_NH@Z
	DD	FLAT:?SetFadeDistance@CBaseEntity@@UAEXH@Z
	DD	FLAT:?SetFlag@CBaseEntity@@UAEXH@Z
	DD	FLAT:?HasFlag@CBaseEntity@@UBE_NH@Z
	DD	FLAT:?RemoveFlag@CBaseEntity@@UAEXH@Z
	DD	FLAT:?SetNullModel@CBaseEntity@@UAEXXZ
	DD	FLAT:?OnPickupObject@CBaseEntity@@UAEXXZ
	DD	FLAT:?OnDropObject@CBaseEntity@@UAEXXZ
	DD	FLAT:?GetNextTarget@CBaseEntity@@UAEPAV1@XZ
	DD	FLAT:?Think@CBaseEntity@@UAEXXZ
	DD	FLAT:?Use@CBaseEntity@@UAEXPAV1@0W4USE_TYPE@@M@Z
	DD	FLAT:?Touch@CBaseEntity@@UAEXPAV1@@Z
	DD	FLAT:?Blocked@CBaseEntity@@UAEXPAV1@@Z
	DD	FLAT:?MoveDone@CBaseEntity@@UAEXXZ
	DD	FLAT:?Respawn@CBaseEntity@@UAEPAV1@XZ
	DD	FLAT:?UpdateOwner@CBaseEntity@@UAEXXZ
	DD	FLAT:?FBecomeProne@CBaseEntity@@UAEHXZ
	DD	FLAT:?Center@CBaseEntity@@UAE?AVVector@@XZ
	DD	FLAT:?EyePosition@CBaseEntity@@UAE?AVVector@@XZ
	DD	FLAT:?EarPosition@CBaseEntity@@UAE?AVVector@@XZ
	DD	FLAT:?BodyTarget@CBaseEntity@@UAE?AVVector@@ABV2@@Z
	DD	FLAT:?IsPointSized@CBaseEntity@@UBEHXZ
	DD	FLAT:?Illumination@CBaseEntity@@UAEHXZ
	DD	FLAT:?FVisible@CBaseEntity@@UAEHABVVector@@@Z
	DD	FLAT:?FVisible@CBaseEntity@@UAEHPAV1@@Z
	DD	FLAT:?ShouldCollide@CBaseEntity@@UAEHPAV1@@Z
	DD	FLAT:?ClearEffects@CBaseEntity@@UAEXXZ
	DD	FLAT:?HandleAnimEvent@CBaseAnimating@@UAEXPAUMonsterEvent_t@@@Z
CONST	ENDS
;	COMDAT ??_7CBaseDelay@@6B@
CONST	SEGMENT
??_7CBaseDelay@@6B@ DD FLAT:??_R4CBaseDelay@@6B@	; CBaseDelay::`vftable'
	DD	FLAT:?GetDataDescMap@CBaseDelay@@UAEPAUdatamap_s@@XZ
	DD	FLAT:?Spawn@CBaseEntity@@UAEXXZ
	DD	FLAT:?Precache@CBaseEntity@@UAEXXZ
	DD	FLAT:?KeyValue@CBaseDelay@@UAEXPAUKeyValueData_s@@@Z
	DD	FLAT:?Save@CBaseEntity@@UAEHAAVCSave@@@Z
	DD	FLAT:?Restore@CBaseEntity@@UAEHAAVCRestore@@@Z
	DD	FLAT:?ObjectCaps@CBaseEntity@@UAEHXZ
	DD	FLAT:?Activate@CBaseEntity@@UAEXXZ
	DD	FLAT:?OnChangeLevel@CBaseEntity@@UAEXXZ
	DD	FLAT:?OnTeleport@CBaseEntity@@UAEXXZ
	DD	FLAT:?PortalSleep@CBaseEntity@@UAEXM@Z
	DD	FLAT:?StartMessage@CBaseEntity@@UAEXPAVCBasePlayer@@@Z
	DD	FLAT:?GetPosition@CBaseEntity@@UAEMXZ
	DD	FLAT:?OnChangeParent@CBaseEntity@@UAEXXZ
	DD	FLAT:?OnClearParent@CBaseEntity@@UAEXXZ
	DD	FLAT:?OnRemove@CBaseEntity@@UAEXXZ
	DD	FLAT:?SetObjectCollisionBox@CBaseEntity@@UAEXXZ
	DD	FLAT:?Classify@CBaseEntity@@UAEHXZ
	DD	FLAT:?DeathNotice@CBaseEntity@@UAEXPAUentvars_s@@@Z
	DD	FLAT:?IsRigidBody@CBaseEntity@@UAEHXZ
	DD	FLAT:?SetNextThink@CBaseEntity@@UAEXM@Z
	DD	FLAT:?GetState@CBaseEntity@@UAE?AW4STATE@@PAV1@@Z
	DD	FLAT:?GetState@CBaseDelay@@UAE?AW4STATE@@XZ
	DD	FLAT:?TraceAttack@CBaseEntity@@UAEXPAUentvars_s@@MVVector@@PAUgametrace_s@@H@Z
	DD	FLAT:?TakeDamage@CBaseEntity@@UAEHPAUentvars_s@@0MH@Z
	DD	FLAT:?TakeHealth@CBaseEntity@@UAEHMH@Z
	DD	FLAT:?TakeArmor@CBaseEntity@@UAEHMH@Z
	DD	FLAT:?Killed@CBaseEntity@@UAEXPAUentvars_s@@H@Z
	DD	FLAT:?BloodColor@CBaseEntity@@UAEHXZ
	DD	FLAT:?TraceBleed@CBaseEntity@@UAEXMVVector@@PAUgametrace_s@@H@Z
	DD	FLAT:?IsTriggered@CBaseEntity@@UAEHPAV1@@Z
	DD	FLAT:?MyMonsterPointer@CBaseEntity@@UAEPAVCBaseMonster@@XZ
	DD	FLAT:?MySquadMonsterPointer@CBaseEntity@@UAEPAVCSquadMonster@@XZ
	DD	FLAT:?GetToggleState@CBaseEntity@@UAEHXZ
	DD	FLAT:?AddPoints@CBaseEntity@@UAEXHH@Z
	DD	FLAT:?AddPointsToTeam@CBaseEntity@@UAEXHH@Z
	DD	FLAT:?AddPlayerItem@CBaseEntity@@UAEHPAVCBasePlayerItem@@@Z
	DD	FLAT:?RemovePlayerItem@CBaseEntity@@UAEHPAVCBasePlayerItem@@@Z
	DD	FLAT:?GiveAmmo@CBaseEntity@@UAEHHPADH@Z
	DD	FLAT:?GetDelay@CBaseEntity@@UAEMXZ
	DD	FLAT:?IsMoving@CBaseEntity@@UAEHXZ
	DD	FLAT:?OverrideReset@CBaseEntity@@UAEXXZ
	DD	FLAT:?TransferReset@CBaseEntity@@UAEXXZ
	DD	FLAT:?DamageDecal@CBaseEntity@@UAEHH@Z
	DD	FLAT:?SetToggleState@CBaseEntity@@UAEXH@Z
	DD	FLAT:?StartSneaking@CBaseEntity@@UAEXXZ
	DD	FLAT:?StopSneaking@CBaseEntity@@UAEXXZ
	DD	FLAT:?OnControls@CBaseEntity@@UAEHPAV1@@Z
	DD	FLAT:?IsSneaking@CBaseEntity@@UAEHXZ
	DD	FLAT:?IsAlive@CBaseEntity@@UAEHXZ
	DD	FLAT:?IsBSPModel@CBaseEntity@@UAEHXZ
	DD	FLAT:?IsCustomModel@CBaseEntity@@UAEHXZ
	DD	FLAT:?ReflectGauss@CBaseEntity@@UAEHXZ
	DD	FLAT:?HasTarget@CBaseEntity@@UAEHH@Z
	DD	FLAT:?IsInWorld@CBaseEntity@@UAEHH@Z
	DD	FLAT:?IsPlayer@CBaseEntity@@UAEHXZ
	DD	FLAT:?IsNetClient@CBaseEntity@@UAEHXZ
	DD	FLAT:?IsMonster@CBaseEntity@@UAEHXZ
	DD	FLAT:?IsPushable@CBaseEntity@@UAEHXZ
	DD	FLAT:?IsProjectile@CBaseEntity@@UAEHXZ
	DD	FLAT:?IsFuncScreen@CBaseEntity@@UAEHXZ
	DD	FLAT:?IsPortal@CBaseEntity@@UAEHXZ
	DD	FLAT:?IsTank@CBaseEntity@@UAEHXZ
	DD	FLAT:?IsMover@CBaseEntity@@UAEHXZ
	DD	FLAT:?IsBreakable@CBaseEntity@@UAEHXZ
	DD	FLAT:?TeamID@CBaseEntity@@UAEPBDXZ
	DD	FLAT:?AddSpawnFlags@CBaseEntity@@UAEXH@Z
	DD	FLAT:?HasSpawnFlags@CBaseEntity@@UBE_NH@Z
	DD	FLAT:?SetFadeDistance@CBaseEntity@@UAEXH@Z
	DD	FLAT:?SetFlag@CBaseEntity@@UAEXH@Z
	DD	FLAT:?HasFlag@CBaseEntity@@UBE_NH@Z
	DD	FLAT:?RemoveFlag@CBaseEntity@@UAEXH@Z
	DD	FLAT:?SetNullModel@CBaseEntity@@UAEXXZ
	DD	FLAT:?OnPickupObject@CBaseEntity@@UAEXXZ
	DD	FLAT:?OnDropObject@CBaseEntity@@UAEXXZ
	DD	FLAT:?GetNextTarget@CBaseEntity@@UAEPAV1@XZ
	DD	FLAT:?Think@CBaseEntity@@UAEXXZ
	DD	FLAT:?Use@CBaseEntity@@UAEXPAV1@0W4USE_TYPE@@M@Z
	DD	FLAT:?Touch@CBaseEntity@@UAEXPAV1@@Z
	DD	FLAT:?Blocked@CBaseEntity@@UAEXPAV1@@Z
	DD	FLAT:?MoveDone@CBaseEntity@@UAEXXZ
	DD	FLAT:?Respawn@CBaseEntity@@UAEPAV1@XZ
	DD	FLAT:?UpdateOwner@CBaseEntity@@UAEXXZ
	DD	FLAT:?FBecomeProne@CBaseEntity@@UAEHXZ
	DD	FLAT:?Center@CBaseEntity@@UAE?AVVector@@XZ
	DD	FLAT:?EyePosition@CBaseEntity@@UAE?AVVector@@XZ
	DD	FLAT:?EarPosition@CBaseEntity@@UAE?AVVector@@XZ
	DD	FLAT:?BodyTarget@CBaseEntity@@UAE?AVVector@@ABV2@@Z
	DD	FLAT:?IsPointSized@CBaseEntity@@UBEHXZ
	DD	FLAT:?Illumination@CBaseEntity@@UAEHXZ
	DD	FLAT:?FVisible@CBaseEntity@@UAEHABVVector@@@Z
	DD	FLAT:?FVisible@CBaseEntity@@UAEHPAV1@@Z
	DD	FLAT:?ShouldCollide@CBaseEntity@@UAEHPAV1@@Z
	DD	FLAT:?ClearEffects@CBaseEntity@@UAEXXZ
CONST	ENDS
;	COMDAT ??_C@_0CH@HELFJPDL@FUNCTION?5NOT?5IN?5TABLE?$CB?3?5?$CFs?3?$CFs?5?$CI?$CF@
CONST	SEGMENT
??_C@_0CH@HELFJPDL@FUNCTION?5NOT?5IN?5TABLE?$CB?3?5?$CFs?3?$CFs?5?$CI?$CF@ DB 'F'
	DB	'UNCTION NOT IN TABLE!: %s:%s (%08lx)', 0aH, 00H ; `string'
CONST	ENDS
;	COMDAT ??_C@_0L@JIJDCONP@customname?$AA@
CONST	SEGMENT
??_C@_0L@JIJDCONP@customname?$AA@ DB 'customname', 00H	; `string'
CONST	ENDS
;	COMDAT ??_C@_0N@JILDNHAP@vlight_cache?$AA@
CONST	SEGMENT
??_C@_0N@JILDNHAP@vlight_cache?$AA@ DB 'vlight_cache', 00H ; `string'
CONST	ENDS
;	COMDAT ??_C@_0L@IKCANML@reflection?$AA@
CONST	SEGMENT
??_C@_0L@IKCANML@reflection?$AA@ DB 'reflection', 00H	; `string'
CONST	ENDS
;	COMDAT ??_C@_05IAKJCFIM@style?$AA@
CONST	SEGMENT
??_C@_05IAKJCFIM@style?$AA@ DB 'style', 00H		; `string'
CONST	ENDS
;	COMDAT ??_C@_0M@EAELDHJO@parentflags?$AA@
CONST	SEGMENT
??_C@_0M@EAELDHJO@parentflags?$AA@ DB 'parentflags', 00H ; `string'
CONST	ENDS
;	COMDAT ??_C@_08JJJAOBDI@movewith?$AA@
CONST	SEGMENT
??_C@_08JJJAOBDI@movewith?$AA@ DB 'movewith', 00H	; `string'
CONST	ENDS
;	COMDAT ??_C@_06MLKDMCBD@parent?$AA@
CONST	SEGMENT
??_C@_06MLKDMCBD@parent?$AA@ DB 'parent', 00H		; `string'
CONST	ENDS
;	COMDAT ??_7CBaseEntity@@6B@
CONST	SEGMENT
??_7CBaseEntity@@6B@ DD FLAT:??_R4CBaseEntity@@6B@	; CBaseEntity::`vftable'
	DD	FLAT:?GetDataDescMap@CBaseEntity@@UAEPAUdatamap_s@@XZ
	DD	FLAT:?Spawn@CBaseEntity@@UAEXXZ
	DD	FLAT:?Precache@CBaseEntity@@UAEXXZ
	DD	FLAT:?KeyValue@CBaseEntity@@UAEXPAUKeyValueData_s@@@Z
	DD	FLAT:?Save@CBaseEntity@@UAEHAAVCSave@@@Z
	DD	FLAT:?Restore@CBaseEntity@@UAEHAAVCRestore@@@Z
	DD	FLAT:?ObjectCaps@CBaseEntity@@UAEHXZ
	DD	FLAT:?Activate@CBaseEntity@@UAEXXZ
	DD	FLAT:?OnChangeLevel@CBaseEntity@@UAEXXZ
	DD	FLAT:?OnTeleport@CBaseEntity@@UAEXXZ
	DD	FLAT:?PortalSleep@CBaseEntity@@UAEXM@Z
	DD	FLAT:?StartMessage@CBaseEntity@@UAEXPAVCBasePlayer@@@Z
	DD	FLAT:?GetPosition@CBaseEntity@@UAEMXZ
	DD	FLAT:?OnChangeParent@CBaseEntity@@UAEXXZ
	DD	FLAT:?OnClearParent@CBaseEntity@@UAEXXZ
	DD	FLAT:?OnRemove@CBaseEntity@@UAEXXZ
	DD	FLAT:?SetObjectCollisionBox@CBaseEntity@@UAEXXZ
	DD	FLAT:?Classify@CBaseEntity@@UAEHXZ
	DD	FLAT:?DeathNotice@CBaseEntity@@UAEXPAUentvars_s@@@Z
	DD	FLAT:?IsRigidBody@CBaseEntity@@UAEHXZ
	DD	FLAT:?SetNextThink@CBaseEntity@@UAEXM@Z
	DD	FLAT:?GetState@CBaseEntity@@UAE?AW4STATE@@PAV1@@Z
	DD	FLAT:?GetState@CBaseEntity@@UAE?AW4STATE@@XZ
	DD	FLAT:?TraceAttack@CBaseEntity@@UAEXPAUentvars_s@@MVVector@@PAUgametrace_s@@H@Z
	DD	FLAT:?TakeDamage@CBaseEntity@@UAEHPAUentvars_s@@0MH@Z
	DD	FLAT:?TakeHealth@CBaseEntity@@UAEHMH@Z
	DD	FLAT:?TakeArmor@CBaseEntity@@UAEHMH@Z
	DD	FLAT:?Killed@CBaseEntity@@UAEXPAUentvars_s@@H@Z
	DD	FLAT:?BloodColor@CBaseEntity@@UAEHXZ
	DD	FLAT:?TraceBleed@CBaseEntity@@UAEXMVVector@@PAUgametrace_s@@H@Z
	DD	FLAT:?IsTriggered@CBaseEntity@@UAEHPAV1@@Z
	DD	FLAT:?MyMonsterPointer@CBaseEntity@@UAEPAVCBaseMonster@@XZ
	DD	FLAT:?MySquadMonsterPointer@CBaseEntity@@UAEPAVCSquadMonster@@XZ
	DD	FLAT:?GetToggleState@CBaseEntity@@UAEHXZ
	DD	FLAT:?AddPoints@CBaseEntity@@UAEXHH@Z
	DD	FLAT:?AddPointsToTeam@CBaseEntity@@UAEXHH@Z
	DD	FLAT:?AddPlayerItem@CBaseEntity@@UAEHPAVCBasePlayerItem@@@Z
	DD	FLAT:?RemovePlayerItem@CBaseEntity@@UAEHPAVCBasePlayerItem@@@Z
	DD	FLAT:?GiveAmmo@CBaseEntity@@UAEHHPADH@Z
	DD	FLAT:?GetDelay@CBaseEntity@@UAEMXZ
	DD	FLAT:?IsMoving@CBaseEntity@@UAEHXZ
	DD	FLAT:?OverrideReset@CBaseEntity@@UAEXXZ
	DD	FLAT:?TransferReset@CBaseEntity@@UAEXXZ
	DD	FLAT:?DamageDecal@CBaseEntity@@UAEHH@Z
	DD	FLAT:?SetToggleState@CBaseEntity@@UAEXH@Z
	DD	FLAT:?StartSneaking@CBaseEntity@@UAEXXZ
	DD	FLAT:?StopSneaking@CBaseEntity@@UAEXXZ
	DD	FLAT:?OnControls@CBaseEntity@@UAEHPAV1@@Z
	DD	FLAT:?IsSneaking@CBaseEntity@@UAEHXZ
	DD	FLAT:?IsAlive@CBaseEntity@@UAEHXZ
	DD	FLAT:?IsBSPModel@CBaseEntity@@UAEHXZ
	DD	FLAT:?IsCustomModel@CBaseEntity@@UAEHXZ
	DD	FLAT:?ReflectGauss@CBaseEntity@@UAEHXZ
	DD	FLAT:?HasTarget@CBaseEntity@@UAEHH@Z
	DD	FLAT:?IsInWorld@CBaseEntity@@UAEHH@Z
	DD	FLAT:?IsPlayer@CBaseEntity@@UAEHXZ
	DD	FLAT:?IsNetClient@CBaseEntity@@UAEHXZ
	DD	FLAT:?IsMonster@CBaseEntity@@UAEHXZ
	DD	FLAT:?IsPushable@CBaseEntity@@UAEHXZ
	DD	FLAT:?IsProjectile@CBaseEntity@@UAEHXZ
	DD	FLAT:?IsFuncScreen@CBaseEntity@@UAEHXZ
	DD	FLAT:?IsPortal@CBaseEntity@@UAEHXZ
	DD	FLAT:?IsTank@CBaseEntity@@UAEHXZ
	DD	FLAT:?IsMover@CBaseEntity@@UAEHXZ
	DD	FLAT:?IsBreakable@CBaseEntity@@UAEHXZ
	DD	FLAT:?TeamID@CBaseEntity@@UAEPBDXZ
	DD	FLAT:?AddSpawnFlags@CBaseEntity@@UAEXH@Z
	DD	FLAT:?HasSpawnFlags@CBaseEntity@@UBE_NH@Z
	DD	FLAT:?SetFadeDistance@CBaseEntity@@UAEXH@Z
	DD	FLAT:?SetFlag@CBaseEntity@@UAEXH@Z
	DD	FLAT:?HasFlag@CBaseEntity@@UBE_NH@Z
	DD	FLAT:?RemoveFlag@CBaseEntity@@UAEXH@Z
	DD	FLAT:?SetNullModel@CBaseEntity@@UAEXXZ
	DD	FLAT:?OnPickupObject@CBaseEntity@@UAEXXZ
	DD	FLAT:?OnDropObject@CBaseEntity@@UAEXXZ
	DD	FLAT:?GetNextTarget@CBaseEntity@@UAEPAV1@XZ
	DD	FLAT:?Think@CBaseEntity@@UAEXXZ
	DD	FLAT:?Use@CBaseEntity@@UAEXPAV1@0W4USE_TYPE@@M@Z
	DD	FLAT:?Touch@CBaseEntity@@UAEXPAV1@@Z
	DD	FLAT:?Blocked@CBaseEntity@@UAEXPAV1@@Z
	DD	FLAT:?MoveDone@CBaseEntity@@UAEXXZ
	DD	FLAT:?Respawn@CBaseEntity@@UAEPAV1@XZ
	DD	FLAT:?UpdateOwner@CBaseEntity@@UAEXXZ
	DD	FLAT:?FBecomeProne@CBaseEntity@@UAEHXZ
	DD	FLAT:?Center@CBaseEntity@@UAE?AVVector@@XZ
	DD	FLAT:?EyePosition@CBaseEntity@@UAE?AVVector@@XZ
	DD	FLAT:?EarPosition@CBaseEntity@@UAE?AVVector@@XZ
	DD	FLAT:?BodyTarget@CBaseEntity@@UAE?AVVector@@ABV2@@Z
	DD	FLAT:?IsPointSized@CBaseEntity@@UBEHXZ
	DD	FLAT:?Illumination@CBaseEntity@@UAEHXZ
	DD	FLAT:?FVisible@CBaseEntity@@UAEHABVVector@@@Z
	DD	FLAT:?FVisible@CBaseEntity@@UAEHPAV1@@Z
	DD	FLAT:?ShouldCollide@CBaseEntity@@UAEHPAV1@@Z
	DD	FLAT:?ClearEffects@CBaseEntity@@UAEXXZ
CONST	ENDS
;	COMDAT ??_C@_0BF@DOONGEFO@Bad?5pev?5in?5OFFSET?$CI?$CJ?6?$AA@
CONST	SEGMENT
??_C@_0BF@DOONGEFO@Bad?5pev?5in?5OFFSET?$CI?$CJ?6?$AA@ DB 'Bad pev in OFF'
	DB	'SET()', 0aH, 00H				; `string'
CONST	ENDS
;	COMDAT ??_C@_0BF@CPEPILID@Bad?5ent?5in?5OFFSET?$CI?$CJ?6?$AA@
CONST	SEGMENT
??_C@_0BF@CPEPILID@Bad?5ent?5in?5OFFSET?$CI?$CJ?6?$AA@ DB 'Bad ent in OFF'
	DB	'SET()', 0aH, 00H				; `string'
CONST	ENDS
;	COMDAT ??_7IEntityFactory@@6B@
CONST	SEGMENT
??_7IEntityFactory@@6B@ DD FLAT:??_R4IEntityFactory@@6B@ ; IEntityFactory::`vftable'
	DD	FLAT:__purecall
	DD	FLAT:__purecall
	DD	FLAT:__purecall
CONST	ENDS
;	COMDAT ??_C@_04EFCDBJNL@?$CFs?3?3?$AA@
CONST	SEGMENT
??_C@_04EFCDBJNL@?$CFs?3?3?$AA@ DB '%s::', 00H		; `string'
CONST	ENDS
;	COMDAT ??_C@_00CNPNBAHC@?$AA@
CONST	SEGMENT
??_C@_00CNPNBAHC@?$AA@ DB 00H				; `string'
CONST	ENDS
;	COMDAT xdata$x
xdata$x	SEGMENT
__unwindtable$??$GetClassPtr@VCCrossbowBolt@@@@YAPAVCCrossbowBolt@@PAV0@PBD@Z DD 0ffffffffH
	DD	FLAT:__unwindfunclet$??$GetClassPtr@VCCrossbowBolt@@@@YAPAVCCrossbowBolt@@PAV0@PBD@Z$0
__ehfuncinfo$??$GetClassPtr@VCCrossbowBolt@@@@YAPAVCCrossbowBolt@@PAV0@PBD@Z DD 019930522H
	DD	01H
	DD	FLAT:__unwindtable$??$GetClassPtr@VCCrossbowBolt@@@@YAPAVCCrossbowBolt@@PAV0@PBD@Z
	DD	2 DUP(00H)
	DD	2 DUP(00H)
	DD	00H
	DD	01H
xdata$x	ENDS
;	COMDAT xdata$x
xdata$x	SEGMENT
__unwindtable$??$GetClassPtr@VCCrossbow@@@@YAPAVCCrossbow@@PAV0@PBD@Z DD 0ffffffffH
	DD	FLAT:__unwindfunclet$??$GetClassPtr@VCCrossbow@@@@YAPAVCCrossbow@@PAV0@PBD@Z$0
__ehfuncinfo$??$GetClassPtr@VCCrossbow@@@@YAPAVCCrossbow@@PAV0@PBD@Z DD 019930522H
	DD	01H
	DD	FLAT:__unwindtable$??$GetClassPtr@VCCrossbow@@@@YAPAVCCrossbow@@PAV0@PBD@Z
	DD	2 DUP(00H)
	DD	2 DUP(00H)
	DD	00H
	DD	01H
xdata$x	ENDS
;	COMDAT xdata$x
xdata$x	SEGMENT
__unwindtable$??$GetClassPtr@VCCrossbowAmmo@@@@YAPAVCCrossbowAmmo@@PAV0@PBD@Z DD 0ffffffffH
	DD	FLAT:__unwindfunclet$??$GetClassPtr@VCCrossbowAmmo@@@@YAPAVCCrossbowAmmo@@PAV0@PBD@Z$0
__ehfuncinfo$??$GetClassPtr@VCCrossbowAmmo@@@@YAPAVCCrossbowAmmo@@PAV0@PBD@Z DD 019930522H
	DD	01H
	DD	FLAT:__unwindtable$??$GetClassPtr@VCCrossbowAmmo@@@@YAPAVCCrossbowAmmo@@PAV0@PBD@Z
	DD	2 DUP(00H)
	DD	2 DUP(00H)
	DD	00H
	DD	01H
xdata$x	ENDS
;	COMDAT xdata$x
xdata$x	SEGMENT
__unwindtable$??$DataMapInit@VCCrossbow@@@@YAPAUdatamap_s@@PAVCCrossbow@@@Z DD 0ffffffffH
	DD	FLAT:__unwindfunclet$??$DataMapInit@VCCrossbow@@@@YAPAUdatamap_s@@PAVCCrossbow@@@Z$0
__ehfuncinfo$??$DataMapInit@VCCrossbow@@@@YAPAUdatamap_s@@PAVCCrossbow@@@Z DD 019930522H
	DD	01H
	DD	FLAT:__unwindtable$??$DataMapInit@VCCrossbow@@@@YAPAUdatamap_s@@PAVCCrossbow@@@Z
	DD	2 DUP(00H)
	DD	2 DUP(00H)
	DD	00H
	DD	01H
xdata$x	ENDS
;	COMDAT xdata$x
xdata$x	SEGMENT
__unwindtable$??$GetClassPtr@VCCrossbowBolt@@@@YAPAVCCrossbowBolt@@PAV0@@Z DD 0ffffffffH
	DD	FLAT:__unwindfunclet$??$GetClassPtr@VCCrossbowBolt@@@@YAPAVCCrossbowBolt@@PAV0@@Z$0
__ehfuncinfo$??$GetClassPtr@VCCrossbowBolt@@@@YAPAVCCrossbowBolt@@PAV0@@Z DD 019930522H
	DD	01H
	DD	FLAT:__unwindtable$??$GetClassPtr@VCCrossbowBolt@@@@YAPAVCCrossbowBolt@@PAV0@@Z
	DD	2 DUP(00H)
	DD	2 DUP(00H)
	DD	00H
	DD	01H
xdata$x	ENDS
;	COMDAT xdata$x
xdata$x	SEGMENT
__unwindtable$??$DataMapInit@VCCrossbowBolt@@@@YAPAUdatamap_s@@PAVCCrossbowBolt@@@Z DD 0ffffffffH
	DD	FLAT:__unwindfunclet$??$DataMapInit@VCCrossbowBolt@@@@YAPAUdatamap_s@@PAVCCrossbowBolt@@@Z$0
	DD	0ffffffffH
	DD	FLAT:__unwindfunclet$??$DataMapInit@VCCrossbowBolt@@@@YAPAUdatamap_s@@PAVCCrossbowBolt@@@Z$1
__ehfuncinfo$??$DataMapInit@VCCrossbowBolt@@@@YAPAUdatamap_s@@PAVCCrossbowBolt@@@Z DD 019930522H
	DD	02H
	DD	FLAT:__unwindtable$??$DataMapInit@VCCrossbowBolt@@@@YAPAUdatamap_s@@PAVCCrossbowBolt@@@Z
	DD	2 DUP(00H)
	DD	2 DUP(00H)
	DD	00H
	DD	01H
xdata$x	ENDS
;	COMDAT xdata$x
xdata$x	SEGMENT
__unwindtable$??0CBaseEntity@@QAE@XZ DD 0ffffffffH
	DD	FLAT:__unwindfunclet$??0CBaseEntity@@QAE@XZ$0
__ehfuncinfo$??0CBaseEntity@@QAE@XZ DD 019930522H
	DD	01H
	DD	FLAT:__unwindtable$??0CBaseEntity@@QAE@XZ
	DD	2 DUP(00H)
	DD	2 DUP(00H)
	DD	00H
	DD	01H
xdata$x	ENDS
;	COMDAT xdata$x
xdata$x	SEGMENT
__ehfuncinfo$??1?$CUtlMemory@PADH@@QAE@XZ DD 019930522H
	DD	00H
	DD	00H
	DD	2 DUP(00H)
	DD	2 DUP(00H)
	DD	00H
	DD	05H
xdata$x	ENDS
;	COMDAT xdata$x
xdata$x	SEGMENT
__ehfuncinfo$??1?$CUtlArray@PADV?$CUtlMemory@PADH@@@@QAE@XZ DD 019930522H
	DD	00H
	DD	00H
	DD	2 DUP(00H)
	DD	2 DUP(00H)
	DD	00H
	DD	05H
xdata$x	ENDS
;	COMDAT xdata$x
xdata$x	SEGMENT
__unwindtable$??0?$CUtlArray@PADV?$CUtlMemory@PADH@@@@QAE@HH@Z DD 0ffffffffH
	DD	FLAT:__unwindfunclet$??0?$CUtlArray@PADV?$CUtlMemory@PADH@@@@QAE@HH@Z$0
__ehfuncinfo$??0?$CUtlArray@PADV?$CUtlMemory@PADH@@@@QAE@HH@Z DD 019930522H
	DD	01H
	DD	FLAT:__unwindtable$??0?$CUtlArray@PADV?$CUtlMemory@PADH@@@@QAE@HH@Z
	DD	2 DUP(00H)
	DD	2 DUP(00H)
	DD	00H
	DD	01H
xdata$x	ENDS
;	COMDAT xdata$x
xdata$x	SEGMENT
__ehfuncinfo$??1CDatadescGeneratedNameHolder@@QAE@XZ DD 019930522H
	DD	00H
	DD	00H
	DD	2 DUP(00H)
	DD	2 DUP(00H)
	DD	00H
	DD	05H
xdata$x	ENDS
CRT$XCU	SEGMENT
?g_DataMapHolder$initializer$@CCrossbowBolt_DataDescInit@@3P6AXXZA DD FLAT:??__Eg_DataMapHolder@CCrossbowBolt_DataDescInit@@YAXXZ ; CCrossbowBolt_DataDescInit::g_DataMapHolder$initializer$
CRT$XCU	ENDS
CRT$XCU	SEGMENT
?weapon_crossbow$initializer$@@3P6AXXZA DD FLAT:??__Eweapon_crossbow@@YAXXZ ; weapon_crossbow$initializer$
CRT$XCU	ENDS
CRT$XCU	SEGMENT
?g_DataMapHolder$initializer$@CCrossbow_DataDescInit@@3P6AXXZA DD FLAT:??__Eg_DataMapHolder@CCrossbow_DataDescInit@@YAXXZ ; CCrossbow_DataDescInit::g_DataMapHolder$initializer$
CRT$XCU	ENDS
CRT$XCU	SEGMENT
?ammo_crossbow$initializer$@@3P6AXXZA DD FLAT:??__Eammo_crossbow@@YAXXZ ; ammo_crossbow$initializer$
CRT$XCU	ENDS
; Function compile flags: /Odtp /ZI
; File d:\!diffusion 2020\source code 2022\client-server\game_shared\utlmemory.h
;	COMDAT ??$Destruct@PAD@@YAXPAPAD@Z
_TEXT	SEGMENT
_pMemory$ = 8						; size = 4
??$Destruct@PAD@@YAXPAPAD@Z PROC			; Destruct<char *>, COMDAT

; 49   : {

	push	ebp
	mov	ebp, esp
	sub	esp, 64					; 00000040H
	push	ebx
	push	esi
	push	edi

; 50   : 	pMemory->~T();
; 51   : 
; 52   : #ifdef _DEBUG
; 53   : 	memset( pMemory, 0xDD, sizeof(T) );

	push	4
	push	221					; 000000ddH
	mov	eax, DWORD PTR _pMemory$[ebp]
	push	eax
	call	_memset
	add	esp, 12					; 0000000cH

; 54   : #endif
; 55   : }

	pop	edi
	pop	esi
	pop	ebx
	mov	esp, ebp
	pop	ebp
	ret	0
??$Destruct@PAD@@YAXPAPAD@Z ENDP			; Destruct<char *>
_TEXT	ENDS
; Function compile flags: /Odtp /ZI
; File d:\!diffusion 2020\source code 2022\client-server\game_shared\utlmemory.h
;	COMDAT ??$CopyConstruct@PAD@@YAXPAPADABQAD@Z
_TEXT	SEGMENT
tv71 = -72						; size = 4
$T1 = -68						; size = 4
_pMemory$ = 8						; size = 4
_src$ = 12						; size = 4
??$CopyConstruct@PAD@@YAXPAPADABQAD@Z PROC		; CopyConstruct<char *>, COMDAT

; 43   : {

	push	ebp
	mov	ebp, esp
	sub	esp, 72					; 00000048H
	push	ebx
	push	esi
	push	edi

; 44   : 	new( pMemory ) T(src);

	mov	eax, DWORD PTR _pMemory$[ebp]
	push	eax
	push	4
	call	??2@YAPAXIPAX@Z				; operator new
	add	esp, 8
	mov	DWORD PTR $T1[ebp], eax
	cmp	DWORD PTR $T1[ebp], 0
	je	SHORT $LN3@CopyConstr
	mov	ecx, DWORD PTR $T1[ebp]
	mov	edx, DWORD PTR _src$[ebp]
	mov	eax, DWORD PTR [edx]
	mov	DWORD PTR [ecx], eax
	mov	ecx, DWORD PTR $T1[ebp]
	mov	DWORD PTR tv71[ebp], ecx
	jmp	SHORT $LN1@CopyConstr
$LN3@CopyConstr:
	mov	DWORD PTR tv71[ebp], 0
$LN1@CopyConstr:

; 45   : }

	pop	edi
	pop	esi
	pop	ebx
	mov	esp, ebp
	pop	ebp
	ret	0
??$CopyConstruct@PAD@@YAXPAPADABQAD@Z ENDP		; CopyConstruct<char *>
_TEXT	ENDS
; Function compile flags: /Odtp /ZI
; File d:\!diffusion 2020\source code 2022\client-server\server\cbase.h
;	COMDAT ??$GetClassPtr@VCCrossbowBolt@@@@YAPAVCCrossbowBolt@@PAV0@PBD@Z
_TEXT	SEGMENT
tv85 = -92						; size = 4
$T2 = -88						; size = 4
$T3 = -84						; size = 4
_pev$ = -16						; size = 4
__$EHRec$ = -12						; size = 12
_newEnt$ = 8						; size = 4
_className$ = 12					; size = 4
??$GetClassPtr@VCCrossbowBolt@@@@YAPAVCCrossbowBolt@@PAV0@PBD@Z PROC ; GetClassPtr<CCrossbowBolt>, COMDAT

; 1146 : {

	push	ebp
	mov	ebp, esp
	push	-1
	push	__ehhandler$??$GetClassPtr@VCCrossbowBolt@@@@YAPAVCCrossbowBolt@@PAV0@PBD@Z
	mov	eax, DWORD PTR fs:0
	push	eax
	sub	esp, 80					; 00000050H
	push	ebx
	push	esi
	push	edi
	mov	eax, DWORD PTR ___security_cookie
	xor	eax, ebp
	push	eax
	lea	eax, DWORD PTR __$EHRec$[ebp]
	mov	DWORD PTR fs:0, eax

; 1147 : 	entvars_t *pev = (entvars_t *)newEnt;

	mov	eax, DWORD PTR _newEnt$[ebp]
	mov	DWORD PTR _pev$[ebp], eax

; 1148 : 
; 1149 : 	// allocate entity if necessary
; 1150 : 	if (pev == NULL)

	cmp	DWORD PTR _pev$[ebp], 0
	jne	SHORT $LN2@GetClassPt

; 1151 : 		pev = VARS(CREATE_ENTITY());

	call	DWORD PTR ?g_engfuncs@@3Uenginefuncs_s@@A+84
	push	eax
	call	?VARS@@YAPAUentvars_s@@PAUedict_s@@@Z	; VARS
	add	esp, 4
	mov	DWORD PTR _pev$[ebp], eax
$LN2@GetClassPt:

; 1152 : 
; 1153 : 	// get the private data
; 1154 : 	newEnt = (T *)GET_PRIVATE(ENT(pev));

	mov	eax, DWORD PTR _pev$[ebp]
	push	eax
	call	?ENT@@YAPAUedict_s@@PBUentvars_s@@@Z	; ENT
	add	esp, 4
	push	eax
	call	?GET_PRIVATE@@YAPAXPAUedict_s@@@Z	; GET_PRIVATE
	add	esp, 4
	mov	DWORD PTR _newEnt$[ebp], eax

; 1155 : 
; 1156 : 	if (newEnt == NULL) 

	cmp	DWORD PTR _newEnt$[ebp], 0
	jne	SHORT $LN3@GetClassPt

; 1157 : 	{
; 1158 : 		// allocate private data 
; 1159 : 		newEnt = new(pev) T;

	mov	eax, DWORD PTR _pev$[ebp]
	push	eax
	push	1808					; 00000710H
	call	??2CBaseEntity@@SAPAXIPAUentvars_s@@@Z	; CBaseEntity::operator new
	add	esp, 8
	mov	DWORD PTR $T2[ebp], eax
	mov	DWORD PTR __$EHRec$[ebp+8], 0
	cmp	DWORD PTR $T2[ebp], 0
	je	SHORT $LN5@GetClassPt
	mov	ecx, DWORD PTR $T2[ebp]
	call	??0CCrossbowBolt@@QAE@XZ
	mov	DWORD PTR tv85[ebp], eax
	jmp	SHORT $LN6@GetClassPt
$LN5@GetClassPt:
	mov	DWORD PTR tv85[ebp], 0
$LN6@GetClassPt:
	mov	ecx, DWORD PTR tv85[ebp]
	mov	DWORD PTR $T3[ebp], ecx
	mov	DWORD PTR __$EHRec$[ebp+8], -1
	mov	edx, DWORD PTR $T3[ebp]
	mov	DWORD PTR _newEnt$[ebp], edx

; 1160 : 		newEnt->pev = pev;

	mov	eax, DWORD PTR _newEnt$[ebp]
	mov	ecx, DWORD PTR _pev$[ebp]
	mov	DWORD PTR [eax+4], ecx
$LN3@GetClassPt:

; 1161 : 	}
; 1162 : 	newEnt->SetClassname( className );

	mov	eax, DWORD PTR _className$[ebp]
	push	eax
	mov	ecx, DWORD PTR _newEnt$[ebp]
	call	?SetClassname@CBaseEntity@@QAEXPBD@Z	; CBaseEntity::SetClassname

; 1163 : 
; 1164 : 	return newEnt;

	mov	eax, DWORD PTR _newEnt$[ebp]

; 1165 : }

	mov	ecx, DWORD PTR __$EHRec$[ebp]
	mov	DWORD PTR fs:0, ecx
	pop	ecx
	pop	edi
	pop	esi
	pop	ebx
	mov	esp, ebp
	pop	ebp
	ret	0
_TEXT	ENDS
;	COMDAT text$x
text$x	SEGMENT
__unwindfunclet$??$GetClassPtr@VCCrossbowBolt@@@@YAPAVCCrossbowBolt@@PAV0@PBD@Z$0:
	mov	eax, DWORD PTR _pev$[ebp]
	push	eax
	mov	eax, DWORD PTR $T2[ebp]
	push	eax
	call	??3CBaseEntity@@SAXPAXPAUentvars_s@@@Z	; CBaseEntity::operator delete
	add	esp, 8
	ret	0
__ehhandler$??$GetClassPtr@VCCrossbowBolt@@@@YAPAVCCrossbowBolt@@PAV0@PBD@Z:
	mov	edx, DWORD PTR [esp+8]
	lea	eax, DWORD PTR [edx+12]
	mov	ecx, DWORD PTR [edx-96]
	xor	ecx, eax
	call	@__security_check_cookie@4
	mov	eax, OFFSET __ehfuncinfo$??$GetClassPtr@VCCrossbowBolt@@@@YAPAVCCrossbowBolt@@PAV0@PBD@Z
	jmp	___CxxFrameHandler3
text$x	ENDS
??$GetClassPtr@VCCrossbowBolt@@@@YAPAVCCrossbowBolt@@PAV0@PBD@Z ENDP ; GetClassPtr<CCrossbowBolt>
; Function compile flags: /Odtp /ZI
; File d:\!diffusion 2020\source code 2022\client-server\server\cbase.h
;	COMDAT ??$GetClassPtr@VCCrossbow@@@@YAPAVCCrossbow@@PAV0@PBD@Z
_TEXT	SEGMENT
tv85 = -92						; size = 4
$T2 = -88						; size = 4
$T3 = -84						; size = 4
_pev$ = -16						; size = 4
__$EHRec$ = -12						; size = 12
_newEnt$ = 8						; size = 4
_className$ = 12					; size = 4
??$GetClassPtr@VCCrossbow@@@@YAPAVCCrossbow@@PAV0@PBD@Z PROC ; GetClassPtr<CCrossbow>, COMDAT

; 1146 : {

	push	ebp
	mov	ebp, esp
	push	-1
	push	__ehhandler$??$GetClassPtr@VCCrossbow@@@@YAPAVCCrossbow@@PAV0@PBD@Z
	mov	eax, DWORD PTR fs:0
	push	eax
	sub	esp, 80					; 00000050H
	push	ebx
	push	esi
	push	edi
	mov	eax, DWORD PTR ___security_cookie
	xor	eax, ebp
	push	eax
	lea	eax, DWORD PTR __$EHRec$[ebp]
	mov	DWORD PTR fs:0, eax

; 1147 : 	entvars_t *pev = (entvars_t *)newEnt;

	mov	eax, DWORD PTR _newEnt$[ebp]
	mov	DWORD PTR _pev$[ebp], eax

; 1148 : 
; 1149 : 	// allocate entity if necessary
; 1150 : 	if (pev == NULL)

	cmp	DWORD PTR _pev$[ebp], 0
	jne	SHORT $LN2@GetClassPt

; 1151 : 		pev = VARS(CREATE_ENTITY());

	call	DWORD PTR ?g_engfuncs@@3Uenginefuncs_s@@A+84
	push	eax
	call	?VARS@@YAPAUentvars_s@@PAUedict_s@@@Z	; VARS
	add	esp, 4
	mov	DWORD PTR _pev$[ebp], eax
$LN2@GetClassPt:

; 1152 : 
; 1153 : 	// get the private data
; 1154 : 	newEnt = (T *)GET_PRIVATE(ENT(pev));

	mov	eax, DWORD PTR _pev$[ebp]
	push	eax
	call	?ENT@@YAPAUedict_s@@PBUentvars_s@@@Z	; ENT
	add	esp, 4
	push	eax
	call	?GET_PRIVATE@@YAPAXPAUedict_s@@@Z	; GET_PRIVATE
	add	esp, 4
	mov	DWORD PTR _newEnt$[ebp], eax

; 1155 : 
; 1156 : 	if (newEnt == NULL) 

	cmp	DWORD PTR _newEnt$[ebp], 0
	jne	SHORT $LN3@GetClassPt

; 1157 : 	{
; 1158 : 		// allocate private data 
; 1159 : 		newEnt = new(pev) T;

	mov	eax, DWORD PTR _pev$[ebp]
	push	eax
	push	1932					; 0000078cH
	call	??2CBaseEntity@@SAPAXIPAUentvars_s@@@Z	; CBaseEntity::operator new
	add	esp, 8
	mov	DWORD PTR $T2[ebp], eax
	mov	DWORD PTR __$EHRec$[ebp+8], 0
	cmp	DWORD PTR $T2[ebp], 0
	je	SHORT $LN5@GetClassPt
	mov	ecx, DWORD PTR $T2[ebp]
	call	??0CCrossbow@@QAE@XZ
	mov	DWORD PTR tv85[ebp], eax
	jmp	SHORT $LN6@GetClassPt
$LN5@GetClassPt:
	mov	DWORD PTR tv85[ebp], 0
$LN6@GetClassPt:
	mov	ecx, DWORD PTR tv85[ebp]
	mov	DWORD PTR $T3[ebp], ecx
	mov	DWORD PTR __$EHRec$[ebp+8], -1
	mov	edx, DWORD PTR $T3[ebp]
	mov	DWORD PTR _newEnt$[ebp], edx

; 1160 : 		newEnt->pev = pev;

	mov	eax, DWORD PTR _newEnt$[ebp]
	mov	ecx, DWORD PTR _pev$[ebp]
	mov	DWORD PTR [eax+4], ecx
$LN3@GetClassPt:

; 1161 : 	}
; 1162 : 	newEnt->SetClassname( className );

	mov	eax, DWORD PTR _className$[ebp]
	push	eax
	mov	ecx, DWORD PTR _newEnt$[ebp]
	call	?SetClassname@CBaseEntity@@QAEXPBD@Z	; CBaseEntity::SetClassname

; 1163 : 
; 1164 : 	return newEnt;

	mov	eax, DWORD PTR _newEnt$[ebp]

; 1165 : }

	mov	ecx, DWORD PTR __$EHRec$[ebp]
	mov	DWORD PTR fs:0, ecx
	pop	ecx
	pop	edi
	pop	esi
	pop	ebx
	mov	esp, ebp
	pop	ebp
	ret	0
_TEXT	ENDS
;	COMDAT text$x
text$x	SEGMENT
__unwindfunclet$??$GetClassPtr@VCCrossbow@@@@YAPAVCCrossbow@@PAV0@PBD@Z$0:
	mov	eax, DWORD PTR _pev$[ebp]
	push	eax
	mov	eax, DWORD PTR $T2[ebp]
	push	eax
	call	??3CBaseEntity@@SAXPAXPAUentvars_s@@@Z	; CBaseEntity::operator delete
	add	esp, 8
	ret	0
__ehhandler$??$GetClassPtr@VCCrossbow@@@@YAPAVCCrossbow@@PAV0@PBD@Z:
	mov	edx, DWORD PTR [esp+8]
	lea	eax, DWORD PTR [edx+12]
	mov	ecx, DWORD PTR [edx-96]
	xor	ecx, eax
	call	@__security_check_cookie@4
	mov	eax, OFFSET __ehfuncinfo$??$GetClassPtr@VCCrossbow@@@@YAPAVCCrossbow@@PAV0@PBD@Z
	jmp	___CxxFrameHandler3
text$x	ENDS
??$GetClassPtr@VCCrossbow@@@@YAPAVCCrossbow@@PAV0@PBD@Z ENDP ; GetClassPtr<CCrossbow>
; Function compile flags: /Odtp /ZI
; File d:\!diffusion 2020\source code 2022\client-server\server\cbase.h
;	COMDAT ??$GetClassPtr@VCCrossbowAmmo@@@@YAPAVCCrossbowAmmo@@PAV0@PBD@Z
_TEXT	SEGMENT
tv85 = -92						; size = 4
$T2 = -88						; size = 4
$T3 = -84						; size = 4
_pev$ = -16						; size = 4
__$EHRec$ = -12						; size = 12
_newEnt$ = 8						; size = 4
_className$ = 12					; size = 4
??$GetClassPtr@VCCrossbowAmmo@@@@YAPAVCCrossbowAmmo@@PAV0@PBD@Z PROC ; GetClassPtr<CCrossbowAmmo>, COMDAT

; 1146 : {

	push	ebp
	mov	ebp, esp
	push	-1
	push	__ehhandler$??$GetClassPtr@VCCrossbowAmmo@@@@YAPAVCCrossbowAmmo@@PAV0@PBD@Z
	mov	eax, DWORD PTR fs:0
	push	eax
	sub	esp, 80					; 00000050H
	push	ebx
	push	esi
	push	edi
	mov	eax, DWORD PTR ___security_cookie
	xor	eax, ebp
	push	eax
	lea	eax, DWORD PTR __$EHRec$[ebp]
	mov	DWORD PTR fs:0, eax

; 1147 : 	entvars_t *pev = (entvars_t *)newEnt;

	mov	eax, DWORD PTR _newEnt$[ebp]
	mov	DWORD PTR _pev$[ebp], eax

; 1148 : 
; 1149 : 	// allocate entity if necessary
; 1150 : 	if (pev == NULL)

	cmp	DWORD PTR _pev$[ebp], 0
	jne	SHORT $LN2@GetClassPt

; 1151 : 		pev = VARS(CREATE_ENTITY());

	call	DWORD PTR ?g_engfuncs@@3Uenginefuncs_s@@A+84
	push	eax
	call	?VARS@@YAPAUentvars_s@@PAUedict_s@@@Z	; VARS
	add	esp, 4
	mov	DWORD PTR _pev$[ebp], eax
$LN2@GetClassPt:

; 1152 : 
; 1153 : 	// get the private data
; 1154 : 	newEnt = (T *)GET_PRIVATE(ENT(pev));

	mov	eax, DWORD PTR _pev$[ebp]
	push	eax
	call	?ENT@@YAPAUedict_s@@PBUentvars_s@@@Z	; ENT
	add	esp, 4
	push	eax
	call	?GET_PRIVATE@@YAPAXPAUedict_s@@@Z	; GET_PRIVATE
	add	esp, 4
	mov	DWORD PTR _newEnt$[ebp], eax

; 1155 : 
; 1156 : 	if (newEnt == NULL) 

	cmp	DWORD PTR _newEnt$[ebp], 0
	jne	SHORT $LN3@GetClassPt

; 1157 : 	{
; 1158 : 		// allocate private data 
; 1159 : 		newEnt = new(pev) T;

	mov	eax, DWORD PTR _pev$[ebp]
	push	eax
	push	1804					; 0000070cH
	call	??2CBaseEntity@@SAPAXIPAUentvars_s@@@Z	; CBaseEntity::operator new
	add	esp, 8
	mov	DWORD PTR $T2[ebp], eax
	mov	DWORD PTR __$EHRec$[ebp+8], 0
	cmp	DWORD PTR $T2[ebp], 0
	je	SHORT $LN5@GetClassPt
	mov	ecx, DWORD PTR $T2[ebp]
	call	??0CCrossbowAmmo@@QAE@XZ
	mov	DWORD PTR tv85[ebp], eax
	jmp	SHORT $LN6@GetClassPt
$LN5@GetClassPt:
	mov	DWORD PTR tv85[ebp], 0
$LN6@GetClassPt:
	mov	ecx, DWORD PTR tv85[ebp]
	mov	DWORD PTR $T3[ebp], ecx
	mov	DWORD PTR __$EHRec$[ebp+8], -1
	mov	edx, DWORD PTR $T3[ebp]
	mov	DWORD PTR _newEnt$[ebp], edx

; 1160 : 		newEnt->pev = pev;

	mov	eax, DWORD PTR _newEnt$[ebp]
	mov	ecx, DWORD PTR _pev$[ebp]
	mov	DWORD PTR [eax+4], ecx
$LN3@GetClassPt:

; 1161 : 	}
; 1162 : 	newEnt->SetClassname( className );

	mov	eax, DWORD PTR _className$[ebp]
	push	eax
	mov	ecx, DWORD PTR _newEnt$[ebp]
	call	?SetClassname@CBaseEntity@@QAEXPBD@Z	; CBaseEntity::SetClassname

; 1163 : 
; 1164 : 	return newEnt;

	mov	eax, DWORD PTR _newEnt$[ebp]

; 1165 : }

	mov	ecx, DWORD PTR __$EHRec$[ebp]
	mov	DWORD PTR fs:0, ecx
	pop	ecx
	pop	edi
	pop	esi
	pop	ebx
	mov	esp, ebp
	pop	ebp
	ret	0
_TEXT	ENDS
;	COMDAT text$x
text$x	SEGMENT
__unwindfunclet$??$GetClassPtr@VCCrossbowAmmo@@@@YAPAVCCrossbowAmmo@@PAV0@PBD@Z$0:
	mov	eax, DWORD PTR _pev$[ebp]
	push	eax
	mov	eax, DWORD PTR $T2[ebp]
	push	eax
	call	??3CBaseEntity@@SAXPAXPAUentvars_s@@@Z	; CBaseEntity::operator delete
	add	esp, 8
	ret	0
__ehhandler$??$GetClassPtr@VCCrossbowAmmo@@@@YAPAVCCrossbowAmmo@@PAV0@PBD@Z:
	mov	edx, DWORD PTR [esp+8]
	lea	eax, DWORD PTR [edx+12]
	mov	ecx, DWORD PTR [edx-96]
	xor	ecx, eax
	call	@__security_check_cookie@4
	mov	eax, OFFSET __ehfuncinfo$??$GetClassPtr@VCCrossbowAmmo@@@@YAPAVCCrossbowAmmo@@PAV0@PBD@Z
	jmp	___CxxFrameHandler3
text$x	ENDS
??$GetClassPtr@VCCrossbowAmmo@@@@YAPAVCCrossbowAmmo@@PAV0@PBD@Z ENDP ; GetClassPtr<CCrossbowAmmo>
; Function compile flags: /Odtp /ZI
; File d:\!diffusion 2020\source code 2022\client-server\server\weapons\weapon_crossbow.cpp
;	COMDAT ??__Eammo_crossbow@@YAXXZ
text$di	SEGMENT
??__Eammo_crossbow@@YAXXZ PROC				; `dynamic initializer for 'ammo_crossbow'', COMDAT

; 771  : LINK_ENTITY_TO_CLASS( ammo_crossbow, CCrossbowAmmo );

	push	ebp
	mov	ebp, esp
	sub	esp, 64					; 00000040H
	push	ebx
	push	esi
	push	edi
	push	OFFSET ??_C@_0O@DMPMCOMO@ammo_crossbow?$AA@
	mov	ecx, OFFSET ?ammo_crossbow@@3V?$CEntityFactory@VCCrossbowAmmo@@@@A
	call	??0?$CEntityFactory@VCCrossbowAmmo@@@@QAE@PBD@Z ; CEntityFactory<CCrossbowAmmo>::CEntityFactory<CCrossbowAmmo>
	pop	edi
	pop	esi
	pop	ebx
	mov	esp, ebp
	pop	ebp
	ret	0
??__Eammo_crossbow@@YAXXZ ENDP				; `dynamic initializer for 'ammo_crossbow''
text$di	ENDS
; Function compile flags: /Odtp /ZI
; File d:\!diffusion 2020\source code 2022\client-server\server\util.h
;	COMDAT ?GetEntitySize@?$CEntityFactory@VCCrossbowAmmo@@@@UAEIXZ
_TEXT	SEGMENT
_this$ = -4						; size = 4
?GetEntitySize@?$CEntityFactory@VCCrossbowAmmo@@@@UAEIXZ PROC ; CEntityFactory<CCrossbowAmmo>::GetEntitySize, COMDAT
; _this$ = ecx

; 103  : 	{

	push	ebp
	mov	ebp, esp
	sub	esp, 68					; 00000044H
	push	ebx
	push	esi
	push	edi
	mov	DWORD PTR _this$[ebp], ecx

; 104  : 		return sizeof(T);

	mov	eax, 1804				; 0000070cH

; 105  : 	}

	pop	edi
	pop	esi
	pop	ebx
	mov	esp, ebp
	pop	ebp
	ret	0
?GetEntitySize@?$CEntityFactory@VCCrossbowAmmo@@@@UAEIXZ ENDP ; CEntityFactory<CCrossbowAmmo>::GetEntitySize
_TEXT	ENDS
; Function compile flags: /Odtp /ZI
; File d:\!diffusion 2020\source code 2022\client-server\server\util.h
;	COMDAT ?Destroy@?$CEntityFactory@VCCrossbowAmmo@@@@UAEXPAVCBaseEntity@@@Z
_TEXT	SEGMENT
_this$ = -4						; size = 4
_pEntity$ = 8						; size = 4
?Destroy@?$CEntityFactory@VCCrossbowAmmo@@@@UAEXPAVCBaseEntity@@@Z PROC ; CEntityFactory<CCrossbowAmmo>::Destroy, COMDAT
; _this$ = ecx

; 98   : 	{

	push	ebp
	mov	ebp, esp
	sub	esp, 68					; 00000044H
	push	ebx
	push	esi
	push	edi
	mov	DWORD PTR _this$[ebp], ecx

; 99   : 		UTIL_Remove( pEntity );

	mov	eax, DWORD PTR _pEntity$[ebp]
	push	eax
	call	?UTIL_Remove@@YAXPAVCBaseEntity@@@Z	; UTIL_Remove
	add	esp, 4

; 100  : 	}

	pop	edi
	pop	esi
	pop	ebx
	mov	esp, ebp
	pop	ebp
	ret	4
?Destroy@?$CEntityFactory@VCCrossbowAmmo@@@@UAEXPAVCBaseEntity@@@Z ENDP ; CEntityFactory<CCrossbowAmmo>::Destroy
_TEXT	ENDS
; Function compile flags: /Odtp /ZI
; File d:\!diffusion 2020\source code 2022\client-server\server\util.h
;	COMDAT ?Create@?$CEntityFactory@VCCrossbowAmmo@@@@UAEPAVCBaseEntity@@PBDPAUentvars_s@@@Z
_TEXT	SEGMENT
_pEnt$ = -8						; size = 4
_this$ = -4						; size = 4
_pClassName$ = 8					; size = 4
_pev$ = 12						; size = 4
?Create@?$CEntityFactory@VCCrossbowAmmo@@@@UAEPAVCBaseEntity@@PBDPAUentvars_s@@@Z PROC ; CEntityFactory<CCrossbowAmmo>::Create, COMDAT
; _this$ = ecx

; 92   : 	{

	push	ebp
	mov	ebp, esp
	sub	esp, 72					; 00000048H
	push	ebx
	push	esi
	push	edi
	mov	DWORD PTR _this$[ebp], ecx

; 93   : 		T* pEnt = GetClassPtr((T*)pev, pClassName);

	mov	eax, DWORD PTR _pClassName$[ebp]
	push	eax
	mov	ecx, DWORD PTR _pev$[ebp]
	push	ecx
	call	??$GetClassPtr@VCCrossbowAmmo@@@@YAPAVCCrossbowAmmo@@PAV0@PBD@Z ; GetClassPtr<CCrossbowAmmo>
	add	esp, 8
	mov	DWORD PTR _pEnt$[ebp], eax

; 94   : 		return pEnt;

	mov	eax, DWORD PTR _pEnt$[ebp]

; 95   : 	}

	pop	edi
	pop	esi
	pop	ebx
	mov	esp, ebp
	pop	ebp
	ret	8
?Create@?$CEntityFactory@VCCrossbowAmmo@@@@UAEPAVCBaseEntity@@PBDPAUentvars_s@@@Z ENDP ; CEntityFactory<CCrossbowAmmo>::Create
_TEXT	ENDS
; Function compile flags: /Odtp /ZI
; File d:\!diffusion 2020\source code 2022\client-server\server\util.h
;	COMDAT ??0?$CEntityFactory@VCCrossbowAmmo@@@@QAE@PBD@Z
_TEXT	SEGMENT
tv76 = -72						; size = 4
_this$ = -4						; size = 4
_pClassName$ = 8					; size = 4
??0?$CEntityFactory@VCCrossbowAmmo@@@@QAE@PBD@Z PROC	; CEntityFactory<CCrossbowAmmo>::CEntityFactory<CCrossbowAmmo>, COMDAT
; _this$ = ecx

; 86   : 	CEntityFactory( const char *pClassName )

	push	ebp
	mov	ebp, esp
	sub	esp, 72					; 00000048H
	push	ebx
	push	esi
	push	edi
	mov	DWORD PTR _this$[ebp], ecx

; 87   : 	{

	mov	ecx, DWORD PTR _this$[ebp]
	call	??0IEntityFactory@@QAE@XZ
	mov	eax, DWORD PTR _this$[ebp]
	mov	DWORD PTR [eax], OFFSET ??_7?$CEntityFactory@VCCrossbowAmmo@@@@6B@

; 88   : 		EntityFactoryDictionary()->InstallFactory( this, pClassName );

	call	?EntityFactoryDictionary@@YAPAVIEntityFactoryDictionary@@XZ ; EntityFactoryDictionary
	mov	DWORD PTR tv76[ebp], eax
	mov	eax, DWORD PTR _pClassName$[ebp]
	push	eax
	mov	ecx, DWORD PTR _this$[ebp]
	push	ecx
	mov	edx, DWORD PTR tv76[ebp]
	mov	eax, DWORD PTR [edx]
	mov	ecx, DWORD PTR tv76[ebp]
	mov	edx, DWORD PTR [eax]
	call	edx

; 89   : 	}

	mov	eax, DWORD PTR _this$[ebp]
	pop	edi
	pop	esi
	pop	ebx
	mov	esp, ebp
	pop	ebp
	ret	4
??0?$CEntityFactory@VCCrossbowAmmo@@@@QAE@PBD@Z ENDP	; CEntityFactory<CCrossbowAmmo>::CEntityFactory<CCrossbowAmmo>
_TEXT	ENDS
; Function compile flags: /Odtp /ZI
;	COMDAT ??0CCrossbowAmmo@@QAE@XZ
_TEXT	SEGMENT
_this$ = -4						; size = 4
??0CCrossbowAmmo@@QAE@XZ PROC				; CCrossbowAmmo::CCrossbowAmmo, COMDAT
; _this$ = ecx
	push	ebp
	mov	ebp, esp
	sub	esp, 68					; 00000044H
	push	ebx
	push	esi
	push	edi
	mov	DWORD PTR _this$[ebp], ecx
	mov	ecx, DWORD PTR _this$[ebp]
	call	??0CBasePlayerAmmo@@QAE@XZ
	mov	eax, DWORD PTR _this$[ebp]
	mov	DWORD PTR [eax], OFFSET ??_7CCrossbowAmmo@@6B@
	mov	eax, DWORD PTR _this$[ebp]
	pop	edi
	pop	esi
	pop	ebx
	mov	esp, ebp
	pop	ebp
	ret	0
??0CCrossbowAmmo@@QAE@XZ ENDP				; CCrossbowAmmo::CCrossbowAmmo
_TEXT	ENDS
; Function compile flags: /Odtp /ZI
; File d:\!diffusion 2020\source code 2022\client-server\server\weapons\weapon_crossbow.cpp
;	COMDAT ?AddAmmo@CCrossbowAmmo@@EAEHPAVCBaseEntity@@@Z
_TEXT	SEGMENT
_this$ = -4						; size = 4
_pOther$ = 8						; size = 4
?AddAmmo@CCrossbowAmmo@@EAEHPAVCBaseEntity@@@Z PROC	; CCrossbowAmmo::AddAmmo, COMDAT
; _this$ = ecx

; 760  : 	{ 

	push	ebp
	mov	ebp, esp
	sub	esp, 68					; 00000044H
	push	ebx
	push	esi
	push	edi
	mov	DWORD PTR _this$[ebp], ecx

; 761  : 		if (pOther->GiveAmmo( AMMO_CROSSBOWCLIP_GIVE, "bolts", BOLT_MAX_CARRY ) != -1)

	push	15					; 0000000fH
	push	OFFSET ??_C@_05DGHJLCJD@bolts?$AA@
	push	5
	mov	eax, DWORD PTR _pOther$[ebp]
	mov	edx, DWORD PTR [eax]
	mov	ecx, DWORD PTR _pOther$[ebp]
	mov	eax, DWORD PTR [edx+152]
	call	eax
	cmp	eax, -1
	je	SHORT $LN2@AddAmmo

; 762  : 		{
; 763  : 		//	EMIT_SOUND(ENT(pev), CHAN_ITEM, "items/9mmclip1.wav", 1, ATTN_NORM);
; 764  : 			PlayPickupSound( pOther );

	push	250					; 000000faH
	mov	eax, DWORD PTR _pOther$[ebp]
	push	eax
	call	?PlayPickupSound@@YAXPAVCBaseEntity@@H@Z ; PlayPickupSound
	add	esp, 8

; 765  : 			return TRUE;

	mov	eax, 1
	jmp	SHORT $LN1@AddAmmo
$LN2@AddAmmo:

; 766  : 		}
; 767  : 		return FALSE;

	xor	eax, eax
$LN1@AddAmmo:

; 768  : 	}

	pop	edi
	pop	esi
	pop	ebx
	mov	esp, ebp
	pop	ebp
	ret	4
?AddAmmo@CCrossbowAmmo@@EAEHPAVCBaseEntity@@@Z ENDP	; CCrossbowAmmo::AddAmmo
_TEXT	ENDS
; Function compile flags: /Odtp /ZI
; File d:\!diffusion 2020\source code 2022\client-server\server\weapons\weapon_crossbow.cpp
;	COMDAT ?Precache@CCrossbowAmmo@@EAEXXZ
_TEXT	SEGMENT
_this$ = -4						; size = 4
?Precache@CCrossbowAmmo@@EAEXXZ PROC			; CCrossbowAmmo::Precache, COMDAT
; _this$ = ecx

; 755  : 	{

	push	ebp
	mov	ebp, esp
	sub	esp, 68					; 00000044H
	push	ebx
	push	esi
	push	edi
	mov	DWORD PTR _this$[ebp], ecx

; 756  : 		PRECACHE_MODEL ("models/w_crossbow_clip.mdl");

	push	OFFSET ??_C@_0BL@OLELNEJC@models?1w_crossbow_clip?4mdl?$AA@
	call	DWORD PTR ?g_engfuncs@@3Uenginefuncs_s@@A
	add	esp, 4

; 757  : 		PRECACHE_SOUND("items/9mmclip1.wav");

	push	OFFSET ??_C@_0BD@BADMCPNB@items?19mmclip1?4wav?$AA@
	call	DWORD PTR ?g_engfuncs@@3Uenginefuncs_s@@A+4
	add	esp, 4

; 758  : 	}

	pop	edi
	pop	esi
	pop	ebx
	mov	esp, ebp
	pop	ebp
	ret	0
?Precache@CCrossbowAmmo@@EAEXXZ ENDP			; CCrossbowAmmo::Precache
_TEXT	ENDS
; Function compile flags: /Odtp /ZI
; File d:\!diffusion 2020\source code 2022\client-server\server\weapons\weapon_crossbow.cpp
;	COMDAT ?Spawn@CCrossbowAmmo@@EAEXXZ
_TEXT	SEGMENT
_this$ = -4						; size = 4
?Spawn@CCrossbowAmmo@@EAEXXZ PROC			; CCrossbowAmmo::Spawn, COMDAT
; _this$ = ecx

; 749  : 	{ 

	push	ebp
	mov	ebp, esp
	sub	esp, 68					; 00000044H
	push	ebx
	push	esi
	push	edi
	mov	DWORD PTR _this$[ebp], ecx

; 750  : 		Precache( );

	mov	eax, DWORD PTR _this$[ebp]
	mov	edx, DWORD PTR [eax]
	mov	ecx, DWORD PTR _this$[ebp]
	mov	eax, DWORD PTR [edx+8]
	call	eax

; 751  : 		SET_MODEL(ENT(pev), "models/w_crossbow_clip.mdl");

	push	OFFSET ??_C@_0BL@OLELNEJC@models?1w_crossbow_clip?4mdl?$AA@
	mov	eax, DWORD PTR _this$[ebp]
	mov	ecx, DWORD PTR [eax+4]
	push	ecx
	call	?ENT@@YAPAUedict_s@@PBUentvars_s@@@Z	; ENT
	add	esp, 4
	push	eax
	call	DWORD PTR ?g_engfuncs@@3Uenginefuncs_s@@A+8
	add	esp, 8

; 752  : 		CBasePlayerAmmo::Spawn( );

	mov	ecx, DWORD PTR _this$[ebp]
	call	?Spawn@CBasePlayerAmmo@@UAEXXZ		; CBasePlayerAmmo::Spawn

; 753  : 	}

	pop	edi
	pop	esi
	pop	ebx
	mov	esp, ebp
	pop	ebp
	ret	0
?Spawn@CCrossbowAmmo@@EAEXXZ ENDP			; CCrossbowAmmo::Spawn
_TEXT	ENDS
; Function compile flags: /Odtp /ZI
;	COMDAT ??__FnameHolder@?1???$DataMapInit@VCCrossbow@@@@YAPAUdatamap_s@@PAVCCrossbow@@@Z@YAXXZ
text$yd	SEGMENT
??__FnameHolder@?1???$DataMapInit@VCCrossbow@@@@YAPAUdatamap_s@@PAVCCrossbow@@@Z@YAXXZ PROC ; `DataMapInit<CCrossbow>'::`2'::`dynamic atexit destructor for 'nameHolder'', COMDAT
	push	ebp
	mov	ebp, esp
	sub	esp, 64					; 00000040H
	push	ebx
	push	esi
	push	edi
	mov	ecx, OFFSET ?nameHolder@?1???$DataMapInit@VCCrossbow@@@@YAPAUdatamap_s@@PAVCCrossbow@@@Z@4VCDatadescGeneratedNameHolder@@A
	call	??1CDatadescGeneratedNameHolder@@QAE@XZ	; CDatadescGeneratedNameHolder::~CDatadescGeneratedNameHolder
	pop	edi
	pop	esi
	pop	ebx
	mov	esp, ebp
	pop	ebp
	ret	0
??__FnameHolder@?1???$DataMapInit@VCCrossbow@@@@YAPAUdatamap_s@@PAVCCrossbow@@@Z@YAXXZ ENDP ; `DataMapInit<CCrossbow>'::`2'::`dynamic atexit destructor for 'nameHolder''
text$yd	ENDS
; Function compile flags: /Odtp /ZI
; File d:\!diffusion 2020\source code 2022\client-server\server\weapons\weapon_crossbow.cpp
;	COMDAT ??__Eg_DataMapHolder@CCrossbow_DataDescInit@@YAXXZ
text$di	SEGMENT
??__Eg_DataMapHolder@CCrossbow_DataDescInit@@YAXXZ PROC	; CCrossbow_DataDescInit::`dynamic initializer for 'g_DataMapHolder'', COMDAT

; 374  : BEGIN_DATADESC( CCrossbow )

	push	ebp
	mov	ebp, esp
	sub	esp, 64					; 00000040H
	push	ebx
	push	esi
	push	edi
	push	0
	call	??$DataMapInit@VCCrossbow@@@@YAPAUdatamap_s@@PAVCCrossbow@@@Z ; DataMapInit<CCrossbow>
	add	esp, 4
	mov	DWORD PTR ?g_DataMapHolder@CCrossbow_DataDescInit@@3PAUdatamap_s@@A, eax ; CCrossbow_DataDescInit::g_DataMapHolder
	pop	edi
	pop	esi
	pop	ebx
	mov	esp, ebp
	pop	ebp
	ret	0
??__Eg_DataMapHolder@CCrossbow_DataDescInit@@YAXXZ ENDP	; CCrossbow_DataDescInit::`dynamic initializer for 'g_DataMapHolder''
text$di	ENDS
; Function compile flags: /Odtp /ZI
; File d:\!diffusion 2020\source code 2022\client-server\server\weapons\weapon_crossbow.cpp
;	COMDAT ??$DataMapInit@VCCrossbow@@@@YAPAUdatamap_s@@PAVCCrossbow@@@Z
_TEXT	SEGMENT
__$EHRec$ = -12						; size = 12
___formal$ = 8						; size = 4
??$DataMapInit@VCCrossbow@@@@YAPAUdatamap_s@@PAVCCrossbow@@@Z PROC ; DataMapInit<CCrossbow>, COMDAT

; 374  : BEGIN_DATADESC( CCrossbow )

	push	ebp
	mov	ebp, esp
	push	-1
	push	__ehhandler$??$DataMapInit@VCCrossbow@@@@YAPAUdatamap_s@@PAVCCrossbow@@@Z
	mov	eax, DWORD PTR fs:0
	push	eax
	sub	esp, 64					; 00000040H
	push	ebx
	push	esi
	push	edi
	mov	eax, DWORD PTR ___security_cookie
	xor	eax, ebp
	push	eax
	lea	eax, DWORD PTR __$EHRec$[ebp]
	mov	DWORD PTR fs:0, eax
	mov	eax, DWORD PTR __tls_index
	mov	ecx, DWORD PTR fs:__tls_array
	mov	edx, DWORD PTR [ecx+eax*4]
	mov	eax, DWORD PTR ?$TSS0@?1???$DataMapInit@VCCrossbow@@@@YAPAUdatamap_s@@PAVCCrossbow@@@Z@4HA
	cmp	eax, DWORD PTR __Init_thread_epoch[edx]
	jle	SHORT $LN2@DataMapIni
	push	OFFSET ?$TSS0@?1???$DataMapInit@VCCrossbow@@@@YAPAUdatamap_s@@PAVCCrossbow@@@Z@4HA
	call	__Init_thread_header
	add	esp, 4
	cmp	DWORD PTR ?$TSS0@?1???$DataMapInit@VCCrossbow@@@@YAPAUdatamap_s@@PAVCCrossbow@@@Z@4HA, -1
	jne	SHORT $LN2@DataMapIni
	mov	DWORD PTR __$EHRec$[ebp+8], 0
	push	OFFSET ??_C@_09JMHCAHNN@CCrossbow?$AA@
	mov	ecx, OFFSET ?nameHolder@?1???$DataMapInit@VCCrossbow@@@@YAPAUdatamap_s@@PAVCCrossbow@@@Z@4VCDatadescGeneratedNameHolder@@A
	call	??0CDatadescGeneratedNameHolder@@QAE@PBD@Z ; CDatadescGeneratedNameHolder::CDatadescGeneratedNameHolder
	push	OFFSET ??__FnameHolder@?1???$DataMapInit@VCCrossbow@@@@YAPAUdatamap_s@@PAVCCrossbow@@@Z@YAXXZ ; `DataMapInit<CCrossbow>'::`2'::`dynamic atexit destructor for 'nameHolder''
	call	_atexit
	add	esp, 4
	mov	DWORD PTR __$EHRec$[ebp+8], -1
	push	OFFSET ?$TSS0@?1???$DataMapInit@VCCrossbow@@@@YAPAUdatamap_s@@PAVCCrossbow@@@Z@4HA
	call	__Init_thread_footer
	add	esp, 4
$LN2@DataMapIni:

; 375  : 	DEFINE_FIELD( m_fInZoom, FIELD_BOOLEAN ),
; 376  : 	DEFINE_FIELD( m_fZoomInUse, FIELD_BOOLEAN ),
; 377  : END_DATADESC()

	call	?GetBaseMap@CCrossbow@@SAPAUdatamap_s@@XZ ; CCrossbow::GetBaseMap
	mov	DWORD PTR ?m_DataMap@CCrossbow@@2Udatamap_s@@A+12, eax
	mov	eax, 1
	test	eax, eax
	je	SHORT $LN3@DataMapIni
	mov	DWORD PTR ?m_DataMap@CCrossbow@@2Udatamap_s@@A+4, 2
	mov	eax, 24					; 00000018H
	shl	eax, 0
	add	eax, OFFSET ?dataDesc@?1???$DataMapInit@VCCrossbow@@@@YAPAUdatamap_s@@PAVCCrossbow@@@Z@4PAUtypedescription_s@@A
	mov	DWORD PTR ?m_DataMap@CCrossbow@@2Udatamap_s@@A, eax
	jmp	SHORT $LN4@DataMapIni
$LN3@DataMapIni:
	mov	DWORD PTR ?m_DataMap@CCrossbow@@2Udatamap_s@@A+4, 1
	mov	DWORD PTR ?m_DataMap@CCrossbow@@2Udatamap_s@@A, OFFSET ?dataDesc@?1???$DataMapInit@VCCrossbow@@@@YAPAUdatamap_s@@PAVCCrossbow@@@Z@4PAUtypedescription_s@@A
$LN4@DataMapIni:
	mov	eax, OFFSET ?m_DataMap@CCrossbow@@2Udatamap_s@@A ; CCrossbow::m_DataMap
	mov	ecx, DWORD PTR __$EHRec$[ebp]
	mov	DWORD PTR fs:0, ecx
	pop	ecx
	pop	edi
	pop	esi
	pop	ebx
	mov	esp, ebp
	pop	ebp
	ret	0
_TEXT	ENDS
;	COMDAT text$x
text$x	SEGMENT
__unwindfunclet$??$DataMapInit@VCCrossbow@@@@YAPAUdatamap_s@@PAVCCrossbow@@@Z$0:
	push	OFFSET ?$TSS0@?1???$DataMapInit@VCCrossbow@@@@YAPAUdatamap_s@@PAVCCrossbow@@@Z@4HA
	call	__Init_thread_abort
	pop	ecx
	ret	0
__ehhandler$??$DataMapInit@VCCrossbow@@@@YAPAUdatamap_s@@PAVCCrossbow@@@Z:
	mov	edx, DWORD PTR [esp+8]
	lea	eax, DWORD PTR [edx+12]
	mov	ecx, DWORD PTR [edx-80]
	xor	ecx, eax
	call	@__security_check_cookie@4
	mov	eax, OFFSET __ehfuncinfo$??$DataMapInit@VCCrossbow@@@@YAPAUdatamap_s@@PAVCCrossbow@@@Z
	jmp	___CxxFrameHandler3
text$x	ENDS
??$DataMapInit@VCCrossbow@@@@YAPAUdatamap_s@@PAVCCrossbow@@@Z ENDP ; DataMapInit<CCrossbow>
; Function compile flags: /Odtp /ZI
; File d:\!diffusion 2020\source code 2022\client-server\common\datamap.h
;	COMDAT ??$DataMapAccess@VCBasePlayerWeapon@@@@YAXPAVCBasePlayerWeapon@@PAPAUdatamap_s@@@Z
_TEXT	SEGMENT
_ignored$ = 8						; size = 4
_p$ = 12						; size = 4
??$DataMapAccess@VCBasePlayerWeapon@@@@YAXPAVCBasePlayerWeapon@@PAPAUdatamap_s@@@Z PROC ; DataMapAccess<CBasePlayerWeapon>, COMDAT

; 184  : {

	push	ebp
	mov	ebp, esp
	sub	esp, 64					; 00000040H
	push	ebx
	push	esi
	push	edi

; 185  : 	*p = &T::m_DataMap;

	mov	eax, DWORD PTR _p$[ebp]
	mov	DWORD PTR [eax], OFFSET ?m_DataMap@CBasePlayerWeapon@@2Udatamap_s@@A ; CBasePlayerWeapon::m_DataMap

; 186  : }

	pop	edi
	pop	esi
	pop	ebx
	mov	esp, ebp
	pop	ebp
	ret	0
??$DataMapAccess@VCBasePlayerWeapon@@@@YAXPAVCBasePlayerWeapon@@PAPAUdatamap_s@@@Z ENDP ; DataMapAccess<CBasePlayerWeapon>
_TEXT	ENDS
; Function compile flags: /Odtp /ZI
; File d:\!diffusion 2020\source code 2022\client-server\server\weapons\weapon_crossbow.cpp
;	COMDAT ??__Eweapon_crossbow@@YAXXZ
text$di	SEGMENT
??__Eweapon_crossbow@@YAXXZ PROC			; `dynamic initializer for 'weapon_crossbow'', COMDAT

; 372  : LINK_ENTITY_TO_CLASS( weapon_crossbow, CCrossbow );

	push	ebp
	mov	ebp, esp
	sub	esp, 64					; 00000040H
	push	ebx
	push	esi
	push	edi
	push	OFFSET ??_C@_0BA@IMEECLKD@weapon_crossbow?$AA@
	mov	ecx, OFFSET ?weapon_crossbow@@3V?$CEntityFactory@VCCrossbow@@@@A
	call	??0?$CEntityFactory@VCCrossbow@@@@QAE@PBD@Z ; CEntityFactory<CCrossbow>::CEntityFactory<CCrossbow>
	pop	edi
	pop	esi
	pop	ebx
	mov	esp, ebp
	pop	ebp
	ret	0
??__Eweapon_crossbow@@YAXXZ ENDP			; `dynamic initializer for 'weapon_crossbow''
text$di	ENDS
; Function compile flags: /Odtp /ZI
; File d:\!diffusion 2020\source code 2022\client-server\server\util.h
;	COMDAT ?GetEntitySize@?$CEntityFactory@VCCrossbow@@@@UAEIXZ
_TEXT	SEGMENT
_this$ = -4						; size = 4
?GetEntitySize@?$CEntityFactory@VCCrossbow@@@@UAEIXZ PROC ; CEntityFactory<CCrossbow>::GetEntitySize, COMDAT
; _this$ = ecx

; 103  : 	{

	push	ebp
	mov	ebp, esp
	sub	esp, 68					; 00000044H
	push	ebx
	push	esi
	push	edi
	mov	DWORD PTR _this$[ebp], ecx

; 104  : 		return sizeof(T);

	mov	eax, 1932				; 0000078cH

; 105  : 	}

	pop	edi
	pop	esi
	pop	ebx
	mov	esp, ebp
	pop	ebp
	ret	0
?GetEntitySize@?$CEntityFactory@VCCrossbow@@@@UAEIXZ ENDP ; CEntityFactory<CCrossbow>::GetEntitySize
_TEXT	ENDS
; Function compile flags: /Odtp /ZI
; File d:\!diffusion 2020\source code 2022\client-server\server\util.h
;	COMDAT ?Destroy@?$CEntityFactory@VCCrossbow@@@@UAEXPAVCBaseEntity@@@Z
_TEXT	SEGMENT
_this$ = -4						; size = 4
_pEntity$ = 8						; size = 4
?Destroy@?$CEntityFactory@VCCrossbow@@@@UAEXPAVCBaseEntity@@@Z PROC ; CEntityFactory<CCrossbow>::Destroy, COMDAT
; _this$ = ecx

; 98   : 	{

	push	ebp
	mov	ebp, esp
	sub	esp, 68					; 00000044H
	push	ebx
	push	esi
	push	edi
	mov	DWORD PTR _this$[ebp], ecx

; 99   : 		UTIL_Remove( pEntity );

	mov	eax, DWORD PTR _pEntity$[ebp]
	push	eax
	call	?UTIL_Remove@@YAXPAVCBaseEntity@@@Z	; UTIL_Remove
	add	esp, 4

; 100  : 	}

	pop	edi
	pop	esi
	pop	ebx
	mov	esp, ebp
	pop	ebp
	ret	4
?Destroy@?$CEntityFactory@VCCrossbow@@@@UAEXPAVCBaseEntity@@@Z ENDP ; CEntityFactory<CCrossbow>::Destroy
_TEXT	ENDS
; Function compile flags: /Odtp /ZI
; File d:\!diffusion 2020\source code 2022\client-server\server\util.h
;	COMDAT ?Create@?$CEntityFactory@VCCrossbow@@@@UAEPAVCBaseEntity@@PBDPAUentvars_s@@@Z
_TEXT	SEGMENT
_pEnt$ = -8						; size = 4
_this$ = -4						; size = 4
_pClassName$ = 8					; size = 4
_pev$ = 12						; size = 4
?Create@?$CEntityFactory@VCCrossbow@@@@UAEPAVCBaseEntity@@PBDPAUentvars_s@@@Z PROC ; CEntityFactory<CCrossbow>::Create, COMDAT
; _this$ = ecx

; 92   : 	{

	push	ebp
	mov	ebp, esp
	sub	esp, 72					; 00000048H
	push	ebx
	push	esi
	push	edi
	mov	DWORD PTR _this$[ebp], ecx

; 93   : 		T* pEnt = GetClassPtr((T*)pev, pClassName);

	mov	eax, DWORD PTR _pClassName$[ebp]
	push	eax
	mov	ecx, DWORD PTR _pev$[ebp]
	push	ecx
	call	??$GetClassPtr@VCCrossbow@@@@YAPAVCCrossbow@@PAV0@PBD@Z ; GetClassPtr<CCrossbow>
	add	esp, 8
	mov	DWORD PTR _pEnt$[ebp], eax

; 94   : 		return pEnt;

	mov	eax, DWORD PTR _pEnt$[ebp]

; 95   : 	}

	pop	edi
	pop	esi
	pop	ebx
	mov	esp, ebp
	pop	ebp
	ret	8
?Create@?$CEntityFactory@VCCrossbow@@@@UAEPAVCBaseEntity@@PBDPAUentvars_s@@@Z ENDP ; CEntityFactory<CCrossbow>::Create
_TEXT	ENDS
; Function compile flags: /Odtp /ZI
; File d:\!diffusion 2020\source code 2022\client-server\server\util.h
;	COMDAT ??0?$CEntityFactory@VCCrossbow@@@@QAE@PBD@Z
_TEXT	SEGMENT
tv76 = -72						; size = 4
_this$ = -4						; size = 4
_pClassName$ = 8					; size = 4
??0?$CEntityFactory@VCCrossbow@@@@QAE@PBD@Z PROC	; CEntityFactory<CCrossbow>::CEntityFactory<CCrossbow>, COMDAT
; _this$ = ecx

; 86   : 	CEntityFactory( const char *pClassName )

	push	ebp
	mov	ebp, esp
	sub	esp, 72					; 00000048H
	push	ebx
	push	esi
	push	edi
	mov	DWORD PTR _this$[ebp], ecx

; 87   : 	{

	mov	ecx, DWORD PTR _this$[ebp]
	call	??0IEntityFactory@@QAE@XZ
	mov	eax, DWORD PTR _this$[ebp]
	mov	DWORD PTR [eax], OFFSET ??_7?$CEntityFactory@VCCrossbow@@@@6B@

; 88   : 		EntityFactoryDictionary()->InstallFactory( this, pClassName );

	call	?EntityFactoryDictionary@@YAPAVIEntityFactoryDictionary@@XZ ; EntityFactoryDictionary
	mov	DWORD PTR tv76[ebp], eax
	mov	eax, DWORD PTR _pClassName$[ebp]
	push	eax
	mov	ecx, DWORD PTR _this$[ebp]
	push	ecx
	mov	edx, DWORD PTR tv76[ebp]
	mov	eax, DWORD PTR [edx]
	mov	ecx, DWORD PTR tv76[ebp]
	mov	edx, DWORD PTR [eax]
	call	edx

; 89   : 	}

	mov	eax, DWORD PTR _this$[ebp]
	pop	edi
	pop	esi
	pop	ebx
	mov	esp, ebp
	pop	ebp
	ret	4
??0?$CEntityFactory@VCCrossbow@@@@QAE@PBD@Z ENDP	; CEntityFactory<CCrossbow>::CEntityFactory<CCrossbow>
_TEXT	ENDS
; Function compile flags: /Odtp /ZI
;	COMDAT ??0CCrossbow@@QAE@XZ
_TEXT	SEGMENT
_this$ = -4						; size = 4
??0CCrossbow@@QAE@XZ PROC				; CCrossbow::CCrossbow, COMDAT
; _this$ = ecx
	push	ebp
	mov	ebp, esp
	sub	esp, 68					; 00000044H
	push	ebx
	push	esi
	push	edi
	mov	DWORD PTR _this$[ebp], ecx
	mov	ecx, DWORD PTR _this$[ebp]
	call	??0CBasePlayerWeapon@@QAE@XZ
	mov	eax, DWORD PTR _this$[ebp]
	mov	DWORD PTR [eax], OFFSET ??_7CCrossbow@@6B@
	mov	eax, DWORD PTR _this$[ebp]
	pop	edi
	pop	esi
	pop	ebx
	mov	esp, ebp
	pop	ebp
	ret	0
??0CCrossbow@@QAE@XZ ENDP				; CCrossbow::CCrossbow
_TEXT	ENDS
; Function compile flags: /Odtp /ZI
; File d:\!diffusion 2020\source code 2022\client-server\server\weapons\weapon_crossbow.cpp
;	COMDAT ?ResetZoom@CCrossbow@@QAEXXZ
_TEXT	SEGMENT
_this$ = -4						; size = 4
?ResetZoom@CCrossbow@@QAEXXZ PROC			; CCrossbow::ResetZoom, COMDAT
; _this$ = ecx

; 456  : {

	push	ebp
	mov	ebp, esp
	sub	esp, 68					; 00000044H
	push	ebx
	push	esi
	push	edi
	mov	DWORD PTR _this$[ebp], ecx

; 457  : 	if( m_pPlayer->ZoomState > 0 )

	mov	eax, DWORD PTR _this$[ebp]
	mov	ecx, DWORD PTR [eax+1856]
	cmp	DWORD PTR [ecx+4760], 0
	jle	SHORT $LN2@ResetZoom

; 458  : 		UTIL_ScreenFade( m_pPlayer, g_vecZero, 0.5, 0, 255, 0x0000 );

	push	0
	push	255					; 000000ffH
	push	ecx
	xorps	xmm0, xmm0
	movss	DWORD PTR [esp], xmm0
	push	ecx
	movss	xmm0, DWORD PTR __real@3f000000
	movss	DWORD PTR [esp], xmm0
	push	OFFSET ?g_vecZero@@3VVector@@B		; g_vecZero
	mov	eax, DWORD PTR _this$[ebp]
	mov	ecx, DWORD PTR [eax+1856]
	push	ecx
	call	?UTIL_ScreenFade@@YAXPAVCBaseEntity@@ABVVector@@MMHH@Z ; UTIL_ScreenFade
	add	esp, 24					; 00000018H
$LN2@ResetZoom:

; 459  : 	
; 460  : 	m_fZoomInUse = 0;

	mov	eax, DWORD PTR _this$[ebp]
	mov	DWORD PTR [eax+1928], 0

; 461  : 	m_fInZoom = 0;

	mov	eax, DWORD PTR _this$[ebp]
	mov	DWORD PTR [eax+1924], 0

; 462  : 	m_pPlayer->ZoomState = 0;

	mov	eax, DWORD PTR _this$[ebp]
	mov	ecx, DWORD PTR [eax+1856]
	mov	DWORD PTR [ecx+4760], 0

; 463  : 	m_pPlayer->m_flFOV = 0;

	mov	eax, DWORD PTR _this$[ebp]
	mov	ecx, DWORD PTR [eax+1856]
	xorps	xmm0, xmm0
	movss	DWORD PTR [ecx+3056], xmm0

; 464  : 
; 465  : 	MESSAGE_BEGIN(MSG_ONE, gmsgZoom, NULL, m_pPlayer->pev);

	mov	eax, DWORD PTR _this$[ebp]
	mov	ecx, DWORD PTR [eax+1856]
	mov	edx, DWORD PTR [ecx+4]
	push	edx
	push	0
	mov	eax, DWORD PTR ?gmsgZoom@@3HA		; gmsgZoom
	push	eax
	push	1
	call	?MESSAGE_BEGIN@@YAXHHPBMPAUentvars_s@@@Z ; MESSAGE_BEGIN
	add	esp, 16					; 00000010H

; 466  : 		WRITE_BYTE(m_pPlayer->ZoomState);

	mov	eax, DWORD PTR _this$[ebp]
	mov	ecx, DWORD PTR [eax+1856]
	mov	edx, DWORD PTR [ecx+4760]
	push	edx
	call	DWORD PTR ?g_engfuncs@@3Uenginefuncs_s@@A+192
	add	esp, 4

; 467  : 		WRITE_BYTE( WEAPON_CROSSBOW );

	push	6
	call	DWORD PTR ?g_engfuncs@@3Uenginefuncs_s@@A+192
	add	esp, 4

; 468  : 	MESSAGE_END();

	call	DWORD PTR ?g_engfuncs@@3Uenginefuncs_s@@A+188

; 469  : }

	pop	edi
	pop	esi
	pop	ebx
	mov	esp, ebp
	pop	ebp
	ret	0
?ResetZoom@CCrossbow@@QAEXXZ ENDP			; CCrossbow::ResetZoom
_TEXT	ENDS
; Function compile flags: /Odtp /ZI
; File d:\!diffusion 2020\source code 2022\client-server\server\weapons\weapon_crossbow.cpp
;	COMDAT ?WeaponIdle@CCrossbow@@UAEXXZ
_TEXT	SEGMENT
tv238 = -88						; size = 4
$T1 = -84						; size = 12
_flRand$2 = -8						; size = 4
_this$ = -4						; size = 4
?WeaponIdle@CCrossbow@@UAEXXZ PROC			; CCrossbow::WeaponIdle, COMDAT
; _this$ = ecx

; 707  : {

	push	ebp
	mov	ebp, esp
	sub	esp, 88					; 00000058H
	push	ebx
	push	esi
	push	edi
	mov	DWORD PTR _this$[ebp], ecx

; 708  : 	m_pPlayer->GetAutoaimVector( AUTOAIM_2DEGREES );  // get the autoaim vector but ignore it;  used for autoaim crosshair in DM

	push	ecx
	movss	xmm0, DWORD PTR __real@3d0ef2c6
	movss	DWORD PTR [esp], xmm0
	lea	eax, DWORD PTR $T1[ebp]
	push	eax
	mov	ecx, DWORD PTR _this$[ebp]
	mov	ecx, DWORD PTR [ecx+1856]
	call	?GetAutoaimVector@CBasePlayer@@QAE?AVVector@@M@Z ; CBasePlayer::GetAutoaimVector

; 709  : 
; 710  : 	ResetEmptySound( );

	mov	eax, DWORD PTR _this$[ebp]
	mov	edx, DWORD PTR [eax]
	mov	ecx, DWORD PTR _this$[ebp]
	mov	eax, DWORD PTR [edx+468]
	call	eax

; 711  : 	m_fZoomInUse = 0;

	mov	eax, DWORD PTR _this$[ebp]
	mov	DWORD PTR [eax+1928], 0

; 712  : 	
; 713  : 	if (m_flTimeWeaponIdle < gpGlobals->time)

	mov	eax, DWORD PTR ?gpGlobals@@3PAUglobalvars_t@@A ; gpGlobals
	mov	ecx, DWORD PTR _this$[ebp]
	movss	xmm0, DWORD PTR [eax]
	comiss	xmm0, DWORD PTR [ecx+1892]
	jbe	$LN8@WeaponIdle

; 714  : 	{
; 715  : 		float flRand = RANDOM_FLOAT(0, 1);

	push	ecx
	movss	xmm0, DWORD PTR __real@3f800000
	movss	DWORD PTR [esp], xmm0
	push	ecx
	xorps	xmm0, xmm0
	movss	DWORD PTR [esp], xmm0
	call	DWORD PTR ?g_engfuncs@@3Uenginefuncs_s@@A+364
	add	esp, 8
	fstp	DWORD PTR _flRand$2[ebp]

; 716  : 		if (flRand <= 0.75)

	cvtss2sd xmm0, DWORD PTR _flRand$2[ebp]
	movsd	xmm1, QWORD PTR __real@3fe8000000000000
	comisd	xmm1, xmm0
	jb	SHORT $LN3@WeaponIdle

; 717  : 		{
; 718  : 			if (m_iClip)

	mov	eax, DWORD PTR _this$[ebp]
	cmp	DWORD PTR [eax+1904], 0
	je	SHORT $LN5@WeaponIdle

; 719  : 				SendWeaponAnim( CROSSBOW_IDLE1 );

	push	0
	push	0
	push	0
	mov	eax, DWORD PTR _this$[ebp]
	mov	edx, DWORD PTR [eax]
	mov	ecx, DWORD PTR _this$[ebp]
	mov	eax, DWORD PTR [edx+472]
	call	eax

; 720  : 			else

	jmp	SHORT $LN6@WeaponIdle
$LN5@WeaponIdle:

; 721  : 				SendWeaponAnim( CROSSBOW_IDLE2 );

	push	0
	push	0
	push	1
	mov	eax, DWORD PTR _this$[ebp]
	mov	edx, DWORD PTR [eax]
	mov	ecx, DWORD PTR _this$[ebp]
	mov	eax, DWORD PTR [edx+472]
	call	eax
$LN6@WeaponIdle:

; 722  : 
; 723  : 			m_flTimeWeaponIdle = gpGlobals->time + RANDOM_FLOAT ( 10, 15 );

	push	ecx
	movss	xmm0, DWORD PTR __real@41700000
	movss	DWORD PTR [esp], xmm0
	push	ecx
	movss	xmm0, DWORD PTR __real@41200000
	movss	DWORD PTR [esp], xmm0
	call	DWORD PTR ?g_engfuncs@@3Uenginefuncs_s@@A+364
	add	esp, 8
	fstp	DWORD PTR tv238[ebp]
	mov	eax, DWORD PTR ?gpGlobals@@3PAUglobalvars_t@@A ; gpGlobals
	movss	xmm0, DWORD PTR tv238[ebp]
	addss	xmm0, DWORD PTR [eax]
	mov	ecx, DWORD PTR _this$[ebp]
	movss	DWORD PTR [ecx+1892], xmm0

; 724  : 		}
; 725  : 		else

	jmp	SHORT $LN8@WeaponIdle
$LN3@WeaponIdle:

; 726  : 		{
; 727  : 			if (m_iClip)

	mov	eax, DWORD PTR _this$[ebp]
	cmp	DWORD PTR [eax+1904], 0
	je	SHORT $LN7@WeaponIdle

; 728  : 			{
; 729  : 				SendWeaponAnim( CROSSBOW_FIDGET1 );

	push	0
	push	0
	push	2
	mov	eax, DWORD PTR _this$[ebp]
	mov	edx, DWORD PTR [eax]
	mov	ecx, DWORD PTR _this$[ebp]
	mov	eax, DWORD PTR [edx+472]
	call	eax

; 730  : 				m_flTimeWeaponIdle = gpGlobals->time + 90.0 / 30.0;

	mov	eax, DWORD PTR ?gpGlobals@@3PAUglobalvars_t@@A ; gpGlobals
	cvtss2sd xmm0, DWORD PTR [eax]
	addsd	xmm0, QWORD PTR __real@4008000000000000
	cvtsd2ss xmm0, xmm0
	mov	ecx, DWORD PTR _this$[ebp]
	movss	DWORD PTR [ecx+1892], xmm0

; 731  : 			}
; 732  : 			else

	jmp	SHORT $LN8@WeaponIdle
$LN7@WeaponIdle:

; 733  : 			{
; 734  : 				SendWeaponAnim( CROSSBOW_FIDGET2 );

	push	0
	push	0
	push	3
	mov	eax, DWORD PTR _this$[ebp]
	mov	edx, DWORD PTR [eax]
	mov	ecx, DWORD PTR _this$[ebp]
	mov	eax, DWORD PTR [edx+472]
	call	eax

; 735  : 				m_flTimeWeaponIdle = gpGlobals->time + 80.0 / 30.0;

	mov	eax, DWORD PTR ?gpGlobals@@3PAUglobalvars_t@@A ; gpGlobals
	cvtss2sd xmm0, DWORD PTR [eax]
	addsd	xmm0, QWORD PTR __real@4005555555555555
	cvtsd2ss xmm0, xmm0
	mov	ecx, DWORD PTR _this$[ebp]
	movss	DWORD PTR [ecx+1892], xmm0
$LN8@WeaponIdle:

; 736  : 			}
; 737  : 		}
; 738  : 	}
; 739  : }

	pop	edi
	pop	esi
	pop	ebx
	mov	esp, ebp
	pop	ebp
	ret	0
?WeaponIdle@CCrossbow@@UAEXXZ ENDP			; CCrossbow::WeaponIdle
_TEXT	ENDS
; Function compile flags: /Odtp /ZI
; File d:\!diffusion 2020\source code 2022\client-server\server\weapons\weapon_crossbow.cpp
;	COMDAT ?Reload@CCrossbow@@UAEXXZ
_TEXT	SEGMENT
_this$ = -4						; size = 4
?Reload@CCrossbow@@UAEXXZ PROC				; CCrossbow::Reload, COMDAT
; _this$ = ecx

; 693  : {

	push	ebp
	mov	ebp, esp
	sub	esp, 68					; 00000044H
	push	ebx
	push	esi
	push	edi
	mov	DWORD PTR _this$[ebp], ecx

; 694  : 	if( m_pPlayer->m_rgAmmo[m_iPrimaryAmmoType] <= 0 || m_iClip == CROSSBOW_MAX_CLIP )

	mov	eax, DWORD PTR _this$[ebp]
	mov	ecx, DWORD PTR [eax+1856]
	mov	edx, DWORD PTR _this$[ebp]
	mov	eax, DWORD PTR [edx+1896]
	cmp	DWORD PTR [ecx+eax*4+3628], 0
	jle	SHORT $LN3@Reload
	mov	eax, DWORD PTR _this$[ebp]
	cmp	DWORD PTR [eax+1904], 5
	jne	SHORT $LN2@Reload
$LN3@Reload:

; 695  : 		return;

	jmp	$LN1@Reload
$LN2@Reload:

; 696  : 	
; 697  : 	CLIENT_COMMAND(m_pPlayer->edict(), "-reload\n");

	push	OFFSET ??_C@_08PEMEPKH@?9reload?6?$AA@
	mov	eax, DWORD PTR _this$[ebp]
	mov	ecx, DWORD PTR [eax+1856]
	call	?edict@CBaseEntity@@QAEPAUedict_s@@XZ	; CBaseEntity::edict
	push	eax
	call	DWORD PTR ?g_engfuncs@@3Uenginefuncs_s@@A+164
	add	esp, 8

; 698  : 	
; 699  : 	if( m_fInZoom )

	mov	eax, DWORD PTR _this$[ebp]
	cmp	DWORD PTR [eax+1924], 0
	je	SHORT $LN4@Reload

; 700  : 		ResetZoom();

	mov	ecx, DWORD PTR _this$[ebp]
	call	?ResetZoom@CCrossbow@@QAEXXZ		; CCrossbow::ResetZoom
$LN4@Reload:

; 701  : 
; 702  : 	if (DefaultReload( 5, CROSSBOW_RELOAD, 4.5 ))

	push	0
	push	ecx
	movss	xmm0, DWORD PTR __real@40900000
	movss	DWORD PTR [esp], xmm0
	push	7
	push	5
	mov	ecx, DWORD PTR _this$[ebp]
	call	?DefaultReload@CBasePlayerWeapon@@QAEHHHMH@Z ; CBasePlayerWeapon::DefaultReload
	test	eax, eax
	je	SHORT $LN5@Reload

; 703  : 		EMIT_SOUND_DYN(ENT(m_pPlayer->pev), CHAN_ITEM, "weapons/xbow_reload1.wav", RANDOM_FLOAT(0.95, 1.0), ATTN_NORM, 0, 93 + RANDOM_LONG(0,0xF));

	push	15					; 0000000fH
	push	0
	call	DWORD PTR ?g_engfuncs@@3Uenginefuncs_s@@A+360
	add	esp, 8
	add	eax, 93					; 0000005dH
	push	eax
	push	0
	push	ecx
	movss	xmm0, DWORD PTR __real@3f4ccccd
	movss	DWORD PTR [esp], xmm0
	push	ecx
	movss	xmm0, DWORD PTR __real@3f800000
	movss	DWORD PTR [esp], xmm0
	push	ecx
	movss	xmm0, DWORD PTR __real@3f733333
	movss	DWORD PTR [esp], xmm0
	call	DWORD PTR ?g_engfuncs@@3Uenginefuncs_s@@A+364
	add	esp, 4
	fstp	DWORD PTR [esp]
	push	OFFSET ??_C@_0BJ@JLOJNCHH@weapons?1xbow_reload1?4wav?$AA@
	push	3
	mov	eax, DWORD PTR _this$[ebp]
	mov	ecx, DWORD PTR [eax+1856]
	mov	edx, DWORD PTR [ecx+4]
	push	edx
	call	?ENT@@YAPAUedict_s@@PBUentvars_s@@@Z	; ENT
	add	esp, 4
	push	eax
	call	?EMIT_SOUND_DYN@@YAXPAUedict_s@@HPBDMMHH@Z ; EMIT_SOUND_DYN
	add	esp, 28					; 0000001cH
$LN5@Reload:
$LN1@Reload:

; 704  : }

	pop	edi
	pop	esi
	pop	ebx
	mov	esp, ebp
	pop	ebp
	ret	0
?Reload@CCrossbow@@UAEXXZ ENDP				; CCrossbow::Reload
_TEXT	ENDS
; Function compile flags: /Odtp /ZI
; File d:\!diffusion 2020\source code 2022\client-server\server\weapons\weapon_crossbow.cpp
;	COMDAT ?Holster@CCrossbow@@UAEXXZ
_TEXT	SEGMENT
_this$ = -4						; size = 4
?Holster@CCrossbow@@UAEXXZ PROC				; CCrossbow::Holster, COMDAT
; _this$ = ecx

; 441  : {

	push	ebp
	mov	ebp, esp
	sub	esp, 68					; 00000044H
	push	ebx
	push	esi
	push	edi
	mov	DWORD PTR _this$[ebp], ecx

; 442  : 	// cancel any zooming in progress
; 443  : 	ResetZoom();

	mov	ecx, DWORD PTR _this$[ebp]
	call	?ResetZoom@CCrossbow@@QAEXXZ		; CCrossbow::ResetZoom

; 444  : 
; 445  : 	m_pPlayer->m_flNextAttack = gpGlobals->time + 0.5;

	mov	eax, DWORD PTR ?gpGlobals@@3PAUglobalvars_t@@A ; gpGlobals
	cvtss2sd xmm0, DWORD PTR [eax]
	addsd	xmm0, QWORD PTR __real@3fe0000000000000
	cvtsd2ss xmm0, xmm0
	mov	ecx, DWORD PTR _this$[ebp]
	mov	edx, DWORD PTR [ecx+1856]
	movss	DWORD PTR [edx+2348], xmm0

; 446  : 
; 447  : 	if (m_iClip)

	mov	eax, DWORD PTR _this$[ebp]
	cmp	DWORD PTR [eax+1904], 0
	je	SHORT $LN2@Holster

; 448  : 		SendWeaponAnim( CROSSBOW_HOLSTER1 );

	push	0
	push	0
	push	10					; 0000000aH
	mov	eax, DWORD PTR _this$[ebp]
	mov	edx, DWORD PTR [eax]
	mov	ecx, DWORD PTR _this$[ebp]
	mov	eax, DWORD PTR [edx+472]
	call	eax

; 449  : 	else

	jmp	SHORT $LN3@Holster
$LN2@Holster:

; 450  : 		SendWeaponAnim( CROSSBOW_HOLSTER2 );

	push	0
	push	0
	push	11					; 0000000bH
	mov	eax, DWORD PTR _this$[ebp]
	mov	edx, DWORD PTR [eax]
	mov	ecx, DWORD PTR _this$[ebp]
	mov	eax, DWORD PTR [edx+472]
	call	eax
$LN3@Holster:

; 451  : 
; 452  : 	BaseClass::Holster();

	mov	ecx, DWORD PTR _this$[ebp]
	call	?Holster@CBasePlayerWeapon@@UAEXXZ	; CBasePlayerWeapon::Holster

; 453  : }

	pop	edi
	pop	esi
	pop	ebx
	mov	esp, ebp
	pop	ebp
	ret	0
?Holster@CCrossbow@@UAEXXZ ENDP				; CCrossbow::Holster
_TEXT	ENDS
; Function compile flags: /Odtp /ZI
; File d:\!diffusion 2020\source code 2022\client-server\server\weapons\weapon_crossbow.cpp
;	COMDAT ?Deploy@CCrossbow@@UAEHXZ
_TEXT	SEGMENT
_this$ = -4						; size = 4
?Deploy@CCrossbow@@UAEHXZ PROC				; CCrossbow::Deploy, COMDAT
; _this$ = ecx

; 433  : {

	push	ebp
	mov	ebp, esp
	sub	esp, 68					; 00000044H
	push	ebx
	push	esi
	push	edi
	mov	DWORD PTR _this$[ebp], ecx

; 434  : 	m_flTimeWeaponIdle = gpGlobals->time + 5.0;

	mov	eax, DWORD PTR ?gpGlobals@@3PAUglobalvars_t@@A ; gpGlobals
	cvtss2sd xmm0, DWORD PTR [eax]
	addsd	xmm0, QWORD PTR __real@4014000000000000
	cvtsd2ss xmm0, xmm0
	mov	ecx, DWORD PTR _this$[ebp]
	movss	DWORD PTR [ecx+1892], xmm0

; 435  : 	if (m_iClip)

	mov	eax, DWORD PTR _this$[ebp]
	cmp	DWORD PTR [eax+1904], 0
	je	SHORT $LN2@Deploy

; 436  : 		return DefaultDeploy( "models/v_crossbow.mdl", "models/p_crossbow.mdl", CROSSBOW_DRAW1, "bow" );

	push	0
	push	0
	push	OFFSET ??_C@_03GMGBHMEH@bow?$AA@
	push	8
	push	OFFSET ??_C@_0BG@HKBMANOC@models?1p_crossbow?4mdl?$AA@
	push	OFFSET ??_C@_0BG@FIOGNJBA@models?1v_crossbow?4mdl?$AA@
	mov	ecx, DWORD PTR _this$[ebp]
	call	?DefaultDeploy@CBasePlayerWeapon@@QAEHPAD0H0HH@Z ; CBasePlayerWeapon::DefaultDeploy
	jmp	SHORT $LN1@Deploy
$LN2@Deploy:

; 437  : 	return DefaultDeploy( "models/v_crossbow.mdl", "models/p_crossbow.mdl", CROSSBOW_DRAW2, "bow" );

	push	0
	push	0
	push	OFFSET ??_C@_03GMGBHMEH@bow?$AA@
	push	9
	push	OFFSET ??_C@_0BG@HKBMANOC@models?1p_crossbow?4mdl?$AA@
	push	OFFSET ??_C@_0BG@FIOGNJBA@models?1v_crossbow?4mdl?$AA@
	mov	ecx, DWORD PTR _this$[ebp]
	call	?DefaultDeploy@CBasePlayerWeapon@@QAEHPAD0H0HH@Z ; CBasePlayerWeapon::DefaultDeploy
$LN1@Deploy:

; 438  : }

	pop	edi
	pop	esi
	pop	ebx
	mov	esp, ebp
	pop	ebp
	ret	0
?Deploy@CCrossbow@@UAEHXZ ENDP				; CCrossbow::Deploy
_TEXT	ENDS
; Function compile flags: /Odtp /ZI
; File d:\!diffusion 2020\source code 2022\client-server\server\weapons\weapon_crossbow.cpp
;	COMDAT ?GetDataDescMap@CCrossbow@@UAEPAUdatamap_s@@XZ
_TEXT	SEGMENT
_this$ = -4						; size = 4
?GetDataDescMap@CCrossbow@@UAEPAUdatamap_s@@XZ PROC	; CCrossbow::GetDataDescMap, COMDAT
; _this$ = ecx

; 374  : BEGIN_DATADESC( CCrossbow )

	push	ebp
	mov	ebp, esp
	sub	esp, 68					; 00000044H
	push	ebx
	push	esi
	push	edi
	mov	DWORD PTR _this$[ebp], ecx
	mov	eax, OFFSET ?m_DataMap@CCrossbow@@2Udatamap_s@@A ; CCrossbow::m_DataMap
	pop	edi
	pop	esi
	pop	ebx
	mov	esp, ebp
	pop	ebp
	ret	0
?GetDataDescMap@CCrossbow@@UAEPAUdatamap_s@@XZ ENDP	; CCrossbow::GetDataDescMap
_TEXT	ENDS
; Function compile flags: /Odtp /ZI
; File d:\!diffusion 2020\source code 2022\client-server\server\weapons\weapon_crossbow.cpp
;	COMDAT ?GetBaseMap@CCrossbow@@SAPAUdatamap_s@@XZ
_TEXT	SEGMENT
_pResult$ = -4						; size = 4
?GetBaseMap@CCrossbow@@SAPAUdatamap_s@@XZ PROC		; CCrossbow::GetBaseMap, COMDAT

; 374  : BEGIN_DATADESC( CCrossbow )

	push	ebp
	mov	ebp, esp
	sub	esp, 68					; 00000044H
	push	ebx
	push	esi
	push	edi
	lea	eax, DWORD PTR _pResult$[ebp]
	push	eax
	push	0
	call	??$DataMapAccess@VCBasePlayerWeapon@@@@YAXPAVCBasePlayerWeapon@@PAPAUdatamap_s@@@Z ; DataMapAccess<CBasePlayerWeapon>
	add	esp, 8
	mov	eax, DWORD PTR _pResult$[ebp]
	pop	edi
	pop	esi
	pop	ebx
	mov	esp, ebp
	pop	ebp
	ret	0
?GetBaseMap@CCrossbow@@SAPAUdatamap_s@@XZ ENDP		; CCrossbow::GetBaseMap
_TEXT	ENDS
; Function compile flags: /Odtp /ZI
; File d:\!diffusion 2020\source code 2022\client-server\server\weapons\weapon_crossbow.cpp
;	COMDAT ?AddToPlayer@CCrossbow@@UAEHPAVCBasePlayer@@@Z
_TEXT	SEGMENT
_this$ = -4						; size = 4
_pPlayer$ = 8						; size = 4
?AddToPlayer@CCrossbow@@UAEHPAVCBasePlayer@@@Z PROC	; CCrossbow::AddToPlayer, COMDAT
; _this$ = ecx

; 391  : {

	push	ebp
	mov	ebp, esp
	sub	esp, 68					; 00000044H
	push	ebx
	push	esi
	push	edi
	mov	DWORD PTR _this$[ebp], ecx

; 392  : 	if ( CBasePlayerWeapon::AddToPlayer( pPlayer ) )

	mov	eax, DWORD PTR _pPlayer$[ebp]
	push	eax
	mov	ecx, DWORD PTR _this$[ebp]
	call	?AddToPlayer@CBasePlayerWeapon@@UAEHPAVCBasePlayer@@@Z ; CBasePlayerWeapon::AddToPlayer
	test	eax, eax
	je	SHORT $LN2@AddToPlaye

; 393  : 	{
; 394  : 		MESSAGE_BEGIN( MSG_ONE, gmsgWeapPickup, NULL, pPlayer->pev );

	mov	eax, DWORD PTR _pPlayer$[ebp]
	mov	ecx, DWORD PTR [eax+4]
	push	ecx
	push	0
	mov	edx, DWORD PTR ?gmsgWeapPickup@@3HA	; gmsgWeapPickup
	push	edx
	push	1
	call	?MESSAGE_BEGIN@@YAXHHPBMPAUentvars_s@@@Z ; MESSAGE_BEGIN
	add	esp, 16					; 00000010H

; 395  : 			WRITE_BYTE( m_iId );

	mov	eax, DWORD PTR _this$[ebp]
	mov	ecx, DWORD PTR [eax+1864]
	push	ecx
	call	DWORD PTR ?g_engfuncs@@3Uenginefuncs_s@@A+192
	add	esp, 4

; 396  : 		MESSAGE_END();

	call	DWORD PTR ?g_engfuncs@@3Uenginefuncs_s@@A+188

; 397  : 		return TRUE;

	mov	eax, 1
	jmp	SHORT $LN1@AddToPlaye
$LN2@AddToPlaye:

; 398  : 	}
; 399  : 	return FALSE;

	xor	eax, eax
$LN1@AddToPlaye:

; 400  : }

	pop	edi
	pop	esi
	pop	ebx
	mov	esp, ebp
	pop	ebp
	ret	4
?AddToPlayer@CCrossbow@@UAEHPAVCBasePlayer@@@Z ENDP	; CCrossbow::AddToPlayer
_TEXT	ENDS
; Function compile flags: /Odtp /ZI
; File d:\!diffusion 2020\source code 2022\client-server\server\weapons\weapon_crossbow.cpp
;	COMDAT ?SecondaryAttack@CCrossbow@@UAEXXZ
_TEXT	SEGMENT
tv296 = -72						; size = 4
_this$ = -4						; size = 4
?SecondaryAttack@CCrossbow@@UAEXXZ PROC			; CCrossbow::SecondaryAttack, COMDAT
; _this$ = ecx

; 644  : {

	push	ebp
	mov	ebp, esp
	sub	esp, 72					; 00000048H
	push	ebx
	push	esi
	push	edi
	mov	DWORD PTR _this$[ebp], ecx

; 645  : 	CLIENT_COMMAND(m_pPlayer->edict(), "-attack2\n");

	push	OFFSET ??_C@_09PBOOJJEI@?9attack2?6?$AA@
	mov	eax, DWORD PTR _this$[ebp]
	mov	ecx, DWORD PTR [eax+1856]
	call	?edict@CBaseEntity@@QAEPAUedict_s@@XZ	; CBaseEntity::edict
	push	eax
	call	DWORD PTR ?g_engfuncs@@3Uenginefuncs_s@@A+164
	add	esp, 8

; 646  : 	
; 647  : 	if( !IS_DEDICATED_SERVER() )

	call	DWORD PTR ?g_engfuncs@@3Uenginefuncs_s@@A+460
	test	eax, eax
	jne	SHORT $LN3@SecondaryA

; 648  : 	{
; 649  : 		if( CVAR_GET_FLOAT( "default_fov" ) <= CROSSBOW_MAX_ZOOM )

	push	OFFSET ??_C@_0M@LPOJOBFH@default_fov?$AA@
	call	DWORD PTR ?g_engfuncs@@3Uenginefuncs_s@@A+228
	add	esp, 4
	fstp	DWORD PTR tv296[ebp]
	movss	xmm0, DWORD PTR __real@41a00000
	comiss	xmm0, DWORD PTR tv296[ebp]
	jb	SHORT $LN3@SecondaryA

; 650  : 		{
; 651  : 			ALERT( at_error, "weapon_crossbow can't zoom, default_fov is too low!\n" );

	push	OFFSET ??_C@_0DF@GEMHGODB@weapon_crossbow?5can?8t?5zoom?0?5defa@
	push	4
	call	DWORD PTR ?g_engfuncs@@3Uenginefuncs_s@@A+244
	add	esp, 8

; 652  : 			return;

	jmp	$LN1@SecondaryA
$LN3@SecondaryA:

; 653  : 		}
; 654  : 	}
; 655  : 	
; 656  : 	// do not switch zoom when player stay button is pressed
; 657  : 	if (m_fZoomInUse)

	mov	eax, DWORD PTR _this$[ebp]
	cmp	DWORD PTR [eax+1928], 0
	je	SHORT $LN4@SecondaryA

; 658  : 		return;

	jmp	$LN1@SecondaryA
$LN4@SecondaryA:

; 659  : 
; 660  : 	m_fZoomInUse = 1;

	mov	eax, DWORD PTR _this$[ebp]
	mov	DWORD PTR [eax+1928], 1

; 661  : 
; 662  : 	if( m_fInZoom )

	mov	eax, DWORD PTR _this$[ebp]
	cmp	DWORD PTR [eax+1924], 0
	je	$LN5@SecondaryA

; 663  : 	{
; 664  : 		EMIT_SOUND( ENT(m_pPlayer->pev), CHAN_ITEM, "weapons/xbow_scope.wav", 1, 1.5 );

	push	ecx
	movss	xmm0, DWORD PTR __real@3fc00000
	movss	DWORD PTR [esp], xmm0
	push	ecx
	movss	xmm0, DWORD PTR __real@3f800000
	movss	DWORD PTR [esp], xmm0
	push	OFFSET ??_C@_0BH@PEMOGDHE@weapons?1xbow_scope?4wav?$AA@
	push	3
	mov	eax, DWORD PTR _this$[ebp]
	mov	ecx, DWORD PTR [eax+1856]
	mov	edx, DWORD PTR [ecx+4]
	push	edx
	call	?ENT@@YAPAUedict_s@@PBUentvars_s@@@Z	; ENT
	add	esp, 4
	push	eax
	call	?EMIT_SOUND@@YAXPAUedict_s@@HPBDMM@Z	; EMIT_SOUND
	add	esp, 20					; 00000014H

; 665  : 		m_fInZoom = 0;

	mov	eax, DWORD PTR _this$[ebp]
	mov	DWORD PTR [eax+1924], 0

; 666  : 		m_pPlayer->ZoomState = 2; // zooming out

	mov	eax, DWORD PTR _this$[ebp]
	mov	ecx, DWORD PTR [eax+1856]
	mov	DWORD PTR [ecx+4760], 2

; 667  : 		MESSAGE_BEGIN(MSG_ONE, gmsgZoom, NULL, m_pPlayer->pev);

	mov	eax, DWORD PTR _this$[ebp]
	mov	ecx, DWORD PTR [eax+1856]
	mov	edx, DWORD PTR [ecx+4]
	push	edx
	push	0
	mov	eax, DWORD PTR ?gmsgZoom@@3HA		; gmsgZoom
	push	eax
	push	1
	call	?MESSAGE_BEGIN@@YAXHHPBMPAUentvars_s@@@Z ; MESSAGE_BEGIN
	add	esp, 16					; 00000010H

; 668  : 			WRITE_BYTE( m_pPlayer->ZoomState );

	mov	eax, DWORD PTR _this$[ebp]
	mov	ecx, DWORD PTR [eax+1856]
	mov	edx, DWORD PTR [ecx+4760]
	push	edx
	call	DWORD PTR ?g_engfuncs@@3Uenginefuncs_s@@A+192
	add	esp, 4

; 669  : 			WRITE_BYTE( WEAPON_CROSSBOW );

	push	6
	call	DWORD PTR ?g_engfuncs@@3Uenginefuncs_s@@A+192
	add	esp, 4

; 670  : 		MESSAGE_END();

	call	DWORD PTR ?g_engfuncs@@3Uenginefuncs_s@@A+188

; 671  : 		m_pPlayer->m_flFOV = 0;

	mov	eax, DWORD PTR _this$[ebp]
	mov	ecx, DWORD PTR [eax+1856]
	xorps	xmm0, xmm0
	movss	DWORD PTR [ecx+3056], xmm0

; 672  : 		m_pPlayer->ZoomState = 0; // zoomed out. reset the state

	mov	eax, DWORD PTR _this$[ebp]
	mov	ecx, DWORD PTR [eax+1856]
	mov	DWORD PTR [ecx+4760], 0

; 673  : 		UTIL_ScreenFade( m_pPlayer, g_vecZero, 0.5, 0, 255, 0x0000 );

	push	0
	push	255					; 000000ffH
	push	ecx
	xorps	xmm0, xmm0
	movss	DWORD PTR [esp], xmm0
	push	ecx
	movss	xmm0, DWORD PTR __real@3f000000
	movss	DWORD PTR [esp], xmm0
	push	OFFSET ?g_vecZero@@3VVector@@B		; g_vecZero
	mov	eax, DWORD PTR _this$[ebp]
	mov	ecx, DWORD PTR [eax+1856]
	push	ecx
	call	?UTIL_ScreenFade@@YAXPAVCBaseEntity@@ABVVector@@MMHH@Z ; UTIL_ScreenFade
	add	esp, 24					; 00000018H

; 674  : 	}
; 675  : 	else

	jmp	$LN6@SecondaryA
$LN5@SecondaryA:

; 676  : 	{
; 677  : 		UTIL_ScreenFade( m_pPlayer, g_vecZero, 0.25, 0, 255, 0x0000 );

	push	0
	push	255					; 000000ffH
	push	ecx
	xorps	xmm0, xmm0
	movss	DWORD PTR [esp], xmm0
	push	ecx
	movss	xmm0, DWORD PTR __real@3e800000
	movss	DWORD PTR [esp], xmm0
	push	OFFSET ?g_vecZero@@3VVector@@B		; g_vecZero
	mov	eax, DWORD PTR _this$[ebp]
	mov	ecx, DWORD PTR [eax+1856]
	push	ecx
	call	?UTIL_ScreenFade@@YAXPAVCBaseEntity@@ABVVector@@MMHH@Z ; UTIL_ScreenFade
	add	esp, 24					; 00000018H

; 678  : 		EMIT_SOUND( ENT(m_pPlayer->pev), CHAN_ITEM, "weapons/xbow_scope.wav", 1, 1.5 );

	push	ecx
	movss	xmm0, DWORD PTR __real@3fc00000
	movss	DWORD PTR [esp], xmm0
	push	ecx
	movss	xmm0, DWORD PTR __real@3f800000
	movss	DWORD PTR [esp], xmm0
	push	OFFSET ??_C@_0BH@PEMOGDHE@weapons?1xbow_scope?4wav?$AA@
	push	3
	mov	eax, DWORD PTR _this$[ebp]
	mov	ecx, DWORD PTR [eax+1856]
	mov	edx, DWORD PTR [ecx+4]
	push	edx
	call	?ENT@@YAPAUedict_s@@PBUentvars_s@@@Z	; ENT
	add	esp, 4
	push	eax
	call	?EMIT_SOUND@@YAXPAUedict_s@@HPBDMM@Z	; EMIT_SOUND
	add	esp, 20					; 00000014H

; 679  : 		m_fInZoom = 1;

	mov	eax, DWORD PTR _this$[ebp]
	mov	DWORD PTR [eax+1924], 1

; 680  : 		m_pPlayer->ZoomState = 1; // zooming in

	mov	eax, DWORD PTR _this$[ebp]
	mov	ecx, DWORD PTR [eax+1856]
	mov	DWORD PTR [ecx+4760], 1

; 681  : 		MESSAGE_BEGIN(MSG_ONE, gmsgZoom, NULL, m_pPlayer->pev);

	mov	eax, DWORD PTR _this$[ebp]
	mov	ecx, DWORD PTR [eax+1856]
	mov	edx, DWORD PTR [ecx+4]
	push	edx
	push	0
	mov	eax, DWORD PTR ?gmsgZoom@@3HA		; gmsgZoom
	push	eax
	push	1
	call	?MESSAGE_BEGIN@@YAXHHPBMPAUentvars_s@@@Z ; MESSAGE_BEGIN
	add	esp, 16					; 00000010H

; 682  : 			WRITE_BYTE( m_pPlayer->ZoomState );

	mov	eax, DWORD PTR _this$[ebp]
	mov	ecx, DWORD PTR [eax+1856]
	mov	edx, DWORD PTR [ecx+4760]
	push	edx
	call	DWORD PTR ?g_engfuncs@@3Uenginefuncs_s@@A+192
	add	esp, 4

; 683  : 			WRITE_BYTE( WEAPON_CROSSBOW );

	push	6
	call	DWORD PTR ?g_engfuncs@@3Uenginefuncs_s@@A+192
	add	esp, 4

; 684  : 		MESSAGE_END();

	call	DWORD PTR ?g_engfuncs@@3Uenginefuncs_s@@A+188

; 685  : 		m_pPlayer->m_flFOV = CROSSBOW_MAX_ZOOM;

	mov	eax, DWORD PTR _this$[ebp]
	mov	ecx, DWORD PTR [eax+1856]
	movss	xmm0, DWORD PTR __real@41a00000
	movss	DWORD PTR [ecx+3056], xmm0
$LN6@SecondaryA:

; 686  : 	}
; 687  : 
; 688  : 	m_flNextSecondaryAttack = gpGlobals->time + 0.2;

	mov	eax, DWORD PTR ?gpGlobals@@3PAUglobalvars_t@@A ; gpGlobals
	cvtss2sd xmm0, DWORD PTR [eax]
	addsd	xmm0, QWORD PTR __real@3fc999999999999a
	cvtsd2ss xmm0, xmm0
	mov	ecx, DWORD PTR _this$[ebp]
	movss	DWORD PTR [ecx+1888], xmm0

; 689  : 	m_flTimeWeaponIdle = gpGlobals->time + 5.0;

	mov	eax, DWORD PTR ?gpGlobals@@3PAUglobalvars_t@@A ; gpGlobals
	cvtss2sd xmm0, DWORD PTR [eax]
	addsd	xmm0, QWORD PTR __real@4014000000000000
	cvtsd2ss xmm0, xmm0
	mov	ecx, DWORD PTR _this$[ebp]
	movss	DWORD PTR [ecx+1892], xmm0
$LN1@SecondaryA:

; 690  : }

	pop	edi
	pop	esi
	pop	ebx
	mov	esp, ebp
	pop	ebp
	ret	0
?SecondaryAttack@CCrossbow@@UAEXXZ ENDP			; CCrossbow::SecondaryAttack
_TEXT	ENDS
; Function compile flags: /Odtp /ZI
; File d:\!diffusion 2020\source code 2022\client-server\server\weapons\weapon_crossbow.cpp
;	COMDAT ?PrimaryAttack@CCrossbow@@UAEXXZ
_TEXT	SEGMENT
_this$ = -4						; size = 4
?PrimaryAttack@CCrossbow@@UAEXXZ PROC			; CCrossbow::PrimaryAttack, COMDAT
; _this$ = ecx

; 472  : {

	push	ebp
	mov	ebp, esp
	sub	esp, 68					; 00000044H
	push	ebx
	push	esi
	push	edi
	mov	DWORD PTR _this$[ebp], ecx

; 473  : /*	if (m_fInZoom && g_pGameRules->IsMultiplayer())
; 474  : 	{
; 475  : 		FireSniperBolt();
; 476  : 		return;
; 477  : 	}
; 478  : */
; 479  : 	if( m_iClip <= 3)

	mov	eax, DWORD PTR _this$[ebp]
	cmp	DWORD PTR [eax+1904], 3
	jg	SHORT $LN2@PrimaryAtt

; 480  : 		LowAmmoMsg(m_pPlayer);

	mov	eax, DWORD PTR _this$[ebp]
	mov	ecx, DWORD PTR [eax+1856]
	push	ecx
	mov	edx, DWORD PTR _this$[ebp]
	mov	eax, DWORD PTR [edx]
	mov	ecx, DWORD PTR _this$[ebp]
	mov	edx, DWORD PTR [eax+508]
	call	edx
$LN2@PrimaryAtt:

; 481  : 
; 482  : 	FireBolt();

	mov	ecx, DWORD PTR _this$[ebp]
	call	?FireBolt@CCrossbow@@QAEXXZ		; CCrossbow::FireBolt

; 483  : }

	pop	edi
	pop	esi
	pop	ebx
	mov	esp, ebp
	pop	ebp
	ret	0
?PrimaryAttack@CCrossbow@@UAEXXZ ENDP			; CCrossbow::PrimaryAttack
_TEXT	ENDS
; Function compile flags: /Odtp /ZI
; File d:\!diffusion 2020\source code 2022\client-server\server\weapons\weapon_crossbow.cpp
;	COMDAT ?FireSniperBolt@CCrossbow@@QAEXXZ
_TEXT	SEGMENT
tv333 = -256						; size = 4
tv317 = -256						; size = 4
$T1 = -252						; size = 12
$T2 = -240						; size = 12
$T3 = -228						; size = 12
$T4 = -212						; size = 12
$T5 = -200						; size = 12
$T6 = -188						; size = 12
$T7 = -176						; size = 12
_pBolt$8 = -100						; size = 4
_vecDir$ = -96						; size = 12
_vecSrc$ = -84						; size = 12
_anglesAim$ = -72					; size = 12
_tr$ = -60						; size = 56
_this$ = -4						; size = 4
?FireSniperBolt@CCrossbow@@QAEXXZ PROC			; CCrossbow::FireSniperBolt, COMDAT
; _this$ = ecx

; 488  : {

	push	ebp
	mov	ebp, esp
	sub	esp, 256				; 00000100H
	push	ebx
	push	esi
	push	edi
	mov	DWORD PTR _this$[ebp], ecx

; 489  : 	m_flNextPrimaryAttack = gpGlobals->time + 0.75;

	mov	eax, DWORD PTR ?gpGlobals@@3PAUglobalvars_t@@A ; gpGlobals
	cvtss2sd xmm0, DWORD PTR [eax]
	addsd	xmm0, QWORD PTR __real@3fe8000000000000
	cvtsd2ss xmm0, xmm0
	mov	ecx, DWORD PTR _this$[ebp]
	movss	DWORD PTR [ecx+1884], xmm0

; 490  : 
; 491  : 	if (m_iClip == 0)

	mov	eax, DWORD PTR _this$[ebp]
	cmp	DWORD PTR [eax+1904], 0
	jne	SHORT $LN4@FireSniper

; 492  : 	{
; 493  : 		PlayEmptySound( );

	mov	eax, DWORD PTR _this$[ebp]
	mov	edx, DWORD PTR [eax]
	mov	ecx, DWORD PTR _this$[ebp]
	mov	eax, DWORD PTR [edx+464]
	call	eax

; 494  : 		return;

	jmp	$LN1@FireSniper
$LN4@FireSniper:

; 495  : 	}
; 496  : 
; 497  : 	TraceResult tr;

	lea	ecx, DWORD PTR _tr$[ebp]
	call	??0gametrace_s@@QAE@XZ

; 498  : 
; 499  : 	m_pPlayer->m_iWeaponVolume = QUIET_GUN_VOLUME;

	mov	eax, DWORD PTR _this$[ebp]
	mov	ecx, DWORD PTR [eax+1856]
	mov	DWORD PTR [ecx+2504], 200		; 000000c8H

; 500  : 	m_iClip--;

	mov	eax, DWORD PTR _this$[ebp]
	mov	ecx, DWORD PTR [eax+1904]
	sub	ecx, 1
	mov	edx, DWORD PTR _this$[ebp]
	mov	DWORD PTR [edx+1904], ecx

; 501  : 
; 502  : 	// make twang sound
; 503  : 	EMIT_SOUND_DYN(ENT(m_pPlayer->pev), CHAN_WEAPON, "weapons/xbow_fire1.wav", RANDOM_FLOAT(0.95, 1.0), ATTN_NORM, 0, 93 + RANDOM_LONG(0,0xF));

	push	15					; 0000000fH
	push	0
	call	DWORD PTR ?g_engfuncs@@3Uenginefuncs_s@@A+360
	add	esp, 8
	add	eax, 93					; 0000005dH
	push	eax
	push	0
	push	ecx
	movss	xmm0, DWORD PTR __real@3f4ccccd
	movss	DWORD PTR [esp], xmm0
	push	ecx
	movss	xmm0, DWORD PTR __real@3f800000
	movss	DWORD PTR [esp], xmm0
	push	ecx
	movss	xmm0, DWORD PTR __real@3f733333
	movss	DWORD PTR [esp], xmm0
	call	DWORD PTR ?g_engfuncs@@3Uenginefuncs_s@@A+364
	add	esp, 4
	fstp	DWORD PTR [esp]
	push	OFFSET ??_C@_0BH@OFCAHODE@weapons?1xbow_fire1?4wav?$AA@
	push	1
	mov	eax, DWORD PTR _this$[ebp]
	mov	ecx, DWORD PTR [eax+1856]
	mov	edx, DWORD PTR [ecx+4]
	push	edx
	call	?ENT@@YAPAUedict_s@@PBUentvars_s@@@Z	; ENT
	add	esp, 4
	push	eax
	call	?EMIT_SOUND_DYN@@YAXPAUedict_s@@HPBDMMHH@Z ; EMIT_SOUND_DYN
	add	esp, 28					; 0000001cH

; 504  : 
; 505  : 	if (m_iClip)

	mov	eax, DWORD PTR _this$[ebp]
	cmp	DWORD PTR [eax+1904], 0
	je	$LN5@FireSniper

; 506  : 	{
; 507  : 		EMIT_SOUND_DYN(ENT(m_pPlayer->pev), CHAN_ITEM, "weapons/xbow_reload1.wav", RANDOM_FLOAT(0.95, 1.0), ATTN_NORM, 0, 93 + RANDOM_LONG(0,0xF));

	push	15					; 0000000fH
	push	0
	call	DWORD PTR ?g_engfuncs@@3Uenginefuncs_s@@A+360
	add	esp, 8
	add	eax, 93					; 0000005dH
	push	eax
	push	0
	push	ecx
	movss	xmm0, DWORD PTR __real@3f4ccccd
	movss	DWORD PTR [esp], xmm0
	push	ecx
	movss	xmm0, DWORD PTR __real@3f800000
	movss	DWORD PTR [esp], xmm0
	push	ecx
	movss	xmm0, DWORD PTR __real@3f733333
	movss	DWORD PTR [esp], xmm0
	call	DWORD PTR ?g_engfuncs@@3Uenginefuncs_s@@A+364
	add	esp, 4
	fstp	DWORD PTR [esp]
	push	OFFSET ??_C@_0BJ@JLOJNCHH@weapons?1xbow_reload1?4wav?$AA@
	push	3
	mov	eax, DWORD PTR _this$[ebp]
	mov	ecx, DWORD PTR [eax+1856]
	mov	edx, DWORD PTR [ecx+4]
	push	edx
	call	?ENT@@YAPAUedict_s@@PBUentvars_s@@@Z	; ENT
	add	esp, 4
	push	eax
	call	?EMIT_SOUND_DYN@@YAXPAUedict_s@@HPBDMMHH@Z ; EMIT_SOUND_DYN
	add	esp, 28					; 0000001cH

; 508  : 		SendWeaponAnim( CROSSBOW_FIRE1 );

	push	0
	push	0
	push	4
	mov	eax, DWORD PTR _this$[ebp]
	mov	edx, DWORD PTR [eax]
	mov	ecx, DWORD PTR _this$[ebp]
	mov	eax, DWORD PTR [edx+472]
	call	eax
	jmp	SHORT $LN7@FireSniper
$LN5@FireSniper:

; 509  : 	}
; 510  : 	else if (m_pPlayer->m_rgAmmo[m_iPrimaryAmmoType] == 0)

	mov	eax, DWORD PTR _this$[ebp]
	mov	ecx, DWORD PTR [eax+1856]
	mov	edx, DWORD PTR _this$[ebp]
	mov	eax, DWORD PTR [edx+1896]
	cmp	DWORD PTR [ecx+eax*4+3628], 0
	jne	SHORT $LN7@FireSniper

; 511  : 		SendWeaponAnim( CROSSBOW_FIRE3 );

	push	0
	push	0
	push	6
	mov	eax, DWORD PTR _this$[ebp]
	mov	edx, DWORD PTR [eax]
	mov	ecx, DWORD PTR _this$[ebp]
	mov	eax, DWORD PTR [edx+472]
	call	eax
$LN7@FireSniper:

; 512  : 
; 513  : 	// player "shoot" animation
; 514  : 	m_pPlayer->SetAnimation( PLAYER_ATTACK1 );

	push	5
	mov	eax, DWORD PTR _this$[ebp]
	mov	ecx, DWORD PTR [eax+1856]
	call	?SetAnimation@CBasePlayer@@QAEXW4PLAYER_ANIM@@@Z ; CBasePlayer::SetAnimation

; 515  : 	
; 516  : 	Vector anglesAim = m_pPlayer->pev->v_angle + m_pPlayer->pev->punchangle;

	mov	eax, DWORD PTR _this$[ebp]
	mov	ecx, DWORD PTR [eax+1856]
	mov	edx, DWORD PTR [ecx+4]
	add	edx, 104				; 00000068H
	push	edx
	lea	eax, DWORD PTR _anglesAim$[ebp]
	push	eax
	mov	ecx, DWORD PTR _this$[ebp]
	mov	edx, DWORD PTR [ecx+1856]
	mov	ecx, DWORD PTR [edx+4]
	add	ecx, 116				; 00000074H
	call	??HVector@@QBE?AV0@ABV0@@Z		; Vector::operator+

; 517  : 	UTIL_MakeVectors( anglesAim );

	lea	eax, DWORD PTR _anglesAim$[ebp]
	push	eax
	call	?UTIL_MakeVectors@@YAXABVVector@@@Z	; UTIL_MakeVectors
	add	esp, 4

; 518  : 	Vector vecSrc = m_pPlayer->GetGunPosition( ) - gpGlobals->v_up * 2;

	push	ecx
	movss	xmm0, DWORD PTR __real@40000000
	movss	DWORD PTR [esp], xmm0
	lea	eax, DWORD PTR $T6[ebp]
	push	eax
	mov	ecx, DWORD PTR ?gpGlobals@@3PAUglobalvars_t@@A ; gpGlobals
	add	ecx, 52					; 00000034H
	call	??DVector@@QBE?AV0@M@Z			; Vector::operator*
	push	eax
	lea	ecx, DWORD PTR _vecSrc$[ebp]
	push	ecx
	lea	edx, DWORD PTR $T7[ebp]
	push	edx
	mov	eax, DWORD PTR _this$[ebp]
	mov	ecx, DWORD PTR [eax+1856]
	mov	edx, DWORD PTR _this$[ebp]
	mov	eax, DWORD PTR [ecx]
	mov	ecx, DWORD PTR [edx+1856]
	mov	edx, DWORD PTR [eax+628]
	call	edx
	mov	ecx, eax
	call	??GVector@@QBE?AV0@ABV0@@Z		; Vector::operator-

; 519  : 	Vector vecDir = gpGlobals->v_forward;

	mov	eax, DWORD PTR ?gpGlobals@@3PAUglobalvars_t@@A ; gpGlobals
	add	eax, 40					; 00000028H
	push	eax
	lea	ecx, DWORD PTR _vecDir$[ebp]
	call	??0Vector@@QAE@ABV0@@Z			; Vector::Vector

; 520  : 
; 521  : 	UTIL_TraceLine(vecSrc, vecSrc + vecDir * 8192, dont_ignore_monsters, m_pPlayer->edict(), &tr);

	lea	eax, DWORD PTR _tr$[ebp]
	push	eax
	mov	ecx, DWORD PTR _this$[ebp]
	mov	ecx, DWORD PTR [ecx+1856]
	call	?edict@CBaseEntity@@QAEPAUedict_s@@XZ	; CBaseEntity::edict
	push	eax
	push	0
	push	ecx
	movss	xmm0, DWORD PTR __real@46000000
	movss	DWORD PTR [esp], xmm0
	lea	edx, DWORD PTR $T5[ebp]
	push	edx
	lea	ecx, DWORD PTR _vecDir$[ebp]
	call	??DVector@@QBE?AV0@M@Z			; Vector::operator*
	push	eax
	lea	eax, DWORD PTR $T4[ebp]
	push	eax
	lea	ecx, DWORD PTR _vecSrc$[ebp]
	call	??HVector@@QBE?AV0@ABV0@@Z		; Vector::operator+
	push	eax
	lea	ecx, DWORD PTR _vecSrc$[ebp]
	push	ecx
	call	?UTIL_TraceLine@@YAXABVVector@@0W4IGNORE_MONSTERS@@PAUedict_s@@PAUgametrace_s@@@Z ; UTIL_TraceLine
	add	esp, 20					; 00000014H

; 522  : 
; 523  : 	if ( tr.pHit->v.takedamage )

	mov	eax, DWORD PTR _tr$[ebp+48]
	movss	xmm0, DWORD PTR [eax+492]
	ucomiss	xmm0, DWORD PTR __real@00000000
	lahf
	test	ah, 68					; 00000044H
	jnp	$LN8@FireSniper

; 524  : 	{
; 525  : 		switch( RANDOM_LONG(0,1) )

	push	1
	push	0
	call	DWORD PTR ?g_engfuncs@@3Uenginefuncs_s@@A+360
	add	esp, 8
	mov	DWORD PTR tv317[ebp], eax
	cmp	DWORD PTR tv317[ebp], 0
	je	SHORT $LN10@FireSniper
	cmp	DWORD PTR tv317[ebp], 1
	je	SHORT $LN11@FireSniper
	jmp	SHORT $LN2@FireSniper
$LN10@FireSniper:

; 526  : 		{
; 527  : 		case 0: EMIT_SOUND( tr.pHit, CHAN_BODY, "weapons/xbow_hitbod1.wav", 1, ATTN_NORM); break;

	push	ecx
	movss	xmm0, DWORD PTR __real@3f4ccccd
	movss	DWORD PTR [esp], xmm0
	push	ecx
	movss	xmm0, DWORD PTR __real@3f800000
	movss	DWORD PTR [esp], xmm0
	push	OFFSET ??_C@_0BJ@KHGAHBFE@weapons?1xbow_hitbod1?4wav?$AA@
	push	4
	mov	eax, DWORD PTR _tr$[ebp+48]
	push	eax
	call	?EMIT_SOUND@@YAXPAUedict_s@@HPBDMM@Z	; EMIT_SOUND
	add	esp, 20					; 00000014H
	jmp	SHORT $LN2@FireSniper
$LN11@FireSniper:

; 528  : 		case 1: EMIT_SOUND( tr.pHit, CHAN_BODY, "weapons/xbow_hitbod2.wav", 1, ATTN_NORM); break;

	push	ecx
	movss	xmm0, DWORD PTR __real@3f4ccccd
	movss	DWORD PTR [esp], xmm0
	push	ecx
	movss	xmm0, DWORD PTR __real@3f800000
	movss	DWORD PTR [esp], xmm0
	push	OFFSET ??_C@_0BJ@CBPEADPK@weapons?1xbow_hitbod2?4wav?$AA@
	push	4
	mov	eax, DWORD PTR _tr$[ebp+48]
	push	eax
	call	?EMIT_SOUND@@YAXPAUedict_s@@HPBDMM@Z	; EMIT_SOUND
	add	esp, 20					; 00000014H
$LN2@FireSniper:

; 529  : 		}
; 530  : 
; 531  : 		ClearMultiDamage( );

	call	?ClearMultiDamage@@YAXXZ		; ClearMultiDamage

; 532  : 		CBaseEntity::Instance(tr.pHit)->TraceAttack(m_pPlayer->pev, 120, vecDir, &tr, DMG_BULLET | DMG_NEVERGIB ); 

	mov	eax, DWORD PTR _tr$[ebp+48]
	push	eax
	call	?Instance@CBaseEntity@@SAPAV1@PAUedict_s@@@Z ; CBaseEntity::Instance
	add	esp, 4
	mov	DWORD PTR tv333[ebp], eax
	push	4098					; 00001002H
	lea	ecx, DWORD PTR _tr$[ebp]
	push	ecx
	sub	esp, 12					; 0000000cH
	mov	ecx, esp
	lea	edx, DWORD PTR _vecDir$[ebp]
	push	edx
	call	??0Vector@@QAE@ABV0@@Z			; Vector::Vector
	push	ecx
	movss	xmm0, DWORD PTR __real@42f00000
	movss	DWORD PTR [esp], xmm0
	mov	eax, DWORD PTR _this$[ebp]
	mov	ecx, DWORD PTR [eax+1856]
	mov	edx, DWORD PTR [ecx+4]
	push	edx
	mov	eax, DWORD PTR tv333[ebp]
	mov	edx, DWORD PTR [eax]
	mov	ecx, DWORD PTR tv333[ebp]
	mov	eax, DWORD PTR [edx+92]
	call	eax

; 533  : 		ApplyMultiDamage( pev, m_pPlayer->pev );

	mov	eax, DWORD PTR _this$[ebp]
	mov	ecx, DWORD PTR [eax+1856]
	mov	edx, DWORD PTR [ecx+4]
	push	edx
	mov	eax, DWORD PTR _this$[ebp]
	mov	ecx, DWORD PTR [eax+4]
	push	ecx
	call	?ApplyMultiDamage@@YAXPAUentvars_s@@0@Z	; ApplyMultiDamage
	add	esp, 8

; 534  : 	}
; 535  : 	else

	jmp	$LN14@FireSniper
$LN8@FireSniper:

; 536  : 	{
; 537  : 		// create a bolt
; 538  : 		CCrossbowBolt *pBolt = CCrossbowBolt::BoltCreate();

	call	?BoltCreate@CCrossbowBolt@@SAPAV1@XZ	; CCrossbowBolt::BoltCreate
	mov	DWORD PTR _pBolt$8[ebp], eax

; 539  : 		pBolt->SetAbsOrigin( tr.vecEndPos - vecDir * 10 );

	push	ecx
	movss	xmm0, DWORD PTR __real@41200000
	movss	DWORD PTR [esp], xmm0
	lea	eax, DWORD PTR $T3[ebp]
	push	eax
	lea	ecx, DWORD PTR _vecDir$[ebp]
	call	??DVector@@QBE?AV0@M@Z			; Vector::operator*
	push	eax
	lea	ecx, DWORD PTR $T2[ebp]
	push	ecx
	lea	ecx, DWORD PTR _tr$[ebp+20]
	call	??GVector@@QBE?AV0@ABV0@@Z		; Vector::operator-
	push	eax
	mov	ecx, DWORD PTR _pBolt$8[ebp]
	call	?SetAbsOrigin@CBaseEntity@@QAEXABVVector@@@Z ; CBaseEntity::SetAbsOrigin

; 540  : 		pBolt->SetAbsAngles( UTIL_VecToAngles( vecDir ));

	lea	eax, DWORD PTR _vecDir$[ebp]
	push	eax
	lea	ecx, DWORD PTR $T1[ebp]
	push	ecx
	call	?UTIL_VecToAngles@@YA?AVVector@@ABV1@@Z	; UTIL_VecToAngles
	add	esp, 8
	push	eax
	mov	ecx, DWORD PTR _pBolt$8[ebp]
	call	?SetAbsAngles@CBaseEntity@@QAEXABVVector@@@Z ; CBaseEntity::SetAbsAngles

; 541  : 		pBolt->pev->solid = SOLID_NOT;

	mov	eax, DWORD PTR _pBolt$8[ebp]
	mov	ecx, DWORD PTR [eax+4]
	mov	DWORD PTR [ecx+268], 0

; 542  : 		pBolt->SetTouch( NULL );

	push	OFFSET ??_C@_04HIBGFPH@NULL?$AA@
	push	0
	mov	ecx, DWORD PTR _pBolt$8[ebp]
	call	?TouchSet@CBaseEntity@@QAEP81@AEXPAV1@@ZP81@AEX0@ZPAD@Z ; CBaseEntity::TouchSet

; 543  : 		pBolt->SetThink( &CBaseEntity::SUB_Remove );

	push	OFFSET ??_C@_0BJ@EIFNLFLK@?$CGCBaseEntity?3?3SUB_Remove?$AA@
	push	OFFSET ?SUB_Remove@CBaseEntity@@QAEXXZ	; CBaseEntity::SUB_Remove
	mov	ecx, DWORD PTR _pBolt$8[ebp]
	call	?ThinkSet@CBaseEntity@@QAEP81@AEXXZP81@AEXXZPAD@Z ; CBaseEntity::ThinkSet

; 544  : 
; 545  : 		EMIT_SOUND( pBolt->edict(), CHAN_WEAPON, "weapons/xbow_hit1.wav", RANDOM_FLOAT(0.95, 1.0), ATTN_NORM );

	push	ecx
	movss	xmm0, DWORD PTR __real@3f4ccccd
	movss	DWORD PTR [esp], xmm0
	push	ecx
	movss	xmm0, DWORD PTR __real@3f800000
	movss	DWORD PTR [esp], xmm0
	push	ecx
	movss	xmm0, DWORD PTR __real@3f733333
	movss	DWORD PTR [esp], xmm0
	call	DWORD PTR ?g_engfuncs@@3Uenginefuncs_s@@A+364
	add	esp, 4
	fstp	DWORD PTR [esp]
	push	OFFSET ??_C@_0BG@DJDGFCKC@weapons?1xbow_hit1?4wav?$AA@
	push	1
	mov	ecx, DWORD PTR _pBolt$8[ebp]
	call	?edict@CBaseEntity@@QAEPAUedict_s@@XZ	; CBaseEntity::edict
	push	eax
	call	?EMIT_SOUND@@YAXPAUedict_s@@HPBDMM@Z	; EMIT_SOUND
	add	esp, 20					; 00000014H

; 546  : 
; 547  : 		if( UTIL_PointContents( tr.vecEndPos ) != CONTENTS_WATER )

	lea	eax, DWORD PTR _tr$[ebp+20]
	push	eax
	call	?UTIL_PointContents@@YAHABVVector@@@Z	; UTIL_PointContents
	add	esp, 4
	cmp	eax, -3					; fffffffdH
	je	SHORT $LN12@FireSniper

; 548  : 			UTIL_Sparks( tr.vecEndPos );

	lea	eax, DWORD PTR _tr$[ebp+20]
	push	eax
	call	?UTIL_Sparks@@YAXABVVector@@@Z		; UTIL_Sparks
	add	esp, 4
$LN12@FireSniper:

; 549  : 
; 550  : 		if( FClassnameIs( tr.pHit, "worldspawn" ))

	push	OFFSET ??_C@_0L@BIFLFHPF@worldspawn?$AA@
	mov	eax, DWORD PTR _tr$[ebp+48]
	push	eax
	call	?FClassnameIs@@YAHPAUedict_s@@PBD@Z	; FClassnameIs
	add	esp, 8
	test	eax, eax
	je	SHORT $LN13@FireSniper

; 551  : 			pBolt->SetNextThink(5.0); // let the bolt sit around for a while if it hit static architecture

	push	ecx
	movss	xmm0, DWORD PTR __real@40a00000
	movss	DWORD PTR [esp], xmm0
	mov	eax, DWORD PTR _pBolt$8[ebp]
	mov	edx, DWORD PTR [eax]
	mov	ecx, DWORD PTR _pBolt$8[ebp]
	mov	eax, DWORD PTR [edx+80]
	call	eax

; 552  : 		else

	jmp	SHORT $LN14@FireSniper
$LN13@FireSniper:

; 553  : 			pBolt->SetNextThink(0);

	push	ecx
	xorps	xmm0, xmm0
	movss	DWORD PTR [esp], xmm0
	mov	eax, DWORD PTR _pBolt$8[ebp]
	mov	edx, DWORD PTR [eax]
	mov	ecx, DWORD PTR _pBolt$8[ebp]
	mov	eax, DWORD PTR [edx+80]
	call	eax
$LN14@FireSniper:
$LN1@FireSniper:

; 554  : 	}
; 555  : }

	pop	edi
	pop	esi
	pop	ebx
	mov	esp, ebp
	pop	ebp
	ret	0
?FireSniperBolt@CCrossbow@@QAEXXZ ENDP			; CCrossbow::FireSniperBolt
_TEXT	ENDS
; Function compile flags: /Odtp /ZI
; File d:\!diffusion 2020\source code 2022\client-server\server\weapons\weapon_crossbow.cpp
;	COMDAT ?FireBolt@CCrossbow@@QAEXXZ
_TEXT	SEGMENT
$T1 = -268						; size = 12
$T2 = -256						; size = 12
$T3 = -244						; size = 12
$T4 = -232						; size = 12
$T5 = -220						; size = 12
$T6 = -208						; size = 12
_avelocity$ = -128					; size = 12
_flGroundSpeed$ = -116					; size = 4
_vecGround$ = -112					; size = 12
_pBolt$ = -100						; size = 4
_vecDir$ = -96						; size = 12
_vecSrc$ = -84						; size = 12
_anglesAim$ = -72					; size = 12
_tr$ = -60						; size = 56
_this$ = -4						; size = 4
?FireBolt@CCrossbow@@QAEXXZ PROC			; CCrossbow::FireBolt, COMDAT
; _this$ = ecx

; 558  : {

	push	ebp
	mov	ebp, esp
	sub	esp, 268				; 0000010cH
	push	ebx
	push	esi
	push	edi
	mov	DWORD PTR _this$[ebp], ecx

; 559  : 	TraceResult tr;

	lea	ecx, DWORD PTR _tr$[ebp]
	call	??0gametrace_s@@QAE@XZ

; 560  : 
; 561  : 	if (m_iClip <= 0)

	mov	eax, DWORD PTR _this$[ebp]
	cmp	DWORD PTR [eax+1904], 0
	jg	SHORT $LN2@FireBolt

; 562  : 	{
; 563  : 		PlayEmptySound( );

	mov	eax, DWORD PTR _this$[ebp]
	mov	edx, DWORD PTR [eax]
	mov	ecx, DWORD PTR _this$[ebp]
	mov	eax, DWORD PTR [edx+464]
	call	eax

; 564  : 		CLIENT_COMMAND(m_pPlayer->edict(), "-attack\n");

	push	OFFSET ??_C@_08MNDBFPDE@?9attack?6?$AA@
	mov	eax, DWORD PTR _this$[ebp]
	mov	ecx, DWORD PTR [eax+1856]
	call	?edict@CBaseEntity@@QAEPAUedict_s@@XZ	; CBaseEntity::edict
	push	eax
	call	DWORD PTR ?g_engfuncs@@3Uenginefuncs_s@@A+164
	add	esp, 8

; 565  : 		return;

	jmp	$LN1@FireBolt
$LN2@FireBolt:

; 566  : 	}
; 567  : 
; 568  : 	m_pPlayer->m_iWeaponVolume = QUIET_GUN_VOLUME;

	mov	eax, DWORD PTR _this$[ebp]
	mov	ecx, DWORD PTR [eax+1856]
	mov	DWORD PTR [ecx+2504], 200		; 000000c8H

; 569  : 
; 570  : 	m_iClip--;

	mov	eax, DWORD PTR _this$[ebp]
	mov	ecx, DWORD PTR [eax+1904]
	sub	ecx, 1
	mov	edx, DWORD PTR _this$[ebp]
	mov	DWORD PTR [edx+1904], ecx

; 571  : 
; 572  : 	// make twang sound
; 573  : //	EMIT_SOUND_DYN(ENT(m_pPlayer->pev), CHAN_WEAPON, "weapons/xbow_fire1.wav", RANDOM_FLOAT(0.95, 1.0), ATTN_NORM, 0, 93 + RANDOM_LONG(0,0xF));
; 574  : 	PlayClientSound( m_pPlayer, WEAPON_CROSSBOW );

	sub	esp, 12					; 0000000cH
	mov	ecx, esp
	push	OFFSET ?g_vecZero@@3VVector@@B		; g_vecZero
	call	??0Vector@@QAE@ABV0@@Z			; Vector::Vector
	push	0
	push	0
	push	6
	mov	eax, DWORD PTR _this$[ebp]
	mov	ecx, DWORD PTR [eax+1856]
	push	ecx
	call	?PlayClientSound@@YAXPAVCBaseEntity@@HHHVVector@@@Z ; PlayClientSound
	add	esp, 28					; 0000001cH

; 575  : 
; 576  : 	if (m_iClip)

	mov	eax, DWORD PTR _this$[ebp]
	cmp	DWORD PTR [eax+1904], 0
	je	$LN3@FireBolt

; 577  : 	{
; 578  : 		EMIT_SOUND_DYN(ENT(m_pPlayer->pev), CHAN_ITEM, "weapons/xbow_reload1.wav", RANDOM_FLOAT(0.95, 1.0), ATTN_NORM, 0, 93 + RANDOM_LONG(0,0xF));

	push	15					; 0000000fH
	push	0
	call	DWORD PTR ?g_engfuncs@@3Uenginefuncs_s@@A+360
	add	esp, 8
	add	eax, 93					; 0000005dH
	push	eax
	push	0
	push	ecx
	movss	xmm0, DWORD PTR __real@3f4ccccd
	movss	DWORD PTR [esp], xmm0
	push	ecx
	movss	xmm0, DWORD PTR __real@3f800000
	movss	DWORD PTR [esp], xmm0
	push	ecx
	movss	xmm0, DWORD PTR __real@3f733333
	movss	DWORD PTR [esp], xmm0
	call	DWORD PTR ?g_engfuncs@@3Uenginefuncs_s@@A+364
	add	esp, 4
	fstp	DWORD PTR [esp]
	push	OFFSET ??_C@_0BJ@JLOJNCHH@weapons?1xbow_reload1?4wav?$AA@
	push	3
	mov	eax, DWORD PTR _this$[ebp]
	mov	ecx, DWORD PTR [eax+1856]
	mov	edx, DWORD PTR [ecx+4]
	push	edx
	call	?ENT@@YAPAUedict_s@@PBUentvars_s@@@Z	; ENT
	add	esp, 4
	push	eax
	call	?EMIT_SOUND_DYN@@YAXPAUedict_s@@HPBDMMHH@Z ; EMIT_SOUND_DYN
	add	esp, 28					; 0000001cH

; 579  : 		SendWeaponAnim( CROSSBOW_FIRE1 );

	push	0
	push	0
	push	4
	mov	eax, DWORD PTR _this$[ebp]
	mov	edx, DWORD PTR [eax]
	mov	ecx, DWORD PTR _this$[ebp]
	mov	eax, DWORD PTR [edx+472]
	call	eax
	jmp	SHORT $LN5@FireBolt
$LN3@FireBolt:

; 580  : 	}
; 581  : 	else if (m_pPlayer->m_rgAmmo[m_iPrimaryAmmoType] == 0)

	mov	eax, DWORD PTR _this$[ebp]
	mov	ecx, DWORD PTR [eax+1856]
	mov	edx, DWORD PTR _this$[ebp]
	mov	eax, DWORD PTR [edx+1896]
	cmp	DWORD PTR [ecx+eax*4+3628], 0
	jne	SHORT $LN5@FireBolt

; 582  : 		SendWeaponAnim( CROSSBOW_FIRE3 );

	push	0
	push	0
	push	6
	mov	eax, DWORD PTR _this$[ebp]
	mov	edx, DWORD PTR [eax]
	mov	ecx, DWORD PTR _this$[ebp]
	mov	eax, DWORD PTR [edx+472]
	call	eax
$LN5@FireBolt:

; 583  : 
; 584  : 	// player "shoot" animation
; 585  : 	m_pPlayer->SetAnimation( PLAYER_ATTACK1 );

	push	5
	mov	eax, DWORD PTR _this$[ebp]
	mov	ecx, DWORD PTR [eax+1856]
	call	?SetAnimation@CBasePlayer@@QAEXW4PLAYER_ANIM@@@Z ; CBasePlayer::SetAnimation

; 586  : 
; 587  : 	Vector anglesAim = m_pPlayer->pev->v_angle + m_pPlayer->pev->punchangle;

	mov	eax, DWORD PTR _this$[ebp]
	mov	ecx, DWORD PTR [eax+1856]
	mov	edx, DWORD PTR [ecx+4]
	add	edx, 104				; 00000068H
	push	edx
	lea	eax, DWORD PTR _anglesAim$[ebp]
	push	eax
	mov	ecx, DWORD PTR _this$[ebp]
	mov	edx, DWORD PTR [ecx+1856]
	mov	ecx, DWORD PTR [edx+4]
	add	ecx, 116				; 00000074H
	call	??HVector@@QBE?AV0@ABV0@@Z		; Vector::operator+

; 588  : 	UTIL_MakeVectors( anglesAim );

	lea	eax, DWORD PTR _anglesAim$[ebp]
	push	eax
	call	?UTIL_MakeVectors@@YAXABVVector@@@Z	; UTIL_MakeVectors
	add	esp, 4

; 589  : 
; 590  : 	// Vector vecSrc = GetAbsOrigin() + gpGlobals->v_up * 16 + gpGlobals->v_forward * 20 + gpGlobals->v_right * 4;
; 591  : 	Vector vecSrc	= m_pPlayer->GetGunPosition( ) - gpGlobals->v_up * 2;

	push	ecx
	movss	xmm0, DWORD PTR __real@40000000
	movss	DWORD PTR [esp], xmm0
	lea	eax, DWORD PTR $T5[ebp]
	push	eax
	mov	ecx, DWORD PTR ?gpGlobals@@3PAUglobalvars_t@@A ; gpGlobals
	add	ecx, 52					; 00000034H
	call	??DVector@@QBE?AV0@M@Z			; Vector::operator*
	push	eax
	lea	ecx, DWORD PTR _vecSrc$[ebp]
	push	ecx
	lea	edx, DWORD PTR $T6[ebp]
	push	edx
	mov	eax, DWORD PTR _this$[ebp]
	mov	ecx, DWORD PTR [eax+1856]
	mov	edx, DWORD PTR _this$[ebp]
	mov	eax, DWORD PTR [ecx]
	mov	ecx, DWORD PTR [edx+1856]
	mov	edx, DWORD PTR [eax+628]
	call	edx
	mov	ecx, eax
	call	??GVector@@QBE?AV0@ABV0@@Z		; Vector::operator-

; 592  : 	Vector vecDir	= gpGlobals->v_forward;

	mov	eax, DWORD PTR ?gpGlobals@@3PAUglobalvars_t@@A ; gpGlobals
	add	eax, 40					; 00000028H
	push	eax
	lea	ecx, DWORD PTR _vecDir$[ebp]
	call	??0Vector@@QAE@ABV0@@Z			; Vector::Vector

; 593  : 
; 594  : 	CBaseEntity *pBolt = CBaseEntity::Create( "crossbow_bolt", vecSrc, anglesAim, m_pPlayer->edict() );

	mov	eax, DWORD PTR _this$[ebp]
	mov	ecx, DWORD PTR [eax+1856]
	call	?edict@CBaseEntity@@QAEPAUedict_s@@XZ	; CBaseEntity::edict
	push	eax
	lea	ecx, DWORD PTR _anglesAim$[ebp]
	push	ecx
	lea	edx, DWORD PTR _vecSrc$[ebp]
	push	edx
	push	OFFSET ??_C@_0O@BEIBOGJ@crossbow_bolt?$AA@
	call	?Create@CBaseEntity@@SAPAV1@PADABVVector@@1PAUedict_s@@@Z ; CBaseEntity::Create
	add	esp, 16					; 00000010H
	mov	DWORD PTR _pBolt$[ebp], eax

; 595  : //	CCrossbowBolt *pBolt = CCrossbowBolt::BoltCreate();
; 596  : //	pBolt->SetAbsOrigin( vecSrc );
; 597  : //	pBolt->SetAbsAngles( anglesAim );
; 598  : //	pBolt->pev->owner = m_pPlayer->edict();
; 599  : 
; 600  : 	Vector vecGround;

	lea	ecx, DWORD PTR _vecGround$[ebp]
	call	??0Vector@@QAE@XZ			; Vector::Vector

; 601  : 	float flGroundSpeed;
; 602  : 
; 603  : 	if( m_pPlayer->GetGroundEntity( ))

	mov	eax, DWORD PTR _this$[ebp]
	mov	ecx, DWORD PTR [eax+1856]
	call	?GetGroundEntity@CBaseEntity@@QAEPAV1@XZ ; CBaseEntity::GetGroundEntity
	test	eax, eax
	je	SHORT $LN6@FireBolt

; 604  : 		vecGround = m_pPlayer->GetGroundEntity( )->GetAbsVelocity();

	mov	eax, DWORD PTR _this$[ebp]
	mov	ecx, DWORD PTR [eax+1856]
	call	?GetGroundEntity@CBaseEntity@@QAEPAV1@XZ ; CBaseEntity::GetGroundEntity
	mov	ecx, eax
	call	?GetAbsVelocity@CBaseEntity@@QBEABVVector@@XZ ; CBaseEntity::GetAbsVelocity
	mov	ecx, DWORD PTR [eax]
	mov	DWORD PTR _vecGround$[ebp], ecx
	mov	edx, DWORD PTR [eax+4]
	mov	DWORD PTR _vecGround$[ebp+4], edx
	mov	eax, DWORD PTR [eax+8]
	mov	DWORD PTR _vecGround$[ebp+8], eax
	jmp	SHORT $LN7@FireBolt
$LN6@FireBolt:

; 605  : 	else vecGround = g_vecZero;

	mov	eax, DWORD PTR ?g_vecZero@@3VVector@@B
	mov	DWORD PTR _vecGround$[ebp], eax
	mov	ecx, DWORD PTR ?g_vecZero@@3VVector@@B+4
	mov	DWORD PTR _vecGround$[ebp+4], ecx
	mov	edx, DWORD PTR ?g_vecZero@@3VVector@@B+8
	mov	DWORD PTR _vecGround$[ebp+8], edx
$LN7@FireBolt:

; 606  : 
; 607  : 	flGroundSpeed = vecGround.Length();

	lea	ecx, DWORD PTR _vecGround$[ebp]
	call	?Length@Vector@@QBEMXZ			; Vector::Length
	fstp	DWORD PTR _flGroundSpeed$[ebp]

; 608  : 
; 609  : 	// diffusion - changed local vel to abs
; 610  : 	if (m_pPlayer->pev->waterlevel == 3)

	mov	eax, DWORD PTR _this$[ebp]
	mov	ecx, DWORD PTR [eax+1856]
	mov	edx, DWORD PTR [ecx+4]
	cmp	DWORD PTR [edx+448], 3
	jne	SHORT $LN8@FireBolt

; 611  : 	{
; 612  : 		pBolt->SetAbsVelocity( vecDir * BOLT_WATER_VELOCITY + vecGround );

	lea	eax, DWORD PTR _vecGround$[ebp]
	push	eax
	lea	ecx, DWORD PTR $T3[ebp]
	push	ecx
	push	ecx
	movss	xmm0, DWORD PTR __real@44bb8000
	movss	DWORD PTR [esp], xmm0
	lea	edx, DWORD PTR $T4[ebp]
	push	edx
	lea	ecx, DWORD PTR _vecDir$[ebp]
	call	??DVector@@QBE?AV0@M@Z			; Vector::operator*
	mov	ecx, eax
	call	??HVector@@QBE?AV0@ABV0@@Z		; Vector::operator+
	push	eax
	mov	ecx, DWORD PTR _pBolt$[ebp]
	call	?SetAbsVelocity@CBaseEntity@@QAEXABVVector@@@Z ; CBaseEntity::SetAbsVelocity

; 613  : 		pBolt->pev->speed = BOLT_WATER_VELOCITY + flGroundSpeed;

	movss	xmm0, DWORD PTR __real@44bb8000
	addss	xmm0, DWORD PTR _flGroundSpeed$[ebp]
	mov	eax, DWORD PTR _pBolt$[ebp]
	mov	ecx, DWORD PTR [eax+4]
	movss	DWORD PTR [ecx+504], xmm0

; 614  : 	}
; 615  : 	else

	jmp	SHORT $LN9@FireBolt
$LN8@FireBolt:

; 616  : 	{
; 617  : 		pBolt->SetAbsVelocity( vecDir * BOLT_AIR_VELOCITY + vecGround );

	lea	eax, DWORD PTR _vecGround$[ebp]
	push	eax
	lea	ecx, DWORD PTR $T1[ebp]
	push	ecx
	push	ecx
	movss	xmm0, DWORD PTR __real@455ac000
	movss	DWORD PTR [esp], xmm0
	lea	edx, DWORD PTR $T2[ebp]
	push	edx
	lea	ecx, DWORD PTR _vecDir$[ebp]
	call	??DVector@@QBE?AV0@M@Z			; Vector::operator*
	mov	ecx, eax
	call	??HVector@@QBE?AV0@ABV0@@Z		; Vector::operator+
	push	eax
	mov	ecx, DWORD PTR _pBolt$[ebp]
	call	?SetAbsVelocity@CBaseEntity@@QAEXABVVector@@@Z ; CBaseEntity::SetAbsVelocity

; 618  : 		pBolt->pev->speed = BOLT_AIR_VELOCITY + flGroundSpeed;

	movss	xmm0, DWORD PTR __real@455ac000
	addss	xmm0, DWORD PTR _flGroundSpeed$[ebp]
	mov	eax, DWORD PTR _pBolt$[ebp]
	mov	ecx, DWORD PTR [eax+4]
	movss	DWORD PTR [ecx+504], xmm0
$LN9@FireBolt:

; 619  : 	}
; 620  : 
; 621  : 	Vector avelocity( 0, 0, 10 );

	push	ecx
	movss	xmm0, DWORD PTR __real@41200000
	movss	DWORD PTR [esp], xmm0
	push	ecx
	xorps	xmm0, xmm0
	movss	DWORD PTR [esp], xmm0
	push	ecx
	xorps	xmm0, xmm0
	movss	DWORD PTR [esp], xmm0
	lea	ecx, DWORD PTR _avelocity$[ebp]
	call	??0Vector@@QAE@MMM@Z			; Vector::Vector

; 622  : 
; 623  : 	pBolt->SetLocalAvelocity( avelocity );

	lea	eax, DWORD PTR _avelocity$[ebp]
	push	eax
	mov	ecx, DWORD PTR _pBolt$[ebp]
	call	?SetLocalAvelocity@CBaseEntity@@QAEXABVVector@@@Z ; CBaseEntity::SetLocalAvelocity

; 624  : 
; 625  : 	if (!m_iClip && m_pPlayer->m_rgAmmo[m_iPrimaryAmmoType] <= 0)

	mov	eax, DWORD PTR _this$[ebp]
	cmp	DWORD PTR [eax+1904], 0
	jne	SHORT $LN10@FireBolt
	mov	eax, DWORD PTR _this$[ebp]
	mov	ecx, DWORD PTR [eax+1856]
	mov	edx, DWORD PTR _this$[ebp]
	mov	eax, DWORD PTR [edx+1896]
	cmp	DWORD PTR [ecx+eax*4+3628], 0
	jg	SHORT $LN10@FireBolt

; 626  : 		// HEV suit - indicate out of ammo condition
; 627  : 		m_pPlayer->SetSuitUpdate("!HEV_AMO0", FALSE, 0);

	push	0
	push	0
	push	OFFSET ??_C@_09KNGNPJEJ@?$CBHEV_AMO0?$AA@
	mov	eax, DWORD PTR _this$[ebp]
	mov	ecx, DWORD PTR [eax+1856]
	call	?SetSuitUpdate@CBasePlayer@@QAEXPADHH@Z	; CBasePlayer::SetSuitUpdate
$LN10@FireBolt:

; 628  : 
; 629  : 	m_flNextPrimaryAttack = gpGlobals->time + 0.75;

	mov	eax, DWORD PTR ?gpGlobals@@3PAUglobalvars_t@@A ; gpGlobals
	cvtss2sd xmm0, DWORD PTR [eax]
	addsd	xmm0, QWORD PTR __real@3fe8000000000000
	cvtsd2ss xmm0, xmm0
	mov	ecx, DWORD PTR _this$[ebp]
	movss	DWORD PTR [ecx+1884], xmm0

; 630  : 
; 631  : //	m_flNextSecondaryAttack = gpGlobals->time + 0.75;
; 632  : 	if (m_iClip != 0)

	mov	eax, DWORD PTR _this$[ebp]
	cmp	DWORD PTR [eax+1904], 0
	je	SHORT $LN11@FireBolt

; 633  : 		m_flTimeWeaponIdle = gpGlobals->time + 5.0;

	mov	eax, DWORD PTR ?gpGlobals@@3PAUglobalvars_t@@A ; gpGlobals
	cvtss2sd xmm0, DWORD PTR [eax]
	addsd	xmm0, QWORD PTR __real@4014000000000000
	cvtsd2ss xmm0, xmm0
	mov	ecx, DWORD PTR _this$[ebp]
	movss	DWORD PTR [ecx+1892], xmm0

; 634  : 	else

	jmp	SHORT $LN12@FireBolt
$LN11@FireBolt:

; 635  : 		m_flTimeWeaponIdle = 0.75;

	mov	eax, DWORD PTR _this$[ebp]
	movss	xmm0, DWORD PTR __real@3f400000
	movss	DWORD PTR [eax+1892], xmm0
$LN12@FireBolt:

; 636  : 
; 637  : 	if( m_pPlayer->ZoomState > 0 )

	mov	eax, DWORD PTR _this$[ebp]
	mov	ecx, DWORD PTR [eax+1856]
	cmp	DWORD PTR [ecx+4760], 0
	jle	SHORT $LN13@FireBolt

; 638  : 		m_pPlayer->pev->punchangle.x -= 2;

	mov	eax, DWORD PTR _this$[ebp]
	mov	ecx, DWORD PTR [eax+1856]
	mov	edx, DWORD PTR [ecx+4]
	movss	xmm0, DWORD PTR [edx+104]
	subss	xmm0, DWORD PTR __real@40000000
	mov	eax, DWORD PTR _this$[ebp]
	mov	ecx, DWORD PTR [eax+1856]
	mov	edx, DWORD PTR [ecx+4]
	movss	DWORD PTR [edx+104], xmm0

; 639  : 	else

	jmp	SHORT $LN14@FireBolt
$LN13@FireBolt:

; 640  : 		m_pPlayer->pev->punchangle.x -= 5;

	mov	eax, DWORD PTR _this$[ebp]
	mov	ecx, DWORD PTR [eax+1856]
	mov	edx, DWORD PTR [ecx+4]
	movss	xmm0, DWORD PTR [edx+104]
	subss	xmm0, DWORD PTR __real@40a00000
	mov	eax, DWORD PTR _this$[ebp]
	mov	ecx, DWORD PTR [eax+1856]
	mov	edx, DWORD PTR [ecx+4]
	movss	DWORD PTR [edx+104], xmm0
$LN14@FireBolt:
$LN1@FireBolt:

; 641  : }

	pop	edi
	pop	esi
	pop	ebx
	mov	esp, ebp
	pop	ebp
	ret	0
?FireBolt@CCrossbow@@QAEXXZ ENDP			; CCrossbow::FireBolt
_TEXT	ENDS
; Function compile flags: /Odtp /ZI
; File d:\!diffusion 2020\source code 2022\client-server\server\weapons\weapon_crossbow.cpp
;	COMDAT ?GetItemInfo@CCrossbow@@UAEHPAUItemInfo@@@Z
_TEXT	SEGMENT
_this$ = -4						; size = 4
_p$ = 8							; size = 4
?GetItemInfo@CCrossbow@@UAEHPAUItemInfo@@@Z PROC	; CCrossbow::GetItemInfo, COMDAT
; _this$ = ecx

; 417  : {

	push	ebp
	mov	ebp, esp
	sub	esp, 68					; 00000044H
	push	ebx
	push	esi
	push	edi
	mov	DWORD PTR _this$[ebp], ecx

; 418  : 	p->pszName = STRING(pev->classname);

	mov	eax, DWORD PTR _this$[ebp]
	mov	ecx, DWORD PTR [eax+4]
	mov	edx, DWORD PTR [ecx]
	push	edx
	call	DWORD PTR ?g_engfuncs@@3Uenginefuncs_s@@A+264
	add	esp, 4
	mov	ecx, DWORD PTR _p$[ebp]
	mov	DWORD PTR [ecx+24], eax

; 419  : 	p->pszAmmo1 = "bolts";

	mov	eax, DWORD PTR _p$[ebp]
	mov	DWORD PTR [eax+8], OFFSET ??_C@_05DGHJLCJD@bolts?$AA@

; 420  : 	p->iMaxAmmo1 = BOLT_MAX_CARRY;

	mov	eax, DWORD PTR _p$[ebp]
	mov	DWORD PTR [eax+12], 15			; 0000000fH

; 421  : 	p->pszAmmo2 = NULL;

	mov	eax, DWORD PTR _p$[ebp]
	mov	DWORD PTR [eax+16], 0

; 422  : 	p->iMaxAmmo2 = -1;

	mov	eax, DWORD PTR _p$[ebp]
	mov	DWORD PTR [eax+20], -1

; 423  : 	p->iMaxClip = CROSSBOW_MAX_CLIP;

	mov	eax, DWORD PTR _p$[ebp]
	mov	DWORD PTR [eax+28], 5

; 424  : 	p->iSlot = 2;

	mov	eax, DWORD PTR _p$[ebp]
	mov	DWORD PTR [eax], 2

; 425  : 	p->iPosition = 3;

	mov	eax, DWORD PTR _p$[ebp]
	mov	DWORD PTR [eax+4], 3

; 426  : 	p->iId = WEAPON_CROSSBOW;

	mov	eax, DWORD PTR _p$[ebp]
	mov	DWORD PTR [eax+32], 6

; 427  : 	p->iFlags = 0;

	mov	eax, DWORD PTR _p$[ebp]
	mov	DWORD PTR [eax+36], 0

; 428  : 	p->iWeight = CROSSBOW_WEIGHT;

	mov	eax, DWORD PTR _p$[ebp]
	mov	DWORD PTR [eax+40], 10			; 0000000aH

; 429  : 	return 1;

	mov	eax, 1

; 430  : }

	pop	edi
	pop	esi
	pop	ebx
	mov	esp, ebp
	pop	ebp
	ret	4
?GetItemInfo@CCrossbow@@UAEHPAUItemInfo@@@Z ENDP	; CCrossbow::GetItemInfo
_TEXT	ENDS
; Function compile flags: /Odtp /ZI
; File d:\!diffusion 2020\source code 2022\client-server\server\weapons\weapon_crossbow.cpp
;	COMDAT ?iItemSlot@CCrossbow@@UAEHXZ
_TEXT	SEGMENT
_this$ = -4						; size = 4
?iItemSlot@CCrossbow@@UAEHXZ PROC			; CCrossbow::iItemSlot, COMDAT
; _this$ = ecx

; 351  : 	int iItemSlot( ) { return 3; }

	push	ebp
	mov	ebp, esp
	sub	esp, 68					; 00000044H
	push	ebx
	push	esi
	push	edi
	mov	DWORD PTR _this$[ebp], ecx
	mov	eax, 3
	pop	edi
	pop	esi
	pop	ebx
	mov	esp, ebp
	pop	ebp
	ret	0
?iItemSlot@CCrossbow@@UAEHXZ ENDP			; CCrossbow::iItemSlot
_TEXT	ENDS
; Function compile flags: /Odtp /ZI
; File d:\!diffusion 2020\source code 2022\client-server\server\weapons\weapon_crossbow.cpp
;	COMDAT ?Precache@CCrossbow@@UAEXXZ
_TEXT	SEGMENT
_this$ = -4						; size = 4
?Precache@CCrossbow@@UAEXXZ PROC			; CCrossbow::Precache, COMDAT
; _this$ = ecx

; 403  : {

	push	ebp
	mov	ebp, esp
	sub	esp, 68					; 00000044H
	push	ebx
	push	esi
	push	edi
	mov	DWORD PTR _this$[ebp], ecx

; 404  : 	PRECACHE_MODEL("models/w_crossbow.mdl");

	push	OFFSET ??_C@_0BG@OBBNACPI@models?1w_crossbow?4mdl?$AA@
	call	DWORD PTR ?g_engfuncs@@3Uenginefuncs_s@@A
	add	esp, 4

; 405  : 	PRECACHE_MODEL("models/v_crossbow.mdl");

	push	OFFSET ??_C@_0BG@FIOGNJBA@models?1v_crossbow?4mdl?$AA@
	call	DWORD PTR ?g_engfuncs@@3Uenginefuncs_s@@A
	add	esp, 4

; 406  : 	PRECACHE_MODEL("models/p_crossbow.mdl");

	push	OFFSET ??_C@_0BG@HKBMANOC@models?1p_crossbow?4mdl?$AA@
	call	DWORD PTR ?g_engfuncs@@3Uenginefuncs_s@@A
	add	esp, 4

; 407  : 
; 408  : 	PRECACHE_SOUND("weapons/xbow_fire1.wav");

	push	OFFSET ??_C@_0BH@OFCAHODE@weapons?1xbow_fire1?4wav?$AA@
	call	DWORD PTR ?g_engfuncs@@3Uenginefuncs_s@@A+4
	add	esp, 4

; 409  : 	PRECACHE_SOUND("weapons/xbow_reload1.wav");

	push	OFFSET ??_C@_0BJ@JLOJNCHH@weapons?1xbow_reload1?4wav?$AA@
	call	DWORD PTR ?g_engfuncs@@3Uenginefuncs_s@@A+4
	add	esp, 4

; 410  : 
; 411  : 	PRECACHE_SOUND("weapons/xbow_scope.wav");

	push	OFFSET ??_C@_0BH@PEMOGDHE@weapons?1xbow_scope?4wav?$AA@
	call	DWORD PTR ?g_engfuncs@@3Uenginefuncs_s@@A+4
	add	esp, 4

; 412  : 
; 413  : 	UTIL_PrecacheOther( "crossbow_bolt" );

	push	OFFSET ??_C@_0O@BEIBOGJ@crossbow_bolt?$AA@
	call	?UTIL_PrecacheOther@@YAXPBD@Z		; UTIL_PrecacheOther
	add	esp, 4

; 414  : }

	pop	edi
	pop	esi
	pop	ebx
	mov	esp, ebp
	pop	ebp
	ret	0
?Precache@CCrossbow@@UAEXXZ ENDP			; CCrossbow::Precache
_TEXT	ENDS
; Function compile flags: /Odtp /ZI
; File d:\!diffusion 2020\source code 2022\client-server\server\weapons\weapon_crossbow.cpp
;	COMDAT ?Spawn@CCrossbow@@UAEXXZ
_TEXT	SEGMENT
_this$ = -4						; size = 4
?Spawn@CCrossbow@@UAEXXZ PROC				; CCrossbow::Spawn, COMDAT
; _this$ = ecx

; 380  : {

	push	ebp
	mov	ebp, esp
	sub	esp, 68					; 00000044H
	push	ebx
	push	esi
	push	edi
	mov	DWORD PTR _this$[ebp], ecx

; 381  : 	Precache( );

	mov	eax, DWORD PTR _this$[ebp]
	mov	edx, DWORD PTR [eax]
	mov	ecx, DWORD PTR _this$[ebp]
	mov	eax, DWORD PTR [edx+8]
	call	eax

; 382  : 	m_iId = WEAPON_CROSSBOW;

	mov	eax, DWORD PTR _this$[ebp]
	mov	DWORD PTR [eax+1864], 6

; 383  : 	SET_MODEL(ENT(pev), "models/w_crossbow.mdl");

	push	OFFSET ??_C@_0BG@OBBNACPI@models?1w_crossbow?4mdl?$AA@
	mov	eax, DWORD PTR _this$[ebp]
	mov	ecx, DWORD PTR [eax+4]
	push	ecx
	call	?ENT@@YAPAUedict_s@@PBUentvars_s@@@Z	; ENT
	add	esp, 4
	push	eax
	call	DWORD PTR ?g_engfuncs@@3Uenginefuncs_s@@A+8
	add	esp, 8

; 384  : 
; 385  : 	m_iDefaultAmmo = CROSSBOW_DEFAULT_GIVE;

	mov	eax, DWORD PTR _this$[ebp]
	mov	DWORD PTR [eax+1920], 5

; 386  : 
; 387  : 	FallInit();// get ready to fall down.

	mov	ecx, DWORD PTR _this$[ebp]
	call	?FallInit@CBasePlayerItem@@QAEXXZ	; CBasePlayerItem::FallInit

; 388  : }

	pop	edi
	pop	esi
	pop	ebx
	mov	esp, ebp
	pop	ebp
	ret	0
?Spawn@CCrossbow@@UAEXXZ ENDP				; CCrossbow::Spawn
_TEXT	ENDS
; Function compile flags: /Odtp /ZI
; File d:\!diffusion 2020\source code 2022\client-server\server\cbase.h
;	COMDAT ??$GetClassPtr@VCCrossbowBolt@@@@YAPAVCCrossbowBolt@@PAV0@@Z
_TEXT	SEGMENT
tv85 = -92						; size = 4
$T2 = -88						; size = 4
$T3 = -84						; size = 4
_pev$ = -16						; size = 4
__$EHRec$ = -12						; size = 12
_a$ = 8							; size = 4
??$GetClassPtr@VCCrossbowBolt@@@@YAPAVCCrossbowBolt@@PAV0@@Z PROC ; GetClassPtr<CCrossbowBolt>, COMDAT

; 1126 : {

	push	ebp
	mov	ebp, esp
	push	-1
	push	__ehhandler$??$GetClassPtr@VCCrossbowBolt@@@@YAPAVCCrossbowBolt@@PAV0@@Z
	mov	eax, DWORD PTR fs:0
	push	eax
	sub	esp, 80					; 00000050H
	push	ebx
	push	esi
	push	edi
	mov	eax, DWORD PTR ___security_cookie
	xor	eax, ebp
	push	eax
	lea	eax, DWORD PTR __$EHRec$[ebp]
	mov	DWORD PTR fs:0, eax

; 1127 : 	entvars_t *pev = (entvars_t *)a;

	mov	eax, DWORD PTR _a$[ebp]
	mov	DWORD PTR _pev$[ebp], eax

; 1128 : 
; 1129 : 	// allocate entity if necessary
; 1130 : 	if (pev == NULL)

	cmp	DWORD PTR _pev$[ebp], 0
	jne	SHORT $LN2@GetClassPt

; 1131 : 		pev = VARS(CREATE_ENTITY());

	call	DWORD PTR ?g_engfuncs@@3Uenginefuncs_s@@A+84
	push	eax
	call	?VARS@@YAPAUentvars_s@@PAUedict_s@@@Z	; VARS
	add	esp, 4
	mov	DWORD PTR _pev$[ebp], eax
$LN2@GetClassPt:

; 1132 : 
; 1133 : 	// get the private data
; 1134 : 	a = (T *)GET_PRIVATE(ENT(pev));

	mov	eax, DWORD PTR _pev$[ebp]
	push	eax
	call	?ENT@@YAPAUedict_s@@PBUentvars_s@@@Z	; ENT
	add	esp, 4
	push	eax
	call	?GET_PRIVATE@@YAPAXPAUedict_s@@@Z	; GET_PRIVATE
	add	esp, 4
	mov	DWORD PTR _a$[ebp], eax

; 1135 : 
; 1136 : 	if (a == NULL) 

	cmp	DWORD PTR _a$[ebp], 0
	jne	SHORT $LN3@GetClassPt

; 1137 : 	{
; 1138 : 		// allocate private data 
; 1139 : 		a = new(pev) T;

	mov	eax, DWORD PTR _pev$[ebp]
	push	eax
	push	1808					; 00000710H
	call	??2CBaseEntity@@SAPAXIPAUentvars_s@@@Z	; CBaseEntity::operator new
	add	esp, 8
	mov	DWORD PTR $T2[ebp], eax
	mov	DWORD PTR __$EHRec$[ebp+8], 0
	cmp	DWORD PTR $T2[ebp], 0
	je	SHORT $LN5@GetClassPt
	mov	ecx, DWORD PTR $T2[ebp]
	call	??0CCrossbowBolt@@QAE@XZ
	mov	DWORD PTR tv85[ebp], eax
	jmp	SHORT $LN6@GetClassPt
$LN5@GetClassPt:
	mov	DWORD PTR tv85[ebp], 0
$LN6@GetClassPt:
	mov	ecx, DWORD PTR tv85[ebp]
	mov	DWORD PTR $T3[ebp], ecx
	mov	DWORD PTR __$EHRec$[ebp+8], -1
	mov	edx, DWORD PTR $T3[ebp]
	mov	DWORD PTR _a$[ebp], edx

; 1140 : 		a->pev = pev;

	mov	eax, DWORD PTR _a$[ebp]
	mov	ecx, DWORD PTR _pev$[ebp]
	mov	DWORD PTR [eax+4], ecx
$LN3@GetClassPt:

; 1141 : 	}
; 1142 : 	return a;

	mov	eax, DWORD PTR _a$[ebp]

; 1143 : }

	mov	ecx, DWORD PTR __$EHRec$[ebp]
	mov	DWORD PTR fs:0, ecx
	pop	ecx
	pop	edi
	pop	esi
	pop	ebx
	mov	esp, ebp
	pop	ebp
	ret	0
_TEXT	ENDS
;	COMDAT text$x
text$x	SEGMENT
__unwindfunclet$??$GetClassPtr@VCCrossbowBolt@@@@YAPAVCCrossbowBolt@@PAV0@@Z$0:
	mov	eax, DWORD PTR _pev$[ebp]
	push	eax
	mov	eax, DWORD PTR $T2[ebp]
	push	eax
	call	??3CBaseEntity@@SAXPAXPAUentvars_s@@@Z	; CBaseEntity::operator delete
	add	esp, 8
	ret	0
__ehhandler$??$GetClassPtr@VCCrossbowBolt@@@@YAPAVCCrossbowBolt@@PAV0@@Z:
	mov	edx, DWORD PTR [esp+8]
	lea	eax, DWORD PTR [edx+12]
	mov	ecx, DWORD PTR [edx-96]
	xor	ecx, eax
	call	@__security_check_cookie@4
	mov	eax, OFFSET __ehfuncinfo$??$GetClassPtr@VCCrossbowBolt@@@@YAPAVCCrossbowBolt@@PAV0@@Z
	jmp	___CxxFrameHandler3
text$x	ENDS
??$GetClassPtr@VCCrossbowBolt@@@@YAPAVCCrossbowBolt@@PAV0@@Z ENDP ; GetClassPtr<CCrossbowBolt>
; Function compile flags: /Odtp /ZI
;	COMDAT ??__FnameHolder@?1???$DataMapInit@VCCrossbowBolt@@@@YAPAUdatamap_s@@PAVCCrossbowBolt@@@Z@YAXXZ
text$yd	SEGMENT
??__FnameHolder@?1???$DataMapInit@VCCrossbowBolt@@@@YAPAUdatamap_s@@PAVCCrossbowBolt@@@Z@YAXXZ PROC ; `DataMapInit<CCrossbowBolt>'::`2'::`dynamic atexit destructor for 'nameHolder'', COMDAT
	push	ebp
	mov	ebp, esp
	sub	esp, 64					; 00000040H
	push	ebx
	push	esi
	push	edi
	mov	ecx, OFFSET ?nameHolder@?1???$DataMapInit@VCCrossbowBolt@@@@YAPAUdatamap_s@@PAVCCrossbowBolt@@@Z@4VCDatadescGeneratedNameHolder@@A
	call	??1CDatadescGeneratedNameHolder@@QAE@XZ	; CDatadescGeneratedNameHolder::~CDatadescGeneratedNameHolder
	pop	edi
	pop	esi
	pop	ebx
	mov	esp, ebp
	pop	ebp
	ret	0
??__FnameHolder@?1???$DataMapInit@VCCrossbowBolt@@@@YAPAUdatamap_s@@PAVCCrossbowBolt@@@Z@YAXXZ ENDP ; `DataMapInit<CCrossbowBolt>'::`2'::`dynamic atexit destructor for 'nameHolder''
text$yd	ENDS
; Function compile flags: /Odtp /ZI
; File d:\!diffusion 2020\source code 2022\client-server\server\weapons\weapon_crossbow.cpp
;	COMDAT ??__Eg_DataMapHolder@CCrossbowBolt_DataDescInit@@YAXXZ
text$di	SEGMENT
??__Eg_DataMapHolder@CCrossbowBolt_DataDescInit@@YAXXZ PROC ; CCrossbowBolt_DataDescInit::`dynamic initializer for 'g_DataMapHolder'', COMDAT

; 54   : BEGIN_DATADESC( CCrossbowBolt )

	push	ebp
	mov	ebp, esp
	sub	esp, 64					; 00000040H
	push	ebx
	push	esi
	push	edi
	push	0
	call	??$DataMapInit@VCCrossbowBolt@@@@YAPAUdatamap_s@@PAVCCrossbowBolt@@@Z ; DataMapInit<CCrossbowBolt>
	add	esp, 4
	mov	DWORD PTR ?g_DataMapHolder@CCrossbowBolt_DataDescInit@@3PAUdatamap_s@@A, eax ; CCrossbowBolt_DataDescInit::g_DataMapHolder
	pop	edi
	pop	esi
	pop	ebx
	mov	esp, ebp
	pop	ebp
	ret	0
??__Eg_DataMapHolder@CCrossbowBolt_DataDescInit@@YAXXZ ENDP ; CCrossbowBolt_DataDescInit::`dynamic initializer for 'g_DataMapHolder''
text$di	ENDS
; Function compile flags: /Odtp /ZI
; File d:\!diffusion 2020\source code 2022\client-server\server\weapons\weapon_crossbow.cpp
;	COMDAT ??$DataMapInit@VCCrossbowBolt@@@@YAPAUdatamap_s@@PAVCCrossbowBolt@@@Z
_TEXT	SEGMENT
__$EHRec$ = -12						; size = 12
___formal$ = 8						; size = 4
??$DataMapInit@VCCrossbowBolt@@@@YAPAUdatamap_s@@PAVCCrossbowBolt@@@Z PROC ; DataMapInit<CCrossbowBolt>, COMDAT

; 54   : BEGIN_DATADESC( CCrossbowBolt )

	push	ebp
	mov	ebp, esp
	push	-1
	push	__ehhandler$??$DataMapInit@VCCrossbowBolt@@@@YAPAUdatamap_s@@PAVCCrossbowBolt@@@Z
	mov	eax, DWORD PTR fs:0
	push	eax
	sub	esp, 64					; 00000040H
	push	ebx
	push	esi
	push	edi
	mov	eax, DWORD PTR ___security_cookie
	xor	eax, ebp
	push	eax
	lea	eax, DWORD PTR __$EHRec$[ebp]
	mov	DWORD PTR fs:0, eax
	mov	eax, DWORD PTR __tls_index
	mov	ecx, DWORD PTR fs:__tls_array
	mov	edx, DWORD PTR [ecx+eax*4]
	mov	eax, DWORD PTR ?$TSS0@?1???$DataMapInit@VCCrossbowBolt@@@@YAPAUdatamap_s@@PAVCCrossbowBolt@@@Z@4HA
	cmp	eax, DWORD PTR __Init_thread_epoch[edx]
	jle	SHORT $LN2@DataMapIni
	push	OFFSET ?$TSS0@?1???$DataMapInit@VCCrossbowBolt@@@@YAPAUdatamap_s@@PAVCCrossbowBolt@@@Z@4HA
	call	__Init_thread_header
	add	esp, 4
	cmp	DWORD PTR ?$TSS0@?1???$DataMapInit@VCCrossbowBolt@@@@YAPAUdatamap_s@@PAVCCrossbowBolt@@@Z@4HA, -1
	jne	SHORT $LN2@DataMapIni
	mov	DWORD PTR __$EHRec$[ebp+8], 0
	push	OFFSET ??_C@_0O@HOCJNBBA@CCrossbowBolt?$AA@
	mov	ecx, OFFSET ?nameHolder@?1???$DataMapInit@VCCrossbowBolt@@@@YAPAUdatamap_s@@PAVCCrossbowBolt@@@Z@4VCDatadescGeneratedNameHolder@@A
	call	??0CDatadescGeneratedNameHolder@@QAE@PBD@Z ; CDatadescGeneratedNameHolder::CDatadescGeneratedNameHolder
	push	OFFSET ??__FnameHolder@?1???$DataMapInit@VCCrossbowBolt@@@@YAPAUdatamap_s@@PAVCCrossbowBolt@@@Z@YAXXZ ; `DataMapInit<CCrossbowBolt>'::`2'::`dynamic atexit destructor for 'nameHolder''
	call	_atexit
	add	esp, 4
	mov	DWORD PTR __$EHRec$[ebp+8], -1
	push	OFFSET ?$TSS0@?1???$DataMapInit@VCCrossbowBolt@@@@YAPAUdatamap_s@@PAVCCrossbowBolt@@@Z@4HA
	call	__Init_thread_footer
	add	esp, 4
$LN2@DataMapIni:

; 59   : END_DATADESC()

	call	?GetBaseMap@CCrossbowBolt@@CAPAUdatamap_s@@XZ ; CCrossbowBolt::GetBaseMap
	mov	DWORD PTR ?m_DataMap@CCrossbowBolt@@0Udatamap_s@@A+12, eax

; 54   : BEGIN_DATADESC( CCrossbowBolt )

	mov	eax, DWORD PTR __tls_index
	mov	ecx, DWORD PTR fs:__tls_array
	mov	edx, DWORD PTR [ecx+eax*4]
	mov	eax, DWORD PTR ?$TSS1@?1???$DataMapInit@VCCrossbowBolt@@@@YAPAUdatamap_s@@PAVCCrossbowBolt@@@Z@4HA
	cmp	eax, DWORD PTR __Init_thread_epoch[edx]
	jle	$LN3@DataMapIni
	push	OFFSET ?$TSS1@?1???$DataMapInit@VCCrossbowBolt@@@@YAPAUdatamap_s@@PAVCCrossbowBolt@@@Z@4HA
	call	__Init_thread_header
	add	esp, 4
	cmp	DWORD PTR ?$TSS1@?1???$DataMapInit@VCCrossbowBolt@@@@YAPAUdatamap_s@@PAVCCrossbowBolt@@@Z@4HA, -1
	jne	$LN3@DataMapIni
	mov	DWORD PTR __$EHRec$[ebp+8], 1

; 55   : 	DEFINE_FUNCTION( BubbleThink ),

	push	OFFSET ??_C@_0M@JCHJNPDF@BubbleThink?$AA@
	mov	ecx, OFFSET ?nameHolder@?1???$DataMapInit@VCCrossbowBolt@@@@YAPAUdatamap_s@@PAVCCrossbowBolt@@@Z@4VCDatadescGeneratedNameHolder@@A
	call	?GenerateName@CDatadescGeneratedNameHolder@@QAEPBDPBD@Z ; CDatadescGeneratedNameHolder::GenerateName
	mov	DWORD PTR ?dataDesc@?1???$DataMapInit@VCCrossbowBolt@@@@YAPAUdatamap_s@@PAVCCrossbowBolt@@@Z@4PAUtypedescription_s@@A+28, eax
	mov	DWORD PTR ?dataDesc@?1???$DataMapInit@VCCrossbowBolt@@@@YAPAUdatamap_s@@PAVCCrossbowBolt@@@Z@4PAUtypedescription_s@@A+32, 0
	mov	eax, 1
	mov	WORD PTR ?dataDesc@?1???$DataMapInit@VCCrossbowBolt@@@@YAPAUdatamap_s@@PAVCCrossbowBolt@@@Z@4PAUtypedescription_s@@A+36, ax
	mov	eax, 8
	mov	WORD PTR ?dataDesc@?1???$DataMapInit@VCCrossbowBolt@@@@YAPAUdatamap_s@@PAVCCrossbowBolt@@@Z@4PAUtypedescription_s@@A+38, ax
	mov	DWORD PTR ?dataDesc@?1???$DataMapInit@VCCrossbowBolt@@@@YAPAUdatamap_s@@PAVCCrossbowBolt@@@Z@4PAUtypedescription_s@@A+40, 0
	mov	DWORD PTR ?dataDesc@?1???$DataMapInit@VCCrossbowBolt@@@@YAPAUdatamap_s@@PAVCCrossbowBolt@@@Z@4PAUtypedescription_s@@A+44, OFFSET ?BubbleThink@CCrossbowBolt@@AAEXXZ ; CCrossbowBolt::BubbleThink

; 56   : 	DEFINE_FUNCTION( ExplodeThink ),

	mov	DWORD PTR ?dataDesc@?1???$DataMapInit@VCCrossbowBolt@@@@YAPAUdatamap_s@@PAVCCrossbowBolt@@@Z@4PAUtypedescription_s@@A+48, 18 ; 00000012H
	push	OFFSET ??_C@_0N@PFFAMDBG@ExplodeThink?$AA@
	mov	ecx, OFFSET ?nameHolder@?1???$DataMapInit@VCCrossbowBolt@@@@YAPAUdatamap_s@@PAVCCrossbowBolt@@@Z@4VCDatadescGeneratedNameHolder@@A
	call	?GenerateName@CDatadescGeneratedNameHolder@@QAEPBDPBD@Z ; CDatadescGeneratedNameHolder::GenerateName
	mov	DWORD PTR ?dataDesc@?1???$DataMapInit@VCCrossbowBolt@@@@YAPAUdatamap_s@@PAVCCrossbowBolt@@@Z@4PAUtypedescription_s@@A+52, eax
	mov	DWORD PTR ?dataDesc@?1???$DataMapInit@VCCrossbowBolt@@@@YAPAUdatamap_s@@PAVCCrossbowBolt@@@Z@4PAUtypedescription_s@@A+56, 0
	mov	eax, 1
	mov	WORD PTR ?dataDesc@?1???$DataMapInit@VCCrossbowBolt@@@@YAPAUdatamap_s@@PAVCCrossbowBolt@@@Z@4PAUtypedescription_s@@A+60, ax
	mov	eax, 8
	mov	WORD PTR ?dataDesc@?1???$DataMapInit@VCCrossbowBolt@@@@YAPAUdatamap_s@@PAVCCrossbowBolt@@@Z@4PAUtypedescription_s@@A+62, ax
	mov	DWORD PTR ?dataDesc@?1???$DataMapInit@VCCrossbowBolt@@@@YAPAUdatamap_s@@PAVCCrossbowBolt@@@Z@4PAUtypedescription_s@@A+64, 0
	mov	DWORD PTR ?dataDesc@?1???$DataMapInit@VCCrossbowBolt@@@@YAPAUdatamap_s@@PAVCCrossbowBolt@@@Z@4PAUtypedescription_s@@A+68, OFFSET ?ExplodeThink@CCrossbowBolt@@AAEXXZ ; CCrossbowBolt::ExplodeThink

; 57   : 	DEFINE_FUNCTION( BoltTouch ),

	mov	DWORD PTR ?dataDesc@?1???$DataMapInit@VCCrossbowBolt@@@@YAPAUdatamap_s@@PAVCCrossbowBolt@@@Z@4PAUtypedescription_s@@A+72, 18 ; 00000012H
	push	OFFSET ??_C@_09KNKKCBKI@BoltTouch?$AA@
	mov	ecx, OFFSET ?nameHolder@?1???$DataMapInit@VCCrossbowBolt@@@@YAPAUdatamap_s@@PAVCCrossbowBolt@@@Z@4VCDatadescGeneratedNameHolder@@A
	call	?GenerateName@CDatadescGeneratedNameHolder@@QAEPBDPBD@Z ; CDatadescGeneratedNameHolder::GenerateName
	mov	DWORD PTR ?dataDesc@?1???$DataMapInit@VCCrossbowBolt@@@@YAPAUdatamap_s@@PAVCCrossbowBolt@@@Z@4PAUtypedescription_s@@A+76, eax
	mov	DWORD PTR ?dataDesc@?1???$DataMapInit@VCCrossbowBolt@@@@YAPAUdatamap_s@@PAVCCrossbowBolt@@@Z@4PAUtypedescription_s@@A+80, 0
	mov	eax, 1
	mov	WORD PTR ?dataDesc@?1???$DataMapInit@VCCrossbowBolt@@@@YAPAUdatamap_s@@PAVCCrossbowBolt@@@Z@4PAUtypedescription_s@@A+84, ax
	mov	eax, 8
	mov	WORD PTR ?dataDesc@?1???$DataMapInit@VCCrossbowBolt@@@@YAPAUdatamap_s@@PAVCCrossbowBolt@@@Z@4PAUtypedescription_s@@A+86, ax
	mov	DWORD PTR ?dataDesc@?1???$DataMapInit@VCCrossbowBolt@@@@YAPAUdatamap_s@@PAVCCrossbowBolt@@@Z@4PAUtypedescription_s@@A+88, 0
	mov	DWORD PTR ?dataDesc@?1???$DataMapInit@VCCrossbowBolt@@@@YAPAUdatamap_s@@PAVCCrossbowBolt@@@Z@4PAUtypedescription_s@@A+92, OFFSET ?BoltTouch@CCrossbowBolt@@AAEXPAVCBaseEntity@@@Z ; CCrossbowBolt::BoltTouch

; 58   : 	DEFINE_FUNCTION( PlayTouchSound ),

	mov	DWORD PTR ?dataDesc@?1???$DataMapInit@VCCrossbowBolt@@@@YAPAUdatamap_s@@PAVCCrossbowBolt@@@Z@4PAUtypedescription_s@@A+96, 18 ; 00000012H
	push	OFFSET ??_C@_0P@FANIOOGJ@PlayTouchSound?$AA@
	mov	ecx, OFFSET ?nameHolder@?1???$DataMapInit@VCCrossbowBolt@@@@YAPAUdatamap_s@@PAVCCrossbowBolt@@@Z@4VCDatadescGeneratedNameHolder@@A
	call	?GenerateName@CDatadescGeneratedNameHolder@@QAEPBDPBD@Z ; CDatadescGeneratedNameHolder::GenerateName
	mov	DWORD PTR ?dataDesc@?1???$DataMapInit@VCCrossbowBolt@@@@YAPAUdatamap_s@@PAVCCrossbowBolt@@@Z@4PAUtypedescription_s@@A+100, eax
	mov	DWORD PTR ?dataDesc@?1???$DataMapInit@VCCrossbowBolt@@@@YAPAUdatamap_s@@PAVCCrossbowBolt@@@Z@4PAUtypedescription_s@@A+104, 0
	mov	eax, 1
	mov	WORD PTR ?dataDesc@?1???$DataMapInit@VCCrossbowBolt@@@@YAPAUdatamap_s@@PAVCCrossbowBolt@@@Z@4PAUtypedescription_s@@A+108, ax
	mov	eax, 8
	mov	WORD PTR ?dataDesc@?1???$DataMapInit@VCCrossbowBolt@@@@YAPAUdatamap_s@@PAVCCrossbowBolt@@@Z@4PAUtypedescription_s@@A+110, ax
	mov	DWORD PTR ?dataDesc@?1???$DataMapInit@VCCrossbowBolt@@@@YAPAUdatamap_s@@PAVCCrossbowBolt@@@Z@4PAUtypedescription_s@@A+112, 0
	mov	DWORD PTR ?dataDesc@?1???$DataMapInit@VCCrossbowBolt@@@@YAPAUdatamap_s@@PAVCCrossbowBolt@@@Z@4PAUtypedescription_s@@A+116, OFFSET ?PlayTouchSound@CCrossbowBolt@@AAEXPAVCBaseEntity@@@Z ; CCrossbowBolt::PlayTouchSound
	mov	DWORD PTR __$EHRec$[ebp+8], -1
	push	OFFSET ?$TSS1@?1???$DataMapInit@VCCrossbowBolt@@@@YAPAUdatamap_s@@PAVCCrossbowBolt@@@Z@4HA
	call	__Init_thread_footer
	add	esp, 4
$LN3@DataMapIni:

; 59   : END_DATADESC()

	mov	eax, 1
	test	eax, eax
	je	SHORT $LN4@DataMapIni
	mov	DWORD PTR ?m_DataMap@CCrossbowBolt@@0Udatamap_s@@A+4, 4
	mov	eax, 24					; 00000018H
	shl	eax, 0
	add	eax, OFFSET ?dataDesc@?1???$DataMapInit@VCCrossbowBolt@@@@YAPAUdatamap_s@@PAVCCrossbowBolt@@@Z@4PAUtypedescription_s@@A
	mov	DWORD PTR ?m_DataMap@CCrossbowBolt@@0Udatamap_s@@A, eax
	jmp	SHORT $LN5@DataMapIni
$LN4@DataMapIni:
	mov	DWORD PTR ?m_DataMap@CCrossbowBolt@@0Udatamap_s@@A+4, 1
	mov	DWORD PTR ?m_DataMap@CCrossbowBolt@@0Udatamap_s@@A, OFFSET ?dataDesc@?1???$DataMapInit@VCCrossbowBolt@@@@YAPAUdatamap_s@@PAVCCrossbowBolt@@@Z@4PAUtypedescription_s@@A
$LN5@DataMapIni:
	mov	eax, OFFSET ?m_DataMap@CCrossbowBolt@@0Udatamap_s@@A ; CCrossbowBolt::m_DataMap
	mov	ecx, DWORD PTR __$EHRec$[ebp]
	mov	DWORD PTR fs:0, ecx
	pop	ecx
	pop	edi
	pop	esi
	pop	ebx
	mov	esp, ebp
	pop	ebp
	ret	0
_TEXT	ENDS
;	COMDAT text$x
text$x	SEGMENT
__unwindfunclet$??$DataMapInit@VCCrossbowBolt@@@@YAPAUdatamap_s@@PAVCCrossbowBolt@@@Z$0:
	push	OFFSET ?$TSS0@?1???$DataMapInit@VCCrossbowBolt@@@@YAPAUdatamap_s@@PAVCCrossbowBolt@@@Z@4HA
	call	__Init_thread_abort
	pop	ecx
	ret	0
__unwindfunclet$??$DataMapInit@VCCrossbowBolt@@@@YAPAUdatamap_s@@PAVCCrossbowBolt@@@Z$1:
	push	OFFSET ?$TSS1@?1???$DataMapInit@VCCrossbowBolt@@@@YAPAUdatamap_s@@PAVCCrossbowBolt@@@Z@4HA
	call	__Init_thread_abort
	pop	ecx
	ret	0
__ehhandler$??$DataMapInit@VCCrossbowBolt@@@@YAPAUdatamap_s@@PAVCCrossbowBolt@@@Z:
	mov	edx, DWORD PTR [esp+8]
	lea	eax, DWORD PTR [edx+12]
	mov	ecx, DWORD PTR [edx-80]
	xor	ecx, eax
	call	@__security_check_cookie@4
	mov	eax, OFFSET __ehfuncinfo$??$DataMapInit@VCCrossbowBolt@@@@YAPAUdatamap_s@@PAVCCrossbowBolt@@@Z
	jmp	___CxxFrameHandler3
text$x	ENDS
??$DataMapInit@VCCrossbowBolt@@@@YAPAUdatamap_s@@PAVCCrossbowBolt@@@Z ENDP ; DataMapInit<CCrossbowBolt>
; Function compile flags: /Odtp /ZI
; File d:\!diffusion 2020\source code 2022\client-server\common\datamap.h
;	COMDAT ??$DataMapAccess@VCBaseEntity@@@@YAXPAVCBaseEntity@@PAPAUdatamap_s@@@Z
_TEXT	SEGMENT
_ignored$ = 8						; size = 4
_p$ = 12						; size = 4
??$DataMapAccess@VCBaseEntity@@@@YAXPAVCBaseEntity@@PAPAUdatamap_s@@@Z PROC ; DataMapAccess<CBaseEntity>, COMDAT

; 184  : {

	push	ebp
	mov	ebp, esp
	sub	esp, 64					; 00000040H
	push	ebx
	push	esi
	push	edi

; 185  : 	*p = &T::m_DataMap;

	mov	eax, DWORD PTR _p$[ebp]
	mov	DWORD PTR [eax], OFFSET ?m_DataMap@CBaseEntity@@2Udatamap_s@@A ; CBaseEntity::m_DataMap

; 186  : }

	pop	edi
	pop	esi
	pop	ebx
	mov	esp, ebp
	pop	ebp
	ret	0
??$DataMapAccess@VCBaseEntity@@@@YAXPAVCBaseEntity@@PAPAUdatamap_s@@@Z ENDP ; DataMapAccess<CBaseEntity>
_TEXT	ENDS
; Function compile flags: /Odtp /ZI
; File d:\!diffusion 2020\source code 2022\client-server\server\weapons\weapon_crossbow.cpp
;	COMDAT ??__Ecrossbow_bolt@@YAXXZ
text$di	SEGMENT
??__Ecrossbow_bolt@@YAXXZ PROC				; `dynamic initializer for 'crossbow_bolt'', COMDAT

; 52   : LINK_ENTITY_TO_CLASS( crossbow_bolt, CCrossbowBolt );

	push	ebp
	mov	ebp, esp
	sub	esp, 64					; 00000040H
	push	ebx
	push	esi
	push	edi
	push	OFFSET ??_C@_0O@BEIBOGJ@crossbow_bolt?$AA@
	mov	ecx, OFFSET ?crossbow_bolt@@3V?$CEntityFactory@VCCrossbowBolt@@@@A
	call	??0?$CEntityFactory@VCCrossbowBolt@@@@QAE@PBD@Z ; CEntityFactory<CCrossbowBolt>::CEntityFactory<CCrossbowBolt>
	pop	edi
	pop	esi
	pop	ebx
	mov	esp, ebp
	pop	ebp
	ret	0
??__Ecrossbow_bolt@@YAXXZ ENDP				; `dynamic initializer for 'crossbow_bolt''
text$di	ENDS
; Function compile flags: /Odtp /ZI
; File d:\!diffusion 2020\source code 2022\client-server\server\util.h
;	COMDAT ?GetEntitySize@?$CEntityFactory@VCCrossbowBolt@@@@UAEIXZ
_TEXT	SEGMENT
_this$ = -4						; size = 4
?GetEntitySize@?$CEntityFactory@VCCrossbowBolt@@@@UAEIXZ PROC ; CEntityFactory<CCrossbowBolt>::GetEntitySize, COMDAT
; _this$ = ecx

; 103  : 	{

	push	ebp
	mov	ebp, esp
	sub	esp, 68					; 00000044H
	push	ebx
	push	esi
	push	edi
	mov	DWORD PTR _this$[ebp], ecx

; 104  : 		return sizeof(T);

	mov	eax, 1808				; 00000710H

; 105  : 	}

	pop	edi
	pop	esi
	pop	ebx
	mov	esp, ebp
	pop	ebp
	ret	0
?GetEntitySize@?$CEntityFactory@VCCrossbowBolt@@@@UAEIXZ ENDP ; CEntityFactory<CCrossbowBolt>::GetEntitySize
_TEXT	ENDS
; Function compile flags: /Odtp /ZI
; File d:\!diffusion 2020\source code 2022\client-server\server\util.h
;	COMDAT ?Destroy@?$CEntityFactory@VCCrossbowBolt@@@@UAEXPAVCBaseEntity@@@Z
_TEXT	SEGMENT
_this$ = -4						; size = 4
_pEntity$ = 8						; size = 4
?Destroy@?$CEntityFactory@VCCrossbowBolt@@@@UAEXPAVCBaseEntity@@@Z PROC ; CEntityFactory<CCrossbowBolt>::Destroy, COMDAT
; _this$ = ecx

; 98   : 	{

	push	ebp
	mov	ebp, esp
	sub	esp, 68					; 00000044H
	push	ebx
	push	esi
	push	edi
	mov	DWORD PTR _this$[ebp], ecx

; 99   : 		UTIL_Remove( pEntity );

	mov	eax, DWORD PTR _pEntity$[ebp]
	push	eax
	call	?UTIL_Remove@@YAXPAVCBaseEntity@@@Z	; UTIL_Remove
	add	esp, 4

; 100  : 	}

	pop	edi
	pop	esi
	pop	ebx
	mov	esp, ebp
	pop	ebp
	ret	4
?Destroy@?$CEntityFactory@VCCrossbowBolt@@@@UAEXPAVCBaseEntity@@@Z ENDP ; CEntityFactory<CCrossbowBolt>::Destroy
_TEXT	ENDS
; Function compile flags: /Odtp /ZI
; File d:\!diffusion 2020\source code 2022\client-server\server\util.h
;	COMDAT ?Create@?$CEntityFactory@VCCrossbowBolt@@@@UAEPAVCBaseEntity@@PBDPAUentvars_s@@@Z
_TEXT	SEGMENT
_pEnt$ = -8						; size = 4
_this$ = -4						; size = 4
_pClassName$ = 8					; size = 4
_pev$ = 12						; size = 4
?Create@?$CEntityFactory@VCCrossbowBolt@@@@UAEPAVCBaseEntity@@PBDPAUentvars_s@@@Z PROC ; CEntityFactory<CCrossbowBolt>::Create, COMDAT
; _this$ = ecx

; 92   : 	{

	push	ebp
	mov	ebp, esp
	sub	esp, 72					; 00000048H
	push	ebx
	push	esi
	push	edi
	mov	DWORD PTR _this$[ebp], ecx

; 93   : 		T* pEnt = GetClassPtr((T*)pev, pClassName);

	mov	eax, DWORD PTR _pClassName$[ebp]
	push	eax
	mov	ecx, DWORD PTR _pev$[ebp]
	push	ecx
	call	??$GetClassPtr@VCCrossbowBolt@@@@YAPAVCCrossbowBolt@@PAV0@PBD@Z ; GetClassPtr<CCrossbowBolt>
	add	esp, 8
	mov	DWORD PTR _pEnt$[ebp], eax

; 94   : 		return pEnt;

	mov	eax, DWORD PTR _pEnt$[ebp]

; 95   : 	}

	pop	edi
	pop	esi
	pop	ebx
	mov	esp, ebp
	pop	ebp
	ret	8
?Create@?$CEntityFactory@VCCrossbowBolt@@@@UAEPAVCBaseEntity@@PBDPAUentvars_s@@@Z ENDP ; CEntityFactory<CCrossbowBolt>::Create
_TEXT	ENDS
; Function compile flags: /Odtp /ZI
; File d:\!diffusion 2020\source code 2022\client-server\server\util.h
;	COMDAT ??0?$CEntityFactory@VCCrossbowBolt@@@@QAE@PBD@Z
_TEXT	SEGMENT
tv76 = -72						; size = 4
_this$ = -4						; size = 4
_pClassName$ = 8					; size = 4
??0?$CEntityFactory@VCCrossbowBolt@@@@QAE@PBD@Z PROC	; CEntityFactory<CCrossbowBolt>::CEntityFactory<CCrossbowBolt>, COMDAT
; _this$ = ecx

; 86   : 	CEntityFactory( const char *pClassName )

	push	ebp
	mov	ebp, esp
	sub	esp, 72					; 00000048H
	push	ebx
	push	esi
	push	edi
	mov	DWORD PTR _this$[ebp], ecx

; 87   : 	{

	mov	ecx, DWORD PTR _this$[ebp]
	call	??0IEntityFactory@@QAE@XZ
	mov	eax, DWORD PTR _this$[ebp]
	mov	DWORD PTR [eax], OFFSET ??_7?$CEntityFactory@VCCrossbowBolt@@@@6B@

; 88   : 		EntityFactoryDictionary()->InstallFactory( this, pClassName );

	call	?EntityFactoryDictionary@@YAPAVIEntityFactoryDictionary@@XZ ; EntityFactoryDictionary
	mov	DWORD PTR tv76[ebp], eax
	mov	eax, DWORD PTR _pClassName$[ebp]
	push	eax
	mov	ecx, DWORD PTR _this$[ebp]
	push	ecx
	mov	edx, DWORD PTR tv76[ebp]
	mov	eax, DWORD PTR [edx]
	mov	ecx, DWORD PTR tv76[ebp]
	mov	edx, DWORD PTR [eax]
	call	edx

; 89   : 	}

	mov	eax, DWORD PTR _this$[ebp]
	pop	edi
	pop	esi
	pop	ebx
	mov	esp, ebp
	pop	ebp
	ret	4
??0?$CEntityFactory@VCCrossbowBolt@@@@QAE@PBD@Z ENDP	; CEntityFactory<CCrossbowBolt>::CEntityFactory<CCrossbowBolt>
_TEXT	ENDS
; Function compile flags: /Odtp /ZI
;	COMDAT ??0CCrossbowBolt@@QAE@XZ
_TEXT	SEGMENT
_this$ = -4						; size = 4
??0CCrossbowBolt@@QAE@XZ PROC				; CCrossbowBolt::CCrossbowBolt, COMDAT
; _this$ = ecx
	push	ebp
	mov	ebp, esp
	sub	esp, 68					; 00000044H
	push	ebx
	push	esi
	push	edi
	mov	DWORD PTR _this$[ebp], ecx
	mov	ecx, DWORD PTR _this$[ebp]
	call	??0CBaseEntity@@QAE@XZ
	mov	eax, DWORD PTR _this$[ebp]
	mov	DWORD PTR [eax], OFFSET ??_7CCrossbowBolt@@6B@
	mov	eax, DWORD PTR _this$[ebp]
	pop	edi
	pop	esi
	pop	ebx
	mov	esp, ebp
	pop	ebp
	ret	0
??0CCrossbowBolt@@QAE@XZ ENDP				; CCrossbowBolt::CCrossbowBolt
_TEXT	ENDS
; Function compile flags: /Odtp /ZI
; File d:\!diffusion 2020\source code 2022\client-server\server\weapons\weapon_crossbow.cpp
;	COMDAT ?BoltCreate@CCrossbowBolt@@SAPAV1@XZ
_TEXT	SEGMENT
_pBolt$ = -4						; size = 4
?BoltCreate@CCrossbowBolt@@SAPAV1@XZ PROC		; CCrossbowBolt::BoltCreate, COMDAT

; 62   : {

	push	ebp
	mov	ebp, esp
	sub	esp, 68					; 00000044H
	push	ebx
	push	esi
	push	edi

; 63   : 	// Create a new entity with CCrossbowBolt private data
; 64   : 	CCrossbowBolt *pBolt = GetClassPtr( (CCrossbowBolt *)NULL );

	push	0
	call	??$GetClassPtr@VCCrossbowBolt@@@@YAPAVCCrossbowBolt@@PAV0@@Z ; GetClassPtr<CCrossbowBolt>
	add	esp, 4
	mov	DWORD PTR _pBolt$[ebp], eax

; 65   : 	pBolt->pev->classname = MAKE_STRING( "crossbow_bolt" );

	push	OFFSET ??_C@_0O@BEIBOGJ@crossbow_bolt?$AA@
	call	DWORD PTR ?g_engfuncs@@3Uenginefuncs_s@@A+268
	add	esp, 4
	mov	ecx, DWORD PTR _pBolt$[ebp]
	mov	edx, DWORD PTR [ecx+4]
	mov	DWORD PTR [edx], eax

; 66   : 	pBolt->Spawn();

	mov	eax, DWORD PTR _pBolt$[ebp]
	mov	edx, DWORD PTR [eax]
	mov	ecx, DWORD PTR _pBolt$[ebp]
	mov	eax, DWORD PTR [edx+4]
	call	eax

; 67   : 
; 68   : 	return pBolt;

	mov	eax, DWORD PTR _pBolt$[ebp]

; 69   : }

	pop	edi
	pop	esi
	pop	ebx
	mov	esp, ebp
	pop	ebp
	ret	0
?BoltCreate@CCrossbowBolt@@SAPAV1@XZ ENDP		; CCrossbowBolt::BoltCreate
_TEXT	ENDS
; Function compile flags: /Odtp /ZI
; File d:\!diffusion 2020\source code 2022\client-server\server\weapons\weapon_crossbow.cpp
;	COMDAT ?GetDataDescMap@CCrossbowBolt@@EAEPAUdatamap_s@@XZ
_TEXT	SEGMENT
_this$ = -4						; size = 4
?GetDataDescMap@CCrossbowBolt@@EAEPAUdatamap_s@@XZ PROC	; CCrossbowBolt::GetDataDescMap, COMDAT
; _this$ = ecx

; 54   : BEGIN_DATADESC( CCrossbowBolt )

	push	ebp
	mov	ebp, esp
	sub	esp, 68					; 00000044H
	push	ebx
	push	esi
	push	edi
	mov	DWORD PTR _this$[ebp], ecx
	mov	eax, OFFSET ?m_DataMap@CCrossbowBolt@@0Udatamap_s@@A ; CCrossbowBolt::m_DataMap
	pop	edi
	pop	esi
	pop	ebx
	mov	esp, ebp
	pop	ebp
	ret	0
?GetDataDescMap@CCrossbowBolt@@EAEPAUdatamap_s@@XZ ENDP	; CCrossbowBolt::GetDataDescMap
_TEXT	ENDS
; Function compile flags: /Odtp /ZI
; File d:\!diffusion 2020\source code 2022\client-server\server\weapons\weapon_crossbow.cpp
;	COMDAT ?GetBaseMap@CCrossbowBolt@@CAPAUdatamap_s@@XZ
_TEXT	SEGMENT
_pResult$ = -4						; size = 4
?GetBaseMap@CCrossbowBolt@@CAPAUdatamap_s@@XZ PROC	; CCrossbowBolt::GetBaseMap, COMDAT

; 54   : BEGIN_DATADESC( CCrossbowBolt )

	push	ebp
	mov	ebp, esp
	sub	esp, 68					; 00000044H
	push	ebx
	push	esi
	push	edi
	lea	eax, DWORD PTR _pResult$[ebp]
	push	eax
	push	0
	call	??$DataMapAccess@VCBaseEntity@@@@YAXPAVCBaseEntity@@PAPAUdatamap_s@@@Z ; DataMapAccess<CBaseEntity>
	add	esp, 8
	mov	eax, DWORD PTR _pResult$[ebp]
	pop	edi
	pop	esi
	pop	ebx
	mov	esp, ebp
	pop	ebp
	ret	0
?GetBaseMap@CCrossbowBolt@@CAPAUdatamap_s@@XZ ENDP	; CCrossbowBolt::GetBaseMap
_TEXT	ENDS
; Function compile flags: /Odtp /ZI
; File d:\!diffusion 2020\source code 2022\client-server\server\weapons\weapon_crossbow.cpp
;	COMDAT ?PlayTouchSound@CCrossbowBolt@@AAEXPAVCBaseEntity@@@Z
_TEXT	SEGMENT
tv164 = -72						; size = 4
_this$ = -4						; size = 4
_pOther$ = 8						; size = 4
?PlayTouchSound@CCrossbowBolt@@AAEXPAVCBaseEntity@@@Z PROC ; CCrossbowBolt::PlayTouchSound, COMDAT
; _this$ = ecx

; 151  : {

	push	ebp
	mov	ebp, esp
	sub	esp, 72					; 00000048H
	push	ebx
	push	esi
	push	edi
	mov	DWORD PTR _this$[ebp], ecx

; 152  : 	if( pOther->HasSpawnFlags(SF_MONSTER_NODAMAGE) )

	push	2048					; 00000800H
	mov	eax, DWORD PTR _pOther$[ebp]
	mov	edx, DWORD PTR [eax]
	mov	ecx, DWORD PTR _pOther$[ebp]
	mov	eax, DWORD PTR [edx+268]
	call	eax
	movzx	ecx, al
	test	ecx, ecx
	je	SHORT $LN4@PlayTouchS

; 153  : 		return;

	jmp	$LN1@PlayTouchS
$LN4@PlayTouchS:

; 154  : 	
; 155  : 	// FIXME this is not looking good
; 156  : 	if (FClassnameIs(pOther->pev, "monster_alice") || FClassnameIs(pOther->pev, "_playerdrone") || FClassnameIs( pOther->pev, "_playersentry" ) )

	push	OFFSET ??_C@_0O@MDKCAHNO@monster_alice?$AA@
	mov	eax, DWORD PTR _pOther$[ebp]
	mov	ecx, DWORD PTR [eax+4]
	push	ecx
	call	?FClassnameIs@@YAHPAUentvars_s@@PBD@Z	; FClassnameIs
	add	esp, 8
	test	eax, eax
	jne	SHORT $LN6@PlayTouchS
	push	OFFSET ??_C@_0N@INNMLFB@_playerdrone?$AA@
	mov	eax, DWORD PTR _pOther$[ebp]
	mov	ecx, DWORD PTR [eax+4]
	push	ecx
	call	?FClassnameIs@@YAHPAUentvars_s@@PBD@Z	; FClassnameIs
	add	esp, 8
	test	eax, eax
	jne	SHORT $LN6@PlayTouchS
	push	OFFSET ??_C@_0O@EFJOMFML@_playersentry?$AA@
	mov	eax, DWORD PTR _pOther$[ebp]
	mov	ecx, DWORD PTR [eax+4]
	push	ecx
	call	?FClassnameIs@@YAHPAUentvars_s@@PBD@Z	; FClassnameIs
	add	esp, 8
	test	eax, eax
	je	SHORT $LN5@PlayTouchS
$LN6@PlayTouchS:

; 157  : 		return;

	jmp	$LN1@PlayTouchS
$LN5@PlayTouchS:

; 158  : 
; 159  : 	if ( pOther->HasFlag(F_NOT_A_MONSTER) || pOther->HasFlag(F_METAL_MONSTER) )

	push	2048					; 00000800H
	mov	eax, DWORD PTR _pOther$[ebp]
	mov	edx, DWORD PTR [eax]
	mov	ecx, DWORD PTR _pOther$[ebp]
	mov	eax, DWORD PTR [edx+280]
	call	eax
