; Listing generated by Microsoft (R) Optimizing Compiler Version 19.00.24247.2 

	TITLE	D:\!DIFFUSION 2020\source code 2022\client-server\server\weapons\weapon_sentry.cpp
	.686P
	.XMM
	include listing.inc
	.model	flat

INCLUDELIB LIBCMT
INCLUDELIB OLDNAMES

PUBLIC	?m_DataMap@CWpnSentry@@2Udatamap_s@@A		; CWpnSentry::m_DataMap
PUBLIC	??_C@_0L@JEALDADF@CWpnSentry?$AA@		; `string'
PUBLIC	??_C@_0N@BKOLIFNF@m_hTestModel?$AA@		; `string'
PUBLIC	??_C@_0M@MPNIKBCJ@RotateAngle?$AA@		; `string'
;	COMDAT ??_C@_0M@MPNIKBCJ@RotateAngle?$AA@
CONST	SEGMENT
??_C@_0M@MPNIKBCJ@RotateAngle?$AA@ DB 'RotateAngle', 00H ; `string'
CONST	ENDS
;	COMDAT ??_C@_0N@BKOLIFNF@m_hTestModel?$AA@
CONST	SEGMENT
??_C@_0N@BKOLIFNF@m_hTestModel?$AA@ DB 'm_hTestModel', 00H ; `string'
CONST	ENDS
;	COMDAT ??_C@_0L@JEALDADF@CWpnSentry?$AA@
CONST	SEGMENT
??_C@_0L@JEALDADF@CWpnSentry?$AA@ DB 'CWpnSentry', 00H	; `string'
CONST	ENDS
_DATA	SEGMENT
?m_DataMap@CWpnSentry@@2Udatamap_s@@A DD 00H		; CWpnSentry::m_DataMap
	DD	00H
	DD	FLAT:??_C@_0L@JEALDADF@CWpnSentry?$AA@
	DD	00H
?dataDesc@?1???$DataMapInit@VCWpnSentry@@@@YAPAUdatamap_s@@PAVCWpnSentry@@@Z@4PAUtypedescription_s@@A DD 012H ; `DataMapInit<CWpnSentry>'::`2'::dataDesc
	DD	00H
	DD	00H
	DW	00H
	DW	00H
	DD	00H
	DD	00H
	DD	04H
	DD	FLAT:??_C@_0N@BKOLIFNF@m_hTestModel?$AA@
	DD	0794H
	DW	01H
	DW	02H
	DD	00H
	DD	00H
	DD	00H
	DD	FLAT:??_C@_0M@MPNIKBCJ@RotateAngle?$AA@
	DD	079cH
	DW	01H
	DW	02H
	DD	00H
	DD	00H
_DATA	ENDS
PUBLIC	??_H@YGXPAXIIP6EPAX0@Z@Z			; `vector constructor iterator'
PUBLIC	??__G@YGXPAX0IIP6EPAX00@Z@Z			; `vector copy constructor iterator'
PUBLIC	?__empty_global_delete@@YAXPAX@Z		; __empty_global_delete
PUBLIC	?__empty_global_delete@@YAXPAXI@Z		; __empty_global_delete
PUBLIC	??0Vector@@QAE@XZ				; Vector::Vector
PUBLIC	??0Vector@@QAE@MMM@Z				; Vector::Vector
PUBLIC	??0Vector@@QAE@ABV0@@Z				; Vector::Vector
PUBLIC	??8Vector@@QBEHABV0@@Z				; Vector::operator==
PUBLIC	??9Vector@@QBEHABV0@@Z				; Vector::operator!=
PUBLIC	??HVector@@QBE?AV0@ABV0@@Z			; Vector::operator+
PUBLIC	??GVector@@QBE?AV0@ABV0@@Z			; Vector::operator-
PUBLIC	??DVector@@QBE?AV0@M@Z				; Vector::operator*
PUBLIC	??0gametrace_s@@QAE@XZ				; gametrace_s::gametrace_s
PUBLIC	?GET_PRIVATE@@YAPAXPAUedict_s@@@Z		; GET_PRIVATE
PUBLIC	??0CDatadescGeneratedNameHolder@@QAE@PBD@Z	; CDatadescGeneratedNameHolder::CDatadescGeneratedNameHolder
PUBLIC	??1CDatadescGeneratedNameHolder@@QAE@XZ		; CDatadescGeneratedNameHolder::~CDatadescGeneratedNameHolder
PUBLIC	??0?$CUtlArray@PADV?$CUtlMemory@PADH@@@@QAE@HH@Z ; CUtlArray<char *,CUtlMemory<char *,int> >::CUtlArray<char *,CUtlMemory<char *,int> >
PUBLIC	??1?$CUtlArray@PADV?$CUtlMemory@PADH@@@@QAE@XZ	; CUtlArray<char *,CUtlMemory<char *,int> >::~CUtlArray<char *,CUtlMemory<char *,int> >
PUBLIC	??A?$CUtlArray@PADV?$CUtlMemory@PADH@@@@QAEAAPADH@Z ; CUtlArray<char *,CUtlMemory<char *,int> >::operator[]
PUBLIC	?Element@?$CUtlArray@PADV?$CUtlMemory@PADH@@@@QAEAAPADH@Z ; CUtlArray<char *,CUtlMemory<char *,int> >::Element
PUBLIC	?Base@?$CUtlArray@PADV?$CUtlMemory@PADH@@@@QAEPAPADXZ ; CUtlArray<char *,CUtlMemory<char *,int> >::Base
PUBLIC	?Count@?$CUtlArray@PADV?$CUtlMemory@PADH@@@@QBEHXZ ; CUtlArray<char *,CUtlMemory<char *,int> >::Count
PUBLIC	?RemoveAll@?$CUtlArray@PADV?$CUtlMemory@PADH@@@@QAEXXZ ; CUtlArray<char *,CUtlMemory<char *,int> >::RemoveAll
PUBLIC	?Purge@?$CUtlArray@PADV?$CUtlMemory@PADH@@@@QAEXXZ ; CUtlArray<char *,CUtlMemory<char *,int> >::Purge
PUBLIC	??0?$CUtlMemory@PADH@@QAE@HH@Z			; CUtlMemory<char *,int>::CUtlMemory<char *,int>
PUBLIC	??1?$CUtlMemory@PADH@@QAE@XZ			; CUtlMemory<char *,int>::~CUtlMemory<char *,int>
PUBLIC	??A?$CUtlMemory@PADH@@QAEAAPADH@Z		; CUtlMemory<char *,int>::operator[]
PUBLIC	?IsIdxValid@?$CUtlMemory@PADH@@QBE_NH@Z		; CUtlMemory<char *,int>::IsIdxValid
PUBLIC	?Base@?$CUtlMemory@PADH@@QAEPAPADXZ		; CUtlMemory<char *,int>::Base
PUBLIC	?Purge@?$CUtlMemory@PADH@@QAEXXZ		; CUtlMemory<char *,int>::Purge
PUBLIC	?IsExternallyAllocated@?$CUtlMemory@PADH@@QBE_NXZ ; CUtlMemory<char *,int>::IsExternallyAllocated
PUBLIC	?IsReadOnly@?$CUtlMemory@PADH@@QBE_NXZ		; CUtlMemory<char *,int>::IsReadOnly
PUBLIC	?ValidateGrowSize@?$CUtlMemory@PADH@@IAEXXZ	; CUtlMemory<char *,int>::ValidateGrowSize
PUBLIC	?ResetDbgInfo@?$CUtlArray@PADV?$CUtlMemory@PADH@@@@IAEXXZ ; CUtlArray<char *,CUtlMemory<char *,int> >::ResetDbgInfo
PUBLIC	?MESSAGE_BEGIN@@YAXHHPBMPAUentvars_s@@@Z	; MESSAGE_BEGIN
PUBLIC	??0IEntityFactory@@QAE@XZ			; IEntityFactory::IEntityFactory
PUBLIC	?ENT@@YAPAUedict_s@@PBUentvars_s@@@Z		; ENT
PUBLIC	?VARS@@YAPAUentvars_s@@PAUedict_s@@@Z		; VARS
PUBLIC	?FStrEq@@YAHPBD0@Z				; FStrEq
PUBLIC	?Get@EHANDLE@@QAEPAUedict_s@@XZ			; EHANDLE::Get
PUBLIC	??BEHANDLE@@QAEHXZ				; EHANDLE::operator int
PUBLIC	??4EHANDLE@@QAEPAVCBaseEntity@@PAV1@@Z		; EHANDLE::operator=
PUBLIC	??CEHANDLE@@QAEPAVCBaseEntity@@XZ		; EHANDLE::operator->
PUBLIC	?SetClassname@CBaseEntity@@QAEXPBD@Z		; CBaseEntity::SetClassname
PUBLIC	?Spawn@CBaseEntity@@UAEXXZ			; CBaseEntity::Spawn
PUBLIC	?Precache@CBaseEntity@@UAEXXZ			; CBaseEntity::Precache
PUBLIC	?KeyValue@CBaseEntity@@UAEXPAUKeyValueData_s@@@Z ; CBaseEntity::KeyValue
PUBLIC	?ObjectCaps@CBaseEntity@@UAEHXZ			; CBaseEntity::ObjectCaps
PUBLIC	?Activate@CBaseEntity@@UAEXXZ			; CBaseEntity::Activate
PUBLIC	?OnChangeLevel@CBaseEntity@@UAEXXZ		; CBaseEntity::OnChangeLevel
PUBLIC	?OnTeleport@CBaseEntity@@UAEXXZ			; CBaseEntity::OnTeleport
PUBLIC	?PortalSleep@CBaseEntity@@UAEXM@Z		; CBaseEntity::PortalSleep
PUBLIC	?StartMessage@CBaseEntity@@UAEXPAVCBasePlayer@@@Z ; CBaseEntity::StartMessage
PUBLIC	?GetPosition@CBaseEntity@@UAEMXZ		; CBaseEntity::GetPosition
PUBLIC	?OnChangeParent@CBaseEntity@@UAEXXZ		; CBaseEntity::OnChangeParent
PUBLIC	?OnClearParent@CBaseEntity@@UAEXXZ		; CBaseEntity::OnClearParent
PUBLIC	?OnRemove@CBaseEntity@@UAEXXZ			; CBaseEntity::OnRemove
PUBLIC	?Classify@CBaseEntity@@UAEHXZ			; CBaseEntity::Classify
PUBLIC	?DeathNotice@CBaseEntity@@UAEXPAUentvars_s@@@Z	; CBaseEntity::DeathNotice
PUBLIC	?IsRigidBody@CBaseEntity@@UAEHXZ		; CBaseEntity::IsRigidBody
PUBLIC	?GetState@CBaseEntity@@UAE?AW4STATE@@XZ		; CBaseEntity::GetState
PUBLIC	?GetState@CBaseEntity@@UAE?AW4STATE@@PAV1@@Z	; CBaseEntity::GetState
PUBLIC	?BloodColor@CBaseEntity@@UAEHXZ			; CBaseEntity::BloodColor
PUBLIC	?IsTriggered@CBaseEntity@@UAEHPAV1@@Z		; CBaseEntity::IsTriggered
PUBLIC	?MyMonsterPointer@CBaseEntity@@UAEPAVCBaseMonster@@XZ ; CBaseEntity::MyMonsterPointer
PUBLIC	?MySquadMonsterPointer@CBaseEntity@@UAEPAVCSquadMonster@@XZ ; CBaseEntity::MySquadMonsterPointer
PUBLIC	?GetToggleState@CBaseEntity@@UAEHXZ		; CBaseEntity::GetToggleState
PUBLIC	?AddPoints@CBaseEntity@@UAEXHH@Z		; CBaseEntity::AddPoints
PUBLIC	?AddPointsToTeam@CBaseEntity@@UAEXHH@Z		; CBaseEntity::AddPointsToTeam
PUBLIC	?AddPlayerItem@CBaseEntity@@UAEHPAVCBasePlayerItem@@@Z ; CBaseEntity::AddPlayerItem
PUBLIC	?RemovePlayerItem@CBaseEntity@@UAEHPAVCBasePlayerItem@@@Z ; CBaseEntity::RemovePlayerItem
PUBLIC	?GiveAmmo@CBaseEntity@@UAEHHPADH@Z		; CBaseEntity::GiveAmmo
PUBLIC	?GetDelay@CBaseEntity@@UAEMXZ			; CBaseEntity::GetDelay
PUBLIC	?IsMoving@CBaseEntity@@UAEHXZ			; CBaseEntity::IsMoving
PUBLIC	?OverrideReset@CBaseEntity@@UAEXXZ		; CBaseEntity::OverrideReset
PUBLIC	?TransferReset@CBaseEntity@@UAEXXZ		; CBaseEntity::TransferReset
PUBLIC	?SetToggleState@CBaseEntity@@UAEXH@Z		; CBaseEntity::SetToggleState
PUBLIC	?StartSneaking@CBaseEntity@@UAEXXZ		; CBaseEntity::StartSneaking
PUBLIC	?StopSneaking@CBaseEntity@@UAEXXZ		; CBaseEntity::StopSneaking
PUBLIC	?OnControls@CBaseEntity@@UAEHPAV1@@Z		; CBaseEntity::OnControls
PUBLIC	?IsSneaking@CBaseEntity@@UAEHXZ			; CBaseEntity::IsSneaking
PUBLIC	?IsAlive@CBaseEntity@@UAEHXZ			; CBaseEntity::IsAlive
PUBLIC	?IsBSPModel@CBaseEntity@@UAEHXZ			; CBaseEntity::IsBSPModel
PUBLIC	?IsCustomModel@CBaseEntity@@UAEHXZ		; CBaseEntity::IsCustomModel
PUBLIC	?ReflectGauss@CBaseEntity@@UAEHXZ		; CBaseEntity::ReflectGauss
PUBLIC	?HasTarget@CBaseEntity@@UAEHH@Z			; CBaseEntity::HasTarget
PUBLIC	?IsPlayer@CBaseEntity@@UAEHXZ			; CBaseEntity::IsPlayer
PUBLIC	?IsNetClient@CBaseEntity@@UAEHXZ		; CBaseEntity::IsNetClient
PUBLIC	?IsMonster@CBaseEntity@@UAEHXZ			; CBaseEntity::IsMonster
PUBLIC	?IsPushable@CBaseEntity@@UAEHXZ			; CBaseEntity::IsPushable
PUBLIC	?IsProjectile@CBaseEntity@@UAEHXZ		; CBaseEntity::IsProjectile
PUBLIC	?IsFuncScreen@CBaseEntity@@UAEHXZ		; CBaseEntity::IsFuncScreen
PUBLIC	?IsPortal@CBaseEntity@@UAEHXZ			; CBaseEntity::IsPortal
PUBLIC	?IsTank@CBaseEntity@@UAEHXZ			; CBaseEntity::IsTank
PUBLIC	?IsMover@CBaseEntity@@UAEHXZ			; CBaseEntity::IsMover
PUBLIC	?IsBreakable@CBaseEntity@@UAEHXZ		; CBaseEntity::IsBreakable
PUBLIC	?TeamID@CBaseEntity@@UAEPBDXZ			; CBaseEntity::TeamID
PUBLIC	?AddSpawnFlags@CBaseEntity@@UAEXH@Z		; CBaseEntity::AddSpawnFlags
PUBLIC	?HasSpawnFlags@CBaseEntity@@UBE_NH@Z		; CBaseEntity::HasSpawnFlags
PUBLIC	?SetFadeDistance@CBaseEntity@@UAEXH@Z		; CBaseEntity::SetFadeDistance
PUBLIC	?SetFlag@CBaseEntity@@UAEXH@Z			; CBaseEntity::SetFlag
PUBLIC	?HasFlag@CBaseEntity@@UBE_NH@Z			; CBaseEntity::HasFlag
PUBLIC	?RemoveFlag@CBaseEntity@@UAEXH@Z		; CBaseEntity::RemoveFlag
PUBLIC	?SetNullModel@CBaseEntity@@UAEXXZ		; CBaseEntity::SetNullModel
PUBLIC	?OnPickupObject@CBaseEntity@@UAEXXZ		; CBaseEntity::OnPickupObject
PUBLIC	?OnDropObject@CBaseEntity@@UAEXXZ		; CBaseEntity::OnDropObject
PUBLIC	?Think@CBaseEntity@@UAEXXZ			; CBaseEntity::Think
PUBLIC	?Use@CBaseEntity@@UAEXPAV1@0W4USE_TYPE@@M@Z	; CBaseEntity::Use
PUBLIC	?Touch@CBaseEntity@@UAEXPAV1@@Z			; CBaseEntity::Touch
PUBLIC	?Blocked@CBaseEntity@@UAEXPAV1@@Z		; CBaseEntity::Blocked
PUBLIC	?MoveDone@CBaseEntity@@UAEXXZ			; CBaseEntity::MoveDone
PUBLIC	??2CBaseEntity@@SAPAXIPAUentvars_s@@@Z		; CBaseEntity::operator new
PUBLIC	??3CBaseEntity@@SAXPAXPAUentvars_s@@@Z		; CBaseEntity::operator delete
PUBLIC	?Respawn@CBaseEntity@@UAEPAV1@XZ		; CBaseEntity::Respawn
PUBLIC	?UpdateOwner@CBaseEntity@@UAEXXZ		; CBaseEntity::UpdateOwner
PUBLIC	?FBecomeProne@CBaseEntity@@UAEHXZ		; CBaseEntity::FBecomeProne
PUBLIC	?edict@CBaseEntity@@QAEPAUedict_s@@XZ		; CBaseEntity::edict
PUBLIC	?Center@CBaseEntity@@UAE?AVVector@@XZ		; CBaseEntity::Center
PUBLIC	?EyePosition@CBaseEntity@@UAE?AVVector@@XZ	; CBaseEntity::EyePosition
PUBLIC	?EarPosition@CBaseEntity@@UAE?AVVector@@XZ	; CBaseEntity::EarPosition
PUBLIC	?BodyTarget@CBaseEntity@@UAE?AVVector@@ABV2@@Z	; CBaseEntity::BodyTarget
PUBLIC	?IsPointSized@CBaseEntity@@UBEHXZ		; CBaseEntity::IsPointSized
PUBLIC	?Illumination@CBaseEntity@@UAEHXZ		; CBaseEntity::Illumination
PUBLIC	??0CBaseEntity@@QAE@XZ				; CBaseEntity::CBaseEntity
PUBLIC	?GetState@CBaseDelay@@UAE?AW4STATE@@XZ		; CBaseDelay::GetState
PUBLIC	??0CBaseDelay@@QAE@XZ				; CBaseDelay::CBaseDelay
PUBLIC	?HandleAnimEvent@CBaseAnimating@@UAEXPAUMonsterEvent_t@@@Z ; CBaseAnimating::HandleAnimEvent
PUBLIC	??0CBaseAnimating@@QAE@XZ			; CBaseAnimating::CBaseAnimating
PUBLIC	?AddDuplicate@CBasePlayerItem@@UAEHPAV1@@Z	; CBasePlayerItem::AddDuplicate
PUBLIC	?GetItemInfo@CBasePlayerItem@@UAEHPAUItemInfo@@@Z ; CBasePlayerItem::GetItemInfo
PUBLIC	?CanDeploy@CBasePlayerItem@@UAEHXZ		; CBasePlayerItem::CanDeploy
PUBLIC	?Deploy@CBasePlayerItem@@UAEHXZ			; CBasePlayerItem::Deploy
PUBLIC	?CanHolster@CBasePlayerItem@@UAEHXZ		; CBasePlayerItem::CanHolster
PUBLIC	?UpdateItemInfo@CBasePlayerItem@@UAEXXZ		; CBasePlayerItem::UpdateItemInfo
PUBLIC	?ItemPreFrame@CBasePlayerItem@@UAEXXZ		; CBasePlayerItem::ItemPreFrame
PUBLIC	?ItemPostFrame@CBasePlayerItem@@UAEXXZ		; CBasePlayerItem::ItemPostFrame
PUBLIC	?PrimaryAmmoIndex@CBasePlayerItem@@UAEHXZ	; CBasePlayerItem::PrimaryAmmoIndex
PUBLIC	?SecondaryAmmoIndex@CBasePlayerItem@@UAEHXZ	; CBasePlayerItem::SecondaryAmmoIndex
PUBLIC	?UpdateClientData@CBasePlayerItem@@UAEHPAVCBasePlayer@@@Z ; CBasePlayerItem::UpdateClientData
PUBLIC	?GetWeaponPtr@CBasePlayerItem@@UAEPAV1@XZ	; CBasePlayerItem::GetWeaponPtr
PUBLIC	?iItemSlot@CBasePlayerItem@@UAEHXZ		; CBasePlayerItem::iItemSlot
PUBLIC	??0CBasePlayerItem@@QAE@XZ			; CBasePlayerItem::CBasePlayerItem
PUBLIC	?AddWeapon@CBasePlayerWeapon@@UAEHXZ		; CBasePlayerWeapon::AddWeapon
PUBLIC	?UpdateItemInfo@CBasePlayerWeapon@@UAEXXZ	; CBasePlayerWeapon::UpdateItemInfo
PUBLIC	?PrimaryAttack@CBasePlayerWeapon@@UAEXXZ	; CBasePlayerWeapon::PrimaryAttack
PUBLIC	?SecondaryAttack@CBasePlayerWeapon@@UAEXXZ	; CBasePlayerWeapon::SecondaryAttack
PUBLIC	?Reload@CBasePlayerWeapon@@UAEXXZ		; CBasePlayerWeapon::Reload
PUBLIC	?WeaponIdle@CBasePlayerWeapon@@UAEXXZ		; CBasePlayerWeapon::WeaponIdle
PUBLIC	?ShouldWeaponIdle@CBasePlayerWeapon@@UAEHXZ	; CBasePlayerWeapon::ShouldWeaponIdle
PUBLIC	?UseDecrement@CBasePlayerWeapon@@UAEHXZ		; CBasePlayerWeapon::UseDecrement
PUBLIC	?GetWeaponPtr@CBasePlayerWeapon@@UAEPAVCBasePlayerItem@@XZ ; CBasePlayerWeapon::GetWeaponPtr
PUBLIC	??0CBasePlayerWeapon@@QAE@XZ			; CBasePlayerWeapon::CBasePlayerWeapon
PUBLIC	?Spawn@CWpnSentry@@UAEXXZ			; CWpnSentry::Spawn
PUBLIC	?Precache@CWpnSentry@@UAEXXZ			; CWpnSentry::Precache
PUBLIC	?iItemSlot@CWpnSentry@@UAEHXZ			; CWpnSentry::iItemSlot
PUBLIC	?GetItemInfo@CWpnSentry@@UAEHPAUItemInfo@@@Z	; CWpnSentry::GetItemInfo
PUBLIC	?AddToPlayer@CWpnSentry@@UAEHPAVCBasePlayer@@@Z	; CWpnSentry::AddToPlayer
PUBLIC	?PrimaryAttack@CWpnSentry@@UAEXXZ		; CWpnSentry::PrimaryAttack
PUBLIC	?SecondaryAttack@CWpnSentry@@UAEXXZ		; CWpnSentry::SecondaryAttack
PUBLIC	?Deploy@CWpnSentry@@UAEHXZ			; CWpnSentry::Deploy
PUBLIC	?Holster@CWpnSentry@@UAEXXZ			; CWpnSentry::Holster
PUBLIC	?WeaponIdle@CWpnSentry@@UAEXXZ			; CWpnSentry::WeaponIdle
PUBLIC	?SpawnTest@CWpnSentry@@QAE_NXZ			; CWpnSentry::SpawnTest
PUBLIC	?GetBaseMap@CWpnSentry@@SAPAUdatamap_s@@XZ	; CWpnSentry::GetBaseMap
PUBLIC	?GetDataDescMap@CWpnSentry@@UAEPAUdatamap_s@@XZ	; CWpnSentry::GetDataDescMap
PUBLIC	??0CWpnSentry@@QAE@XZ				; CWpnSentry::CWpnSentry
PUBLIC	??0?$CEntityFactory@VCWpnSentry@@@@QAE@PBD@Z	; CEntityFactory<CWpnSentry>::CEntityFactory<CWpnSentry>
PUBLIC	?Create@?$CEntityFactory@VCWpnSentry@@@@UAEPAVCBaseEntity@@PBDPAUentvars_s@@@Z ; CEntityFactory<CWpnSentry>::Create
PUBLIC	?Destroy@?$CEntityFactory@VCWpnSentry@@@@UAEXPAVCBaseEntity@@@Z ; CEntityFactory<CWpnSentry>::Destroy
PUBLIC	?GetEntitySize@?$CEntityFactory@VCWpnSentry@@@@UAEIXZ ; CEntityFactory<CWpnSentry>::GetEntitySize
PUBLIC	??$DataMapAccess@VCBasePlayerWeapon@@@@YAXPAVCBasePlayerWeapon@@PAPAUdatamap_s@@@Z ; DataMapAccess<CBasePlayerWeapon>
PUBLIC	??$DataMapInit@VCWpnSentry@@@@YAPAUdatamap_s@@PAVCWpnSentry@@@Z ; DataMapInit<CWpnSentry>
PUBLIC	??$GetClassPtr@VCWpnSentry@@@@YAPAVCWpnSentry@@PAV0@PBD@Z ; GetClassPtr<CWpnSentry>
PUBLIC	??$Destruct@PAD@@YAXPAPAD@Z			; Destruct<char *>
PUBLIC	??_C@_00CNPNBAHC@?$AA@				; `string'
PUBLIC	??_7IEntityFactory@@6B@				; IEntityFactory::`vftable'
PUBLIC	??_7CBaseEntity@@6B@				; CBaseEntity::`vftable'
PUBLIC	??_C@_06MLKDMCBD@parent?$AA@			; `string'
PUBLIC	??_C@_08JJJAOBDI@movewith?$AA@			; `string'
PUBLIC	??_C@_0M@EAELDHJO@parentflags?$AA@		; `string'
PUBLIC	??_C@_05IAKJCFIM@style?$AA@			; `string'
PUBLIC	??_C@_0L@IKCANML@reflection?$AA@		; `string'
PUBLIC	??_C@_0N@JILDNHAP@vlight_cache?$AA@		; `string'
PUBLIC	??_C@_0L@JIJDCONP@customname?$AA@		; `string'
PUBLIC	??_7CBaseDelay@@6B@				; CBaseDelay::`vftable'
PUBLIC	??_7CBaseAnimating@@6B@				; CBaseAnimating::`vftable'
PUBLIC	??_C@_0BB@EMJBJDBM@sprites?1null?4spr?$AA@	; `string'
PUBLIC	??_7CBasePlayerItem@@6B@			; CBasePlayerItem::`vftable'
PUBLIC	??_7CBasePlayerWeapon@@6B@			; CBasePlayerWeapon::`vftable'
PUBLIC	??_7CWpnSentry@@6B@				; CWpnSentry::`vftable'
PUBLIC	??_7?$CEntityFactory@VCWpnSentry@@@@6B@		; CEntityFactory<CWpnSentry>::`vftable'
PUBLIC	??_C@_0O@CJMKLEPM@weapon_sentry?$AA@		; `string'
PUBLIC	?g_DataMapHolder@CWpnSentry_DataDescInit@@3PAUdatamap_s@@A ; CWpnSentry_DataDescInit::g_DataMapHolder
PUBLIC	??_C@_0BE@DLNKPNIM@models?1w_sentry?4mdl?$AA@	; `string'
PUBLIC	??_C@_0BE@OGEMCEAJ@models?1v_sentry?4mdl?$AA@	; `string'
PUBLIC	??_C@_0BE@EGKJPLNE@models?1p_sentry?4mdl?$AA@	; `string'
PUBLIC	??_C@_0O@EFJOMFML@_playersentry?$AA@		; `string'
PUBLIC	??_C@_06IMPNPELI@sentry?$AA@			; `string'
PUBLIC	??_C@_04JMIAKPKD@trip?$AA@			; `string'
PUBLIC	??_C@_08MNDBFPDE@?9attack?6?$AA@		; `string'
PUBLIC	??_C@_0P@IOODMMBP@UTIL_CANTSPAWN?$AA@		; `string'
PUBLIC	??_C@_0M@BLHFOIPE@info_target?$AA@		; `string'
PUBLIC	??_C@_0BC@OENNHJAA@models?1sentry?4mdl?$AA@	; `string'
PUBLIC	??_C@_1JE@CIIIAKCN@?$AAd?$AA?3?$AA?2?$AA?$CB?$AAd?$AAi?$AAf?$AAf?$AAu?$AAs?$AAi?$AAo?$AAn?$AA?5?$AA2?$AA0?$AA2?$AA0?$AA?2?$AAs?$AAo?$AAu?$AAr?$AAc?$AAe?$AA?5?$AAc?$AAo?$AAd?$AAe?$AA?5?$AA2@ ; `string'
PUBLIC	??_C@_1BO@FOOHAONO@?$AAn?$AAG?$AAr?$AAo?$AAw?$AAS?$AAi?$AAz?$AAe?$AA?5?$AA?$DO?$AA?$DN?$AA?5?$AA0?$AA?$AA@ ; `string'
PUBLIC	??_C@_1BM@PFNFCCHH@?$AA?$CB?$AAI?$AAs?$AAR?$AAe?$AAa?$AAd?$AAO?$AAn?$AAl?$AAy?$AA?$CI?$AA?$CJ?$AA?$AA@ ; `string'
PUBLIC	??_C@_1BM@CKILBAKK@?$AAI?$AAs?$AAI?$AAd?$AAx?$AAV?$AAa?$AAl?$AAi?$AAd?$AA?$CI?$AAi?$AA?$CJ?$AA?$AA@ ; `string'
PUBLIC	??_R4CBaseEntity@@6B@				; CBaseEntity::`RTTI Complete Object Locator'
PUBLIC	??_R0?AVCBaseEntity@@@8				; CBaseEntity `RTTI Type Descriptor'
PUBLIC	??_R3CBaseEntity@@8				; CBaseEntity::`RTTI Class Hierarchy Descriptor'
PUBLIC	??_R2CBaseEntity@@8				; CBaseEntity::`RTTI Base Class Array'
PUBLIC	??_R1A@?0A@EA@CBaseEntity@@8			; CBaseEntity::`RTTI Base Class Descriptor at (0,-1,0,64)'
PUBLIC	??_R4IEntityFactory@@6B@			; IEntityFactory::`RTTI Complete Object Locator'
PUBLIC	??_R0?AVIEntityFactory@@@8			; IEntityFactory `RTTI Type Descriptor'
PUBLIC	??_R3IEntityFactory@@8				; IEntityFactory::`RTTI Class Hierarchy Descriptor'
PUBLIC	??_R2IEntityFactory@@8				; IEntityFactory::`RTTI Base Class Array'
PUBLIC	??_R1A@?0A@EA@IEntityFactory@@8			; IEntityFactory::`RTTI Base Class Descriptor at (0,-1,0,64)'
PUBLIC	??_R4CBasePlayerItem@@6B@			; CBasePlayerItem::`RTTI Complete Object Locator'
PUBLIC	??_R0?AVCBasePlayerItem@@@8			; CBasePlayerItem `RTTI Type Descriptor'
PUBLIC	??_R3CBasePlayerItem@@8				; CBasePlayerItem::`RTTI Class Hierarchy Descriptor'
PUBLIC	??_R2CBasePlayerItem@@8				; CBasePlayerItem::`RTTI Base Class Array'
PUBLIC	??_R1A@?0A@EA@CBasePlayerItem@@8		; CBasePlayerItem::`RTTI Base Class Descriptor at (0,-1,0,64)'
PUBLIC	??_R1A@?0A@EA@CBaseAnimating@@8			; CBaseAnimating::`RTTI Base Class Descriptor at (0,-1,0,64)'
PUBLIC	??_R0?AVCBaseAnimating@@@8			; CBaseAnimating `RTTI Type Descriptor'
PUBLIC	??_R3CBaseAnimating@@8				; CBaseAnimating::`RTTI Class Hierarchy Descriptor'
PUBLIC	??_R2CBaseAnimating@@8				; CBaseAnimating::`RTTI Base Class Array'
PUBLIC	??_R1A@?0A@EA@CBaseDelay@@8			; CBaseDelay::`RTTI Base Class Descriptor at (0,-1,0,64)'
PUBLIC	??_R0?AVCBaseDelay@@@8				; CBaseDelay `RTTI Type Descriptor'
PUBLIC	??_R3CBaseDelay@@8				; CBaseDelay::`RTTI Class Hierarchy Descriptor'
PUBLIC	??_R2CBaseDelay@@8				; CBaseDelay::`RTTI Base Class Array'
PUBLIC	??_R4CBaseDelay@@6B@				; CBaseDelay::`RTTI Complete Object Locator'
PUBLIC	??_R4CBaseAnimating@@6B@			; CBaseAnimating::`RTTI Complete Object Locator'
PUBLIC	??_R4CBasePlayerWeapon@@6B@			; CBasePlayerWeapon::`RTTI Complete Object Locator'
PUBLIC	??_R0?AVCBasePlayerWeapon@@@8			; CBasePlayerWeapon `RTTI Type Descriptor'
PUBLIC	??_R3CBasePlayerWeapon@@8			; CBasePlayerWeapon::`RTTI Class Hierarchy Descriptor'
PUBLIC	??_R2CBasePlayerWeapon@@8			; CBasePlayerWeapon::`RTTI Base Class Array'
PUBLIC	??_R1A@?0A@EA@CBasePlayerWeapon@@8		; CBasePlayerWeapon::`RTTI Base Class Descriptor at (0,-1,0,64)'
PUBLIC	??_R4CWpnSentry@@6B@				; CWpnSentry::`RTTI Complete Object Locator'
PUBLIC	??_R0?AVCWpnSentry@@@8				; CWpnSentry `RTTI Type Descriptor'
PUBLIC	??_R3CWpnSentry@@8				; CWpnSentry::`RTTI Class Hierarchy Descriptor'
PUBLIC	??_R2CWpnSentry@@8				; CWpnSentry::`RTTI Base Class Array'
PUBLIC	??_R1A@?0A@EA@CWpnSentry@@8			; CWpnSentry::`RTTI Base Class Descriptor at (0,-1,0,64)'
PUBLIC	??_R4?$CEntityFactory@VCWpnSentry@@@@6B@	; CEntityFactory<CWpnSentry>::`RTTI Complete Object Locator'
PUBLIC	??_R0?AV?$CEntityFactory@VCWpnSentry@@@@@8	; CEntityFactory<CWpnSentry> `RTTI Type Descriptor'
PUBLIC	??_R3?$CEntityFactory@VCWpnSentry@@@@8		; CEntityFactory<CWpnSentry>::`RTTI Class Hierarchy Descriptor'
PUBLIC	??_R2?$CEntityFactory@VCWpnSentry@@@@8		; CEntityFactory<CWpnSentry>::`RTTI Base Class Array'
PUBLIC	??_R1A@?0A@EA@?$CEntityFactory@VCWpnSentry@@@@8	; CEntityFactory<CWpnSentry>::`RTTI Base Class Descriptor at (0,-1,0,64)'
PUBLIC	__real@00000000
PUBLIC	__real@3db27eb6
PUBLIC	__real@3f000000
PUBLIC	__real@3f800000
PUBLIC	__real@3fb999999999999a
PUBLIC	__real@3fc999999999999a
PUBLIC	__real@3fe8000000000000
PUBLIC	__real@40000000
PUBLIC	__real@4014000000000000
PUBLIC	__real@40400000
PUBLIC	__real@41200000
PUBLIC	__real@41700000
PUBLIC	__real@42480000
PUBLIC	__real@42c80000
PUBLIC	__real@432f0000
PUBLIC	__real@43480000
PUBLIC	__real@437f0000
PUBLIC	__real@43960000
PUBLIC	__real@43b40000
EXTRN	__purecall:PROC
EXTRN	??3@YAXPAXI@Z:PROC				; operator delete
EXTRN	_atexit:PROC
EXTRN	__Init_thread_header:PROC
EXTRN	__Init_thread_abort:PROC
EXTRN	__Init_thread_footer:PROC
EXTRN	_memset:PROC
EXTRN	_strlen:PROC
EXTRN	_free:PROC
EXTRN	_malloc:PROC
EXTRN	_atoi:PROC
EXTRN	??0matrix4x4@@QAE@XZ:PROC			; matrix4x4::matrix4x4
EXTRN	?Q_atoi@@YAHPBD@Z:PROC				; Q_atoi
EXTRN	?Q_strncmp@@YAHPBD0H@Z:PROC			; Q_strncmp
EXTRN	__wassert:PROC
EXTRN	?UTIL_Remove@@YAXPAVCBaseEntity@@@Z:PROC	; UTIL_Remove
EXTRN	?EntityFactoryDictionary@@YAPAVIEntityFactoryDictionary@@XZ:PROC ; EntityFactoryDictionary
EXTRN	?DBG_EntOfVars@@YAPAUedict_s@@PBUentvars_s@@@Z:PROC ; DBG_EntOfVars
EXTRN	?ENT@@YAPAUedict_s@@PAVCBaseEntity@@@Z:PROC	; ENT
EXTRN	?UTIL_MakeVectors@@YAXABVVector@@@Z:PROC	; UTIL_MakeVectors
EXTRN	?UTIL_ShowMessage@@YAXPBDPAVCBaseEntity@@@Z:PROC ; UTIL_ShowMessage
EXTRN	?UTIL_TraceLine@@YAXABVVector@@0W4IGNORE_MONSTERS@@W4IGNORE_GLASS@@PAUedict_s@@PAUgametrace_s@@@Z:PROC ; UTIL_TraceLine
EXTRN	?UTIL_TraceHull@@YAXABVVector@@0W4IGNORE_MONSTERS@@HPAUedict_s@@PAUgametrace_s@@@Z:PROC ; UTIL_TraceHull
EXTRN	?UTIL_PointContents@@YAHABVVector@@@Z:PROC	; UTIL_PointContents
EXTRN	?UTIL_PrecacheOther@@YAXPBD@Z:PROC		; UTIL_PrecacheOther
EXTRN	?UTIL_GetModelType@@YA?AW4modtype_t@@H@Z:PROC	; UTIL_GetModelType
EXTRN	??0CMeshDesc@@QAE@XZ:PROC			; CMeshDesc::CMeshDesc
EXTRN	??1CMeshDesc@@QAE@XZ:PROC			; CMeshDesc::~CMeshDesc
EXTRN	?GetDataDescMap@CBaseEntity@@UAEPAUdatamap_s@@XZ:PROC ; CBaseEntity::GetDataDescMap
EXTRN	?SetAbsOrigin@CBaseEntity@@QAEXABVVector@@@Z:PROC ; CBaseEntity::SetAbsOrigin
EXTRN	?GetAbsOrigin@CBaseEntity@@QBEABVVector@@XZ:PROC ; CBaseEntity::GetAbsOrigin
EXTRN	?SetLocalAngles@CBaseEntity@@QAEXABVVector@@@Z:PROC ; CBaseEntity::SetLocalAngles
EXTRN	?GetLocalAngles@CBaseEntity@@QBEABVVector@@XZ:PROC ; CBaseEntity::GetLocalAngles
EXTRN	?GetAbsVelocity@CBaseEntity@@QBEABVVector@@XZ:PROC ; CBaseEntity::GetAbsVelocity
EXTRN	?Save@CBaseEntity@@UAEHAAVCSave@@@Z:PROC	; CBaseEntity::Save
EXTRN	?Restore@CBaseEntity@@UAEHAAVCRestore@@@Z:PROC	; CBaseEntity::Restore
EXTRN	?SetObjectCollisionBox@CBaseEntity@@UAEXXZ:PROC	; CBaseEntity::SetObjectCollisionBox
EXTRN	?SetNextThink@CBaseEntity@@UAEXM@Z:PROC		; CBaseEntity::SetNextThink
EXTRN	?TraceAttack@CBaseEntity@@UAEXPAUentvars_s@@MVVector@@PAUgametrace_s@@H@Z:PROC ; CBaseEntity::TraceAttack
EXTRN	?TakeDamage@CBaseEntity@@UAEHPAUentvars_s@@0MH@Z:PROC ; CBaseEntity::TakeDamage
EXTRN	?TakeHealth@CBaseEntity@@UAEHMH@Z:PROC		; CBaseEntity::TakeHealth
EXTRN	?TakeArmor@CBaseEntity@@UAEHMH@Z:PROC		; CBaseEntity::TakeArmor
EXTRN	?Killed@CBaseEntity@@UAEXPAUentvars_s@@H@Z:PROC	; CBaseEntity::Killed
EXTRN	?TraceBleed@CBaseEntity@@UAEXMVVector@@PAUgametrace_s@@H@Z:PROC ; CBaseEntity::TraceBleed
EXTRN	?DamageDecal@CBaseEntity@@UAEHH@Z:PROC		; CBaseEntity::DamageDecal
EXTRN	?IsInWorld@CBaseEntity@@UAEHH@Z:PROC		; CBaseEntity::IsInWorld
EXTRN	?GetNextTarget@CBaseEntity@@UAEPAV1@XZ:PROC	; CBaseEntity::GetNextTarget
EXTRN	?RelinkEntity@CBaseEntity@@QAEXHPBVVector@@H@Z:PROC ; CBaseEntity::RelinkEntity
EXTRN	?Create@CBaseEntity@@SAPAV1@PADABVVector@@1PAUedict_s@@@Z:PROC ; CBaseEntity::Create
EXTRN	?FVisible@CBaseEntity@@UAEHPAV1@@Z:PROC		; CBaseEntity::FVisible
EXTRN	?FVisible@CBaseEntity@@UAEHABVVector@@@Z:PROC	; CBaseEntity::FVisible
EXTRN	?ShouldCollide@CBaseEntity@@UAEHPAV1@@Z:PROC	; CBaseEntity::ShouldCollide
EXTRN	?ClearEffects@CBaseEntity@@UAEXXZ:PROC		; CBaseEntity::ClearEffects
EXTRN	?KeyValue@CBaseDelay@@UAEXPAUKeyValueData_s@@@Z:PROC ; CBaseDelay::KeyValue
EXTRN	?GetDataDescMap@CBaseDelay@@UAEPAUdatamap_s@@XZ:PROC ; CBaseDelay::GetDataDescMap
EXTRN	?GetDataDescMap@CBaseAnimating@@UAEPAUdatamap_s@@XZ:PROC ; CBaseAnimating::GetDataDescMap
EXTRN	?SetObjectCollisionBox@CBasePlayerItem@@UAEXXZ:PROC ; CBasePlayerItem::SetObjectCollisionBox
EXTRN	?GetDataDescMap@CBasePlayerItem@@UAEPAUdatamap_s@@XZ:PROC ; CBasePlayerItem::GetDataDescMap
EXTRN	?AddToPlayer@CBasePlayerItem@@UAEHPAVCBasePlayer@@@Z:PROC ; CBasePlayerItem::AddToPlayer
EXTRN	?Respawn@CBasePlayerItem@@UAEPAVCBaseEntity@@XZ:PROC ; CBasePlayerItem::Respawn
EXTRN	?FallInit@CBasePlayerItem@@QAEXXZ:PROC		; CBasePlayerItem::FallInit
EXTRN	?Holster@CBasePlayerItem@@UAEXXZ:PROC		; CBasePlayerItem::Holster
EXTRN	?Drop@CBasePlayerItem@@UAEXXZ:PROC		; CBasePlayerItem::Drop
EXTRN	?Kill@CBasePlayerItem@@UAEXXZ:PROC		; CBasePlayerItem::Kill
EXTRN	?AttachToPlayer@CBasePlayerItem@@UAEXPAVCBasePlayer@@@Z:PROC ; CBasePlayerItem::AttachToPlayer
EXTRN	?GetDataDescMap@CBasePlayerWeapon@@UAEPAUdatamap_s@@XZ:PROC ; CBasePlayerWeapon::GetDataDescMap
EXTRN	?AddToPlayer@CBasePlayerWeapon@@UAEHPAVCBasePlayer@@@Z:PROC ; CBasePlayerWeapon::AddToPlayer
EXTRN	?AddDuplicate@CBasePlayerWeapon@@UAEHPAVCBasePlayerItem@@@Z:PROC ; CBasePlayerWeapon::AddDuplicate
EXTRN	?ExtractAmmo@CBasePlayerWeapon@@UAEHPAV1@@Z:PROC ; CBasePlayerWeapon::ExtractAmmo
EXTRN	?ExtractClipAmmo@CBasePlayerWeapon@@UAEHPAV1@@Z:PROC ; CBasePlayerWeapon::ExtractClipAmmo
EXTRN	?PlayEmptySound@CBasePlayerWeapon@@UAEHXZ:PROC	; CBasePlayerWeapon::PlayEmptySound
EXTRN	?ResetEmptySound@CBasePlayerWeapon@@UAEXXZ:PROC	; CBasePlayerWeapon::ResetEmptySound
EXTRN	?SendWeaponAnim@CBasePlayerWeapon@@UAEXHHH@Z:PROC ; CBasePlayerWeapon::SendWeaponAnim
EXTRN	?CanDeploy@CBasePlayerWeapon@@UAEHXZ:PROC	; CBasePlayerWeapon::CanDeploy
EXTRN	?IsUseable@CBasePlayerWeapon@@UAEHXZ:PROC	; CBasePlayerWeapon::IsUseable
EXTRN	?DefaultDeploy@CBasePlayerWeapon@@QAEHPAD0H0HH@Z:PROC ; CBasePlayerWeapon::DefaultDeploy
EXTRN	?ItemPostFrame@CBasePlayerWeapon@@UAEXXZ:PROC	; CBasePlayerWeapon::ItemPostFrame
EXTRN	?UpdateClientData@CBasePlayerWeapon@@UAEHPAVCBasePlayer@@@Z:PROC ; CBasePlayerWeapon::UpdateClientData
EXTRN	?RetireWeapon@CBasePlayerWeapon@@UAEXXZ:PROC	; CBasePlayerWeapon::RetireWeapon
EXTRN	?Holster@CBasePlayerWeapon@@UAEXXZ:PROC		; CBasePlayerWeapon::Holster
EXTRN	?LowAmmoMsg@CBasePlayerWeapon@@UAEXPAVCBasePlayer@@@Z:PROC ; CBasePlayerWeapon::LowAmmoMsg
EXTRN	?PrimaryAmmoIndex@CBasePlayerWeapon@@UAEHXZ:PROC ; CBasePlayerWeapon::PrimaryAmmoIndex
EXTRN	?SecondaryAmmoIndex@CBasePlayerWeapon@@UAEHXZ:PROC ; CBasePlayerWeapon::SecondaryAmmoIndex
EXTRN	?SetAnimation@CBasePlayer@@QAEXW4PLAYER_ANIM@@@Z:PROC ; CBasePlayer::SetAnimation
EXTRN	?GetAutoaimVector@CBasePlayer@@QAE?AVVector@@M@Z:PROC ; CBasePlayer::GetAutoaimVector
EXTRN	@__security_check_cookie@4:PROC
EXTRN	___CxxFrameHandler3:PROC
EXTRN	__Init_thread_epoch:DWORD
EXTRN	?g_vecZero@@3VVector@@B:BYTE			; g_vecZero
EXTRN	?g_engfuncs@@3Uenginefuncs_s@@A:BYTE		; g_engfuncs
EXTRN	??_7type_info@@6B@:QWORD			; type_info::`vftable'
EXTRN	?gpGlobals@@3PAUglobalvars_t@@A:DWORD		; gpGlobals
EXTRN	?gmsgWeapPickup@@3HA:DWORD			; gmsgWeapPickup
EXTRN	?m_DataMap@CBasePlayerWeapon@@2Udatamap_s@@A:BYTE ; CBasePlayerWeapon::m_DataMap
EXTRN	?g_pGameRules@@3PAVCGameRules@@A:DWORD		; g_pGameRules
EXTRN	___security_cookie:DWORD
EXTRN	__fltused:DWORD
EXTRN	__tls_array:DWORD
EXTRN	__tls_index:DWORD
_BSS	SEGMENT
?weapon_sentry@@3V?$CEntityFactory@VCWpnSentry@@@@A DD 01H DUP (?) ; weapon_sentry
?g_DataMapHolder@CWpnSentry_DataDescInit@@3PAUdatamap_s@@A DD 01H DUP (?) ; CWpnSentry_DataDescInit::g_DataMapHolder
?nameHolder@?1???$DataMapInit@VCWpnSentry@@@@YAPAUdatamap_s@@PAVCWpnSentry@@@Z@4VCDatadescGeneratedNameHolder@@A DB 01cH DUP (?) ; `DataMapInit<CWpnSentry>'::`2'::nameHolder
?$TSS0@?1???$DataMapInit@VCWpnSentry@@@@YAPAUdatamap_s@@PAVCWpnSentry@@@Z@4HA DD 01H DUP (?) ; `DataMapInit<CWpnSentry>'::`2'::$TSS0
_BSS	ENDS
CRT$XCU	SEGMENT
?weapon_sentry$initializer$@@3P6AXXZA DD FLAT:??__Eweapon_sentry@@YAXXZ ; weapon_sentry$initializer$
CRT$XCU	ENDS
;	COMDAT __real@43b40000
CONST	SEGMENT
__real@43b40000 DD 043b40000r			; 360
CONST	ENDS
;	COMDAT __real@43960000
CONST	SEGMENT
__real@43960000 DD 043960000r			; 300
CONST	ENDS
;	COMDAT __real@437f0000
CONST	SEGMENT
__real@437f0000 DD 0437f0000r			; 255
CONST	ENDS
;	COMDAT __real@43480000
CONST	SEGMENT
__real@43480000 DD 043480000r			; 200
CONST	ENDS
;	COMDAT __real@432f0000
CONST	SEGMENT
__real@432f0000 DD 0432f0000r			; 175
CONST	ENDS
;	COMDAT __real@42c80000
CONST	SEGMENT
__real@42c80000 DD 042c80000r			; 100
CONST	ENDS
;	COMDAT __real@42480000
CONST	SEGMENT
__real@42480000 DD 042480000r			; 50
CONST	ENDS
;	COMDAT __real@41700000
CONST	SEGMENT
__real@41700000 DD 041700000r			; 15
CONST	ENDS
;	COMDAT __real@41200000
CONST	SEGMENT
__real@41200000 DD 041200000r			; 10
CONST	ENDS
;	COMDAT __real@40400000
CONST	SEGMENT
__real@40400000 DD 040400000r			; 3
CONST	ENDS
;	COMDAT __real@4014000000000000
CONST	SEGMENT
__real@4014000000000000 DQ 04014000000000000r	; 5
CONST	ENDS
;	COMDAT __real@40000000
CONST	SEGMENT
__real@40000000 DD 040000000r			; 2
CONST	ENDS
;	COMDAT __real@3fe8000000000000
CONST	SEGMENT
__real@3fe8000000000000 DQ 03fe8000000000000r	; 0.75
CONST	ENDS
;	COMDAT __real@3fc999999999999a
CONST	SEGMENT
__real@3fc999999999999a DQ 03fc999999999999ar	; 0.2
CONST	ENDS
;	COMDAT __real@3fb999999999999a
CONST	SEGMENT
__real@3fb999999999999a DQ 03fb999999999999ar	; 0.1
CONST	ENDS
;	COMDAT __real@3f800000
CONST	SEGMENT
__real@3f800000 DD 03f800000r			; 1
CONST	ENDS
;	COMDAT __real@3f000000
CONST	SEGMENT
__real@3f000000 DD 03f000000r			; 0.5
CONST	ENDS
;	COMDAT __real@3db27eb6
CONST	SEGMENT
__real@3db27eb6 DD 03db27eb6r			; 0.0871557
CONST	ENDS
;	COMDAT __real@00000000
CONST	SEGMENT
__real@00000000 DD 000000000r			; 0
CONST	ENDS
;	COMDAT ??_R1A@?0A@EA@?$CEntityFactory@VCWpnSentry@@@@8
rdata$r	SEGMENT
??_R1A@?0A@EA@?$CEntityFactory@VCWpnSentry@@@@8 DD FLAT:??_R0?AV?$CEntityFactory@VCWpnSentry@@@@@8 ; CEntityFactory<CWpnSentry>::`RTTI Base Class Descriptor at (0,-1,0,64)'
	DD	01H
	DD	00H
	DD	0ffffffffH
	DD	00H
	DD	040H
	DD	FLAT:??_R3?$CEntityFactory@VCWpnSentry@@@@8
rdata$r	ENDS
;	COMDAT ??_R2?$CEntityFactory@VCWpnSentry@@@@8
rdata$r	SEGMENT
??_R2?$CEntityFactory@VCWpnSentry@@@@8 DD FLAT:??_R1A@?0A@EA@?$CEntityFactory@VCWpnSentry@@@@8 ; CEntityFactory<CWpnSentry>::`RTTI Base Class Array'
	DD	FLAT:??_R1A@?0A@EA@IEntityFactory@@8
rdata$r	ENDS
;	COMDAT ??_R3?$CEntityFactory@VCWpnSentry@@@@8
rdata$r	SEGMENT
??_R3?$CEntityFactory@VCWpnSentry@@@@8 DD 00H		; CEntityFactory<CWpnSentry>::`RTTI Class Hierarchy Descriptor'
	DD	00H
	DD	02H
	DD	FLAT:??_R2?$CEntityFactory@VCWpnSentry@@@@8
rdata$r	ENDS
;	COMDAT ??_R0?AV?$CEntityFactory@VCWpnSentry@@@@@8
data$r	SEGMENT
??_R0?AV?$CEntityFactory@VCWpnSentry@@@@@8 DD FLAT:??_7type_info@@6B@ ; CEntityFactory<CWpnSentry> `RTTI Type Descriptor'
	DD	00H
	DB	'.?AV?$CEntityFactory@VCWpnSentry@@@@', 00H
data$r	ENDS
;	COMDAT ??_R4?$CEntityFactory@VCWpnSentry@@@@6B@
rdata$r	SEGMENT
??_R4?$CEntityFactory@VCWpnSentry@@@@6B@ DD 00H		; CEntityFactory<CWpnSentry>::`RTTI Complete Object Locator'
	DD	00H
	DD	00H
	DD	FLAT:??_R0?AV?$CEntityFactory@VCWpnSentry@@@@@8
	DD	FLAT:??_R3?$CEntityFactory@VCWpnSentry@@@@8
rdata$r	ENDS
;	COMDAT ??_R1A@?0A@EA@CWpnSentry@@8
rdata$r	SEGMENT
??_R1A@?0A@EA@CWpnSentry@@8 DD FLAT:??_R0?AVCWpnSentry@@@8 ; CWpnSentry::`RTTI Base Class Descriptor at (0,-1,0,64)'
	DD	05H
	DD	00H
	DD	0ffffffffH
	DD	00H
	DD	040H
	DD	FLAT:??_R3CWpnSentry@@8
rdata$r	ENDS
;	COMDAT ??_R2CWpnSentry@@8
rdata$r	SEGMENT
??_R2CWpnSentry@@8 DD FLAT:??_R1A@?0A@EA@CWpnSentry@@8	; CWpnSentry::`RTTI Base Class Array'
	DD	FLAT:??_R1A@?0A@EA@CBasePlayerWeapon@@8
	DD	FLAT:??_R1A@?0A@EA@CBasePlayerItem@@8
	DD	FLAT:??_R1A@?0A@EA@CBaseAnimating@@8
	DD	FLAT:??_R1A@?0A@EA@CBaseDelay@@8
	DD	FLAT:??_R1A@?0A@EA@CBaseEntity@@8
rdata$r	ENDS
;	COMDAT ??_R3CWpnSentry@@8
rdata$r	SEGMENT
??_R3CWpnSentry@@8 DD 00H				; CWpnSentry::`RTTI Class Hierarchy Descriptor'
	DD	00H
	DD	06H
	DD	FLAT:??_R2CWpnSentry@@8
rdata$r	ENDS
;	COMDAT ??_R0?AVCWpnSentry@@@8
data$r	SEGMENT
??_R0?AVCWpnSentry@@@8 DD FLAT:??_7type_info@@6B@	; CWpnSentry `RTTI Type Descriptor'
	DD	00H
	DB	'.?AVCWpnSentry@@', 00H
data$r	ENDS
;	COMDAT ??_R4CWpnSentry@@6B@
rdata$r	SEGMENT
??_R4CWpnSentry@@6B@ DD 00H				; CWpnSentry::`RTTI Complete Object Locator'
	DD	00H
	DD	00H
	DD	FLAT:??_R0?AVCWpnSentry@@@8
	DD	FLAT:??_R3CWpnSentry@@8
rdata$r	ENDS
;	COMDAT ??_R1A@?0A@EA@CBasePlayerWeapon@@8
rdata$r	SEGMENT
??_R1A@?0A@EA@CBasePlayerWeapon@@8 DD FLAT:??_R0?AVCBasePlayerWeapon@@@8 ; CBasePlayerWeapon::`RTTI Base Class Descriptor at (0,-1,0,64)'
	DD	04H
	DD	00H
	DD	0ffffffffH
	DD	00H
	DD	040H
	DD	FLAT:??_R3CBasePlayerWeapon@@8
rdata$r	ENDS
;	COMDAT ??_R2CBasePlayerWeapon@@8
rdata$r	SEGMENT
??_R2CBasePlayerWeapon@@8 DD FLAT:??_R1A@?0A@EA@CBasePlayerWeapon@@8 ; CBasePlayerWeapon::`RTTI Base Class Array'
	DD	FLAT:??_R1A@?0A@EA@CBasePlayerItem@@8
	DD	FLAT:??_R1A@?0A@EA@CBaseAnimating@@8
	DD	FLAT:??_R1A@?0A@EA@CBaseDelay@@8
	DD	FLAT:??_R1A@?0A@EA@CBaseEntity@@8
rdata$r	ENDS
;	COMDAT ??_R3CBasePlayerWeapon@@8
rdata$r	SEGMENT
??_R3CBasePlayerWeapon@@8 DD 00H			; CBasePlayerWeapon::`RTTI Class Hierarchy Descriptor'
	DD	00H
	DD	05H
	DD	FLAT:??_R2CBasePlayerWeapon@@8
rdata$r	ENDS
;	COMDAT ??_R0?AVCBasePlayerWeapon@@@8
data$r	SEGMENT
??_R0?AVCBasePlayerWeapon@@@8 DD FLAT:??_7type_info@@6B@ ; CBasePlayerWeapon `RTTI Type Descriptor'
	DD	00H
	DB	'.?AVCBasePlayerWeapon@@', 00H
data$r	ENDS
;	COMDAT ??_R4CBasePlayerWeapon@@6B@
rdata$r	SEGMENT
??_R4CBasePlayerWeapon@@6B@ DD 00H			; CBasePlayerWeapon::`RTTI Complete Object Locator'
	DD	00H
	DD	00H
	DD	FLAT:??_R0?AVCBasePlayerWeapon@@@8
	DD	FLAT:??_R3CBasePlayerWeapon@@8
rdata$r	ENDS
;	COMDAT ??_R4CBaseAnimating@@6B@
rdata$r	SEGMENT
??_R4CBaseAnimating@@6B@ DD 00H				; CBaseAnimating::`RTTI Complete Object Locator'
	DD	00H
	DD	00H
	DD	FLAT:??_R0?AVCBaseAnimating@@@8
	DD	FLAT:??_R3CBaseAnimating@@8
rdata$r	ENDS
;	COMDAT ??_R4CBaseDelay@@6B@
rdata$r	SEGMENT
??_R4CBaseDelay@@6B@ DD 00H				; CBaseDelay::`RTTI Complete Object Locator'
	DD	00H
	DD	00H
	DD	FLAT:??_R0?AVCBaseDelay@@@8
	DD	FLAT:??_R3CBaseDelay@@8
rdata$r	ENDS
;	COMDAT ??_R2CBaseDelay@@8
rdata$r	SEGMENT
??_R2CBaseDelay@@8 DD FLAT:??_R1A@?0A@EA@CBaseDelay@@8	; CBaseDelay::`RTTI Base Class Array'
	DD	FLAT:??_R1A@?0A@EA@CBaseEntity@@8
rdata$r	ENDS
;	COMDAT ??_R3CBaseDelay@@8
rdata$r	SEGMENT
??_R3CBaseDelay@@8 DD 00H				; CBaseDelay::`RTTI Class Hierarchy Descriptor'
	DD	00H
	DD	02H
	DD	FLAT:??_R2CBaseDelay@@8
rdata$r	ENDS
;	COMDAT ??_R0?AVCBaseDelay@@@8
data$r	SEGMENT
??_R0?AVCBaseDelay@@@8 DD FLAT:??_7type_info@@6B@	; CBaseDelay `RTTI Type Descriptor'
	DD	00H
	DB	'.?AVCBaseDelay@@', 00H
data$r	ENDS
;	COMDAT ??_R1A@?0A@EA@CBaseDelay@@8
rdata$r	SEGMENT
??_R1A@?0A@EA@CBaseDelay@@8 DD FLAT:??_R0?AVCBaseDelay@@@8 ; CBaseDelay::`RTTI Base Class Descriptor at (0,-1,0,64)'
	DD	01H
	DD	00H
	DD	0ffffffffH
	DD	00H
	DD	040H
	DD	FLAT:??_R3CBaseDelay@@8
rdata$r	ENDS
;	COMDAT ??_R2CBaseAnimating@@8
rdata$r	SEGMENT
??_R2CBaseAnimating@@8 DD FLAT:??_R1A@?0A@EA@CBaseAnimating@@8 ; CBaseAnimating::`RTTI Base Class Array'
	DD	FLAT:??_R1A@?0A@EA@CBaseDelay@@8
	DD	FLAT:??_R1A@?0A@EA@CBaseEntity@@8
rdata$r	ENDS
;	COMDAT ??_R3CBaseAnimating@@8
rdata$r	SEGMENT
??_R3CBaseAnimating@@8 DD 00H				; CBaseAnimating::`RTTI Class Hierarchy Descriptor'
	DD	00H
	DD	03H
	DD	FLAT:??_R2CBaseAnimating@@8
rdata$r	ENDS
;	COMDAT ??_R0?AVCBaseAnimating@@@8
data$r	SEGMENT
??_R0?AVCBaseAnimating@@@8 DD FLAT:??_7type_info@@6B@	; CBaseAnimating `RTTI Type Descriptor'
	DD	00H
	DB	'.?AVCBaseAnimating@@', 00H
data$r	ENDS
;	COMDAT ??_R1A@?0A@EA@CBaseAnimating@@8
rdata$r	SEGMENT
??_R1A@?0A@EA@CBaseAnimating@@8 DD FLAT:??_R0?AVCBaseAnimating@@@8 ; CBaseAnimating::`RTTI Base Class Descriptor at (0,-1,0,64)'
	DD	02H
	DD	00H
	DD	0ffffffffH
	DD	00H
	DD	040H
	DD	FLAT:??_R3CBaseAnimating@@8
rdata$r	ENDS
;	COMDAT ??_R1A@?0A@EA@CBasePlayerItem@@8
rdata$r	SEGMENT
??_R1A@?0A@EA@CBasePlayerItem@@8 DD FLAT:??_R0?AVCBasePlayerItem@@@8 ; CBasePlayerItem::`RTTI Base Class Descriptor at (0,-1,0,64)'
	DD	03H
	DD	00H
	DD	0ffffffffH
	DD	00H
	DD	040H
	DD	FLAT:??_R3CBasePlayerItem@@8
rdata$r	ENDS
;	COMDAT ??_R2CBasePlayerItem@@8
rdata$r	SEGMENT
??_R2CBasePlayerItem@@8 DD FLAT:??_R1A@?0A@EA@CBasePlayerItem@@8 ; CBasePlayerItem::`RTTI Base Class Array'
	DD	FLAT:??_R1A@?0A@EA@CBaseAnimating@@8
	DD	FLAT:??_R1A@?0A@EA@CBaseDelay@@8
	DD	FLAT:??_R1A@?0A@EA@CBaseEntity@@8
rdata$r	ENDS
;	COMDAT ??_R3CBasePlayerItem@@8
rdata$r	SEGMENT
??_R3CBasePlayerItem@@8 DD 00H				; CBasePlayerItem::`RTTI Class Hierarchy Descriptor'
	DD	00H
	DD	04H
	DD	FLAT:??_R2CBasePlayerItem@@8
rdata$r	ENDS
;	COMDAT ??_R0?AVCBasePlayerItem@@@8
data$r	SEGMENT
??_R0?AVCBasePlayerItem@@@8 DD FLAT:??_7type_info@@6B@	; CBasePlayerItem `RTTI Type Descriptor'
	DD	00H
	DB	'.?AVCBasePlayerItem@@', 00H
data$r	ENDS
;	COMDAT ??_R4CBasePlayerItem@@6B@
rdata$r	SEGMENT
??_R4CBasePlayerItem@@6B@ DD 00H			; CBasePlayerItem::`RTTI Complete Object Locator'
	DD	00H
	DD	00H
	DD	FLAT:??_R0?AVCBasePlayerItem@@@8
	DD	FLAT:??_R3CBasePlayerItem@@8
rdata$r	ENDS
;	COMDAT ??_R1A@?0A@EA@IEntityFactory@@8
rdata$r	SEGMENT
??_R1A@?0A@EA@IEntityFactory@@8 DD FLAT:??_R0?AVIEntityFactory@@@8 ; IEntityFactory::`RTTI Base Class Descriptor at (0,-1,0,64)'
	DD	00H
	DD	00H
	DD	0ffffffffH
	DD	00H
	DD	040H
	DD	FLAT:??_R3IEntityFactory@@8
rdata$r	ENDS
;	COMDAT ??_R2IEntityFactory@@8
rdata$r	SEGMENT
??_R2IEntityFactory@@8 DD FLAT:??_R1A@?0A@EA@IEntityFactory@@8 ; IEntityFactory::`RTTI Base Class Array'
rdata$r	ENDS
;	COMDAT ??_R3IEntityFactory@@8
rdata$r	SEGMENT
??_R3IEntityFactory@@8 DD 00H				; IEntityFactory::`RTTI Class Hierarchy Descriptor'
	DD	00H
	DD	01H
	DD	FLAT:??_R2IEntityFactory@@8
rdata$r	ENDS
;	COMDAT ??_R0?AVIEntityFactory@@@8
data$r	SEGMENT
??_R0?AVIEntityFactory@@@8 DD FLAT:??_7type_info@@6B@	; IEntityFactory `RTTI Type Descriptor'
	DD	00H
	DB	'.?AVIEntityFactory@@', 00H
data$r	ENDS
;	COMDAT ??_R4IEntityFactory@@6B@
rdata$r	SEGMENT
??_R4IEntityFactory@@6B@ DD 00H				; IEntityFactory::`RTTI Complete Object Locator'
	DD	00H
	DD	00H
	DD	FLAT:??_R0?AVIEntityFactory@@@8
	DD	FLAT:??_R3IEntityFactory@@8
rdata$r	ENDS
;	COMDAT ??_R1A@?0A@EA@CBaseEntity@@8
rdata$r	SEGMENT
??_R1A@?0A@EA@CBaseEntity@@8 DD FLAT:??_R0?AVCBaseEntity@@@8 ; CBaseEntity::`RTTI Base Class Descriptor at (0,-1,0,64)'
	DD	00H
	DD	00H
	DD	0ffffffffH
	DD	00H
	DD	040H
	DD	FLAT:??_R3CBaseEntity@@8
rdata$r	ENDS
;	COMDAT ??_R2CBaseEntity@@8
rdata$r	SEGMENT
??_R2CBaseEntity@@8 DD FLAT:??_R1A@?0A@EA@CBaseEntity@@8 ; CBaseEntity::`RTTI Base Class Array'
rdata$r	ENDS
;	COMDAT ??_R3CBaseEntity@@8
rdata$r	SEGMENT
??_R3CBaseEntity@@8 DD 00H				; CBaseEntity::`RTTI Class Hierarchy Descriptor'
	DD	00H
	DD	01H
	DD	FLAT:??_R2CBaseEntity@@8
rdata$r	ENDS
;	COMDAT ??_R0?AVCBaseEntity@@@8
data$r	SEGMENT
??_R0?AVCBaseEntity@@@8 DD FLAT:??_7type_info@@6B@	; CBaseEntity `RTTI Type Descriptor'
	DD	00H
	DB	'.?AVCBaseEntity@@', 00H
data$r	ENDS
;	COMDAT ??_R4CBaseEntity@@6B@
rdata$r	SEGMENT
??_R4CBaseEntity@@6B@ DD 00H				; CBaseEntity::`RTTI Complete Object Locator'
	DD	00H
	DD	00H
	DD	FLAT:??_R0?AVCBaseEntity@@@8
	DD	FLAT:??_R3CBaseEntity@@8
rdata$r	ENDS
;	COMDAT ??_C@_1BM@CKILBAKK@?$AAI?$AAs?$AAI?$AAd?$AAx?$AAV?$AAa?$AAl?$AAi?$AAd?$AA?$CI?$AAi?$AA?$CJ?$AA?$AA@
CONST	SEGMENT
??_C@_1BM@CKILBAKK@?$AAI?$AAs?$AAI?$AAd?$AAx?$AAV?$AAa?$AAl?$AAi?$AAd?$AA?$CI?$AAi?$AA?$CJ?$AA?$AA@ DB 'I'
	DB	00H, 's', 00H, 'I', 00H, 'd', 00H, 'x', 00H, 'V', 00H, 'a', 00H
	DB	'l', 00H, 'i', 00H, 'd', 00H, '(', 00H, 'i', 00H, ')', 00H, 00H
	DB	00H						; `string'
CONST	ENDS
;	COMDAT ??_C@_1BM@PFNFCCHH@?$AA?$CB?$AAI?$AAs?$AAR?$AAe?$AAa?$AAd?$AAO?$AAn?$AAl?$AAy?$AA?$CI?$AA?$CJ?$AA?$AA@
CONST	SEGMENT
??_C@_1BM@PFNFCCHH@?$AA?$CB?$AAI?$AAs?$AAR?$AAe?$AAa?$AAd?$AAO?$AAn?$AAl?$AAy?$AA?$CI?$AA?$CJ?$AA?$AA@ DB '!'
	DB	00H, 'I', 00H, 's', 00H, 'R', 00H, 'e', 00H, 'a', 00H, 'd', 00H
	DB	'O', 00H, 'n', 00H, 'l', 00H, 'y', 00H, '(', 00H, ')', 00H, 00H
	DB	00H						; `string'
CONST	ENDS
;	COMDAT ??_C@_1BO@FOOHAONO@?$AAn?$AAG?$AAr?$AAo?$AAw?$AAS?$AAi?$AAz?$AAe?$AA?5?$AA?$DO?$AA?$DN?$AA?5?$AA0?$AA?$AA@
CONST	SEGMENT
??_C@_1BO@FOOHAONO@?$AAn?$AAG?$AAr?$AAo?$AAw?$AAS?$AAi?$AAz?$AAe?$AA?5?$AA?$DO?$AA?$DN?$AA?5?$AA0?$AA?$AA@ DB 'n'
	DB	00H, 'G', 00H, 'r', 00H, 'o', 00H, 'w', 00H, 'S', 00H, 'i', 00H
	DB	'z', 00H, 'e', 00H, ' ', 00H, '>', 00H, '=', 00H, ' ', 00H, '0'
	DB	00H, 00H, 00H				; `string'
CONST	ENDS
;	COMDAT ??_C@_1JE@CIIIAKCN@?$AAd?$AA?3?$AA?2?$AA?$CB?$AAd?$AAi?$AAf?$AAf?$AAu?$AAs?$AAi?$AAo?$AAn?$AA?5?$AA2?$AA0?$AA2?$AA0?$AA?2?$AAs?$AAo?$AAu?$AAr?$AAc?$AAe?$AA?5?$AAc?$AAo?$AAd?$AAe?$AA?5?$AA2@
CONST	SEGMENT
??_C@_1JE@CIIIAKCN@?$AAd?$AA?3?$AA?2?$AA?$CB?$AAd?$AAi?$AAf?$AAf?$AAu?$AAs?$AAi?$AAo?$AAn?$AA?5?$AA2?$AA0?$AA2?$AA0?$AA?2?$AAs?$AAo?$AAu?$AAr?$AAc?$AAe?$AA?5?$AAc?$AAo?$AAd?$AAe?$AA?5?$AA2@ DB 'd'
	DB	00H, ':', 00H, '\', 00H, '!', 00H, 'd', 00H, 'i', 00H, 'f', 00H
	DB	'f', 00H, 'u', 00H, 's', 00H, 'i', 00H, 'o', 00H, 'n', 00H, ' '
	DB	00H, '2', 00H, '0', 00H, '2', 00H, '0', 00H, '\', 00H, 's', 00H
	DB	'o', 00H, 'u', 00H, 'r', 00H, 'c', 00H, 'e', 00H, ' ', 00H, 'c'
	DB	00H, 'o', 00H, 'd', 00H, 'e', 00H, ' ', 00H, '2', 00H, '0', 00H
	DB	'2', 00H, '2', 00H, '\', 00H, 'c', 00H, 'l', 00H, 'i', 00H, 'e'
	DB	00H, 'n', 00H, 't', 00H, '-', 00H, 's', 00H, 'e', 00H, 'r', 00H
	DB	'v', 00H, 'e', 00H, 'r', 00H, '\', 00H, 'g', 00H, 'a', 00H, 'm'
	DB	00H, 'e', 00H, '_', 00H, 's', 00H, 'h', 00H, 'a', 00H, 'r', 00H
	DB	'e', 00H, 'd', 00H, '\', 00H, 'u', 00H, 't', 00H, 'l', 00H, 'm'
	DB	00H, 'e', 00H, 'm', 00H, 'o', 00H, 'r', 00H, 'y', 00H, '.', 00H
	DB	'h', 00H, 00H, 00H				; `string'
CONST	ENDS
;	COMDAT ??_C@_0BC@OENNHJAA@models?1sentry?4mdl?$AA@
CONST	SEGMENT
??_C@_0BC@OENNHJAA@models?1sentry?4mdl?$AA@ DB 'models/sentry.mdl', 00H ; `string'
CONST	ENDS
;	COMDAT ??_C@_0M@BLHFOIPE@info_target?$AA@
CONST	SEGMENT
??_C@_0M@BLHFOIPE@info_target?$AA@ DB 'info_target', 00H ; `string'
CONST	ENDS
;	COMDAT ??_C@_0P@IOODMMBP@UTIL_CANTSPAWN?$AA@
CONST	SEGMENT
??_C@_0P@IOODMMBP@UTIL_CANTSPAWN?$AA@ DB 'UTIL_CANTSPAWN', 00H ; `string'
CONST	ENDS
;	COMDAT ??_C@_08MNDBFPDE@?9attack?6?$AA@
CONST	SEGMENT
??_C@_08MNDBFPDE@?9attack?6?$AA@ DB '-attack', 0aH, 00H	; `string'
CONST	ENDS
;	COMDAT ??_C@_04JMIAKPKD@trip?$AA@
CONST	SEGMENT
??_C@_04JMIAKPKD@trip?$AA@ DB 'trip', 00H		; `string'
CONST	ENDS
;	COMDAT ??_C@_06IMPNPELI@sentry?$AA@
CONST	SEGMENT
??_C@_06IMPNPELI@sentry?$AA@ DB 'sentry', 00H		; `string'
CONST	ENDS
;	COMDAT ??_C@_0O@EFJOMFML@_playersentry?$AA@
CONST	SEGMENT
??_C@_0O@EFJOMFML@_playersentry?$AA@ DB '_playersentry', 00H ; `string'
CONST	ENDS
;	COMDAT ??_C@_0BE@EGKJPLNE@models?1p_sentry?4mdl?$AA@
CONST	SEGMENT
??_C@_0BE@EGKJPLNE@models?1p_sentry?4mdl?$AA@ DB 'models/p_sentry.mdl', 00H ; `string'
CONST	ENDS
;	COMDAT ??_C@_0BE@OGEMCEAJ@models?1v_sentry?4mdl?$AA@
CONST	SEGMENT
??_C@_0BE@OGEMCEAJ@models?1v_sentry?4mdl?$AA@ DB 'models/v_sentry.mdl', 00H ; `string'
CONST	ENDS
;	COMDAT ??_C@_0BE@DLNKPNIM@models?1w_sentry?4mdl?$AA@
CONST	SEGMENT
??_C@_0BE@DLNKPNIM@models?1w_sentry?4mdl?$AA@ DB 'models/w_sentry.mdl', 00H ; `string'
CONST	ENDS
;	COMDAT ??_C@_0O@CJMKLEPM@weapon_sentry?$AA@
CONST	SEGMENT
??_C@_0O@CJMKLEPM@weapon_sentry?$AA@ DB 'weapon_sentry', 00H ; `string'
CONST	ENDS
;	COMDAT ??_7?$CEntityFactory@VCWpnSentry@@@@6B@
CONST	SEGMENT
??_7?$CEntityFactory@VCWpnSentry@@@@6B@ DD FLAT:??_R4?$CEntityFactory@VCWpnSentry@@@@6B@ ; CEntityFactory<CWpnSentry>::`vftable'
	DD	FLAT:?Create@?$CEntityFactory@VCWpnSentry@@@@UAEPAVCBaseEntity@@PBDPAUentvars_s@@@Z
	DD	FLAT:?Destroy@?$CEntityFactory@VCWpnSentry@@@@UAEXPAVCBaseEntity@@@Z
	DD	FLAT:?GetEntitySize@?$CEntityFactory@VCWpnSentry@@@@UAEIXZ
CONST	ENDS
;	COMDAT ??_7CWpnSentry@@6B@
CONST	SEGMENT
??_7CWpnSentry@@6B@ DD FLAT:??_R4CWpnSentry@@6B@	; CWpnSentry::`vftable'
	DD	FLAT:?GetDataDescMap@CWpnSentry@@UAEPAUdatamap_s@@XZ
	DD	FLAT:?Spawn@CWpnSentry@@UAEXXZ
	DD	FLAT:?Precache@CWpnSentry@@UAEXXZ
	DD	FLAT:?KeyValue@CBaseDelay@@UAEXPAUKeyValueData_s@@@Z
	DD	FLAT:?Save@CBaseEntity@@UAEHAAVCSave@@@Z
	DD	FLAT:?Restore@CBaseEntity@@UAEHAAVCRestore@@@Z
	DD	FLAT:?ObjectCaps@CBaseEntity@@UAEHXZ
	DD	FLAT:?Activate@CBaseEntity@@UAEXXZ
	DD	FLAT:?OnChangeLevel@CBaseEntity@@UAEXXZ
	DD	FLAT:?OnTeleport@CBaseEntity@@UAEXXZ
	DD	FLAT:?PortalSleep@CBaseEntity@@UAEXM@Z
	DD	FLAT:?StartMessage@CBaseEntity@@UAEXPAVCBasePlayer@@@Z
	DD	FLAT:?GetPosition@CBaseEntity@@UAEMXZ
	DD	FLAT:?OnChangeParent@CBaseEntity@@UAEXXZ
	DD	FLAT:?OnClearParent@CBaseEntity@@UAEXXZ
	DD	FLAT:?OnRemove@CBaseEntity@@UAEXXZ
	DD	FLAT:?SetObjectCollisionBox@CBasePlayerItem@@UAEXXZ
	DD	FLAT:?Classify@CBaseEntity@@UAEHXZ
	DD	FLAT:?DeathNotice@CBaseEntity@@UAEXPAUentvars_s@@@Z
	DD	FLAT:?IsRigidBody@CBaseEntity@@UAEHXZ
	DD	FLAT:?SetNextThink@CBaseEntity@@UAEXM@Z
	DD	FLAT:?GetState@CBaseEntity@@UAE?AW4STATE@@PAV1@@Z
	DD	FLAT:?GetState@CBaseDelay@@UAE?AW4STATE@@XZ
	DD	FLAT:?TraceAttack@CBaseEntity@@UAEXPAUentvars_s@@MVVector@@PAUgametrace_s@@H@Z
	DD	FLAT:?TakeDamage@CBaseEntity@@UAEHPAUentvars_s@@0MH@Z
	DD	FLAT:?TakeHealth@CBaseEntity@@UAEHMH@Z
	DD	FLAT:?TakeArmor@CBaseEntity@@UAEHMH@Z
	DD	FLAT:?Killed@CBaseEntity@@UAEXPAUentvars_s@@H@Z
	DD	FLAT:?BloodColor@CBaseEntity@@UAEHXZ
	DD	FLAT:?TraceBleed@CBaseEntity@@UAEXMVVector@@PAUgametrace_s@@H@Z
	DD	FLAT:?IsTriggered@CBaseEntity@@UAEHPAV1@@Z
	DD	FLAT:?MyMonsterPointer@CBaseEntity@@UAEPAVCBaseMonster@@XZ
	DD	FLAT:?MySquadMonsterPointer@CBaseEntity@@UAEPAVCSquadMonster@@XZ
	DD	FLAT:?GetToggleState@CBaseEntity@@UAEHXZ
	DD	FLAT:?AddPoints@CBaseEntity@@UAEXHH@Z
	DD	FLAT:?AddPointsToTeam@CBaseEntity@@UAEXHH@Z
	DD	FLAT:?AddPlayerItem@CBaseEntity@@UAEHPAVCBasePlayerItem@@@Z
	DD	FLAT:?RemovePlayerItem@CBaseEntity@@UAEHPAVCBasePlayerItem@@@Z
	DD	FLAT:?GiveAmmo@CBaseEntity@@UAEHHPADH@Z
	DD	FLAT:?GetDelay@CBaseEntity@@UAEMXZ
	DD	FLAT:?IsMoving@CBaseEntity@@UAEHXZ
	DD	FLAT:?OverrideReset@CBaseEntity@@UAEXXZ
	DD	FLAT:?TransferReset@CBaseEntity@@UAEXXZ
	DD	FLAT:?DamageDecal@CBaseEntity@@UAEHH@Z
	DD	FLAT:?SetToggleState@CBaseEntity@@UAEXH@Z
	DD	FLAT:?StartSneaking@CBaseEntity@@UAEXXZ
	DD	FLAT:?StopSneaking@CBaseEntity@@UAEXXZ
	DD	FLAT:?OnControls@CBaseEntity@@UAEHPAV1@@Z
	DD	FLAT:?IsSneaking@CBaseEntity@@UAEHXZ
	DD	FLAT:?IsAlive@CBaseEntity@@UAEHXZ
	DD	FLAT:?IsBSPModel@CBaseEntity@@UAEHXZ
	DD	FLAT:?IsCustomModel@CBaseEntity@@UAEHXZ
	DD	FLAT:?ReflectGauss@CBaseEntity@@UAEHXZ
	DD	FLAT:?HasTarget@CBaseEntity@@UAEHH@Z
	DD	FLAT:?IsInWorld@CBaseEntity@@UAEHH@Z
	DD	FLAT:?IsPlayer@CBaseEntity@@UAEHXZ
	DD	FLAT:?IsNetClient@CBaseEntity@@UAEHXZ
	DD	FLAT:?IsMonster@CBaseEntity@@UAEHXZ
	DD	FLAT:?IsPushable@CBaseEntity@@UAEHXZ
	DD	FLAT:?IsProjectile@CBaseEntity@@UAEHXZ
	DD	FLAT:?IsFuncScreen@CBaseEntity@@UAEHXZ
	DD	FLAT:?IsPortal@CBaseEntity@@UAEHXZ
	DD	FLAT:?IsTank@CBaseEntity@@UAEHXZ
	DD	FLAT:?IsMover@CBaseEntity@@UAEHXZ
	DD	FLAT:?IsBreakable@CBaseEntity@@UAEHXZ
	DD	FLAT:?TeamID@CBaseEntity@@UAEPBDXZ
	DD	FLAT:?AddSpawnFlags@CBaseEntity@@UAEXH@Z
	DD	FLAT:?HasSpawnFlags@CBaseEntity@@UBE_NH@Z
	DD	FLAT:?SetFadeDistance@CBaseEntity@@UAEXH@Z
	DD	FLAT:?SetFlag@CBaseEntity@@UAEXH@Z
	DD	FLAT:?HasFlag@CBaseEntity@@UBE_NH@Z
	DD	FLAT:?RemoveFlag@CBaseEntity@@UAEXH@Z
	DD	FLAT:?SetNullModel@CBaseEntity@@UAEXXZ
	DD	FLAT:?OnPickupObject@CBaseEntity@@UAEXXZ
	DD	FLAT:?OnDropObject@CBaseEntity@@UAEXXZ
	DD	FLAT:?GetNextTarget@CBaseEntity@@UAEPAV1@XZ
	DD	FLAT:?Think@CBaseEntity@@UAEXXZ
	DD	FLAT:?Use@CBaseEntity@@UAEXPAV1@0W4USE_TYPE@@M@Z
	DD	FLAT:?Touch@CBaseEntity@@UAEXPAV1@@Z
	DD	FLAT:?Blocked@CBaseEntity@@UAEXPAV1@@Z
	DD	FLAT:?MoveDone@CBaseEntity@@UAEXXZ
	DD	FLAT:?Respawn@CBasePlayerItem@@UAEPAVCBaseEntity@@XZ
	DD	FLAT:?UpdateOwner@CBaseEntity@@UAEXXZ
	DD	FLAT:?FBecomeProne@CBaseEntity@@UAEHXZ
	DD	FLAT:?Center@CBaseEntity@@UAE?AVVector@@XZ
	DD	FLAT:?EyePosition@CBaseEntity@@UAE?AVVector@@XZ
	DD	FLAT:?EarPosition@CBaseEntity@@UAE?AVVector@@XZ
	DD	FLAT:?BodyTarget@CBaseEntity@@UAE?AVVector@@ABV2@@Z
	DD	FLAT:?IsPointSized@CBaseEntity@@UBEHXZ
	DD	FLAT:?Illumination@CBaseEntity@@UAEHXZ
	DD	FLAT:?FVisible@CBaseEntity@@UAEHABVVector@@@Z
	DD	FLAT:?FVisible@CBaseEntity@@UAEHPAV1@@Z
	DD	FLAT:?ShouldCollide@CBaseEntity@@UAEHPAV1@@Z
	DD	FLAT:?ClearEffects@CBaseEntity@@UAEXXZ
	DD	FLAT:?HandleAnimEvent@CBaseAnimating@@UAEXPAUMonsterEvent_t@@@Z
	DD	FLAT:?AddToPlayer@CWpnSentry@@UAEHPAVCBasePlayer@@@Z
	DD	FLAT:?AddDuplicate@CBasePlayerWeapon@@UAEHPAVCBasePlayerItem@@@Z
	DD	FLAT:?GetItemInfo@CWpnSentry@@UAEHPAUItemInfo@@@Z
	DD	FLAT:?CanDeploy@CBasePlayerWeapon@@UAEHXZ
	DD	FLAT:?Deploy@CWpnSentry@@UAEHXZ
	DD	FLAT:?CanHolster@CBasePlayerItem@@UAEHXZ
	DD	FLAT:?Holster@CWpnSentry@@UAEXXZ
	DD	FLAT:?UpdateItemInfo@CBasePlayerWeapon@@UAEXXZ
	DD	FLAT:?ItemPreFrame@CBasePlayerItem@@UAEXXZ
	DD	FLAT:?ItemPostFrame@CBasePlayerWeapon@@UAEXXZ
	DD	FLAT:?Drop@CBasePlayerItem@@UAEXXZ
	DD	FLAT:?Kill@CBasePlayerItem@@UAEXXZ
	DD	FLAT:?AttachToPlayer@CBasePlayerItem@@UAEXPAVCBasePlayer@@@Z
	DD	FLAT:?PrimaryAmmoIndex@CBasePlayerWeapon@@UAEHXZ
	DD	FLAT:?SecondaryAmmoIndex@CBasePlayerWeapon@@UAEHXZ
	DD	FLAT:?UpdateClientData@CBasePlayerWeapon@@UAEHPAVCBasePlayer@@@Z
	DD	FLAT:?GetWeaponPtr@CBasePlayerWeapon@@UAEPAVCBasePlayerItem@@XZ
	DD	FLAT:?iItemSlot@CWpnSentry@@UAEHXZ
	DD	FLAT:?ExtractAmmo@CBasePlayerWeapon@@UAEHPAV1@@Z
	DD	FLAT:?ExtractClipAmmo@CBasePlayerWeapon@@UAEHPAV1@@Z
	DD	FLAT:?AddWeapon@CBasePlayerWeapon@@UAEHXZ
	DD	FLAT:?PlayEmptySound@CBasePlayerWeapon@@UAEHXZ
	DD	FLAT:?ResetEmptySound@CBasePlayerWeapon@@UAEXXZ
	DD	FLAT:?SendWeaponAnim@CBasePlayerWeapon@@UAEXHHH@Z
	DD	FLAT:?IsUseable@CBasePlayerWeapon@@UAEHXZ
	DD	FLAT:?PrimaryAttack@CWpnSentry@@UAEXXZ
	DD	FLAT:?SecondaryAttack@CWpnSentry@@UAEXXZ
	DD	FLAT:?Reload@CBasePlayerWeapon@@UAEXXZ
	DD	FLAT:?WeaponIdle@CWpnSentry@@UAEXXZ
	DD	FLAT:?RetireWeapon@CBasePlayerWeapon@@UAEXXZ
	DD	FLAT:?ShouldWeaponIdle@CBasePlayerWeapon@@UAEHXZ
	DD	FLAT:?UseDecrement@CBasePlayerWeapon@@UAEHXZ
	DD	FLAT:?LowAmmoMsg@CBasePlayerWeapon@@UAEXPAVCBasePlayer@@@Z
CONST	ENDS
;	COMDAT ??_7CBasePlayerWeapon@@6B@
CONST	SEGMENT
??_7CBasePlayerWeapon@@6B@ DD FLAT:??_R4CBasePlayerWeapon@@6B@ ; CBasePlayerWeapon::`vftable'
	DD	FLAT:?GetDataDescMap@CBasePlayerWeapon@@UAEPAUdatamap_s@@XZ
	DD	FLAT:?Spawn@CBaseEntity@@UAEXXZ
	DD	FLAT:?Precache@CBaseEntity@@UAEXXZ
	DD	FLAT:?KeyValue@CBaseDelay@@UAEXPAUKeyValueData_s@@@Z
	DD	FLAT:?Save@CBaseEntity@@UAEHAAVCSave@@@Z
	DD	FLAT:?Restore@CBaseEntity@@UAEHAAVCRestore@@@Z
	DD	FLAT:?ObjectCaps@CBaseEntity@@UAEHXZ
	DD	FLAT:?Activate@CBaseEntity@@UAEXXZ
	DD	FLAT:?OnChangeLevel@CBaseEntity@@UAEXXZ
	DD	FLAT:?OnTeleport@CBaseEntity@@UAEXXZ
	DD	FLAT:?PortalSleep@CBaseEntity@@UAEXM@Z
	DD	FLAT:?StartMessage@CBaseEntity@@UAEXPAVCBasePlayer@@@Z
	DD	FLAT:?GetPosition@CBaseEntity@@UAEMXZ
	DD	FLAT:?OnChangeParent@CBaseEntity@@UAEXXZ
	DD	FLAT:?OnClearParent@CBaseEntity@@UAEXXZ
	DD	FLAT:?OnRemove@CBaseEntity@@UAEXXZ
	DD	FLAT:?SetObjectCollisionBox@CBasePlayerItem@@UAEXXZ
	DD	FLAT:?Classify@CBaseEntity@@UAEHXZ
	DD	FLAT:?DeathNotice@CBaseEntity@@UAEXPAUentvars_s@@@Z
	DD	FLAT:?IsRigidBody@CBaseEntity@@UAEHXZ
	DD	FLAT:?SetNextThink@CBaseEntity@@UAEXM@Z
	DD	FLAT:?GetState@CBaseEntity@@UAE?AW4STATE@@PAV1@@Z
	DD	FLAT:?GetState@CBaseDelay@@UAE?AW4STATE@@XZ
	DD	FLAT:?TraceAttack@CBaseEntity@@UAEXPAUentvars_s@@MVVector@@PAUgametrace_s@@H@Z
	DD	FLAT:?TakeDamage@CBaseEntity@@UAEHPAUentvars_s@@0MH@Z
	DD	FLAT:?TakeHealth@CBaseEntity@@UAEHMH@Z
	DD	FLAT:?TakeArmor@CBaseEntity@@UAEHMH@Z
	DD	FLAT:?Killed@CBaseEntity@@UAEXPAUentvars_s@@H@Z
	DD	FLAT:?BloodColor@CBaseEntity@@UAEHXZ
	DD	FLAT:?TraceBleed@CBaseEntity@@UAEXMVVector@@PAUgametrace_s@@H@Z
	DD	FLAT:?IsTriggered@CBaseEntity@@UAEHPAV1@@Z
	DD	FLAT:?MyMonsterPointer@CBaseEntity@@UAEPAVCBaseMonster@@XZ
	DD	FLAT:?MySquadMonsterPointer@CBaseEntity@@UAEPAVCSquadMonster@@XZ
	DD	FLAT:?GetToggleState@CBaseEntity@@UAEHXZ
	DD	FLAT:?AddPoints@CBaseEntity@@UAEXHH@Z
	DD	FLAT:?AddPointsToTeam@CBaseEntity@@UAEXHH@Z
	DD	FLAT:?AddPlayerItem@CBaseEntity@@UAEHPAVCBasePlayerItem@@@Z
	DD	FLAT:?RemovePlayerItem@CBaseEntity@@UAEHPAVCBasePlayerItem@@@Z
	DD	FLAT:?GiveAmmo@CBaseEntity@@UAEHHPADH@Z
	DD	FLAT:?GetDelay@CBaseEntity@@UAEMXZ
	DD	FLAT:?IsMoving@CBaseEntity@@UAEHXZ
	DD	FLAT:?OverrideReset@CBaseEntity@@UAEXXZ
	DD	FLAT:?TransferReset@CBaseEntity@@UAEXXZ
	DD	FLAT:?DamageDecal@CBaseEntity@@UAEHH@Z
	DD	FLAT:?SetToggleState@CBaseEntity@@UAEXH@Z
	DD	FLAT:?StartSneaking@CBaseEntity@@UAEXXZ
	DD	FLAT:?StopSneaking@CBaseEntity@@UAEXXZ
	DD	FLAT:?OnControls@CBaseEntity@@UAEHPAV1@@Z
	DD	FLAT:?IsSneaking@CBaseEntity@@UAEHXZ
	DD	FLAT:?IsAlive@CBaseEntity@@UAEHXZ
	DD	FLAT:?IsBSPModel@CBaseEntity@@UAEHXZ
	DD	FLAT:?IsCustomModel@CBaseEntity@@UAEHXZ
	DD	FLAT:?ReflectGauss@CBaseEntity@@UAEHXZ
	DD	FLAT:?HasTarget@CBaseEntity@@UAEHH@Z
	DD	FLAT:?IsInWorld@CBaseEntity@@UAEHH@Z
	DD	FLAT:?IsPlayer@CBaseEntity@@UAEHXZ
	DD	FLAT:?IsNetClient@CBaseEntity@@UAEHXZ
	DD	FLAT:?IsMonster@CBaseEntity@@UAEHXZ
	DD	FLAT:?IsPushable@CBaseEntity@@UAEHXZ
	DD	FLAT:?IsProjectile@CBaseEntity@@UAEHXZ
	DD	FLAT:?IsFuncScreen@CBaseEntity@@UAEHXZ
	DD	FLAT:?IsPortal@CBaseEntity@@UAEHXZ
	DD	FLAT:?IsTank@CBaseEntity@@UAEHXZ
	DD	FLAT:?IsMover@CBaseEntity@@UAEHXZ
	DD	FLAT:?IsBreakable@CBaseEntity@@UAEHXZ
	DD	FLAT:?TeamID@CBaseEntity@@UAEPBDXZ
	DD	FLAT:?AddSpawnFlags@CBaseEntity@@UAEXH@Z
	DD	FLAT:?HasSpawnFlags@CBaseEntity@@UBE_NH@Z
	DD	FLAT:?SetFadeDistance@CBaseEntity@@UAEXH@Z
	DD	FLAT:?SetFlag@CBaseEntity@@UAEXH@Z
	DD	FLAT:?HasFlag@CBaseEntity@@UBE_NH@Z
	DD	FLAT:?RemoveFlag@CBaseEntity@@UAEXH@Z
	DD	FLAT:?SetNullModel@CBaseEntity@@UAEXXZ
	DD	FLAT:?OnPickupObject@CBaseEntity@@UAEXXZ
	DD	FLAT:?OnDropObject@CBaseEntity@@UAEXXZ
	DD	FLAT:?GetNextTarget@CBaseEntity@@UAEPAV1@XZ
	DD	FLAT:?Think@CBaseEntity@@UAEXXZ
	DD	FLAT:?Use@CBaseEntity@@UAEXPAV1@0W4USE_TYPE@@M@Z
	DD	FLAT:?Touch@CBaseEntity@@UAEXPAV1@@Z
	DD	FLAT:?Blocked@CBaseEntity@@UAEXPAV1@@Z
	DD	FLAT:?MoveDone@CBaseEntity@@UAEXXZ
	DD	FLAT:?Respawn@CBasePlayerItem@@UAEPAVCBaseEntity@@XZ
	DD	FLAT:?UpdateOwner@CBaseEntity@@UAEXXZ
	DD	FLAT:?FBecomeProne@CBaseEntity@@UAEHXZ
	DD	FLAT:?Center@CBaseEntity@@UAE?AVVector@@XZ
	DD	FLAT:?EyePosition@CBaseEntity@@UAE?AVVector@@XZ
	DD	FLAT:?EarPosition@CBaseEntity@@UAE?AVVector@@XZ
	DD	FLAT:?BodyTarget@CBaseEntity@@UAE?AVVector@@ABV2@@Z
	DD	FLAT:?IsPointSized@CBaseEntity@@UBEHXZ
	DD	FLAT:?Illumination@CBaseEntity@@UAEHXZ
	DD	FLAT:?FVisible@CBaseEntity@@UAEHABVVector@@@Z
	DD	FLAT:?FVisible@CBaseEntity@@UAEHPAV1@@Z
	DD	FLAT:?ShouldCollide@CBaseEntity@@UAEHPAV1@@Z
	DD	FLAT:?ClearEffects@CBaseEntity@@UAEXXZ
	DD	FLAT:?HandleAnimEvent@CBaseAnimating@@UAEXPAUMonsterEvent_t@@@Z
	DD	FLAT:?AddToPlayer@CBasePlayerWeapon@@UAEHPAVCBasePlayer@@@Z
	DD	FLAT:?AddDuplicate@CBasePlayerWeapon@@UAEHPAVCBasePlayerItem@@@Z
	DD	FLAT:?GetItemInfo@CBasePlayerItem@@UAEHPAUItemInfo@@@Z
	DD	FLAT:?CanDeploy@CBasePlayerWeapon@@UAEHXZ
	DD	FLAT:?Deploy@CBasePlayerItem@@UAEHXZ
	DD	FLAT:?CanHolster@CBasePlayerItem@@UAEHXZ
	DD	FLAT:?Holster@CBasePlayerWeapon@@UAEXXZ
	DD	FLAT:?UpdateItemInfo@CBasePlayerWeapon@@UAEXXZ
	DD	FLAT:?ItemPreFrame@CBasePlayerItem@@UAEXXZ
	DD	FLAT:?ItemPostFrame@CBasePlayerWeapon@@UAEXXZ
	DD	FLAT:?Drop@CBasePlayerItem@@UAEXXZ
	DD	FLAT:?Kill@CBasePlayerItem@@UAEXXZ
	DD	FLAT:?AttachToPlayer@CBasePlayerItem@@UAEXPAVCBasePlayer@@@Z
	DD	FLAT:?PrimaryAmmoIndex@CBasePlayerWeapon@@UAEHXZ
	DD	FLAT:?SecondaryAmmoIndex@CBasePlayerWeapon@@UAEHXZ
	DD	FLAT:?UpdateClientData@CBasePlayerWeapon@@UAEHPAVCBasePlayer@@@Z
	DD	FLAT:?GetWeaponPtr@CBasePlayerWeapon@@UAEPAVCBasePlayerItem@@XZ
	DD	FLAT:?iItemSlot@CBasePlayerItem@@UAEHXZ
	DD	FLAT:?ExtractAmmo@CBasePlayerWeapon@@UAEHPAV1@@Z
	DD	FLAT:?ExtractClipAmmo@CBasePlayerWeapon@@UAEHPAV1@@Z
	DD	FLAT:?AddWeapon@CBasePlayerWeapon@@UAEHXZ
	DD	FLAT:?PlayEmptySound@CBasePlayerWeapon@@UAEHXZ
	DD	FLAT:?ResetEmptySound@CBasePlayerWeapon@@UAEXXZ
	DD	FLAT:?SendWeaponAnim@CBasePlayerWeapon@@UAEXHHH@Z
	DD	FLAT:?IsUseable@CBasePlayerWeapon@@UAEHXZ
	DD	FLAT:?PrimaryAttack@CBasePlayerWeapon@@UAEXXZ
	DD	FLAT:?SecondaryAttack@CBasePlayerWeapon@@UAEXXZ
	DD	FLAT:?Reload@CBasePlayerWeapon@@UAEXXZ
	DD	FLAT:?WeaponIdle@CBasePlayerWeapon@@UAEXXZ
	DD	FLAT:?RetireWeapon@CBasePlayerWeapon@@UAEXXZ
	DD	FLAT:?ShouldWeaponIdle@CBasePlayerWeapon@@UAEHXZ
	DD	FLAT:?UseDecrement@CBasePlayerWeapon@@UAEHXZ
	DD	FLAT:?LowAmmoMsg@CBasePlayerWeapon@@UAEXPAVCBasePlayer@@@Z
CONST	ENDS
;	COMDAT ??_7CBasePlayerItem@@6B@
CONST	SEGMENT
??_7CBasePlayerItem@@6B@ DD FLAT:??_R4CBasePlayerItem@@6B@ ; CBasePlayerItem::`vftable'
	DD	FLAT:?GetDataDescMap@CBasePlayerItem@@UAEPAUdatamap_s@@XZ
	DD	FLAT:?Spawn@CBaseEntity@@UAEXXZ
	DD	FLAT:?Precache@CBaseEntity@@UAEXXZ
	DD	FLAT:?KeyValue@CBaseDelay@@UAEXPAUKeyValueData_s@@@Z
	DD	FLAT:?Save@CBaseEntity@@UAEHAAVCSave@@@Z
	DD	FLAT:?Restore@CBaseEntity@@UAEHAAVCRestore@@@Z
	DD	FLAT:?ObjectCaps@CBaseEntity@@UAEHXZ
	DD	FLAT:?Activate@CBaseEntity@@UAEXXZ
	DD	FLAT:?OnChangeLevel@CBaseEntity@@UAEXXZ
	DD	FLAT:?OnTeleport@CBaseEntity@@UAEXXZ
	DD	FLAT:?PortalSleep@CBaseEntity@@UAEXM@Z
	DD	FLAT:?StartMessage@CBaseEntity@@UAEXPAVCBasePlayer@@@Z
	DD	FLAT:?GetPosition@CBaseEntity@@UAEMXZ
	DD	FLAT:?OnChangeParent@CBaseEntity@@UAEXXZ
	DD	FLAT:?OnClearParent@CBaseEntity@@UAEXXZ
	DD	FLAT:?OnRemove@CBaseEntity@@UAEXXZ
	DD	FLAT:?SetObjectCollisionBox@CBasePlayerItem@@UAEXXZ
	DD	FLAT:?Classify@CBaseEntity@@UAEHXZ
	DD	FLAT:?DeathNotice@CBaseEntity@@UAEXPAUentvars_s@@@Z
	DD	FLAT:?IsRigidBody@CBaseEntity@@UAEHXZ
	DD	FLAT:?SetNextThink@CBaseEntity@@UAEXM@Z
	DD	FLAT:?GetState@CBaseEntity@@UAE?AW4STATE@@PAV1@@Z
	DD	FLAT:?GetState@CBaseDelay@@UAE?AW4STATE@@XZ
	DD	FLAT:?TraceAttack@CBaseEntity@@UAEXPAUentvars_s@@MVVector@@PAUgametrace_s@@H@Z
	DD	FLAT:?TakeDamage@CBaseEntity@@UAEHPAUentvars_s@@0MH@Z
	DD	FLAT:?TakeHealth@CBaseEntity@@UAEHMH@Z
	DD	FLAT:?TakeArmor@CBaseEntity@@UAEHMH@Z
	DD	FLAT:?Killed@CBaseEntity@@UAEXPAUentvars_s@@H@Z
	DD	FLAT:?BloodColor@CBaseEntity@@UAEHXZ
	DD	FLAT:?TraceBleed@CBaseEntity@@UAEXMVVector@@PAUgametrace_s@@H@Z
	DD	FLAT:?IsTriggered@CBaseEntity@@UAEHPAV1@@Z
	DD	FLAT:?MyMonsterPointer@CBaseEntity@@UAEPAVCBaseMonster@@XZ
	DD	FLAT:?MySquadMonsterPointer@CBaseEntity@@UAEPAVCSquadMonster@@XZ
	DD	FLAT:?GetToggleState@CBaseEntity@@UAEHXZ
	DD	FLAT:?AddPoints@CBaseEntity@@UAEXHH@Z
	DD	FLAT:?AddPointsToTeam@CBaseEntity@@UAEXHH@Z
	DD	FLAT:?AddPlayerItem@CBaseEntity@@UAEHPAVCBasePlayerItem@@@Z
	DD	FLAT:?RemovePlayerItem@CBaseEntity@@UAEHPAVCBasePlayerItem@@@Z
	DD	FLAT:?GiveAmmo@CBaseEntity@@UAEHHPADH@Z
	DD	FLAT:?GetDelay@CBaseEntity@@UAEMXZ
	DD	FLAT:?IsMoving@CBaseEntity@@UAEHXZ
	DD	FLAT:?OverrideReset@CBaseEntity@@UAEXXZ
	DD	FLAT:?TransferReset@CBaseEntity@@UAEXXZ
	DD	FLAT:?DamageDecal@CBaseEntity@@UAEHH@Z
	DD	FLAT:?SetToggleState@CBaseEntity@@UAEXH@Z
	DD	FLAT:?StartSneaking@CBaseEntity@@UAEXXZ
	DD	FLAT:?StopSneaking@CBaseEntity@@UAEXXZ
	DD	FLAT:?OnControls@CBaseEntity@@UAEHPAV1@@Z
	DD	FLAT:?IsSneaking@CBaseEntity@@UAEHXZ
	DD	FLAT:?IsAlive@CBaseEntity@@UAEHXZ
	DD	FLAT:?IsBSPModel@CBaseEntity@@UAEHXZ
	DD	FLAT:?IsCustomModel@CBaseEntity@@UAEHXZ
	DD	FLAT:?ReflectGauss@CBaseEntity@@UAEHXZ
	DD	FLAT:?HasTarget@CBaseEntity@@UAEHH@Z
	DD	FLAT:?IsInWorld@CBaseEntity@@UAEHH@Z
	DD	FLAT:?IsPlayer@CBaseEntity@@UAEHXZ
	DD	FLAT:?IsNetClient@CBaseEntity@@UAEHXZ
	DD	FLAT:?IsMonster@CBaseEntity@@UAEHXZ
	DD	FLAT:?IsPushable@CBaseEntity@@UAEHXZ
	DD	FLAT:?IsProjectile@CBaseEntity@@UAEHXZ
	DD	FLAT:?IsFuncScreen@CBaseEntity@@UAEHXZ
	DD	FLAT:?IsPortal@CBaseEntity@@UAEHXZ
	DD	FLAT:?IsTank@CBaseEntity@@UAEHXZ
	DD	FLAT:?IsMover@CBaseEntity@@UAEHXZ
	DD	FLAT:?IsBreakable@CBaseEntity@@UAEHXZ
	DD	FLAT:?TeamID@CBaseEntity@@UAEPBDXZ
	DD	FLAT:?AddSpawnFlags@CBaseEntity@@UAEXH@Z
	DD	FLAT:?HasSpawnFlags@CBaseEntity@@UBE_NH@Z
	DD	FLAT:?SetFadeDistance@CBaseEntity@@UAEXH@Z
	DD	FLAT:?SetFlag@CBaseEntity@@UAEXH@Z
	DD	FLAT:?HasFlag@CBaseEntity@@UBE_NH@Z
	DD	FLAT:?RemoveFlag@CBaseEntity@@UAEXH@Z
	DD	FLAT:?SetNullModel@CBaseEntity@@UAEXXZ
	DD	FLAT:?OnPickupObject@CBaseEntity@@UAEXXZ
	DD	FLAT:?OnDropObject@CBaseEntity@@UAEXXZ
	DD	FLAT:?GetNextTarget@CBaseEntity@@UAEPAV1@XZ
	DD	FLAT:?Think@CBaseEntity@@UAEXXZ
	DD	FLAT:?Use@CBaseEntity@@UAEXPAV1@0W4USE_TYPE@@M@Z
	DD	FLAT:?Touch@CBaseEntity@@UAEXPAV1@@Z
	DD	FLAT:?Blocked@CBaseEntity@@UAEXPAV1@@Z
	DD	FLAT:?MoveDone@CBaseEntity@@UAEXXZ
	DD	FLAT:?Respawn@CBasePlayerItem@@UAEPAVCBaseEntity@@XZ
	DD	FLAT:?UpdateOwner@CBaseEntity@@UAEXXZ
	DD	FLAT:?FBecomeProne@CBaseEntity@@UAEHXZ
	DD	FLAT:?Center@CBaseEntity@@UAE?AVVector@@XZ
	DD	FLAT:?EyePosition@CBaseEntity@@UAE?AVVector@@XZ
	DD	FLAT:?EarPosition@CBaseEntity@@UAE?AVVector@@XZ
	DD	FLAT:?BodyTarget@CBaseEntity@@UAE?AVVector@@ABV2@@Z
	DD	FLAT:?IsPointSized@CBaseEntity@@UBEHXZ
	DD	FLAT:?Illumination@CBaseEntity@@UAEHXZ
	DD	FLAT:?FVisible@CBaseEntity@@UAEHABVVector@@@Z
	DD	FLAT:?FVisible@CBaseEntity@@UAEHPAV1@@Z
	DD	FLAT:?ShouldCollide@CBaseEntity@@UAEHPAV1@@Z
	DD	FLAT:?ClearEffects@CBaseEntity@@UAEXXZ
	DD	FLAT:?HandleAnimEvent@CBaseAnimating@@UAEXPAUMonsterEvent_t@@@Z
	DD	FLAT:?AddToPlayer@CBasePlayerItem@@UAEHPAVCBasePlayer@@@Z
	DD	FLAT:?AddDuplicate@CBasePlayerItem@@UAEHPAV1@@Z
	DD	FLAT:?GetItemInfo@CBasePlayerItem@@UAEHPAUItemInfo@@@Z
	DD	FLAT:?CanDeploy@CBasePlayerItem@@UAEHXZ
	DD	FLAT:?Deploy@CBasePlayerItem@@UAEHXZ
	DD	FLAT:?CanHolster@CBasePlayerItem@@UAEHXZ
	DD	FLAT:?Holster@CBasePlayerItem@@UAEXXZ
	DD	FLAT:?UpdateItemInfo@CBasePlayerItem@@UAEXXZ
	DD	FLAT:?ItemPreFrame@CBasePlayerItem@@UAEXXZ
	DD	FLAT:?ItemPostFrame@CBasePlayerItem@@UAEXXZ
	DD	FLAT:?Drop@CBasePlayerItem@@UAEXXZ
	DD	FLAT:?Kill@CBasePlayerItem@@UAEXXZ
	DD	FLAT:?AttachToPlayer@CBasePlayerItem@@UAEXPAVCBasePlayer@@@Z
	DD	FLAT:?PrimaryAmmoIndex@CBasePlayerItem@@UAEHXZ
	DD	FLAT:?SecondaryAmmoIndex@CBasePlayerItem@@UAEHXZ
	DD	FLAT:?UpdateClientData@CBasePlayerItem@@UAEHPAVCBasePlayer@@@Z
	DD	FLAT:?GetWeaponPtr@CBasePlayerItem@@UAEPAV1@XZ
	DD	FLAT:?iItemSlot@CBasePlayerItem@@UAEHXZ
CONST	ENDS
;	COMDAT ??_C@_0BB@EMJBJDBM@sprites?1null?4spr?$AA@
CONST	SEGMENT
??_C@_0BB@EMJBJDBM@sprites?1null?4spr?$AA@ DB 'sprites/null.spr', 00H ; `string'
CONST	ENDS
;	COMDAT ??_7CBaseAnimating@@6B@
CONST	SEGMENT
??_7CBaseAnimating@@6B@ DD FLAT:??_R4CBaseAnimating@@6B@ ; CBaseAnimating::`vftable'
	DD	FLAT:?GetDataDescMap@CBaseAnimating@@UAEPAUdatamap_s@@XZ
	DD	FLAT:?Spawn@CBaseEntity@@UAEXXZ
	DD	FLAT:?Precache@CBaseEntity@@UAEXXZ
	DD	FLAT:?KeyValue@CBaseDelay@@UAEXPAUKeyValueData_s@@@Z
	DD	FLAT:?Save@CBaseEntity@@UAEHAAVCSave@@@Z
	DD	FLAT:?Restore@CBaseEntity@@UAEHAAVCRestore@@@Z
	DD	FLAT:?ObjectCaps@CBaseEntity@@UAEHXZ
	DD	FLAT:?Activate@CBaseEntity@@UAEXXZ
	DD	FLAT:?OnChangeLevel@CBaseEntity@@UAEXXZ
	DD	FLAT:?OnTeleport@CBaseEntity@@UAEXXZ
	DD	FLAT:?PortalSleep@CBaseEntity@@UAEXM@Z
	DD	FLAT:?StartMessage@CBaseEntity@@UAEXPAVCBasePlayer@@@Z
	DD	FLAT:?GetPosition@CBaseEntity@@UAEMXZ
	DD	FLAT:?OnChangeParent@CBaseEntity@@UAEXXZ
	DD	FLAT:?OnClearParent@CBaseEntity@@UAEXXZ
	DD	FLAT:?OnRemove@CBaseEntity@@UAEXXZ
	DD	FLAT:?SetObjectCollisionBox@CBaseEntity@@UAEXXZ
	DD	FLAT:?Classify@CBaseEntity@@UAEHXZ
	DD	FLAT:?DeathNotice@CBaseEntity@@UAEXPAUentvars_s@@@Z
	DD	FLAT:?IsRigidBody@CBaseEntity@@UAEHXZ
	DD	FLAT:?SetNextThink@CBaseEntity@@UAEXM@Z
	DD	FLAT:?GetState@CBaseEntity@@UAE?AW4STATE@@PAV1@@Z
	DD	FLAT:?GetState@CBaseDelay@@UAE?AW4STATE@@XZ
	DD	FLAT:?TraceAttack@CBaseEntity@@UAEXPAUentvars_s@@MVVector@@PAUgametrace_s@@H@Z
	DD	FLAT:?TakeDamage@CBaseEntity@@UAEHPAUentvars_s@@0MH@Z
	DD	FLAT:?TakeHealth@CBaseEntity@@UAEHMH@Z
	DD	FLAT:?TakeArmor@CBaseEntity@@UAEHMH@Z
	DD	FLAT:?Killed@CBaseEntity@@UAEXPAUentvars_s@@H@Z
	DD	FLAT:?BloodColor@CBaseEntity@@UAEHXZ
	DD	FLAT:?TraceBleed@CBaseEntity@@UAEXMVVector@@PAUgametrace_s@@H@Z
	DD	FLAT:?IsTriggered@CBaseEntity@@UAEHPAV1@@Z
	DD	FLAT:?MyMonsterPointer@CBaseEntity@@UAEPAVCBaseMonster@@XZ
	DD	FLAT:?MySquadMonsterPointer@CBaseEntity@@UAEPAVCSquadMonster@@XZ
	DD	FLAT:?GetToggleState@CBaseEntity@@UAEHXZ
	DD	FLAT:?AddPoints@CBaseEntity@@UAEXHH@Z
	DD	FLAT:?AddPointsToTeam@CBaseEntity@@UAEXHH@Z
	DD	FLAT:?AddPlayerItem@CBaseEntity@@UAEHPAVCBasePlayerItem@@@Z
	DD	FLAT:?RemovePlayerItem@CBaseEntity@@UAEHPAVCBasePlayerItem@@@Z
	DD	FLAT:?GiveAmmo@CBaseEntity@@UAEHHPADH@Z
	DD	FLAT:?GetDelay@CBaseEntity@@UAEMXZ
	DD	FLAT:?IsMoving@CBaseEntity@@UAEHXZ
	DD	FLAT:?OverrideReset@CBaseEntity@@UAEXXZ
	DD	FLAT:?TransferReset@CBaseEntity@@UAEXXZ
	DD	FLAT:?DamageDecal@CBaseEntity@@UAEHH@Z
	DD	FLAT:?SetToggleState@CBaseEntity@@UAEXH@Z
	DD	FLAT:?StartSneaking@CBaseEntity@@UAEXXZ
	DD	FLAT:?StopSneaking@CBaseEntity@@UAEXXZ
	DD	FLAT:?OnControls@CBaseEntity@@UAEHPAV1@@Z
	DD	FLAT:?IsSneaking@CBaseEntity@@UAEHXZ
	DD	FLAT:?IsAlive@CBaseEntity@@UAEHXZ
	DD	FLAT:?IsBSPModel@CBaseEntity@@UAEHXZ
	DD	FLAT:?IsCustomModel@CBaseEntity@@UAEHXZ
	DD	FLAT:?ReflectGauss@CBaseEntity@@UAEHXZ
	DD	FLAT:?HasTarget@CBaseEntity@@UAEHH@Z
	DD	FLAT:?IsInWorld@CBaseEntity@@UAEHH@Z
	DD	FLAT:?IsPlayer@CBaseEntity@@UAEHXZ
	DD	FLAT:?IsNetClient@CBaseEntity@@UAEHXZ
	DD	FLAT:?IsMonster@CBaseEntity@@UAEHXZ
	DD	FLAT:?IsPushable@CBaseEntity@@UAEHXZ
	DD	FLAT:?IsProjectile@CBaseEntity@@UAEHXZ
	DD	FLAT:?IsFuncScreen@CBaseEntity@@UAEHXZ
	DD	FLAT:?IsPortal@CBaseEntity@@UAEHXZ
	DD	FLAT:?IsTank@CBaseEntity@@UAEHXZ
	DD	FLAT:?IsMover@CBaseEntity@@UAEHXZ
	DD	FLAT:?IsBreakable@CBaseEntity@@UAEHXZ
	DD	FLAT:?TeamID@CBaseEntity@@UAEPBDXZ
	DD	FLAT:?AddSpawnFlags@CBaseEntity@@UAEXH@Z
	DD	FLAT:?HasSpawnFlags@CBaseEntity@@UBE_NH@Z
	DD	FLAT:?SetFadeDistance@CBaseEntity@@UAEXH@Z
	DD	FLAT:?SetFlag@CBaseEntity@@UAEXH@Z
	DD	FLAT:?HasFlag@CBaseEntity@@UBE_NH@Z
	DD	FLAT:?RemoveFlag@CBaseEntity@@UAEXH@Z
	DD	FLAT:?SetNullModel@CBaseEntity@@UAEXXZ
	DD	FLAT:?OnPickupObject@CBaseEntity@@UAEXXZ
	DD	FLAT:?OnDropObject@CBaseEntity@@UAEXXZ
	DD	FLAT:?GetNextTarget@CBaseEntity@@UAEPAV1@XZ
	DD	FLAT:?Think@CBaseEntity@@UAEXXZ
	DD	FLAT:?Use@CBaseEntity@@UAEXPAV1@0W4USE_TYPE@@M@Z
	DD	FLAT:?Touch@CBaseEntity@@UAEXPAV1@@Z
	DD	FLAT:?Blocked@CBaseEntity@@UAEXPAV1@@Z
	DD	FLAT:?MoveDone@CBaseEntity@@UAEXXZ
	DD	FLAT:?Respawn@CBaseEntity@@UAEPAV1@XZ
	DD	FLAT:?UpdateOwner@CBaseEntity@@UAEXXZ
	DD	FLAT:?FBecomeProne@CBaseEntity@@UAEHXZ
	DD	FLAT:?Center@CBaseEntity@@UAE?AVVector@@XZ
	DD	FLAT:?EyePosition@CBaseEntity@@UAE?AVVector@@XZ
	DD	FLAT:?EarPosition@CBaseEntity@@UAE?AVVector@@XZ
	DD	FLAT:?BodyTarget@CBaseEntity@@UAE?AVVector@@ABV2@@Z
	DD	FLAT:?IsPointSized@CBaseEntity@@UBEHXZ
	DD	FLAT:?Illumination@CBaseEntity@@UAEHXZ
	DD	FLAT:?FVisible@CBaseEntity@@UAEHABVVector@@@Z
	DD	FLAT:?FVisible@CBaseEntity@@UAEHPAV1@@Z
	DD	FLAT:?ShouldCollide@CBaseEntity@@UAEHPAV1@@Z
	DD	FLAT:?ClearEffects@CBaseEntity@@UAEXXZ
	DD	FLAT:?HandleAnimEvent@CBaseAnimating@@UAEXPAUMonsterEvent_t@@@Z
CONST	ENDS
;	COMDAT ??_7CBaseDelay@@6B@
CONST	SEGMENT
??_7CBaseDelay@@6B@ DD FLAT:??_R4CBaseDelay@@6B@	; CBaseDelay::`vftable'
	DD	FLAT:?GetDataDescMap@CBaseDelay@@UAEPAUdatamap_s@@XZ
	DD	FLAT:?Spawn@CBaseEntity@@UAEXXZ
	DD	FLAT:?Precache@CBaseEntity@@UAEXXZ
	DD	FLAT:?KeyValue@CBaseDelay@@UAEXPAUKeyValueData_s@@@Z
	DD	FLAT:?Save@CBaseEntity@@UAEHAAVCSave@@@Z
	DD	FLAT:?Restore@CBaseEntity@@UAEHAAVCRestore@@@Z
	DD	FLAT:?ObjectCaps@CBaseEntity@@UAEHXZ
	DD	FLAT:?Activate@CBaseEntity@@UAEXXZ
	DD	FLAT:?OnChangeLevel@CBaseEntity@@UAEXXZ
	DD	FLAT:?OnTeleport@CBaseEntity@@UAEXXZ
	DD	FLAT:?PortalSleep@CBaseEntity@@UAEXM@Z
	DD	FLAT:?StartMessage@CBaseEntity@@UAEXPAVCBasePlayer@@@Z
	DD	FLAT:?GetPosition@CBaseEntity@@UAEMXZ
	DD	FLAT:?OnChangeParent@CBaseEntity@@UAEXXZ
	DD	FLAT:?OnClearParent@CBaseEntity@@UAEXXZ
	DD	FLAT:?OnRemove@CBaseEntity@@UAEXXZ
	DD	FLAT:?SetObjectCollisionBox@CBaseEntity@@UAEXXZ
	DD	FLAT:?Classify@CBaseEntity@@UAEHXZ
	DD	FLAT:?DeathNotice@CBaseEntity@@UAEXPAUentvars_s@@@Z
	DD	FLAT:?IsRigidBody@CBaseEntity@@UAEHXZ
	DD	FLAT:?SetNextThink@CBaseEntity@@UAEXM@Z
	DD	FLAT:?GetState@CBaseEntity@@UAE?AW4STATE@@PAV1@@Z
	DD	FLAT:?GetState@CBaseDelay@@UAE?AW4STATE@@XZ
	DD	FLAT:?TraceAttack@CBaseEntity@@UAEXPAUentvars_s@@MVVector@@PAUgametrace_s@@H@Z
	DD	FLAT:?TakeDamage@CBaseEntity@@UAEHPAUentvars_s@@0MH@Z
	DD	FLAT:?TakeHealth@CBaseEntity@@UAEHMH@Z
	DD	FLAT:?TakeArmor@CBaseEntity@@UAEHMH@Z
	DD	FLAT:?Killed@CBaseEntity@@UAEXPAUentvars_s@@H@Z
	DD	FLAT:?BloodColor@CBaseEntity@@UAEHXZ
	DD	FLAT:?TraceBleed@CBaseEntity@@UAEXMVVector@@PAUgametrace_s@@H@Z
	DD	FLAT:?IsTriggered@CBaseEntity@@UAEHPAV1@@Z
	DD	FLAT:?MyMonsterPointer@CBaseEntity@@UAEPAVCBaseMonster@@XZ
	DD	FLAT:?MySquadMonsterPointer@CBaseEntity@@UAEPAVCSquadMonster@@XZ
	DD	FLAT:?GetToggleState@CBaseEntity@@UAEHXZ
	DD	FLAT:?AddPoints@CBaseEntity@@UAEXHH@Z
	DD	FLAT:?AddPointsToTeam@CBaseEntity@@UAEXHH@Z
	DD	FLAT:?AddPlayerItem@CBaseEntity@@UAEHPAVCBasePlayerItem@@@Z
	DD	FLAT:?RemovePlayerItem@CBaseEntity@@UAEHPAVCBasePlayerItem@@@Z
	DD	FLAT:?GiveAmmo@CBaseEntity@@UAEHHPADH@Z
	DD	FLAT:?GetDelay@CBaseEntity@@UAEMXZ
	DD	FLAT:?IsMoving@CBaseEntity@@UAEHXZ
	DD	FLAT:?OverrideReset@CBaseEntity@@UAEXXZ
	DD	FLAT:?TransferReset@CBaseEntity@@UAEXXZ
	DD	FLAT:?DamageDecal@CBaseEntity@@UAEHH@Z
	DD	FLAT:?SetToggleState@CBaseEntity@@UAEXH@Z
	DD	FLAT:?StartSneaking@CBaseEntity@@UAEXXZ
	DD	FLAT:?StopSneaking@CBaseEntity@@UAEXXZ
	DD	FLAT:?OnControls@CBaseEntity@@UAEHPAV1@@Z
	DD	FLAT:?IsSneaking@CBaseEntity@@UAEHXZ
	DD	FLAT:?IsAlive@CBaseEntity@@UAEHXZ
	DD	FLAT:?IsBSPModel@CBaseEntity@@UAEHXZ
	DD	FLAT:?IsCustomModel@CBaseEntity@@UAEHXZ
	DD	FLAT:?ReflectGauss@CBaseEntity@@UAEHXZ
	DD	FLAT:?HasTarget@CBaseEntity@@UAEHH@Z
	DD	FLAT:?IsInWorld@CBaseEntity@@UAEHH@Z
	DD	FLAT:?IsPlayer@CBaseEntity@@UAEHXZ
	DD	FLAT:?IsNetClient@CBaseEntity@@UAEHXZ
	DD	FLAT:?IsMonster@CBaseEntity@@UAEHXZ
	DD	FLAT:?IsPushable@CBaseEntity@@UAEHXZ
	DD	FLAT:?IsProjectile@CBaseEntity@@UAEHXZ
	DD	FLAT:?IsFuncScreen@CBaseEntity@@UAEHXZ
	DD	FLAT:?IsPortal@CBaseEntity@@UAEHXZ
	DD	FLAT:?IsTank@CBaseEntity@@UAEHXZ
	DD	FLAT:?IsMover@CBaseEntity@@UAEHXZ
	DD	FLAT:?IsBreakable@CBaseEntity@@UAEHXZ
	DD	FLAT:?TeamID@CBaseEntity@@UAEPBDXZ
	DD	FLAT:?AddSpawnFlags@CBaseEntity@@UAEXH@Z
	DD	FLAT:?HasSpawnFlags@CBaseEntity@@UBE_NH@Z
	DD	FLAT:?SetFadeDistance@CBaseEntity@@UAEXH@Z
	DD	FLAT:?SetFlag@CBaseEntity@@UAEXH@Z
	DD	FLAT:?HasFlag@CBaseEntity@@UBE_NH@Z
	DD	FLAT:?RemoveFlag@CBaseEntity@@UAEXH@Z
	DD	FLAT:?SetNullModel@CBaseEntity@@UAEXXZ
	DD	FLAT:?OnPickupObject@CBaseEntity@@UAEXXZ
	DD	FLAT:?OnDropObject@CBaseEntity@@UAEXXZ
	DD	FLAT:?GetNextTarget@CBaseEntity@@UAEPAV1@XZ
	DD	FLAT:?Think@CBaseEntity@@UAEXXZ
	DD	FLAT:?Use@CBaseEntity@@UAEXPAV1@0W4USE_TYPE@@M@Z
	DD	FLAT:?Touch@CBaseEntity@@UAEXPAV1@@Z
	DD	FLAT:?Blocked@CBaseEntity@@UAEXPAV1@@Z
	DD	FLAT:?MoveDone@CBaseEntity@@UAEXXZ
	DD	FLAT:?Respawn@CBaseEntity@@UAEPAV1@XZ
	DD	FLAT:?UpdateOwner@CBaseEntity@@UAEXXZ
	DD	FLAT:?FBecomeProne@CBaseEntity@@UAEHXZ
	DD	FLAT:?Center@CBaseEntity@@UAE?AVVector@@XZ
	DD	FLAT:?EyePosition@CBaseEntity@@UAE?AVVector@@XZ
	DD	FLAT:?EarPosition@CBaseEntity@@UAE?AVVector@@XZ
	DD	FLAT:?BodyTarget@CBaseEntity@@UAE?AVVector@@ABV2@@Z
	DD	FLAT:?IsPointSized@CBaseEntity@@UBEHXZ
	DD	FLAT:?Illumination@CBaseEntity@@UAEHXZ
	DD	FLAT:?FVisible@CBaseEntity@@UAEHABVVector@@@Z
	DD	FLAT:?FVisible@CBaseEntity@@UAEHPAV1@@Z
	DD	FLAT:?ShouldCollide@CBaseEntity@@UAEHPAV1@@Z
	DD	FLAT:?ClearEffects@CBaseEntity@@UAEXXZ
CONST	ENDS
;	COMDAT ??_C@_0L@JIJDCONP@customname?$AA@
CONST	SEGMENT
??_C@_0L@JIJDCONP@customname?$AA@ DB 'customname', 00H	; `string'
CONST	ENDS
;	COMDAT ??_C@_0N@JILDNHAP@vlight_cache?$AA@
CONST	SEGMENT
??_C@_0N@JILDNHAP@vlight_cache?$AA@ DB 'vlight_cache', 00H ; `string'
CONST	ENDS
;	COMDAT ??_C@_0L@IKCANML@reflection?$AA@
CONST	SEGMENT
??_C@_0L@IKCANML@reflection?$AA@ DB 'reflection', 00H	; `string'
CONST	ENDS
;	COMDAT ??_C@_05IAKJCFIM@style?$AA@
CONST	SEGMENT
??_C@_05IAKJCFIM@style?$AA@ DB 'style', 00H		; `string'
CONST	ENDS
;	COMDAT ??_C@_0M@EAELDHJO@parentflags?$AA@
CONST	SEGMENT
??_C@_0M@EAELDHJO@parentflags?$AA@ DB 'parentflags', 00H ; `string'
CONST	ENDS
;	COMDAT ??_C@_08JJJAOBDI@movewith?$AA@
CONST	SEGMENT
??_C@_08JJJAOBDI@movewith?$AA@ DB 'movewith', 00H	; `string'
CONST	ENDS
;	COMDAT ??_C@_06MLKDMCBD@parent?$AA@
CONST	SEGMENT
??_C@_06MLKDMCBD@parent?$AA@ DB 'parent', 00H		; `string'
CONST	ENDS
;	COMDAT ??_7CBaseEntity@@6B@
CONST	SEGMENT
??_7CBaseEntity@@6B@ DD FLAT:??_R4CBaseEntity@@6B@	; CBaseEntity::`vftable'
	DD	FLAT:?GetDataDescMap@CBaseEntity@@UAEPAUdatamap_s@@XZ
	DD	FLAT:?Spawn@CBaseEntity@@UAEXXZ
	DD	FLAT:?Precache@CBaseEntity@@UAEXXZ
	DD	FLAT:?KeyValue@CBaseEntity@@UAEXPAUKeyValueData_s@@@Z
	DD	FLAT:?Save@CBaseEntity@@UAEHAAVCSave@@@Z
	DD	FLAT:?Restore@CBaseEntity@@UAEHAAVCRestore@@@Z
	DD	FLAT:?ObjectCaps@CBaseEntity@@UAEHXZ
	DD	FLAT:?Activate@CBaseEntity@@UAEXXZ
	DD	FLAT:?OnChangeLevel@CBaseEntity@@UAEXXZ
	DD	FLAT:?OnTeleport@CBaseEntity@@UAEXXZ
	DD	FLAT:?PortalSleep@CBaseEntity@@UAEXM@Z
	DD	FLAT:?StartMessage@CBaseEntity@@UAEXPAVCBasePlayer@@@Z
	DD	FLAT:?GetPosition@CBaseEntity@@UAEMXZ
	DD	FLAT:?OnChangeParent@CBaseEntity@@UAEXXZ
	DD	FLAT:?OnClearParent@CBaseEntity@@UAEXXZ
	DD	FLAT:?OnRemove@CBaseEntity@@UAEXXZ
	DD	FLAT:?SetObjectCollisionBox@CBaseEntity@@UAEXXZ
	DD	FLAT:?Classify@CBaseEntity@@UAEHXZ
	DD	FLAT:?DeathNotice@CBaseEntity@@UAEXPAUentvars_s@@@Z
	DD	FLAT:?IsRigidBody@CBaseEntity@@UAEHXZ
	DD	FLAT:?SetNextThink@CBaseEntity@@UAEXM@Z
	DD	FLAT:?GetState@CBaseEntity@@UAE?AW4STATE@@PAV1@@Z
	DD	FLAT:?GetState@CBaseEntity@@UAE?AW4STATE@@XZ
	DD	FLAT:?TraceAttack@CBaseEntity@@UAEXPAUentvars_s@@MVVector@@PAUgametrace_s@@H@Z
	DD	FLAT:?TakeDamage@CBaseEntity@@UAEHPAUentvars_s@@0MH@Z
	DD	FLAT:?TakeHealth@CBaseEntity@@UAEHMH@Z
	DD	FLAT:?TakeArmor@CBaseEntity@@UAEHMH@Z
	DD	FLAT:?Killed@CBaseEntity@@UAEXPAUentvars_s@@H@Z
	DD	FLAT:?BloodColor@CBaseEntity@@UAEHXZ
	DD	FLAT:?TraceBleed@CBaseEntity@@UAEXMVVector@@PAUgametrace_s@@H@Z
	DD	FLAT:?IsTriggered@CBaseEntity@@UAEHPAV1@@Z
	DD	FLAT:?MyMonsterPointer@CBaseEntity@@UAEPAVCBaseMonster@@XZ
	DD	FLAT:?MySquadMonsterPointer@CBaseEntity@@UAEPAVCSquadMonster@@XZ
	DD	FLAT:?GetToggleState@CBaseEntity@@UAEHXZ
	DD	FLAT:?AddPoints@CBaseEntity@@UAEXHH@Z
	DD	FLAT:?AddPointsToTeam@CBaseEntity@@UAEXHH@Z
	DD	FLAT:?AddPlayerItem@CBaseEntity@@UAEHPAVCBasePlayerItem@@@Z
	DD	FLAT:?RemovePlayerItem@CBaseEntity@@UAEHPAVCBasePlayerItem@@@Z
	DD	FLAT:?GiveAmmo@CBaseEntity@@UAEHHPADH@Z
	DD	FLAT:?GetDelay@CBaseEntity@@UAEMXZ
	DD	FLAT:?IsMoving@CBaseEntity@@UAEHXZ
	DD	FLAT:?OverrideReset@CBaseEntity@@UAEXXZ
	DD	FLAT:?TransferReset@CBaseEntity@@UAEXXZ
	DD	FLAT:?DamageDecal@CBaseEntity@@UAEHH@Z
	DD	FLAT:?SetToggleState@CBaseEntity@@UAEXH@Z
	DD	FLAT:?StartSneaking@CBaseEntity@@UAEXXZ
	DD	FLAT:?StopSneaking@CBaseEntity@@UAEXXZ
	DD	FLAT:?OnControls@CBaseEntity@@UAEHPAV1@@Z
	DD	FLAT:?IsSneaking@CBaseEntity@@UAEHXZ
	DD	FLAT:?IsAlive@CBaseEntity@@UAEHXZ
	DD	FLAT:?IsBSPModel@CBaseEntity@@UAEHXZ
	DD	FLAT:?IsCustomModel@CBaseEntity@@UAEHXZ
	DD	FLAT:?ReflectGauss@CBaseEntity@@UAEHXZ
	DD	FLAT:?HasTarget@CBaseEntity@@UAEHH@Z
	DD	FLAT:?IsInWorld@CBaseEntity@@UAEHH@Z
	DD	FLAT:?IsPlayer@CBaseEntity@@UAEHXZ
	DD	FLAT:?IsNetClient@CBaseEntity@@UAEHXZ
	DD	FLAT:?IsMonster@CBaseEntity@@UAEHXZ
	DD	FLAT:?IsPushable@CBaseEntity@@UAEHXZ
	DD	FLAT:?IsProjectile@CBaseEntity@@UAEHXZ
	DD	FLAT:?IsFuncScreen@CBaseEntity@@UAEHXZ
	DD	FLAT:?IsPortal@CBaseEntity@@UAEHXZ
	DD	FLAT:?IsTank@CBaseEntity@@UAEHXZ
	DD	FLAT:?IsMover@CBaseEntity@@UAEHXZ
	DD	FLAT:?IsBreakable@CBaseEntity@@UAEHXZ
	DD	FLAT:?TeamID@CBaseEntity@@UAEPBDXZ
	DD	FLAT:?AddSpawnFlags@CBaseEntity@@UAEXH@Z
	DD	FLAT:?HasSpawnFlags@CBaseEntity@@UBE_NH@Z
	DD	FLAT:?SetFadeDistance@CBaseEntity@@UAEXH@Z
	DD	FLAT:?SetFlag@CBaseEntity@@UAEXH@Z
	DD	FLAT:?HasFlag@CBaseEntity@@UBE_NH@Z
	DD	FLAT:?RemoveFlag@CBaseEntity@@UAEXH@Z
	DD	FLAT:?SetNullModel@CBaseEntity@@UAEXXZ
	DD	FLAT:?OnPickupObject@CBaseEntity@@UAEXXZ
	DD	FLAT:?OnDropObject@CBaseEntity@@UAEXXZ
	DD	FLAT:?GetNextTarget@CBaseEntity@@UAEPAV1@XZ
	DD	FLAT:?Think@CBaseEntity@@UAEXXZ
	DD	FLAT:?Use@CBaseEntity@@UAEXPAV1@0W4USE_TYPE@@M@Z
	DD	FLAT:?Touch@CBaseEntity@@UAEXPAV1@@Z
	DD	FLAT:?Blocked@CBaseEntity@@UAEXPAV1@@Z
	DD	FLAT:?MoveDone@CBaseEntity@@UAEXXZ
	DD	FLAT:?Respawn@CBaseEntity@@UAEPAV1@XZ
	DD	FLAT:?UpdateOwner@CBaseEntity@@UAEXXZ
	DD	FLAT:?FBecomeProne@CBaseEntity@@UAEHXZ
	DD	FLAT:?Center@CBaseEntity@@UAE?AVVector@@XZ
	DD	FLAT:?EyePosition@CBaseEntity@@UAE?AVVector@@XZ
	DD	FLAT:?EarPosition@CBaseEntity@@UAE?AVVector@@XZ
	DD	FLAT:?BodyTarget@CBaseEntity@@UAE?AVVector@@ABV2@@Z
	DD	FLAT:?IsPointSized@CBaseEntity@@UBEHXZ
	DD	FLAT:?Illumination@CBaseEntity@@UAEHXZ
	DD	FLAT:?FVisible@CBaseEntity@@UAEHABVVector@@@Z
	DD	FLAT:?FVisible@CBaseEntity@@UAEHPAV1@@Z
	DD	FLAT:?ShouldCollide@CBaseEntity@@UAEHPAV1@@Z
	DD	FLAT:?ClearEffects@CBaseEntity@@UAEXXZ
CONST	ENDS
;	COMDAT ??_7IEntityFactory@@6B@
CONST	SEGMENT
??_7IEntityFactory@@6B@ DD FLAT:??_R4IEntityFactory@@6B@ ; IEntityFactory::`vftable'
	DD	FLAT:__purecall
	DD	FLAT:__purecall
	DD	FLAT:__purecall
CONST	ENDS
;	COMDAT ??_C@_00CNPNBAHC@?$AA@
CONST	SEGMENT
??_C@_00CNPNBAHC@?$AA@ DB 00H				; `string'
CONST	ENDS
;	COMDAT xdata$x
xdata$x	SEGMENT
__unwindtable$??$GetClassPtr@VCWpnSentry@@@@YAPAVCWpnSentry@@PAV0@PBD@Z DD 0ffffffffH
	DD	FLAT:__unwindfunclet$??$GetClassPtr@VCWpnSentry@@@@YAPAVCWpnSentry@@PAV0@PBD@Z$0
__ehfuncinfo$??$GetClassPtr@VCWpnSentry@@@@YAPAVCWpnSentry@@PAV0@PBD@Z DD 019930522H
	DD	01H
	DD	FLAT:__unwindtable$??$GetClassPtr@VCWpnSentry@@@@YAPAVCWpnSentry@@PAV0@PBD@Z
	DD	2 DUP(00H)
	DD	2 DUP(00H)
	DD	00H
	DD	01H
xdata$x	ENDS
;	COMDAT xdata$x
xdata$x	SEGMENT
__unwindtable$??$DataMapInit@VCWpnSentry@@@@YAPAUdatamap_s@@PAVCWpnSentry@@@Z DD 0ffffffffH
	DD	FLAT:__unwindfunclet$??$DataMapInit@VCWpnSentry@@@@YAPAUdatamap_s@@PAVCWpnSentry@@@Z$0
__ehfuncinfo$??$DataMapInit@VCWpnSentry@@@@YAPAUdatamap_s@@PAVCWpnSentry@@@Z DD 019930522H
	DD	01H
	DD	FLAT:__unwindtable$??$DataMapInit@VCWpnSentry@@@@YAPAUdatamap_s@@PAVCWpnSentry@@@Z
	DD	2 DUP(00H)
	DD	2 DUP(00H)
	DD	00H
	DD	01H
xdata$x	ENDS
;	COMDAT xdata$x
xdata$x	SEGMENT
__unwindtable$??0CBaseEntity@@QAE@XZ DD 0ffffffffH
	DD	FLAT:__unwindfunclet$??0CBaseEntity@@QAE@XZ$0
__ehfuncinfo$??0CBaseEntity@@QAE@XZ DD 019930522H
	DD	01H
	DD	FLAT:__unwindtable$??0CBaseEntity@@QAE@XZ
	DD	2 DUP(00H)
	DD	2 DUP(00H)
	DD	00H
	DD	01H
xdata$x	ENDS
;	COMDAT xdata$x
xdata$x	SEGMENT
__ehfuncinfo$??1?$CUtlMemory@PADH@@QAE@XZ DD 019930522H
	DD	00H
	DD	00H
	DD	2 DUP(00H)
	DD	2 DUP(00H)
	DD	00H
	DD	05H
xdata$x	ENDS
;	COMDAT xdata$x
xdata$x	SEGMENT
__ehfuncinfo$??1?$CUtlArray@PADV?$CUtlMemory@PADH@@@@QAE@XZ DD 019930522H
	DD	00H
	DD	00H
	DD	2 DUP(00H)
	DD	2 DUP(00H)
	DD	00H
	DD	05H
xdata$x	ENDS
;	COMDAT xdata$x
xdata$x	SEGMENT
__unwindtable$??0?$CUtlArray@PADV?$CUtlMemory@PADH@@@@QAE@HH@Z DD 0ffffffffH
	DD	FLAT:__unwindfunclet$??0?$CUtlArray@PADV?$CUtlMemory@PADH@@@@QAE@HH@Z$0
__ehfuncinfo$??0?$CUtlArray@PADV?$CUtlMemory@PADH@@@@QAE@HH@Z DD 019930522H
	DD	01H
	DD	FLAT:__unwindtable$??0?$CUtlArray@PADV?$CUtlMemory@PADH@@@@QAE@HH@Z
	DD	2 DUP(00H)
	DD	2 DUP(00H)
	DD	00H
	DD	01H
xdata$x	ENDS
;	COMDAT xdata$x
xdata$x	SEGMENT
__ehfuncinfo$??1CDatadescGeneratedNameHolder@@QAE@XZ DD 019930522H
	DD	00H
	DD	00H
	DD	2 DUP(00H)
	DD	2 DUP(00H)
	DD	00H
	DD	05H
xdata$x	ENDS
CRT$XCU	SEGMENT
?g_DataMapHolder$initializer$@CWpnSentry_DataDescInit@@3P6AXXZA DD FLAT:??__Eg_DataMapHolder@CWpnSentry_DataDescInit@@YAXXZ ; CWpnSentry_DataDescInit::g_DataMapHolder$initializer$
CRT$XCU	ENDS
; Function compile flags: /Odtp /ZI
; File d:\!diffusion 2020\source code 2022\client-server\game_shared\utlmemory.h
;	COMDAT ??$Destruct@PAD@@YAXPAPAD@Z
_TEXT	SEGMENT
_pMemory$ = 8						; size = 4
??$Destruct@PAD@@YAXPAPAD@Z PROC			; Destruct<char *>, COMDAT

; 49   : {

	push	ebp
	mov	ebp, esp
	sub	esp, 64					; 00000040H
	push	ebx
	push	esi
	push	edi

; 50   : 	pMemory->~T();
; 51   : 
; 52   : #ifdef _DEBUG
; 53   : 	memset( pMemory, 0xDD, sizeof(T) );

	push	4
	push	221					; 000000ddH
	mov	eax, DWORD PTR _pMemory$[ebp]
	push	eax
	call	_memset
	add	esp, 12					; 0000000cH

; 54   : #endif
; 55   : }

	pop	edi
	pop	esi
	pop	ebx
	mov	esp, ebp
	pop	ebp
	ret	0
??$Destruct@PAD@@YAXPAPAD@Z ENDP			; Destruct<char *>
_TEXT	ENDS
; Function compile flags: /Odtp /ZI
; File d:\!diffusion 2020\source code 2022\client-server\server\cbase.h
;	COMDAT ??$GetClassPtr@VCWpnSentry@@@@YAPAVCWpnSentry@@PAV0@PBD@Z
_TEXT	SEGMENT
tv85 = -92						; size = 4
$T2 = -88						; size = 4
$T3 = -84						; size = 4
_pev$ = -16						; size = 4
__$EHRec$ = -12						; size = 12
_newEnt$ = 8						; size = 4
_className$ = 12					; size = 4
??$GetClassPtr@VCWpnSentry@@@@YAPAVCWpnSentry@@PAV0@PBD@Z PROC ; GetClassPtr<CWpnSentry>, COMDAT

; 1146 : {

	push	ebp
	mov	ebp, esp
	push	-1
	push	__ehhandler$??$GetClassPtr@VCWpnSentry@@@@YAPAVCWpnSentry@@PAV0@PBD@Z
	mov	eax, DWORD PTR fs:0
	push	eax
	sub	esp, 80					; 00000050H
	push	ebx
	push	esi
	push	edi
	mov	eax, DWORD PTR ___security_cookie
	xor	eax, ebp
	push	eax
	lea	eax, DWORD PTR __$EHRec$[ebp]
	mov	DWORD PTR fs:0, eax

; 1147 : 	entvars_t *pev = (entvars_t *)newEnt;

	mov	eax, DWORD PTR _newEnt$[ebp]
	mov	DWORD PTR _pev$[ebp], eax

; 1148 : 
; 1149 : 	// allocate entity if necessary
; 1150 : 	if (pev == NULL)

	cmp	DWORD PTR _pev$[ebp], 0
	jne	SHORT $LN2@GetClassPt

; 1151 : 		pev = VARS(CREATE_ENTITY());

	call	DWORD PTR ?g_engfuncs@@3Uenginefuncs_s@@A+84
	push	eax
	call	?VARS@@YAPAUentvars_s@@PAUedict_s@@@Z	; VARS
	add	esp, 4
	mov	DWORD PTR _pev$[ebp], eax
$LN2@GetClassPt:

; 1152 : 
; 1153 : 	// get the private data
; 1154 : 	newEnt = (T *)GET_PRIVATE(ENT(pev));

	mov	eax, DWORD PTR _pev$[ebp]
	push	eax
	call	?ENT@@YAPAUedict_s@@PBUentvars_s@@@Z	; ENT
	add	esp, 4
	push	eax
	call	?GET_PRIVATE@@YAPAXPAUedict_s@@@Z	; GET_PRIVATE
	add	esp, 4
	mov	DWORD PTR _newEnt$[ebp], eax

; 1155 : 
; 1156 : 	if (newEnt == NULL) 

	cmp	DWORD PTR _newEnt$[ebp], 0
	jne	SHORT $LN3@GetClassPt

; 1157 : 	{
; 1158 : 		// allocate private data 
; 1159 : 		newEnt = new(pev) T;

	mov	eax, DWORD PTR _pev$[ebp]
	push	eax
	push	1952					; 000007a0H
	call	??2CBaseEntity@@SAPAXIPAUentvars_s@@@Z	; CBaseEntity::operator new
	add	esp, 8
	mov	DWORD PTR $T2[ebp], eax
	mov	DWORD PTR __$EHRec$[ebp+8], 0
	cmp	DWORD PTR $T2[ebp], 0
	je	SHORT $LN5@GetClassPt
	mov	ecx, DWORD PTR $T2[ebp]
	call	??0CWpnSentry@@QAE@XZ
	mov	DWORD PTR tv85[ebp], eax
	jmp	SHORT $LN6@GetClassPt
$LN5@GetClassPt:
	mov	DWORD PTR tv85[ebp], 0
$LN6@GetClassPt:
	mov	ecx, DWORD PTR tv85[ebp]
	mov	DWORD PTR $T3[ebp], ecx
	mov	DWORD PTR __$EHRec$[ebp+8], -1
	mov	edx, DWORD PTR $T3[ebp]
	mov	DWORD PTR _newEnt$[ebp], edx

; 1160 : 		newEnt->pev = pev;

	mov	eax, DWORD PTR _newEnt$[ebp]
	mov	ecx, DWORD PTR _pev$[ebp]
	mov	DWORD PTR [eax+4], ecx
$LN3@GetClassPt:

; 1161 : 	}
; 1162 : 	newEnt->SetClassname( className );

	mov	eax, DWORD PTR _className$[ebp]
	push	eax
	mov	ecx, DWORD PTR _newEnt$[ebp]
	call	?SetClassname@CBaseEntity@@QAEXPBD@Z	; CBaseEntity::SetClassname

; 1163 : 
; 1164 : 	return newEnt;

	mov	eax, DWORD PTR _newEnt$[ebp]

; 1165 : }

	mov	ecx, DWORD PTR __$EHRec$[ebp]
	mov	DWORD PTR fs:0, ecx
	pop	ecx
	pop	edi
	pop	esi
	pop	ebx
	mov	esp, ebp
	pop	ebp
	ret	0
_TEXT	ENDS
;	COMDAT text$x
text$x	SEGMENT
__unwindfunclet$??$GetClassPtr@VCWpnSentry@@@@YAPAVCWpnSentry@@PAV0@PBD@Z$0:
	mov	eax, DWORD PTR _pev$[ebp]
	push	eax
	mov	eax, DWORD PTR $T2[ebp]
	push	eax
	call	??3CBaseEntity@@SAXPAXPAUentvars_s@@@Z	; CBaseEntity::operator delete
	add	esp, 8
	ret	0
__ehhandler$??$GetClassPtr@VCWpnSentry@@@@YAPAVCWpnSentry@@PAV0@PBD@Z:
	mov	edx, DWORD PTR [esp+8]
	lea	eax, DWORD PTR [edx+12]
	mov	ecx, DWORD PTR [edx-96]
	xor	ecx, eax
	call	@__security_check_cookie@4
	mov	eax, OFFSET __ehfuncinfo$??$GetClassPtr@VCWpnSentry@@@@YAPAVCWpnSentry@@PAV0@PBD@Z
	jmp	___CxxFrameHandler3
text$x	ENDS
??$GetClassPtr@VCWpnSentry@@@@YAPAVCWpnSentry@@PAV0@PBD@Z ENDP ; GetClassPtr<CWpnSentry>
; Function compile flags: /Odtp /ZI
;	COMDAT ??__FnameHolder@?1???$DataMapInit@VCWpnSentry@@@@YAPAUdatamap_s@@PAVCWpnSentry@@@Z@YAXXZ
text$yd	SEGMENT
??__FnameHolder@?1???$DataMapInit@VCWpnSentry@@@@YAPAUdatamap_s@@PAVCWpnSentry@@@Z@YAXXZ PROC ; `DataMapInit<CWpnSentry>'::`2'::`dynamic atexit destructor for 'nameHolder'', COMDAT
	push	ebp
	mov	ebp, esp
	sub	esp, 64					; 00000040H
	push	ebx
	push	esi
	push	edi
	mov	ecx, OFFSET ?nameHolder@?1???$DataMapInit@VCWpnSentry@@@@YAPAUdatamap_s@@PAVCWpnSentry@@@Z@4VCDatadescGeneratedNameHolder@@A
	call	??1CDatadescGeneratedNameHolder@@QAE@XZ	; CDatadescGeneratedNameHolder::~CDatadescGeneratedNameHolder
	pop	edi
	pop	esi
	pop	ebx
	mov	esp, ebp
	pop	ebp
	ret	0
??__FnameHolder@?1???$DataMapInit@VCWpnSentry@@@@YAPAUdatamap_s@@PAVCWpnSentry@@@Z@YAXXZ ENDP ; `DataMapInit<CWpnSentry>'::`2'::`dynamic atexit destructor for 'nameHolder''
text$yd	ENDS
; Function compile flags: /Odtp /ZI
; File d:\!diffusion 2020\source code 2022\client-server\server\weapons\weapon_sentry.cpp
;	COMDAT ??__Eg_DataMapHolder@CWpnSentry_DataDescInit@@YAXXZ
text$di	SEGMENT
??__Eg_DataMapHolder@CWpnSentry_DataDescInit@@YAXXZ PROC ; CWpnSentry_DataDescInit::`dynamic initializer for 'g_DataMapHolder'', COMDAT

; 67   : BEGIN_DATADESC( CWpnSentry )

	push	ebp
	mov	ebp, esp
	sub	esp, 64					; 00000040H
	push	ebx
	push	esi
	push	edi
	push	0
	call	??$DataMapInit@VCWpnSentry@@@@YAPAUdatamap_s@@PAVCWpnSentry@@@Z ; DataMapInit<CWpnSentry>
	add	esp, 4
	mov	DWORD PTR ?g_DataMapHolder@CWpnSentry_DataDescInit@@3PAUdatamap_s@@A, eax ; CWpnSentry_DataDescInit::g_DataMapHolder
	pop	edi
	pop	esi
	pop	ebx
	mov	esp, ebp
	pop	ebp
	ret	0
??__Eg_DataMapHolder@CWpnSentry_DataDescInit@@YAXXZ ENDP ; CWpnSentry_DataDescInit::`dynamic initializer for 'g_DataMapHolder''
text$di	ENDS
; Function compile flags: /Odtp /ZI
; File d:\!diffusion 2020\source code 2022\client-server\server\weapons\weapon_sentry.cpp
;	COMDAT ??$DataMapInit@VCWpnSentry@@@@YAPAUdatamap_s@@PAVCWpnSentry@@@Z
_TEXT	SEGMENT
__$EHRec$ = -12						; size = 12
___formal$ = 8						; size = 4
??$DataMapInit@VCWpnSentry@@@@YAPAUdatamap_s@@PAVCWpnSentry@@@Z PROC ; DataMapInit<CWpnSentry>, COMDAT

; 67   : BEGIN_DATADESC( CWpnSentry )

	push	ebp
	mov	ebp, esp
	push	-1
	push	__ehhandler$??$DataMapInit@VCWpnSentry@@@@YAPAUdatamap_s@@PAVCWpnSentry@@@Z
	mov	eax, DWORD PTR fs:0
	push	eax
	sub	esp, 64					; 00000040H
	push	ebx
	push	esi
	push	edi
	mov	eax, DWORD PTR ___security_cookie
	xor	eax, ebp
	push	eax
	lea	eax, DWORD PTR __$EHRec$[ebp]
	mov	DWORD PTR fs:0, eax
	mov	eax, DWORD PTR __tls_index
	mov	ecx, DWORD PTR fs:__tls_array
	mov	edx, DWORD PTR [ecx+eax*4]
	mov	eax, DWORD PTR ?$TSS0@?1???$DataMapInit@VCWpnSentry@@@@YAPAUdatamap_s@@PAVCWpnSentry@@@Z@4HA
	cmp	eax, DWORD PTR __Init_thread_epoch[edx]
	jle	SHORT $LN2@DataMapIni
	push	OFFSET ?$TSS0@?1???$DataMapInit@VCWpnSentry@@@@YAPAUdatamap_s@@PAVCWpnSentry@@@Z@4HA
	call	__Init_thread_header
	add	esp, 4
	cmp	DWORD PTR ?$TSS0@?1???$DataMapInit@VCWpnSentry@@@@YAPAUdatamap_s@@PAVCWpnSentry@@@Z@4HA, -1
	jne	SHORT $LN2@DataMapIni
	mov	DWORD PTR __$EHRec$[ebp+8], 0
	push	OFFSET ??_C@_0L@JEALDADF@CWpnSentry?$AA@
	mov	ecx, OFFSET ?nameHolder@?1???$DataMapInit@VCWpnSentry@@@@YAPAUdatamap_s@@PAVCWpnSentry@@@Z@4VCDatadescGeneratedNameHolder@@A
	call	??0CDatadescGeneratedNameHolder@@QAE@PBD@Z ; CDatadescGeneratedNameHolder::CDatadescGeneratedNameHolder
	push	OFFSET ??__FnameHolder@?1???$DataMapInit@VCWpnSentry@@@@YAPAUdatamap_s@@PAVCWpnSentry@@@Z@YAXXZ ; `DataMapInit<CWpnSentry>'::`2'::`dynamic atexit destructor for 'nameHolder''
	call	_atexit
	add	esp, 4
	mov	DWORD PTR __$EHRec$[ebp+8], -1
	push	OFFSET ?$TSS0@?1???$DataMapInit@VCWpnSentry@@@@YAPAUdatamap_s@@PAVCWpnSentry@@@Z@4HA
	call	__Init_thread_footer
	add	esp, 4
$LN2@DataMapIni:

; 68   : 	DEFINE_FIELD( m_hTestModel, FIELD_EHANDLE ),
; 69   : 	DEFINE_FIELD( RotateAngle, FIELD_FLOAT ),
; 70   : END_DATADESC()

	call	?GetBaseMap@CWpnSentry@@SAPAUdatamap_s@@XZ ; CWpnSentry::GetBaseMap
	mov	DWORD PTR ?m_DataMap@CWpnSentry@@2Udatamap_s@@A+12, eax
	mov	eax, 1
	test	eax, eax
	je	SHORT $LN3@DataMapIni
	mov	DWORD PTR ?m_DataMap@CWpnSentry@@2Udatamap_s@@A+4, 2
	mov	eax, 24					; 00000018H
	shl	eax, 0
	add	eax, OFFSET ?dataDesc@?1???$DataMapInit@VCWpnSentry@@@@YAPAUdatamap_s@@PAVCWpnSentry@@@Z@4PAUtypedescription_s@@A
	mov	DWORD PTR ?m_DataMap@CWpnSentry@@2Udatamap_s@@A, eax
	jmp	SHORT $LN4@DataMapIni
$LN3@DataMapIni:
	mov	DWORD PTR ?m_DataMap@CWpnSentry@@2Udatamap_s@@A+4, 1
	mov	DWORD PTR ?m_DataMap@CWpnSentry@@2Udatamap_s@@A, OFFSET ?dataDesc@?1???$DataMapInit@VCWpnSentry@@@@YAPAUdatamap_s@@PAVCWpnSentry@@@Z@4PAUtypedescription_s@@A
$LN4@DataMapIni:
	mov	eax, OFFSET ?m_DataMap@CWpnSentry@@2Udatamap_s@@A ; CWpnSentry::m_DataMap
	mov	ecx, DWORD PTR __$EHRec$[ebp]
	mov	DWORD PTR fs:0, ecx
	pop	ecx
	pop	edi
	pop	esi
	pop	ebx
	mov	esp, ebp
	pop	ebp
	ret	0
_TEXT	ENDS
;	COMDAT text$x
text$x	SEGMENT
__unwindfunclet$??$DataMapInit@VCWpnSentry@@@@YAPAUdatamap_s@@PAVCWpnSentry@@@Z$0:
	push	OFFSET ?$TSS0@?1???$DataMapInit@VCWpnSentry@@@@YAPAUdatamap_s@@PAVCWpnSentry@@@Z@4HA
	call	__Init_thread_abort
	pop	ecx
	ret	0
__ehhandler$??$DataMapInit@VCWpnSentry@@@@YAPAUdatamap_s@@PAVCWpnSentry@@@Z:
	mov	edx, DWORD PTR [esp+8]
	lea	eax, DWORD PTR [edx+12]
	mov	ecx, DWORD PTR [edx-80]
	xor	ecx, eax
	call	@__security_check_cookie@4
	mov	eax, OFFSET __ehfuncinfo$??$DataMapInit@VCWpnSentry@@@@YAPAUdatamap_s@@PAVCWpnSentry@@@Z
	jmp	___CxxFrameHandler3
text$x	ENDS
??$DataMapInit@VCWpnSentry@@@@YAPAUdatamap_s@@PAVCWpnSentry@@@Z ENDP ; DataMapInit<CWpnSentry>
; Function compile flags: /Odtp /ZI
; File d:\!diffusion 2020\source code 2022\client-server\common\datamap.h
;	COMDAT ??$DataMapAccess@VCBasePlayerWeapon@@@@YAXPAVCBasePlayerWeapon@@PAPAUdatamap_s@@@Z
_TEXT	SEGMENT
_ignored$ = 8						; size = 4
_p$ = 12						; size = 4
??$DataMapAccess@VCBasePlayerWeapon@@@@YAXPAVCBasePlayerWeapon@@PAPAUdatamap_s@@@Z PROC ; DataMapAccess<CBasePlayerWeapon>, COMDAT

; 184  : {

	push	ebp
	mov	ebp, esp
	sub	esp, 64					; 00000040H
	push	ebx
	push	esi
	push	edi

; 185  : 	*p = &T::m_DataMap;

	mov	eax, DWORD PTR _p$[ebp]
	mov	DWORD PTR [eax], OFFSET ?m_DataMap@CBasePlayerWeapon@@2Udatamap_s@@A ; CBasePlayerWeapon::m_DataMap

; 186  : }

	pop	edi
	pop	esi
	pop	ebx
	mov	esp, ebp
	pop	ebp
	ret	0
??$DataMapAccess@VCBasePlayerWeapon@@@@YAXPAVCBasePlayerWeapon@@PAPAUdatamap_s@@@Z ENDP ; DataMapAccess<CBasePlayerWeapon>
_TEXT	ENDS
; Function compile flags: /Odtp /ZI
; File d:\!diffusion 2020\source code 2022\client-server\server\weapons\weapon_sentry.cpp
;	COMDAT ??__Eweapon_sentry@@YAXXZ
text$di	SEGMENT
??__Eweapon_sentry@@YAXXZ PROC				; `dynamic initializer for 'weapon_sentry'', COMDAT

; 65   : LINK_ENTITY_TO_CLASS( weapon_sentry, CWpnSentry );

	push	ebp
	mov	ebp, esp
	sub	esp, 64					; 00000040H
	push	ebx
	push	esi
	push	edi
	push	OFFSET ??_C@_0O@CJMKLEPM@weapon_sentry?$AA@
	mov	ecx, OFFSET ?weapon_sentry@@3V?$CEntityFactory@VCWpnSentry@@@@A
	call	??0?$CEntityFactory@VCWpnSentry@@@@QAE@PBD@Z ; CEntityFactory<CWpnSentry>::CEntityFactory<CWpnSentry>
	pop	edi
	pop	esi
	pop	ebx
	mov	esp, ebp
	pop	ebp
	ret	0
??__Eweapon_sentry@@YAXXZ ENDP				; `dynamic initializer for 'weapon_sentry''
text$di	ENDS
; Function compile flags: /Odtp /ZI
; File d:\!diffusion 2020\source code 2022\client-server\server\util.h
;	COMDAT ?GetEntitySize@?$CEntityFactory@VCWpnSentry@@@@UAEIXZ
_TEXT	SEGMENT
_this$ = -4						; size = 4
?GetEntitySize@?$CEntityFactory@VCWpnSentry@@@@UAEIXZ PROC ; CEntityFactory<CWpnSentry>::GetEntitySize, COMDAT
; _this$ = ecx

; 103  : 	{

	push	ebp
	mov	ebp, esp
	sub	esp, 68					; 00000044H
	push	ebx
	push	esi
	push	edi
	mov	DWORD PTR _this$[ebp], ecx

; 104  : 		return sizeof(T);

	mov	eax, 1952				; 000007a0H

; 105  : 	}

	pop	edi
	pop	esi
	pop	ebx
	mov	esp, ebp
	pop	ebp
	ret	0
?GetEntitySize@?$CEntityFactory@VCWpnSentry@@@@UAEIXZ ENDP ; CEntityFactory<CWpnSentry>::GetEntitySize
_TEXT	ENDS
; Function compile flags: /Odtp /ZI
; File d:\!diffusion 2020\source code 2022\client-server\server\util.h
;	COMDAT ?Destroy@?$CEntityFactory@VCWpnSentry@@@@UAEXPAVCBaseEntity@@@Z
_TEXT	SEGMENT
_this$ = -4						; size = 4
_pEntity$ = 8						; size = 4
?Destroy@?$CEntityFactory@VCWpnSentry@@@@UAEXPAVCBaseEntity@@@Z PROC ; CEntityFactory<CWpnSentry>::Destroy, COMDAT
; _this$ = ecx

; 98   : 	{

	push	ebp
	mov	ebp, esp
	sub	esp, 68					; 00000044H
	push	ebx
	push	esi
	push	edi
	mov	DWORD PTR _this$[ebp], ecx

; 99   : 		UTIL_Remove( pEntity );

	mov	eax, DWORD PTR _pEntity$[ebp]
	push	eax
	call	?UTIL_Remove@@YAXPAVCBaseEntity@@@Z	; UTIL_Remove
	add	esp, 4

; 100  : 	}

	pop	edi
	pop	esi
	pop	ebx
	mov	esp, ebp
	pop	ebp
	ret	4
?Destroy@?$CEntityFactory@VCWpnSentry@@@@UAEXPAVCBaseEntity@@@Z ENDP ; CEntityFactory<CWpnSentry>::Destroy
_TEXT	ENDS
; Function compile flags: /Odtp /ZI
; File d:\!diffusion 2020\source code 2022\client-server\server\util.h
;	COMDAT ?Create@?$CEntityFactory@VCWpnSentry@@@@UAEPAVCBaseEntity@@PBDPAUentvars_s@@@Z
_TEXT	SEGMENT
_pEnt$ = -8						; size = 4
_this$ = -4						; size = 4
_pClassName$ = 8					; size = 4
_pev$ = 12						; size = 4
?Create@?$CEntityFactory@VCWpnSentry@@@@UAEPAVCBaseEntity@@PBDPAUentvars_s@@@Z PROC ; CEntityFactory<CWpnSentry>::Create, COMDAT
; _this$ = ecx

; 92   : 	{

	push	ebp
	mov	ebp, esp
	sub	esp, 72					; 00000048H
	push	ebx
	push	esi
	push	edi
	mov	DWORD PTR _this$[ebp], ecx

; 93   : 		T* pEnt = GetClassPtr((T*)pev, pClassName);

	mov	eax, DWORD PTR _pClassName$[ebp]
	push	eax
	mov	ecx, DWORD PTR _pev$[ebp]
	push	ecx
	call	??$GetClassPtr@VCWpnSentry@@@@YAPAVCWpnSentry@@PAV0@PBD@Z ; GetClassPtr<CWpnSentry>
	add	esp, 8
	mov	DWORD PTR _pEnt$[ebp], eax

; 94   : 		return pEnt;

	mov	eax, DWORD PTR _pEnt$[ebp]

; 95   : 	}

	pop	edi
	pop	esi
	pop	ebx
	mov	esp, ebp
	pop	ebp
	ret	8
?Create@?$CEntityFactory@VCWpnSentry@@@@UAEPAVCBaseEntity@@PBDPAUentvars_s@@@Z ENDP ; CEntityFactory<CWpnSentry>::Create
_TEXT	ENDS
; Function compile flags: /Odtp /ZI
; File d:\!diffusion 2020\source code 2022\client-server\server\util.h
;	COMDAT ??0?$CEntityFactory@VCWpnSentry@@@@QAE@PBD@Z
_TEXT	SEGMENT
tv76 = -72						; size = 4
_this$ = -4						; size = 4
_pClassName$ = 8					; size = 4
??0?$CEntityFactory@VCWpnSentry@@@@QAE@PBD@Z PROC	; CEntityFactory<CWpnSentry>::CEntityFactory<CWpnSentry>, COMDAT
; _this$ = ecx

; 86   : 	CEntityFactory( const char *pClassName )

	push	ebp
	mov	ebp, esp
	sub	esp, 72					; 00000048H
	push	ebx
	push	esi
	push	edi
	mov	DWORD PTR _this$[ebp], ecx

; 87   : 	{

	mov	ecx, DWORD PTR _this$[ebp]
	call	??0IEntityFactory@@QAE@XZ
	mov	eax, DWORD PTR _this$[ebp]
	mov	DWORD PTR [eax], OFFSET ??_7?$CEntityFactory@VCWpnSentry@@@@6B@

; 88   : 		EntityFactoryDictionary()->InstallFactory( this, pClassName );

	call	?EntityFactoryDictionary@@YAPAVIEntityFactoryDictionary@@XZ ; EntityFactoryDictionary
	mov	DWORD PTR tv76[ebp], eax
	mov	eax, DWORD PTR _pClassName$[ebp]
	push	eax
	mov	ecx, DWORD PTR _this$[ebp]
	push	ecx
	mov	edx, DWORD PTR tv76[ebp]
	mov	eax, DWORD PTR [edx]
	mov	ecx, DWORD PTR tv76[ebp]
	mov	edx, DWORD PTR [eax]
	call	edx

; 89   : 	}

	mov	eax, DWORD PTR _this$[ebp]
	pop	edi
	pop	esi
	pop	ebx
	mov	esp, ebp
	pop	ebp
	ret	4
??0?$CEntityFactory@VCWpnSentry@@@@QAE@PBD@Z ENDP	; CEntityFactory<CWpnSentry>::CEntityFactory<CWpnSentry>
_TEXT	ENDS
; Function compile flags: /Odtp /ZI
;	COMDAT ??0CWpnSentry@@QAE@XZ
_TEXT	SEGMENT
_this$ = -4						; size = 4
??0CWpnSentry@@QAE@XZ PROC				; CWpnSentry::CWpnSentry, COMDAT
; _this$ = ecx
	push	ebp
	mov	ebp, esp
	sub	esp, 68					; 00000044H
	push	ebx
	push	esi
	push	edi
	mov	DWORD PTR _this$[ebp], ecx
	mov	ecx, DWORD PTR _this$[ebp]
	call	??0CBasePlayerWeapon@@QAE@XZ
	mov	eax, DWORD PTR _this$[ebp]
	mov	DWORD PTR [eax], OFFSET ??_7CWpnSentry@@6B@
	mov	eax, DWORD PTR _this$[ebp]
	pop	edi
	pop	esi
	pop	ebx
	mov	esp, ebp
	pop	ebp
	ret	0
??0CWpnSentry@@QAE@XZ ENDP				; CWpnSentry::CWpnSentry
_TEXT	ENDS
; Function compile flags: /Odtp /ZI
; File d:\!diffusion 2020\source code 2022\client-server\server\weapons\weapon_sentry.cpp
;	COMDAT ?GetDataDescMap@CWpnSentry@@UAEPAUdatamap_s@@XZ
_TEXT	SEGMENT
_this$ = -4						; size = 4
?GetDataDescMap@CWpnSentry@@UAEPAUdatamap_s@@XZ PROC	; CWpnSentry::GetDataDescMap, COMDAT
; _this$ = ecx

; 67   : BEGIN_DATADESC( CWpnSentry )

	push	ebp
	mov	ebp, esp
	sub	esp, 68					; 00000044H
	push	ebx
	push	esi
	push	edi
	mov	DWORD PTR _this$[ebp], ecx
	mov	eax, OFFSET ?m_DataMap@CWpnSentry@@2Udatamap_s@@A ; CWpnSentry::m_DataMap
	pop	edi
	pop	esi
	pop	ebx
	mov	esp, ebp
	pop	ebp
	ret	0
?GetDataDescMap@CWpnSentry@@UAEPAUdatamap_s@@XZ ENDP	; CWpnSentry::GetDataDescMap
_TEXT	ENDS
; Function compile flags: /Odtp /ZI
; File d:\!diffusion 2020\source code 2022\client-server\server\weapons\weapon_sentry.cpp
;	COMDAT ?GetBaseMap@CWpnSentry@@SAPAUdatamap_s@@XZ
_TEXT	SEGMENT
_pResult$ = -4						; size = 4
?GetBaseMap@CWpnSentry@@SAPAUdatamap_s@@XZ PROC		; CWpnSentry::GetBaseMap, COMDAT

; 67   : BEGIN_DATADESC( CWpnSentry )

	push	ebp
	mov	ebp, esp
	sub	esp, 68					; 00000044H
	push	ebx
	push	esi
	push	edi
	lea	eax, DWORD PTR _pResult$[ebp]
	push	eax
	push	0
	call	??$DataMapAccess@VCBasePlayerWeapon@@@@YAXPAVCBasePlayerWeapon@@PAPAUdatamap_s@@@Z ; DataMapAccess<CBasePlayerWeapon>
	add	esp, 8
	mov	eax, DWORD PTR _pResult$[ebp]
	pop	edi
	pop	esi
	pop	ebx
	mov	esp, ebp
	pop	ebp
	ret	0
?GetBaseMap@CWpnSentry@@SAPAUdatamap_s@@XZ ENDP		; CWpnSentry::GetBaseMap
_TEXT	ENDS
; Function compile flags: /Odtp /ZI
; File d:\!diffusion 2020\source code 2022\client-server\server\weapons\weapon_sentry.cpp
;	COMDAT ?SpawnTest@CWpnSentry@@QAE_NXZ
_TEXT	SEGMENT
$T1 = -184						; size = 12
$T2 = -172						; size = 12
$T3 = -160						; size = 12
_vecSrc$ = -84						; size = 12
_anglesAim$ = -72					; size = 12
_tracer$ = -60						; size = 56
_this$ = -4						; size = 4
?SpawnTest@CWpnSentry@@QAE_NXZ PROC			; CWpnSentry::SpawnTest, COMDAT
; _this$ = ecx

; 154  : {

	push	ebp
	mov	ebp, esp
	sub	esp, 184				; 000000b8H
	push	ebx
	push	esi
	push	edi
	mov	DWORD PTR _this$[ebp], ecx

; 155  : 	TraceResult tracer;

	lea	ecx, DWORD PTR _tracer$[ebp]
	call	??0gametrace_s@@QAE@XZ

; 156  : 	Vector anglesAim = m_pPlayer->pev->v_angle;

	mov	eax, DWORD PTR _this$[ebp]
	mov	ecx, DWORD PTR [eax+1856]
	mov	edx, DWORD PTR [ecx+4]
	add	edx, 116				; 00000074H
	push	edx
	lea	ecx, DWORD PTR _anglesAim$[ebp]
	call	??0Vector@@QAE@ABV0@@Z			; Vector::Vector

; 157  : 
; 158  : 	if( anglesAim.x > 15.0f ) // small hack for more intuitive turret placing at the floor

	movss	xmm0, DWORD PTR _anglesAim$[ebp]
	comiss	xmm0, DWORD PTR __real@41700000
	jbe	SHORT $LN2@SpawnTest

; 159  : 		anglesAim.x = 15.0f;

	movss	xmm0, DWORD PTR __real@41700000
	movss	DWORD PTR _anglesAim$[ebp], xmm0
$LN2@SpawnTest:

; 160  : 
; 161  : 	anglesAim.x *= 0.75;

	cvtss2sd xmm0, DWORD PTR _anglesAim$[ebp]
	mulsd	xmm0, QWORD PTR __real@3fe8000000000000
	cvtsd2ss xmm0, xmm0
	movss	DWORD PTR _anglesAim$[ebp], xmm0

; 162  : 	UTIL_MakeVectors( anglesAim );

	lea	eax, DWORD PTR _anglesAim$[ebp]
	push	eax
	call	?UTIL_MakeVectors@@YAXABVVector@@@Z	; UTIL_MakeVectors
	add	esp, 4

; 163  : //	Vector vecSrc = m_pPlayer->GetAbsOrigin();
; 164  : //	Vector vecEnd = vecSrc + gpGlobals->v_forward * 50;
; 165  : 	Vector vecSrc = m_pPlayer->GetAbsOrigin() + gpGlobals->v_forward * 50 + gpGlobals->v_up * 10;

	push	ecx
	movss	xmm0, DWORD PTR __real@41200000
	movss	DWORD PTR [esp], xmm0
	lea	eax, DWORD PTR $T1[ebp]
	push	eax
	mov	ecx, DWORD PTR ?gpGlobals@@3PAUglobalvars_t@@A ; gpGlobals
	add	ecx, 52					; 00000034H
	call	??DVector@@QBE?AV0@M@Z			; Vector::operator*
	push	eax
	lea	ecx, DWORD PTR _vecSrc$[ebp]
	push	ecx
	push	ecx
	movss	xmm0, DWORD PTR __real@42480000
	movss	DWORD PTR [esp], xmm0
	lea	edx, DWORD PTR $T3[ebp]
	push	edx
	mov	ecx, DWORD PTR ?gpGlobals@@3PAUglobalvars_t@@A ; gpGlobals
	add	ecx, 40					; 00000028H
	call	??DVector@@QBE?AV0@M@Z			; Vector::operator*
	push	eax
	lea	eax, DWORD PTR $T2[ebp]
	push	eax
	mov	ecx, DWORD PTR _this$[ebp]
	mov	ecx, DWORD PTR [ecx+1856]
	call	?GetAbsOrigin@CBaseEntity@@QBEABVVector@@XZ ; CBaseEntity::GetAbsOrigin
	mov	ecx, eax
	call	??HVector@@QBE?AV0@ABV0@@Z		; Vector::operator+
	mov	ecx, eax
	call	??HVector@@QBE?AV0@ABV0@@Z		; Vector::operator+

; 166  : 
; 167  : 	UTIL_TraceHull( vecSrc, vecSrc, dont_ignore_monsters, human_hull, m_pPlayer->edict(), &tracer );

	lea	eax, DWORD PTR _tracer$[ebp]
	push	eax
	mov	ecx, DWORD PTR _this$[ebp]
	mov	ecx, DWORD PTR [ecx+1856]
	call	?edict@CBaseEntity@@QAEPAUedict_s@@XZ	; CBaseEntity::edict
	push	eax
	push	1
	push	0
	lea	edx, DWORD PTR _vecSrc$[ebp]
	push	edx
	lea	eax, DWORD PTR _vecSrc$[ebp]
	push	eax
	call	?UTIL_TraceHull@@YAXABVVector@@0W4IGNORE_MONSTERS@@HPAUedict_s@@PAUgametrace_s@@@Z ; UTIL_TraceHull
	add	esp, 24					; 00000018H

; 168  : 	if( (tracer.flFraction < 1.0f) || tracer.fAllSolid )

	movss	xmm0, DWORD PTR __real@3f800000
	comiss	xmm0, DWORD PTR _tracer$[ebp+16]
	ja	SHORT $LN4@SpawnTest
	cmp	DWORD PTR _tracer$[ebp], 0
	je	SHORT $LN3@SpawnTest
$LN4@SpawnTest:

; 169  : 		return false;

	xor	al, al
	jmp	SHORT $LN1@SpawnTest
$LN3@SpawnTest:

; 170  : 
; 171  : 	// don't spawn behind the glass!!!
; 172  : 	UTIL_TraceLine( m_pPlayer->GetAbsOrigin(), vecSrc, dont_ignore_monsters, dont_ignore_glass, edict(), &tracer );

	lea	eax, DWORD PTR _tracer$[ebp]
	push	eax
	mov	ecx, DWORD PTR _this$[ebp]
	call	?edict@CBaseEntity@@QAEPAUedict_s@@XZ	; CBaseEntity::edict
	push	eax
	push	0
	push	0
	lea	ecx, DWORD PTR _vecSrc$[ebp]
	push	ecx
	mov	edx, DWORD PTR _this$[ebp]
	mov	ecx, DWORD PTR [edx+1856]
	call	?GetAbsOrigin@CBaseEntity@@QBEABVVector@@XZ ; CBaseEntity::GetAbsOrigin
	push	eax
	call	?UTIL_TraceLine@@YAXABVVector@@0W4IGNORE_MONSTERS@@W4IGNORE_GLASS@@PAUedict_s@@PAUgametrace_s@@@Z ; UTIL_TraceLine
	add	esp, 24					; 00000018H

; 173  : 	if( (tracer.flFraction < 1.0f) || tracer.fAllSolid )

	movss	xmm0, DWORD PTR __real@3f800000
	comiss	xmm0, DWORD PTR _tracer$[ebp+16]
	ja	SHORT $LN6@SpawnTest
	cmp	DWORD PTR _tracer$[ebp], 0
	je	SHORT $LN5@SpawnTest
$LN6@SpawnTest:

; 174  : 		return false;

	xor	al, al
	jmp	SHORT $LN1@SpawnTest
$LN5@SpawnTest:

; 175  : 
; 176  : 	// last thing...
; 177  : 	if( UTIL_PointContents( vecSrc ) == CONTENTS_WATER )

	lea	eax, DWORD PTR _vecSrc$[ebp]
	push	eax
	call	?UTIL_PointContents@@YAHABVVector@@@Z	; UTIL_PointContents
	add	esp, 4
	cmp	eax, -3					; fffffffdH
	jne	SHORT $LN7@SpawnTest

; 178  : 		return false;

	xor	al, al
	jmp	SHORT $LN1@SpawnTest
$LN7@SpawnTest:

; 179  : 
; 180  : 	return true;

	mov	al, 1
$LN1@SpawnTest:

; 181  : }

	pop	edi
	pop	esi
	pop	ebx
	mov	esp, ebp
	pop	ebp
	ret	0
?SpawnTest@CWpnSentry@@QAE_NXZ ENDP			; CWpnSentry::SpawnTest
_TEXT	ENDS
; Function compile flags: /Odtp /ZI
; File d:\!diffusion 2020\source code 2022\client-server\server\weapons\weapon_sentry.cpp
;	COMDAT ?WeaponIdle@CWpnSentry@@UAEXXZ
_TEXT	SEGMENT
tv470 = -168						; size = 4
tv301 = -168						; size = 4
tv194 = -168						; size = 4
tv180 = -168						; size = 4
$T1 = -164						; size = 12
$T2 = -152						; size = 12
$T3 = -140						; size = 12
$T4 = -128						; size = 12
$T5 = -116						; size = 12
$T6 = -104						; size = 12
_SpawnPos$7 = -28					; size = 12
_anglesAim$8 = -16					; size = 12
_this$ = -4						; size = 4
?WeaponIdle@CWpnSentry@@UAEXXZ PROC			; CWpnSentry::WeaponIdle, COMDAT
; _this$ = ecx

; 288  : {

	push	ebp
	mov	ebp, esp
	sub	esp, 168				; 000000a8H
	push	ebx
	push	esi
	push	edi
	mov	DWORD PTR _this$[ebp], ecx

; 289  : 	ResetEmptySound( );

	mov	eax, DWORD PTR _this$[ebp]
	mov	edx, DWORD PTR [eax]
	mov	ecx, DWORD PTR _this$[ebp]
	mov	eax, DWORD PTR [edx+468]
	call	eax

; 290  : 
; 291  : 	m_pPlayer->GetAutoaimVector( AUTOAIM_5DEGREES );

	push	ecx
	movss	xmm0, DWORD PTR __real@3db27eb6
	movss	DWORD PTR [esp], xmm0
	lea	eax, DWORD PTR $T6[ebp]
	push	eax
	mov	ecx, DWORD PTR _this$[ebp]
	mov	ecx, DWORD PTR [ecx+1856]
	call	?GetAutoaimVector@CBasePlayer@@QAE?AVVector@@M@Z ; CBasePlayer::GetAutoaimVector

; 292  : 
; 293  : 	// show test model
; 294  : 	if( m_pPlayer->CanShoot && m_flNextPrimaryAttack < gpGlobals->time )

	mov	eax, DWORD PTR _this$[ebp]
	mov	ecx, DWORD PTR [eax+1856]
	movzx	edx, BYTE PTR [ecx+4478]
	test	edx, edx
	je	$LN2@WeaponIdle
	mov	eax, DWORD PTR ?gpGlobals@@3PAUglobalvars_t@@A ; gpGlobals
	mov	ecx, DWORD PTR _this$[ebp]
	movss	xmm0, DWORD PTR [eax]
	comiss	xmm0, DWORD PTR [ecx+1884]
	jbe	$LN2@WeaponIdle

; 295  : 	{
; 296  : 		if( m_hTestModel == NULL )

	mov	ecx, DWORD PTR _this$[ebp]
	add	ecx, 1940				; 00000794H
	call	??BEHANDLE@@QAEHXZ			; EHANDLE::operator int
	test	eax, eax
	jne	$LN4@WeaponIdle

; 297  : 		{
; 298  : 			m_hTestModel = CBaseEntity::Create( "info_target", m_pPlayer->GetAbsOrigin(), g_vecZero, 0 );

	push	0
	push	OFFSET ?g_vecZero@@3VVector@@B		; g_vecZero
	mov	eax, DWORD PTR _this$[ebp]
	mov	ecx, DWORD PTR [eax+1856]
	call	?GetAbsOrigin@CBaseEntity@@QBEABVVector@@XZ ; CBaseEntity::GetAbsOrigin
	push	eax
	push	OFFSET ??_C@_0M@BLHFOIPE@info_target?$AA@
	call	?Create@CBaseEntity@@SAPAV1@PADABVVector@@1PAUedict_s@@@Z ; CBaseEntity::Create
	add	esp, 16					; 00000010H
	push	eax
	mov	ecx, DWORD PTR _this$[ebp]
	add	ecx, 1940				; 00000794H
	call	??4EHANDLE@@QAEPAVCBaseEntity@@PAV1@@Z	; EHANDLE::operator=

; 299  : 			if( m_hTestModel != NULL )

	mov	ecx, DWORD PTR _this$[ebp]
	add	ecx, 1940				; 00000794H
	call	??BEHANDLE@@QAEHXZ			; EHANDLE::operator int
	test	eax, eax
	je	$LN6@WeaponIdle

; 300  : 			{
; 301  : 				SET_MODEL( m_hTestModel->edict(), "models/sentry.mdl" );

	push	OFFSET ??_C@_0BC@OENNHJAA@models?1sentry?4mdl?$AA@
	mov	ecx, DWORD PTR _this$[ebp]
	add	ecx, 1940				; 00000794H
	call	??CEHANDLE@@QAEPAVCBaseEntity@@XZ	; EHANDLE::operator->
	mov	ecx, eax
	call	?edict@CBaseEntity@@QAEPAUedict_s@@XZ	; CBaseEntity::edict
	push	eax
	call	DWORD PTR ?g_engfuncs@@3Uenginefuncs_s@@A+8
	add	esp, 8

; 302  : 				m_hTestModel->pev->rendermode = kRenderTransColor;

	mov	ecx, DWORD PTR _this$[ebp]
	add	ecx, 1940				; 00000794H
	call	??CEHANDLE@@QAEPAVCBaseEntity@@XZ	; EHANDLE::operator->
	mov	eax, DWORD PTR [eax+4]
	mov	DWORD PTR [eax+328], 1

; 303  : 				m_hTestModel->pev->renderamt = 175;

	mov	ecx, DWORD PTR _this$[ebp]
	add	ecx, 1940				; 00000794H
	call	??CEHANDLE@@QAEPAVCBaseEntity@@XZ	; EHANDLE::operator->
	mov	eax, DWORD PTR [eax+4]
	movss	xmm0, DWORD PTR __real@432f0000
	movss	DWORD PTR [eax+332], xmm0

; 304  : 				m_hTestModel->pev->renderfx = kRenderFxFullbrightNoShadows;

	mov	ecx, DWORD PTR _this$[ebp]
	add	ecx, 1940				; 00000794H
	call	??CEHANDLE@@QAEPAVCBaseEntity@@XZ	; EHANDLE::operator->
	mov	eax, DWORD PTR [eax+4]
	mov	DWORD PTR [eax+348], 25			; 00000019H

; 305  : 				m_hTestModel->pev->effects |= EF_SKIPPVS;

	mov	ecx, DWORD PTR _this$[ebp]
	add	ecx, 1940				; 00000794H
	call	??CEHANDLE@@QAEPAVCBaseEntity@@XZ	; EHANDLE::operator->
	mov	eax, DWORD PTR [eax+4]
	add	eax, 280				; 00000118H
	mov	DWORD PTR tv180[ebp], eax
	mov	ecx, DWORD PTR tv180[ebp]
	mov	edx, DWORD PTR [ecx]
	or	edx, 1048576				; 00100000H
	mov	eax, DWORD PTR tv180[ebp]
	mov	DWORD PTR [eax], edx
$LN6@WeaponIdle:

; 306  : 			}
; 307  : 		}
; 308  : 		else

	jmp	$LN10@WeaponIdle
$LN4@WeaponIdle:

; 309  : 		{
; 310  : 			if( m_hTestModel->pev->effects & EF_NODRAW )

	mov	ecx, DWORD PTR _this$[ebp]
	add	ecx, 1940				; 00000794H
	call	??CEHANDLE@@QAEPAVCBaseEntity@@XZ	; EHANDLE::operator->
	mov	eax, DWORD PTR [eax+4]
	mov	ecx, DWORD PTR [eax+280]
	and	ecx, 128				; 00000080H
	je	SHORT $LN7@WeaponIdle

; 311  : 				m_hTestModel->pev->effects &= ~EF_NODRAW;

	mov	ecx, DWORD PTR _this$[ebp]
	add	ecx, 1940				; 00000794H
	call	??CEHANDLE@@QAEPAVCBaseEntity@@XZ	; EHANDLE::operator->
	mov	eax, DWORD PTR [eax+4]
	add	eax, 280				; 00000118H
	mov	DWORD PTR tv194[ebp], eax
	mov	ecx, DWORD PTR tv194[ebp]
	mov	edx, DWORD PTR [ecx]
	and	edx, -129				; ffffff7fH
	mov	eax, DWORD PTR tv194[ebp]
	mov	DWORD PTR [eax], edx
$LN7@WeaponIdle:

; 312  : 
; 313  : 			Vector anglesAim = m_pPlayer->pev->v_angle;

	mov	eax, DWORD PTR _this$[ebp]
	mov	ecx, DWORD PTR [eax+1856]
	mov	edx, DWORD PTR [ecx+4]
	add	edx, 116				; 00000074H
	push	edx
	lea	ecx, DWORD PTR _anglesAim$8[ebp]
	call	??0Vector@@QAE@ABV0@@Z			; Vector::Vector

; 314  : 			if( anglesAim.x > 15.0f ) // small hack for more intuitive turret placing at the floor

	movss	xmm0, DWORD PTR _anglesAim$8[ebp]
	comiss	xmm0, DWORD PTR __real@41700000
	jbe	SHORT $LN8@WeaponIdle

; 315  : 				anglesAim.x = 15.0f;

	movss	xmm0, DWORD PTR __real@41700000
	movss	DWORD PTR _anglesAim$8[ebp], xmm0
$LN8@WeaponIdle:

; 316  : 
; 317  : 			anglesAim.x *= 0.75;

	cvtss2sd xmm0, DWORD PTR _anglesAim$8[ebp]
	mulsd	xmm0, QWORD PTR __real@3fe8000000000000
	cvtsd2ss xmm0, xmm0
	movss	DWORD PTR _anglesAim$8[ebp], xmm0

; 318  : 			UTIL_MakeVectors( anglesAim );

	lea	eax, DWORD PTR _anglesAim$8[ebp]
	push	eax
	call	?UTIL_MakeVectors@@YAXABVVector@@@Z	; UTIL_MakeVectors
	add	esp, 4

; 319  : 			Vector SpawnPos = m_pPlayer->GetAbsOrigin() + gpGlobals->v_forward * 50 - gpGlobals->v_up * 10;

	push	ecx
	movss	xmm0, DWORD PTR __real@41200000
	movss	DWORD PTR [esp], xmm0
	lea	eax, DWORD PTR $T3[ebp]
	push	eax
	mov	ecx, DWORD PTR ?gpGlobals@@3PAUglobalvars_t@@A ; gpGlobals
	add	ecx, 52					; 00000034H
	call	??DVector@@QBE?AV0@M@Z			; Vector::operator*
	push	eax
	lea	ecx, DWORD PTR _SpawnPos$7[ebp]
	push	ecx
	push	ecx
	movss	xmm0, DWORD PTR __real@42480000
	movss	DWORD PTR [esp], xmm0
	lea	edx, DWORD PTR $T5[ebp]
	push	edx
	mov	ecx, DWORD PTR ?gpGlobals@@3PAUglobalvars_t@@A ; gpGlobals
	add	ecx, 40					; 00000028H
	call	??DVector@@QBE?AV0@M@Z			; Vector::operator*
	push	eax
	lea	eax, DWORD PTR $T4[ebp]
	push	eax
	mov	ecx, DWORD PTR _this$[ebp]
	mov	ecx, DWORD PTR [ecx+1856]
	call	?GetAbsOrigin@CBaseEntity@@QBEABVVector@@XZ ; CBaseEntity::GetAbsOrigin
	mov	ecx, eax
	call	??HVector@@QBE?AV0@ABV0@@Z		; Vector::operator+
	mov	ecx, eax
	call	??GVector@@QBE?AV0@ABV0@@Z		; Vector::operator-

; 320  : 			m_hTestModel->SetAbsOrigin( SpawnPos );

	lea	eax, DWORD PTR _SpawnPos$7[ebp]
	push	eax
	mov	ecx, DWORD PTR _this$[ebp]
	add	ecx, 1940				; 00000794H
	call	??CEHANDLE@@QAEPAVCBaseEntity@@XZ	; EHANDLE::operator->
	mov	ecx, eax
	call	?SetAbsOrigin@CBaseEntity@@QAEXABVVector@@@Z ; CBaseEntity::SetAbsOrigin

; 321  : 			m_hTestModel->RelinkEntity( FALSE );

	push	0
	push	0
	push	0
	mov	ecx, DWORD PTR _this$[ebp]
	add	ecx, 1940				; 00000794H
	call	??CEHANDLE@@QAEPAVCBaseEntity@@XZ	; EHANDLE::operator->
	mov	ecx, eax
	call	?RelinkEntity@CBaseEntity@@QAEXHPBVVector@@H@Z ; CBaseEntity::RelinkEntity

; 322  : 
; 323  : 			if( !SpawnTest() || (m_pPlayer->pev->waterlevel == 3) )

	mov	ecx, DWORD PTR _this$[ebp]
	call	?SpawnTest@CWpnSentry@@QAE_NXZ		; CWpnSentry::SpawnTest
	movzx	eax, al
	test	eax, eax
	je	SHORT $LN11@WeaponIdle
	mov	eax, DWORD PTR _this$[ebp]
	mov	ecx, DWORD PTR [eax+1856]
	mov	edx, DWORD PTR [ecx+4]
	cmp	DWORD PTR [edx+448], 3
	jne	SHORT $LN9@WeaponIdle
$LN11@WeaponIdle:

; 324  : 				m_hTestModel->pev->rendercolor = Vector( 255, 50, 50 );

	push	ecx
	movss	xmm0, DWORD PTR __real@42480000
	movss	DWORD PTR [esp], xmm0
	push	ecx
	movss	xmm0, DWORD PTR __real@42480000
	movss	DWORD PTR [esp], xmm0
	push	ecx
	movss	xmm0, DWORD PTR __real@437f0000
	movss	DWORD PTR [esp], xmm0
	lea	ecx, DWORD PTR $T2[ebp]
	call	??0Vector@@QAE@MMM@Z			; Vector::Vector
	mov	esi, eax
	mov	ecx, DWORD PTR _this$[ebp]
	add	ecx, 1940				; 00000794H
	call	??CEHANDLE@@QAEPAVCBaseEntity@@XZ	; EHANDLE::operator->
	mov	eax, DWORD PTR [eax+4]
	add	eax, 336				; 00000150H
	mov	ecx, DWORD PTR [esi]
	mov	DWORD PTR [eax], ecx
	mov	edx, DWORD PTR [esi+4]
	mov	DWORD PTR [eax+4], edx
	mov	ecx, DWORD PTR [esi+8]
	mov	DWORD PTR [eax+8], ecx

; 325  : 			else

	jmp	SHORT $LN10@WeaponIdle
$LN9@WeaponIdle:

; 326  : 				m_hTestModel->pev->rendercolor = Vector( 50, 255, 50 );

	push	ecx
	movss	xmm0, DWORD PTR __real@42480000
	movss	DWORD PTR [esp], xmm0
	push	ecx
	movss	xmm0, DWORD PTR __real@437f0000
	movss	DWORD PTR [esp], xmm0
	push	ecx
	movss	xmm0, DWORD PTR __real@42480000
	movss	DWORD PTR [esp], xmm0
	lea	ecx, DWORD PTR $T1[ebp]
	call	??0Vector@@QAE@MMM@Z			; Vector::Vector
	mov	esi, eax
	mov	ecx, DWORD PTR _this$[ebp]
	add	ecx, 1940				; 00000794H
	call	??CEHANDLE@@QAEPAVCBaseEntity@@XZ	; EHANDLE::operator->
	mov	eax, DWORD PTR [eax+4]
	add	eax, 336				; 00000150H
	mov	ecx, DWORD PTR [esi]
	mov	DWORD PTR [eax], ecx
	mov	edx, DWORD PTR [esi+4]
	mov	DWORD PTR [eax+4], edx
	mov	ecx, DWORD PTR [esi+8]
	mov	DWORD PTR [eax+8], ecx
$LN10@WeaponIdle:

; 327  : 		}
; 328  : 	}
; 329  : 	else

	jmp	SHORT $LN12@WeaponIdle
$LN2@WeaponIdle:

; 330  : 	{
; 331  : 		if( m_hTestModel != NULL )

	mov	ecx, DWORD PTR _this$[ebp]
	add	ecx, 1940				; 00000794H
	call	??BEHANDLE@@QAEHXZ			; EHANDLE::operator int
	test	eax, eax
	je	SHORT $LN12@WeaponIdle

; 332  : 			m_hTestModel->pev->effects |= EF_NODRAW;

	mov	ecx, DWORD PTR _this$[ebp]
	add	ecx, 1940				; 00000794H
	call	??CEHANDLE@@QAEPAVCBaseEntity@@XZ	; EHANDLE::operator->
	mov	eax, DWORD PTR [eax+4]
	add	eax, 280				; 00000118H
	mov	DWORD PTR tv301[ebp], eax
	mov	ecx, DWORD PTR tv301[ebp]
	mov	edx, DWORD PTR [ecx]
	or	edx, 128				; 00000080H
	mov	eax, DWORD PTR tv301[ebp]
	mov	DWORD PTR [eax], edx
$LN12@WeaponIdle:

; 333  : 	}
; 334  : 
; 335  : 	if (m_flTimeWeaponIdle > gpGlobals->time)

	mov	eax, DWORD PTR _this$[ebp]
	mov	ecx, DWORD PTR ?gpGlobals@@3PAUglobalvars_t@@A ; gpGlobals
	movss	xmm0, DWORD PTR [eax+1892]
	comiss	xmm0, DWORD PTR [ecx]
	jbe	SHORT $LN13@WeaponIdle

; 336  : 		return;

	jmp	SHORT $LN1@WeaponIdle
$LN13@WeaponIdle:

; 337  : 
; 338  : 	SendWeaponAnim( SENTRY_IDLE );

	push	0
	push	0
	push	0
	mov	eax, DWORD PTR _this$[ebp]
	mov	edx, DWORD PTR [eax]
	mov	ecx, DWORD PTR _this$[ebp]
	mov	eax, DWORD PTR [edx+472]
	call	eax

; 339  : 
; 340  : 	m_flTimeWeaponIdle = gpGlobals->time + RANDOM_FLOAT ( 10, 15 );// how long till we do this again.

	push	ecx
	movss	xmm0, DWORD PTR __real@41700000
	movss	DWORD PTR [esp], xmm0
	push	ecx
	movss	xmm0, DWORD PTR __real@41200000
	movss	DWORD PTR [esp], xmm0
	call	DWORD PTR ?g_engfuncs@@3Uenginefuncs_s@@A+364
	add	esp, 8
	fstp	DWORD PTR tv470[ebp]
	mov	eax, DWORD PTR ?gpGlobals@@3PAUglobalvars_t@@A ; gpGlobals
	movss	xmm0, DWORD PTR tv470[ebp]
	addss	xmm0, DWORD PTR [eax]
	mov	ecx, DWORD PTR _this$[ebp]
	movss	DWORD PTR [ecx+1892], xmm0
$LN1@WeaponIdle:

; 341  : }

	pop	edi
	pop	esi
	pop	ebx
	mov	esp, ebp
	pop	ebp
	ret	0
?WeaponIdle@CWpnSentry@@UAEXXZ ENDP			; CWpnSentry::WeaponIdle
_TEXT	ENDS
; Function compile flags: /Odtp /ZI
; File d:\!diffusion 2020\source code 2022\client-server\server\weapons\weapon_sentry.cpp
;	COMDAT ?Holster@CWpnSentry@@UAEXXZ
_TEXT	SEGMENT
tv73 = -72						; size = 4
_this$ = -4						; size = 4
?Holster@CWpnSentry@@UAEXXZ PROC			; CWpnSentry::Holster, COMDAT
; _this$ = ecx

; 146  : {

	push	ebp
	mov	ebp, esp
	sub	esp, 72					; 00000048H
	push	ebx
	push	esi
	push	edi
	mov	DWORD PTR _this$[ebp], ecx

; 147  : 	if( m_hTestModel != NULL )

	mov	ecx, DWORD PTR _this$[ebp]
	add	ecx, 1940				; 00000794H
	call	??BEHANDLE@@QAEHXZ			; EHANDLE::operator int
	test	eax, eax
	je	SHORT $LN2@Holster

; 148  : 		m_hTestModel->pev->effects |= EF_NODRAW;

	mov	ecx, DWORD PTR _this$[ebp]
	add	ecx, 1940				; 00000794H
	call	??CEHANDLE@@QAEPAVCBaseEntity@@XZ	; EHANDLE::operator->
	mov	eax, DWORD PTR [eax+4]
	add	eax, 280				; 00000118H
	mov	DWORD PTR tv73[ebp], eax
	mov	ecx, DWORD PTR tv73[ebp]
	mov	edx, DWORD PTR [ecx]
	or	edx, 128				; 00000080H
	mov	eax, DWORD PTR tv73[ebp]
	mov	DWORD PTR [eax], edx
$LN2@Holster:

; 149  : 	
; 150  : 	BaseClass::Holster();

	mov	ecx, DWORD PTR _this$[ebp]
	call	?Holster@CBasePlayerWeapon@@UAEXXZ	; CBasePlayerWeapon::Holster

; 151  : }

	pop	edi
	pop	esi
	pop	ebx
	mov	esp, ebp
	pop	ebp
	ret	0
?Holster@CWpnSentry@@UAEXXZ ENDP			; CWpnSentry::Holster
_TEXT	ENDS
; Function compile flags: /Odtp /ZI
; File d:\!diffusion 2020\source code 2022\client-server\server\weapons\weapon_sentry.cpp
;	COMDAT ?Deploy@CWpnSentry@@UAEHXZ
_TEXT	SEGMENT
_this$ = -4						; size = 4
?Deploy@CWpnSentry@@UAEHXZ PROC				; CWpnSentry::Deploy, COMDAT
; _this$ = ecx

; 139  : {

	push	ebp
	mov	ebp, esp
	sub	esp, 68					; 00000044H
	push	ebx
	push	esi
	push	edi
	mov	DWORD PTR _this$[ebp], ecx

; 140  : 	m_flNextPrimaryAttack = gpGlobals->time + 2;

	mov	eax, DWORD PTR ?gpGlobals@@3PAUglobalvars_t@@A ; gpGlobals
	movss	xmm0, DWORD PTR [eax]
	addss	xmm0, DWORD PTR __real@40000000
	mov	ecx, DWORD PTR _this$[ebp]
	movss	DWORD PTR [ecx+1884], xmm0

; 141  : 	m_flTimeWeaponIdle = gpGlobals->time + 5.0;

	mov	eax, DWORD PTR ?gpGlobals@@3PAUglobalvars_t@@A ; gpGlobals
	cvtss2sd xmm0, DWORD PTR [eax]
	addsd	xmm0, QWORD PTR __real@4014000000000000
	cvtsd2ss xmm0, xmm0
	mov	ecx, DWORD PTR _this$[ebp]
	movss	DWORD PTR [ecx+1892], xmm0

; 142  : 	return DefaultDeploy( "models/v_sentry.mdl", "models/p_sentry.mdl", SENTRY_DEPLOY, "trip" );

	push	0
	push	0
	push	OFFSET ??_C@_04JMIAKPKD@trip?$AA@
	push	1
	push	OFFSET ??_C@_0BE@EGKJPLNE@models?1p_sentry?4mdl?$AA@
	push	OFFSET ??_C@_0BE@OGEMCEAJ@models?1v_sentry?4mdl?$AA@
	mov	ecx, DWORD PTR _this$[ebp]
	call	?DefaultDeploy@CBasePlayerWeapon@@QAEHPAD0H0HH@Z ; CBasePlayerWeapon::DefaultDeploy

; 143  : }

	pop	edi
	pop	esi
	pop	ebx
	mov	esp, ebp
	pop	ebp
	ret	0
?Deploy@CWpnSentry@@UAEHXZ ENDP				; CWpnSentry::Deploy
_TEXT	ENDS
; Function compile flags: /Odtp /ZI
; File d:\!diffusion 2020\source code 2022\client-server\server\weapons\weapon_sentry.cpp
;	COMDAT ?SecondaryAttack@CWpnSentry@@UAEXXZ
_TEXT	SEGMENT
tv187 = -168						; size = 4
$T1 = -164						; size = 12
$T2 = -152						; size = 12
$T3 = -140						; size = 12
$T4 = -128						; size = 12
_SentryAng$ = -52					; size = 12
_vecEnd$ = -40						; size = 12
_vecSrc$ = -28						; size = 12
_anglesAim$ = -16					; size = 12
_this$ = -4						; size = 4
?SecondaryAttack@CWpnSentry@@UAEXXZ PROC		; CWpnSentry::SecondaryAttack, COMDAT
; _this$ = ecx

; 261  : {

	push	ebp
	mov	ebp, esp
	sub	esp, 168				; 000000a8H
	push	ebx
	push	esi
	push	edi
	mov	DWORD PTR _this$[ebp], ecx

; 262  : 	if( m_hTestModel == NULL )

	mov	ecx, DWORD PTR _this$[ebp]
	add	ecx, 1940				; 00000794H
	call	??BEHANDLE@@QAEHXZ			; EHANDLE::operator int
	test	eax, eax
	jne	SHORT $LN2@SecondaryA

; 263  : 		return;

	jmp	$LN1@SecondaryA
$LN2@SecondaryA:

; 264  : 	
; 265  : 	Vector anglesAim = m_pPlayer->pev->v_angle;

	mov	eax, DWORD PTR _this$[ebp]
	mov	ecx, DWORD PTR [eax+1856]
	mov	edx, DWORD PTR [ecx+4]
	add	edx, 116				; 00000074H
	push	edx
	lea	ecx, DWORD PTR _anglesAim$[ebp]
	call	??0Vector@@QAE@ABV0@@Z			; Vector::Vector

; 266  : 	if( anglesAim.x > 15.0f ) // small hack for more intuitive turret placing at the floor

	movss	xmm0, DWORD PTR _anglesAim$[ebp]
	comiss	xmm0, DWORD PTR __real@41700000
	jbe	SHORT $LN3@SecondaryA

; 267  : 		anglesAim.x = 15.0f;

	movss	xmm0, DWORD PTR __real@41700000
	movss	DWORD PTR _anglesAim$[ebp], xmm0
$LN3@SecondaryA:

; 268  : 
; 269  : 	anglesAim.x *= 0.75;

	cvtss2sd xmm0, DWORD PTR _anglesAim$[ebp]
	mulsd	xmm0, QWORD PTR __real@3fe8000000000000
	cvtsd2ss xmm0, xmm0
	movss	DWORD PTR _anglesAim$[ebp], xmm0

; 270  : 	UTIL_MakeVectors( anglesAim );

	lea	eax, DWORD PTR _anglesAim$[ebp]
	push	eax
	call	?UTIL_MakeVectors@@YAXABVVector@@@Z	; UTIL_MakeVectors
	add	esp, 4

; 271  : 	Vector vecSrc = m_pPlayer->GetAbsOrigin();

	mov	eax, DWORD PTR _this$[ebp]
	mov	ecx, DWORD PTR [eax+1856]
	call	?GetAbsOrigin@CBaseEntity@@QBEABVVector@@XZ ; CBaseEntity::GetAbsOrigin
	push	eax
	lea	ecx, DWORD PTR _vecSrc$[ebp]
	call	??0Vector@@QAE@ABV0@@Z			; Vector::Vector

; 272  : 	Vector vecEnd = vecSrc + gpGlobals->v_forward * 50 - gpGlobals->v_up * 10;

	push	ecx
	movss	xmm0, DWORD PTR __real@41200000
	movss	DWORD PTR [esp], xmm0
	lea	eax, DWORD PTR $T2[ebp]
	push	eax
	mov	ecx, DWORD PTR ?gpGlobals@@3PAUglobalvars_t@@A ; gpGlobals
	add	ecx, 52					; 00000034H
	call	??DVector@@QBE?AV0@M@Z			; Vector::operator*
	push	eax
	lea	ecx, DWORD PTR _vecEnd$[ebp]
	push	ecx
	push	ecx
	movss	xmm0, DWORD PTR __real@42480000
	movss	DWORD PTR [esp], xmm0
	lea	edx, DWORD PTR $T4[ebp]
	push	edx
	mov	ecx, DWORD PTR ?gpGlobals@@3PAUglobalvars_t@@A ; gpGlobals
	add	ecx, 40					; 00000028H
	call	??DVector@@QBE?AV0@M@Z			; Vector::operator*
	push	eax
	lea	eax, DWORD PTR $T3[ebp]
	push	eax
	lea	ecx, DWORD PTR _vecSrc$[ebp]
	call	??HVector@@QBE?AV0@ABV0@@Z		; Vector::operator+
	mov	ecx, eax
	call	??GVector@@QBE?AV0@ABV0@@Z		; Vector::operator-

; 273  : 
; 274  : 	m_hTestModel->pev->rendercolor = Vector( 255, 255, 50 );

	push	ecx
	movss	xmm0, DWORD PTR __real@42480000
	movss	DWORD PTR [esp], xmm0
	push	ecx
	movss	xmm0, DWORD PTR __real@437f0000
	movss	DWORD PTR [esp], xmm0
	push	ecx
	movss	xmm0, DWORD PTR __real@437f0000
	movss	DWORD PTR [esp], xmm0
	lea	ecx, DWORD PTR $T1[ebp]
	call	??0Vector@@QAE@MMM@Z			; Vector::Vector
	mov	esi, eax
	mov	ecx, DWORD PTR _this$[ebp]
	add	ecx, 1940				; 00000794H
	call	??CEHANDLE@@QAEPAVCBaseEntity@@XZ	; EHANDLE::operator->
	mov	eax, DWORD PTR [eax+4]
	add	eax, 336				; 00000150H
	mov	ecx, DWORD PTR [esi]
	mov	DWORD PTR [eax], ecx
	mov	edx, DWORD PTR [esi+4]
	mov	DWORD PTR [eax+4], edx
	mov	ecx, DWORD PTR [esi+8]
	mov	DWORD PTR [eax+8], ecx

; 275  : 
; 276  : 	Vector SentryAng = m_hTestModel->GetLocalAngles();

	mov	ecx, DWORD PTR _this$[ebp]
	add	ecx, 1940				; 00000794H
	call	??CEHANDLE@@QAEPAVCBaseEntity@@XZ	; EHANDLE::operator->
	mov	ecx, eax
	call	?GetLocalAngles@CBaseEntity@@QBEABVVector@@XZ ; CBaseEntity::GetLocalAngles
	push	eax
	lea	ecx, DWORD PTR _SentryAng$[ebp]
	call	??0Vector@@QAE@ABV0@@Z			; Vector::Vector

; 277  : 	RotateAngle += 100 * gpGlobals->frametime;

	mov	eax, DWORD PTR ?gpGlobals@@3PAUglobalvars_t@@A ; gpGlobals
	movss	xmm0, DWORD PTR __real@42c80000
	mulss	xmm0, DWORD PTR [eax+4]
	mov	ecx, DWORD PTR _this$[ebp]
	addss	xmm0, DWORD PTR [ecx+1948]
	mov	edx, DWORD PTR _this$[ebp]
	movss	DWORD PTR [edx+1948], xmm0

; 278  : 	if( RotateAngle > 360 ) RotateAngle = 0;

	mov	eax, DWORD PTR _this$[ebp]
	movss	xmm0, DWORD PTR [eax+1948]
	comiss	xmm0, DWORD PTR __real@43b40000
	jbe	SHORT $LN4@SecondaryA
	mov	eax, DWORD PTR _this$[ebp]
	xorps	xmm0, xmm0
	movss	DWORD PTR [eax+1948], xmm0
$LN4@SecondaryA:

; 279  : 	SentryAng.y = RotateAngle;

	mov	eax, DWORD PTR _this$[ebp]
	movss	xmm0, DWORD PTR [eax+1948]
	movss	DWORD PTR _SentryAng$[ebp+4], xmm0

; 280  : 	
; 281  : 	if( m_hTestModel->pev->effects & EF_NODRAW )

	mov	ecx, DWORD PTR _this$[ebp]
	add	ecx, 1940				; 00000794H
	call	??CEHANDLE@@QAEPAVCBaseEntity@@XZ	; EHANDLE::operator->
	mov	eax, DWORD PTR [eax+4]
	mov	ecx, DWORD PTR [eax+280]
	and	ecx, 128				; 00000080H
	je	SHORT $LN5@SecondaryA

; 282  : 		m_hTestModel->pev->effects &= ~EF_NODRAW;

	mov	ecx, DWORD PTR _this$[ebp]
	add	ecx, 1940				; 00000794H
	call	??CEHANDLE@@QAEPAVCBaseEntity@@XZ	; EHANDLE::operator->
	mov	eax, DWORD PTR [eax+4]
	add	eax, 280				; 00000118H
	mov	DWORD PTR tv187[ebp], eax
	mov	ecx, DWORD PTR tv187[ebp]
	mov	edx, DWORD PTR [ecx]
	and	edx, -129				; ffffff7fH
	mov	eax, DWORD PTR tv187[ebp]
	mov	DWORD PTR [eax], edx
$LN5@SecondaryA:

; 283  : 	m_hTestModel->SetAbsOrigin( vecEnd );

	lea	eax, DWORD PTR _vecEnd$[ebp]
	push	eax
	mov	ecx, DWORD PTR _this$[ebp]
	add	ecx, 1940				; 00000794H
	call	??CEHANDLE@@QAEPAVCBaseEntity@@XZ	; EHANDLE::operator->
	mov	ecx, eax
	call	?SetAbsOrigin@CBaseEntity@@QAEXABVVector@@@Z ; CBaseEntity::SetAbsOrigin

; 284  : 	m_hTestModel->SetLocalAngles( SentryAng );

	lea	eax, DWORD PTR _SentryAng$[ebp]
	push	eax
	mov	ecx, DWORD PTR _this$[ebp]
	add	ecx, 1940				; 00000794H
	call	??CEHANDLE@@QAEPAVCBaseEntity@@XZ	; EHANDLE::operator->
	mov	ecx, eax
	call	?SetLocalAngles@CBaseEntity@@QAEXABVVector@@@Z ; CBaseEntity::SetLocalAngles
$LN1@SecondaryA:

; 285  : }

	pop	edi
	pop	esi
	pop	ebx
	mov	esp, ebp
	pop	ebp
	ret	0
?SecondaryAttack@CWpnSentry@@UAEXXZ ENDP		; CWpnSentry::SecondaryAttack
_TEXT	ENDS
; Function compile flags: /Odtp /ZI
; File d:\!diffusion 2020\source code 2022\client-server\server\weapons\weapon_sentry.cpp
;	COMDAT ?PrimaryAttack@CWpnSentry@@UAEXXZ
_TEXT	SEGMENT
tv525 = -148						; size = 4
tv185 = -148						; size = 4
$T1 = -144						; size = 12
$T2 = -132						; size = 12
$T3 = -120						; size = 12
$T4 = -108						; size = 12
_pSentry$ = -32						; size = 4
_SpawnPos$ = -28					; size = 12
_anglesAim$ = -16					; size = 12
_this$ = -4						; size = 4
?PrimaryAttack@CWpnSentry@@UAEXXZ PROC			; CWpnSentry::PrimaryAttack, COMDAT
; _this$ = ecx

; 184  : {	

	push	ebp
	mov	ebp, esp
	sub	esp, 148				; 00000094H
	push	ebx
	push	esi
	push	edi
	mov	DWORD PTR _this$[ebp], ecx

; 185  : 	CLIENT_COMMAND( m_pPlayer->edict(), "-attack\n" );

	push	OFFSET ??_C@_08MNDBFPDE@?9attack?6?$AA@
	mov	eax, DWORD PTR _this$[ebp]
	mov	ecx, DWORD PTR [eax+1856]
	call	?edict@CBaseEntity@@QAEPAUedict_s@@XZ	; CBaseEntity::edict
	push	eax
	call	DWORD PTR ?g_engfuncs@@3Uenginefuncs_s@@A+164
	add	esp, 8

; 186  : 	
; 187  : 	if (m_pPlayer->m_rgAmmo[m_iPrimaryAmmoType] <= 0)

	mov	eax, DWORD PTR _this$[ebp]
	mov	ecx, DWORD PTR [eax+1856]
	mov	edx, DWORD PTR _this$[ebp]
	mov	eax, DWORD PTR [edx+1896]
	cmp	DWORD PTR [ecx+eax*4+3628], 0
	jg	SHORT $LN2@PrimaryAtt

; 188  : 	{
; 189  : 		RetireWeapon();

	mov	eax, DWORD PTR _this$[ebp]
	mov	edx, DWORD PTR [eax]
	mov	ecx, DWORD PTR _this$[ebp]
	mov	eax, DWORD PTR [edx+496]
	call	eax

; 190  : 		return;

	jmp	$LN1@PrimaryAtt
$LN2@PrimaryAtt:

; 191  : 	}
; 192  : 	
; 193  : 	// don't fire underwater
; 194  : 	if (m_pPlayer->pev->waterlevel == 3)

	mov	eax, DWORD PTR _this$[ebp]
	mov	ecx, DWORD PTR [eax+1856]
	mov	edx, DWORD PTR [ecx+4]
	cmp	DWORD PTR [edx+448], 3
	jne	SHORT $LN3@PrimaryAtt

; 195  : 	{
; 196  : 		m_flNextPrimaryAttack = gpGlobals->time + 0.2;

	mov	eax, DWORD PTR ?gpGlobals@@3PAUglobalvars_t@@A ; gpGlobals
	cvtss2sd xmm0, DWORD PTR [eax]
	addsd	xmm0, QWORD PTR __real@3fc999999999999a
	cvtsd2ss xmm0, xmm0
	mov	ecx, DWORD PTR _this$[ebp]
	movss	DWORD PTR [ecx+1884], xmm0

; 197  : 		return;

	jmp	$LN1@PrimaryAtt
$LN3@PrimaryAtt:

; 198  : 	}
; 199  : 
; 200  : 	// perform spawn check
; 201  : 	if( !SpawnTest() )

	mov	ecx, DWORD PTR _this$[ebp]
	call	?SpawnTest@CWpnSentry@@QAE_NXZ		; CWpnSentry::SpawnTest
	movzx	eax, al
	test	eax, eax
	jne	SHORT $LN4@PrimaryAtt

; 202  : 	{
; 203  : 		UTIL_ShowMessage( "UTIL_CANTSPAWN", m_pPlayer );

	mov	eax, DWORD PTR _this$[ebp]
	mov	ecx, DWORD PTR [eax+1856]
	push	ecx
	push	OFFSET ??_C@_0P@IOODMMBP@UTIL_CANTSPAWN?$AA@
	call	?UTIL_ShowMessage@@YAXPBDPAVCBaseEntity@@@Z ; UTIL_ShowMessage
	add	esp, 8

; 204  : 		m_flNextPrimaryAttack = gpGlobals->time + 0.2;

	mov	eax, DWORD PTR ?gpGlobals@@3PAUglobalvars_t@@A ; gpGlobals
	cvtss2sd xmm0, DWORD PTR [eax]
	addsd	xmm0, QWORD PTR __real@3fc999999999999a
	cvtsd2ss xmm0, xmm0
	mov	ecx, DWORD PTR _this$[ebp]
	movss	DWORD PTR [ecx+1884], xmm0

; 205  : 		return;

	jmp	$LN1@PrimaryAtt
$LN4@PrimaryAtt:

; 206  : 	}
; 207  : 
; 208  : 	if( m_hTestModel != NULL )

	mov	ecx, DWORD PTR _this$[ebp]
	add	ecx, 1940				; 00000794H
	call	??BEHANDLE@@QAEHXZ			; EHANDLE::operator int
	test	eax, eax
	je	SHORT $LN5@PrimaryAtt

; 209  : 		m_hTestModel->pev->effects |= EF_NODRAW;

	mov	ecx, DWORD PTR _this$[ebp]
	add	ecx, 1940				; 00000794H
	call	??CEHANDLE@@QAEPAVCBaseEntity@@XZ	; EHANDLE::operator->
	mov	eax, DWORD PTR [eax+4]
	add	eax, 280				; 00000118H
	mov	DWORD PTR tv185[ebp], eax
	mov	ecx, DWORD PTR tv185[ebp]
	mov	edx, DWORD PTR [ecx]
	or	edx, 128				; 00000080H
	mov	eax, DWORD PTR tv185[ebp]
	mov	DWORD PTR [eax], edx
$LN5@PrimaryAtt:

; 210  : 
; 211  : 	// player "shoot" animation
; 212  : 	m_pPlayer->SetAnimation( PLAYER_ATTACK1 );

	push	5
	mov	eax, DWORD PTR _this$[ebp]
	mov	ecx, DWORD PTR [eax+1856]
	call	?SetAnimation@CBasePlayer@@QAEXW4PLAYER_ANIM@@@Z ; CBasePlayer::SetAnimation

; 213  : 
; 214  : //	EMIT_SOUND_DYN(ENT(m_pPlayer->pev), CHAN_WEAPON, "weapons/ar2_shoot.wav", 1, ATTN_NORM, 0, RANDOM_LONG(90,110));
; 215  : 
; 216  : 	Vector anglesAim = m_pPlayer->pev->v_angle;

	mov	eax, DWORD PTR _this$[ebp]
	mov	ecx, DWORD PTR [eax+1856]
	mov	edx, DWORD PTR [ecx+4]
	add	edx, 116				; 00000074H
	push	edx
	lea	ecx, DWORD PTR _anglesAim$[ebp]
	call	??0Vector@@QAE@ABV0@@Z			; Vector::Vector

; 217  : 	if( anglesAim.x > 15.0f ) // small hack for more intuitive turret placing at the floor

	movss	xmm0, DWORD PTR _anglesAim$[ebp]
	comiss	xmm0, DWORD PTR __real@41700000
	jbe	SHORT $LN6@PrimaryAtt

; 218  : 		anglesAim.x = 15.0f;

	movss	xmm0, DWORD PTR __real@41700000
	movss	DWORD PTR _anglesAim$[ebp], xmm0
$LN6@PrimaryAtt:

; 219  : 
; 220  : 	anglesAim.x *= 0.75;

	cvtss2sd xmm0, DWORD PTR _anglesAim$[ebp]
	mulsd	xmm0, QWORD PTR __real@3fe8000000000000
	cvtsd2ss xmm0, xmm0
	movss	DWORD PTR _anglesAim$[ebp], xmm0

; 221  : 	UTIL_MakeVectors( anglesAim );

	lea	eax, DWORD PTR _anglesAim$[ebp]
	push	eax
	call	?UTIL_MakeVectors@@YAXABVVector@@@Z	; UTIL_MakeVectors
	add	esp, 4

; 222  : 	Vector SpawnPos = m_pPlayer->GetAbsOrigin() + gpGlobals->v_forward * 50 - gpGlobals->v_up * 10;

	push	ecx
	movss	xmm0, DWORD PTR __real@41200000
	movss	DWORD PTR [esp], xmm0
	lea	eax, DWORD PTR $T2[ebp]
	push	eax
	mov	ecx, DWORD PTR ?gpGlobals@@3PAUglobalvars_t@@A ; gpGlobals
	add	ecx, 52					; 00000034H
	call	??DVector@@QBE?AV0@M@Z			; Vector::operator*
	push	eax
	lea	ecx, DWORD PTR _SpawnPos$[ebp]
	push	ecx
	push	ecx
	movss	xmm0, DWORD PTR __real@42480000
	movss	DWORD PTR [esp], xmm0
	lea	edx, DWORD PTR $T4[ebp]
	push	edx
	mov	ecx, DWORD PTR ?gpGlobals@@3PAUglobalvars_t@@A ; gpGlobals
	add	ecx, 40					; 00000028H
	call	??DVector@@QBE?AV0@M@Z			; Vector::operator*
	push	eax
	lea	eax, DWORD PTR $T3[ebp]
	push	eax
	mov	ecx, DWORD PTR _this$[ebp]
	mov	ecx, DWORD PTR [ecx+1856]
	call	?GetAbsOrigin@CBaseEntity@@QBEABVVector@@XZ ; CBaseEntity::GetAbsOrigin
	mov	ecx, eax
	call	??HVector@@QBE?AV0@ABV0@@Z		; Vector::operator+
	mov	ecx, eax
	call	??GVector@@QBE?AV0@ABV0@@Z		; Vector::operator-

; 223  : 	CBaseMonster *pSentry = (CBaseMonster*)Create( "_playersentry", SpawnPos, Vector(0,RotateAngle,0), m_pPlayer->edict() );

	mov	eax, DWORD PTR _this$[ebp]
	mov	ecx, DWORD PTR [eax+1856]
	call	?edict@CBaseEntity@@QAEPAUedict_s@@XZ	; CBaseEntity::edict
	push	eax
	push	ecx
	xorps	xmm0, xmm0
	movss	DWORD PTR [esp], xmm0
	mov	ecx, DWORD PTR _this$[ebp]
	push	ecx
	movss	xmm0, DWORD PTR [ecx+1948]
	movss	DWORD PTR [esp], xmm0
	push	ecx
	xorps	xmm0, xmm0
	movss	DWORD PTR [esp], xmm0
	lea	ecx, DWORD PTR $T1[ebp]
	call	??0Vector@@QAE@MMM@Z			; Vector::Vector
	push	eax
	lea	edx, DWORD PTR _SpawnPos$[ebp]
	push	edx
	push	OFFSET ??_C@_0O@EFJOMFML@_playersentry?$AA@
	call	?Create@CBaseEntity@@SAPAV1@PADABVVector@@1PAUedict_s@@@Z ; CBaseEntity::Create
	add	esp, 16					; 00000010H
	mov	DWORD PTR _pSentry$[ebp], eax

; 224  : 	if( pSentry )

	cmp	DWORD PTR _pSentry$[ebp], 0
	je	$LN9@PrimaryAtt

; 225  : 	{
; 226  : 		pSentry->m_iClass = CLASS_PLAYER_ALLY;

	mov	eax, DWORD PTR _pSentry$[ebp]
	mov	DWORD PTR [eax+2464], 11		; 0000000bH

; 227  : 		pSentry->pev->targetname = MAKE_STRING( "_playersentry" ); // in case we want to delete them from the map or else

	push	OFFSET ??_C@_0O@EFJOMFML@_playersentry?$AA@
	call	DWORD PTR ?g_engfuncs@@3Uenginefuncs_s@@A+268
	add	esp, 4
	mov	ecx, DWORD PTR _pSentry$[ebp]
	mov	edx, DWORD PTR [ecx+4]
	mov	DWORD PTR [edx+460], eax

; 228  : 		if( g_pGameRules->IsMultiplayer() )

	mov	eax, DWORD PTR ?g_pGameRules@@3PAVCGameRules@@A ; g_pGameRules
	mov	edx, DWORD PTR [eax]
	mov	ecx, DWORD PTR ?g_pGameRules@@3PAVCGameRules@@A ; g_pGameRules
	mov	eax, DWORD PTR [edx+24]
	call	eax
	test	eax, eax
	je	SHORT $LN8@PrimaryAtt

; 229  : 		{
; 230  : 			pSentry->pev->health = 300;

	mov	eax, DWORD PTR _pSentry$[ebp]
	mov	ecx, DWORD PTR [eax+4]
	movss	xmm0, DWORD PTR __real@43960000
	movss	DWORD PTR [ecx+352], xmm0

; 231  : 			pSentry->pev->max_health = 300;

	mov	eax, DWORD PTR _pSentry$[ebp]
	mov	ecx, DWORD PTR [eax+4]
	movss	xmm0, DWORD PTR __real@43960000
	movss	DWORD PTR [ecx+432], xmm0

; 232  : 		}
; 233  : 		else

	jmp	SHORT $LN9@PrimaryAtt
$LN8@PrimaryAtt:

; 234  : 		{
; 235  : 			pSentry->pev->health = 200;

	mov	eax, DWORD PTR _pSentry$[ebp]
	mov	ecx, DWORD PTR [eax+4]
	movss	xmm0, DWORD PTR __real@43480000
	movss	DWORD PTR [ecx+352], xmm0

; 236  : 			pSentry->pev->max_health = 200;

	mov	eax, DWORD PTR _pSentry$[ebp]
	mov	ecx, DWORD PTR [eax+4]
	movss	xmm0, DWORD PTR __real@43480000
	movss	DWORD PTR [ecx+432], xmm0
$LN9@PrimaryAtt:

; 237  : 		}
; 238  : 	}
; 239  : 
; 240  : 	m_pPlayer->m_rgAmmo[m_iPrimaryAmmoType]--;

	mov	eax, DWORD PTR _this$[ebp]
	mov	ecx, DWORD PTR [eax+1896]
	mov	edx, DWORD PTR _this$[ebp]
	mov	eax, DWORD PTR [edx+1856]
	mov	ecx, DWORD PTR [eax+ecx*4+3628]
	sub	ecx, 1
	mov	edx, DWORD PTR _this$[ebp]
	mov	eax, DWORD PTR [edx+1896]
	mov	edx, DWORD PTR _this$[ebp]
	mov	edx, DWORD PTR [edx+1856]
	mov	DWORD PTR [edx+eax*4+3628], ecx

; 241  : 
; 242  : 	if( m_pPlayer->m_rgAmmo[m_iPrimaryAmmoType] <= 0 )

	mov	eax, DWORD PTR _this$[ebp]
	mov	ecx, DWORD PTR [eax+1856]
	mov	edx, DWORD PTR _this$[ebp]
	mov	eax, DWORD PTR [edx+1896]
	cmp	DWORD PTR [ecx+eax*4+3628], 0
	jg	SHORT $LN10@PrimaryAtt

; 243  : 	{
; 244  : 		// last sentry was spawned, switch to another weapon right away
; 245  : 		SendWeaponAnim( SENTRY_NOSENTRY );

	push	0
	push	0
	push	3
	mov	eax, DWORD PTR _this$[ebp]
	mov	edx, DWORD PTR [eax]
	mov	ecx, DWORD PTR _this$[ebp]
	mov	eax, DWORD PTR [edx+472]
	call	eax

; 246  : 		m_flNextPrimaryAttack = gpGlobals->time + 0.1;

	mov	eax, DWORD PTR ?gpGlobals@@3PAUglobalvars_t@@A ; gpGlobals
	cvtss2sd xmm0, DWORD PTR [eax]
	addsd	xmm0, QWORD PTR __real@3fb999999999999a
	cvtsd2ss xmm0, xmm0
	mov	ecx, DWORD PTR _this$[ebp]
	movss	DWORD PTR [ecx+1884], xmm0

; 247  : 		return;

	jmp	$LN1@PrimaryAtt

; 248  : 	}
; 249  : 	else

	jmp	SHORT $LN11@PrimaryAtt
$LN10@PrimaryAtt:

; 250  : 		SendWeaponAnim( SENTRY_DEPLOYSLOW );

	push	0
	push	0
	push	2
	mov	eax, DWORD PTR _this$[ebp]
	mov	edx, DWORD PTR [eax]
	mov	ecx, DWORD PTR _this$[ebp]
	mov	eax, DWORD PTR [edx+472]
	call	eax
$LN11@PrimaryAtt:

; 251  : 
; 252  : 	m_flNextPrimaryAttack = gpGlobals->time + 3;

	mov	eax, DWORD PTR ?gpGlobals@@3PAUglobalvars_t@@A ; gpGlobals
	movss	xmm0, DWORD PTR [eax]
	addss	xmm0, DWORD PTR __real@40400000
	mov	ecx, DWORD PTR _this$[ebp]
	movss	DWORD PTR [ecx+1884], xmm0

; 253  : 	if (m_flNextPrimaryAttack < gpGlobals->time)

	mov	eax, DWORD PTR ?gpGlobals@@3PAUglobalvars_t@@A ; gpGlobals
	mov	ecx, DWORD PTR _this$[ebp]
	movss	xmm0, DWORD PTR [eax]
	comiss	xmm0, DWORD PTR [ecx+1884]
	jbe	SHORT $LN12@PrimaryAtt

; 254  : 		m_flNextPrimaryAttack = gpGlobals->time + 3;

	mov	eax, DWORD PTR ?gpGlobals@@3PAUglobalvars_t@@A ; gpGlobals
	movss	xmm0, DWORD PTR [eax]
	addss	xmm0, DWORD PTR __real@40400000
	mov	ecx, DWORD PTR _this$[ebp]
	movss	DWORD PTR [ecx+1884], xmm0
$LN12@PrimaryAtt:

; 255  : 
; 256  : 	m_flTimeWeaponIdle = gpGlobals->time + RANDOM_FLOAT ( 10, 15 );

	push	ecx
	movss	xmm0, DWORD PTR __real@41700000
	movss	DWORD PTR [esp], xmm0
	push	ecx
	movss	xmm0, DWORD PTR __real@41200000
	movss	DWORD PTR [esp], xmm0
	call	DWORD PTR ?g_engfuncs@@3Uenginefuncs_s@@A+364
	add	esp, 8
	fstp	DWORD PTR tv525[ebp]
	mov	eax, DWORD PTR ?gpGlobals@@3PAUglobalvars_t@@A ; gpGlobals
	movss	xmm0, DWORD PTR tv525[ebp]
	addss	xmm0, DWORD PTR [eax]
	mov	ecx, DWORD PTR _this$[ebp]
	movss	DWORD PTR [ecx+1892], xmm0
$LN1@PrimaryAtt:

; 257  : }

	pop	edi
	pop	esi
	pop	ebx
	mov	esp, ebp
	pop	ebp
	ret	0
?PrimaryAttack@CWpnSentry@@UAEXXZ ENDP			; CWpnSentry::PrimaryAttack
_TEXT	ENDS
; Function compile flags: /Odtp /ZI
; File d:\!diffusion 2020\source code 2022\client-server\server\weapons\weapon_sentry.cpp
;	COMDAT ?AddToPlayer@CWpnSentry@@UAEHPAVCBasePlayer@@@Z
_TEXT	SEGMENT
_this$ = -4						; size = 4
_pPlayer$ = 8						; size = 4
?AddToPlayer@CWpnSentry@@UAEHPAVCBasePlayer@@@Z PROC	; CWpnSentry::AddToPlayer, COMDAT
; _this$ = ecx

; 127  : {

	push	ebp
	mov	ebp, esp
	sub	esp, 68					; 00000044H
	push	ebx
	push	esi
	push	edi
	mov	DWORD PTR _this$[ebp], ecx

; 128  : 	if ( CBasePlayerWeapon::AddToPlayer( pPlayer ) )

	mov	eax, DWORD PTR _pPlayer$[ebp]
	push	eax
	mov	ecx, DWORD PTR _this$[ebp]
	call	?AddToPlayer@CBasePlayerWeapon@@UAEHPAVCBasePlayer@@@Z ; CBasePlayerWeapon::AddToPlayer
	test	eax, eax
	je	SHORT $LN2@AddToPlaye

; 129  : 	{
; 130  : 		MESSAGE_BEGIN( MSG_ONE, gmsgWeapPickup, NULL, pPlayer->pev );

	mov	eax, DWORD PTR _pPlayer$[ebp]
	mov	ecx, DWORD PTR [eax+4]
	push	ecx
	push	0
	mov	edx, DWORD PTR ?gmsgWeapPickup@@3HA	; gmsgWeapPickup
	push	edx
	push	1
	call	?MESSAGE_BEGIN@@YAXHHPBMPAUentvars_s@@@Z ; MESSAGE_BEGIN
	add	esp, 16					; 00000010H

; 131  : 			WRITE_BYTE( m_iId );

	mov	eax, DWORD PTR _this$[ebp]
	mov	ecx, DWORD PTR [eax+1864]
	push	ecx
	call	DWORD PTR ?g_engfuncs@@3Uenginefuncs_s@@A+192
	add	esp, 4

; 132  : 		MESSAGE_END();

	call	DWORD PTR ?g_engfuncs@@3Uenginefuncs_s@@A+188

; 133  : 		return TRUE;

	mov	eax, 1
	jmp	SHORT $LN1@AddToPlaye
$LN2@AddToPlaye:

; 134  : 	}
; 135  : 	return FALSE;

	xor	eax, eax
$LN1@AddToPlaye:

; 136  : }

	pop	edi
	pop	esi
	pop	ebx
	mov	esp, ebp
	pop	ebp
	ret	4
?AddToPlayer@CWpnSentry@@UAEHPAVCBasePlayer@@@Z ENDP	; CWpnSentry::AddToPlayer
_TEXT	ENDS
; Function compile flags: /Odtp /ZI
; File d:\!diffusion 2020\source code 2022\client-server\server\weapons\weapon_sentry.cpp
;	COMDAT ?GetItemInfo@CWpnSentry@@UAEHPAUItemInfo@@@Z
_TEXT	SEGMENT
_this$ = -4						; size = 4
_p$ = 8							; size = 4
?GetItemInfo@CWpnSentry@@UAEHPAUItemInfo@@@Z PROC	; CWpnSentry::GetItemInfo, COMDAT
; _this$ = ecx

; 110  : {

	push	ebp
	mov	ebp, esp
	sub	esp, 68					; 00000044H
	push	ebx
	push	esi
	push	edi
	mov	DWORD PTR _this$[ebp], ecx

; 111  : 	p->pszName = STRING(pev->classname);

	mov	eax, DWORD PTR _this$[ebp]
	mov	ecx, DWORD PTR [eax+4]
	mov	edx, DWORD PTR [ecx]
	push	edx
	call	DWORD PTR ?g_engfuncs@@3Uenginefuncs_s@@A+264
	add	esp, 4
	mov	ecx, DWORD PTR _p$[ebp]
	mov	DWORD PTR [ecx+24], eax

; 112  : 	p->pszAmmo1 = "sentry";

	mov	eax, DWORD PTR _p$[ebp]
	mov	DWORD PTR [eax+8], OFFSET ??_C@_06IMPNPELI@sentry?$AA@

; 113  : 	p->iMaxAmmo1 = 1;

	mov	eax, DWORD PTR _p$[ebp]
	mov	DWORD PTR [eax+12], 1

; 114  : 	p->pszAmmo2 = NULL;

	mov	eax, DWORD PTR _p$[ebp]
	mov	DWORD PTR [eax+16], 0

; 115  : 	p->iMaxAmmo2 = -1;

	mov	eax, DWORD PTR _p$[ebp]
	mov	DWORD PTR [eax+20], -1

; 116  : 	p->iMaxClip = WEAPON_NOCLIP;

	mov	eax, DWORD PTR _p$[ebp]
	mov	DWORD PTR [eax+28], -1

; 117  : 	p->iSlot = 4;

	mov	eax, DWORD PTR _p$[ebp]
	mov	DWORD PTR [eax], 4

; 118  : 	p->iPosition = 5;

	mov	eax, DWORD PTR _p$[ebp]
	mov	DWORD PTR [eax+4], 5

; 119  : 	p->iFlags = 0;

	mov	eax, DWORD PTR _p$[ebp]
	mov	DWORD PTR [eax+36], 0

; 120  : 	p->iId = m_iId = WEAPON_SENTRY;

	mov	eax, DWORD PTR _this$[ebp]
	mov	DWORD PTR [eax+1864], 18		; 00000012H
	mov	ecx, DWORD PTR _p$[ebp]
	mov	DWORD PTR [ecx+32], 18			; 00000012H

; 121  : 	p->iWeight = MP5_WEIGHT;

	mov	eax, DWORD PTR _p$[ebp]
	mov	DWORD PTR [eax+40], 15			; 0000000fH

; 122  : 
; 123  : 	return 1;

	mov	eax, 1

; 124  : }

	pop	edi
	pop	esi
	pop	ebx
	mov	esp, ebp
	pop	ebp
	ret	4
?GetItemInfo@CWpnSentry@@UAEHPAUItemInfo@@@Z ENDP	; CWpnSentry::GetItemInfo
_TEXT	ENDS
; Function compile flags: /Odtp /ZI
; File d:\!diffusion 2020\source code 2022\client-server\server\weapons\weapon_sentry.cpp
;	COMDAT ?iItemSlot@CWpnSentry@@UAEHXZ
_TEXT	SEGMENT
_this$ = -4						; size = 4
?iItemSlot@CWpnSentry@@UAEHXZ PROC			; CWpnSentry::iItemSlot, COMDAT
; _this$ = ecx

; 40   : 	int iItemSlot( void ) { return 5; }

	push	ebp
	mov	ebp, esp
	sub	esp, 68					; 00000044H
	push	ebx
	push	esi
	push	edi
	mov	DWORD PTR _this$[ebp], ecx
	mov	eax, 5
	pop	edi
	pop	esi
	pop	ebx
	mov	esp, ebp
	pop	ebp
	ret	0
?iItemSlot@CWpnSentry@@UAEHXZ ENDP			; CWpnSentry::iItemSlot
_TEXT	ENDS
; Function compile flags: /Odtp /ZI
; File d:\!diffusion 2020\source code 2022\client-server\server\weapons\weapon_sentry.cpp
;	COMDAT ?Precache@CWpnSentry@@UAEXXZ
_TEXT	SEGMENT
_this$ = -4						; size = 4
?Precache@CWpnSentry@@UAEXXZ PROC			; CWpnSentry::Precache, COMDAT
; _this$ = ecx

; 94   : {

	push	ebp
	mov	ebp, esp
	sub	esp, 68					; 00000044H
	push	ebx
	push	esi
	push	edi
	mov	DWORD PTR _this$[ebp], ecx

; 95   : 	PRECACHE_MODEL("models/v_sentry.mdl");

	push	OFFSET ??_C@_0BE@OGEMCEAJ@models?1v_sentry?4mdl?$AA@
	call	DWORD PTR ?g_engfuncs@@3Uenginefuncs_s@@A
	add	esp, 4

; 96   : 	PRECACHE_MODEL("models/w_sentry.mdl");

	push	OFFSET ??_C@_0BE@DLNKPNIM@models?1w_sentry?4mdl?$AA@
	call	DWORD PTR ?g_engfuncs@@3Uenginefuncs_s@@A
	add	esp, 4

; 97   : 	PRECACHE_MODEL("models/p_sentry.mdl");

	push	OFFSET ??_C@_0BE@EGKJPLNE@models?1p_sentry?4mdl?$AA@
	call	DWORD PTR ?g_engfuncs@@3Uenginefuncs_s@@A
	add	esp, 4

; 98   : 
; 99   : //	PRECACHE_SOUND("items/clipinsert1.wav");
; 100  : //	PRECACHE_SOUND("items/cliprelease1.wav");
; 101  : 
; 102  : //	PRECACHE_SOUND("weapons/ar2_secondary.wav");
; 103  : //	PRECACHE_SOUND("weapons/ar2_reload.wav");
; 104  : //	PRECACHE_SOUND("weapons/ar2_shoot.wav");
; 105  : 
; 106  : 	UTIL_PrecacheOther("_playersentry");

	push	OFFSET ??_C@_0O@EFJOMFML@_playersentry?$AA@
	call	?UTIL_PrecacheOther@@YAXPBD@Z		; UTIL_PrecacheOther
	add	esp, 4

; 107  : }

	pop	edi
	pop	esi
	pop	ebx
	mov	esp, ebp
	pop	ebp
	ret	0
?Precache@CWpnSentry@@UAEXXZ ENDP			; CWpnSentry::Precache
_TEXT	ENDS
; Function compile flags: /Odtp /ZI
; File d:\!diffusion 2020\source code 2022\client-server\server\weapons\weapon_sentry.cpp
;	COMDAT ?Spawn@CWpnSentry@@UAEXXZ
_TEXT	SEGMENT
_this$ = -4						; size = 4
?Spawn@CWpnSentry@@UAEXXZ PROC				; CWpnSentry::Spawn, COMDAT
; _this$ = ecx

; 82   : {

	push	ebp
	mov	ebp, esp
	sub	esp, 68					; 00000044H
	push	ebx
	push	esi
	push	edi
	mov	DWORD PTR _this$[ebp], ecx

; 83   : 	Precache( );

	mov	eax, DWORD PTR _this$[ebp]
	mov	edx, DWORD PTR [eax]
	mov	ecx, DWORD PTR _this$[ebp]
	mov	eax, DWORD PTR [edx+8]
	call	eax

; 84   : 	SET_MODEL(ENT(pev), "models/w_sentry.mdl");

	push	OFFSET ??_C@_0BE@DLNKPNIM@models?1w_sentry?4mdl?$AA@
	mov	eax, DWORD PTR _this$[ebp]
	mov	ecx, DWORD PTR [eax+4]
	push	ecx
	call	?ENT@@YAPAUedict_s@@PBUentvars_s@@@Z	; ENT
	add	esp, 4
	push	eax
	call	DWORD PTR ?g_engfuncs@@3Uenginefuncs_s@@A+8
	add	esp, 8

; 85   : 	m_iId = WEAPON_SENTRY;

	mov	eax, DWORD PTR _this$[ebp]
	mov	DWORD PTR [eax+1864], 18		; 00000012H

; 86   : 
; 87   : 	m_iDefaultAmmo = 1;

	mov	eax, DWORD PTR _this$[ebp]
	mov	DWORD PTR [eax+1920], 1

; 88   : 
; 89   : 	FallInit();// get ready to fall down.

	mov	ecx, DWORD PTR _this$[ebp]
	call	?FallInit@CBasePlayerItem@@QAEXXZ	; CBasePlayerItem::FallInit

; 90   : }

	pop	edi
	pop	esi
	pop	ebx
	mov	esp, ebp
	pop	ebp
	ret	0
?Spawn@CWpnSentry@@UAEXXZ ENDP				; CWpnSentry::Spawn
_TEXT	ENDS
; Function compile flags: /Odtp /ZI
;	COMDAT ??0CBasePlayerWeapon@@QAE@XZ
_TEXT	SEGMENT
_this$ = -4						; size = 4
??0CBasePlayerWeapon@@QAE@XZ PROC			; CBasePlayerWeapon::CBasePlayerWeapon, COMDAT
; _this$ = ecx
	push	ebp
	mov	ebp, esp
	sub	esp, 68					; 00000044H
	push	ebx
	push	esi
	push	edi
	mov	DWORD PTR _this$[ebp], ecx
	mov	ecx, DWORD PTR _this$[ebp]
	call	??0CBasePlayerItem@@QAE@XZ
	mov	eax, DWORD PTR _this$[ebp]
	mov	DWORD PTR [eax], OFFSET ??_7CBasePlayerWeapon@@6B@
	mov	eax, DWORD PTR _this$[ebp]
	pop	edi
	pop	esi
	pop	ebx
	mov	esp, ebp
	pop	ebp
	ret	0
??0CBasePlayerWeapon@@QAE@XZ ENDP			; CBasePlayerWeapon::CBasePlayerWeapon
_TEXT	ENDS
; Function compile flags: /Odtp /ZI
; File d:\!diffusion 2020\source code 2022\client-server\server\weapons\weapons.h
;	COMDAT ?GetWeaponPtr@CBasePlayerWeapon@@UAEPAVCBasePlayerItem@@XZ
_TEXT	SEGMENT
_this$ = -4						; size = 4
?GetWeaponPtr@CBasePlayerWeapon@@UAEPAVCBasePlayerItem@@XZ PROC ; CBasePlayerWeapon::GetWeaponPtr, COMDAT
; _this$ = ecx

; 383  : 	virtual CBasePlayerItem *GetWeaponPtr( void ) { return (CBasePlayerItem *)this; };

	push	ebp
	mov	ebp, esp
	sub	esp, 68					; 00000044H
	push	ebx
	push	esi
	push	edi
	mov	DWORD PTR _this$[ebp], ecx
	mov	eax, DWORD PTR _this$[ebp]
	pop	edi
	pop	esi
	pop	ebx
	mov	esp, ebp
	pop	ebp
	ret	0
?GetWeaponPtr@CBasePlayerWeapon@@UAEPAVCBasePlayerItem@@XZ ENDP ; CBasePlayerWeapon::GetWeaponPtr
_TEXT	ENDS
; Function compile flags: /Odtp /ZI
; File d:\!diffusion 2020\source code 2022\client-server\server\weapons\weapons.h
;	COMDAT ?UseDecrement@CBasePlayerWeapon@@UAEHXZ
_TEXT	SEGMENT
_this$ = -4						; size = 4
?UseDecrement@CBasePlayerWeapon@@UAEHXZ PROC		; CBasePlayerWeapon::UseDecrement, COMDAT
; _this$ = ecx

; 375  : 	virtual BOOL UseDecrement( void ) { return FALSE; };

	push	ebp
	mov	ebp, esp
	sub	esp, 68					; 00000044H
	push	ebx
	push	esi
	push	edi
	mov	DWORD PTR _this$[ebp], ecx
	xor	eax, eax
	pop	edi
	pop	esi
	pop	ebx
	mov	esp, ebp
	pop	ebp
	ret	0
?UseDecrement@CBasePlayerWeapon@@UAEHXZ ENDP		; CBasePlayerWeapon::UseDecrement
_TEXT	ENDS
; Function compile flags: /Odtp /ZI
; File d:\!diffusion 2020\source code 2022\client-server\server\weapons\weapons.h
;	COMDAT ?ShouldWeaponIdle@CBasePlayerWeapon@@UAEHXZ
_TEXT	SEGMENT
_this$ = -4						; size = 4
?ShouldWeaponIdle@CBasePlayerWeapon@@UAEHXZ PROC	; CBasePlayerWeapon::ShouldWeaponIdle, COMDAT
; _this$ = ecx

; 373  : 	virtual BOOL ShouldWeaponIdle( void ) {return FALSE; };

	push	ebp
	mov	ebp, esp
	sub	esp, 68					; 00000044H
	push	ebx
	push	esi
	push	edi
	mov	DWORD PTR _this$[ebp], ecx
	xor	eax, eax
	pop	edi
	pop	esi
	pop	ebx
	mov	esp, ebp
	pop	ebp
	ret	0
?ShouldWeaponIdle@CBasePlayerWeapon@@UAEHXZ ENDP	; CBasePlayerWeapon::ShouldWeaponIdle
_TEXT	ENDS
; Function compile flags: /Odtp /ZI
; File d:\!diffusion 2020\source code 2022\client-server\server\weapons\weapons.h
;	COMDAT ?WeaponIdle@CBasePlayerWeapon@@UAEXXZ
_TEXT	SEGMENT
_this$ = -4						; size = 4
?WeaponIdle@CBasePlayerWeapon@@UAEXXZ PROC		; CBasePlayerWeapon::WeaponIdle, COMDAT
; _this$ = ecx

; 370  : 	virtual void WeaponIdle( void ) { return; }					// called when no buttons pressed

	push	ebp
	mov	ebp, esp
	sub	esp, 68					; 00000044H
	push	ebx
	push	esi
	push	edi
	mov	DWORD PTR _this$[ebp], ecx
	pop	edi
	pop	esi
	pop	ebx
	mov	esp, ebp
	pop	ebp
	ret	0
?WeaponIdle@CBasePlayerWeapon@@UAEXXZ ENDP		; CBasePlayerWeapon::WeaponIdle
_TEXT	ENDS
; Function compile flags: /Odtp /ZI
; File d:\!diffusion 2020\source code 2022\client-server\server\weapons\weapons.h
;	COMDAT ?Reload@CBasePlayerWeapon@@UAEXXZ
_TEXT	SEGMENT
_this$ = -4						; size = 4
?Reload@CBasePlayerWeapon@@UAEXXZ PROC			; CBasePlayerWeapon::Reload, COMDAT
; _this$ = ecx

; 369  : 	virtual void Reload( void ) { return; }						// do "+RELOAD"

	push	ebp
	mov	ebp, esp
	sub	esp, 68					; 00000044H
	push	ebx
	push	esi
	push	edi
	mov	DWORD PTR _this$[ebp], ecx
	pop	edi
	pop	esi
	pop	ebx
	mov	esp, ebp
	pop	ebp
	ret	0
?Reload@CBasePlayerWeapon@@UAEXXZ ENDP			; CBasePlayerWeapon::Reload
_TEXT	ENDS
; Function compile flags: /Odtp /ZI
; File d:\!diffusion 2020\source code 2022\client-server\server\weapons\weapons.h
;	COMDAT ?SecondaryAttack@CBasePlayerWeapon@@UAEXXZ
_TEXT	SEGMENT
_this$ = -4						; size = 4
?SecondaryAttack@CBasePlayerWeapon@@UAEXXZ PROC		; CBasePlayerWeapon::SecondaryAttack, COMDAT
; _this$ = ecx

; 368  : 	virtual void SecondaryAttack( void ) { return; }			// do "+ATTACK2"

	push	ebp
	mov	ebp, esp
	sub	esp, 68					; 00000044H
	push	ebx
	push	esi
	push	edi
	mov	DWORD PTR _this$[ebp], ecx
	pop	edi
	pop	esi
	pop	ebx
	mov	esp, ebp
	pop	ebp
	ret	0
?SecondaryAttack@CBasePlayerWeapon@@UAEXXZ ENDP		; CBasePlayerWeapon::SecondaryAttack
_TEXT	ENDS
; Function compile flags: /Odtp /ZI
; File d:\!diffusion 2020\source code 2022\client-server\server\weapons\weapons.h
;	COMDAT ?PrimaryAttack@CBasePlayerWeapon@@UAEXXZ
_TEXT	SEGMENT
_this$ = -4						; size = 4
?PrimaryAttack@CBasePlayerWeapon@@UAEXXZ PROC		; CBasePlayerWeapon::PrimaryAttack, COMDAT
; _this$ = ecx

; 367  : 	virtual void PrimaryAttack( void ) { return; }				// do "+ATTACK"

	push	ebp
	mov	ebp, esp
	sub	esp, 68					; 00000044H
	push	ebx
	push	esi
	push	edi
	mov	DWORD PTR _this$[ebp], ecx
	pop	edi
	pop	esi
	pop	ebx
	mov	esp, ebp
	pop	ebp
	ret	0
?PrimaryAttack@CBasePlayerWeapon@@UAEXXZ ENDP		; CBasePlayerWeapon::PrimaryAttack
_TEXT	ENDS
; Function compile flags: /Odtp /ZI
; File d:\!diffusion 2020\source code 2022\client-server\server\weapons\weapons.h
;	COMDAT ?UpdateItemInfo@CBasePlayerWeapon@@UAEXXZ
_TEXT	SEGMENT
_this$ = -4						; size = 4
?UpdateItemInfo@CBasePlayerWeapon@@UAEXXZ PROC		; CBasePlayerWeapon::UpdateItemInfo, COMDAT
; _this$ = ecx

; 350  : 	virtual void UpdateItemInfo( void ) {};	// updates HUD state

	push	ebp
	mov	ebp, esp
	sub	esp, 68					; 00000044H
	push	ebx
	push	esi
	push	edi
	mov	DWORD PTR _this$[ebp], ecx
	pop	edi
	pop	esi
	pop	ebx
	mov	esp, ebp
	pop	ebp
	ret	0
?UpdateItemInfo@CBasePlayerWeapon@@UAEXXZ ENDP		; CBasePlayerWeapon::UpdateItemInfo
_TEXT	ENDS
; Function compile flags: /Odtp /ZI
; File d:\!diffusion 2020\source code 2022\client-server\server\weapons\weapons.h
;	COMDAT ?AddWeapon@CBasePlayerWeapon@@UAEHXZ
_TEXT	SEGMENT
_this$ = -4						; size = 4
?AddWeapon@CBasePlayerWeapon@@UAEHXZ PROC		; CBasePlayerWeapon::AddWeapon, COMDAT
; _this$ = ecx

; 344  : 	virtual int AddWeapon( void ) { ExtractAmmo( this ); return TRUE; };	// Return TRUE if you want to add yourself to the player

	push	ebp
	mov	ebp, esp
	sub	esp, 68					; 00000044H
	push	ebx
	push	esi
	push	edi
	mov	DWORD PTR _this$[ebp], ecx
	mov	eax, DWORD PTR _this$[ebp]
	push	eax
	mov	ecx, DWORD PTR _this$[ebp]
	mov	edx, DWORD PTR [ecx]
	mov	ecx, DWORD PTR _this$[ebp]
	mov	eax, DWORD PTR [edx+452]
	call	eax
	mov	eax, 1
	pop	edi
	pop	esi
	pop	ebx
	mov	esp, ebp
	pop	ebp
	ret	0
?AddWeapon@CBasePlayerWeapon@@UAEHXZ ENDP		; CBasePlayerWeapon::AddWeapon
_TEXT	ENDS
; Function compile flags: /Odtp /ZI
;	COMDAT ??0CBasePlayerItem@@QAE@XZ
_TEXT	SEGMENT
_this$ = -4						; size = 4
??0CBasePlayerItem@@QAE@XZ PROC				; CBasePlayerItem::CBasePlayerItem, COMDAT
; _this$ = ecx
	push	ebp
	mov	ebp, esp
	sub	esp, 68					; 00000044H
	push	ebx
	push	esi
	push	edi
	mov	DWORD PTR _this$[ebp], ecx
	mov	ecx, DWORD PTR _this$[ebp]
	call	??0CBaseAnimating@@QAE@XZ
	mov	eax, DWORD PTR _this$[ebp]
	mov	DWORD PTR [eax], OFFSET ??_7CBasePlayerItem@@6B@
	mov	eax, DWORD PTR _this$[ebp]
	pop	edi
	pop	esi
	pop	ebx
	mov	esp, ebp
	pop	ebp
	ret	0
??0CBasePlayerItem@@QAE@XZ ENDP				; CBasePlayerItem::CBasePlayerItem
_TEXT	ENDS
; Function compile flags: /Odtp /ZI
; File d:\!diffusion 2020\source code 2022\client-server\server\weapons\weapons.h
;	COMDAT ?iItemSlot@CBasePlayerItem@@UAEHXZ
_TEXT	SEGMENT
_this$ = -4						; size = 4
?iItemSlot@CBasePlayerItem@@UAEHXZ PROC			; CBasePlayerItem::iItemSlot, COMDAT
; _this$ = ecx

; 317  : 	virtual int iItemSlot( void ) { return 0; }		// return 0 to MAX_ITEMS_SLOTS, used in hud

	push	ebp
	mov	ebp, esp
	sub	esp, 68					; 00000044H
	push	ebx
	push	esi
	push	edi
	mov	DWORD PTR _this$[ebp], ecx
	xor	eax, eax
	pop	edi
	pop	esi
	pop	ebx
	mov	esp, ebp
	pop	ebp
	ret	0
?iItemSlot@CBasePlayerItem@@UAEHXZ ENDP			; CBasePlayerItem::iItemSlot
_TEXT	ENDS
; Function compile flags: /Odtp /ZI
; File d:\!diffusion 2020\source code 2022\client-server\server\weapons\weapons.h
;	COMDAT ?GetWeaponPtr@CBasePlayerItem@@UAEPAV1@XZ
_TEXT	SEGMENT
_this$ = -4						; size = 4
?GetWeaponPtr@CBasePlayerItem@@UAEPAV1@XZ PROC		; CBasePlayerItem::GetWeaponPtr, COMDAT
; _this$ = ecx

; 308  : 	virtual CBasePlayerItem *GetWeaponPtr( void ) { return NULL; };

	push	ebp
	mov	ebp, esp
	sub	esp, 68					; 00000044H
	push	ebx
	push	esi
	push	edi
	mov	DWORD PTR _this$[ebp], ecx
	xor	eax, eax
	pop	edi
	pop	esi
	pop	ebx
	mov	esp, ebp
	pop	ebp
	ret	0
?GetWeaponPtr@CBasePlayerItem@@UAEPAV1@XZ ENDP		; CBasePlayerItem::GetWeaponPtr
_TEXT	ENDS
; Function compile flags: /Odtp /ZI
; File d:\!diffusion 2020\source code 2022\client-server\server\weapons\weapons.h
;	COMDAT ?UpdateClientData@CBasePlayerItem@@UAEHPAVCBasePlayer@@@Z
_TEXT	SEGMENT
_this$ = -4						; size = 4
_pPlayer$ = 8						; size = 4
?UpdateClientData@CBasePlayerItem@@UAEHPAVCBasePlayer@@@Z PROC ; CBasePlayerItem::UpdateClientData, COMDAT
; _this$ = ecx

; 306  : 	virtual int UpdateClientData( CBasePlayer *pPlayer ) { return 0; }

	push	ebp
	mov	ebp, esp
	sub	esp, 68					; 00000044H
	push	ebx
	push	esi
	push	edi
	mov	DWORD PTR _this$[ebp], ecx
	xor	eax, eax
	pop	edi
	pop	esi
	pop	ebx
	mov	esp, ebp
	pop	ebp
	ret	4
?UpdateClientData@CBasePlayerItem@@UAEHPAVCBasePlayer@@@Z ENDP ; CBasePlayerItem::UpdateClientData
_TEXT	ENDS
; Function compile flags: /Odtp /ZI
; File d:\!diffusion 2020\source code 2022\client-server\server\weapons\weapons.h
;	COMDAT ?SecondaryAmmoIndex@CBasePlayerItem@@UAEHXZ
_TEXT	SEGMENT
_this$ = -4						; size = 4
?SecondaryAmmoIndex@CBasePlayerItem@@UAEHXZ PROC	; CBasePlayerItem::SecondaryAmmoIndex, COMDAT
; _this$ = ecx

; 304  : 	virtual int SecondaryAmmoIndex() { return -1; };

	push	ebp
	mov	ebp, esp
	sub	esp, 68					; 00000044H
	push	ebx
	push	esi
	push	edi
	mov	DWORD PTR _this$[ebp], ecx
	or	eax, -1
	pop	edi
	pop	esi
	pop	ebx
	mov	esp, ebp
	pop	ebp
	ret	0
?SecondaryAmmoIndex@CBasePlayerItem@@UAEHXZ ENDP	; CBasePlayerItem::SecondaryAmmoIndex
_TEXT	ENDS
; Function compile flags: /Odtp /ZI
; File d:\!diffusion 2020\source code 2022\client-server\server\weapons\weapons.h
;	COMDAT ?PrimaryAmmoIndex@CBasePlayerItem@@UAEHXZ
_TEXT	SEGMENT
_this$ = -4						; size = 4
?PrimaryAmmoIndex@CBasePlayerItem@@UAEHXZ PROC		; CBasePlayerItem::PrimaryAmmoIndex, COMDAT
; _this$ = ecx

; 303  : 	virtual int PrimaryAmmoIndex() { return -1; };

	push	ebp
	mov	ebp, esp
	sub	esp, 68					; 00000044H
	push	ebx
	push	esi
	push	edi
	mov	DWORD PTR _this$[ebp], ecx
	or	eax, -1
	pop	edi
	pop	esi
	pop	ebx
	mov	esp, ebp
	pop	ebp
	ret	0
?PrimaryAmmoIndex@CBasePlayerItem@@UAEHXZ ENDP		; CBasePlayerItem::PrimaryAmmoIndex
_TEXT	ENDS
; Function compile flags: /Odtp /ZI
; File d:\!diffusion 2020\source code 2022\client-server\server\weapons\weapons.h
;	COMDAT ?ItemPostFrame@CBasePlayerItem@@UAEXXZ
_TEXT	SEGMENT
_this$ = -4						; size = 4
?ItemPostFrame@CBasePlayerItem@@UAEXXZ PROC		; CBasePlayerItem::ItemPostFrame, COMDAT
; _this$ = ecx

; 297  : 	virtual void ItemPostFrame( void ) { return; }		// called each frame by the player PostThink

	push	ebp
	mov	ebp, esp
	sub	esp, 68					; 00000044H
	push	ebx
	push	esi
	push	edi
	mov	DWORD PTR _this$[ebp], ecx
	pop	edi
	pop	esi
	pop	ebx
	mov	esp, ebp
	pop	ebp
	ret	0
?ItemPostFrame@CBasePlayerItem@@UAEXXZ ENDP		; CBasePlayerItem::ItemPostFrame
_TEXT	ENDS
; Function compile flags: /Odtp /ZI
; File d:\!diffusion 2020\source code 2022\client-server\server\weapons\weapons.h
;	COMDAT ?ItemPreFrame@CBasePlayerItem@@UAEXXZ
_TEXT	SEGMENT
_this$ = -4						; size = 4
?ItemPreFrame@CBasePlayerItem@@UAEXXZ PROC		; CBasePlayerItem::ItemPreFrame, COMDAT
; _this$ = ecx

; 296  : 	virtual void ItemPreFrame( void ) { return; }		// called each frame by the player PreThink

	push	ebp
	mov	ebp, esp
	sub	esp, 68					; 00000044H
	push	ebx
	push	esi
	push	edi
	mov	DWORD PTR _this$[ebp], ecx
	pop	edi
	pop	esi
	pop	ebx
	mov	esp, ebp
	pop	ebp
	ret	0
?ItemPreFrame@CBasePlayerItem@@UAEXXZ ENDP		; CBasePlayerItem::ItemPreFrame
_TEXT	ENDS
; Function compile flags: /Odtp /ZI
; File d:\!diffusion 2020\source code 2022\client-server\server\weapons\weapons.h
;	COMDAT ?UpdateItemInfo@CBasePlayerItem@@UAEXXZ
_TEXT	SEGMENT
_this$ = -4						; size = 4
?UpdateItemInfo@CBasePlayerItem@@UAEXXZ PROC		; CBasePlayerItem::UpdateItemInfo, COMDAT
; _this$ = ecx

; 294  : 	virtual void UpdateItemInfo( void ) { return; };

	push	ebp
	mov	ebp, esp
	sub	esp, 68					; 00000044H
	push	ebx
	push	esi
	push	edi
	mov	DWORD PTR _this$[ebp], ecx
	pop	edi
	pop	esi
	pop	ebx
	mov	esp, ebp
	pop	ebp
	ret	0
?UpdateItemInfo@CBasePlayerItem@@UAEXXZ ENDP		; CBasePlayerItem::UpdateItemInfo
_TEXT	ENDS
; Function compile flags: /Odtp /ZI
; File d:\!diffusion 2020\source code 2022\client-server\server\weapons\weapons.h
;	COMDAT ?CanHolster@CBasePlayerItem@@UAEHXZ
_TEXT	SEGMENT
_this$ = -4						; size = 4
?CanHolster@CBasePlayerItem@@UAEHXZ PROC		; CBasePlayerItem::CanHolster, COMDAT
; _this$ = ecx

; 292  : 	virtual BOOL CanHolster( void ) { return TRUE; };		// can this weapon be put away right now?

	push	ebp
	mov	ebp, esp
	sub	esp, 68					; 00000044H
	push	ebx
	push	esi
	push	edi
	mov	DWORD PTR _this$[ebp], ecx
	mov	eax, 1
	pop	edi
	pop	esi
	pop	ebx
	mov	esp, ebp
	pop	ebp
	ret	0
?CanHolster@CBasePlayerItem@@UAEHXZ ENDP		; CBasePlayerItem::CanHolster
_TEXT	ENDS
; Function compile flags: /Odtp /ZI
; File d:\!diffusion 2020\source code 2022\client-server\server\weapons\weapons.h
;	COMDAT ?Deploy@CBasePlayerItem@@UAEHXZ
_TEXT	SEGMENT
_this$ = -4						; size = 4
?Deploy@CBasePlayerItem@@UAEHXZ PROC			; CBasePlayerItem::Deploy, COMDAT
; _this$ = ecx

; 289  : 	virtual BOOL Deploy( ) { return TRUE; };		// returns is deploy was successful

	push	ebp
	mov	ebp, esp
	sub	esp, 68					; 00000044H
	push	ebx
	push	esi
	push	edi
	mov	DWORD PTR _this$[ebp], ecx
	mov	eax, 1
	pop	edi
	pop	esi
	pop	ebx
	mov	esp, ebp
	pop	ebp
	ret	0
?Deploy@CBasePlayerItem@@UAEHXZ ENDP			; CBasePlayerItem::Deploy
_TEXT	ENDS
; Function compile flags: /Odtp /ZI
; File d:\!diffusion 2020\source code 2022\client-server\server\weapons\weapons.h
;	COMDAT ?CanDeploy@CBasePlayerItem@@UAEHXZ
_TEXT	SEGMENT
_this$ = -4						; size = 4
?CanDeploy@CBasePlayerItem@@UAEHXZ PROC			; CBasePlayerItem::CanDeploy, COMDAT
; _this$ = ecx

; 288  : 	virtual BOOL CanDeploy( void ) { return TRUE; };

	push	ebp
	mov	ebp, esp
	sub	esp, 68					; 00000044H
	push	ebx
	push	esi
	push	edi
	mov	DWORD PTR _this$[ebp], ecx
	mov	eax, 1
	pop	edi
	pop	esi
	pop	ebx
	mov	esp, ebp
	pop	ebp
	ret	0
?CanDeploy@CBasePlayerItem@@UAEHXZ ENDP			; CBasePlayerItem::CanDeploy
_TEXT	ENDS
; Function compile flags: /Odtp /ZI
; File d:\!diffusion 2020\source code 2022\client-server\server\weapons\weapons.h
;	COMDAT ?GetItemInfo@CBasePlayerItem@@UAEHPAUItemInfo@@@Z
_TEXT	SEGMENT
_this$ = -4						; size = 4
_p$ = 8							; size = 4
?GetItemInfo@CBasePlayerItem@@UAEHPAUItemInfo@@@Z PROC	; CBasePlayerItem::GetItemInfo, COMDAT
; _this$ = ecx

; 287  : 	virtual int GetItemInfo(ItemInfo *p) { return 0; };	// returns 0 if struct not filled out

	push	ebp
	mov	ebp, esp
	sub	esp, 68					; 00000044H
	push	ebx
	push	esi
	push	edi
	mov	DWORD PTR _this$[ebp], ecx
	xor	eax, eax
	pop	edi
	pop	esi
	pop	ebx
	mov	esp, ebp
	pop	ebp
	ret	4
?GetItemInfo@CBasePlayerItem@@UAEHPAUItemInfo@@@Z ENDP	; CBasePlayerItem::GetItemInfo
_TEXT	ENDS
; Function compile flags: /Odtp /ZI
; File d:\!diffusion 2020\source code 2022\client-server\server\weapons\weapons.h
;	COMDAT ?AddDuplicate@CBasePlayerItem@@UAEHPAV1@@Z
_TEXT	SEGMENT
_this$ = -4						; size = 4
_pItem$ = 8						; size = 4
?AddDuplicate@CBasePlayerItem@@UAEHPAV1@@Z PROC		; CBasePlayerItem::AddDuplicate, COMDAT
; _this$ = ecx

; 278  : 	virtual int AddDuplicate( CBasePlayerItem *pItem ) { return FALSE; }	// return TRUE if you want your duplicate removed from world

	push	ebp
	mov	ebp, esp
	sub	esp, 68					; 00000044H
	push	ebx
	push	esi
	push	edi
	mov	DWORD PTR _this$[ebp], ecx
	xor	eax, eax
	pop	edi
	pop	esi
	pop	ebx
	mov	esp, ebp
	pop	ebp
	ret	4
?AddDuplicate@CBasePlayerItem@@UAEHPAV1@@Z ENDP		; CBasePlayerItem::AddDuplicate
_TEXT	ENDS
; Function compile flags: /Odtp /ZI
;	COMDAT ??0CBaseAnimating@@QAE@XZ
_TEXT	SEGMENT
_this$ = -4						; size = 4
??0CBaseAnimating@@QAE@XZ PROC				; CBaseAnimating::CBaseAnimating, COMDAT
; _this$ = ecx
	push	ebp
	mov	ebp, esp
	sub	esp, 68					; 00000044H
	push	ebx
	push	esi
	push	edi
	mov	DWORD PTR _this$[ebp], ecx
	mov	ecx, DWORD PTR _this$[ebp]
	call	??0CBaseDelay@@QAE@XZ
	mov	eax, DWORD PTR _this$[ebp]
	mov	DWORD PTR [eax], OFFSET ??_7CBaseAnimating@@6B@
	mov	eax, DWORD PTR _this$[ebp]
	pop	edi
	pop	esi
	pop	ebx
	mov	esp, ebp
	pop	ebp
	ret	0
??0CBaseAnimating@@QAE@XZ ENDP				; CBaseAnimating::CBaseAnimating
_TEXT	ENDS
; Function compile flags: /Odtp /ZI
; File d:\!diffusion 2020\source code 2022\client-server\server\cbase.h
;	COMDAT ?HandleAnimEvent@CBaseAnimating@@UAEXPAUMonsterEvent_t@@@Z
_TEXT	SEGMENT
_this$ = -4						; size = 4
_pEvent$ = 8						; size = 4
?HandleAnimEvent@CBaseAnimating@@UAEXPAUMonsterEvent_t@@@Z PROC ; CBaseAnimating::HandleAnimEvent, COMDAT
; _this$ = ecx

; 961  : 	virtual void HandleAnimEvent( MonsterEvent_t *pEvent ) { return; };

	push	ebp
	mov	ebp, esp
	sub	esp, 68					; 00000044H
	push	ebx
	push	esi
	push	edi
	mov	DWORD PTR _this$[ebp], ecx
	pop	edi
	pop	esi
	pop	ebx
	mov	esp, ebp
	pop	ebp
	ret	4
?HandleAnimEvent@CBaseAnimating@@UAEXPAUMonsterEvent_t@@@Z ENDP ; CBaseAnimating::HandleAnimEvent
_TEXT	ENDS
; Function compile flags: /Odtp /ZI
;	COMDAT ??0CBaseDelay@@QAE@XZ
_TEXT	SEGMENT
_this$ = -4						; size = 4
??0CBaseDelay@@QAE@XZ PROC				; CBaseDelay::CBaseDelay, COMDAT
; _this$ = ecx
	push	ebp
	mov	ebp, esp
	sub	esp, 68					; 00000044H
	push	ebx
	push	esi
	push	edi
	mov	DWORD PTR _this$[ebp], ecx
	mov	ecx, DWORD PTR _this$[ebp]
	call	??0CBaseEntity@@QAE@XZ
	mov	eax, DWORD PTR _this$[ebp]
	mov	DWORD PTR [eax], OFFSET ??_7CBaseDelay@@6B@
	mov	eax, DWORD PTR _this$[ebp]
	pop	edi
	pop	esi
	pop	ebx
	mov	esp, ebp
	pop	ebp
	ret	0
??0CBaseDelay@@QAE@XZ ENDP				; CBaseDelay::CBaseDelay
_TEXT	ENDS
; Function compile flags: /Odtp /ZI
; File d:\!diffusion 2020\source code 2022\client-server\server\cbase.h
;	COMDAT ?GetState@CBaseDelay@@UAE?AW4STATE@@XZ
_TEXT	SEGMENT
_this$ = -4						; size = 4
?GetState@CBaseDelay@@UAE?AW4STATE@@XZ PROC		; CBaseDelay::GetState, COMDAT
; _this$ = ecx

; 933  : 	virtual STATE GetState( void ) { return m_iState; };

	push	ebp
	mov	ebp, esp
	sub	esp, 68					; 00000044H
	push	ebx
	push	esi
	push	edi
	mov	DWORD PTR _this$[ebp], ecx
	mov	eax, DWORD PTR _this$[ebp]
	mov	eax, DWORD PTR [eax+1828]
	pop	edi
	pop	esi
	pop	ebx
	mov	esp, ebp
	pop	ebp
	ret	0
?GetState@CBaseDelay@@UAE?AW4STATE@@XZ ENDP		; CBaseDelay::GetState
_TEXT	ENDS
; Function compile flags: /Odtp /ZI
;	COMDAT ??0CBaseEntity@@QAE@XZ
_TEXT	SEGMENT
_this$ = -16						; size = 4
__$EHRec$ = -12						; size = 12
??0CBaseEntity@@QAE@XZ PROC				; CBaseEntity::CBaseEntity, COMDAT
; _this$ = ecx
	push	ebp
	mov	ebp, esp
	push	-1
	push	__ehhandler$??0CBaseEntity@@QAE@XZ
	mov	eax, DWORD PTR fs:0
	push	eax
	sub	esp, 68					; 00000044H
	push	ebx
	push	esi
	push	edi
	mov	eax, DWORD PTR ___security_cookie
	xor	eax, ebp
	push	eax
	lea	eax, DWORD PTR __$EHRec$[ebp]
	mov	DWORD PTR fs:0, eax
	mov	DWORD PTR _this$[ebp], ecx
	mov	eax, DWORD PTR _this$[ebp]
	mov	DWORD PTR [eax], OFFSET ??_7CBaseEntity@@6B@
	mov	ecx, DWORD PTR _this$[ebp]
	add	ecx, 84					; 00000054H
	call	??0Vector@@QAE@XZ			; Vector::Vector
	mov	ecx, DWORD PTR _this$[ebp]
	add	ecx, 96					; 00000060H
	call	??0Vector@@QAE@XZ			; Vector::Vector
	mov	ecx, DWORD PTR _this$[ebp]
	add	ecx, 108				; 0000006cH
	call	??0Vector@@QAE@XZ			; Vector::Vector
	mov	ecx, DWORD PTR _this$[ebp]
	add	ecx, 120				; 00000078H
	call	??0Vector@@QAE@XZ			; Vector::Vector
	mov	ecx, DWORD PTR _this$[ebp]
	add	ecx, 132				; 00000084H
	call	??0Vector@@QAE@XZ			; Vector::Vector
	mov	ecx, DWORD PTR _this$[ebp]
	add	ecx, 144				; 00000090H
	call	??0Vector@@QAE@XZ			; Vector::Vector
	mov	ecx, DWORD PTR _this$[ebp]
	add	ecx, 192				; 000000c0H
	call	??0matrix4x4@@QAE@XZ			; matrix4x4::matrix4x4
	mov	ecx, DWORD PTR _this$[ebp]
	add	ecx, 260				; 00000104H
	call	??0CMeshDesc@@QAE@XZ			; CMeshDesc::CMeshDesc
	mov	DWORD PTR __$EHRec$[ebp+8], 0
	mov	ecx, DWORD PTR _this$[ebp]
	add	ecx, 1644				; 0000066cH
	call	??0Vector@@QAE@XZ			; Vector::Vector
	mov	DWORD PTR __$EHRec$[ebp+8], -1
	mov	eax, DWORD PTR _this$[ebp]
	mov	ecx, DWORD PTR __$EHRec$[ebp]
	mov	DWORD PTR fs:0, ecx
	pop	ecx
	pop	edi
	pop	esi
	pop	ebx
	mov	esp, ebp
	pop	ebp
	ret	0
_TEXT	ENDS
;	COMDAT text$x
text$x	SEGMENT
__unwindfunclet$??0CBaseEntity@@QAE@XZ$0:
	mov	ecx, DWORD PTR _this$[ebp]
	add	ecx, 260				; 00000104H
	jmp	??1CMeshDesc@@QAE@XZ			; CMeshDesc::~CMeshDesc
__ehhandler$??0CBaseEntity@@QAE@XZ:
	mov	edx, DWORD PTR [esp+8]
	lea	eax, DWORD PTR [edx+12]
	mov	ecx, DWORD PTR [edx-84]
	xor	ecx, eax
	call	@__security_check_cookie@4
	mov	eax, OFFSET __ehfuncinfo$??0CBaseEntity@@QAE@XZ
	jmp	___CxxFrameHandler3
text$x	ENDS
??0CBaseEntity@@QAE@XZ ENDP				; CBaseEntity::CBaseEntity
; Function compile flags: /Odtp /ZI
; File d:\!diffusion 2020\source code 2022\client-server\server\cbase.h
;	COMDAT ?Illumination@CBaseEntity@@UAEHXZ
_TEXT	SEGMENT
_this$ = -4						; size = 4
?Illumination@CBaseEntity@@UAEHXZ PROC			; CBaseEntity::Illumination, COMDAT
; _this$ = ecx

; 757  : 	virtual int Illumination( ) { return GETENTITYILLUM( ENT( pev ) ); };

	push	ebp
	mov	ebp, esp
	sub	esp, 68					; 00000044H
	push	ebx
	push	esi
	push	edi
	mov	DWORD PTR _this$[ebp], ecx
	mov	eax, DWORD PTR _this$[ebp]
	mov	ecx, DWORD PTR [eax+4]
	push	ecx
	call	?ENT@@YAPAUedict_s@@PBUentvars_s@@@Z	; ENT
	add	esp, 4
	push	eax
	call	DWORD PTR ?g_engfuncs@@3Uenginefuncs_s@@A+60
	add	esp, 4
	pop	edi
	pop	esi
	pop	ebx
	mov	esp, ebp
	pop	ebp
	ret	0
?Illumination@CBaseEntity@@UAEHXZ ENDP			; CBaseEntity::Illumination
_TEXT	ENDS
; Function compile flags: /Odtp /ZI
; File d:\!diffusion 2020\source code 2022\client-server\server\cbase.h
;	COMDAT ?IsPointSized@CBaseEntity@@UBEHXZ
_TEXT	SEGMENT
tv70 = -69						; size = 1
_this$ = -4						; size = 4
?IsPointSized@CBaseEntity@@UBEHXZ PROC			; CBaseEntity::IsPointSized, COMDAT
; _this$ = ecx

; 755  : 	virtual BOOL IsPointSized() const { return (pev->size == g_vecZero) ? true : false; }

	push	ebp
	mov	ebp, esp
	sub	esp, 72					; 00000048H
	push	ebx
	push	esi
	push	edi
	mov	DWORD PTR _this$[ebp], ecx
	push	OFFSET ?g_vecZero@@3VVector@@B		; g_vecZero
	mov	eax, DWORD PTR _this$[ebp]
	mov	ecx, DWORD PTR [eax+4]
	add	ecx, 244				; 000000f4H
	call	??8Vector@@QBEHABV0@@Z			; Vector::operator==
	test	eax, eax
	je	SHORT $LN3@IsPointSiz
	mov	BYTE PTR tv70[ebp], 1
	jmp	SHORT $LN4@IsPointSiz
$LN3@IsPointSiz:
	mov	BYTE PTR tv70[ebp], 0
$LN4@IsPointSiz:
	movzx	eax, BYTE PTR tv70[ebp]
	pop	edi
	pop	esi
	pop	ebx
	mov	esp, ebp
	pop	ebp
	ret	0
?IsPointSized@CBaseEntity@@UBEHXZ ENDP			; CBaseEntity::IsPointSized
_TEXT	ENDS
; Function compile flags: /Odtp /ZI
; File d:\!diffusion 2020\source code 2022\client-server\server\cbase.h
;	COMDAT ?BodyTarget@CBaseEntity@@UAE?AVVector@@ABV2@@Z
_TEXT	SEGMENT
_this$ = -4						; size = 4
___$ReturnUdt$ = 8					; size = 4
_posSrc$ = 12						; size = 4
?BodyTarget@CBaseEntity@@UAE?AVVector@@ABV2@@Z PROC	; CBaseEntity::BodyTarget, COMDAT
; _this$ = ecx

; 754  : 	virtual Vector BodyTarget( const Vector &posSrc ) { return Center( ); };		// position to shoot at

	push	ebp
	mov	ebp, esp
	sub	esp, 68					; 00000044H
	push	ebx
	push	esi
	push	edi
	mov	DWORD PTR _this$[ebp], ecx
	mov	eax, DWORD PTR ___$ReturnUdt$[ebp]
	push	eax
	mov	ecx, DWORD PTR _this$[ebp]
	mov	edx, DWORD PTR [ecx]
	mov	ecx, DWORD PTR _this$[ebp]
	mov	eax, DWORD PTR [edx+336]
	call	eax
	mov	eax, DWORD PTR ___$ReturnUdt$[ebp]
	pop	edi
	pop	esi
	pop	ebx
	mov	esp, ebp
	pop	ebp
	ret	8
?BodyTarget@CBaseEntity@@UAE?AVVector@@ABV2@@Z ENDP	; CBaseEntity::BodyTarget
_TEXT	ENDS
; Function compile flags: /Odtp /ZI
; File d:\!diffusion 2020\source code 2022\client-server\server\cbase.h
;	COMDAT ?EarPosition@CBaseEntity@@UAE?AVVector@@XZ
_TEXT	SEGMENT
_this$ = -4						; size = 4
___$ReturnUdt$ = 8					; size = 4
?EarPosition@CBaseEntity@@UAE?AVVector@@XZ PROC		; CBaseEntity::EarPosition, COMDAT
; _this$ = ecx

; 751  : 	{ 

	push	ebp
	mov	ebp, esp
	sub	esp, 68					; 00000044H
	push	ebx
	push	esi
	push	edi
	mov	DWORD PTR _this$[ebp], ecx

; 752  : 		return GetAbsOrigin() + pev->view_ofs; 

	mov	eax, DWORD PTR _this$[ebp]
	mov	ecx, DWORD PTR [eax+4]
	add	ecx, 372				; 00000174H
	push	ecx
	mov	edx, DWORD PTR ___$ReturnUdt$[ebp]
	push	edx
	mov	ecx, DWORD PTR _this$[ebp]
	call	?GetAbsOrigin@CBaseEntity@@QBEABVVector@@XZ ; CBaseEntity::GetAbsOrigin
	mov	ecx, eax
	call	??HVector@@QBE?AV0@ABV0@@Z		; Vector::operator+
	mov	eax, DWORD PTR ___$ReturnUdt$[ebp]

; 753  : 	};			// position of ears

	pop	edi
	pop	esi
	pop	ebx
	mov	esp, ebp
	pop	ebp
	ret	4
?EarPosition@CBaseEntity@@UAE?AVVector@@XZ ENDP		; CBaseEntity::EarPosition
_TEXT	ENDS
; Function compile flags: /Odtp /ZI
; File d:\!diffusion 2020\source code 2022\client-server\server\cbase.h
;	COMDAT ?EyePosition@CBaseEntity@@UAE?AVVector@@XZ
_TEXT	SEGMENT
_this$ = -4						; size = 4
___$ReturnUdt$ = 8					; size = 4
?EyePosition@CBaseEntity@@UAE?AVVector@@XZ PROC		; CBaseEntity::EyePosition, COMDAT
; _this$ = ecx

; 747  : 	{

	push	ebp
	mov	ebp, esp
	sub	esp, 68					; 00000044H
	push	ebx
	push	esi
	push	edi
	mov	DWORD PTR _this$[ebp], ecx

; 748  : 		return GetAbsOrigin() + pev->view_ofs;

	mov	eax, DWORD PTR _this$[ebp]
	mov	ecx, DWORD PTR [eax+4]
	add	ecx, 372				; 00000174H
	push	ecx
	mov	edx, DWORD PTR ___$ReturnUdt$[ebp]
	push	edx
	mov	ecx, DWORD PTR _this$[ebp]
	call	?GetAbsOrigin@CBaseEntity@@QBEABVVector@@XZ ; CBaseEntity::GetAbsOrigin
	mov	ecx, eax
	call	??HVector@@QBE?AV0@ABV0@@Z		; Vector::operator+
	mov	eax, DWORD PTR ___$ReturnUdt$[ebp]

; 749  : 	};			// position of eyes

	pop	edi
	pop	esi
	pop	ebx
	mov	esp, ebp
	pop	ebp
	ret	4
?EyePosition@CBaseEntity@@UAE?AVVector@@XZ ENDP		; CBaseEntity::EyePosition
_TEXT	ENDS
; Function compile flags: /Odtp /ZI
; File d:\!diffusion 2020\source code 2022\client-server\server\cbase.h
;	COMDAT ?Center@CBaseEntity@@UAE?AVVector@@XZ
_TEXT	SEGMENT
$T1 = -80						; size = 12
_this$ = -4						; size = 4
___$ReturnUdt$ = 8					; size = 4
?Center@CBaseEntity@@UAE?AVVector@@XZ PROC		; CBaseEntity::Center, COMDAT
; _this$ = ecx

; 745  : 	virtual Vector Center( ) { return (pev->absmax + pev->absmin) * 0.5; }; // center point of entity

	push	ebp
	mov	ebp, esp
	sub	esp, 80					; 00000050H
	push	ebx
	push	esi
	push	edi
	mov	DWORD PTR _this$[ebp], ecx
	push	ecx
	movss	xmm0, DWORD PTR __real@3f000000
	movss	DWORD PTR [esp], xmm0
	mov	eax, DWORD PTR ___$ReturnUdt$[ebp]
	push	eax
	mov	ecx, DWORD PTR _this$[ebp]
	mov	edx, DWORD PTR [ecx+4]
	add	edx, 196				; 000000c4H
	push	edx
	lea	eax, DWORD PTR $T1[ebp]
	push	eax
	mov	ecx, DWORD PTR _this$[ebp]
	mov	ecx, DWORD PTR [ecx+4]
	add	ecx, 208				; 000000d0H
	call	??HVector@@QBE?AV0@ABV0@@Z		; Vector::operator+
	mov	ecx, eax
	call	??DVector@@QBE?AV0@M@Z			; Vector::operator*
	mov	eax, DWORD PTR ___$ReturnUdt$[ebp]
	pop	edi
	pop	esi
	pop	ebx
	mov	esp, ebp
	pop	ebp
	ret	4
?Center@CBaseEntity@@UAE?AVVector@@XZ ENDP		; CBaseEntity::Center
_TEXT	ENDS
; Function compile flags: /Odtp /ZI
; File d:\!diffusion 2020\source code 2022\client-server\server\cbase.h
;	COMDAT ?edict@CBaseEntity@@QAEPAUedict_s@@XZ
_TEXT	SEGMENT
_this$ = -4						; size = 4
?edict@CBaseEntity@@QAEPAUedict_s@@XZ PROC		; CBaseEntity::edict, COMDAT
; _this$ = ecx

; 741  : 	edict_t *edict() { return ENT( pev ); };

	push	ebp
	mov	ebp, esp
	sub	esp, 68					; 00000044H
	push	ebx
	push	esi
	push	edi
	mov	DWORD PTR _this$[ebp], ecx
	mov	eax, DWORD PTR _this$[ebp]
	mov	ecx, DWORD PTR [eax+4]
	push	ecx
	call	?ENT@@YAPAUedict_s@@PBUentvars_s@@@Z	; ENT
	add	esp, 4
	pop	edi
	pop	esi
	pop	ebx
	mov	esp, ebp
	pop	ebp
	ret	0
?edict@CBaseEntity@@QAEPAUedict_s@@XZ ENDP		; CBaseEntity::edict
_TEXT	ENDS
; Function compile flags: /Odtp /ZI
; File d:\!diffusion 2020\source code 2022\client-server\server\cbase.h
;	COMDAT ?FBecomeProne@CBaseEntity@@UAEHXZ
_TEXT	SEGMENT
_this$ = -4						; size = 4
?FBecomeProne@CBaseEntity@@UAEHXZ PROC			; CBaseEntity::FBecomeProne, COMDAT
; _this$ = ecx

; 740  : 	virtual BOOL FBecomeProne( void ) {return FALSE;};

	push	ebp
	mov	ebp, esp
	sub	esp, 68					; 00000044H
	push	ebx
	push	esi
	push	edi
	mov	DWORD PTR _this$[ebp], ecx
	xor	eax, eax
	pop	edi
	pop	esi
	pop	ebx
	mov	esp, ebp
	pop	ebp
	ret	0
?FBecomeProne@CBaseEntity@@UAEHXZ ENDP			; CBaseEntity::FBecomeProne
_TEXT	ENDS
; Function compile flags: /Odtp /ZI
; File d:\!diffusion 2020\source code 2022\client-server\server\cbase.h
;	COMDAT ?UpdateOwner@CBaseEntity@@UAEXXZ
_TEXT	SEGMENT
_this$ = -4						; size = 4
?UpdateOwner@CBaseEntity@@UAEXXZ PROC			; CBaseEntity::UpdateOwner, COMDAT
; _this$ = ecx

; 736  : 	virtual	void UpdateOwner( void ) { return; };

	push	ebp
	mov	ebp, esp
	sub	esp, 68					; 00000044H
	push	ebx
	push	esi
	push	edi
	mov	DWORD PTR _this$[ebp], ecx
	pop	edi
	pop	esi
	pop	ebx
	mov	esp, ebp
	pop	ebp
	ret	0
?UpdateOwner@CBaseEntity@@UAEXXZ ENDP			; CBaseEntity::UpdateOwner
_TEXT	ENDS
; Function compile flags: /Odtp /ZI
; File d:\!diffusion 2020\source code 2022\client-server\server\cbase.h
;	COMDAT ?Respawn@CBaseEntity@@UAEPAV1@XZ
_TEXT	SEGMENT
_this$ = -4						; size = 4
?Respawn@CBaseEntity@@UAEPAV1@XZ PROC			; CBaseEntity::Respawn, COMDAT
; _this$ = ecx

; 544  : 	virtual CBaseEntity *Respawn( void ) { return NULL; }

	push	ebp
	mov	ebp, esp
	sub	esp, 68					; 00000044H
	push	ebx
	push	esi
	push	edi
	mov	DWORD PTR _this$[ebp], ecx
	xor	eax, eax
	pop	edi
	pop	esi
	pop	ebx
	mov	esp, ebp
	pop	ebp
	ret	0
?Respawn@CBaseEntity@@UAEPAV1@XZ ENDP			; CBaseEntity::Respawn
_TEXT	ENDS
; Function compile flags: /Odtp /ZI
; File d:\!diffusion 2020\source code 2022\client-server\server\cbase.h
;	COMDAT ??3CBaseEntity@@SAXPAXPAUentvars_s@@@Z
_TEXT	SEGMENT
_pMem$ = 8						; size = 4
_pev$ = 12						; size = 4
??3CBaseEntity@@SAXPAXPAUentvars_s@@@Z PROC		; CBaseEntity::operator delete, COMDAT

; 527  : 	{

	push	ebp
	mov	ebp, esp
	sub	esp, 64					; 00000040H
	push	ebx
	push	esi
	push	edi

; 528  : 		pev->flags |= FL_KILLME;

	mov	eax, DWORD PTR _pev$[ebp]
	mov	ecx, DWORD PTR [eax+420]
	or	ecx, 1073741824				; 40000000H
	mov	edx, DWORD PTR _pev$[ebp]
	mov	DWORD PTR [edx+420], ecx

; 529  : 	};

	pop	edi
	pop	esi
	pop	ebx
	mov	esp, ebp
	pop	ebp
	ret	0
??3CBaseEntity@@SAXPAXPAUentvars_s@@@Z ENDP		; CBaseEntity::operator delete
_TEXT	ENDS
; Function compile flags: /Odtp /ZI
; File d:\!diffusion 2020\source code 2022\client-server\server\cbase.h
;	COMDAT ??2CBaseEntity@@SAPAXIPAUentvars_s@@@Z
_TEXT	SEGMENT
_stAllocateBlock$ = 8					; size = 4
_pev$ = 12						; size = 4
??2CBaseEntity@@SAPAXIPAUentvars_s@@@Z PROC		; CBaseEntity::operator new, COMDAT

; 520  : 	{

	push	ebp
	mov	ebp, esp
	sub	esp, 64					; 00000040H
	push	ebx
	push	esi
	push	edi

; 521  : 		return (void *)ALLOC_PRIVATE(ENT(pev), stAllocateBlock);

	mov	eax, DWORD PTR _stAllocateBlock$[ebp]
	push	eax
	mov	ecx, DWORD PTR _pev$[ebp]
	push	ecx
	call	?ENT@@YAPAUedict_s@@PBUentvars_s@@@Z	; ENT
	add	esp, 4
	push	eax
	call	DWORD PTR ?g_engfuncs@@3Uenginefuncs_s@@A+252
	add	esp, 8

; 522  : 	};

	pop	edi
	pop	esi
	pop	ebx
	mov	esp, ebp
	pop	ebp
	ret	0
??2CBaseEntity@@SAPAXIPAUentvars_s@@@Z ENDP		; CBaseEntity::operator new
_TEXT	ENDS
; Function compile flags: /Odtp /ZI
; File d:\!diffusion 2020\source code 2022\client-server\server\cbase.h
;	COMDAT ?MoveDone@CBaseEntity@@UAEXXZ
_TEXT	SEGMENT
_this$ = -4						; size = 4
?MoveDone@CBaseEntity@@UAEXXZ PROC			; CBaseEntity::MoveDone, COMDAT
; _this$ = ecx

; 516  : 	virtual void MoveDone( void ) { if( m_pfnMoveDone )(this->*m_pfnMoveDone)(); };

	push	ebp
	mov	ebp, esp
	sub	esp, 68					; 00000044H
	push	ebx
	push	esi
	push	edi
	mov	DWORD PTR _this$[ebp], ecx
	mov	eax, DWORD PTR _this$[ebp]
	cmp	DWORD PTR [eax+1772], 0
	je	SHORT $LN1@MoveDone
	mov	eax, DWORD PTR _this$[ebp]
	mov	ecx, DWORD PTR _this$[ebp]
	mov	edx, DWORD PTR [eax+1772]
	call	edx
$LN1@MoveDone:
	pop	edi
	pop	esi
	pop	ebx
	mov	esp, ebp
	pop	ebp
	ret	0
?MoveDone@CBaseEntity@@UAEXXZ ENDP			; CBaseEntity::MoveDone
_TEXT	ENDS
; Function compile flags: /Odtp /ZI
; File d:\!diffusion 2020\source code 2022\client-server\server\cbase.h
;	COMDAT ?Blocked@CBaseEntity@@UAEXPAV1@@Z
_TEXT	SEGMENT
tv77 = -72						; size = 4
_this$ = -4						; size = 4
_pOther$ = 8						; size = 4
?Blocked@CBaseEntity@@UAEXPAV1@@Z PROC			; CBaseEntity::Blocked, COMDAT
; _this$ = ecx

; 507  : 	{

	push	ebp
	mov	ebp, esp
	sub	esp, 72					; 00000048H
	push	ebx
	push	esi
	push	edi
	mov	DWORD PTR _this$[ebp], ecx

; 508  : 		if( m_pfnBlocked )

	mov	eax, DWORD PTR _this$[ebp]
	cmp	DWORD PTR [eax+1768], 0
	je	SHORT $LN2@Blocked

; 509  : 			(this->*m_pfnBlocked)( pOther );

	mov	eax, DWORD PTR _pOther$[ebp]
	push	eax
	mov	edx, DWORD PTR _this$[ebp]
	mov	ecx, DWORD PTR _this$[ebp]
	mov	eax, DWORD PTR [edx+1768]
	call	eax
$LN2@Blocked:

; 510  : 
; 511  : 		// forward the blocked event to our parent, if any.
; 512  : 		if( m_hParent != NULL )

	mov	ecx, DWORD PTR _this$[ebp]
	add	ecx, 160				; 000000a0H
	call	??BEHANDLE@@QAEHXZ			; EHANDLE::operator int
	test	eax, eax
	je	SHORT $LN1@Blocked

; 513  : 			m_hParent->Blocked( pOther );

	mov	ecx, DWORD PTR _this$[ebp]
	add	ecx, 160				; 000000a0H
	call	??CEHANDLE@@QAEPAVCBaseEntity@@XZ	; EHANDLE::operator->
	mov	DWORD PTR tv77[ebp], eax
	mov	eax, DWORD PTR _pOther$[ebp]
	push	eax
	mov	ecx, DWORD PTR tv77[ebp]
	mov	edx, DWORD PTR [ecx]
	mov	ecx, DWORD PTR tv77[ebp]
	mov	eax, DWORD PTR [edx+316]
	call	eax
$LN1@Blocked:

; 514  : 	}

	pop	edi
	pop	esi
	pop	ebx
	mov	esp, ebp
	pop	ebp
	ret	4
?Blocked@CBaseEntity@@UAEXPAV1@@Z ENDP			; CBaseEntity::Blocked
_TEXT	ENDS
; Function compile flags: /Odtp /ZI
; File d:\!diffusion 2020\source code 2022\client-server\server\cbase.h
;	COMDAT ?Touch@CBaseEntity@@UAEXPAV1@@Z
_TEXT	SEGMENT
tv80 = -72						; size = 4
_this$ = -4						; size = 4
_pOther$ = 8						; size = 4
?Touch@CBaseEntity@@UAEXPAV1@@Z PROC			; CBaseEntity::Touch, COMDAT
; _this$ = ecx

; 497  : 	{

	push	ebp
	mov	ebp, esp
	sub	esp, 72					; 00000048H
	push	ebx
	push	esi
	push	edi
	mov	DWORD PTR _this$[ebp], ecx

; 498  : 		if( m_pfnTouch )

	mov	eax, DWORD PTR _this$[ebp]
	cmp	DWORD PTR [eax+1760], 0
	je	SHORT $LN2@Touch

; 499  : 			(this->*m_pfnTouch)( pOther );

	mov	eax, DWORD PTR _pOther$[ebp]
	push	eax
	mov	edx, DWORD PTR _this$[ebp]
	mov	ecx, DWORD PTR _this$[ebp]
	mov	eax, DWORD PTR [edx+1760]
	call	eax
$LN2@Touch:

; 500  : 
; 501  : 		// forward the blocked event to our parent, if any.
; 502  : 		if( m_hParent != NULL && !m_isChaining )

	mov	ecx, DWORD PTR _this$[ebp]
	add	ecx, 160				; 000000a0H
	call	??BEHANDLE@@QAEHXZ			; EHANDLE::operator int
	test	eax, eax
	je	SHORT $LN1@Touch
	mov	eax, DWORD PTR _this$[ebp]
	movzx	ecx, BYTE PTR [eax+1640]
	test	ecx, ecx
	jne	SHORT $LN1@Touch

; 503  : 			m_hParent->Touch( pOther );

	mov	ecx, DWORD PTR _this$[ebp]
	add	ecx, 160				; 000000a0H
	call	??CEHANDLE@@QAEPAVCBaseEntity@@XZ	; EHANDLE::operator->
	mov	DWORD PTR tv80[ebp], eax
	mov	eax, DWORD PTR _pOther$[ebp]
	push	eax
	mov	ecx, DWORD PTR tv80[ebp]
	mov	edx, DWORD PTR [ecx]
	mov	ecx, DWORD PTR tv80[ebp]
	mov	eax, DWORD PTR [edx+312]
	call	eax
$LN1@Touch:

; 504  : 	}

	pop	edi
	pop	esi
	pop	ebx
	mov	esp, ebp
	pop	ebp
	ret	4
?Touch@CBaseEntity@@UAEXPAV1@@Z ENDP			; CBaseEntity::Touch
_TEXT	ENDS
; Function compile flags: /Odtp /ZI
; File d:\!diffusion 2020\source code 2022\client-server\server\cbase.h
;	COMDAT ?Use@CBaseEntity@@UAEXPAV1@0W4USE_TYPE@@M@Z
_TEXT	SEGMENT
_this$ = -4						; size = 4
_pActivator$ = 8					; size = 4
_pCaller$ = 12						; size = 4
_useType$ = 16						; size = 4
_value$ = 20						; size = 4
?Use@CBaseEntity@@UAEXPAV1@0W4USE_TYPE@@M@Z PROC	; CBaseEntity::Use, COMDAT
; _this$ = ecx

; 492  : 	{

	push	ebp
	mov	ebp, esp
	sub	esp, 68					; 00000044H
	push	ebx
	push	esi
	push	edi
	mov	DWORD PTR _this$[ebp], ecx

; 493  : 		if (m_pfnUse) (this->*m_pfnUse)( pActivator, pCaller, useType, value );

	mov	eax, DWORD PTR _this$[ebp]
	cmp	DWORD PTR [eax+1764], 0
	je	SHORT $LN2@Use
	push	ecx
	movss	xmm0, DWORD PTR _value$[ebp]
	movss	DWORD PTR [esp], xmm0
	mov	eax, DWORD PTR _useType$[ebp]
	push	eax
	mov	ecx, DWORD PTR _pCaller$[ebp]
	push	ecx
	mov	edx, DWORD PTR _pActivator$[ebp]
	push	edx
	mov	eax, DWORD PTR _this$[ebp]
	mov	ecx, DWORD PTR _this$[ebp]
	mov	edx, DWORD PTR [eax+1764]
	call	edx
$LN2@Use:

; 494  : 	}

	pop	edi
	pop	esi
	pop	ebx
	mov	esp, ebp
	pop	ebp
	ret	16					; 00000010H
?Use@CBaseEntity@@UAEXPAV1@0W4USE_TYPE@@M@Z ENDP	; CBaseEntity::Use
_TEXT	ENDS
; Function compile flags: /Odtp /ZI
; File d:\!diffusion 2020\source code 2022\client-server\server\cbase.h
;	COMDAT ?Think@CBaseEntity@@UAEXXZ
_TEXT	SEGMENT
_this$ = -4						; size = 4
?Think@CBaseEntity@@UAEXXZ PROC				; CBaseEntity::Think, COMDAT
; _this$ = ecx

; 489  : 	virtual void Think( void ) { if (m_pfnThink) (this->*m_pfnThink)(); };

	push	ebp
	mov	ebp, esp
	sub	esp, 68					; 00000044H
	push	ebx
	push	esi
	push	edi
	mov	DWORD PTR _this$[ebp], ecx
	mov	eax, DWORD PTR _this$[ebp]
	cmp	DWORD PTR [eax+1756], 0
	je	SHORT $LN1@Think
	mov	eax, DWORD PTR _this$[ebp]
	mov	ecx, DWORD PTR _this$[ebp]
	mov	edx, DWORD PTR [eax+1756]
	call	edx
$LN1@Think:
	pop	edi
	pop	esi
	pop	ebx
	mov	esp, ebp
	pop	ebp
	ret	0
?Think@CBaseEntity@@UAEXXZ ENDP				; CBaseEntity::Think
_TEXT	ENDS
; Function compile flags: /Odtp /ZI
; File d:\!diffusion 2020\source code 2022\client-server\server\cbase.h
;	COMDAT ?OnDropObject@CBaseEntity@@UAEXXZ
_TEXT	SEGMENT
_this$ = -4						; size = 4
?OnDropObject@CBaseEntity@@UAEXXZ PROC			; CBaseEntity::OnDropObject, COMDAT
; _this$ = ecx

; 478  : 	virtual void OnDropObject( void ){ };

	push	ebp
	mov	ebp, esp
	sub	esp, 68					; 00000044H
	push	ebx
	push	esi
	push	edi
	mov	DWORD PTR _this$[ebp], ecx
	pop	edi
	pop	esi
	pop	ebx
	mov	esp, ebp
	pop	ebp
	ret	0
?OnDropObject@CBaseEntity@@UAEXXZ ENDP			; CBaseEntity::OnDropObject
_TEXT	ENDS
; Function compile flags: /Odtp /ZI
; File d:\!diffusion 2020\source code 2022\client-server\server\cbase.h
;	COMDAT ?OnPickupObject@CBaseEntity@@UAEXXZ
_TEXT	SEGMENT
_this$ = -4						; size = 4
?OnPickupObject@CBaseEntity@@UAEXXZ PROC		; CBaseEntity::OnPickupObject, COMDAT
; _this$ = ecx

; 477  : 	virtual void OnPickupObject( void ) { };

	push	ebp
	mov	ebp, esp
	sub	esp, 68					; 00000044H
	push	ebx
	push	esi
	push	edi
	mov	DWORD PTR _this$[ebp], ecx
	pop	edi
	pop	esi
	pop	ebx
	mov	esp, ebp
	pop	ebp
	ret	0
?OnPickupObject@CBaseEntity@@UAEXXZ ENDP		; CBaseEntity::OnPickupObject
_TEXT	ENDS
; Function compile flags: /Odtp /ZI
; File d:\!diffusion 2020\source code 2022\client-server\server\cbase.h
;	COMDAT ?SetNullModel@CBaseEntity@@UAEXXZ
_TEXT	SEGMENT
_this$ = -4						; size = 4
?SetNullModel@CBaseEntity@@UAEXXZ PROC			; CBaseEntity::SetNullModel, COMDAT
; _this$ = ecx

; 1228 : {

	push	ebp
	mov	ebp, esp
	sub	esp, 68					; 00000044H
	push	ebx
	push	esi
	push	edi
	mov	DWORD PTR _this$[ebp], ecx

; 1229 : 	SET_MODEL( edict(), "sprites/null.spr" );

	push	OFFSET ??_C@_0BB@EMJBJDBM@sprites?1null?4spr?$AA@
	mov	ecx, DWORD PTR _this$[ebp]
	call	?edict@CBaseEntity@@QAEPAUedict_s@@XZ	; CBaseEntity::edict
	push	eax
	call	DWORD PTR ?g_engfuncs@@3Uenginefuncs_s@@A+8
	add	esp, 8

; 1230 : }

	pop	edi
	pop	esi
	pop	ebx
	mov	esp, ebp
	pop	ebp
	ret	0
?SetNullModel@CBaseEntity@@UAEXXZ ENDP			; CBaseEntity::SetNullModel
_TEXT	ENDS
; Function compile flags: /Odtp /ZI
; File d:\!diffusion 2020\source code 2022\client-server\server\cbase.h
;	COMDAT ?RemoveFlag@CBaseEntity@@UAEXH@Z
_TEXT	SEGMENT
_this$ = -4						; size = 4
_Flag$ = 8						; size = 4
?RemoveFlag@CBaseEntity@@UAEXH@Z PROC			; CBaseEntity::RemoveFlag, COMDAT
; _this$ = ecx

; 1223 : {

	push	ebp
	mov	ebp, esp
	sub	esp, 68					; 00000044H
	push	ebx
	push	esi
	push	edi
	mov	DWORD PTR _this$[ebp], ecx

; 1224 : 	m_iFlags2 &= ~Flag;

	mov	eax, DWORD PTR _Flag$[ebp]
	not	eax
	mov	ecx, DWORD PTR _this$[ebp]
	and	eax, DWORD PTR [ecx+28]
	mov	edx, DWORD PTR _this$[ebp]
	mov	DWORD PTR [edx+28], eax

; 1225 : }

	pop	edi
	pop	esi
	pop	ebx
	mov	esp, ebp
	pop	ebp
	ret	4
?RemoveFlag@CBaseEntity@@UAEXH@Z ENDP			; CBaseEntity::RemoveFlag
_TEXT	ENDS
; Function compile flags: /Odtp /ZI
; File d:\!diffusion 2020\source code 2022\client-server\server\cbase.h
;	COMDAT ?HasFlag@CBaseEntity@@UBE_NH@Z
_TEXT	SEGMENT
tv67 = -72						; size = 4
_this$ = -4						; size = 4
_Flag$ = 8						; size = 4
?HasFlag@CBaseEntity@@UBE_NH@Z PROC			; CBaseEntity::HasFlag, COMDAT
; _this$ = ecx

; 1213 : {

	push	ebp
	mov	ebp, esp
	sub	esp, 72					; 00000048H
	push	ebx
	push	esi
	push	edi
	mov	DWORD PTR _this$[ebp], ecx

; 1214 : 	return (m_iFlags2 & Flag) != 0;

	mov	eax, DWORD PTR _this$[ebp]
	mov	ecx, DWORD PTR [eax+28]
	and	ecx, DWORD PTR _Flag$[ebp]
	je	SHORT $LN3@HasFlag
	mov	DWORD PTR tv67[ebp], 1
	jmp	SHORT $LN4@HasFlag
$LN3@HasFlag:
	mov	DWORD PTR tv67[ebp], 0
$LN4@HasFlag:
	mov	al, BYTE PTR tv67[ebp]

; 1215 : }

	pop	edi
	pop	esi
	pop	ebx
	mov	esp, ebp
	pop	ebp
	ret	4
?HasFlag@CBaseEntity@@UBE_NH@Z ENDP			; CBaseEntity::HasFlag
_TEXT	ENDS
; Function compile flags: /Odtp /ZI
; File d:\!diffusion 2020\source code 2022\client-server\server\cbase.h
;	COMDAT ?SetFlag@CBaseEntity@@UAEXH@Z
_TEXT	SEGMENT
_this$ = -4						; size = 4
_Flag$ = 8						; size = 4
?SetFlag@CBaseEntity@@UAEXH@Z PROC			; CBaseEntity::SetFlag, COMDAT
; _this$ = ecx

; 1218 : {

	push	ebp
	mov	ebp, esp
	sub	esp, 68					; 00000044H
	push	ebx
	push	esi
	push	edi
	mov	DWORD PTR _this$[ebp], ecx

; 1219 : 	m_iFlags2 |= Flag;

	mov	eax, DWORD PTR _this$[ebp]
	mov	ecx, DWORD PTR [eax+28]
	or	ecx, DWORD PTR _Flag$[ebp]
	mov	edx, DWORD PTR _this$[ebp]
	mov	DWORD PTR [edx+28], ecx

; 1220 : }

	pop	edi
	pop	esi
	pop	ebx
	mov	esp, ebp
	pop	ebp
	ret	4
?SetFlag@CBaseEntity@@UAEXH@Z ENDP			; CBaseEntity::SetFlag
_TEXT	ENDS
; Function compile flags: /Odtp /ZI
; File d:\!diffusion 2020\source code 2022\client-server\server\cbase.h
;	COMDAT ?SetFadeDistance@CBaseEntity@@UAEXH@Z
_TEXT	SEGMENT
_this$ = -4						; size = 4
_Distance$ = 8						; size = 4
?SetFadeDistance@CBaseEntity@@UAEXH@Z PROC		; CBaseEntity::SetFadeDistance, COMDAT
; _this$ = ecx

; 1208 : {

	push	ebp
	mov	ebp, esp
	sub	esp, 68					; 00000044H
	push	ebx
	push	esi
	push	edi
	mov	DWORD PTR _this$[ebp], ecx

; 1209 : 	pev->iuser4 = Distance;

	mov	eax, DWORD PTR _this$[ebp]
	mov	ecx, DWORD PTR [eax+4]
	mov	edx, DWORD PTR _Distance$[ebp]
	mov	DWORD PTR [ecx+592], edx

; 1210 : }

	pop	edi
	pop	esi
	pop	ebx
	mov	esp, ebp
	pop	ebp
	ret	4
?SetFadeDistance@CBaseEntity@@UAEXH@Z ENDP		; CBaseEntity::SetFadeDistance
_TEXT	ENDS
; Function compile flags: /Odtp /ZI
; File d:\!diffusion 2020\source code 2022\client-server\server\cbase.h
;	COMDAT ?HasSpawnFlags@CBaseEntity@@UBE_NH@Z
_TEXT	SEGMENT
tv68 = -72						; size = 4
_this$ = -4						; size = 4
_nFlags$ = 8						; size = 4
?HasSpawnFlags@CBaseEntity@@UBE_NH@Z PROC		; CBaseEntity::HasSpawnFlags, COMDAT
; _this$ = ecx

; 1202 : {

	push	ebp
	mov	ebp, esp
	sub	esp, 72					; 00000048H
	push	ebx
	push	esi
	push	edi
	mov	DWORD PTR _this$[ebp], ecx

; 1203 : 	return (pev->spawnflags & nFlags) != 0;

	mov	eax, DWORD PTR _this$[ebp]
	mov	ecx, DWORD PTR [eax+4]
	mov	edx, DWORD PTR [ecx+416]
	and	edx, DWORD PTR _nFlags$[ebp]
	je	SHORT $LN3@HasSpawnFl
	mov	DWORD PTR tv68[ebp], 1
	jmp	SHORT $LN4@HasSpawnFl
$LN3@HasSpawnFl:
	mov	DWORD PTR tv68[ebp], 0
$LN4@HasSpawnFl:
	mov	al, BYTE PTR tv68[ebp]

; 1204 : }

	pop	edi
	pop	esi
	pop	ebx
	mov	esp, ebp
	pop	ebp
	ret	4
?HasSpawnFlags@CBaseEntity@@UBE_NH@Z ENDP		; CBaseEntity::HasSpawnFlags
_TEXT	ENDS
; Function compile flags: /Odtp /ZI
; File d:\!diffusion 2020\source code 2022\client-server\server\cbase.h
;	COMDAT ?AddSpawnFlags@CBaseEntity@@UAEXH@Z
_TEXT	SEGMENT
_this$ = -4						; size = 4
_nFlags$ = 8						; size = 4
?AddSpawnFlags@CBaseEntity@@UAEXH@Z PROC		; CBaseEntity::AddSpawnFlags, COMDAT
; _this$ = ecx

; 1197 : {

	push	ebp
	mov	ebp, esp
	sub	esp, 68					; 00000044H
	push	ebx
	push	esi
	push	edi
	mov	DWORD PTR _this$[ebp], ecx

; 1198 : 	pev->spawnflags |= nFlags;

	mov	eax, DWORD PTR _this$[ebp]
	mov	ecx, DWORD PTR [eax+4]
	mov	edx, DWORD PTR [ecx+416]
	or	edx, DWORD PTR _nFlags$[ebp]
	mov	eax, DWORD PTR _this$[ebp]
	mov	ecx, DWORD PTR [eax+4]
	mov	DWORD PTR [ecx+416], edx

; 1199 : }

	pop	edi
	pop	esi
	pop	ebx
	mov	esp, ebp
	pop	ebp
	ret	4
?AddSpawnFlags@CBaseEntity@@UAEXH@Z ENDP		; CBaseEntity::AddSpawnFlags
_TEXT	ENDS
; Function compile flags: /Odtp /ZI
; File d:\!diffusion 2020\source code 2022\client-server\server\cbase.h
;	COMDAT ?TeamID@CBaseEntity@@UAEPBDXZ
_TEXT	SEGMENT
_this$ = -4						; size = 4
?TeamID@CBaseEntity@@UAEPBDXZ PROC			; CBaseEntity::TeamID, COMDAT
; _this$ = ecx

; 466  : 	virtual const char	*TeamID( void ) { return ""; }

	push	ebp
	mov	ebp, esp
	sub	esp, 68					; 00000044H
	push	ebx
	push	esi
	push	edi
	mov	DWORD PTR _this$[ebp], ecx
	mov	eax, OFFSET ??_C@_00CNPNBAHC@?$AA@
	pop	edi
	pop	esi
	pop	ebx
	mov	esp, ebp
	pop	ebp
	ret	0
?TeamID@CBaseEntity@@UAEPBDXZ ENDP			; CBaseEntity::TeamID
_TEXT	ENDS
; Function compile flags: /Odtp /ZI
; File d:\!diffusion 2020\source code 2022\client-server\server\cbase.h
;	COMDAT ?IsBreakable@CBaseEntity@@UAEHXZ
_TEXT	SEGMENT
_this$ = -4						; size = 4
?IsBreakable@CBaseEntity@@UAEHXZ PROC			; CBaseEntity::IsBreakable, COMDAT
; _this$ = ecx

; 465  : 	virtual BOOL	IsBreakable( void ) { return FALSE; }

	push	ebp
	mov	ebp, esp
	sub	esp, 68					; 00000044H
	push	ebx
	push	esi
	push	edi
	mov	DWORD PTR _this$[ebp], ecx
	xor	eax, eax
	pop	edi
	pop	esi
	pop	ebx
	mov	esp, ebp
	pop	ebp
	ret	0
?IsBreakable@CBaseEntity@@UAEHXZ ENDP			; CBaseEntity::IsBreakable
_TEXT	ENDS
; Function compile flags: /Odtp /ZI
; File d:\!diffusion 2020\source code 2022\client-server\server\cbase.h
;	COMDAT ?IsMover@CBaseEntity@@UAEHXZ
_TEXT	SEGMENT
_this$ = -4						; size = 4
?IsMover@CBaseEntity@@UAEHXZ PROC			; CBaseEntity::IsMover, COMDAT
; _this$ = ecx

; 464  : 	virtual BOOL	IsMover( void ) { return FALSE; }

	push	ebp
	mov	ebp, esp
	sub	esp, 68					; 00000044H
	push	ebx
	push	esi
	push	edi
	mov	DWORD PTR _this$[ebp], ecx
	xor	eax, eax
	pop	edi
	pop	esi
	pop	ebx
	mov	esp, ebp
	pop	ebp
	ret	0
?IsMover@CBaseEntity@@UAEHXZ ENDP			; CBaseEntity::IsMover
_TEXT	ENDS
; Function compile flags: /Odtp /ZI
; File d:\!diffusion 2020\source code 2022\client-server\server\cbase.h
;	COMDAT ?IsTank@CBaseEntity@@UAEHXZ
_TEXT	SEGMENT
_this$ = -4						; size = 4
?IsTank@CBaseEntity@@UAEHXZ PROC			; CBaseEntity::IsTank, COMDAT
; _this$ = ecx

; 463  : 	virtual BOOL	IsTank( void ) { return FALSE; }

	push	ebp
	mov	ebp, esp
	sub	esp, 68					; 00000044H
	push	ebx
	push	esi
	push	edi
	mov	DWORD PTR _this$[ebp], ecx
	xor	eax, eax
	pop	edi
	pop	esi
	pop	ebx
	mov	esp, ebp
	pop	ebp
	ret	0
?IsTank@CBaseEntity@@UAEHXZ ENDP			; CBaseEntity::IsTank
_TEXT	ENDS
; Function compile flags: /Odtp /ZI
; File d:\!diffusion 2020\source code 2022\client-server\server\cbase.h
;	COMDAT ?IsPortal@CBaseEntity@@UAEHXZ
_TEXT	SEGMENT
_this$ = -4						; size = 4
?IsPortal@CBaseEntity@@UAEHXZ PROC			; CBaseEntity::IsPortal, COMDAT
; _this$ = ecx

; 462  : 	virtual BOOL	IsPortal( void ) { return FALSE; }

	push	ebp
	mov	ebp, esp
	sub	esp, 68					; 00000044H
	push	ebx
	push	esi
	push	edi
	mov	DWORD PTR _this$[ebp], ecx
	xor	eax, eax
	pop	edi
	pop	esi
	pop	ebx
	mov	esp, ebp
	pop	ebp
	ret	0
?IsPortal@CBaseEntity@@UAEHXZ ENDP			; CBaseEntity::IsPortal
_TEXT	ENDS
; Function compile flags: /Odtp /ZI
; File d:\!diffusion 2020\source code 2022\client-server\server\cbase.h
;	COMDAT ?IsFuncScreen@CBaseEntity@@UAEHXZ
_TEXT	SEGMENT
_this$ = -4						; size = 4
?IsFuncScreen@CBaseEntity@@UAEHXZ PROC			; CBaseEntity::IsFuncScreen, COMDAT
; _this$ = ecx

; 461  : 	virtual BOOL	IsFuncScreen( void ) { return FALSE; }

	push	ebp
	mov	ebp, esp
	sub	esp, 68					; 00000044H
	push	ebx
	push	esi
	push	edi
	mov	DWORD PTR _this$[ebp], ecx
	xor	eax, eax
	pop	edi
	pop	esi
	pop	ebx
	mov	esp, ebp
	pop	ebp
	ret	0
?IsFuncScreen@CBaseEntity@@UAEHXZ ENDP			; CBaseEntity::IsFuncScreen
_TEXT	ENDS
; Function compile flags: /Odtp /ZI
; File d:\!diffusion 2020\source code 2022\client-server\server\cbase.h
;	COMDAT ?IsProjectile@CBaseEntity@@UAEHXZ
_TEXT	SEGMENT
_this$ = -4						; size = 4
?IsProjectile@CBaseEntity@@UAEHXZ PROC			; CBaseEntity::IsProjectile, COMDAT
; _this$ = ecx

; 460  : 	virtual BOOL	IsProjectile( void ) { return FALSE; }

	push	ebp
	mov	ebp, esp
	sub	esp, 68					; 00000044H
	push	ebx
	push	esi
	push	edi
	mov	DWORD PTR _this$[ebp], ecx
	xor	eax, eax
	pop	edi
	pop	esi
	pop	ebx
	mov	esp, ebp
	pop	ebp
	ret	0
?IsProjectile@CBaseEntity@@UAEHXZ ENDP			; CBaseEntity::IsProjectile
_TEXT	ENDS
; Function compile flags: /Odtp /ZI
; File d:\!diffusion 2020\source code 2022\client-server\server\cbase.h
;	COMDAT ?IsPushable@CBaseEntity@@UAEHXZ
_TEXT	SEGMENT
_this$ = -4						; size = 4
?IsPushable@CBaseEntity@@UAEHXZ PROC			; CBaseEntity::IsPushable, COMDAT
; _this$ = ecx

; 459  : 	virtual BOOL	IsPushable( void ) { return FALSE; }

	push	ebp
	mov	ebp, esp
	sub	esp, 68					; 00000044H
	push	ebx
	push	esi
	push	edi
	mov	DWORD PTR _this$[ebp], ecx
	xor	eax, eax
	pop	edi
	pop	esi
	pop	ebx
	mov	esp, ebp
	pop	ebp
	ret	0
?IsPushable@CBaseEntity@@UAEHXZ ENDP			; CBaseEntity::IsPushable
_TEXT	ENDS
; Function compile flags: /Odtp /ZI
; File d:\!diffusion 2020\source code 2022\client-server\server\cbase.h
;	COMDAT ?IsMonster@CBaseEntity@@UAEHXZ
_TEXT	SEGMENT
tv68 = -72						; size = 4
_this$ = -4						; size = 4
?IsMonster@CBaseEntity@@UAEHXZ PROC			; CBaseEntity::IsMonster, COMDAT
; _this$ = ecx

; 458  : 	virtual BOOL	IsMonster( void ) { return (pev->flags & FL_MONSTER ? TRUE : FALSE); }

	push	ebp
	mov	ebp, esp
	sub	esp, 72					; 00000048H
	push	ebx
	push	esi
	push	edi
	mov	DWORD PTR _this$[ebp], ecx
	mov	eax, DWORD PTR _this$[ebp]
	mov	ecx, DWORD PTR [eax+4]
	mov	edx, DWORD PTR [ecx+420]
	and	edx, 32					; 00000020H
	je	SHORT $LN3@IsMonster
	mov	DWORD PTR tv68[ebp], 1
	jmp	SHORT $LN4@IsMonster
$LN3@IsMonster:
	mov	DWORD PTR tv68[ebp], 0
$LN4@IsMonster:
	mov	eax, DWORD PTR tv68[ebp]
	pop	edi
	pop	esi
	pop	ebx
	mov	esp, ebp
	pop	ebp
	ret	0
?IsMonster@CBaseEntity@@UAEHXZ ENDP			; CBaseEntity::IsMonster
_TEXT	ENDS
; Function compile flags: /Odtp /ZI
; File d:\!diffusion 2020\source code 2022\client-server\server\cbase.h
;	COMDAT ?IsNetClient@CBaseEntity@@UAEHXZ
_TEXT	SEGMENT
_this$ = -4						; size = 4
?IsNetClient@CBaseEntity@@UAEHXZ PROC			; CBaseEntity::IsNetClient, COMDAT
; _this$ = ecx

; 457  : 	virtual BOOL	IsNetClient( void ) { return FALSE; }

	push	ebp
	mov	ebp, esp
	sub	esp, 68					; 00000044H
	push	ebx
	push	esi
	push	edi
	mov	DWORD PTR _this$[ebp], ecx
	xor	eax, eax
	pop	edi
	pop	esi
	pop	ebx
	mov	esp, ebp
	pop	ebp
	ret	0
?IsNetClient@CBaseEntity@@UAEHXZ ENDP			; CBaseEntity::IsNetClient
_TEXT	ENDS
; Function compile flags: /Odtp /ZI
; File d:\!diffusion 2020\source code 2022\client-server\server\cbase.h
;	COMDAT ?IsPlayer@CBaseEntity@@UAEHXZ
_TEXT	SEGMENT
_this$ = -4						; size = 4
?IsPlayer@CBaseEntity@@UAEHXZ PROC			; CBaseEntity::IsPlayer, COMDAT
; _this$ = ecx

; 456  : 	virtual BOOL	IsPlayer( void ) { return FALSE; }

	push	ebp
	mov	ebp, esp
	sub	esp, 68					; 00000044H
	push	ebx
	push	esi
	push	edi
	mov	DWORD PTR _this$[ebp], ecx
	xor	eax, eax
	pop	edi
	pop	esi
	pop	ebx
	mov	esp, ebp
	pop	ebp
	ret	0
?IsPlayer@CBaseEntity@@UAEHXZ ENDP			; CBaseEntity::IsPlayer
_TEXT	ENDS
; Function compile flags: /Odtp /ZI
; File d:\!diffusion 2020\source code 2022\client-server\server\cbase.h
;	COMDAT ?HasTarget@CBaseEntity@@UAEHH@Z
_TEXT	SEGMENT
_this$ = -4						; size = 4
_targetname$ = 8					; size = 4
?HasTarget@CBaseEntity@@UAEHH@Z PROC			; CBaseEntity::HasTarget, COMDAT
; _this$ = ecx

; 454  : 	virtual BOOL	HasTarget( string_t targetname ) { return FStrEq(STRING(targetname), STRING(pev->target) ); }

	push	ebp
	mov	ebp, esp
	sub	esp, 68					; 00000044H
	push	ebx
	push	esi
	push	edi
	mov	DWORD PTR _this$[ebp], ecx
	mov	eax, DWORD PTR _this$[ebp]
	mov	ecx, DWORD PTR [eax+4]
	mov	edx, DWORD PTR [ecx+456]
	push	edx
	call	DWORD PTR ?g_engfuncs@@3Uenginefuncs_s@@A+264
	add	esp, 4
	push	eax
	mov	eax, DWORD PTR _targetname$[ebp]
	push	eax
	call	DWORD PTR ?g_engfuncs@@3Uenginefuncs_s@@A+264
	add	esp, 4
	push	eax
	call	?FStrEq@@YAHPBD0@Z			; FStrEq
	add	esp, 8
	pop	edi
	pop	esi
	pop	ebx
	mov	esp, ebp
	pop	ebp
	ret	4
?HasTarget@CBaseEntity@@UAEHH@Z ENDP			; CBaseEntity::HasTarget
_TEXT	ENDS
; Function compile flags: /Odtp /ZI
; File d:\!diffusion 2020\source code 2022\client-server\server\cbase.h
;	COMDAT ?ReflectGauss@CBaseEntity@@UAEHXZ
_TEXT	SEGMENT
tv77 = -72						; size = 4
_this$ = -4						; size = 4
?ReflectGauss@CBaseEntity@@UAEHXZ PROC			; CBaseEntity::ReflectGauss, COMDAT
; _this$ = ecx

; 453  : 	virtual BOOL	ReflectGauss( void ) { return (( IsBSPModel() || IsCustomModel()) && !pev->takedamage ); }

	push	ebp
	mov	ebp, esp
	sub	esp, 72					; 00000048H
	push	ebx
	push	esi
	push	edi
	mov	DWORD PTR _this$[ebp], ecx
	mov	eax, DWORD PTR _this$[ebp]
	mov	edx, DWORD PTR [eax]
	mov	ecx, DWORD PTR _this$[ebp]
	mov	eax, DWORD PTR [edx+200]
	call	eax
	test	eax, eax
	jne	SHORT $LN3@ReflectGau
	mov	ecx, DWORD PTR _this$[ebp]
	mov	edx, DWORD PTR [ecx]
	mov	ecx, DWORD PTR _this$[ebp]
	mov	eax, DWORD PTR [edx+204]
	call	eax
	test	eax, eax
	je	SHORT $LN4@ReflectGau
$LN3@ReflectGau:
	mov	ecx, DWORD PTR _this$[ebp]
	mov	edx, DWORD PTR [ecx+4]
	movss	xmm0, DWORD PTR [edx+364]
	ucomiss	xmm0, DWORD PTR __real@00000000
	lahf
	test	ah, 68					; 00000044H
	jp	SHORT $LN4@ReflectGau
	mov	DWORD PTR tv77[ebp], 1
	jmp	SHORT $LN5@ReflectGau
$LN4@ReflectGau:
	mov	DWORD PTR tv77[ebp], 0
$LN5@ReflectGau:
	mov	eax, DWORD PTR tv77[ebp]
	pop	edi
	pop	esi
	pop	ebx
	mov	esp, ebp
	pop	ebp
	ret	0
?ReflectGauss@CBaseEntity@@UAEHXZ ENDP			; CBaseEntity::ReflectGauss
_TEXT	ENDS
; Function compile flags: /Odtp /ZI
; File d:\!diffusion 2020\source code 2022\client-server\server\cbase.h
;	COMDAT ?IsCustomModel@CBaseEntity@@UAEHXZ
_TEXT	SEGMENT
tv67 = -72						; size = 4
_this$ = -4						; size = 4
?IsCustomModel@CBaseEntity@@UAEHXZ PROC			; CBaseEntity::IsCustomModel, COMDAT
; _this$ = ecx

; 452  : 	virtual BOOL	IsCustomModel( void ) { return pev->solid == SOLID_CUSTOM; }

	push	ebp
	mov	ebp, esp
	sub	esp, 72					; 00000048H
	push	ebx
	push	esi
	push	edi
	mov	DWORD PTR _this$[ebp], ecx
	mov	eax, DWORD PTR _this$[ebp]
	mov	ecx, DWORD PTR [eax+4]
	cmp	DWORD PTR [ecx+268], 5
	jne	SHORT $LN3@IsCustomMo
	mov	DWORD PTR tv67[ebp], 1
	jmp	SHORT $LN4@IsCustomMo
$LN3@IsCustomMo:
	mov	DWORD PTR tv67[ebp], 0
$LN4@IsCustomMo:
	mov	eax, DWORD PTR tv67[ebp]
	pop	edi
	pop	esi
	pop	ebx
	mov	esp, ebp
	pop	ebp
	ret	0
?IsCustomModel@CBaseEntity@@UAEHXZ ENDP			; CBaseEntity::IsCustomModel
_TEXT	ENDS
; Function compile flags: /Odtp /ZI
; File d:\!diffusion 2020\source code 2022\client-server\server\cbase.h
;	COMDAT ?IsBSPModel@CBaseEntity@@UAEHXZ
_TEXT	SEGMENT
tv69 = -72						; size = 4
_this$ = -4						; size = 4
?IsBSPModel@CBaseEntity@@UAEHXZ PROC			; CBaseEntity::IsBSPModel, COMDAT
; _this$ = ecx

; 451  : 	virtual BOOL	IsBSPModel( void ) { return UTIL_GetModelType( pev->modelindex ) == mod_brush; }

	push	ebp
	mov	ebp, esp
	sub	esp, 72					; 00000048H
	push	ebx
	push	esi
	push	edi
	mov	DWORD PTR _this$[ebp], ecx
	mov	eax, DWORD PTR _this$[ebp]
	mov	ecx, DWORD PTR [eax+4]
	mov	edx, DWORD PTR [ecx+180]
	push	edx
	call	?UTIL_GetModelType@@YA?AW4modtype_t@@H@Z ; UTIL_GetModelType
	add	esp, 4
	test	eax, eax
	jne	SHORT $LN3@IsBSPModel
	mov	DWORD PTR tv69[ebp], 1
	jmp	SHORT $LN4@IsBSPModel
$LN3@IsBSPModel:
	mov	DWORD PTR tv69[ebp], 0
$LN4@IsBSPModel:
	mov	eax, DWORD PTR tv69[ebp]
	pop	edi
	pop	esi
	pop	ebx
	mov	esp, ebp
	pop	ebp
	ret	0
?IsBSPModel@CBaseEntity@@UAEHXZ ENDP			; CBaseEntity::IsBSPModel
_TEXT	ENDS
; Function compile flags: /Odtp /ZI
; File d:\!diffusion 2020\source code 2022\client-server\server\cbase.h
;	COMDAT ?IsAlive@CBaseEntity@@UAEHXZ
_TEXT	SEGMENT
tv70 = -72						; size = 4
_this$ = -4						; size = 4
?IsAlive@CBaseEntity@@UAEHXZ PROC			; CBaseEntity::IsAlive, COMDAT
; _this$ = ecx

; 450  : 	virtual BOOL	IsAlive( void ) { return (pev->deadflag == DEAD_NO) && pev->health > 0; }

	push	ebp
	mov	ebp, esp
	sub	esp, 72					; 00000048H
	push	ebx
	push	esi
	push	edi
	mov	DWORD PTR _this$[ebp], ecx
	mov	eax, DWORD PTR _this$[ebp]
	mov	ecx, DWORD PTR [eax+4]
	cmp	DWORD PTR [ecx+368], 0
	jne	SHORT $LN3@IsAlive
	mov	edx, DWORD PTR _this$[ebp]
	mov	eax, DWORD PTR [edx+4]
	movss	xmm0, DWORD PTR [eax+352]
	comiss	xmm0, DWORD PTR __real@00000000
	jbe	SHORT $LN3@IsAlive
	mov	DWORD PTR tv70[ebp], 1
	jmp	SHORT $LN4@IsAlive
$LN3@IsAlive:
	mov	DWORD PTR tv70[ebp], 0
$LN4@IsAlive:
	mov	eax, DWORD PTR tv70[ebp]
	pop	edi
	pop	esi
	pop	ebx
	mov	esp, ebp
	pop	ebp
	ret	0
?IsAlive@CBaseEntity@@UAEHXZ ENDP			; CBaseEntity::IsAlive
_TEXT	ENDS
; Function compile flags: /Odtp /ZI
; File d:\!diffusion 2020\source code 2022\client-server\server\cbase.h
;	COMDAT ?IsSneaking@CBaseEntity@@UAEHXZ
_TEXT	SEGMENT
_this$ = -4						; size = 4
?IsSneaking@CBaseEntity@@UAEHXZ PROC			; CBaseEntity::IsSneaking, COMDAT
; _this$ = ecx

; 449  : 	virtual BOOL	IsSneaking( void ) { return FALSE; }

	push	ebp
	mov	ebp, esp
	sub	esp, 68					; 00000044H
	push	ebx
	push	esi
	push	edi
	mov	DWORD PTR _this$[ebp], ecx
	xor	eax, eax
	pop	edi
	pop	esi
	pop	ebx
	mov	esp, ebp
	pop	ebp
	ret	0
?IsSneaking@CBaseEntity@@UAEHXZ ENDP			; CBaseEntity::IsSneaking
_TEXT	ENDS
; Function compile flags: /Odtp /ZI
; File d:\!diffusion 2020\source code 2022\client-server\server\cbase.h
;	COMDAT ?OnControls@CBaseEntity@@UAEHPAV1@@Z
_TEXT	SEGMENT
_this$ = -4						; size = 4
_pTest$ = 8						; size = 4
?OnControls@CBaseEntity@@UAEHPAV1@@Z PROC		; CBaseEntity::OnControls, COMDAT
; _this$ = ecx

; 448  : 	virtual BOOL	OnControls( CBaseEntity *pTest ) { return FALSE; }

	push	ebp
	mov	ebp, esp
	sub	esp, 68					; 00000044H
	push	ebx
	push	esi
	push	edi
	mov	DWORD PTR _this$[ebp], ecx
	xor	eax, eax
	pop	edi
	pop	esi
	pop	ebx
	mov	esp, ebp
	pop	ebp
	ret	4
?OnControls@CBaseEntity@@UAEHPAV1@@Z ENDP		; CBaseEntity::OnControls
_TEXT	ENDS
; Function compile flags: /Odtp /ZI
; File d:\!diffusion 2020\source code 2022\client-server\server\cbase.h
;	COMDAT ?StopSneaking@CBaseEntity@@UAEXXZ
_TEXT	SEGMENT
_this$ = -4						; size = 4
?StopSneaking@CBaseEntity@@UAEXXZ PROC			; CBaseEntity::StopSneaking, COMDAT
; _this$ = ecx

; 447  : 	virtual void	StopSneaking( void ) {}

	push	ebp
	mov	ebp, esp
	sub	esp, 68					; 00000044H
	push	ebx
	push	esi
	push	edi
	mov	DWORD PTR _this$[ebp], ecx
	pop	edi
	pop	esi
	pop	ebx
	mov	esp, ebp
	pop	ebp
	ret	0
?StopSneaking@CBaseEntity@@UAEXXZ ENDP			; CBaseEntity::StopSneaking
_TEXT	ENDS
; Function compile flags: /Odtp /ZI
; File d:\!diffusion 2020\source code 2022\client-server\server\cbase.h
;	COMDAT ?StartSneaking@CBaseEntity@@UAEXXZ
_TEXT	SEGMENT
_this$ = -4						; size = 4
?StartSneaking@CBaseEntity@@UAEXXZ PROC			; CBaseEntity::StartSneaking, COMDAT
; _this$ = ecx

; 446  : 	virtual void	StartSneaking( void ) {}

	push	ebp
	mov	ebp, esp
	sub	esp, 68					; 00000044H
	push	ebx
	push	esi
	push	edi
	mov	DWORD PTR _this$[ebp], ecx
	pop	edi
	pop	esi
	pop	ebx
	mov	esp, ebp
	pop	ebp
	ret	0
?StartSneaking@CBaseEntity@@UAEXXZ ENDP			; CBaseEntity::StartSneaking
_TEXT	ENDS
; Function compile flags: /Odtp /ZI
; File d:\!diffusion 2020\source code 2022\client-server\server\cbase.h
;	COMDAT ?SetToggleState@CBaseEntity@@UAEXH@Z
_TEXT	SEGMENT
_this$ = -4						; size = 4
_state$ = 8						; size = 4
?SetToggleState@CBaseEntity@@UAEXH@Z PROC		; CBaseEntity::SetToggleState, COMDAT
; _this$ = ecx

; 445  : 	virtual void	SetToggleState( int state ) {}

	push	ebp
	mov	ebp, esp
	sub	esp, 68					; 00000044H
	push	ebx
	push	esi
	push	edi
	mov	DWORD PTR _this$[ebp], ecx
	pop	edi
	pop	esi
	pop	ebx
	mov	esp, ebp
	pop	ebp
	ret	4
?SetToggleState@CBaseEntity@@UAEXH@Z ENDP		; CBaseEntity::SetToggleState
_TEXT	ENDS
; Function compile flags: /Odtp /ZI
; File d:\!diffusion 2020\source code 2022\client-server\server\cbase.h
;	COMDAT ?TransferReset@CBaseEntity@@UAEXXZ
_TEXT	SEGMENT
_this$ = -4						; size = 4
?TransferReset@CBaseEntity@@UAEXXZ PROC			; CBaseEntity::TransferReset, COMDAT
; _this$ = ecx

; 442  : 	virtual void	TransferReset( void ) {}

	push	ebp
	mov	ebp, esp
	sub	esp, 68					; 00000044H
	push	ebx
	push	esi
	push	edi
	mov	DWORD PTR _this$[ebp], ecx
	pop	edi
	pop	esi
	pop	ebx
	mov	esp, ebp
	pop	ebp
	ret	0
?TransferReset@CBaseEntity@@UAEXXZ ENDP			; CBaseEntity::TransferReset
_TEXT	ENDS
; Function compile flags: /Odtp /ZI
; File d:\!diffusion 2020\source code 2022\client-server\server\cbase.h
;	COMDAT ?OverrideReset@CBaseEntity@@UAEXXZ
_TEXT	SEGMENT
_this$ = -4						; size = 4
?OverrideReset@CBaseEntity@@UAEXXZ PROC			; CBaseEntity::OverrideReset, COMDAT
; _this$ = ecx

; 441  : 	virtual void	OverrideReset( void ) {}

	push	ebp
	mov	ebp, esp
	sub	esp, 68					; 00000044H
	push	ebx
	push	esi
	push	edi
	mov	DWORD PTR _this$[ebp], ecx
	pop	edi
	pop	esi
	pop	ebx
	mov	esp, ebp
	pop	ebp
	ret	0
?OverrideReset@CBaseEntity@@UAEXXZ ENDP			; CBaseEntity::OverrideReset
_TEXT	ENDS
; Function compile flags: /Odtp /ZI
; File d:\!diffusion 2020\source code 2022\client-server\server\cbase.h
;	COMDAT ?IsMoving@CBaseEntity@@UAEHXZ
_TEXT	SEGMENT
_this$ = -4						; size = 4
?IsMoving@CBaseEntity@@UAEHXZ PROC			; CBaseEntity::IsMoving, COMDAT
; _this$ = ecx

; 440  : 	virtual int	IsMoving( void ) { return GetAbsVelocity() != g_vecZero; }

	push	ebp
	mov	ebp, esp
	sub	esp, 68					; 00000044H
	push	ebx
	push	esi
	push	edi
	mov	DWORD PTR _this$[ebp], ecx
	push	OFFSET ?g_vecZero@@3VVector@@B		; g_vecZero
	mov	ecx, DWORD PTR _this$[ebp]
	call	?GetAbsVelocity@CBaseEntity@@QBEABVVector@@XZ ; CBaseEntity::GetAbsVelocity
	mov	ecx, eax
	call	??9Vector@@QBEHABV0@@Z			; Vector::operator!=
	pop	edi
	pop	esi
	pop	ebx
	mov	esp, ebp
	pop	ebp
	ret	0
?IsMoving@CBaseEntity@@UAEHXZ ENDP			; CBaseEntity::IsMoving
_TEXT	ENDS
; Function compile flags: /Odtp /ZI
; File d:\!diffusion 2020\source code 2022\client-server\server\cbase.h
;	COMDAT ?GetDelay@CBaseEntity@@UAEMXZ
_TEXT	SEGMENT
_this$ = -4						; size = 4
?GetDelay@CBaseEntity@@UAEMXZ PROC			; CBaseEntity::GetDelay, COMDAT
; _this$ = ecx

; 439  : 	virtual float	GetDelay( void ) { return 0; }

	push	ebp
	mov	ebp, esp
	sub	esp, 68					; 00000044H
	push	ebx
	push	esi
	push	edi
	mov	DWORD PTR _this$[ebp], ecx
	fldz
	pop	edi
	pop	esi
	pop	ebx
	mov	esp, ebp
	pop	ebp
	ret	0
?GetDelay@CBaseEntity@@UAEMXZ ENDP			; CBaseEntity::GetDelay
_TEXT	ENDS
; Function compile flags: /Odtp /ZI
; File d:\!diffusion 2020\source code 2022\client-server\server\cbase.h
;	COMDAT ?GiveAmmo@CBaseEntity@@UAEHHPADH@Z
_TEXT	SEGMENT
_this$ = -4						; size = 4
_iAmount$ = 8						; size = 4
_szName$ = 12						; size = 4
_iMax$ = 16						; size = 4
?GiveAmmo@CBaseEntity@@UAEHHPADH@Z PROC			; CBaseEntity::GiveAmmo, COMDAT
; _this$ = ecx

; 438  : 	virtual int 	GiveAmmo( int iAmount, char *szName, int iMax ) { return -1; };

	push	ebp
	mov	ebp, esp
	sub	esp, 68					; 00000044H
	push	ebx
	push	esi
	push	edi
	mov	DWORD PTR _this$[ebp], ecx
	or	eax, -1
	pop	edi
	pop	esi
	pop	ebx
	mov	esp, ebp
	pop	ebp
	ret	12					; 0000000cH
?GiveAmmo@CBaseEntity@@UAEHHPADH@Z ENDP			; CBaseEntity::GiveAmmo
_TEXT	ENDS
; Function compile flags: /Odtp /ZI
; File d:\!diffusion 2020\source code 2022\client-server\server\cbase.h
;	COMDAT ?RemovePlayerItem@CBaseEntity@@UAEHPAVCBasePlayerItem@@@Z
_TEXT	SEGMENT
_this$ = -4						; size = 4
_pItem$ = 8						; size = 4
?RemovePlayerItem@CBaseEntity@@UAEHPAVCBasePlayerItem@@@Z PROC ; CBaseEntity::RemovePlayerItem, COMDAT
; _this$ = ecx

; 437  : 	virtual BOOL	RemovePlayerItem( CBasePlayerItem *pItem ) { return 0; }

	push	ebp
	mov	ebp, esp
	sub	esp, 68					; 00000044H
	push	ebx
	push	esi
	push	edi
	mov	DWORD PTR _this$[ebp], ecx
	xor	eax, eax
	pop	edi
	pop	esi
	pop	ebx
	mov	esp, ebp
	pop	ebp
	ret	4
?RemovePlayerItem@CBaseEntity@@UAEHPAVCBasePlayerItem@@@Z ENDP ; CBaseEntity::RemovePlayerItem
_TEXT	ENDS
; Function compile flags: /Odtp /ZI
; File d:\!diffusion 2020\source code 2022\client-server\server\cbase.h
;	COMDAT ?AddPlayerItem@CBaseEntity@@UAEHPAVCBasePlayerItem@@@Z
_TEXT	SEGMENT
_this$ = -4						; size = 4
_pItem$ = 8						; size = 4
?AddPlayerItem@CBaseEntity@@UAEHPAVCBasePlayerItem@@@Z PROC ; CBaseEntity::AddPlayerItem, COMDAT
; _this$ = ecx

; 436  : 	virtual BOOL	AddPlayerItem( CBasePlayerItem *pItem ) { return 0; }

	push	ebp
	mov	ebp, esp
	sub	esp, 68					; 00000044H
	push	ebx
	push	esi
	push	edi
	mov	DWORD PTR _this$[ebp], ecx
	xor	eax, eax
	pop	edi
	pop	esi
	pop	ebx
	mov	esp, ebp
	pop	ebp
	ret	4
?AddPlayerItem@CBaseEntity@@UAEHPAVCBasePlayerItem@@@Z ENDP ; CBaseEntity::AddPlayerItem
_TEXT	ENDS
; Function compile flags: /Odtp /ZI
; File d:\!diffusion 2020\source code 2022\client-server\server\cbase.h
;	COMDAT ?AddPointsToTeam@CBaseEntity@@UAEXHH@Z
_TEXT	SEGMENT
_this$ = -4						; size = 4
_score$ = 8						; size = 4
_bAllowNegativeScore$ = 12				; size = 4
?AddPointsToTeam@CBaseEntity@@UAEXHH@Z PROC		; CBaseEntity::AddPointsToTeam, COMDAT
; _this$ = ecx

; 435  : 	virtual void	AddPointsToTeam( int score, BOOL bAllowNegativeScore ) {}

	push	ebp
	mov	ebp, esp
	sub	esp, 68					; 00000044H
	push	ebx
	push	esi
	push	edi
	mov	DWORD PTR _this$[ebp], ecx
	pop	edi
	pop	esi
	pop	ebx
	mov	esp, ebp
	pop	ebp
	ret	8
?AddPointsToTeam@CBaseEntity@@UAEXHH@Z ENDP		; CBaseEntity::AddPointsToTeam
_TEXT	ENDS
; Function compile flags: /Odtp /ZI
; File d:\!diffusion 2020\source code 2022\client-server\server\cbase.h
;	COMDAT ?AddPoints@CBaseEntity@@UAEXHH@Z
_TEXT	SEGMENT
_this$ = -4						; size = 4
_score$ = 8						; size = 4
_bAllowNegativeScore$ = 12				; size = 4
?AddPoints@CBaseEntity@@UAEXHH@Z PROC			; CBaseEntity::AddPoints, COMDAT
; _this$ = ecx

; 434  : 	virtual void	AddPoints( int score, BOOL bAllowNegativeScore ) {}

	push	ebp
	mov	ebp, esp
	sub	esp, 68					; 00000044H
	push	ebx
	push	esi
	push	edi
	mov	DWORD PTR _this$[ebp], ecx
	pop	edi
	pop	esi
	pop	ebx
	mov	esp, ebp
	pop	ebp
	ret	8
?AddPoints@CBaseEntity@@UAEXHH@Z ENDP			; CBaseEntity::AddPoints
_TEXT	ENDS
; Function compile flags: /Odtp /ZI
; File d:\!diffusion 2020\source code 2022\client-server\server\cbase.h
;	COMDAT ?GetToggleState@CBaseEntity@@UAEHXZ
_TEXT	SEGMENT
_this$ = -4						; size = 4
?GetToggleState@CBaseEntity@@UAEHXZ PROC		; CBaseEntity::GetToggleState, COMDAT
; _this$ = ecx

; 433  : 	virtual int	GetToggleState( void ) { return TS_AT_TOP; }

	push	ebp
	mov	ebp, esp
	sub	esp, 68					; 00000044H
	push	ebx
	push	esi
	push	edi
	mov	DWORD PTR _this$[ebp], ecx
	xor	eax, eax
	pop	edi
	pop	esi
	pop	ebx
	mov	esp, ebp
	pop	ebp
	ret	0
?GetToggleState@CBaseEntity@@UAEHXZ ENDP		; CBaseEntity::GetToggleState
_TEXT	ENDS
; Function compile flags: /Odtp /ZI
; File d:\!diffusion 2020\source code 2022\client-server\server\cbase.h
;	COMDAT ?MySquadMonsterPointer@CBaseEntity@@UAEPAVCSquadMonster@@XZ
_TEXT	SEGMENT
_this$ = -4						; size = 4
?MySquadMonsterPointer@CBaseEntity@@UAEPAVCSquadMonster@@XZ PROC ; CBaseEntity::MySquadMonsterPointer, COMDAT
; _this$ = ecx

; 432  : 	virtual CSquadMonster *MySquadMonsterPointer( void ) { return NULL;}

	push	ebp
	mov	ebp, esp
	sub	esp, 68					; 00000044H
	push	ebx
	push	esi
	push	edi
	mov	DWORD PTR _this$[ebp], ecx
	xor	eax, eax
	pop	edi
	pop	esi
	pop	ebx
	mov	esp, ebp
	pop	ebp
	ret	0
?MySquadMonsterPointer@CBaseEntity@@UAEPAVCSquadMonster@@XZ ENDP ; CBaseEntity::MySquadMonsterPointer
_TEXT	ENDS
; Function compile flags: /Odtp /ZI
; File d:\!diffusion 2020\source code 2022\client-server\server\cbase.h
;	COMDAT ?MyMonsterPointer@CBaseEntity@@UAEPAVCBaseMonster@@XZ
_TEXT	SEGMENT
_this$ = -4						; size = 4
?MyMonsterPointer@CBaseEntity@@UAEPAVCBaseMonster@@XZ PROC ; CBaseEntity::MyMonsterPointer, COMDAT
; _this$ = ecx

; 431  : 	virtual CBaseMonster *MyMonsterPointer( void ) { return NULL;}

	push	ebp
	mov	ebp, esp
	sub	esp, 68					; 00000044H
	push	ebx
	push	esi
	push	edi
	mov	DWORD PTR _this$[ebp], ecx
	xor	eax, eax
	pop	edi
	pop	esi
	pop	ebx
	mov	esp, ebp
	pop	ebp
	ret	0
?MyMonsterPointer@CBaseEntity@@UAEPAVCBaseMonster@@XZ ENDP ; CBaseEntity::MyMonsterPointer
_TEXT	ENDS
; Function compile flags: /Odtp /ZI
; File d:\!diffusion 2020\source code 2022\client-server\server\cbase.h
;	COMDAT ?IsTriggered@CBaseEntity@@UAEHPAV1@@Z
_TEXT	SEGMENT
_this$ = -4						; size = 4
_pActivator$ = 8					; size = 4
?IsTriggered@CBaseEntity@@UAEHPAV1@@Z PROC		; CBaseEntity::IsTriggered, COMDAT
; _this$ = ecx

; 430  : 	virtual BOOL	IsTriggered( CBaseEntity *pActivator ) {return TRUE;}

	push	ebp
	mov	ebp, esp
	sub	esp, 68					; 00000044H
	push	ebx
	push	esi
	push	edi
	mov	DWORD PTR _this$[ebp], ecx
	mov	eax, 1
	pop	edi
	pop	esi
	pop	ebx
	mov	esp, ebp
	pop	ebp
	ret	4
?IsTriggered@CBaseEntity@@UAEHPAV1@@Z ENDP		; CBaseEntity::IsTriggered
_TEXT	ENDS
; Function compile flags: /Odtp /ZI
; File d:\!diffusion 2020\source code 2022\client-server\server\cbase.h
;	COMDAT ?BloodColor@CBaseEntity@@UAEHXZ
_TEXT	SEGMENT
_this$ = -4						; size = 4
?BloodColor@CBaseEntity@@UAEHXZ PROC			; CBaseEntity::BloodColor, COMDAT
; _this$ = ecx

; 428  : 	virtual int	BloodColor( void ) { return DONT_BLEED; }

	push	ebp
	mov	ebp, esp
	sub	esp, 68					; 00000044H
	push	ebx
	push	esi
	push	edi
	mov	DWORD PTR _this$[ebp], ecx
	or	eax, -1
	pop	edi
	pop	esi
	pop	ebx
	mov	esp, ebp
	pop	ebp
	ret	0
?BloodColor@CBaseEntity@@UAEHXZ ENDP			; CBaseEntity::BloodColor
_TEXT	ENDS
; Function compile flags: /Odtp /ZI
; File d:\!diffusion 2020\source code 2022\client-server\server\cbase.h
;	COMDAT ?GetState@CBaseEntity@@UAE?AW4STATE@@PAV1@@Z
_TEXT	SEGMENT
_this$ = -4						; size = 4
_pEnt$ = 8						; size = 4
?GetState@CBaseEntity@@UAE?AW4STATE@@PAV1@@Z PROC	; CBaseEntity::GetState, COMDAT
; _this$ = ecx

; 421  : 	virtual STATE GetState ( CBaseEntity* pEnt ) { return GetState(); };

	push	ebp
	mov	ebp, esp
	sub	esp, 68					; 00000044H
	push	ebx
	push	esi
	push	edi
	mov	DWORD PTR _this$[ebp], ecx
	mov	eax, DWORD PTR _this$[ebp]
	mov	edx, DWORD PTR [eax]
	mov	ecx, DWORD PTR _this$[ebp]
	mov	eax, DWORD PTR [edx+88]
	call	eax
	pop	edi
	pop	esi
	pop	ebx
	mov	esp, ebp
	pop	ebp
	ret	4
?GetState@CBaseEntity@@UAE?AW4STATE@@PAV1@@Z ENDP	; CBaseEntity::GetState
_TEXT	ENDS
; Function compile flags: /Odtp /ZI
; File d:\!diffusion 2020\source code 2022\client-server\server\cbase.h
;	COMDAT ?GetState@CBaseEntity@@UAE?AW4STATE@@XZ
_TEXT	SEGMENT
_this$ = -4						; size = 4
?GetState@CBaseEntity@@UAE?AW4STATE@@XZ PROC		; CBaseEntity::GetState, COMDAT
; _this$ = ecx

; 418  : 	virtual STATE GetState ( void ) { return STATE_OFF; };

	push	ebp
	mov	ebp, esp
	sub	esp, 68					; 00000044H
	push	ebx
	push	esi
	push	edi
	mov	DWORD PTR _this$[ebp], ecx
	xor	eax, eax
	pop	edi
	pop	esi
	pop	ebx
	mov	esp, ebp
	pop	ebp
	ret	0
?GetState@CBaseEntity@@UAE?AW4STATE@@XZ ENDP		; CBaseEntity::GetState
_TEXT	ENDS
; Function compile flags: /Odtp /ZI
; File d:\!diffusion 2020\source code 2022\client-server\server\cbase.h
;	COMDAT ?IsRigidBody@CBaseEntity@@UAEHXZ
_TEXT	SEGMENT
tv67 = -72						; size = 4
_this$ = -4						; size = 4
?IsRigidBody@CBaseEntity@@UAEHXZ PROC			; CBaseEntity::IsRigidBody, COMDAT
; _this$ = ecx

; 407  : 	virtual BOOL IsRigidBody( void ) { return (m_iActorType == ACTOR_DYNAMIC); } 

	push	ebp
	mov	ebp, esp
	sub	esp, 72					; 00000048H
	push	ebx
	push	esi
	push	edi
	mov	DWORD PTR _this$[ebp], ecx
	mov	eax, DWORD PTR _this$[ebp]
	movzx	ecx, BYTE PTR [eax+1616]
	cmp	ecx, 1
	jne	SHORT $LN3@IsRigidBod
	mov	DWORD PTR tv67[ebp], 1
	jmp	SHORT $LN4@IsRigidBod
$LN3@IsRigidBod:
	mov	DWORD PTR tv67[ebp], 0
$LN4@IsRigidBod:
	mov	eax, DWORD PTR tv67[ebp]
	pop	edi
	pop	esi
	pop	ebx
	mov	esp, ebp
	pop	ebp
	ret	0
?IsRigidBody@CBaseEntity@@UAEHXZ ENDP			; CBaseEntity::IsRigidBody
_TEXT	ENDS
; Function compile flags: /Odtp /ZI
; File d:\!diffusion 2020\source code 2022\client-server\server\cbase.h
;	COMDAT ?DeathNotice@CBaseEntity@@UAEXPAUentvars_s@@@Z
_TEXT	SEGMENT
_this$ = -4						; size = 4
_pevChild$ = 8						; size = 4
?DeathNotice@CBaseEntity@@UAEXPAUentvars_s@@@Z PROC	; CBaseEntity::DeathNotice, COMDAT
; _this$ = ecx

; 406  : 	virtual void DeathNotice ( entvars_t *pevChild ) { } // monster maker children use this to tell the monster maker that they have died.

	push	ebp
	mov	ebp, esp
	sub	esp, 68					; 00000044H
	push	ebx
	push	esi
	push	edi
	mov	DWORD PTR _this$[ebp], ecx
	pop	edi
	pop	esi
	pop	ebx
	mov	esp, ebp
	pop	ebp
	ret	4
?DeathNotice@CBaseEntity@@UAEXPAUentvars_s@@@Z ENDP	; CBaseEntity::DeathNotice
_TEXT	ENDS
; Function compile flags: /Odtp /ZI
; File d:\!diffusion 2020\source code 2022\client-server\server\cbase.h
;	COMDAT ?Classify@CBaseEntity@@UAEHXZ
_TEXT	SEGMENT
_this$ = -4						; size = 4
?Classify@CBaseEntity@@UAEHXZ PROC			; CBaseEntity::Classify, COMDAT
; _this$ = ecx

; 405  : 	virtual int Classify ( void ) { return CLASS_NONE; };

	push	ebp
	mov	ebp, esp
	sub	esp, 68					; 00000044H
	push	ebx
	push	esi
	push	edi
	mov	DWORD PTR _this$[ebp], ecx
	xor	eax, eax
	pop	edi
	pop	esi
	pop	ebx
	mov	esp, ebp
	pop	ebp
	ret	0
?Classify@CBaseEntity@@UAEHXZ ENDP			; CBaseEntity::Classify
_TEXT	ENDS
; Function compile flags: /Odtp /ZI
; File d:\!diffusion 2020\source code 2022\client-server\server\cbase.h
;	COMDAT ?OnRemove@CBaseEntity@@UAEXXZ
_TEXT	SEGMENT
_this$ = -4						; size = 4
?OnRemove@CBaseEntity@@UAEXXZ PROC			; CBaseEntity::OnRemove, COMDAT
; _this$ = ecx

; 393  : 	virtual void	OnRemove( void ) {}

	push	ebp
	mov	ebp, esp
	sub	esp, 68					; 00000044H
	push	ebx
	push	esi
	push	edi
	mov	DWORD PTR _this$[ebp], ecx
	pop	edi
	pop	esi
	pop	ebx
	mov	esp, ebp
	pop	ebp
	ret	0
?OnRemove@CBaseEntity@@UAEXXZ ENDP			; CBaseEntity::OnRemove
_TEXT	ENDS
; Function compile flags: /Odtp /ZI
; File d:\!diffusion 2020\source code 2022\client-server\server\cbase.h
;	COMDAT ?OnClearParent@CBaseEntity@@UAEXXZ
_TEXT	SEGMENT
_this$ = -4						; size = 4
?OnClearParent@CBaseEntity@@UAEXXZ PROC			; CBaseEntity::OnClearParent, COMDAT
; _this$ = ecx

; 392  : 	virtual void	OnClearParent( void ) {}

	push	ebp
	mov	ebp, esp
	sub	esp, 68					; 00000044H
	push	ebx
	push	esi
	push	edi
	mov	DWORD PTR _this$[ebp], ecx
	pop	edi
	pop	esi
	pop	ebx
	mov	esp, ebp
	pop	ebp
	ret	0
?OnClearParent@CBaseEntity@@UAEXXZ ENDP			; CBaseEntity::OnClearParent
_TEXT	ENDS
; Function compile flags: /Odtp /ZI
; File d:\!diffusion 2020\source code 2022\client-server\server\cbase.h
;	COMDAT ?OnChangeParent@CBaseEntity@@UAEXXZ
_TEXT	SEGMENT
_this$ = -4						; size = 4
?OnChangeParent@CBaseEntity@@UAEXXZ PROC		; CBaseEntity::OnChangeParent, COMDAT
; _this$ = ecx

; 391  : 	virtual void	OnChangeParent( void ) {}

	push	ebp
	mov	ebp, esp
	sub	esp, 68					; 00000044H
	push	ebx
	push	esi
	push	edi
	mov	DWORD PTR _this$[ebp], ecx
	pop	edi
	pop	esi
	pop	ebx
	mov	esp, ebp
	pop	ebp
	ret	0
?OnChangeParent@CBaseEntity@@UAEXXZ ENDP		; CBaseEntity::OnChangeParent
_TEXT	ENDS
; Function compile flags: /Odtp /ZI
; File d:\!diffusion 2020\source code 2022\client-server\server\cbase.h
;	COMDAT ?GetPosition@CBaseEntity@@UAEMXZ
_TEXT	SEGMENT
_this$ = -4						; size = 4
?GetPosition@CBaseEntity@@UAEMXZ PROC			; CBaseEntity::GetPosition, COMDAT
; _this$ = ecx

; 390  : 	virtual float	GetPosition( void ) { return 0.0f; }

	push	ebp
	mov	ebp, esp
	sub	esp, 68					; 00000044H
	push	ebx
	push	esi
	push	edi
	mov	DWORD PTR _this$[ebp], ecx
	fldz
	pop	edi
	pop	esi
	pop	ebx
	mov	esp, ebp
	pop	ebp
	ret	0
?GetPosition@CBaseEntity@@UAEMXZ ENDP			; CBaseEntity::GetPosition
_TEXT	ENDS
; Function compile flags: /Odtp /ZI
; File d:\!diffusion 2020\source code 2022\client-server\server\cbase.h
;	COMDAT ?StartMessage@CBaseEntity@@UAEXPAVCBasePlayer@@@Z
_TEXT	SEGMENT
_this$ = -4						; size = 4
_pPlayer$ = 8						; size = 4
?StartMessage@CBaseEntity@@UAEXPAVCBasePlayer@@@Z PROC	; CBaseEntity::StartMessage, COMDAT
; _this$ = ecx

; 389  :           virtual void	StartMessage( CBasePlayer *pPlayer ) {}

	push	ebp
	mov	ebp, esp
	sub	esp, 68					; 00000044H
	push	ebx
	push	esi
	push	edi
	mov	DWORD PTR _this$[ebp], ecx
	pop	edi
	pop	esi
	pop	ebx
	mov	esp, ebp
	pop	ebp
	ret	4
?StartMessage@CBaseEntity@@UAEXPAVCBasePlayer@@@Z ENDP	; CBaseEntity::StartMessage
_TEXT	ENDS
; Function compile flags: /Odtp /ZI
; File d:\!diffusion 2020\source code 2022\client-server\server\cbase.h
;	COMDAT ?PortalSleep@CBaseEntity@@UAEXM@Z
_TEXT	SEGMENT
_this$ = -4						; size = 4
_seconds$ = 8						; size = 4
?PortalSleep@CBaseEntity@@UAEXM@Z PROC			; CBaseEntity::PortalSleep, COMDAT
; _this$ = ecx

; 388  : 	virtual void	PortalSleep( float seconds ) {}

	push	ebp
	mov	ebp, esp
	sub	esp, 68					; 00000044H
	push	ebx
	push	esi
	push	edi
	mov	DWORD PTR _this$[ebp], ecx
	pop	edi
	pop	esi
	pop	ebx
	mov	esp, ebp
	pop	ebp
	ret	4
?PortalSleep@CBaseEntity@@UAEXM@Z ENDP			; CBaseEntity::PortalSleep
_TEXT	ENDS
; Function compile flags: /Odtp /ZI
; File d:\!diffusion 2020\source code 2022\client-server\server\cbase.h
;	COMDAT ?OnTeleport@CBaseEntity@@UAEXXZ
_TEXT	SEGMENT
_this$ = -4						; size = 4
?OnTeleport@CBaseEntity@@UAEXXZ PROC			; CBaseEntity::OnTeleport, COMDAT
; _this$ = ecx

; 387  : 	virtual void	OnTeleport( void ) {}

	push	ebp
	mov	ebp, esp
	sub	esp, 68					; 00000044H
	push	ebx
	push	esi
	push	edi
	mov	DWORD PTR _this$[ebp], ecx
	pop	edi
	pop	esi
	pop	ebx
	mov	esp, ebp
	pop	ebp
	ret	0
?OnTeleport@CBaseEntity@@UAEXXZ ENDP			; CBaseEntity::OnTeleport
_TEXT	ENDS
; Function compile flags: /Odtp /ZI
; File d:\!diffusion 2020\source code 2022\client-server\server\cbase.h
;	COMDAT ?OnChangeLevel@CBaseEntity@@UAEXXZ
_TEXT	SEGMENT
_this$ = -4						; size = 4
?OnChangeLevel@CBaseEntity@@UAEXXZ PROC			; CBaseEntity::OnChangeLevel, COMDAT
; _this$ = ecx

; 386  : 	virtual void	OnChangeLevel( void ) {}

	push	ebp
	mov	ebp, esp
	sub	esp, 68					; 00000044H
	push	ebx
	push	esi
	push	edi
	mov	DWORD PTR _this$[ebp], ecx
	pop	edi
	pop	esi
	pop	ebx
	mov	esp, ebp
	pop	ebp
	ret	0
?OnChangeLevel@CBaseEntity@@UAEXXZ ENDP			; CBaseEntity::OnChangeLevel
_TEXT	ENDS
; Function compile flags: /Odtp /ZI
; File d:\!diffusion 2020\source code 2022\client-server\server\cbase.h
;	COMDAT ?Activate@CBaseEntity@@UAEXXZ
_TEXT	SEGMENT
_this$ = -4						; size = 4
?Activate@CBaseEntity@@UAEXXZ PROC			; CBaseEntity::Activate, COMDAT
; _this$ = ecx

; 385  : 	virtual void	Activate( void ) {}

	push	ebp
	mov	ebp, esp
	sub	esp, 68					; 00000044H
	push	ebx
	push	esi
	push	edi
	mov	DWORD PTR _this$[ebp], ecx
	pop	edi
	pop	esi
	pop	ebx
	mov	esp, ebp
	pop	ebp
	ret	0
?Activate@CBaseEntity@@UAEXXZ ENDP			; CBaseEntity::Activate
_TEXT	ENDS
; Function compile flags: /Odtp /ZI
; File d:\!diffusion 2020\source code 2022\client-server\server\cbase.h
;	COMDAT ?ObjectCaps@CBaseEntity@@UAEHXZ
_TEXT	SEGMENT
_this$ = -4						; size = 4
?ObjectCaps@CBaseEntity@@UAEHXZ PROC			; CBaseEntity::ObjectCaps, COMDAT
; _this$ = ecx

; 384  : 	virtual int	ObjectCaps( void ) { return FCAP_ACROSS_TRANSITION; }

	push	ebp
	mov	ebp, esp
	sub	esp, 68					; 00000044H
	push	ebx
	push	esi
	push	edi
	mov	DWORD PTR _this$[ebp], ecx
	mov	eax, 2
	pop	edi
	pop	esi
	pop	ebx
	mov	esp, ebp
	pop	ebp
	ret	0
?ObjectCaps@CBaseEntity@@UAEHXZ ENDP			; CBaseEntity::ObjectCaps
_TEXT	ENDS
; Function compile flags: /Odtp /ZI
; File d:\!diffusion 2020\source code 2022\client-server\server\cbase.h
;	COMDAT ?KeyValue@CBaseEntity@@UAEXPAUKeyValueData_s@@@Z
_TEXT	SEGMENT
tv139 = -72						; size = 4
_this$ = -4						; size = 4
_pkvd$ = 8						; size = 4
?KeyValue@CBaseEntity@@UAEXPAUKeyValueData_s@@@Z PROC	; CBaseEntity::KeyValue, COMDAT
; _this$ = ecx

; 343  : 	{

	push	ebp
	mov	ebp, esp
	sub	esp, 72					; 00000048H
	push	ebx
	push	esi
	push	edi
	mov	DWORD PTR _this$[ebp], ecx

; 344  : 		// get support for spirit field too
; 345  : 		if( FStrEq( pkvd->szKeyName, "parent" ) || FStrEq( pkvd->szKeyName, "movewith" ))

	push	OFFSET ??_C@_06MLKDMCBD@parent?$AA@
	mov	eax, DWORD PTR _pkvd$[ebp]
	mov	ecx, DWORD PTR [eax+4]
	push	ecx
	call	?FStrEq@@YAHPBD0@Z			; FStrEq
	add	esp, 8
	test	eax, eax
	jne	SHORT $LN6@KeyValue
	push	OFFSET ??_C@_08JJJAOBDI@movewith?$AA@
	mov	eax, DWORD PTR _pkvd$[ebp]
	mov	ecx, DWORD PTR [eax+4]
	push	ecx
	call	?FStrEq@@YAHPBD0@Z			; FStrEq
	add	esp, 8
	test	eax, eax
	je	SHORT $LN4@KeyValue
$LN6@KeyValue:

; 346  : 		{
; 347  : 			m_iParent = ALLOC_STRING(pkvd->szValue);

	mov	eax, DWORD PTR _pkvd$[ebp]
	mov	ecx, DWORD PTR [eax+8]
	push	ecx
	call	DWORD PTR ?g_engfuncs@@3Uenginefuncs_s@@A+268
	add	esp, 4
	mov	edx, DWORD PTR _this$[ebp]
	mov	DWORD PTR [edx+184], eax

; 348  : 			pkvd->fHandled = TRUE;

	mov	eax, DWORD PTR _pkvd$[ebp]
	mov	DWORD PTR [eax+12], 1
	jmp	$LN1@KeyValue
$LN4@KeyValue:

; 349  : 		}
; 350  : 		else if( FStrEq( pkvd->szKeyName, "parentflags" ))

	push	OFFSET ??_C@_0M@EAELDHJO@parentflags?$AA@
	mov	eax, DWORD PTR _pkvd$[ebp]
	mov	ecx, DWORD PTR [eax+4]
	push	ecx
	call	?FStrEq@@YAHPBD0@Z			; FStrEq
	add	esp, 8
	test	eax, eax
	je	SHORT $LN7@KeyValue

; 351  : 		{
; 352  : 			m_iParentFlags = Q_atoi( pkvd->szValue );

	mov	eax, DWORD PTR _pkvd$[ebp]
	mov	ecx, DWORD PTR [eax+8]
	push	ecx
	call	?Q_atoi@@YAHPBD@Z			; Q_atoi
	add	esp, 4
	mov	edx, DWORD PTR _this$[ebp]
	mov	DWORD PTR [edx+188], eax

; 353  : 			pkvd->fHandled = TRUE;

	mov	eax, DWORD PTR _pkvd$[ebp]
	mov	DWORD PTR [eax+12], 1
	jmp	$LN1@KeyValue
$LN7@KeyValue:

; 354  : 		}
; 355  : 		else if( FStrEq( pkvd->szKeyName, "style" ))

	push	OFFSET ??_C@_05IAKJCFIM@style?$AA@
	mov	eax, DWORD PTR _pkvd$[ebp]
	mov	ecx, DWORD PTR [eax+4]
	push	ecx
	call	?FStrEq@@YAHPBD0@Z			; FStrEq
	add	esp, 8
	test	eax, eax
	je	SHORT $LN9@KeyValue

; 356  : 		{
; 357  : 			m_iStyle = Q_atoi( pkvd->szValue );

	mov	eax, DWORD PTR _pkvd$[ebp]
	mov	ecx, DWORD PTR [eax+8]
	push	ecx
	call	?Q_atoi@@YAHPBD@Z			; Q_atoi
	add	esp, 4
	mov	edx, DWORD PTR _this$[ebp]
	mov	DWORD PTR [edx+72], eax

; 358  : 			pkvd->fHandled = TRUE;

	mov	eax, DWORD PTR _pkvd$[ebp]
	mov	DWORD PTR [eax+12], 1
	jmp	$LN1@KeyValue
$LN9@KeyValue:

; 359  : 		}
; 360  : 		else if( FStrEq( pkvd->szKeyName, "reflection" ))

	push	OFFSET ??_C@_0L@IKCANML@reflection?$AA@
	mov	eax, DWORD PTR _pkvd$[ebp]
	mov	ecx, DWORD PTR [eax+4]
	push	ecx
	call	?FStrEq@@YAHPBD0@Z			; FStrEq
	add	esp, 8
	test	eax, eax
	je	SHORT $LN11@KeyValue

; 361  : 		{
; 362  : 			switch( Q_atoi( pkvd->szValue ))

	mov	eax, DWORD PTR _pkvd$[ebp]
	mov	ecx, DWORD PTR [eax+8]
	push	ecx
	call	?Q_atoi@@YAHPBD@Z			; Q_atoi
	add	esp, 4
	mov	DWORD PTR tv139[ebp], eax
	cmp	DWORD PTR tv139[ebp], 1
	je	SHORT $LN13@KeyValue
	cmp	DWORD PTR tv139[ebp], 2
	je	SHORT $LN14@KeyValue
	jmp	SHORT $LN2@KeyValue
$LN13@KeyValue:

; 363  : 			{
; 364  : 			case 1: pev->effects |= EF_NOREFLECT; break;

	mov	eax, DWORD PTR _this$[ebp]
	mov	ecx, DWORD PTR [eax+4]
	mov	edx, DWORD PTR [ecx+280]
	or	edx, 16777216				; 01000000H
	mov	eax, DWORD PTR _this$[ebp]
	mov	ecx, DWORD PTR [eax+4]
	mov	DWORD PTR [ecx+280], edx
	jmp	SHORT $LN2@KeyValue
$LN14@KeyValue:

; 365  : 			case 2: pev->effects |= EF_REFLECTONLY; break;

	mov	eax, DWORD PTR _this$[ebp]
	mov	ecx, DWORD PTR [eax+4]
	mov	edx, DWORD PTR [ecx+280]
	or	edx, 33554432				; 02000000H
	mov	eax, DWORD PTR _this$[ebp]
	mov	ecx, DWORD PTR [eax+4]
	mov	DWORD PTR [ecx+280], edx
$LN2@KeyValue:

; 366  : 			}
; 367  : 			pkvd->fHandled = TRUE;

	mov	eax, DWORD PTR _pkvd$[ebp]
	mov	DWORD PTR [eax+12], 1
	jmp	$LN1@KeyValue
$LN11@KeyValue:

; 368  : 		}
; 369  : 		else if( FStrEq(pkvd->szKeyName, "vlight_cache"))

	push	OFFSET ??_C@_0N@JILDNHAP@vlight_cache?$AA@
	mov	eax, DWORD PTR _pkvd$[ebp]
	mov	ecx, DWORD PTR [eax+4]
	push	ecx
	call	?FStrEq@@YAHPBD0@Z			; FStrEq
	add	esp, 8
	test	eax, eax
	je	SHORT $LN15@KeyValue

; 370  : 		{
; 371  : 			pev->iuser3 = atoi( pkvd->szValue );

	mov	eax, DWORD PTR _pkvd$[ebp]
	mov	ecx, DWORD PTR [eax+8]
	push	ecx
	call	_atoi
	add	esp, 4
	mov	edx, DWORD PTR _this$[ebp]
	mov	ecx, DWORD PTR [edx+4]
	mov	DWORD PTR [ecx+588], eax

; 372  : 			pkvd->fHandled = TRUE;

	mov	eax, DWORD PTR _pkvd$[ebp]
	mov	DWORD PTR [eax+12], 1
	jmp	SHORT $LN1@KeyValue
$LN15@KeyValue:

; 373  : 		}
; 374  : 		else if( FStrEq( pkvd->szKeyName, "customname" ) )

	push	OFFSET ??_C@_0L@JIJDCONP@customname?$AA@
	mov	eax, DWORD PTR _pkvd$[ebp]
	mov	ecx, DWORD PTR [eax+4]
	push	ecx
	call	?FStrEq@@YAHPBD0@Z			; FStrEq
	add	esp, 8
	test	eax, eax
	je	SHORT $LN17@KeyValue

; 375  : 		{
; 376  : 			CustomNameString = ALLOC_STRING( pkvd->szValue );

	mov	eax, DWORD PTR _pkvd$[ebp]
	mov	ecx, DWORD PTR [eax+8]
	push	ecx
	call	DWORD PTR ?g_engfuncs@@3Uenginefuncs_s@@A+268
	add	esp, 4
	mov	edx, DWORD PTR _this$[ebp]
	mov	DWORD PTR [edx+156], eax

; 377  : 			pkvd->fHandled = TRUE;

	mov	eax, DWORD PTR _pkvd$[ebp]
	mov	DWORD PTR [eax+12], 1
	jmp	SHORT $LN1@KeyValue
$LN17@KeyValue:

; 378  : 		}
; 379  : 		else pkvd->fHandled = FALSE;

	mov	eax, DWORD PTR _pkvd$[ebp]
	mov	DWORD PTR [eax+12], 0
$LN1@KeyValue:

; 380  : 	}

	pop	edi
	pop	esi
	pop	ebx
	mov	esp, ebp
	pop	ebp
	ret	4
?KeyValue@CBaseEntity@@UAEXPAUKeyValueData_s@@@Z ENDP	; CBaseEntity::KeyValue
_TEXT	ENDS
; Function compile flags: /Odtp /ZI
; File d:\!diffusion 2020\source code 2022\client-server\server\cbase.h
;	COMDAT ?Precache@CBaseEntity@@UAEXXZ
_TEXT	SEGMENT
_this$ = -4						; size = 4
?Precache@CBaseEntity@@UAEXXZ PROC			; CBaseEntity::Precache, COMDAT
; _this$ = ecx

; 341  : 	virtual void	Precache( void ) { }

	push	ebp
	mov	ebp, esp
	sub	esp, 68					; 00000044H
	push	ebx
	push	esi
	push	edi
	mov	DWORD PTR _this$[ebp], ecx
	pop	edi
	pop	esi
	pop	ebx
	mov	esp, ebp
	pop	ebp
	ret	0
?Precache@CBaseEntity@@UAEXXZ ENDP			; CBaseEntity::Precache
_TEXT	ENDS
; Function compile flags: /Odtp /ZI
; File d:\!diffusion 2020\source code 2022\client-server\server\cbase.h
;	COMDAT ?Spawn@CBaseEntity@@UAEXXZ
_TEXT	SEGMENT
_this$ = -4						; size = 4
?Spawn@CBaseEntity@@UAEXXZ PROC				; CBaseEntity::Spawn, COMDAT
; _this$ = ecx

; 340  : 	virtual void	Spawn( void ) { }

	push	ebp
	mov	ebp, esp
	sub	esp, 68					; 00000044H
	push	ebx
	push	esi
	push	edi
	mov	DWORD PTR _this$[ebp], ecx
	pop	edi
	pop	esi
	pop	ebx
	mov	esp, ebp
	pop	ebp
	ret	0
?Spawn@CBaseEntity@@UAEXXZ ENDP				; CBaseEntity::Spawn
_TEXT	ENDS
; Function compile flags: /Odtp /ZI
; File d:\!diffusion 2020\source code 2022\client-server\server\cbase.h
;	COMDAT ?SetClassname@CBaseEntity@@QAEXPBD@Z
_TEXT	SEGMENT
_this$ = -4						; size = 4
_pszClassName$ = 8					; size = 4
?SetClassname@CBaseEntity@@QAEXPBD@Z PROC		; CBaseEntity::SetClassname, COMDAT
; _this$ = ecx

; 317  : 	void		SetClassname( const char *pszClassName ) { pev->classname = MAKE_STRING( pszClassName ); }

	push	ebp
	mov	ebp, esp
	sub	esp, 68					; 00000044H
	push	ebx
	push	esi
	push	edi
	mov	DWORD PTR _this$[ebp], ecx
	mov	eax, DWORD PTR _pszClassName$[ebp]
	push	eax
	call	DWORD PTR ?g_engfuncs@@3Uenginefuncs_s@@A+268
	add	esp, 4
	mov	ecx, DWORD PTR _this$[ebp]
	mov	edx, DWORD PTR [ecx+4]
	mov	DWORD PTR [edx], eax
	pop	edi
	pop	esi
	pop	ebx
	mov	esp, ebp
	pop	ebp
	ret	4
?SetClassname@CBaseEntity@@QAEXPBD@Z ENDP		; CBaseEntity::SetClassname
_TEXT	ENDS
; Function compile flags: /Odtp /ZI
; File d:\!diffusion 2020\source code 2022\client-server\server\ehandle.h
;	COMDAT ??CEHANDLE@@QAEPAVCBaseEntity@@XZ
_TEXT	SEGMENT
_this$ = -4						; size = 4
??CEHANDLE@@QAEPAVCBaseEntity@@XZ PROC			; EHANDLE::operator->, COMDAT
; _this$ = ecx

; 90   : {

	push	ebp
	mov	ebp, esp
	sub	esp, 68					; 00000044H
	push	ebx
	push	esi
	push	edi
	mov	DWORD PTR _this$[ebp], ecx

; 91   : 	return (CBaseEntity *)GET_PRIVATE( Get( ) ); 

	mov	ecx, DWORD PTR _this$[ebp]
	call	?Get@EHANDLE@@QAEPAUedict_s@@XZ		; EHANDLE::Get
	push	eax
	call	?GET_PRIVATE@@YAPAXPAUedict_s@@@Z	; GET_PRIVATE
	add	esp, 4

; 92   : }

	pop	edi
	pop	esi
	pop	ebx
	mov	esp, ebp
	pop	ebp
	ret	0
??CEHANDLE@@QAEPAVCBaseEntity@@XZ ENDP			; EHANDLE::operator->
_TEXT	ENDS
; Function compile flags: /Odtp /ZI
; File d:\!diffusion 2020\source code 2022\client-server\server\ehandle.h
;	COMDAT ??4EHANDLE@@QAEPAVCBaseEntity@@PAV1@@Z
_TEXT	SEGMENT
_this$ = -4						; size = 4
_pEntity$ = 8						; size = 4
??4EHANDLE@@QAEPAVCBaseEntity@@PAV1@@Z PROC		; EHANDLE::operator=, COMDAT
; _this$ = ecx

; 69   : {

	push	ebp
	mov	ebp, esp
	sub	esp, 68					; 00000044H
	push	ebx
	push	esi
	push	edi
	mov	DWORD PTR _this$[ebp], ecx

; 70   : 	if (pEntity)

	cmp	DWORD PTR _pEntity$[ebp], 0
	je	SHORT $LN2@operator

; 71   : 	{
; 72   : 		m_pent = ENT( pEntity );

	mov	eax, DWORD PTR _pEntity$[ebp]
	push	eax
	call	?ENT@@YAPAUedict_s@@PAVCBaseEntity@@@Z	; ENT
	add	esp, 4
	mov	ecx, DWORD PTR _this$[ebp]
	mov	DWORD PTR [ecx], eax

; 73   : 		if (m_pent)

	mov	eax, DWORD PTR _this$[ebp]
	cmp	DWORD PTR [eax], 0
	je	SHORT $LN4@operator

; 74   : 			m_serialnumber = m_pent->serialnumber;

	mov	eax, DWORD PTR _this$[ebp]
	mov	ecx, DWORD PTR [eax]
	mov	edx, DWORD PTR _this$[ebp]
	mov	eax, DWORD PTR [ecx+4]
	mov	DWORD PTR [edx+4], eax
$LN4@operator:

; 75   : 	}
; 76   : 	else

	jmp	SHORT $LN3@operator
$LN2@operator:

; 77   : 	{
; 78   : 		m_pent = NULL;

	mov	eax, DWORD PTR _this$[ebp]
	mov	DWORD PTR [eax], 0

; 79   : 		m_serialnumber = 0;

	mov	eax, DWORD PTR _this$[ebp]
	mov	DWORD PTR [eax+4], 0
$LN3@operator:

; 80   : 	}
; 81   : 	return pEntity;

	mov	eax, DWORD PTR _pEntity$[ebp]

; 82   : }

	pop	edi
	pop	esi
	pop	ebx
	mov	esp, ebp
	pop	ebp
	ret	4
??4EHANDLE@@QAEPAVCBaseEntity@@PAV1@@Z ENDP		; EHANDLE::operator=
_TEXT	ENDS
; Function compile flags: /Odtp /ZI
; File d:\!diffusion 2020\source code 2022\client-server\server\ehandle.h
;	COMDAT ??BEHANDLE@@QAEHXZ
_TEXT	SEGMENT
tv67 = -72						; size = 4
_this$ = -4						; size = 4
??BEHANDLE@@QAEHXZ PROC					; EHANDLE::operator int, COMDAT
; _this$ = ecx

; 85   : {

	push	ebp
	mov	ebp, esp
	sub	esp, 72					; 00000048H
	push	ebx
	push	esi
	push	edi
	mov	DWORD PTR _this$[ebp], ecx

; 86   : 	return Get() != NULL;

	mov	ecx, DWORD PTR _this$[ebp]
	call	?Get@EHANDLE@@QAEPAUedict_s@@XZ		; EHANDLE::Get
	test	eax, eax
	je	SHORT $LN3@operator
	mov	DWORD PTR tv67[ebp], 1
	jmp	SHORT $LN4@operator
$LN3@operator:
	mov	DWORD PTR tv67[ebp], 0
$LN4@operator:
	mov	eax, DWORD PTR tv67[ebp]

; 87   : }

	pop	edi
	pop	esi
	pop	ebx
	mov	esp, ebp
	pop	ebp
	ret	0
??BEHANDLE@@QAEHXZ ENDP					; EHANDLE::operator int
_TEXT	ENDS
; Function compile flags: /Odtp /ZI
; File d:\!diffusion 2020\source code 2022\client-server\server\ehandle.h
;	COMDAT ?Get@EHANDLE@@QAEPAUedict_s@@XZ
_TEXT	SEGMENT
_this$ = -4						; size = 4
?Get@EHANDLE@@QAEPAUedict_s@@XZ PROC			; EHANDLE::Get, COMDAT
; _this$ = ecx

; 40   : { 

	push	ebp
	mov	ebp, esp
	sub	esp, 68					; 00000044H
	push	ebx
	push	esi
	push	edi
	mov	DWORD PTR _this$[ebp], ecx

; 41   : 	if( m_pent )

	mov	eax, DWORD PTR _this$[ebp]
	cmp	DWORD PTR [eax], 0
	je	SHORT $LN2@Get

; 42   : 	{
; 43   : #if 0
; 44   : 		// keep client entity always in actual state
; 45   : 		if( ENTINDEX( m_pent ) == 1 )
; 46   : 			m_serialnumber = m_pent->serialnumber;
; 47   : #endif
; 48   : 		if( m_pent->serialnumber == m_serialnumber ) 

	mov	eax, DWORD PTR _this$[ebp]
	mov	ecx, DWORD PTR [eax]
	mov	edx, DWORD PTR _this$[ebp]
	mov	eax, DWORD PTR [ecx+4]
	cmp	eax, DWORD PTR [edx+4]
	jne	SHORT $LN2@Get

; 49   : 			return m_pent; 

	mov	eax, DWORD PTR _this$[ebp]
	mov	eax, DWORD PTR [eax]
	jmp	SHORT $LN1@Get
$LN2@Get:

; 50   : 	}
; 51   : 
; 52   : 	return NULL; 

	xor	eax, eax
$LN1@Get:

; 53   : }

	pop	edi
	pop	esi
	pop	ebx
	mov	esp, ebp
	pop	ebp
	ret	0
?Get@EHANDLE@@QAEPAUedict_s@@XZ ENDP			; EHANDLE::Get
_TEXT	ENDS
; Function compile flags: /Odtp /ZI
; File d:\!diffusion 2020\source code 2022\client-server\server\util.h
;	COMDAT ?FStrEq@@YAHPBD0@Z
_TEXT	SEGMENT
tv69 = -68						; size = 4
_sz1$ = 8						; size = 4
_sz2$ = 12						; size = 4
?FStrEq@@YAHPBD0@Z PROC					; FStrEq, COMDAT

; 287  : {

	push	ebp
	mov	ebp, esp
	sub	esp, 68					; 00000044H
	push	ebx
	push	esi
	push	edi

; 288  : 	return (Q_strcmp( sz1, sz2 ) == 0);

	push	99999					; 0001869fH
	mov	eax, DWORD PTR _sz2$[ebp]
	push	eax
	mov	ecx, DWORD PTR _sz1$[ebp]
	push	ecx
	call	?Q_strncmp@@YAHPBD0H@Z			; Q_strncmp
	add	esp, 12					; 0000000cH
	test	eax, eax
	jne	SHORT $LN3@FStrEq
	mov	DWORD PTR tv69[ebp], 1
	jmp	SHORT $LN4@FStrEq
$LN3@FStrEq:
	mov	DWORD PTR tv69[ebp], 0
$LN4@FStrEq:
	mov	eax, DWORD PTR tv69[ebp]

; 289  : }

	pop	edi
	pop	esi
	pop	ebx
	mov	esp, ebp
	pop	ebp
	ret	0
?FStrEq@@YAHPBD0@Z ENDP					; FStrEq
_TEXT	ENDS
; Function compile flags: /Odtp /ZI
; File d:\!diffusion 2020\source code 2022\client-server\server\util.h
;	COMDAT ?VARS@@YAPAUentvars_s@@PAUedict_s@@@Z
_TEXT	SEGMENT
_pent$ = 8						; size = 4
?VARS@@YAPAUentvars_s@@PAUedict_s@@@Z PROC		; VARS, COMDAT

; 178  : { 

	push	ebp
	mov	ebp, esp
	sub	esp, 64					; 00000040H
	push	ebx
	push	esi
	push	edi

; 179  : 	if ( !pent )

	cmp	DWORD PTR _pent$[ebp], 0
	jne	SHORT $LN2@VARS

; 180  : 		return NULL;

	xor	eax, eax
	jmp	SHORT $LN1@VARS
$LN2@VARS:

; 181  : 
; 182  : 	return &pent->v; 

	mov	eax, DWORD PTR _pent$[ebp]
	add	eax, 128				; 00000080H
$LN1@VARS:

; 183  : }

	pop	edi
	pop	esi
	pop	ebx
	mov	esp, ebp
	pop	ebp
	ret	0
?VARS@@YAPAUentvars_s@@PAUedict_s@@@Z ENDP		; VARS
_TEXT	ENDS
; Function compile flags: /Odtp /ZI
; File d:\!diffusion 2020\source code 2022\client-server\server\util.h
;	COMDAT ?ENT@@YAPAUedict_s@@PBUentvars_s@@@Z
_TEXT	SEGMENT
_pev$ = 8						; size = 4
?ENT@@YAPAUedict_s@@PBUentvars_s@@@Z PROC		; ENT, COMDAT

; 151  : 	inline edict_t *ENT(const entvars_t *pev)	{ return DBG_EntOfVars(pev); }

	push	ebp
	mov	ebp, esp
	sub	esp, 64					; 00000040H
	push	ebx
	push	esi
	push	edi
	mov	eax, DWORD PTR _pev$[ebp]
	push	eax
	call	?DBG_EntOfVars@@YAPAUedict_s@@PBUentvars_s@@@Z ; DBG_EntOfVars
	add	esp, 4
	pop	edi
	pop	esi
	pop	ebx
	mov	esp, ebp
	pop	ebp
	ret	0
?ENT@@YAPAUedict_s@@PBUentvars_s@@@Z ENDP		; ENT
_TEXT	ENDS
; Function compile flags: /Odtp /ZI
;	COMDAT ??0IEntityFactory@@QAE@XZ
_TEXT	SEGMENT
_this$ = -4						; size = 4
??0IEntityFactory@@QAE@XZ PROC				; IEntityFactory::IEntityFactory, COMDAT
; _this$ = ecx
	push	ebp
	mov	ebp, esp
	sub	esp, 68					; 00000044H
	push	ebx
	push	esi
	push	edi
	mov	DWORD PTR _this$[ebp], ecx
	mov	eax, DWORD PTR _this$[ebp]
	mov	DWORD PTR [eax], OFFSET ??_7IEntityFactory@@6B@
	mov	eax, DWORD PTR _this$[ebp]
	pop	edi
	pop	esi
	pop	ebx
	mov	esp, ebp
	pop	ebp
	ret	0
??0IEntityFactory@@QAE@XZ ENDP				; IEntityFactory::IEntityFactory
_TEXT	ENDS
; Function compile flags: /Odtp /ZI
; File d:\!diffusion 2020\source code 2022\client-server\server\util.h
;	COMDAT ?MESSAGE_BEGIN@@YAXHHPBMPAUentvars_s@@@Z
_TEXT	SEGMENT
_msg_dest$ = 8						; size = 4
_msg_type$ = 12						; size = 4
_pOrigin$ = 16						; size = 4
_ent$ = 20						; size = 4
?MESSAGE_BEGIN@@YAXHHPBMPAUentvars_s@@@Z PROC		; MESSAGE_BEGIN, COMDAT

; 189  : inline void MESSAGE_BEGIN( int msg_dest, int msg_type, const float *pOrigin, entvars_t *ent ) {

	push	ebp
	mov	ebp, esp
	sub	esp, 64					; 00000040H
	push	ebx
	push	esi
	push	edi

; 190  : 	(*g_engfuncs.pfnMessageBegin)(msg_dest, msg_type, pOrigin, ENT(ent));

	mov	eax, DWORD PTR _ent$[ebp]
	push	eax
	call	?ENT@@YAPAUedict_s@@PBUentvars_s@@@Z	; ENT
	add	esp, 4
	push	eax
	mov	ecx, DWORD PTR _pOrigin$[ebp]
	push	ecx
	mov	edx, DWORD PTR _msg_type$[ebp]
	push	edx
	mov	eax, DWORD PTR _msg_dest$[ebp]
	push	eax
	call	DWORD PTR ?g_engfuncs@@3Uenginefuncs_s@@A+184
	add	esp, 16					; 00000010H

; 191  : }

	pop	edi
	pop	esi
	pop	ebx
	mov	esp, ebp
	pop	ebp
	ret	0
?MESSAGE_BEGIN@@YAXHHPBMPAUentvars_s@@@Z ENDP		; MESSAGE_BEGIN
_TEXT	ENDS
; Function compile flags: /Odtp /ZI
; File d:\!diffusion 2020\source code 2022\client-server\game_shared\utlarray.h
;	COMDAT ?ResetDbgInfo@?$CUtlArray@PADV?$CUtlMemory@PADH@@@@IAEXXZ
_TEXT	SEGMENT
_this$ = -4						; size = 4
?ResetDbgInfo@?$CUtlArray@PADV?$CUtlMemory@PADH@@@@IAEXXZ PROC ; CUtlArray<char *,CUtlMemory<char *,int> >::ResetDbgInfo, COMDAT
; _this$ = ecx

; 160  : 	{

	push	ebp
	mov	ebp, esp
	sub	esp, 68					; 00000044H
	push	ebx
	push	esi
	push	edi
	mov	DWORD PTR _this$[ebp], ecx

; 161  : 		m_pElements = Base();

	mov	ecx, DWORD PTR _this$[ebp]
	call	?Base@?$CUtlArray@PADV?$CUtlMemory@PADH@@@@QAEPAPADXZ ; CUtlArray<char *,CUtlMemory<char *,int> >::Base
	mov	ecx, DWORD PTR _this$[ebp]
	mov	DWORD PTR [ecx+16], eax

; 162  : 	}

	pop	edi
	pop	esi
	pop	ebx
	mov	esp, ebp
	pop	ebp
	ret	0
?ResetDbgInfo@?$CUtlArray@PADV?$CUtlMemory@PADH@@@@IAEXXZ ENDP ; CUtlArray<char *,CUtlMemory<char *,int> >::ResetDbgInfo
_TEXT	ENDS
; Function compile flags: /Odtp /ZI
; File d:\!diffusion 2020\source code 2022\client-server\game_shared\utlmemory.h
;	COMDAT ?ValidateGrowSize@?$CUtlMemory@PADH@@IAEXXZ
_TEXT	SEGMENT
_this$ = -4						; size = 4
?ValidateGrowSize@?$CUtlMemory@PADH@@IAEXXZ PROC	; CUtlMemory<char *,int>::ValidateGrowSize, COMDAT
; _this$ = ecx

; 148  : 	{

	push	ebp
	mov	ebp, esp
	sub	esp, 68					; 00000044H
	push	ebx
	push	esi
	push	edi
	mov	DWORD PTR _this$[ebp], ecx

; 149  : #ifdef _X360
; 150  : 		if ( m_nGrowSize && m_nGrowSize != EXTERNAL_BUFFER_MARKER )
; 151  : 		{
; 152  : 			// Max grow size at 128 bytes on XBOX
; 153  : 			const int MAX_GROW = 128;
; 154  : 			if ( m_nGrowSize * sizeof(T) > MAX_GROW )
; 155  : 			{
; 156  : 				m_nGrowSize = max( 1, MAX_GROW / sizeof(T) );
; 157  : 			}
; 158  : 		}
; 159  : #endif
; 160  : 	}

	pop	edi
	pop	esi
	pop	ebx
	mov	esp, ebp
	pop	ebp
	ret	0
?ValidateGrowSize@?$CUtlMemory@PADH@@IAEXXZ ENDP	; CUtlMemory<char *,int>::ValidateGrowSize
_TEXT	ENDS
; Function compile flags: /Odtp /ZI
; File d:\!diffusion 2020\source code 2022\client-server\game_shared\utlmemory.h
;	COMDAT ?IsReadOnly@?$CUtlMemory@PADH@@QBE_NXZ
_TEXT	SEGMENT
tv66 = -72						; size = 4
_this$ = -4						; size = 4
?IsReadOnly@?$CUtlMemory@PADH@@QBE_NXZ PROC		; CUtlMemory<char *,int>::IsReadOnly, COMDAT
; _this$ = ecx

; 467  : {

	push	ebp
	mov	ebp, esp
	sub	esp, 72					; 00000048H
	push	ebx
	push	esi
	push	edi
	mov	DWORD PTR _this$[ebp], ecx

; 468  : 	return (m_nGrowSize == EXTERNAL_CONST_BUFFER_MARKER);

	mov	eax, DWORD PTR _this$[ebp]
	cmp	DWORD PTR [eax+8], -2			; fffffffeH
	jne	SHORT $LN3@IsReadOnly
	mov	DWORD PTR tv66[ebp], 1
	jmp	SHORT $LN4@IsReadOnly
$LN3@IsReadOnly:
	mov	DWORD PTR tv66[ebp], 0
$LN4@IsReadOnly:
	mov	al, BYTE PTR tv66[ebp]

; 469  : }

	pop	edi
	pop	esi
	pop	ebx
	mov	esp, ebp
	pop	ebp
	ret	0
?IsReadOnly@?$CUtlMemory@PADH@@QBE_NXZ ENDP		; CUtlMemory<char *,int>::IsReadOnly
_TEXT	ENDS
; Function compile flags: /Odtp /ZI
; File d:\!diffusion 2020\source code 2022\client-server\game_shared\utlmemory.h
;	COMDAT ?IsExternallyAllocated@?$CUtlMemory@PADH@@QBE_NXZ
_TEXT	SEGMENT
tv66 = -72						; size = 4
_this$ = -4						; size = 4
?IsExternallyAllocated@?$CUtlMemory@PADH@@QBE_NXZ PROC	; CUtlMemory<char *,int>::IsExternallyAllocated, COMDAT
; _this$ = ecx

; 457  : {

	push	ebp
	mov	ebp, esp
	sub	esp, 72					; 00000048H
	push	ebx
	push	esi
	push	edi
	mov	DWORD PTR _this$[ebp], ecx

; 458  : 	return (m_nGrowSize < 0);

	mov	eax, DWORD PTR _this$[ebp]
	cmp	DWORD PTR [eax+8], 0
	jge	SHORT $LN3@IsExternal
	mov	DWORD PTR tv66[ebp], 1
	jmp	SHORT $LN4@IsExternal
$LN3@IsExternal:
	mov	DWORD PTR tv66[ebp], 0
$LN4@IsExternal:
	mov	al, BYTE PTR tv66[ebp]

; 459  : }

	pop	edi
	pop	esi
	pop	ebx
	mov	esp, ebp
	pop	ebp
	ret	0
?IsExternallyAllocated@?$CUtlMemory@PADH@@QBE_NXZ ENDP	; CUtlMemory<char *,int>::IsExternallyAllocated
_TEXT	ENDS
; Function compile flags: /Odtp /ZI
; File d:\!diffusion 2020\source code 2022\client-server\game_shared\utlmemory.h
;	COMDAT ?Purge@?$CUtlMemory@PADH@@QAEXXZ
_TEXT	SEGMENT
_this$ = -4						; size = 4
?Purge@?$CUtlMemory@PADH@@QAEXXZ PROC			; CUtlMemory<char *,int>::Purge, COMDAT
; _this$ = ecx

; 645  : {

	push	ebp
	mov	ebp, esp
	sub	esp, 68					; 00000044H
	push	ebx
	push	esi
	push	edi
	mov	DWORD PTR _this$[ebp], ecx

; 646  : 	if ( !IsExternallyAllocated() )

	mov	ecx, DWORD PTR _this$[ebp]
	call	?IsExternallyAllocated@?$CUtlMemory@PADH@@QBE_NXZ ; CUtlMemory<char *,int>::IsExternallyAllocated
	movzx	eax, al
	test	eax, eax
	jne	SHORT $LN1@Purge

; 647  : 	{
; 648  : 		if (m_pMemory)

	mov	eax, DWORD PTR _this$[ebp]
	cmp	DWORD PTR [eax], 0
	je	SHORT $LN3@Purge

; 649  : 		{
; 650  : 			free( (void*)m_pMemory );

	mov	eax, DWORD PTR _this$[ebp]
	mov	ecx, DWORD PTR [eax]
	push	ecx
	call	_free
	add	esp, 4

; 651  : 			m_pMemory = 0;

	mov	eax, DWORD PTR _this$[ebp]
	mov	DWORD PTR [eax], 0
$LN3@Purge:

; 652  : 		}
; 653  : 		m_nAllocationCount = 0;

	mov	eax, DWORD PTR _this$[ebp]
	mov	DWORD PTR [eax+4], 0
$LN1@Purge:

; 654  : 	}
; 655  : }

	pop	edi
	pop	esi
	pop	ebx
	mov	esp, ebp
	pop	ebp
	ret	0
?Purge@?$CUtlMemory@PADH@@QAEXXZ ENDP			; CUtlMemory<char *,int>::Purge
_TEXT	ENDS
; Function compile flags: /Odtp /ZI
; File d:\!diffusion 2020\source code 2022\client-server\game_shared\utlmemory.h
;	COMDAT ?Base@?$CUtlMemory@PADH@@QAEPAPADXZ
_TEXT	SEGMENT
_this$ = -4						; size = 4
?Base@?$CUtlMemory@PADH@@QAEPAPADXZ PROC		; CUtlMemory<char *,int>::Base, COMDAT
; _this$ = ecx

; 487  : {

	push	ebp
	mov	ebp, esp
	sub	esp, 68					; 00000044H
	push	ebx
	push	esi
	push	edi
	mov	DWORD PTR _this$[ebp], ecx

; 488  : 	assert( !IsReadOnly() );

	mov	ecx, DWORD PTR _this$[ebp]
	call	?IsReadOnly@?$CUtlMemory@PADH@@QBE_NXZ	; CUtlMemory<char *,int>::IsReadOnly
	movzx	eax, al
	test	eax, eax
	je	SHORT $LN3@Base
	push	488					; 000001e8H
	push	OFFSET ??_C@_1JE@CIIIAKCN@?$AAd?$AA?3?$AA?2?$AA?$CB?$AAd?$AAi?$AAf?$AAf?$AAu?$AAs?$AAi?$AAo?$AAn?$AA?5?$AA2?$AA0?$AA2?$AA0?$AA?2?$AAs?$AAo?$AAu?$AAr?$AAc?$AAe?$AA?5?$AAc?$AAo?$AAd?$AAe?$AA?5?$AA2@
	push	OFFSET ??_C@_1BM@PFNFCCHH@?$AA?$CB?$AAI?$AAs?$AAR?$AAe?$AAa?$AAd?$AAO?$AAn?$AAl?$AAy?$AA?$CI?$AA?$CJ?$AA?$AA@
	call	__wassert
	add	esp, 12					; 0000000cH
$LN3@Base:

; 489  : 	return m_pMemory;

	mov	eax, DWORD PTR _this$[ebp]
	mov	eax, DWORD PTR [eax]

; 490  : }

	pop	edi
	pop	esi
	pop	ebx
	mov	esp, ebp
	pop	ebp
	ret	0
?Base@?$CUtlMemory@PADH@@QAEPAPADXZ ENDP		; CUtlMemory<char *,int>::Base
_TEXT	ENDS
; Function compile flags: /Odtp /ZI
; File d:\!diffusion 2020\source code 2022\client-server\game_shared\utlmemory.h
;	COMDAT ?IsIdxValid@?$CUtlMemory@PADH@@QBE_NH@Z
_TEXT	SEGMENT
tv67 = -72						; size = 4
_this$ = -4						; size = 4
_i$ = 8							; size = 4
?IsIdxValid@?$CUtlMemory@PADH@@QBE_NH@Z PROC		; CUtlMemory<char *,int>::IsIdxValid, COMDAT
; _this$ = ecx

; 520  : {

	push	ebp
	mov	ebp, esp
	sub	esp, 72					; 00000048H
	push	ebx
	push	esi
	push	edi
	mov	DWORD PTR _this$[ebp], ecx

; 521  : 	return ( ((int) i) >= 0 ) && ( ((int) i) < m_nAllocationCount );

	cmp	DWORD PTR _i$[ebp], 0
	jl	SHORT $LN3@IsIdxValid
	mov	eax, DWORD PTR _this$[ebp]
	mov	ecx, DWORD PTR _i$[ebp]
	cmp	ecx, DWORD PTR [eax+4]
	jge	SHORT $LN3@IsIdxValid
	mov	DWORD PTR tv67[ebp], 1
	jmp	SHORT $LN4@IsIdxValid
$LN3@IsIdxValid:
	mov	DWORD PTR tv67[ebp], 0
$LN4@IsIdxValid:
	mov	al, BYTE PTR tv67[ebp]

; 522  : }

	pop	edi
	pop	esi
	pop	ebx
	mov	esp, ebp
	pop	ebp
	ret	4
?IsIdxValid@?$CUtlMemory@PADH@@QBE_NH@Z ENDP		; CUtlMemory<char *,int>::IsIdxValid
_TEXT	ENDS
; Function compile flags: /Odtp /ZI
; File d:\!diffusion 2020\source code 2022\client-server\game_shared\utlmemory.h
;	COMDAT ??A?$CUtlMemory@PADH@@QAEAAPADH@Z
_TEXT	SEGMENT
_this$ = -4						; size = 4
_i$ = 8							; size = 4
??A?$CUtlMemory@PADH@@QAEAAPADH@Z PROC			; CUtlMemory<char *,int>::operator[], COMDAT
; _this$ = ecx

; 423  : {

	push	ebp
	mov	ebp, esp
	sub	esp, 68					; 00000044H
	push	ebx
	push	esi
	push	edi
	mov	DWORD PTR _this$[ebp], ecx

; 424  : 	assert( !IsReadOnly() );

	mov	ecx, DWORD PTR _this$[ebp]
	call	?IsReadOnly@?$CUtlMemory@PADH@@QBE_NXZ	; CUtlMemory<char *,int>::IsReadOnly
	movzx	eax, al
	test	eax, eax
	je	SHORT $LN3@operator
	push	424					; 000001a8H
	push	OFFSET ??_C@_1JE@CIIIAKCN@?$AAd?$AA?3?$AA?2?$AA?$CB?$AAd?$AAi?$AAf?$AAf?$AAu?$AAs?$AAi?$AAo?$AAn?$AA?5?$AA2?$AA0?$AA2?$AA0?$AA?2?$AAs?$AAo?$AAu?$AAr?$AAc?$AAe?$AA?5?$AAc?$AAo?$AAd?$AAe?$AA?5?$AA2@
	push	OFFSET ??_C@_1BM@PFNFCCHH@?$AA?$CB?$AAI?$AAs?$AAR?$AAe?$AAa?$AAd?$AAO?$AAn?$AAl?$AAy?$AA?$CI?$AA?$CJ?$AA?$AA@
	call	__wassert
	add	esp, 12					; 0000000cH
$LN3@operator:

; 425  : 	assert( IsIdxValid(i) );

	mov	eax, DWORD PTR _i$[ebp]
	push	eax
	mov	ecx, DWORD PTR _this$[ebp]
	call	?IsIdxValid@?$CUtlMemory@PADH@@QBE_NH@Z	; CUtlMemory<char *,int>::IsIdxValid
	movzx	ecx, al
	test	ecx, ecx
	jne	SHORT $LN4@operator
	push	425					; 000001a9H
	push	OFFSET ??_C@_1JE@CIIIAKCN@?$AAd?$AA?3?$AA?2?$AA?$CB?$AAd?$AAi?$AAf?$AAf?$AAu?$AAs?$AAi?$AAo?$AAn?$AA?5?$AA2?$AA0?$AA2?$AA0?$AA?2?$AAs?$AAo?$AAu?$AAr?$AAc?$AAe?$AA?5?$AAc?$AAo?$AAd?$AAe?$AA?5?$AA2@
	push	OFFSET ??_C@_1BM@CKILBAKK@?$AAI?$AAs?$AAI?$AAd?$AAx?$AAV?$AAa?$AAl?$AAi?$AAd?$AA?$CI?$AAi?$AA?$CJ?$AA?$AA@
	call	__wassert
	add	esp, 12					; 0000000cH
$LN4@operator:

; 426  : 	return m_pMemory[i];

	mov	eax, DWORD PTR _this$[ebp]
	mov	ecx, DWORD PTR [eax]
	mov	edx, DWORD PTR _i$[ebp]
	lea	eax, DWORD PTR [ecx+edx*4]

; 427  : }

	pop	edi
	pop	esi
	pop	ebx
	mov	esp, ebp
	pop	ebp
	ret	4
??A?$CUtlMemory@PADH@@QAEAAPADH@Z ENDP			; CUtlMemory<char *,int>::operator[]
_TEXT	ENDS
; Function compile flags: /Odtp /ZI
; File d:\!diffusion 2020\source code 2022\client-server\game_shared\utlmemory.h
;	COMDAT ??1?$CUtlMemory@PADH@@QAE@XZ
_TEXT	SEGMENT
_this$ = -16						; size = 4
__$EHRec$ = -12						; size = 12
??1?$CUtlMemory@PADH@@QAE@XZ PROC			; CUtlMemory<char *,int>::~CUtlMemory<char *,int>, COMDAT
; _this$ = ecx

; 322  : {

	push	ebp
	mov	ebp, esp
	push	-1
	push	__ehhandler$??1?$CUtlMemory@PADH@@QAE@XZ
	mov	eax, DWORD PTR fs:0
	push	eax
	sub	esp, 68					; 00000044H
	push	ebx
	push	esi
	push	edi
	mov	eax, DWORD PTR ___security_cookie
	xor	eax, ebp
	push	eax
	lea	eax, DWORD PTR __$EHRec$[ebp]
	mov	DWORD PTR fs:0, eax
	mov	DWORD PTR _this$[ebp], ecx

; 323  : 	Purge();

	mov	ecx, DWORD PTR _this$[ebp]
	call	?Purge@?$CUtlMemory@PADH@@QAEXXZ	; CUtlMemory<char *,int>::Purge

; 324  : }

	mov	ecx, DWORD PTR __$EHRec$[ebp]
	mov	DWORD PTR fs:0, ecx
	pop	ecx
	pop	edi
	pop	esi
	pop	ebx
	mov	esp, ebp
	pop	ebp
	ret	0
_TEXT	ENDS
;	COMDAT text$x
text$x	SEGMENT
__ehhandler$??1?$CUtlMemory@PADH@@QAE@XZ:
	mov	edx, DWORD PTR [esp+8]
	lea	eax, DWORD PTR [edx+12]
	mov	ecx, DWORD PTR [edx-84]
	xor	ecx, eax
	call	@__security_check_cookie@4
	mov	eax, OFFSET __ehfuncinfo$??1?$CUtlMemory@PADH@@QAE@XZ
	jmp	___CxxFrameHandler3
text$x	ENDS
??1?$CUtlMemory@PADH@@QAE@XZ ENDP			; CUtlMemory<char *,int>::~CUtlMemory<char *,int>
; Function compile flags: /Odtp /ZI
; File d:\!diffusion 2020\source code 2022\client-server\game_shared\utlmemory.h
;	COMDAT ??0?$CUtlMemory@PADH@@QAE@HH@Z
_TEXT	SEGMENT
_this$ = -4						; size = 4
_nGrowSize$ = 8						; size = 4
_nInitAllocationCount$ = 12				; size = 4
??0?$CUtlMemory@PADH@@QAE@HH@Z PROC			; CUtlMemory<char *,int>::CUtlMemory<char *,int>, COMDAT
; _this$ = ecx

; 295  : {

	push	ebp
	mov	ebp, esp
	sub	esp, 68					; 00000044H
	push	ebx
	push	esi
	push	edi
	mov	DWORD PTR _this$[ebp], ecx

; 293  : CUtlMemory<T,I>::CUtlMemory( int nGrowSize, int nInitAllocationCount ) : m_pMemory(0), 

	mov	eax, DWORD PTR _this$[ebp]
	mov	DWORD PTR [eax], 0

; 294  : 	m_nAllocationCount( nInitAllocationCount ), m_nGrowSize( nGrowSize )

	mov	eax, DWORD PTR _this$[ebp]
	mov	ecx, DWORD PTR _nInitAllocationCount$[ebp]
	mov	DWORD PTR [eax+4], ecx
	mov	eax, DWORD PTR _this$[ebp]
	mov	ecx, DWORD PTR _nGrowSize$[ebp]
	mov	DWORD PTR [eax+8], ecx

; 296  : 	ValidateGrowSize();

	mov	ecx, DWORD PTR _this$[ebp]
	call	?ValidateGrowSize@?$CUtlMemory@PADH@@IAEXXZ ; CUtlMemory<char *,int>::ValidateGrowSize

; 297  : 	assert( nGrowSize >= 0 );

	cmp	DWORD PTR _nGrowSize$[ebp], 0
	jge	SHORT $LN4@CUtlMemory
	push	297					; 00000129H
	push	OFFSET ??_C@_1JE@CIIIAKCN@?$AAd?$AA?3?$AA?2?$AA?$CB?$AAd?$AAi?$AAf?$AAf?$AAu?$AAs?$AAi?$AAo?$AAn?$AA?5?$AA2?$AA0?$AA2?$AA0?$AA?2?$AAs?$AAo?$AAu?$AAr?$AAc?$AAe?$AA?5?$AAc?$AAo?$AAd?$AAe?$AA?5?$AA2@
	push	OFFSET ??_C@_1BO@FOOHAONO@?$AAn?$AAG?$AAr?$AAo?$AAw?$AAS?$AAi?$AAz?$AAe?$AA?5?$AA?$DO?$AA?$DN?$AA?5?$AA0?$AA?$AA@
	call	__wassert
	add	esp, 12					; 0000000cH
$LN4@CUtlMemory:

; 298  : 	if (m_nAllocationCount)

	mov	eax, DWORD PTR _this$[ebp]
	cmp	DWORD PTR [eax+4], 0
	je	SHORT $LN1@CUtlMemory

; 299  : 	{
; 300  : 		m_pMemory = (T*)malloc( m_nAllocationCount * sizeof(T) );

	mov	eax, DWORD PTR _this$[ebp]
	mov	ecx, DWORD PTR [eax+4]
	shl	ecx, 2
	push	ecx
	call	_malloc
	add	esp, 4
	mov	edx, DWORD PTR _this$[ebp]
	mov	DWORD PTR [edx], eax
$LN1@CUtlMemory:

; 301  : 	}
; 302  : }

	mov	eax, DWORD PTR _this$[ebp]
	pop	edi
	pop	esi
	pop	ebx
	mov	esp, ebp
	pop	ebp
	ret	8
??0?$CUtlMemory@PADH@@QAE@HH@Z ENDP			; CUtlMemory<char *,int>::CUtlMemory<char *,int>
_TEXT	ENDS
; Function compile flags: /Odtp /ZI
; File d:\!diffusion 2020\source code 2022\client-server\game_shared\utlarray.h
;	COMDAT ?Purge@?$CUtlArray@PADV?$CUtlMemory@PADH@@@@QAEXXZ
_TEXT	SEGMENT
_this$ = -4						; size = 4
?Purge@?$CUtlArray@PADV?$CUtlMemory@PADH@@@@QAEXXZ PROC	; CUtlArray<char *,CUtlMemory<char *,int> >::Purge, COMDAT
; _this$ = ecx

; 742  : {

	push	ebp
	mov	ebp, esp
	sub	esp, 68					; 00000044H
	push	ebx
	push	esi
	push	edi
	mov	DWORD PTR _this$[ebp], ecx

; 743  : 	RemoveAll();

	mov	ecx, DWORD PTR _this$[ebp]
	call	?RemoveAll@?$CUtlArray@PADV?$CUtlMemory@PADH@@@@QAEXXZ ; CUtlArray<char *,CUtlMemory<char *,int> >::RemoveAll

; 744  : 	m_Memory.Purge();

	mov	ecx, DWORD PTR _this$[ebp]
	call	?Purge@?$CUtlMemory@PADH@@QAEXXZ	; CUtlMemory<char *,int>::Purge

; 745  : 	ResetDbgInfo();

	mov	ecx, DWORD PTR _this$[ebp]
	call	?ResetDbgInfo@?$CUtlArray@PADV?$CUtlMemory@PADH@@@@IAEXXZ ; CUtlArray<char *,CUtlMemory<char *,int> >::ResetDbgInfo

; 746  : }

	pop	edi
	pop	esi
	pop	ebx
	mov	esp, ebp
	pop	ebp
	ret	0
?Purge@?$CUtlArray@PADV?$CUtlMemory@PADH@@@@QAEXXZ ENDP	; CUtlArray<char *,CUtlMemory<char *,int> >::Purge
_TEXT	ENDS
; Function compile flags: /Odtp /ZI
; File d:\!diffusion 2020\source code 2022\client-server\game_shared\utlarray.h
;	COMDAT ?RemoveAll@?$CUtlArray@PADV?$CUtlMemory@PADH@@@@QAEXXZ
_TEXT	SEGMENT
_i$1 = -8						; size = 4
_this$ = -4						; size = 4
?RemoveAll@?$CUtlArray@PADV?$CUtlMemory@PADH@@@@QAEXXZ PROC ; CUtlArray<char *,CUtlMemory<char *,int> >::RemoveAll, COMDAT
; _this$ = ecx

; 726  : {

	push	ebp
	mov	ebp, esp
	sub	esp, 72					; 00000048H
	push	ebx
	push	esi
	push	edi
	mov	DWORD PTR _this$[ebp], ecx

; 727  : 	for (int i = m_Size; --i >= 0; )

	mov	eax, DWORD PTR _this$[ebp]
	mov	ecx, DWORD PTR [eax+12]
	mov	DWORD PTR _i$1[ebp], ecx
$LN4@RemoveAll:
	mov	eax, DWORD PTR _i$1[ebp]
	sub	eax, 1
	mov	DWORD PTR _i$1[ebp], eax
	js	SHORT $LN3@RemoveAll

; 728  : 	{
; 729  : 		Destruct(&Element(i));

	mov	eax, DWORD PTR _i$1[ebp]
	push	eax
	mov	ecx, DWORD PTR _this$[ebp]
	call	?Element@?$CUtlArray@PADV?$CUtlMemory@PADH@@@@QAEAAPADH@Z ; CUtlArray<char *,CUtlMemory<char *,int> >::Element
	push	eax
	call	??$Destruct@PAD@@YAXPAPAD@Z		; Destruct<char *>
	add	esp, 4

; 730  : 	}

	jmp	SHORT $LN4@RemoveAll
$LN3@RemoveAll:

; 731  : 
; 732  : 	m_Size = 0;

	mov	eax, DWORD PTR _this$[ebp]
	mov	DWORD PTR [eax+12], 0

; 733  : }

	pop	edi
	pop	esi
	pop	ebx
	mov	esp, ebp
	pop	ebp
	ret	0
?RemoveAll@?$CUtlArray@PADV?$CUtlMemory@PADH@@@@QAEXXZ ENDP ; CUtlArray<char *,CUtlMemory<char *,int> >::RemoveAll
_TEXT	ENDS
; Function compile flags: /Odtp /ZI
; File d:\!diffusion 2020\source code 2022\client-server\game_shared\utlarray.h
;	COMDAT ?Count@?$CUtlArray@PADV?$CUtlMemory@PADH@@@@QBEHXZ
_TEXT	SEGMENT
_this$ = -4						; size = 4
?Count@?$CUtlArray@PADV?$CUtlMemory@PADH@@@@QBEHXZ PROC	; CUtlArray<char *,CUtlMemory<char *,int> >::Count, COMDAT
; _this$ = ecx

; 344  : {

	push	ebp
	mov	ebp, esp
	sub	esp, 68					; 00000044H
	push	ebx
	push	esi
	push	edi
	mov	DWORD PTR _this$[ebp], ecx

; 345  : 	return m_Size;

	mov	eax, DWORD PTR _this$[ebp]
	mov	eax, DWORD PTR [eax+12]

; 346  : }

	pop	edi
	pop	esi
	pop	ebx
	mov	esp, ebp
	pop	ebp
	ret	0
?Count@?$CUtlArray@PADV?$CUtlMemory@PADH@@@@QBEHXZ ENDP	; CUtlArray<char *,CUtlMemory<char *,int> >::Count
_TEXT	ENDS
; Function compile flags: /Odtp /ZI
; File d:\!diffusion 2020\source code 2022\client-server\game_shared\utlarray.h
;	COMDAT ?Base@?$CUtlArray@PADV?$CUtlMemory@PADH@@@@QAEPAPADXZ
_TEXT	SEGMENT
_this$ = -4						; size = 4
?Base@?$CUtlArray@PADV?$CUtlMemory@PADH@@@@QAEPAPADXZ PROC ; CUtlArray<char *,CUtlMemory<char *,int> >::Base, COMDAT
; _this$ = ecx

; 60   : 	T* Base()								{ return m_Memory.Base(); }

	push	ebp
	mov	ebp, esp
	sub	esp, 68					; 00000044H
	push	ebx
	push	esi
	push	edi
	mov	DWORD PTR _this$[ebp], ecx
	mov	ecx, DWORD PTR _this$[ebp]
	call	?Base@?$CUtlMemory@PADH@@QAEPAPADXZ	; CUtlMemory<char *,int>::Base
	pop	edi
	pop	esi
	pop	ebx
	mov	esp, ebp
	pop	ebp
	ret	0
?Base@?$CUtlArray@PADV?$CUtlMemory@PADH@@@@QAEPAPADXZ ENDP ; CUtlArray<char *,CUtlMemory<char *,int> >::Base
_TEXT	ENDS
; Function compile flags: /Odtp /ZI
; File d:\!diffusion 2020\source code 2022\client-server\game_shared\utlarray.h
;	COMDAT ?Element@?$CUtlArray@PADV?$CUtlMemory@PADH@@@@QAEAAPADH@Z
_TEXT	SEGMENT
_this$ = -4						; size = 4
_i$ = 8							; size = 4
?Element@?$CUtlArray@PADV?$CUtlMemory@PADH@@@@QAEAAPADH@Z PROC ; CUtlArray<char *,CUtlMemory<char *,int> >::Element, COMDAT
; _this$ = ecx

; 294  : {

	push	ebp
	mov	ebp, esp
	sub	esp, 68					; 00000044H
	push	ebx
	push	esi
	push	edi
	mov	DWORD PTR _this$[ebp], ecx

; 295  : 	return m_Memory[ i ];

	mov	eax, DWORD PTR _i$[ebp]
	push	eax
	mov	ecx, DWORD PTR _this$[ebp]
	call	??A?$CUtlMemory@PADH@@QAEAAPADH@Z	; CUtlMemory<char *,int>::operator[]

; 296  : }

	pop	edi
	pop	esi
	pop	ebx
	mov	esp, ebp
	pop	ebp
	ret	4
?Element@?$CUtlArray@PADV?$CUtlMemory@PADH@@@@QAEAAPADH@Z ENDP ; CUtlArray<char *,CUtlMemory<char *,int> >::Element
_TEXT	ENDS
; Function compile flags: /Odtp /ZI
; File d:\!diffusion 2020\source code 2022\client-server\game_shared\utlarray.h
;	COMDAT ??A?$CUtlArray@PADV?$CUtlMemory@PADH@@@@QAEAAPADH@Z
_TEXT	SEGMENT
_this$ = -4						; size = 4
_i$ = 8							; size = 4
??A?$CUtlArray@PADV?$CUtlMemory@PADH@@@@QAEAAPADH@Z PROC ; CUtlArray<char *,CUtlMemory<char *,int> >::operator[], COMDAT
; _this$ = ecx

; 282  : {

	push	ebp
	mov	ebp, esp
	sub	esp, 68					; 00000044H
	push	ebx
	push	esi
	push	edi
	mov	DWORD PTR _this$[ebp], ecx

; 283  : 	return m_Memory[ i ];

	mov	eax, DWORD PTR _i$[ebp]
	push	eax
	mov	ecx, DWORD PTR _this$[ebp]
	call	??A?$CUtlMemory@PADH@@QAEAAPADH@Z	; CUtlMemory<char *,int>::operator[]

; 284  : }

	pop	edi
	pop	esi
	pop	ebx
	mov	esp, ebp
	pop	ebp
	ret	4
??A?$CUtlArray@PADV?$CUtlMemory@PADH@@@@QAEAAPADH@Z ENDP ; CUtlArray<char *,CUtlMemory<char *,int> >::operator[]
_TEXT	ENDS
; Function compile flags: /Odtp /ZI
; File d:\!diffusion 2020\source code 2022\client-server\game_shared\utlarray.h
;	COMDAT ??1?$CUtlArray@PADV?$CUtlMemory@PADH@@@@QAE@XZ
_TEXT	SEGMENT
_this$ = -16						; size = 4
__$EHRec$ = -12						; size = 12
??1?$CUtlArray@PADV?$CUtlMemory@PADH@@@@QAE@XZ PROC	; CUtlArray<char *,CUtlMemory<char *,int> >::~CUtlArray<char *,CUtlMemory<char *,int> >, COMDAT
; _this$ = ecx

; 260  : {

	push	ebp
	mov	ebp, esp
	push	-1
	push	__ehhandler$??1?$CUtlArray@PADV?$CUtlMemory@PADH@@@@QAE@XZ
	mov	eax, DWORD PTR fs:0
	push	eax
	sub	esp, 68					; 00000044H
	push	ebx
	push	esi
	push	edi
	mov	eax, DWORD PTR ___security_cookie
	xor	eax, ebp
	push	eax
	lea	eax, DWORD PTR __$EHRec$[ebp]
	mov	DWORD PTR fs:0, eax
	mov	DWORD PTR _this$[ebp], ecx

; 261  : 	Purge();

	mov	ecx, DWORD PTR _this$[ebp]
	call	?Purge@?$CUtlArray@PADV?$CUtlMemory@PADH@@@@QAEXXZ ; CUtlArray<char *,CUtlMemory<char *,int> >::Purge

; 262  : }

	mov	ecx, DWORD PTR _this$[ebp]
	call	??1?$CUtlMemory@PADH@@QAE@XZ		; CUtlMemory<char *,int>::~CUtlMemory<char *,int>
	mov	ecx, DWORD PTR __$EHRec$[ebp]
	mov	DWORD PTR fs:0, ecx
	pop	ecx
	pop	edi
	pop	esi
	pop	ebx
	mov	esp, ebp
	pop	ebp
	ret	0
_TEXT	ENDS
;	COMDAT text$x
text$x	SEGMENT
__ehhandler$??1?$CUtlArray@PADV?$CUtlMemory@PADH@@@@QAE@XZ:
	mov	edx, DWORD PTR [esp+8]
	lea	eax, DWORD PTR [edx+12]
	mov	ecx, DWORD PTR [edx-84]
	xor	ecx, eax
	call	@__security_check_cookie@4
	mov	eax, OFFSET __ehfuncinfo$??1?$CUtlArray@PADV?$CUtlMemory@PADH@@@@QAE@XZ
	jmp	___CxxFrameHandler3
text$x	ENDS
??1?$CUtlArray@PADV?$CUtlMemory@PADH@@@@QAE@XZ ENDP	; CUtlArray<char *,CUtlMemory<char *,int> >::~CUtlArray<char *,CUtlMemory<char *,int> >
; Function compile flags: /Odtp /ZI
; File d:\!diffusion 2020\source code 2022\client-server\game_shared\utlarray.h
;	COMDAT ??0?$CUtlArray@PADV?$CUtlMemory@PADH@@@@QAE@HH@Z
_TEXT	SEGMENT
_this$ = -16						; size = 4
__$EHRec$ = -12						; size = 12
_growSize$ = 8						; size = 4
_initSize$ = 12						; size = 4
??0?$CUtlArray@PADV?$CUtlMemory@PADH@@@@QAE@HH@Z PROC	; CUtlArray<char *,CUtlMemory<char *,int> >::CUtlArray<char *,CUtlMemory<char *,int> >, COMDAT
; _this$ = ecx

; 247  : {

	push	ebp
	mov	ebp, esp
	push	-1
	push	__ehhandler$??0?$CUtlArray@PADV?$CUtlMemory@PADH@@@@QAE@HH@Z
	mov	eax, DWORD PTR fs:0
	push	eax
	sub	esp, 68					; 00000044H
	push	ebx
	push	esi
	push	edi
	mov	eax, DWORD PTR ___security_cookie
	xor	eax, ebp
	push	eax
	lea	eax, DWORD PTR __$EHRec$[ebp]
	mov	DWORD PTR fs:0, eax
	mov	DWORD PTR _this$[ebp], ecx

; 246  : 	m_Memory(growSize, initSize), m_Size(0)

	mov	eax, DWORD PTR _initSize$[ebp]
	push	eax
	mov	ecx, DWORD PTR _growSize$[ebp]
	push	ecx
	mov	ecx, DWORD PTR _this$[ebp]
	call	??0?$CUtlMemory@PADH@@QAE@HH@Z		; CUtlMemory<char *,int>::CUtlMemory<char *,int>
	mov	DWORD PTR __$EHRec$[ebp+8], 0
	mov	eax, DWORD PTR _this$[ebp]
	mov	DWORD PTR [eax+12], 0

; 248  : 	ResetDbgInfo();

	mov	ecx, DWORD PTR _this$[ebp]
	call	?ResetDbgInfo@?$CUtlArray@PADV?$CUtlMemory@PADH@@@@IAEXXZ ; CUtlArray<char *,CUtlMemory<char *,int> >::ResetDbgInfo

; 249  : }

	mov	DWORD PTR __$EHRec$[ebp+8], -1
	mov	eax, DWORD PTR _this$[ebp]
	mov	ecx, DWORD PTR __$EHRec$[ebp]
	mov	DWORD PTR fs:0, ecx
	pop	ecx
	pop	edi
	pop	esi
	pop	ebx
	mov	esp, ebp
	pop	ebp
	ret	8
_TEXT	ENDS
;	COMDAT text$x
text$x	SEGMENT
__unwindfunclet$??0?$CUtlArray@PADV?$CUtlMemory@PADH@@@@QAE@HH@Z$0:
	mov	ecx, DWORD PTR _this$[ebp]
	jmp	??1?$CUtlMemory@PADH@@QAE@XZ		; CUtlMemory<char *,int>::~CUtlMemory<char *,int>
__ehhandler$??0?$CUtlArray@PADV?$CUtlMemory@PADH@@@@QAE@HH@Z:
	mov	edx, DWORD PTR [esp+8]
	lea	eax, DWORD PTR [edx+12]
	mov	ecx, DWORD PTR [edx-84]
	xor	ecx, eax
	call	@__security_check_cookie@4
	mov	eax, OFFSET __ehfuncinfo$??0?$CUtlArray@PADV?$CUtlMemory@PADH@@@@QAE@HH@Z
	jmp	___CxxFrameHandler3
text$x	ENDS
??0?$CUtlArray@PADV?$CUtlMemory@PADH@@@@QAE@HH@Z ENDP	; CUtlArray<char *,CUtlMemory<char *,int> >::CUtlArray<char *,CUtlMemory<char *,int> >
; Function compile flags: /Odtp /ZI
; File d:\!diffusion 2020\source code 2022\client-server\common\datamap.h
;	COMDAT ??1CDatadescGeneratedNameHolder@@QAE@XZ
_TEXT	SEGMENT
$T2 = -88						; size = 4
_i$3 = -20						; size = 4
_this$ = -16						; size = 4
__$EHRec$ = -12						; size = 12
??1CDatadescGeneratedNameHolder@@QAE@XZ PROC		; CDatadescGeneratedNameHolder::~CDatadescGeneratedNameHolder, COMDAT
; _this$ = ecx

; 199  : 	{

	push	ebp
	mov	ebp, esp
	push	-1
	push	__ehhandler$??1CDatadescGeneratedNameHolder@@QAE@XZ
	mov	eax, DWORD PTR fs:0
	push	eax
	sub	esp, 76					; 0000004cH
	push	ebx
	push	esi
	push	edi
	mov	eax, DWORD PTR ___security_cookie
	xor	eax, ebp
	push	eax
	lea	eax, DWORD PTR __$EHRec$[ebp]
	mov	DWORD PTR fs:0, eax
	mov	DWORD PTR _this$[ebp], ecx

; 200  : 		for( int i = 0; i < m_Names.Count(); i++ )

	mov	DWORD PTR _i$3[ebp], 0
	jmp	SHORT $LN4@CDatadescG
$LN2@CDatadescG:
	mov	eax, DWORD PTR _i$3[ebp]
	add	eax, 1
	mov	DWORD PTR _i$3[ebp], eax
$LN4@CDatadescG:
	mov	ecx, DWORD PTR _this$[ebp]
	add	ecx, 8
	call	?Count@?$CUtlArray@PADV?$CUtlMemory@PADH@@@@QBEHXZ ; CUtlArray<char *,CUtlMemory<char *,int> >::Count
	cmp	DWORD PTR _i$3[ebp], eax
	jge	SHORT $LN1@CDatadescG

; 201  : 		{
; 202  : 			delete m_Names[i];

	mov	eax, DWORD PTR _i$3[ebp]
	push	eax
	mov	ecx, DWORD PTR _this$[ebp]
	add	ecx, 8
	call	??A?$CUtlArray@PADV?$CUtlMemory@PADH@@@@QAEAAPADH@Z ; CUtlArray<char *,CUtlMemory<char *,int> >::operator[]
	mov	ecx, DWORD PTR [eax]
	mov	DWORD PTR $T2[ebp], ecx
	push	1
	mov	edx, DWORD PTR $T2[ebp]
	push	edx
	call	??3@YAXPAXI@Z				; operator delete
	add	esp, 8

; 203  : 		}

	jmp	SHORT $LN2@CDatadescG
$LN1@CDatadescG:

; 204  : 	}

	mov	ecx, DWORD PTR _this$[ebp]
	add	ecx, 8
	call	??1?$CUtlArray@PADV?$CUtlMemory@PADH@@@@QAE@XZ ; CUtlArray<char *,CUtlMemory<char *,int> >::~CUtlArray<char *,CUtlMemory<char *,int> >
	mov	ecx, DWORD PTR __$EHRec$[ebp]
	mov	DWORD PTR fs:0, ecx
	pop	ecx
	pop	edi
	pop	esi
	pop	ebx
	mov	esp, ebp
	pop	ebp
	ret	0
_TEXT	ENDS
;	COMDAT text$x
text$x	SEGMENT
__ehhandler$??1CDatadescGeneratedNameHolder@@QAE@XZ:
	mov	edx, DWORD PTR [esp+8]
	lea	eax, DWORD PTR [edx+12]
	mov	ecx, DWORD PTR [edx-92]
	xor	ecx, eax
	call	@__security_check_cookie@4
	mov	eax, OFFSET __ehfuncinfo$??1CDatadescGeneratedNameHolder@@QAE@XZ
	jmp	___CxxFrameHandler3
text$x	ENDS
??1CDatadescGeneratedNameHolder@@QAE@XZ ENDP		; CDatadescGeneratedNameHolder::~CDatadescGeneratedNameHolder
; Function compile flags: /Odtp /ZI
; File d:\!diffusion 2020\source code 2022\client-server\common\datamap.h
;	COMDAT ??0CDatadescGeneratedNameHolder@@QAE@PBD@Z
_TEXT	SEGMENT
_this$ = -4						; size = 4
_pszBase$ = 8						; size = 4
??0CDatadescGeneratedNameHolder@@QAE@PBD@Z PROC		; CDatadescGeneratedNameHolder::CDatadescGeneratedNameHolder, COMDAT
; _this$ = ecx

; 194  : 	{

	push	ebp
	mov	ebp, esp
	sub	esp, 68					; 00000044H
	push	ebx
	push	esi
	push	edi
	mov	DWORD PTR _this$[ebp], ecx

; 193  : 	CDatadescGeneratedNameHolder( const char *pszBase ) : m_pszBase(pszBase)

	mov	eax, DWORD PTR _this$[ebp]
	mov	ecx, DWORD PTR _pszBase$[ebp]
	mov	DWORD PTR [eax], ecx

; 194  : 	{

	push	0
	push	0
	mov	ecx, DWORD PTR _this$[ebp]
	add	ecx, 8
	call	??0?$CUtlArray@PADV?$CUtlMemory@PADH@@@@QAE@HH@Z ; CUtlArray<char *,CUtlMemory<char *,int> >::CUtlArray<char *,CUtlMemory<char *,int> >

; 195  : 		m_nLenBase = strlen( m_pszBase ) + 2;

	mov	eax, DWORD PTR _this$[ebp]
	mov	ecx, DWORD PTR [eax]
	push	ecx
	call	_strlen
	add	esp, 4
	add	eax, 2
	mov	edx, DWORD PTR _this$[ebp]
	mov	DWORD PTR [edx+4], eax

; 196  : 	}

	mov	eax, DWORD PTR _this$[ebp]
	pop	edi
	pop	esi
	pop	ebx
	mov	esp, ebp
	pop	ebp
	ret	4
??0CDatadescGeneratedNameHolder@@QAE@PBD@Z ENDP		; CDatadescGeneratedNameHolder::CDatadescGeneratedNameHolder
_TEXT	ENDS
; Function compile flags: /Odtp /ZI
; File d:\!diffusion 2020\source code 2022\client-server\server\enginecallback.h
;	COMDAT ?GET_PRIVATE@@YAPAXPAUedict_s@@@Z
_TEXT	SEGMENT
_pent$ = 8						; size = 4
?GET_PRIVATE@@YAPAXPAUedict_s@@@Z PROC			; GET_PRIVATE, COMDAT

; 106  : {

	push	ebp
	mov	ebp, esp
	sub	esp, 64					; 00000040H
	push	ebx
	push	esi
	push	edi

; 107  : 	if ( pent )

	cmp	DWORD PTR _pent$[ebp], 0
	je	SHORT $LN2@GET_PRIVAT

; 108  : 		return pent->pvPrivateData;

	mov	eax, DWORD PTR _pent$[ebp]
	mov	eax, DWORD PTR [eax+124]
	jmp	SHORT $LN1@GET_PRIVAT
$LN2@GET_PRIVAT:

; 109  : 	return NULL;

	xor	eax, eax
$LN1@GET_PRIVAT:

; 110  : }

	pop	edi
	pop	esi
	pop	ebx
	mov	esp, ebp
	pop	ebp
	ret	0
?GET_PRIVATE@@YAPAXPAUedict_s@@@Z ENDP			; GET_PRIVATE
_TEXT	ENDS
; Function compile flags: /Odtp /ZI
;	COMDAT ??0gametrace_s@@QAE@XZ
_TEXT	SEGMENT
_this$ = -4						; size = 4
??0gametrace_s@@QAE@XZ PROC				; gametrace_s::gametrace_s, COMDAT
; _this$ = ecx
	push	ebp
	mov	ebp, esp
	sub	esp, 68					; 00000044H
	push	ebx
	push	esi
	push	edi
	mov	DWORD PTR _this$[ebp], ecx
	mov	ecx, DWORD PTR _this$[ebp]
	add	ecx, 20					; 00000014H
	call	??0Vector@@QAE@XZ			; Vector::Vector
	mov	ecx, DWORD PTR _this$[ebp]
	add	ecx, 36					; 00000024H
	call	??0Vector@@QAE@XZ			; Vector::Vector
	mov	eax, DWORD PTR _this$[ebp]
	pop	edi
	pop	esi
	pop	ebx
	mov	esp, ebp
	pop	ebp
	ret	0
??0gametrace_s@@QAE@XZ ENDP				; gametrace_s::gametrace_s
_TEXT	ENDS
; Function compile flags: /Odtp /ZI
; File d:\!diffusion 2020\source code 2022\client-server\game_shared\vector.h
;	COMDAT ??DVector@@QBE?AV0@M@Z
_TEXT	SEGMENT
_this$ = -4						; size = 4
___$ReturnUdt$ = 8					; size = 4
_fl$ = 12						; size = 4
??DVector@@QBE?AV0@M@Z PROC				; Vector::operator*, COMDAT
; _this$ = ecx

; 162  : 	inline Vector operator*(float fl) const		{ return Vector(x*fl, y*fl, z*fl);	   }

	push	ebp
	mov	ebp, esp
	sub	esp, 68					; 00000044H
	push	ebx
	push	esi
	push	edi
	mov	DWORD PTR _this$[ebp], ecx
	mov	eax, DWORD PTR _this$[ebp]
	movss	xmm0, DWORD PTR [eax+8]
	mulss	xmm0, DWORD PTR _fl$[ebp]
	push	ecx
	movss	DWORD PTR [esp], xmm0
	mov	ecx, DWORD PTR _this$[ebp]
	movss	xmm0, DWORD PTR [ecx+4]
	mulss	xmm0, DWORD PTR _fl$[ebp]
	push	ecx
	movss	DWORD PTR [esp], xmm0
	mov	edx, DWORD PTR _this$[ebp]
	movss	xmm0, DWORD PTR [edx]
	mulss	xmm0, DWORD PTR _fl$[ebp]
	push	ecx
	movss	DWORD PTR [esp], xmm0
	mov	ecx, DWORD PTR ___$ReturnUdt$[ebp]
	call	??0Vector@@QAE@MMM@Z			; Vector::Vector
	mov	eax, DWORD PTR ___$ReturnUdt$[ebp]
	pop	edi
	pop	esi
	pop	ebx
	mov	esp, ebp
	pop	ebp
	ret	8
??DVector@@QBE?AV0@M@Z ENDP				; Vector::operator*
_TEXT	ENDS
; Function compile flags: /Odtp /ZI
; File d:\!diffusion 2020\source code 2022\client-server\game_shared\vector.h
;	COMDAT ??GVector@@QBE?AV0@ABV0@@Z
_TEXT	SEGMENT
_this$ = -4						; size = 4
___$ReturnUdt$ = 8					; size = 4
_v$ = 12						; size = 4
??GVector@@QBE?AV0@ABV0@@Z PROC				; Vector::operator-, COMDAT
; _this$ = ecx

; 159  : 	inline Vector operator-(const Vector& v) const	{ return Vector(x-v.x, y-v.y, z-v.z);	   }

	push	ebp
	mov	ebp, esp
	sub	esp, 68					; 00000044H
	push	ebx
	push	esi
	push	edi
	mov	DWORD PTR _this$[ebp], ecx
	mov	eax, DWORD PTR _this$[ebp]
	mov	ecx, DWORD PTR _v$[ebp]
	movss	xmm0, DWORD PTR [eax+8]
	subss	xmm0, DWORD PTR [ecx+8]
	push	ecx
	movss	DWORD PTR [esp], xmm0
	mov	edx, DWORD PTR _this$[ebp]
	mov	eax, DWORD PTR _v$[ebp]
	movss	xmm0, DWORD PTR [edx+4]
	subss	xmm0, DWORD PTR [eax+4]
	push	ecx
	movss	DWORD PTR [esp], xmm0
	mov	ecx, DWORD PTR _this$[ebp]
	mov	edx, DWORD PTR _v$[ebp]
	movss	xmm0, DWORD PTR [ecx]
	subss	xmm0, DWORD PTR [edx]
	push	ecx
	movss	DWORD PTR [esp], xmm0
	mov	ecx, DWORD PTR ___$ReturnUdt$[ebp]
	call	??0Vector@@QAE@MMM@Z			; Vector::Vector
	mov	eax, DWORD PTR ___$ReturnUdt$[ebp]
	pop	edi
	pop	esi
	pop	ebx
	mov	esp, ebp
	pop	ebp
	ret	8
??GVector@@QBE?AV0@ABV0@@Z ENDP				; Vector::operator-
_TEXT	ENDS
; Function compile flags: /Odtp /ZI
; File d:\!diffusion 2020\source code 2022\client-server\game_shared\vector.h
;	COMDAT ??HVector@@QBE?AV0@ABV0@@Z
_TEXT	SEGMENT
_this$ = -4						; size = 4
___$ReturnUdt$ = 8					; size = 4
_v$ = 12						; size = 4
??HVector@@QBE?AV0@ABV0@@Z PROC				; Vector::operator+, COMDAT
; _this$ = ecx

; 158  : 	inline Vector operator+(const Vector& v) const	{ return Vector(x+v.x, y+v.y, z+v.z);	   }

	push	ebp
	mov	ebp, esp
	sub	esp, 68					; 00000044H
	push	ebx
	push	esi
	push	edi
	mov	DWORD PTR _this$[ebp], ecx
	mov	eax, DWORD PTR _this$[ebp]
	mov	ecx, DWORD PTR _v$[ebp]
	movss	xmm0, DWORD PTR [eax+8]
	addss	xmm0, DWORD PTR [ecx+8]
	push	ecx
	movss	DWORD PTR [esp], xmm0
	mov	edx, DWORD PTR _this$[ebp]
	mov	eax, DWORD PTR _v$[ebp]
	movss	xmm0, DWORD PTR [edx+4]
	addss	xmm0, DWORD PTR [eax+4]
	push	ecx
	movss	DWORD PTR [esp], xmm0
	mov	ecx, DWORD PTR _this$[ebp]
	mov	edx, DWORD PTR _v$[ebp]
	movss	xmm0, DWORD PTR [ecx]
	addss	xmm0, DWORD PTR [edx]
	push	ecx
	movss	DWORD PTR [esp], xmm0
	mov	ecx, DWORD PTR ___$ReturnUdt$[ebp]
	call	??0Vector@@QAE@MMM@Z			; Vector::Vector
	mov	eax, DWORD PTR ___$ReturnUdt$[ebp]
	pop	edi
	pop	esi
	pop	ebx
	mov	esp, ebp
	pop	ebp
	ret	8
??HVector@@QBE?AV0@ABV0@@Z ENDP				; Vector::operator+
_TEXT	ENDS
; Function compile flags: /Odtp /ZI
; File d:\!diffusion 2020\source code 2022\client-server\game_shared\vector.h
;	COMDAT ??9Vector@@QBEHABV0@@Z
_TEXT	SEGMENT
tv68 = -72						; size = 4
_this$ = -4						; size = 4
_v$ = 8							; size = 4
??9Vector@@QBEHABV0@@Z PROC				; Vector::operator!=, COMDAT
; _this$ = ecx

; 157  : 	inline int operator!=(const Vector& v) const	{ return !(*this==v);		   }

	push	ebp
	mov	ebp, esp
	sub	esp, 72					; 00000048H
	push	ebx
	push	esi
	push	edi
	mov	DWORD PTR _this$[ebp], ecx
	mov	eax, DWORD PTR _v$[ebp]
	push	eax
	mov	ecx, DWORD PTR _this$[ebp]
	call	??8Vector@@QBEHABV0@@Z			; Vector::operator==
	test	eax, eax
	jne	SHORT $LN3@operator
	mov	DWORD PTR tv68[ebp], 1
	jmp	SHORT $LN4@operator
$LN3@operator:
	mov	DWORD PTR tv68[ebp], 0
$LN4@operator:
	mov	eax, DWORD PTR tv68[ebp]
	pop	edi
	pop	esi
	pop	ebx
	mov	esp, ebp
	pop	ebp
	ret	4
??9Vector@@QBEHABV0@@Z ENDP				; Vector::operator!=
_TEXT	ENDS
; Function compile flags: /Odtp /ZI
; File d:\!diffusion 2020\source code 2022\client-server\game_shared\vector.h
;	COMDAT ??8Vector@@QBEHABV0@@Z
_TEXT	SEGMENT
tv73 = -72						; size = 4
_this$ = -4						; size = 4
_v$ = 8							; size = 4
??8Vector@@QBEHABV0@@Z PROC				; Vector::operator==, COMDAT
; _this$ = ecx

; 156  : 	inline int operator==(const Vector& v) const	{ return x==v.x && y==v.y && z==v.z;	   }

	push	ebp
	mov	ebp, esp
	sub	esp, 72					; 00000048H
	push	ebx
	push	esi
	push	edi
	mov	DWORD PTR _this$[ebp], ecx
	mov	eax, DWORD PTR _this$[ebp]
	mov	ecx, DWORD PTR _v$[ebp]
	movss	xmm0, DWORD PTR [eax]
	ucomiss	xmm0, DWORD PTR [ecx]
	lahf
	test	ah, 68					; 00000044H
	jp	SHORT $LN3@operator
	mov	edx, DWORD PTR _this$[ebp]
	mov	eax, DWORD PTR _v$[ebp]
	movss	xmm0, DWORD PTR [edx+4]
	ucomiss	xmm0, DWORD PTR [eax+4]
	lahf
	test	ah, 68					; 00000044H
	jp	SHORT $LN3@operator
	mov	ecx, DWORD PTR _this$[ebp]
	mov	edx, DWORD PTR _v$[ebp]
	movss	xmm0, DWORD PTR [ecx+8]
	ucomiss	xmm0, DWORD PTR [edx+8]
	lahf
	test	ah, 68					; 00000044H
	jp	SHORT $LN3@operator
	mov	DWORD PTR tv73[ebp], 1
	jmp	SHORT $LN4@operator
$LN3@operator:
	mov	DWORD PTR tv73[ebp], 0
$LN4@operator:
	mov	eax, DWORD PTR tv73[ebp]
	pop	edi
	pop	esi
	pop	ebx
	mov	esp, ebp
	pop	ebp
	ret	4
??8Vector@@QBEHABV0@@Z ENDP				; Vector::operator==
_TEXT	ENDS
; Function compile flags: /Odtp /ZI
; File d:\!diffusion 2020\source code 2022\client-server\game_shared\vector.h
;	COMDAT ??0Vector@@QAE@ABV0@@Z
_TEXT	SEGMENT
_this$ = -4						; size = 4
_v$ = 8							; size = 4
??0Vector@@QAE@ABV0@@Z PROC				; Vector::Vector, COMDAT
; _this$ = ecx

; 145  : 	inline Vector(const Vector& v)		{ x = v.x; y = v.y; z = v.z;		   }

	push	ebp
	mov	ebp, esp
	sub	esp, 68					; 00000044H
	push	ebx
	push	esi
	push	edi
	mov	DWORD PTR _this$[ebp], ecx
	mov	eax, DWORD PTR _this$[ebp]
	mov	ecx, DWORD PTR _v$[ebp]
	mov	edx, DWORD PTR [ecx]
	mov	DWORD PTR [eax], edx
	mov	eax, DWORD PTR _this$[ebp]
	mov	ecx, DWORD PTR _v$[ebp]
	mov	edx, DWORD PTR [ecx+4]
	mov	DWORD PTR [eax+4], edx
	mov	eax, DWORD PTR _this$[ebp]
	mov	ecx, DWORD PTR _v$[ebp]
	mov	edx, DWORD PTR [ecx+8]
	mov	DWORD PTR [eax+8], edx
	mov	eax, DWORD PTR _this$[ebp]
	pop	edi
	pop	esi
	pop	ebx
	mov	esp, ebp
	pop	ebp
	ret	4
??0Vector@@QAE@ABV0@@Z ENDP				; Vector::Vector
_TEXT	ENDS
; Function compile flags: /Odtp /ZI
; File d:\!diffusion 2020\source code 2022\client-server\game_shared\vector.h
;	COMDAT ??0Vector@@QAE@MMM@Z
_TEXT	SEGMENT
_this$ = -4						; size = 4
_X$ = 8							; size = 4
_Y$ = 12						; size = 4
_Z$ = 16						; size = 4
??0Vector@@QAE@MMM@Z PROC				; Vector::Vector, COMDAT
; _this$ = ecx

; 144  : 	inline Vector(float X, float Y, float Z)	{ x = X; y = Y; z = Z;                     }

	push	ebp
	mov	ebp, esp
	sub	esp, 68					; 00000044H
	push	ebx
	push	esi
	push	edi
	mov	DWORD PTR _this$[ebp], ecx
	mov	eax, DWORD PTR _this$[ebp]
	movss	xmm0, DWORD PTR _X$[ebp]
	movss	DWORD PTR [eax], xmm0
	mov	eax, DWORD PTR _this$[ebp]
	movss	xmm0, DWORD PTR _Y$[ebp]
	movss	DWORD PTR [eax+4], xmm0
	mov	eax, DWORD PTR _this$[ebp]
	movss	xmm0, DWORD PTR _Z$[ebp]
	movss	DWORD PTR [eax+8], xmm0
	mov	eax, DWORD PTR _this$[ebp]
	pop	edi
	pop	esi
	pop	ebx
	mov	esp, ebp
	pop	ebp
	ret	12					; 0000000cH
??0Vector@@QAE@MMM@Z ENDP				; Vector::Vector
_TEXT	ENDS
; Function compile flags: /Odtp /ZI
; File d:\!diffusion 2020\source code 2022\client-server\game_shared\vector.h
;	COMDAT ??0Vector@@QAE@XZ
_TEXT	SEGMENT
_this$ = -4						; size = 4
??0Vector@@QAE@XZ PROC					; Vector::Vector, COMDAT
; _this$ = ecx

; 143  : 	inline Vector(void)				{ }

	push	ebp
	mov	ebp, esp
	sub	esp, 68					; 00000044H
	push	ebx
	push	esi
	push	edi
	mov	DWORD PTR _this$[ebp], ecx
	mov	eax, DWORD PTR _this$[ebp]
	pop	edi
	pop	esi
	pop	ebx
	mov	esp, ebp
	pop	ebp
	ret	0
??0Vector@@QAE@XZ ENDP					; Vector::Vector
_TEXT	ENDS
; Function compile flags: /Odtp /ZI
; File d:\!diffusion 2020\source code 2022\client-server\server\weapons\weapon_sentry.cpp
;	COMDAT ?__empty_global_delete@@YAXPAXI@Z
_TEXT	SEGMENT
___formal$ = 8						; size = 4
___formal$ = 12						; size = 4
?__empty_global_delete@@YAXPAXI@Z PROC			; __empty_global_delete, COMDAT

	push	ebp
	mov	ebp, esp
	sub	esp, 64					; 00000040H
	push	ebx
	push	esi
	push	edi
	pop	edi
	pop	esi
	pop	ebx
	mov	esp, ebp
	pop	ebp
	ret	0
?__empty_global_delete@@YAXPAXI@Z ENDP			; __empty_global_delete
_TEXT	ENDS
; Function compile flags: /Odtp /ZI
; File d:\!diffusion 2020\source code 2022\client-server\server\weapons\weapon_sentry.cpp
;	COMDAT ?__empty_global_delete@@YAXPAX@Z
_TEXT	SEGMENT
___formal$ = 8						; size = 4
?__empty_global_delete@@YAXPAX@Z PROC			; __empty_global_delete, COMDAT

	push	ebp
	mov	ebp, esp
	sub	esp, 64					; 00000040H
	push	ebx
	push	esi
	push	edi
	pop	edi
	pop	esi
	pop	ebx
	mov	esp, ebp
	pop	ebp
	ret	0
?__empty_global_delete@@YAXPAX@Z ENDP			; __empty_global_delete
_TEXT	ENDS
; Function compile flags: /Odtp /ZI
;	COMDAT ??__G@YGXPAX0IIP6EPAX00@Z@Z
_TEXT	SEGMENT
tv66 = -68						; size = 4
___t$ = 8						; size = 4
___u$ = 12						; size = 4
___s$ = 16						; size = 4
___n$ = 20						; size = 4
___f$ = 24						; size = 4
??__G@YGXPAX0IIP6EPAX00@Z@Z PROC			; `vector copy constructor iterator', COMDAT
	push	ebp
	mov	ebp, esp
	sub	esp, 68					; 00000044H
	push	ebx
	push	esi
	push	edi
$LN2@vector:
	mov	eax, DWORD PTR ___n$[ebp]
	mov	DWORD PTR tv66[ebp], eax
	mov	ecx, DWORD PTR ___n$[ebp]
	sub	ecx, 1
	mov	DWORD PTR ___n$[ebp], ecx
	cmp	DWORD PTR tv66[ebp], 0
	jbe	SHORT $LN1@vector
	mov	eax, DWORD PTR ___u$[ebp]
	push	eax
	mov	ecx, DWORD PTR ___t$[ebp]
	call	DWORD PTR ___f$[ebp]
	mov	eax, DWORD PTR ___t$[ebp]
	add	eax, DWORD PTR ___s$[ebp]
	mov	DWORD PTR ___t$[ebp], eax
	mov	eax, DWORD PTR ___u$[ebp]
	add	eax, DWORD PTR ___s$[ebp]
	mov	DWORD PTR ___u$[ebp], eax
	jmp	SHORT $LN2@vector
$LN1@vector:
	pop	edi
	pop	esi
	pop	ebx
	mov	esp, ebp
	pop	ebp
	ret	20					; 00000014H
??__G@YGXPAX0IIP6EPAX00@Z@Z ENDP			; `vector copy constructor iterator'
_TEXT	ENDS
; Function compile flags: /Odtp /ZI
;	COMDAT ??_H@YGXPAXIIP6EPAX0@Z@Z
_TEXT	SEGMENT
tv66 = -68						; size = 4
___t$ = 8						; size = 4
___s$ = 12						; size = 4
___n$ = 16						; size = 4
___f$ = 20						; size = 4
??_H@YGXPAXIIP6EPAX0@Z@Z PROC				; `vector constructor iterator', COMDAT
	push	ebp
	mov	ebp, esp
	sub	esp, 68					; 00000044H
	push	ebx
	push	esi
	push	edi
$LN2@vector:
	mov	eax, DWORD PTR ___n$[ebp]
	mov	DWORD PTR tv66[ebp], eax
	mov	ecx, DWORD PTR ___n$[ebp]
	sub	ecx, 1
	mov	DWORD PTR ___n$[ebp], ecx
	cmp	DWORD PTR tv66[ebp], 0
	jbe	SHORT $LN1@vector
	mov	ecx, DWORD PTR ___t$[ebp]
	call	DWORD PTR ___f$[ebp]
	mov	eax, DWORD PTR ___t$[ebp]
	add	eax, DWORD PTR ___s$[ebp]
	mov	DWORD PTR ___t$[ebp], eax
	jmp	SHORT $LN2@vector
$LN1@vector:
	pop	edi
	pop	esi
	pop	ebx
	mov	esp, ebp
	pop	ebp
	ret	16					; 00000010H
??_H@YGXPAXIIP6EPAX0@Z@Z ENDP				; `vector constructor iterator'
_TEXT	ENDS
END
