; Listing generated by Microsoft (R) Optimizing Compiler Version 19.00.24247.2 

	TITLE	D:\!DIFFUSION 2020\source code 2022\client-server\server\weapons\weapon_rpg.cpp
	.686P
	.XMM
	include listing.inc
	.model	flat

INCLUDELIB LIBCMT
INCLUDELIB OLDNAMES

PUBLIC	?m_DataMap@CRpg@@2Udatamap_s@@A			; CRpg::m_DataMap
PUBLIC	??_C@_04DJMHHIGC@CRpg?$AA@			; `string'
PUBLIC	??_C@_0O@COLFMLPL@m_fSpotActive?$AA@		; `string'
PUBLIC	??_C@_0BB@JNCPOHBI@m_cActiveRockets?$AA@	; `string'
PUBLIC	?m_DataMap@CRpgRocket@@2Udatamap_s@@A		; CRpgRocket::m_DataMap
PUBLIC	??_C@_0L@DGKMIAEI@CRpgRocket?$AA@		; `string'
PUBLIC	??_C@_0P@DCNADFJB@m_flIgniteTime?$AA@		; `string'
PUBLIC	??_C@_0M@PEIEPJFC@m_pLauncher?$AA@		; `string'
PUBLIC	?m_DataMap@CRoboRocket2@@2Udatamap_s@@A		; CRoboRocket2::m_DataMap
PUBLIC	??_C@_0N@NGHBIJO@CRoboRocket2?$AA@		; `string'
;	COMDAT ??_C@_0N@NGHBIJO@CRoboRocket2?$AA@
CONST	SEGMENT
??_C@_0N@NGHBIJO@CRoboRocket2?$AA@ DB 'CRoboRocket2', 00H ; `string'
CONST	ENDS
;	COMDAT ??_C@_0M@PEIEPJFC@m_pLauncher?$AA@
CONST	SEGMENT
??_C@_0M@PEIEPJFC@m_pLauncher?$AA@ DB 'm_pLauncher', 00H ; `string'
CONST	ENDS
;	COMDAT ??_C@_0P@DCNADFJB@m_flIgniteTime?$AA@
CONST	SEGMENT
??_C@_0P@DCNADFJB@m_flIgniteTime?$AA@ DB 'm_flIgniteTime', 00H ; `string'
CONST	ENDS
;	COMDAT ??_C@_0L@DGKMIAEI@CRpgRocket?$AA@
CONST	SEGMENT
??_C@_0L@DGKMIAEI@CRpgRocket?$AA@ DB 'CRpgRocket', 00H	; `string'
CONST	ENDS
;	COMDAT ??_C@_0BB@JNCPOHBI@m_cActiveRockets?$AA@
CONST	SEGMENT
??_C@_0BB@JNCPOHBI@m_cActiveRockets?$AA@ DB 'm_cActiveRockets', 00H ; `string'
CONST	ENDS
;	COMDAT ??_C@_0O@COLFMLPL@m_fSpotActive?$AA@
CONST	SEGMENT
??_C@_0O@COLFMLPL@m_fSpotActive?$AA@ DB 'm_fSpotActive', 00H ; `string'
CONST	ENDS
;	COMDAT ??_C@_04DJMHHIGC@CRpg?$AA@
CONST	SEGMENT
??_C@_04DJMHHIGC@CRpg?$AA@ DB 'CRpg', 00H		; `string'
CONST	ENDS
_DATA	SEGMENT
?m_DataMap@CRpg@@2Udatamap_s@@A DD 00H			; CRpg::m_DataMap
	DD	00H
	DD	FLAT:??_C@_04DJMHHIGC@CRpg?$AA@
	DD	00H
?dataDesc@?1???$DataMapInit@VCRpg@@@@YAPAUdatamap_s@@PAVCRpg@@@Z@4PAUtypedescription_s@@A DD 012H ; `DataMapInit<CRpg>'::`2'::dataDesc
	DD	00H
	DD	00H
	DW	00H
	DW	00H
	DD	00H
	DD	00H
	DD	0aH
	DD	FLAT:??_C@_0O@COLFMLPL@m_fSpotActive?$AA@
	DD	078cH
	DW	01H
	DW	02H
	DD	00H
	DD	00H
	DD	0aH
	DD	FLAT:??_C@_0BB@JNCPOHBI@m_cActiveRockets?$AA@
	DD	0788H
	DW	01H
	DW	02H
	DD	00H
	DD	00H
?m_DataMap@CRpgRocket@@2Udatamap_s@@A DD 00H		; CRpgRocket::m_DataMap
	DD	00H
	DD	FLAT:??_C@_0L@DGKMIAEI@CRpgRocket?$AA@
	DD	00H
?dataDesc@?1???$DataMapInit@VCRpgRocket@@@@YAPAUdatamap_s@@PAVCRpgRocket@@@Z@4PAUtypedescription_s@@A DD 012H ; `DataMapInit<CRpgRocket>'::`2'::dataDesc
	DD	00H
	DD	00H
	DW	00H
	DW	00H
	DD	00H
	DD	00H
	DD	0fH
	DD	FLAT:??_C@_0P@DCNADFJB@m_flIgniteTime?$AA@
	DD	09d8H
	DW	01H
	DW	02H
	DD	00H
	DD	00H
	DD	03H
	DD	FLAT:??_C@_0M@PEIEPJFC@m_pLauncher?$AA@
	DD	09dcH
	DW	01H
	DW	02H
	DD	00H
	DD	00H
	DD	012H
	ORG $+140
?m_DataMap@CRoboRocket2@@2Udatamap_s@@A DD 00H		; CRoboRocket2::m_DataMap
	DD	00H
	DD	FLAT:??_C@_0N@NGHBIJO@CRoboRocket2?$AA@
	DD	00H
?dataDesc@?1???$DataMapInit@VCRoboRocket2@@@@YAPAUdatamap_s@@PAVCRoboRocket2@@@Z@4PAUtypedescription_s@@A DD 012H ; `DataMapInit<CRoboRocket2>'::`2'::dataDesc
	DD	00H
	DD	00H
	DW	00H
	DW	00H
	DD	00H
	DD	00H
	DD	0fH
	DD	FLAT:??_C@_0P@DCNADFJB@m_flIgniteTime?$AA@
	DD	09d8H
	DW	01H
	DW	02H
	DD	00H
	DD	00H
	DD	012H
	ORG $+92
_DATA	ENDS
PUBLIC	??_H@YGXPAXIIP6EPAX0@Z@Z			; `vector constructor iterator'
PUBLIC	??__G@YGXPAX0IIP6EPAX00@Z@Z			; `vector copy constructor iterator'
PUBLIC	?__empty_global_delete@@YAXPAX@Z		; __empty_global_delete
PUBLIC	?__empty_global_delete@@YAXPAXI@Z		; __empty_global_delete
PUBLIC	___local_stdio_printf_options
PUBLIC	??$__vcrt_va_start_verify_argument_type@QBD@@YAXXZ ; __vcrt_va_start_verify_argument_type<char const * const>
PUBLIC	__vsnprintf_l
PUBLIC	__vsprintf_l
PUBLIC	_sprintf
PUBLIC	??0Vector@@QAE@XZ				; Vector::Vector
PUBLIC	??0Vector@@QAE@MMM@Z				; Vector::Vector
PUBLIC	??0Vector@@QAE@ABV0@@Z				; Vector::Vector
PUBLIC	??GVector@@QBE?AV0@XZ				; Vector::operator-
PUBLIC	??8Vector@@QBEHABV0@@Z				; Vector::operator==
PUBLIC	??9Vector@@QBEHABV0@@Z				; Vector::operator!=
PUBLIC	??HVector@@QBE?AV0@ABV0@@Z			; Vector::operator+
PUBLIC	??GVector@@QBE?AV0@ABV0@@Z			; Vector::operator-
PUBLIC	??DVector@@QBE?AV0@M@Z				; Vector::operator*
PUBLIC	?Length@Vector@@QBEMXZ				; Vector::Length
PUBLIC	??BVector@@QAEPAMXZ				; Vector::operator float *
PUBLIC	??BVector@@QBEPBMXZ				; Vector::operator float const *
PUBLIC	?Normalize@Vector@@QBE?AV1@XZ			; Vector::Normalize
PUBLIC	?DotProduct@@YAMABVVector@@0@Z			; DotProduct
PUBLIC	??0gametrace_s@@QAE@XZ				; gametrace_s::gametrace_s
PUBLIC	?MESSAGE_BEGIN@@YAXHHPBMPAUedict_s@@@Z		; MESSAGE_BEGIN
PUBLIC	?GET_PRIVATE@@YAPAXPAUedict_s@@@Z		; GET_PRIVATE
PUBLIC	??2@YAPAXIPAX@Z					; operator new
PUBLIC	?UtlMemory_CalcNewAllocationCount@@YAHHHHH@Z	; UtlMemory_CalcNewAllocationCount
PUBLIC	??0CDatadescGeneratedNameHolder@@QAE@PBD@Z	; CDatadescGeneratedNameHolder::CDatadescGeneratedNameHolder
PUBLIC	??1CDatadescGeneratedNameHolder@@QAE@XZ		; CDatadescGeneratedNameHolder::~CDatadescGeneratedNameHolder
PUBLIC	?GenerateName@CDatadescGeneratedNameHolder@@QAEPBDPBD@Z ; CDatadescGeneratedNameHolder::GenerateName
PUBLIC	??0?$CUtlArray@PADV?$CUtlMemory@PADH@@@@QAE@HH@Z ; CUtlArray<char *,CUtlMemory<char *,int> >::CUtlArray<char *,CUtlMemory<char *,int> >
PUBLIC	??1?$CUtlArray@PADV?$CUtlMemory@PADH@@@@QAE@XZ	; CUtlArray<char *,CUtlMemory<char *,int> >::~CUtlArray<char *,CUtlMemory<char *,int> >
PUBLIC	??A?$CUtlArray@PADV?$CUtlMemory@PADH@@@@QAEAAPADH@Z ; CUtlArray<char *,CUtlMemory<char *,int> >::operator[]
PUBLIC	?Element@?$CUtlArray@PADV?$CUtlMemory@PADH@@@@QAEAAPADH@Z ; CUtlArray<char *,CUtlMemory<char *,int> >::Element
PUBLIC	?Base@?$CUtlArray@PADV?$CUtlMemory@PADH@@@@QAEPAPADXZ ; CUtlArray<char *,CUtlMemory<char *,int> >::Base
PUBLIC	?Count@?$CUtlArray@PADV?$CUtlMemory@PADH@@@@QBEHXZ ; CUtlArray<char *,CUtlMemory<char *,int> >::Count
PUBLIC	?IsValidIndex@?$CUtlArray@PADV?$CUtlMemory@PADH@@@@QBE_NH@Z ; CUtlArray<char *,CUtlMemory<char *,int> >::IsValidIndex
PUBLIC	?AddToTail@?$CUtlArray@PADV?$CUtlMemory@PADH@@@@QAEHABQAD@Z ; CUtlArray<char *,CUtlMemory<char *,int> >::AddToTail
PUBLIC	?InsertBefore@?$CUtlArray@PADV?$CUtlMemory@PADH@@@@QAEHHABQAD@Z ; CUtlArray<char *,CUtlMemory<char *,int> >::InsertBefore
PUBLIC	?RemoveAll@?$CUtlArray@PADV?$CUtlMemory@PADH@@@@QAEXXZ ; CUtlArray<char *,CUtlMemory<char *,int> >::RemoveAll
PUBLIC	?Purge@?$CUtlArray@PADV?$CUtlMemory@PADH@@@@QAEXXZ ; CUtlArray<char *,CUtlMemory<char *,int> >::Purge
PUBLIC	?GrowVector@?$CUtlArray@PADV?$CUtlMemory@PADH@@@@IAEXH@Z ; CUtlArray<char *,CUtlMemory<char *,int> >::GrowVector
PUBLIC	?ShiftElementsRight@?$CUtlArray@PADV?$CUtlMemory@PADH@@@@IAEXHH@Z ; CUtlArray<char *,CUtlMemory<char *,int> >::ShiftElementsRight
PUBLIC	??0?$CUtlMemory@PADH@@QAE@HH@Z			; CUtlMemory<char *,int>::CUtlMemory<char *,int>
PUBLIC	??1?$CUtlMemory@PADH@@QAE@XZ			; CUtlMemory<char *,int>::~CUtlMemory<char *,int>
PUBLIC	??A?$CUtlMemory@PADH@@QAEAAPADH@Z		; CUtlMemory<char *,int>::operator[]
PUBLIC	?IsIdxValid@?$CUtlMemory@PADH@@QBE_NH@Z		; CUtlMemory<char *,int>::IsIdxValid
PUBLIC	?Base@?$CUtlMemory@PADH@@QAEPAPADXZ		; CUtlMemory<char *,int>::Base
PUBLIC	?NumAllocated@?$CUtlMemory@PADH@@QBEHXZ		; CUtlMemory<char *,int>::NumAllocated
PUBLIC	?Grow@?$CUtlMemory@PADH@@QAEXH@Z		; CUtlMemory<char *,int>::Grow
PUBLIC	?Purge@?$CUtlMemory@PADH@@QAEXXZ		; CUtlMemory<char *,int>::Purge
PUBLIC	?IsExternallyAllocated@?$CUtlMemory@PADH@@QBE_NXZ ; CUtlMemory<char *,int>::IsExternallyAllocated
PUBLIC	?IsReadOnly@?$CUtlMemory@PADH@@QBE_NXZ		; CUtlMemory<char *,int>::IsReadOnly
PUBLIC	?ValidateGrowSize@?$CUtlMemory@PADH@@IAEXXZ	; CUtlMemory<char *,int>::ValidateGrowSize
PUBLIC	?ResetDbgInfo@?$CUtlArray@PADV?$CUtlMemory@PADH@@@@IAEXXZ ; CUtlArray<char *,CUtlMemory<char *,int> >::ResetDbgInfo
PUBLIC	?MESSAGE_BEGIN@@YAXHHPBMPAUentvars_s@@@Z	; MESSAGE_BEGIN
PUBLIC	??0IEntityFactory@@QAE@XZ			; IEntityFactory::IEntityFactory
PUBLIC	?ENT@@YAPAUedict_s@@PBUentvars_s@@@Z		; ENT
PUBLIC	?ENT@@YAPAUedict_s@@H@Z				; ENT
PUBLIC	?OFFSET@@YAHPBUedict_s@@@Z			; OFFSET
PUBLIC	?OFFSET@@YAHPAUentvars_s@@@Z			; OFFSET
PUBLIC	?VARS@@YAPAUentvars_s@@PAUedict_s@@@Z		; VARS
PUBLIC	?ENTINDEX@@YAHPAUedict_s@@@Z			; ENTINDEX
PUBLIC	?FNullEnt@@YAHH@Z				; FNullEnt
PUBLIC	?FNullEnt@@YAHPAUentvars_s@@@Z			; FNullEnt
PUBLIC	?FStrEq@@YAHPBD0@Z				; FStrEq
PUBLIC	?FClassnameIs@@YAHPAUentvars_s@@PBD@Z		; FClassnameIs
PUBLIC	?EMIT_SOUND@@YAXPAUedict_s@@HPBDMM@Z		; EMIT_SOUND
PUBLIC	?STOP_SOUND@@YAXPAUedict_s@@HPBD@Z		; STOP_SOUND
PUBLIC	??0WayPoint_t@@QAE@XZ				; WayPoint_t::WayPoint_t
PUBLIC	?Get@EHANDLE@@QAEPAUedict_s@@XZ			; EHANDLE::Get
PUBLIC	??BEHANDLE@@QAEHXZ				; EHANDLE::operator int
PUBLIC	??4EHANDLE@@QAEPAVCBaseEntity@@PAV1@@Z		; EHANDLE::operator=
PUBLIC	??CEHANDLE@@QAEPAVCBaseEntity@@XZ		; EHANDLE::operator->
PUBLIC	?GetClassname@CBaseEntity@@QAEPBDXZ		; CBaseEntity::GetClassname
PUBLIC	?SetClassname@CBaseEntity@@QAEXPBD@Z		; CBaseEntity::SetClassname
PUBLIC	?Spawn@CBaseEntity@@UAEXXZ			; CBaseEntity::Spawn
PUBLIC	?Precache@CBaseEntity@@UAEXXZ			; CBaseEntity::Precache
PUBLIC	?KeyValue@CBaseEntity@@UAEXPAUKeyValueData_s@@@Z ; CBaseEntity::KeyValue
PUBLIC	?ObjectCaps@CBaseEntity@@UAEHXZ			; CBaseEntity::ObjectCaps
PUBLIC	?Activate@CBaseEntity@@UAEXXZ			; CBaseEntity::Activate
PUBLIC	?OnChangeLevel@CBaseEntity@@UAEXXZ		; CBaseEntity::OnChangeLevel
PUBLIC	?OnTeleport@CBaseEntity@@UAEXXZ			; CBaseEntity::OnTeleport
PUBLIC	?PortalSleep@CBaseEntity@@UAEXM@Z		; CBaseEntity::PortalSleep
PUBLIC	?StartMessage@CBaseEntity@@UAEXPAVCBasePlayer@@@Z ; CBaseEntity::StartMessage
PUBLIC	?GetPosition@CBaseEntity@@UAEMXZ		; CBaseEntity::GetPosition
PUBLIC	?OnChangeParent@CBaseEntity@@UAEXXZ		; CBaseEntity::OnChangeParent
PUBLIC	?OnClearParent@CBaseEntity@@UAEXXZ		; CBaseEntity::OnClearParent
PUBLIC	?OnRemove@CBaseEntity@@UAEXXZ			; CBaseEntity::OnRemove
PUBLIC	?Classify@CBaseEntity@@UAEHXZ			; CBaseEntity::Classify
PUBLIC	?DeathNotice@CBaseEntity@@UAEXPAUentvars_s@@@Z	; CBaseEntity::DeathNotice
PUBLIC	?IsRigidBody@CBaseEntity@@UAEHXZ		; CBaseEntity::IsRigidBody
PUBLIC	?GetState@CBaseEntity@@UAE?AW4STATE@@XZ		; CBaseEntity::GetState
PUBLIC	?GetState@CBaseEntity@@UAE?AW4STATE@@PAV1@@Z	; CBaseEntity::GetState
PUBLIC	?BloodColor@CBaseEntity@@UAEHXZ			; CBaseEntity::BloodColor
PUBLIC	?IsTriggered@CBaseEntity@@UAEHPAV1@@Z		; CBaseEntity::IsTriggered
PUBLIC	?MyMonsterPointer@CBaseEntity@@UAEPAVCBaseMonster@@XZ ; CBaseEntity::MyMonsterPointer
PUBLIC	?MySquadMonsterPointer@CBaseEntity@@UAEPAVCSquadMonster@@XZ ; CBaseEntity::MySquadMonsterPointer
PUBLIC	?GetToggleState@CBaseEntity@@UAEHXZ		; CBaseEntity::GetToggleState
PUBLIC	?AddPoints@CBaseEntity@@UAEXHH@Z		; CBaseEntity::AddPoints
PUBLIC	?AddPointsToTeam@CBaseEntity@@UAEXHH@Z		; CBaseEntity::AddPointsToTeam
PUBLIC	?AddPlayerItem@CBaseEntity@@UAEHPAVCBasePlayerItem@@@Z ; CBaseEntity::AddPlayerItem
PUBLIC	?RemovePlayerItem@CBaseEntity@@UAEHPAVCBasePlayerItem@@@Z ; CBaseEntity::RemovePlayerItem
PUBLIC	?GiveAmmo@CBaseEntity@@UAEHHPADH@Z		; CBaseEntity::GiveAmmo
PUBLIC	?GetDelay@CBaseEntity@@UAEMXZ			; CBaseEntity::GetDelay
PUBLIC	?IsMoving@CBaseEntity@@UAEHXZ			; CBaseEntity::IsMoving
PUBLIC	?OverrideReset@CBaseEntity@@UAEXXZ		; CBaseEntity::OverrideReset
PUBLIC	?TransferReset@CBaseEntity@@UAEXXZ		; CBaseEntity::TransferReset
PUBLIC	?SetToggleState@CBaseEntity@@UAEXH@Z		; CBaseEntity::SetToggleState
PUBLIC	?StartSneaking@CBaseEntity@@UAEXXZ		; CBaseEntity::StartSneaking
PUBLIC	?StopSneaking@CBaseEntity@@UAEXXZ		; CBaseEntity::StopSneaking
PUBLIC	?OnControls@CBaseEntity@@UAEHPAV1@@Z		; CBaseEntity::OnControls
PUBLIC	?IsSneaking@CBaseEntity@@UAEHXZ			; CBaseEntity::IsSneaking
PUBLIC	?IsAlive@CBaseEntity@@UAEHXZ			; CBaseEntity::IsAlive
PUBLIC	?IsBSPModel@CBaseEntity@@UAEHXZ			; CBaseEntity::IsBSPModel
PUBLIC	?IsCustomModel@CBaseEntity@@UAEHXZ		; CBaseEntity::IsCustomModel
PUBLIC	?ReflectGauss@CBaseEntity@@UAEHXZ		; CBaseEntity::ReflectGauss
PUBLIC	?HasTarget@CBaseEntity@@UAEHH@Z			; CBaseEntity::HasTarget
PUBLIC	?IsPlayer@CBaseEntity@@UAEHXZ			; CBaseEntity::IsPlayer
PUBLIC	?IsNetClient@CBaseEntity@@UAEHXZ		; CBaseEntity::IsNetClient
PUBLIC	?IsMonster@CBaseEntity@@UAEHXZ			; CBaseEntity::IsMonster
PUBLIC	?IsPushable@CBaseEntity@@UAEHXZ			; CBaseEntity::IsPushable
PUBLIC	?IsProjectile@CBaseEntity@@UAEHXZ		; CBaseEntity::IsProjectile
PUBLIC	?IsFuncScreen@CBaseEntity@@UAEHXZ		; CBaseEntity::IsFuncScreen
PUBLIC	?IsPortal@CBaseEntity@@UAEHXZ			; CBaseEntity::IsPortal
PUBLIC	?IsTank@CBaseEntity@@UAEHXZ			; CBaseEntity::IsTank
PUBLIC	?IsMover@CBaseEntity@@UAEHXZ			; CBaseEntity::IsMover
PUBLIC	?IsBreakable@CBaseEntity@@UAEHXZ		; CBaseEntity::IsBreakable
PUBLIC	?TeamID@CBaseEntity@@UAEPBDXZ			; CBaseEntity::TeamID
PUBLIC	?AddSpawnFlags@CBaseEntity@@UAEXH@Z		; CBaseEntity::AddSpawnFlags
PUBLIC	?HasSpawnFlags@CBaseEntity@@UBE_NH@Z		; CBaseEntity::HasSpawnFlags
PUBLIC	?SetFadeDistance@CBaseEntity@@UAEXH@Z		; CBaseEntity::SetFadeDistance
PUBLIC	?SetFlag@CBaseEntity@@UAEXH@Z			; CBaseEntity::SetFlag
PUBLIC	?HasFlag@CBaseEntity@@UBE_NH@Z			; CBaseEntity::HasFlag
PUBLIC	?RemoveFlag@CBaseEntity@@UAEXH@Z		; CBaseEntity::RemoveFlag
PUBLIC	?SetNullModel@CBaseEntity@@UAEXXZ		; CBaseEntity::SetNullModel
PUBLIC	?OnPickupObject@CBaseEntity@@UAEXXZ		; CBaseEntity::OnPickupObject
PUBLIC	?OnDropObject@CBaseEntity@@UAEXXZ		; CBaseEntity::OnDropObject
PUBLIC	?Think@CBaseEntity@@UAEXXZ			; CBaseEntity::Think
PUBLIC	?Use@CBaseEntity@@UAEXPAV1@0W4USE_TYPE@@M@Z	; CBaseEntity::Use
PUBLIC	?Touch@CBaseEntity@@UAEXPAV1@@Z			; CBaseEntity::Touch
PUBLIC	?Blocked@CBaseEntity@@UAEXPAV1@@Z		; CBaseEntity::Blocked
PUBLIC	?MoveDone@CBaseEntity@@UAEXXZ			; CBaseEntity::MoveDone
PUBLIC	??2CBaseEntity@@SAPAXIPAUentvars_s@@@Z		; CBaseEntity::operator new
PUBLIC	??3CBaseEntity@@SAXPAXPAUentvars_s@@@Z		; CBaseEntity::operator delete
PUBLIC	?Respawn@CBaseEntity@@UAEPAV1@XZ		; CBaseEntity::Respawn
PUBLIC	?Instance@CBaseEntity@@SAPAV1@PAUedict_s@@@Z	; CBaseEntity::Instance
PUBLIC	?FunctionCheck@CBaseEntity@@QAEXPAXPAD@Z	; CBaseEntity::FunctionCheck
PUBLIC	?ThinkSet@CBaseEntity@@QAEP81@AEXXZP81@AEXXZPAD@Z ; CBaseEntity::ThinkSet
PUBLIC	?TouchSet@CBaseEntity@@QAEP81@AEXPAV1@@ZP81@AEX0@ZPAD@Z ; CBaseEntity::TouchSet
PUBLIC	?UpdateOwner@CBaseEntity@@UAEXXZ		; CBaseEntity::UpdateOwner
PUBLIC	?FBecomeProne@CBaseEntity@@UAEHXZ		; CBaseEntity::FBecomeProne
PUBLIC	?edict@CBaseEntity@@QAEPAUedict_s@@XZ		; CBaseEntity::edict
PUBLIC	?entindex@CBaseEntity@@QAEHXZ			; CBaseEntity::entindex
PUBLIC	?Center@CBaseEntity@@UAE?AVVector@@XZ		; CBaseEntity::Center
PUBLIC	?EyePosition@CBaseEntity@@UAE?AVVector@@XZ	; CBaseEntity::EyePosition
PUBLIC	?EarPosition@CBaseEntity@@UAE?AVVector@@XZ	; CBaseEntity::EarPosition
PUBLIC	?BodyTarget@CBaseEntity@@UAE?AVVector@@ABV2@@Z	; CBaseEntity::BodyTarget
PUBLIC	?IsPointSized@CBaseEntity@@UBEHXZ		; CBaseEntity::IsPointSized
PUBLIC	?Illumination@CBaseEntity@@UAEHXZ		; CBaseEntity::Illumination
PUBLIC	??0CBaseEntity@@QAE@XZ				; CBaseEntity::CBaseEntity
PUBLIC	??1CBaseEntity@@QAE@XZ				; CBaseEntity::~CBaseEntity
PUBLIC	?GetState@CBaseDelay@@UAE?AW4STATE@@XZ		; CBaseDelay::GetState
PUBLIC	??0CBaseDelay@@QAE@XZ				; CBaseDelay::CBaseDelay
PUBLIC	??1CBaseDelay@@QAE@XZ				; CBaseDelay::~CBaseDelay
PUBLIC	?HandleAnimEvent@CBaseAnimating@@UAEXPAUMonsterEvent_t@@@Z ; CBaseAnimating::HandleAnimEvent
PUBLIC	??0CBaseAnimating@@QAE@XZ			; CBaseAnimating::CBaseAnimating
PUBLIC	??1CBaseAnimating@@QAE@XZ			; CBaseAnimating::~CBaseAnimating
PUBLIC	?GetToggleState@CBaseToggle@@UAEHXZ		; CBaseToggle::GetToggleState
PUBLIC	?GetDelay@CBaseToggle@@UAEMXZ			; CBaseToggle::GetDelay
PUBLIC	??0CBaseToggle@@QAE@XZ				; CBaseToggle::CBaseToggle
PUBLIC	??1CBaseToggle@@QAE@XZ				; CBaseToggle::~CBaseToggle
PUBLIC	?Classify@CBaseMonster@@UAEHXZ			; CBaseMonster::Classify
PUBLIC	?BloodColor@CBaseMonster@@UAEHXZ		; CBaseMonster::BloodColor
PUBLIC	?MyMonsterPointer@CBaseMonster@@UAEPAV1@XZ	; CBaseMonster::MyMonsterPointer
PUBLIC	?IsAlive@CBaseMonster@@UAEHXZ			; CBaseMonster::IsAlive
PUBLIC	?GetStoppedActivity@CBaseMonster@@UAE?AW4Activity@@XZ ; CBaseMonster::GetStoppedActivity
PUBLIC	?Stop@CBaseMonster@@UAEXXZ			; CBaseMonster::Stop
PUBLIC	?ScheduleChange@CBaseMonster@@UAEXXZ		; CBaseMonster::ScheduleChange
PUBLIC	?CanPlaySentence@CBaseMonster@@UAEHH@Z		; CBaseMonster::CanPlaySentence
PUBLIC	?SetYawSpeed@CBaseMonster@@UAEXXZ		; CBaseMonster::SetYawSpeed
PUBLIC	?FValidateCover@CBaseMonster@@UAEHABVVector@@@Z	; CBaseMonster::FValidateCover
PUBLIC	?CoverRadius@CBaseMonster@@UAEMXZ		; CBaseMonster::CoverRadius
PUBLIC	?CheckAmmo@CBaseMonster@@UAEXXZ			; CBaseMonster::CheckAmmo
PUBLIC	?HearingSensitivity@CBaseMonster@@UAEMXZ	; CBaseMonster::HearingSensitivity
PUBLIC	?PrescheduleThink@CBaseMonster@@UAEXXZ		; CBaseMonster::PrescheduleThink
PUBLIC	?BodyTarget@CBaseMonster@@UAE?AVVector@@ABV2@@Z	; CBaseMonster::BodyTarget
PUBLIC	?IsMoving@CBaseMonster@@UAEHXZ			; CBaseMonster::IsMoving
PUBLIC	?DeathSound@CBaseMonster@@UAEXXZ		; CBaseMonster::DeathSound
PUBLIC	?AlertSound@CBaseMonster@@UAEXXZ		; CBaseMonster::AlertSound
PUBLIC	?IdleSound@CBaseMonster@@UAEXXZ			; CBaseMonster::IdleSound
PUBLIC	?PainSound@CBaseMonster@@UAEXXZ			; CBaseMonster::PainSound
PUBLIC	?StopFollowing@CBaseMonster@@UAEXH@Z		; CBaseMonster::StopFollowing
PUBLIC	??0CBaseMonster@@QAE@XZ				; CBaseMonster::CBaseMonster
PUBLIC	??1CBaseMonster@@QAE@XZ				; CBaseMonster::~CBaseMonster
PUBLIC	?BloodColor@CGrenade@@UAEHXZ			; CGrenade::BloodColor
PUBLIC	?IsProjectile@CGrenade@@UAEHXZ			; CGrenade::IsProjectile
PUBLIC	??0CGrenade@@QAE@XZ				; CGrenade::CGrenade
PUBLIC	?AddDuplicate@CBasePlayerItem@@UAEHPAV1@@Z	; CBasePlayerItem::AddDuplicate
PUBLIC	?GetItemInfo@CBasePlayerItem@@UAEHPAUItemInfo@@@Z ; CBasePlayerItem::GetItemInfo
PUBLIC	?CanDeploy@CBasePlayerItem@@UAEHXZ		; CBasePlayerItem::CanDeploy
PUBLIC	?Deploy@CBasePlayerItem@@UAEHXZ			; CBasePlayerItem::Deploy
PUBLIC	?CanHolster@CBasePlayerItem@@UAEHXZ		; CBasePlayerItem::CanHolster
PUBLIC	?UpdateItemInfo@CBasePlayerItem@@UAEXXZ		; CBasePlayerItem::UpdateItemInfo
PUBLIC	?ItemPreFrame@CBasePlayerItem@@UAEXXZ		; CBasePlayerItem::ItemPreFrame
PUBLIC	?ItemPostFrame@CBasePlayerItem@@UAEXXZ		; CBasePlayerItem::ItemPostFrame
PUBLIC	?PrimaryAmmoIndex@CBasePlayerItem@@UAEHXZ	; CBasePlayerItem::PrimaryAmmoIndex
PUBLIC	?SecondaryAmmoIndex@CBasePlayerItem@@UAEHXZ	; CBasePlayerItem::SecondaryAmmoIndex
PUBLIC	?UpdateClientData@CBasePlayerItem@@UAEHPAVCBasePlayer@@@Z ; CBasePlayerItem::UpdateClientData
PUBLIC	?GetWeaponPtr@CBasePlayerItem@@UAEPAV1@XZ	; CBasePlayerItem::GetWeaponPtr
PUBLIC	?iItemSlot@CBasePlayerItem@@UAEHXZ		; CBasePlayerItem::iItemSlot
PUBLIC	??0CBasePlayerItem@@QAE@XZ			; CBasePlayerItem::CBasePlayerItem
PUBLIC	?AddWeapon@CBasePlayerWeapon@@UAEHXZ		; CBasePlayerWeapon::AddWeapon
PUBLIC	?UpdateItemInfo@CBasePlayerWeapon@@UAEXXZ	; CBasePlayerWeapon::UpdateItemInfo
PUBLIC	?PrimaryAttack@CBasePlayerWeapon@@UAEXXZ	; CBasePlayerWeapon::PrimaryAttack
PUBLIC	?SecondaryAttack@CBasePlayerWeapon@@UAEXXZ	; CBasePlayerWeapon::SecondaryAttack
PUBLIC	?Reload@CBasePlayerWeapon@@UAEXXZ		; CBasePlayerWeapon::Reload
PUBLIC	?WeaponIdle@CBasePlayerWeapon@@UAEXXZ		; CBasePlayerWeapon::WeaponIdle
PUBLIC	?ShouldWeaponIdle@CBasePlayerWeapon@@UAEHXZ	; CBasePlayerWeapon::ShouldWeaponIdle
PUBLIC	?UseDecrement@CBasePlayerWeapon@@UAEHXZ		; CBasePlayerWeapon::UseDecrement
PUBLIC	?GetWeaponPtr@CBasePlayerWeapon@@UAEPAVCBasePlayerItem@@XZ ; CBasePlayerWeapon::GetWeaponPtr
PUBLIC	??0CBasePlayerWeapon@@QAE@XZ			; CBasePlayerWeapon::CBasePlayerWeapon
PUBLIC	?AddAmmo@CBasePlayerAmmo@@UAEHPAVCBaseEntity@@@Z ; CBasePlayerAmmo::AddAmmo
PUBLIC	??0CBasePlayerAmmo@@QAE@XZ			; CBasePlayerAmmo::CBasePlayerAmmo
PUBLIC	?Spawn@CRpg@@UAEXXZ				; CRpg::Spawn
PUBLIC	?Precache@CRpg@@UAEXXZ				; CRpg::Precache
PUBLIC	?Reload@CRpg@@UAEXXZ				; CRpg::Reload
PUBLIC	?iItemSlot@CRpg@@UAEHXZ				; CRpg::iItemSlot
PUBLIC	?GetItemInfo@CRpg@@UAEHPAUItemInfo@@@Z		; CRpg::GetItemInfo
PUBLIC	?AddToPlayer@CRpg@@UAEHPAVCBasePlayer@@@Z	; CRpg::AddToPlayer
PUBLIC	?GetBaseMap@CRpg@@SAPAUdatamap_s@@XZ		; CRpg::GetBaseMap
PUBLIC	?GetDataDescMap@CRpg@@UAEPAUdatamap_s@@XZ	; CRpg::GetDataDescMap
PUBLIC	?Deploy@CRpg@@UAEHXZ				; CRpg::Deploy
PUBLIC	?CanHolster@CRpg@@UAEHXZ			; CRpg::CanHolster
PUBLIC	?Holster@CRpg@@UAEXXZ				; CRpg::Holster
PUBLIC	?PrimaryAttack@CRpg@@UAEXXZ			; CRpg::PrimaryAttack
PUBLIC	?SecondaryAttack@CRpg@@UAEXXZ			; CRpg::SecondaryAttack
PUBLIC	?WeaponIdle@CRpg@@UAEXXZ			; CRpg::WeaponIdle
PUBLIC	?UpdateSpot@CRpg@@QAEXXZ			; CRpg::UpdateSpot
PUBLIC	?ShouldWeaponIdle@CRpg@@UAEHXZ			; CRpg::ShouldWeaponIdle
PUBLIC	??0CRpg@@QAE@XZ					; CRpg::CRpg
PUBLIC	??0?$CEntityFactory@VCRpg@@@@QAE@PBD@Z		; CEntityFactory<CRpg>::CEntityFactory<CRpg>
PUBLIC	?Create@?$CEntityFactory@VCRpg@@@@UAEPAVCBaseEntity@@PBDPAUentvars_s@@@Z ; CEntityFactory<CRpg>::Create
PUBLIC	?Destroy@?$CEntityFactory@VCRpg@@@@UAEXPAVCBaseEntity@@@Z ; CEntityFactory<CRpg>::Destroy
PUBLIC	?GetEntitySize@?$CEntityFactory@VCRpg@@@@UAEIXZ	; CEntityFactory<CRpg>::GetEntitySize
PUBLIC	??$DataMapAccess@VCBasePlayerWeapon@@@@YAXPAVCBasePlayerWeapon@@PAPAUdatamap_s@@@Z ; DataMapAccess<CBasePlayerWeapon>
PUBLIC	??$DataMapInit@VCRpg@@@@YAPAUdatamap_s@@PAVCRpg@@@Z ; DataMapInit<CRpg>
PUBLIC	?Spawn@CRpgRocket@@UAEXXZ			; CRpgRocket::Spawn
PUBLIC	?Precache@CRpgRocket@@UAEXXZ			; CRpgRocket::Precache
PUBLIC	?FollowThink@CRpgRocket@@QAEXXZ			; CRpgRocket::FollowThink
PUBLIC	?IgniteThink@CRpgRocket@@QAEXXZ			; CRpgRocket::IgniteThink
PUBLIC	?RocketTouch@CRpgRocket@@QAEXPAVCBaseEntity@@@Z	; CRpgRocket::RocketTouch
PUBLIC	?CreateRpgRocket@CRpgRocket@@SAPAV1@VVector@@0PAVCBaseEntity@@PAVCRpg@@@Z ; CRpgRocket::CreateRpgRocket
PUBLIC	?CreateTrail@CRpgRocket@@QAEXXZ			; CRpgRocket::CreateTrail
PUBLIC	?OnTeleport@CRpgRocket@@UAEXXZ			; CRpgRocket::OnTeleport
PUBLIC	?ClearEffects@CRpgRocket@@UAEXXZ		; CRpgRocket::ClearEffects
PUBLIC	?Classify@CRpgRocket@@UAEHXZ			; CRpgRocket::Classify
PUBLIC	?GetBaseMap@CRpgRocket@@SAPAUdatamap_s@@XZ	; CRpgRocket::GetBaseMap
PUBLIC	?GetDataDescMap@CRpgRocket@@UAEPAUdatamap_s@@XZ	; CRpgRocket::GetDataDescMap
PUBLIC	?TakeDamage@CRpgRocket@@UAEHPAUentvars_s@@0MH@Z	; CRpgRocket::TakeDamage
PUBLIC	?ShotDown@CRpgRocket@@QAEXXZ			; CRpgRocket::ShotDown
PUBLIC	?AugerThink@CRpgRocket@@QAEXXZ			; CRpgRocket::AugerThink
PUBLIC	??0CRpgRocket@@QAE@XZ				; CRpgRocket::CRpgRocket
PUBLIC	??0?$CEntityFactory@VCRpgRocket@@@@QAE@PBD@Z	; CEntityFactory<CRpgRocket>::CEntityFactory<CRpgRocket>
PUBLIC	?Create@?$CEntityFactory@VCRpgRocket@@@@UAEPAVCBaseEntity@@PBDPAUentvars_s@@@Z ; CEntityFactory<CRpgRocket>::Create
PUBLIC	?Destroy@?$CEntityFactory@VCRpgRocket@@@@UAEXPAVCBaseEntity@@@Z ; CEntityFactory<CRpgRocket>::Destroy
PUBLIC	?GetEntitySize@?$CEntityFactory@VCRpgRocket@@@@UAEIXZ ; CEntityFactory<CRpgRocket>::GetEntitySize
PUBLIC	??$DataMapAccess@VCGrenade@@@@YAXPAVCGrenade@@PAPAUdatamap_s@@@Z ; DataMapAccess<CGrenade>
PUBLIC	??$DataMapInit@VCRpgRocket@@@@YAPAUdatamap_s@@PAVCRpgRocket@@@Z ; DataMapInit<CRpgRocket>
PUBLIC	??$GetClassPtr@VCRpgRocket@@@@YAPAVCRpgRocket@@PAV0@@Z ; GetClassPtr<CRpgRocket>
PUBLIC	?Spawn@CRoboRocket2@@UAEXXZ			; CRoboRocket2::Spawn
PUBLIC	?Precache@CRoboRocket2@@UAEXXZ			; CRoboRocket2::Precache
PUBLIC	?FollowThink@CRoboRocket2@@QAEXXZ		; CRoboRocket2::FollowThink
PUBLIC	?IgniteThink@CRoboRocket2@@QAEXXZ		; CRoboRocket2::IgniteThink
PUBLIC	?RocketTouch@CRoboRocket2@@QAEXPAVCBaseEntity@@@Z ; CRoboRocket2::RocketTouch
PUBLIC	?RocketExplode@CRoboRocket2@@QAEXPAUgametrace_s@@H@Z ; CRoboRocket2::RocketExplode
PUBLIC	?CreateTrail@CRoboRocket2@@QAEXXZ		; CRoboRocket2::CreateTrail
PUBLIC	?OnTeleport@CRoboRocket2@@UAEXXZ		; CRoboRocket2::OnTeleport
PUBLIC	?GetBaseMap@CRoboRocket2@@SAPAUdatamap_s@@XZ	; CRoboRocket2::GetBaseMap
PUBLIC	?GetDataDescMap@CRoboRocket2@@UAEPAUdatamap_s@@XZ ; CRoboRocket2::GetDataDescMap
PUBLIC	??0CRoboRocket2@@QAE@XZ				; CRoboRocket2::CRoboRocket2
PUBLIC	??0?$CEntityFactory@VCRoboRocket2@@@@QAE@PBD@Z	; CEntityFactory<CRoboRocket2>::CEntityFactory<CRoboRocket2>
PUBLIC	?Create@?$CEntityFactory@VCRoboRocket2@@@@UAEPAVCBaseEntity@@PBDPAUentvars_s@@@Z ; CEntityFactory<CRoboRocket2>::Create
PUBLIC	?Destroy@?$CEntityFactory@VCRoboRocket2@@@@UAEXPAVCBaseEntity@@@Z ; CEntityFactory<CRoboRocket2>::Destroy
PUBLIC	?GetEntitySize@?$CEntityFactory@VCRoboRocket2@@@@UAEIXZ ; CEntityFactory<CRoboRocket2>::GetEntitySize
PUBLIC	??$DataMapInit@VCRoboRocket2@@@@YAPAUdatamap_s@@PAVCRoboRocket2@@@Z ; DataMapInit<CRoboRocket2>
PUBLIC	?Spawn@CRpgAmmo@@EAEXXZ				; CRpgAmmo::Spawn
PUBLIC	?Precache@CRpgAmmo@@EAEXXZ			; CRpgAmmo::Precache
PUBLIC	?AddAmmo@CRpgAmmo@@EAEHPAVCBaseEntity@@@Z	; CRpgAmmo::AddAmmo
PUBLIC	??0CRpgAmmo@@QAE@XZ				; CRpgAmmo::CRpgAmmo
PUBLIC	??0?$CEntityFactory@VCRpgAmmo@@@@QAE@PBD@Z	; CEntityFactory<CRpgAmmo>::CEntityFactory<CRpgAmmo>
PUBLIC	?Create@?$CEntityFactory@VCRpgAmmo@@@@UAEPAVCBaseEntity@@PBDPAUentvars_s@@@Z ; CEntityFactory<CRpgAmmo>::Create
PUBLIC	?Destroy@?$CEntityFactory@VCRpgAmmo@@@@UAEXPAVCBaseEntity@@@Z ; CEntityFactory<CRpgAmmo>::Destroy
PUBLIC	?GetEntitySize@?$CEntityFactory@VCRpgAmmo@@@@UAEIXZ ; CEntityFactory<CRpgAmmo>::GetEntitySize
PUBLIC	??$GetClassPtr@VCRpgAmmo@@@@YAPAVCRpgAmmo@@PAV0@PBD@Z ; GetClassPtr<CRpgAmmo>
PUBLIC	??$GetClassPtr@VCRoboRocket2@@@@YAPAVCRoboRocket2@@PAV0@PBD@Z ; GetClassPtr<CRoboRocket2>
PUBLIC	??$GetClassPtr@VCRpgRocket@@@@YAPAVCRpgRocket@@PAV0@PBD@Z ; GetClassPtr<CRpgRocket>
PUBLIC	??$GetClassPtr@VCRpg@@@@YAPAVCRpg@@PAV0@PBD@Z	; GetClassPtr<CRpg>
PUBLIC	??$CopyConstruct@PAD@@YAXPAPADABQAD@Z		; CopyConstruct<char *>
PUBLIC	??$Destruct@PAD@@YAXPAPAD@Z			; Destruct<char *>
PUBLIC	?_OptionsStorage@?1??__local_stdio_printf_options@@9@4_KA ; `__local_stdio_printf_options'::`2'::_OptionsStorage
PUBLIC	??_C@_00CNPNBAHC@?$AA@				; `string'
PUBLIC	??_C@_04EFCDBJNL@?$CFs?3?3?$AA@			; `string'
PUBLIC	??_7IEntityFactory@@6B@				; IEntityFactory::`vftable'
PUBLIC	??_C@_0BF@CPEPILID@Bad?5ent?5in?5OFFSET?$CI?$CJ?6?$AA@ ; `string'
PUBLIC	??_C@_0BF@DOONGEFO@Bad?5pev?5in?5OFFSET?$CI?$CJ?6?$AA@ ; `string'
PUBLIC	??_7CBaseEntity@@6B@				; CBaseEntity::`vftable'
PUBLIC	??_C@_06MLKDMCBD@parent?$AA@			; `string'
PUBLIC	??_C@_08JJJAOBDI@movewith?$AA@			; `string'
PUBLIC	??_C@_0M@EAELDHJO@parentflags?$AA@		; `string'
PUBLIC	??_C@_05IAKJCFIM@style?$AA@			; `string'
PUBLIC	??_C@_0L@IKCANML@reflection?$AA@		; `string'
PUBLIC	??_C@_0N@JILDNHAP@vlight_cache?$AA@		; `string'
PUBLIC	??_C@_0L@JIJDCONP@customname?$AA@		; `string'
PUBLIC	??_C@_0CH@HELFJPDL@FUNCTION?5NOT?5IN?5TABLE?$CB?3?5?$CFs?3?$CFs?5?$CI?$CF@ ; `string'
PUBLIC	??_7CBaseDelay@@6B@				; CBaseDelay::`vftable'
PUBLIC	??_7CBaseAnimating@@6B@				; CBaseAnimating::`vftable'
PUBLIC	??_7CBaseToggle@@6B@				; CBaseToggle::`vftable'
PUBLIC	??_7CBaseMonster@@6B@				; CBaseMonster::`vftable'
PUBLIC	??_C@_0BB@EMJBJDBM@sprites?1null?4spr?$AA@	; `string'
PUBLIC	??_7CGrenade@@6B@				; CGrenade::`vftable'
PUBLIC	??_7CBasePlayerItem@@6B@			; CBasePlayerItem::`vftable'
PUBLIC	??_7CBasePlayerWeapon@@6B@			; CBasePlayerWeapon::`vftable'
PUBLIC	??_7CBasePlayerAmmo@@6B@			; CBasePlayerAmmo::`vftable'
PUBLIC	??_7CRpg@@6B@					; CRpg::`vftable'
PUBLIC	??_7?$CEntityFactory@VCRpg@@@@6B@		; CEntityFactory<CRpg>::`vftable'
PUBLIC	??_C@_0L@NJNPDFDL@weapon_rpg?$AA@		; `string'
PUBLIC	?g_DataMapHolder@CRpg_DataDescInit@@3PAUdatamap_s@@A ; CRpg_DataDescInit::g_DataMapHolder
PUBLIC	??_7CRpgRocket@@6B@				; CRpgRocket::`vftable'
PUBLIC	??_7?$CEntityFactory@VCRpgRocket@@@@6B@		; CEntityFactory<CRpgRocket>::`vftable'
PUBLIC	??_C@_0L@MFNEJJJF@rpg_rocket?$AA@		; `string'
PUBLIC	?g_DataMapHolder@CRpgRocket_DataDescInit@@3PAUdatamap_s@@A ; CRpgRocket_DataDescInit::g_DataMapHolder
PUBLIC	??_C@_0M@HFODBJCA@FollowThink?$AA@		; `string'
PUBLIC	??_C@_0M@CCEGFCPM@IgniteThink?$AA@		; `string'
PUBLIC	??_C@_0M@MEKFALBF@RocketTouch?$AA@		; `string'
PUBLIC	??_C@_0O@PLAGMMCE@m_flAugerTime?$AA@		; `string'
PUBLIC	??_C@_0BB@GHOCPPMI@m_flMarkDeadTime?$AA@	; `string'
PUBLIC	??_C@_0L@PEBDNPPC@AugerThink?$AA@		; `string'
PUBLIC	??_C@_0BJ@IMHADGKA@?$CGCRpgRocket?3?3RocketTouch?$AA@ ; `string'
PUBLIC	??_C@_0BF@JALHEJDN@models?1rpgrocket?4mdl?$AA@	; `string'
PUBLIC	??_C@_0BC@DDAJIPKB@sprites?1smoke?4spr?$AA@	; `string'
PUBLIC	??_C@_0BE@OFLJKELP@weapons?1rocket1?4wav?$AA@	; `string'
PUBLIC	??_C@_0BJ@NMPKGCCP@weapons?1rpg_shotdown?4wav?$AA@ ; `string'
PUBLIC	??_C@_0BJ@GKJDGPEJ@?$CGCRpgRocket?3?3IgniteThink?$AA@ ; `string'
PUBLIC	??_C@_0BI@OOPPOBKK@?$CGCGrenade?3?3ExplodeTouch?$AA@ ; `string'
PUBLIC	??_C@_0P@DFJONIEE@monster_apache?$AA@		; `string'
PUBLIC	??_C@_0BI@JDBICBFF@?$CGCRpgRocket?3?3AugerThink?$AA@ ; `string'
PUBLIC	??_C@_0BJ@DNDGCEJF@?$CGCRpgRocket?3?3FollowThink?$AA@ ; `string'
PUBLIC	??_C@_0L@PKAMAFCB@laser_spot?$AA@		; `string'
PUBLIC	??_7CRoboRocket2@@6B@				; CRoboRocket2::`vftable'
PUBLIC	??_7?$CEntityFactory@VCRoboRocket2@@@@6B@	; CEntityFactory<CRoboRocket2>::`vftable'
PUBLIC	??_C@_0N@LECDHPON@robo_rocket2?$AA@		; `string'
PUBLIC	?g_DataMapHolder@CRoboRocket2_DataDescInit@@3PAUdatamap_s@@A ; CRoboRocket2_DataDescInit::g_DataMapHolder
PUBLIC	??_C@_0O@KKBBKKAJ@RocketExplode?$AA@		; `string'
PUBLIC	??_C@_0BL@DPADIFNC@?$CGCRoboRocket2?3?3IgniteThink?$AA@ ; `string'
PUBLIC	??_C@_0BL@NJOANMDL@?$CGCRoboRocket2?3?3RocketTouch?$AA@ ; `string'
PUBLIC	??_C@_0BE@JJJKAAPC@weapons?1debris1?4wav?$AA@	; `string'
PUBLIC	??_C@_0BE@BPAOHCFM@weapons?1debris2?4wav?$AA@	; `string'
PUBLIC	??_C@_0BE@NEFCKBPJ@weapons?1debris3?4wav?$AA@	; `string'
PUBLIC	??_C@_0BB@KDDMBFAP@?$CGCGrenade?3?3Smoke?$AA@	; `string'
PUBLIC	??_C@_0N@GFJBOHAK@spark_shower?$AA@		; `string'
PUBLIC	??_C@_0BL@GIKGMOAO@?$CGCRoboRocket2?3?3FollowThink?$AA@ ; `string'
PUBLIC	??_C@_0BB@GNJMAKBJ@models?1w_rpg?4mdl?$AA@	; `string'
PUBLIC	??_C@_0BB@ICFOGBCH@models?1v_rpg?4mdl?$AA@	; `string'
PUBLIC	??_C@_0BB@IPEABBGA@models?1p_rpg?4mdl?$AA@	; `string'
PUBLIC	??_C@_0BD@BADMCPNB@items?19mmclip1?4wav?$AA@	; `string'
PUBLIC	??_C@_0BI@IJKHDNAN@weapons?1rocketfire1?4wav?$AA@ ; `string'
PUBLIC	??_C@_0BG@MDAACEKK@weapons?1glauncher?4wav?$AA@	; `string'
PUBLIC	??_C@_07DCMGFMFH@rockets?$AA@			; `string'
PUBLIC	??_C@_03GBMANNME@rpg?$AA@			; `string'
PUBLIC	??_C@_08MNDBFPDE@?9attack?6?$AA@		; `string'
PUBLIC	??_7CRpgAmmo@@6B@				; CRpgAmmo::`vftable'
PUBLIC	??_C@_0BF@ONHNEHHH@models?1w_rpgammo?4mdl?$AA@	; `string'
PUBLIC	??_7?$CEntityFactory@VCRpgAmmo@@@@6B@		; CEntityFactory<CRpgAmmo>::`vftable'
PUBLIC	??_C@_0N@FDODGIHO@ammo_rpgclip?$AA@		; `string'
PUBLIC	??_C@_1JC@EMNIBBBG@?$AAd?$AA?3?$AA?2?$AA?$CB?$AAd?$AAi?$AAf?$AAf?$AAu?$AAs?$AAi?$AAo?$AAn?$AA?5?$AA2?$AA0?$AA2?$AA0?$AA?2?$AAs?$AAo?$AAu?$AAr?$AAc?$AAe?$AA?5?$AAc?$AAo?$AAd?$AAe?$AA?5?$AA2@ ; `string'
PUBLIC	??_C@_1IK@DGJDJNN@?$AA?$CI?$AAB?$AAa?$AAs?$AAe?$AA?$CI?$AA?$CJ?$AA?5?$AA?$DN?$AA?$DN?$AA?5?$AAN?$AAU?$AAL?$AAL?$AA?$CJ?$AA?5?$AA?$HM?$AA?$HM?$AA?5?$AA?$CI?$AA?$CG?$AAs?$AAr?$AAc?$AA?5?$AA?$DM?$AA?5?$AAB?$AAa?$AAs?$AAe@ ; `string'
PUBLIC	??_C@_1JE@CIIIAKCN@?$AAd?$AA?3?$AA?2?$AA?$CB?$AAd?$AAi?$AAf?$AAf?$AAu?$AAs?$AAi?$AAo?$AAn?$AA?5?$AA2?$AA0?$AA2?$AA0?$AA?2?$AAs?$AAo?$AAu?$AAr?$AAc?$AAe?$AA?5?$AAc?$AAo?$AAd?$AAe?$AA?5?$AA2@ ; `string'
PUBLIC	??_C@_1BO@FOOHAONO@?$AAn?$AAG?$AAr?$AAo?$AAw?$AAS?$AAi?$AAz?$AAe?$AA?5?$AA?$DO?$AA?$DN?$AA?5?$AA0?$AA?$AA@ ; `string'
PUBLIC	??_C@_1BM@PFNFCCHH@?$AA?$CB?$AAI?$AAs?$AAR?$AAe?$AAa?$AAd?$AAO?$AAn?$AAl?$AAy?$AA?$CI?$AA?$CJ?$AA?$AA@ ; `string'
PUBLIC	??_C@_1BM@CKILBAKK@?$AAI?$AAs?$AAI?$AAd?$AAx?$AAV?$AAa?$AAl?$AAi?$AAd?$AA?$CI?$AAi?$AA?$CJ?$AA?$AA@ ; `string'
PUBLIC	??_C@_1FA@BPFBJKPF@?$AA?$CI?$AAe?$AAl?$AAe?$AAm?$AA?5?$AA?$DN?$AA?$DN?$AA?5?$AAC?$AAo?$AAu?$AAn?$AAt?$AA?$CI?$AA?$CJ?$AA?$CJ?$AA?5?$AA?$HM?$AA?$HM?$AA?5?$AAI?$AAs?$AAV?$AAa?$AAl?$AAi?$AAd?$AAI?$AAn?$AAd?$AAe@ ; `string'
PUBLIC	??_C@_1GM@CDMJDFPA@?$AAI?$AAs?$AAV?$AAa?$AAl?$AAi?$AAd?$AAI?$AAn?$AAd?$AAe?$AAx?$AA?$CI?$AAe?$AAl?$AAe?$AAm?$AA?$CJ?$AA?5?$AA?$HM?$AA?$HM?$AA?5?$AA?$CI?$AA?5?$AAm?$AA_?$AAS?$AAi?$AAz?$AAe?$AA?5?$AA?$DN@ ; `string'
PUBLIC	??_C@_1BA@PKCLMAEA@?$AAn?$AAu?$AAm?$AA?5?$AA?$DO?$AA?5?$AA0?$AA?$AA@ ; `string'
PUBLIC	??_C@_13COJANIEC@?$AA0?$AA?$AA@			; `string'
PUBLIC	??_C@_1BE@OPPFELHC@?$AAm?$AA_?$AAp?$AAM?$AAe?$AAm?$AAo?$AAr?$AAy?$AA?$AA@ ; `string'
PUBLIC	??_R4CBaseEntity@@6B@				; CBaseEntity::`RTTI Complete Object Locator'
PUBLIC	??_R0?AVCBaseEntity@@@8				; CBaseEntity `RTTI Type Descriptor'
PUBLIC	??_R3CBaseEntity@@8				; CBaseEntity::`RTTI Class Hierarchy Descriptor'
PUBLIC	??_R2CBaseEntity@@8				; CBaseEntity::`RTTI Base Class Array'
PUBLIC	??_R1A@?0A@EA@CBaseEntity@@8			; CBaseEntity::`RTTI Base Class Descriptor at (0,-1,0,64)'
PUBLIC	??_R4IEntityFactory@@6B@			; IEntityFactory::`RTTI Complete Object Locator'
PUBLIC	??_R0?AVIEntityFactory@@@8			; IEntityFactory `RTTI Type Descriptor'
PUBLIC	??_R3IEntityFactory@@8				; IEntityFactory::`RTTI Class Hierarchy Descriptor'
PUBLIC	??_R2IEntityFactory@@8				; IEntityFactory::`RTTI Base Class Array'
PUBLIC	??_R1A@?0A@EA@IEntityFactory@@8			; IEntityFactory::`RTTI Base Class Descriptor at (0,-1,0,64)'
PUBLIC	??_R4CBasePlayerItem@@6B@			; CBasePlayerItem::`RTTI Complete Object Locator'
PUBLIC	??_R0?AVCBasePlayerItem@@@8			; CBasePlayerItem `RTTI Type Descriptor'
PUBLIC	??_R3CBasePlayerItem@@8				; CBasePlayerItem::`RTTI Class Hierarchy Descriptor'
PUBLIC	??_R2CBasePlayerItem@@8				; CBasePlayerItem::`RTTI Base Class Array'
PUBLIC	??_R1A@?0A@EA@CBasePlayerItem@@8		; CBasePlayerItem::`RTTI Base Class Descriptor at (0,-1,0,64)'
PUBLIC	??_R1A@?0A@EA@CBaseAnimating@@8			; CBaseAnimating::`RTTI Base Class Descriptor at (0,-1,0,64)'
PUBLIC	??_R0?AVCBaseAnimating@@@8			; CBaseAnimating `RTTI Type Descriptor'
PUBLIC	??_R3CBaseAnimating@@8				; CBaseAnimating::`RTTI Class Hierarchy Descriptor'
PUBLIC	??_R2CBaseAnimating@@8				; CBaseAnimating::`RTTI Base Class Array'
PUBLIC	??_R1A@?0A@EA@CBaseDelay@@8			; CBaseDelay::`RTTI Base Class Descriptor at (0,-1,0,64)'
PUBLIC	??_R0?AVCBaseDelay@@@8				; CBaseDelay `RTTI Type Descriptor'
PUBLIC	??_R3CBaseDelay@@8				; CBaseDelay::`RTTI Class Hierarchy Descriptor'
PUBLIC	??_R2CBaseDelay@@8				; CBaseDelay::`RTTI Base Class Array'
PUBLIC	??_R4CBaseMonster@@6B@				; CBaseMonster::`RTTI Complete Object Locator'
PUBLIC	??_R0?AVCBaseMonster@@@8			; CBaseMonster `RTTI Type Descriptor'
PUBLIC	??_R3CBaseMonster@@8				; CBaseMonster::`RTTI Class Hierarchy Descriptor'
PUBLIC	??_R2CBaseMonster@@8				; CBaseMonster::`RTTI Base Class Array'
PUBLIC	??_R1A@?0A@EA@CBaseMonster@@8			; CBaseMonster::`RTTI Base Class Descriptor at (0,-1,0,64)'
PUBLIC	??_R1A@?0A@EA@CBaseToggle@@8			; CBaseToggle::`RTTI Base Class Descriptor at (0,-1,0,64)'
PUBLIC	??_R0?AVCBaseToggle@@@8				; CBaseToggle `RTTI Type Descriptor'
PUBLIC	??_R3CBaseToggle@@8				; CBaseToggle::`RTTI Class Hierarchy Descriptor'
PUBLIC	??_R2CBaseToggle@@8				; CBaseToggle::`RTTI Base Class Array'
PUBLIC	??_R4CBaseDelay@@6B@				; CBaseDelay::`RTTI Complete Object Locator'
PUBLIC	??_R4CBaseAnimating@@6B@			; CBaseAnimating::`RTTI Complete Object Locator'
PUBLIC	??_R4CBaseToggle@@6B@				; CBaseToggle::`RTTI Complete Object Locator'
PUBLIC	??_R4CGrenade@@6B@				; CGrenade::`RTTI Complete Object Locator'
PUBLIC	??_R0?AVCGrenade@@@8				; CGrenade `RTTI Type Descriptor'
PUBLIC	??_R3CGrenade@@8				; CGrenade::`RTTI Class Hierarchy Descriptor'
PUBLIC	??_R2CGrenade@@8				; CGrenade::`RTTI Base Class Array'
PUBLIC	??_R1A@?0A@EA@CGrenade@@8			; CGrenade::`RTTI Base Class Descriptor at (0,-1,0,64)'
PUBLIC	??_R4CBasePlayerWeapon@@6B@			; CBasePlayerWeapon::`RTTI Complete Object Locator'
PUBLIC	??_R0?AVCBasePlayerWeapon@@@8			; CBasePlayerWeapon `RTTI Type Descriptor'
PUBLIC	??_R3CBasePlayerWeapon@@8			; CBasePlayerWeapon::`RTTI Class Hierarchy Descriptor'
PUBLIC	??_R2CBasePlayerWeapon@@8			; CBasePlayerWeapon::`RTTI Base Class Array'
PUBLIC	??_R1A@?0A@EA@CBasePlayerWeapon@@8		; CBasePlayerWeapon::`RTTI Base Class Descriptor at (0,-1,0,64)'
PUBLIC	??_R4CBasePlayerAmmo@@6B@			; CBasePlayerAmmo::`RTTI Complete Object Locator'
PUBLIC	??_R0?AVCBasePlayerAmmo@@@8			; CBasePlayerAmmo `RTTI Type Descriptor'
PUBLIC	??_R3CBasePlayerAmmo@@8				; CBasePlayerAmmo::`RTTI Class Hierarchy Descriptor'
PUBLIC	??_R2CBasePlayerAmmo@@8				; CBasePlayerAmmo::`RTTI Base Class Array'
PUBLIC	??_R1A@?0A@EA@CBasePlayerAmmo@@8		; CBasePlayerAmmo::`RTTI Base Class Descriptor at (0,-1,0,64)'
PUBLIC	??_R4CRpg@@6B@					; CRpg::`RTTI Complete Object Locator'
PUBLIC	??_R0?AVCRpg@@@8				; CRpg `RTTI Type Descriptor'
PUBLIC	??_R3CRpg@@8					; CRpg::`RTTI Class Hierarchy Descriptor'
PUBLIC	??_R2CRpg@@8					; CRpg::`RTTI Base Class Array'
PUBLIC	??_R1A@?0A@EA@CRpg@@8				; CRpg::`RTTI Base Class Descriptor at (0,-1,0,64)'
PUBLIC	??_R4?$CEntityFactory@VCRpg@@@@6B@		; CEntityFactory<CRpg>::`RTTI Complete Object Locator'
PUBLIC	??_R0?AV?$CEntityFactory@VCRpg@@@@@8		; CEntityFactory<CRpg> `RTTI Type Descriptor'
PUBLIC	??_R3?$CEntityFactory@VCRpg@@@@8		; CEntityFactory<CRpg>::`RTTI Class Hierarchy Descriptor'
PUBLIC	??_R2?$CEntityFactory@VCRpg@@@@8		; CEntityFactory<CRpg>::`RTTI Base Class Array'
PUBLIC	??_R1A@?0A@EA@?$CEntityFactory@VCRpg@@@@8	; CEntityFactory<CRpg>::`RTTI Base Class Descriptor at (0,-1,0,64)'
PUBLIC	??_R4CRpgRocket@@6B@				; CRpgRocket::`RTTI Complete Object Locator'
PUBLIC	??_R0?AVCRpgRocket@@@8				; CRpgRocket `RTTI Type Descriptor'
PUBLIC	??_R3CRpgRocket@@8				; CRpgRocket::`RTTI Class Hierarchy Descriptor'
PUBLIC	??_R2CRpgRocket@@8				; CRpgRocket::`RTTI Base Class Array'
PUBLIC	??_R1A@?0A@EA@CRpgRocket@@8			; CRpgRocket::`RTTI Base Class Descriptor at (0,-1,0,64)'
PUBLIC	??_R4?$CEntityFactory@VCRpgRocket@@@@6B@	; CEntityFactory<CRpgRocket>::`RTTI Complete Object Locator'
PUBLIC	??_R0?AV?$CEntityFactory@VCRpgRocket@@@@@8	; CEntityFactory<CRpgRocket> `RTTI Type Descriptor'
PUBLIC	??_R3?$CEntityFactory@VCRpgRocket@@@@8		; CEntityFactory<CRpgRocket>::`RTTI Class Hierarchy Descriptor'
PUBLIC	??_R2?$CEntityFactory@VCRpgRocket@@@@8		; CEntityFactory<CRpgRocket>::`RTTI Base Class Array'
PUBLIC	??_R1A@?0A@EA@?$CEntityFactory@VCRpgRocket@@@@8	; CEntityFactory<CRpgRocket>::`RTTI Base Class Descriptor at (0,-1,0,64)'
PUBLIC	??_R4CRoboRocket2@@6B@				; CRoboRocket2::`RTTI Complete Object Locator'
PUBLIC	??_R0?AVCRoboRocket2@@@8			; CRoboRocket2 `RTTI Type Descriptor'
PUBLIC	??_R3CRoboRocket2@@8				; CRoboRocket2::`RTTI Class Hierarchy Descriptor'
PUBLIC	??_R2CRoboRocket2@@8				; CRoboRocket2::`RTTI Base Class Array'
PUBLIC	??_R1A@?0A@EA@CRoboRocket2@@8			; CRoboRocket2::`RTTI Base Class Descriptor at (0,-1,0,64)'
PUBLIC	??_R4?$CEntityFactory@VCRoboRocket2@@@@6B@	; CEntityFactory<CRoboRocket2>::`RTTI Complete Object Locator'
PUBLIC	??_R0?AV?$CEntityFactory@VCRoboRocket2@@@@@8	; CEntityFactory<CRoboRocket2> `RTTI Type Descriptor'
PUBLIC	??_R3?$CEntityFactory@VCRoboRocket2@@@@8	; CEntityFactory<CRoboRocket2>::`RTTI Class Hierarchy Descriptor'
PUBLIC	??_R2?$CEntityFactory@VCRoboRocket2@@@@8	; CEntityFactory<CRoboRocket2>::`RTTI Base Class Array'
PUBLIC	??_R1A@?0A@EA@?$CEntityFactory@VCRoboRocket2@@@@8 ; CEntityFactory<CRoboRocket2>::`RTTI Base Class Descriptor at (0,-1,0,64)'
PUBLIC	??_R4CRpgAmmo@@6B@				; CRpgAmmo::`RTTI Complete Object Locator'
PUBLIC	??_R0?AVCRpgAmmo@@@8				; CRpgAmmo `RTTI Type Descriptor'
PUBLIC	??_R3CRpgAmmo@@8				; CRpgAmmo::`RTTI Class Hierarchy Descriptor'
PUBLIC	??_R2CRpgAmmo@@8				; CRpgAmmo::`RTTI Base Class Array'
PUBLIC	??_R1A@?0A@EA@CRpgAmmo@@8			; CRpgAmmo::`RTTI Base Class Descriptor at (0,-1,0,64)'
PUBLIC	??_R4?$CEntityFactory@VCRpgAmmo@@@@6B@		; CEntityFactory<CRpgAmmo>::`RTTI Complete Object Locator'
PUBLIC	??_R0?AV?$CEntityFactory@VCRpgAmmo@@@@@8	; CEntityFactory<CRpgAmmo> `RTTI Type Descriptor'
PUBLIC	??_R3?$CEntityFactory@VCRpgAmmo@@@@8		; CEntityFactory<CRpgAmmo>::`RTTI Class Hierarchy Descriptor'
PUBLIC	??_R2?$CEntityFactory@VCRpgAmmo@@@@8		; CEntityFactory<CRpgAmmo>::`RTTI Base Class Array'
PUBLIC	??_R1A@?0A@EA@?$CEntityFactory@VCRpgAmmo@@@@8	; CEntityFactory<CRpgAmmo>::`RTTI Base Class Descriptor at (0,-1,0,64)'
PUBLIC	__real@00000000
PUBLIC	__real@3d4ccccd
PUBLIC	__real@3dcccccd
PUBLIC	__real@3e4ccccd
PUBLIC	__real@3e800000
PUBLIC	__real@3ecccccd
PUBLIC	__real@3f000000
PUBLIC	__real@3f0ccccd
PUBLIC	__real@3f19999a
PUBLIC	__real@3f400000
PUBLIC	__real@3f4c49ba
PUBLIC	__real@3f4ccccd
PUBLIC	__real@3f800000
PUBLIC	__real@3fc00000
PUBLIC	__real@3fc999999999999a
PUBLIC	__real@3fd3333333333333
PUBLIC	__real@3fe0000000000000
PUBLIC	__real@3fe3333333333333
PUBLIC	__real@3fe8000000000000
PUBLIC	__real@3fe999999999999a
PUBLIC	__real@3feccccccccccccd
PUBLIC	__real@3ff0000000000000
PUBLIC	__real@3ff8000000000000
PUBLIC	__real@40000000
PUBLIC	__real@4000cccccccccccd
PUBLIC	__real@40066666
PUBLIC	__real@4008000000000000
PUBLIC	__real@4014000000000000
PUBLIC	__real@4018000000000000
PUBLIC	__real@40400000
PUBLIC	__real@4079000000000000
PUBLIC	__real@40800000
PUBLIC	__real@40a00000
PUBLIC	__real@41000000
PUBLIC	__real@41200000
PUBLIC	__real@41700000
PUBLIC	__real@41800000
PUBLIC	__real@41a00000
PUBLIC	__real@41c00000
PUBLIC	__real@41c80000
PUBLIC	__real@41f00000
PUBLIC	__real@42000000
PUBLIC	__real@42200000
PUBLIC	__real@42480000
PUBLIC	__real@42800000
PUBLIC	__real@43070000
PUBLIC	__real@437a0000
PUBLIC	__real@43960000
PUBLIC	__real@44440000
PUBLIC	__real@447a0000
PUBLIC	__real@44bb8000
PUBLIC	__real@44fa0000
PUBLIC	__real@45800000
PUBLIC	__real@46000000
PUBLIC	__real@bf800000
PUBLIC	__real@c1000000
PUBLIC	__real@c1a00000
PUBLIC	__xmm@80000000800000008000000080000000
EXTRN	__purecall:PROC
EXTRN	??3@YAXPAXI@Z:PROC				; operator delete
EXTRN	??_U@YAPAXI@Z:PROC				; operator new[]
EXTRN	_atexit:PROC
EXTRN	__Init_thread_header:PROC
EXTRN	__Init_thread_abort:PROC
EXTRN	__Init_thread_footer:PROC
EXTRN	_memmove:PROC
EXTRN	_memset:PROC
EXTRN	_strcat:PROC
EXTRN	_strlen:PROC
EXTRN	___stdio_common_vsprintf:PROC
EXTRN	_free:PROC
EXTRN	_malloc:PROC
EXTRN	_realloc:PROC
EXTRN	_atoi:PROC
EXTRN	_sqrt:PROC
EXTRN	??0matrix4x4@@QAE@XZ:PROC			; matrix4x4::matrix4x4
EXTRN	?Q_atoi@@YAHPBD@Z:PROC				; Q_atoi
EXTRN	?Q_strncmp@@YAHPBD0H@Z:PROC			; Q_strncmp
EXTRN	__wassert:PROC
EXTRN	?UTIL_Remove@@YAXPAVCBaseEntity@@@Z:PROC	; UTIL_Remove
EXTRN	?EntityFactoryDictionary@@YAPAVIEntityFactoryDictionary@@XZ:PROC ; EntityFactoryDictionary
EXTRN	?DBG_EntOfVars@@YAPAUedict_s@@PBUentvars_s@@@Z:PROC ; DBG_EntOfVars
EXTRN	?ENT@@YAPAUedict_s@@PAVCBaseEntity@@@Z:PROC	; ENT
EXTRN	?UTIL_SetSize@@YAXPAUentvars_s@@ABVVector@@1@Z:PROC ; UTIL_SetSize
EXTRN	?UTIL_VecToAngles@@YA?AVVector@@ABV1@@Z:PROC	; UTIL_VecToAngles
EXTRN	?UTIL_FindEntityByClassname@@YAPAVCBaseEntity@@PAV1@PBD@Z:PROC ; UTIL_FindEntityByClassname
EXTRN	?UTIL_MakeVectors@@YAXABVVector@@@Z:PROC	; UTIL_MakeVectors
EXTRN	?UTIL_SetOrigin@@YAXPAVCBaseEntity@@ABVVector@@@Z:PROC ; UTIL_SetOrigin
EXTRN	?UTIL_TraceLine@@YAXABVVector@@0W4IGNORE_MONSTERS@@PAUedict_s@@PAUgametrace_s@@@Z:PROC ; UTIL_TraceLine
EXTRN	?UTIL_PointContents@@YAHABVVector@@@Z:PROC	; UTIL_PointContents
EXTRN	?UTIL_DecalTrace@@YAXPAUgametrace_s@@H@Z:PROC	; UTIL_DecalTrace
EXTRN	?UTIL_StudioDecalTrace@@YAXPAUgametrace_s@@HH@Z:PROC ; UTIL_StudioDecalTrace
EXTRN	?UTIL_BubbleTrail@@YAXVVector@@0H@Z:PROC	; UTIL_BubbleTrail
EXTRN	?UTIL_PrecacheOther@@YAXPBD@Z:PROC		; UTIL_PrecacheOther
EXTRN	?EMIT_SOUND_DYN@@YAXPAUedict_s@@HPBDMMHH@Z:PROC	; EMIT_SOUND_DYN
EXTRN	?UTIL_GetModelType@@YA?AW4modtype_t@@H@Z:PROC	; UTIL_GetModelType
EXTRN	?UTIL_SetSize@@YAXPAVCBaseEntity@@ABVVector@@1@Z:PROC ; UTIL_SetSize
EXTRN	?UTIL_FunctionToName@@YAPBDPAUdatamap_s@@PAX@Z:PROC ; UTIL_FunctionToName
EXTRN	??0CMeshDesc@@QAE@XZ:PROC			; CMeshDesc::CMeshDesc
EXTRN	??1CMeshDesc@@QAE@XZ:PROC			; CMeshDesc::~CMeshDesc
EXTRN	?GetDataDescMap@CBaseEntity@@UAEPAUdatamap_s@@XZ:PROC ; CBaseEntity::GetDataDescMap
EXTRN	?SetAbsOrigin@CBaseEntity@@QAEXABVVector@@@Z:PROC ; CBaseEntity::SetAbsOrigin
EXTRN	?GetAbsOrigin@CBaseEntity@@QBEABVVector@@XZ:PROC ; CBaseEntity::GetAbsOrigin
EXTRN	?SetLocalAngles@CBaseEntity@@QAEXABVVector@@@Z:PROC ; CBaseEntity::SetLocalAngles
EXTRN	?GetLocalAngles@CBaseEntity@@QBEABVVector@@XZ:PROC ; CBaseEntity::GetLocalAngles
EXTRN	?SetLocalVelocity@CBaseEntity@@QAEXABVVector@@@Z:PROC ; CBaseEntity::SetLocalVelocity
EXTRN	?GetLocalVelocity@CBaseEntity@@QBEABVVector@@XZ:PROC ; CBaseEntity::GetLocalVelocity
EXTRN	?SetAbsVelocity@CBaseEntity@@QAEXABVVector@@@Z:PROC ; CBaseEntity::SetAbsVelocity
EXTRN	?GetAbsVelocity@CBaseEntity@@QBEABVVector@@XZ:PROC ; CBaseEntity::GetAbsVelocity
EXTRN	?Save@CBaseEntity@@UAEHAAVCSave@@@Z:PROC	; CBaseEntity::Save
EXTRN	?Restore@CBaseEntity@@UAEHAAVCRestore@@@Z:PROC	; CBaseEntity::Restore
EXTRN	?SetObjectCollisionBox@CBaseEntity@@UAEXXZ:PROC	; CBaseEntity::SetObjectCollisionBox
EXTRN	?SetNextThink@CBaseEntity@@UAEXM@Z:PROC		; CBaseEntity::SetNextThink
EXTRN	?TraceAttack@CBaseEntity@@UAEXPAUentvars_s@@MVVector@@PAUgametrace_s@@H@Z:PROC ; CBaseEntity::TraceAttack
EXTRN	?TakeDamage@CBaseEntity@@UAEHPAUentvars_s@@0MH@Z:PROC ; CBaseEntity::TakeDamage
EXTRN	?TakeHealth@CBaseEntity@@UAEHMH@Z:PROC		; CBaseEntity::TakeHealth
EXTRN	?TakeArmor@CBaseEntity@@UAEHMH@Z:PROC		; CBaseEntity::TakeArmor
EXTRN	?Killed@CBaseEntity@@UAEXPAUentvars_s@@H@Z:PROC	; CBaseEntity::Killed
EXTRN	?TraceBleed@CBaseEntity@@UAEXMVVector@@PAUgametrace_s@@H@Z:PROC ; CBaseEntity::TraceBleed
EXTRN	?DamageDecal@CBaseEntity@@UAEHH@Z:PROC		; CBaseEntity::DamageDecal
EXTRN	?IsInWorld@CBaseEntity@@UAEHH@Z:PROC		; CBaseEntity::IsInWorld
EXTRN	?GetNextTarget@CBaseEntity@@UAEPAV1@XZ:PROC	; CBaseEntity::GetNextTarget
EXTRN	?RelinkEntity@CBaseEntity@@QAEXHPBVVector@@H@Z:PROC ; CBaseEntity::RelinkEntity
EXTRN	?Create@CBaseEntity@@SAPAV1@PADABVVector@@1PAUedict_s@@@Z:PROC ; CBaseEntity::Create
EXTRN	?FVisible@CBaseEntity@@UAEHPAV1@@Z:PROC		; CBaseEntity::FVisible
EXTRN	?FVisible@CBaseEntity@@UAEHABVVector@@@Z:PROC	; CBaseEntity::FVisible
EXTRN	?ShouldCollide@CBaseEntity@@UAEHPAV1@@Z:PROC	; CBaseEntity::ShouldCollide
EXTRN	?ClearEffects@CBaseEntity@@UAEXXZ:PROC		; CBaseEntity::ClearEffects
EXTRN	?KeyValue@CBaseDelay@@UAEXPAUKeyValueData_s@@@Z:PROC ; CBaseDelay::KeyValue
EXTRN	?GetDataDescMap@CBaseDelay@@UAEPAUdatamap_s@@XZ:PROC ; CBaseDelay::GetDataDescMap
EXTRN	?GetDataDescMap@CBaseAnimating@@UAEPAUdatamap_s@@XZ:PROC ; CBaseAnimating::GetDataDescMap
EXTRN	?KeyValue@CBaseToggle@@UAEXPAUKeyValueData_s@@@Z:PROC ; CBaseToggle::KeyValue
EXTRN	?Restore@CBaseToggle@@UAEHAAVCRestore@@@Z:PROC	; CBaseToggle::Restore
EXTRN	?GetDataDescMap@CBaseToggle@@UAEPAUdatamap_s@@XZ:PROC ; CBaseToggle::GetDataDescMap
EXTRN	?GetState@CBaseToggle@@UAE?AW4STATE@@XZ:PROC	; CBaseToggle::GetState
EXTRN	?MoveDone@CBaseToggle@@UAEXXZ:PROC		; CBaseToggle::MoveDone
EXTRN	?GetDataDescMap@CBaseMonster@@UAEPAUdatamap_s@@XZ:PROC ; CBaseMonster::GetDataDescMap
EXTRN	?KeyValue@CBaseMonster@@UAEXPAUKeyValueData_s@@@Z:PROC ; CBaseMonster::KeyValue
EXTRN	?Restore@CBaseMonster@@UAEHAAVCRestore@@@Z:PROC	; CBaseMonster::Restore
EXTRN	?Look@CBaseMonster@@UAEXH@Z:PROC		; CBaseMonster::Look
EXTRN	?RunAI@CBaseMonster@@UAEXXZ:PROC		; CBaseMonster::RunAI
EXTRN	?ShouldFadeOnDeath@CBaseMonster@@UAEHXZ:PROC	; CBaseMonster::ShouldFadeOnDeath
EXTRN	?ChangeYaw@CBaseMonster@@UAEMH@Z:PROC		; CBaseMonster::ChangeYaw
EXTRN	?MonsterThink@CBaseMonster@@UAEXXZ:PROC		; CBaseMonster::MonsterThink
EXTRN	?IRelationship@CBaseMonster@@UAEHPAVCBaseEntity@@@Z:PROC ; CBaseMonster::IRelationship
EXTRN	?MonsterInit@CBaseMonster@@UAEXXZ:PROC		; CBaseMonster::MonsterInit
EXTRN	?MonsterInitDead@CBaseMonster@@UAEXXZ:PROC	; CBaseMonster::MonsterInitDead
EXTRN	?BecomeDead@CBaseMonster@@UAEXXZ:PROC		; CBaseMonster::BecomeDead
EXTRN	?StartMonster@CBaseMonster@@UAEXXZ:PROC		; CBaseMonster::StartMonster
EXTRN	?BestVisibleEnemy@CBaseMonster@@UAEPAVCBaseEntity@@XZ:PROC ; CBaseMonster::BestVisibleEnemy
EXTRN	?FInViewCone@CBaseMonster@@UAEHPAVCBaseEntity@@M@Z:PROC ; CBaseMonster::FInViewCone
EXTRN	?FInViewCone@CBaseMonster@@UAEHPAVVector@@@Z:PROC ; CBaseMonster::FInViewCone
EXTRN	?HandleAnimEvent@CBaseMonster@@UAEXPAUMonsterEvent_t@@@Z:PROC ; CBaseMonster::HandleAnimEvent
EXTRN	?CheckLocalMove@CBaseMonster@@UAEHABVVector@@0PAVCBaseEntity@@PAM@Z:PROC ; CBaseMonster::CheckLocalMove
EXTRN	?Move@CBaseMonster@@UAEXM@Z:PROC		; CBaseMonster::Move
EXTRN	?MoveExecute@CBaseMonster@@UAEXPAVCBaseEntity@@ABVVector@@M@Z:PROC ; CBaseMonster::MoveExecute
EXTRN	?ShouldAdvanceRoute@CBaseMonster@@UAEHM@Z:PROC	; CBaseMonster::ShouldAdvanceRoute
EXTRN	?CheckRangeAttack1@CBaseMonster@@UAEHMM@Z:PROC	; CBaseMonster::CheckRangeAttack1
EXTRN	?CheckRangeAttack2@CBaseMonster@@UAEHMM@Z:PROC	; CBaseMonster::CheckRangeAttack2
EXTRN	?CheckMeleeAttack1@CBaseMonster@@UAEHMM@Z:PROC	; CBaseMonster::CheckMeleeAttack1
EXTRN	?CheckMeleeAttack2@CBaseMonster@@UAEHMM@Z:PROC	; CBaseMonster::CheckMeleeAttack2
EXTRN	?ScheduleFromName@CBaseMonster@@UAEPAUSchedule_t@@PBD@Z:PROC ; CBaseMonster::ScheduleFromName
EXTRN	?StartTask@CBaseMonster@@UAEXPAUTask_t@@@Z:PROC	; CBaseMonster::StartTask
EXTRN	?RunTask@CBaseMonster@@UAEXPAUTask_t@@@Z:PROC	; CBaseMonster::RunTask
EXTRN	?GetScheduleOfType@CBaseMonster@@UAEPAUSchedule_t@@H@Z:PROC ; CBaseMonster::GetScheduleOfType
EXTRN	?GetSchedule@CBaseMonster@@UAEPAUSchedule_t@@XZ:PROC ; CBaseMonster::GetSchedule
EXTRN	?CanPlaySequence@CBaseMonster@@UAEHHH@Z:PROC	; CBaseMonster::CanPlaySequence
EXTRN	?PlaySentence@CBaseMonster@@UAEXPBDMMMH@Z:PROC	; CBaseMonster::PlaySentence
EXTRN	?PlayScriptedSentence@CBaseMonster@@UAEXPBDMMMHPAVCBaseEntity@@H@Z:PROC ; CBaseMonster::PlayScriptedSentence
EXTRN	?SentenceStop@CBaseMonster@@UAEXXZ:PROC		; CBaseMonster::SentenceStop
EXTRN	?GetIdealState@CBaseMonster@@UAE?AW4MONSTERSTATE@@XZ:PROC ; CBaseMonster::GetIdealState
EXTRN	?SetActivity@CBaseMonster@@UAEXW4Activity@@@Z:PROC ; CBaseMonster::SetActivity
EXTRN	?ReportAIState@CBaseMonster@@UAEXXZ:PROC	; CBaseMonster::ReportAIState
EXTRN	?CheckEnemy@CBaseMonster@@UAEHPAVCBaseEntity@@@Z:PROC ; CBaseMonster::CheckEnemy
EXTRN	?FTriangulate@CBaseMonster@@UAEHABVVector@@0MPAVCBaseEntity@@PAV2@@Z:PROC ; CBaseMonster::FTriangulate
EXTRN	?BuildNearestRoute@CBaseMonster@@UAEHVVector@@0MM@Z:PROC ; CBaseMonster::BuildNearestRoute
EXTRN	?FindCover@CBaseMonster@@UAEHVVector@@0MM@Z:PROC ; CBaseMonster::FindCover
EXTRN	?FindRunAway@CBaseMonster@@UAEHVVector@@MM@Z:PROC ; CBaseMonster::FindRunAway
EXTRN	?FCanCheckAttacks@CBaseMonster@@UAEHXZ:PROC	; CBaseMonster::FCanCheckAttacks
EXTRN	?IgnoreConditions@CBaseMonster@@UAEHXZ:PROC	; CBaseMonster::IgnoreConditions
EXTRN	?FValidateHintType@CBaseMonster@@UAEHF@Z:PROC	; CBaseMonster::FValidateHintType
EXTRN	?FCanActiveIdle@CBaseMonster@@UAEHXZ:PROC	; CBaseMonster::FCanActiveIdle
EXTRN	?ISoundMask@CBaseMonster@@UAEHXZ:PROC		; CBaseMonster::ISoundMask
EXTRN	?PBestSound@CBaseMonster@@UAEPAVCSound@@XZ:PROC	; CBaseMonster::PBestSound
EXTRN	?PBestScent@CBaseMonster@@UAEPAVCSound@@XZ:PROC	; CBaseMonster::PBestScent
EXTRN	?FBecomeProne@CBaseMonster@@UAEHXZ:PROC		; CBaseMonster::FBecomeProne
EXTRN	?BarnacleVictimBitten@CBaseMonster@@UAEXPAUentvars_s@@@Z:PROC ; CBaseMonster::BarnacleVictimBitten
EXTRN	?BarnacleVictimReleased@CBaseMonster@@UAEXXZ:PROC ; CBaseMonster::BarnacleVictimReleased
EXTRN	?TraceAttack@CBaseMonster@@UAEXPAUentvars_s@@MVVector@@PAUgametrace_s@@H@Z:PROC ; CBaseMonster::TraceAttack
EXTRN	?GetDeathActivity@CBaseMonster@@UAE?AW4Activity@@XZ:PROC ; CBaseMonster::GetDeathActivity
EXTRN	?Killed@CBaseMonster@@UAEXPAUentvars_s@@H@Z:PROC ; CBaseMonster::Killed
EXTRN	?GibMonster@CBaseMonster@@UAEXXZ:PROC		; CBaseMonster::GibMonster
EXTRN	?DamageDecal@CBaseMonster@@UAEHH@Z:PROC		; CBaseMonster::DamageDecal
EXTRN	?HasHumanGibs@CBaseMonster@@UAEHXZ:PROC		; CBaseMonster::HasHumanGibs
EXTRN	?HasAlienGibs@CBaseMonster@@UAEHXZ:PROC		; CBaseMonster::HasAlienGibs
EXTRN	?FadeMonster@CBaseMonster@@UAEXXZ:PROC		; CBaseMonster::FadeMonster
EXTRN	?GetGunPosition@CBaseMonster@@UAE?AVVector@@XZ:PROC ; CBaseMonster::GetGunPosition
EXTRN	?TakeHealth@CBaseMonster@@UAEHMH@Z:PROC		; CBaseMonster::TakeHealth
EXTRN	?TakeDamage@CBaseMonster@@UAEHPAUentvars_s@@0MH@Z:PROC ; CBaseMonster::TakeDamage
EXTRN	?RadiusDamage@CBaseMonster@@QAEXPAUentvars_s@@0MMHH@Z:PROC ; CBaseMonster::RadiusDamage
EXTRN	?StepSound@CBaseMonster@@UAEXXZ:PROC		; CBaseMonster::StepSound
EXTRN	?ClearEffects@CBaseMonster@@UAEXXZ:PROC		; CBaseMonster::ClearEffects
EXTRN	?PlayPickupSound@@YAXPAVCBaseEntity@@H@Z:PROC	; PlayPickupSound
EXTRN	?PlayClientSound@@YAXPAVCBaseEntity@@HHHVVector@@@Z:PROC ; PlayClientSound
EXTRN	?Spawn@CGrenade@@UAEXXZ:PROC			; CGrenade::Spawn
EXTRN	?Smoke@CGrenade@@QAEXXZ:PROC			; CGrenade::Smoke
EXTRN	?ExplodeTouch@CGrenade@@QAEXPAVCBaseEntity@@@Z:PROC ; CGrenade::ExplodeTouch
EXTRN	?Detonate@CGrenade@@QAEXXZ:PROC			; CGrenade::Detonate
EXTRN	?ClearEffects@CGrenade@@UAEXXZ:PROC		; CGrenade::ClearEffects
EXTRN	?GetDataDescMap@CGrenade@@UAEPAUdatamap_s@@XZ:PROC ; CGrenade::GetDataDescMap
EXTRN	?BounceSound@CGrenade@@UAEXXZ:PROC		; CGrenade::BounceSound
EXTRN	?Killed@CGrenade@@UAEXPAUentvars_s@@H@Z:PROC	; CGrenade::Killed
EXTRN	?SetObjectCollisionBox@CBasePlayerItem@@UAEXXZ:PROC ; CBasePlayerItem::SetObjectCollisionBox
EXTRN	?GetDataDescMap@CBasePlayerItem@@UAEPAUdatamap_s@@XZ:PROC ; CBasePlayerItem::GetDataDescMap
EXTRN	?AddToPlayer@CBasePlayerItem@@UAEHPAVCBasePlayer@@@Z:PROC ; CBasePlayerItem::AddToPlayer
EXTRN	?Respawn@CBasePlayerItem@@UAEPAVCBaseEntity@@XZ:PROC ; CBasePlayerItem::Respawn
EXTRN	?FallInit@CBasePlayerItem@@QAEXXZ:PROC		; CBasePlayerItem::FallInit
EXTRN	?Holster@CBasePlayerItem@@UAEXXZ:PROC		; CBasePlayerItem::Holster
EXTRN	?Drop@CBasePlayerItem@@UAEXXZ:PROC		; CBasePlayerItem::Drop
EXTRN	?Kill@CBasePlayerItem@@UAEXXZ:PROC		; CBasePlayerItem::Kill
EXTRN	?AttachToPlayer@CBasePlayerItem@@UAEXPAVCBasePlayer@@@Z:PROC ; CBasePlayerItem::AttachToPlayer
EXTRN	?GetDataDescMap@CBasePlayerWeapon@@UAEPAUdatamap_s@@XZ:PROC ; CBasePlayerWeapon::GetDataDescMap
EXTRN	?AddToPlayer@CBasePlayerWeapon@@UAEHPAVCBasePlayer@@@Z:PROC ; CBasePlayerWeapon::AddToPlayer
EXTRN	?AddDuplicate@CBasePlayerWeapon@@UAEHPAVCBasePlayerItem@@@Z:PROC ; CBasePlayerWeapon::AddDuplicate
EXTRN	?ExtractAmmo@CBasePlayerWeapon@@UAEHPAV1@@Z:PROC ; CBasePlayerWeapon::ExtractAmmo
EXTRN	?ExtractClipAmmo@CBasePlayerWeapon@@UAEHPAV1@@Z:PROC ; CBasePlayerWeapon::ExtractClipAmmo
EXTRN	?PlayEmptySound@CBasePlayerWeapon@@UAEHXZ:PROC	; CBasePlayerWeapon::PlayEmptySound
EXTRN	?ResetEmptySound@CBasePlayerWeapon@@UAEXXZ:PROC	; CBasePlayerWeapon::ResetEmptySound
EXTRN	?SendWeaponAnim@CBasePlayerWeapon@@UAEXHHH@Z:PROC ; CBasePlayerWeapon::SendWeaponAnim
EXTRN	?CanDeploy@CBasePlayerWeapon@@UAEHXZ:PROC	; CBasePlayerWeapon::CanDeploy
EXTRN	?IsUseable@CBasePlayerWeapon@@UAEHXZ:PROC	; CBasePlayerWeapon::IsUseable
EXTRN	?DefaultDeploy@CBasePlayerWeapon@@QAEHPAD0H0HH@Z:PROC ; CBasePlayerWeapon::DefaultDeploy
EXTRN	?DefaultReload@CBasePlayerWeapon@@QAEHHHMH@Z:PROC ; CBasePlayerWeapon::DefaultReload
EXTRN	?ItemPostFrame@CBasePlayerWeapon@@UAEXXZ:PROC	; CBasePlayerWeapon::ItemPostFrame
EXTRN	?UpdateClientData@CBasePlayerWeapon@@UAEHPAVCBasePlayer@@@Z:PROC ; CBasePlayerWeapon::UpdateClientData
EXTRN	?RetireWeapon@CBasePlayerWeapon@@UAEXXZ:PROC	; CBasePlayerWeapon::RetireWeapon
EXTRN	?Holster@CBasePlayerWeapon@@UAEXXZ:PROC		; CBasePlayerWeapon::Holster
EXTRN	?LowAmmoMsg@CBasePlayerWeapon@@UAEXPAVCBasePlayer@@@Z:PROC ; CBasePlayerWeapon::LowAmmoMsg
EXTRN	?PrimaryAmmoIndex@CBasePlayerWeapon@@UAEHXZ:PROC ; CBasePlayerWeapon::PrimaryAmmoIndex
EXTRN	?SecondaryAmmoIndex@CBasePlayerWeapon@@UAEHXZ:PROC ; CBasePlayerWeapon::SecondaryAmmoIndex
EXTRN	?Spawn@CBasePlayerAmmo@@UAEXXZ:PROC		; CBasePlayerAmmo::Spawn
EXTRN	?Respawn@CBasePlayerAmmo@@UAEPAVCBaseEntity@@XZ:PROC ; CBasePlayerAmmo::Respawn
EXTRN	?GetDataDescMap@CBasePlayerAmmo@@UAEPAUdatamap_s@@XZ:PROC ; CBasePlayerAmmo::GetDataDescMap
EXTRN	?Suspend@CLaserSpot@@QAEXM@Z:PROC		; CLaserSpot::Suspend
EXTRN	?CreateSpot@CLaserSpot@@SAPAV1@XZ:PROC		; CLaserSpot::CreateSpot
EXTRN	?SetAnimation@CBasePlayer@@QAEXW4PLAYER_ANIM@@@Z:PROC ; CBasePlayer::SetAnimation
EXTRN	?FireLoudWeaponRestrictionEntity@CBasePlayer@@QAEXXZ:PROC ; CBasePlayer::FireLoudWeaponRestrictionEntity
EXTRN	?InsertSound@CSoundEnt@@SAXHABVVector@@HMH@Z:PROC ; CSoundEnt::InsertSound
EXTRN	@__security_check_cookie@4:PROC
EXTRN	___CxxFrameHandler3:PROC
EXTRN	__Init_thread_epoch:DWORD
EXTRN	?g_vecZero@@3VVector@@B:BYTE			; g_vecZero
EXTRN	?g_engfuncs@@3Uenginefuncs_s@@A:BYTE		; g_engfuncs
EXTRN	??_7type_info@@6B@:QWORD			; type_info::`vftable'
EXTRN	?gpGlobals@@3PAUglobalvars_t@@A:DWORD		; gpGlobals
EXTRN	?gmsgTempEnt@@3HA:DWORD				; gmsgTempEnt
EXTRN	?g_iSkillLevel@@3HA:DWORD			; g_iSkillLevel
EXTRN	?gmsgWeapPickup@@3HA:DWORD			; gmsgWeapPickup
EXTRN	?m_DataMap@CGrenade@@2Udatamap_s@@A:BYTE	; CGrenade::m_DataMap
EXTRN	?m_DataMap@CBasePlayerWeapon@@2Udatamap_s@@A:BYTE ; CBasePlayerWeapon::m_DataMap
EXTRN	?g_sModelIndexFireball@@3FA:WORD		; g_sModelIndexFireball
EXTRN	?g_sModelIndexSmoke@@3FA:WORD			; g_sModelIndexSmoke
EXTRN	?g_sModelIndexWExplosion@@3FA:WORD		; g_sModelIndexWExplosion
EXTRN	?g_pGameRules@@3PAVCGameRules@@A:DWORD		; g_pGameRules
EXTRN	___security_cookie:DWORD
EXTRN	__fltused:DWORD
EXTRN	__tls_array:DWORD
EXTRN	__tls_index:DWORD
;	COMDAT ?_OptionsStorage@?1??__local_stdio_printf_options@@9@4_KA
_BSS	SEGMENT
?_OptionsStorage@?1??__local_stdio_printf_options@@9@4_KA DQ 01H DUP (?) ; `__local_stdio_printf_options'::`2'::_OptionsStorage
_BSS	ENDS
_BSS	SEGMENT
?weapon_rpg@@3V?$CEntityFactory@VCRpg@@@@A DD 01H DUP (?) ; weapon_rpg
?g_DataMapHolder@CRpg_DataDescInit@@3PAUdatamap_s@@A DD 01H DUP (?) ; CRpg_DataDescInit::g_DataMapHolder
?nameHolder@?1???$DataMapInit@VCRpg@@@@YAPAUdatamap_s@@PAVCRpg@@@Z@4VCDatadescGeneratedNameHolder@@A DB 01cH DUP (?) ; `DataMapInit<CRpg>'::`2'::nameHolder
?$TSS0@?1???$DataMapInit@VCRpg@@@@YAPAUdatamap_s@@PAVCRpg@@@Z@4HA DD 01H DUP (?) ; `DataMapInit<CRpg>'::`2'::$TSS0
?rpg_rocket@@3V?$CEntityFactory@VCRpgRocket@@@@A DD 01H DUP (?) ; rpg_rocket
?g_DataMapHolder@CRpgRocket_DataDescInit@@3PAUdatamap_s@@A DD 01H DUP (?) ; CRpgRocket_DataDescInit::g_DataMapHolder
?nameHolder@?1???$DataMapInit@VCRpgRocket@@@@YAPAUdatamap_s@@PAVCRpgRocket@@@Z@4VCDatadescGeneratedNameHolder@@A DB 01cH DUP (?) ; `DataMapInit<CRpgRocket>'::`2'::nameHolder
?$TSS0@?1???$DataMapInit@VCRpgRocket@@@@YAPAUdatamap_s@@PAVCRpgRocket@@@Z@4HA DD 01H DUP (?) ; `DataMapInit<CRpgRocket>'::`2'::$TSS0
?$TSS1@?1???$DataMapInit@VCRpgRocket@@@@YAPAUdatamap_s@@PAVCRpgRocket@@@Z@4HA DD 01H DUP (?) ; `DataMapInit<CRpgRocket>'::`2'::$TSS1
?robo_rocket2@@3V?$CEntityFactory@VCRoboRocket2@@@@A DD 01H DUP (?) ; robo_rocket2
?g_DataMapHolder@CRoboRocket2_DataDescInit@@3PAUdatamap_s@@A DD 01H DUP (?) ; CRoboRocket2_DataDescInit::g_DataMapHolder
?nameHolder@?1???$DataMapInit@VCRoboRocket2@@@@YAPAUdatamap_s@@PAVCRoboRocket2@@@Z@4VCDatadescGeneratedNameHolder@@A DB 01cH DUP (?) ; `DataMapInit<CRoboRocket2>'::`2'::nameHolder
?$TSS0@?1???$DataMapInit@VCRoboRocket2@@@@YAPAUdatamap_s@@PAVCRoboRocket2@@@Z@4HA DD 01H DUP (?) ; `DataMapInit<CRoboRocket2>'::`2'::$TSS0
?$TSS1@?1???$DataMapInit@VCRoboRocket2@@@@YAPAUdatamap_s@@PAVCRoboRocket2@@@Z@4HA DD 01H DUP (?) ; `DataMapInit<CRoboRocket2>'::`2'::$TSS1
?ammo_rpgclip@@3V?$CEntityFactory@VCRpgAmmo@@@@A DD 01H DUP (?) ; ammo_rpgclip
_BSS	ENDS
CRT$XCU	SEGMENT
?weapon_rpg$initializer$@@3P6AXXZA DD FLAT:??__Eweapon_rpg@@YAXXZ ; weapon_rpg$initializer$
CRT$XCU	ENDS
;	COMDAT __xmm@80000000800000008000000080000000
CONST	SEGMENT
__xmm@80000000800000008000000080000000 DB 00H, 00H, 00H, 080H, 00H, 00H, 00H
	DB	080H, 00H, 00H, 00H, 080H, 00H, 00H, 00H, 080H
CONST	ENDS
;	COMDAT __real@c1a00000
CONST	SEGMENT
__real@c1a00000 DD 0c1a00000r			; -20
CONST	ENDS
;	COMDAT __real@c1000000
CONST	SEGMENT
__real@c1000000 DD 0c1000000r			; -8
CONST	ENDS
;	COMDAT __real@bf800000
CONST	SEGMENT
__real@bf800000 DD 0bf800000r			; -1
CONST	ENDS
;	COMDAT __real@46000000
CONST	SEGMENT
__real@46000000 DD 046000000r			; 8192
CONST	ENDS
;	COMDAT __real@45800000
CONST	SEGMENT
__real@45800000 DD 045800000r			; 4096
CONST	ENDS
;	COMDAT __real@44fa0000
CONST	SEGMENT
__real@44fa0000 DD 044fa0000r			; 2000
CONST	ENDS
;	COMDAT __real@44bb8000
CONST	SEGMENT
__real@44bb8000 DD 044bb8000r			; 1500
CONST	ENDS
;	COMDAT __real@447a0000
CONST	SEGMENT
__real@447a0000 DD 0447a0000r			; 1000
CONST	ENDS
;	COMDAT __real@44440000
CONST	SEGMENT
__real@44440000 DD 044440000r			; 784
CONST	ENDS
;	COMDAT __real@43960000
CONST	SEGMENT
__real@43960000 DD 043960000r			; 300
CONST	ENDS
;	COMDAT __real@437a0000
CONST	SEGMENT
__real@437a0000 DD 0437a0000r			; 250
CONST	ENDS
;	COMDAT __real@43070000
CONST	SEGMENT
__real@43070000 DD 043070000r			; 135
CONST	ENDS
;	COMDAT __real@42800000
CONST	SEGMENT
__real@42800000 DD 042800000r			; 64
CONST	ENDS
;	COMDAT __real@42480000
CONST	SEGMENT
__real@42480000 DD 042480000r			; 50
CONST	ENDS
;	COMDAT __real@42200000
CONST	SEGMENT
__real@42200000 DD 042200000r			; 40
CONST	ENDS
;	COMDAT __real@42000000
CONST	SEGMENT
__real@42000000 DD 042000000r			; 32
CONST	ENDS
;	COMDAT __real@41f00000
CONST	SEGMENT
__real@41f00000 DD 041f00000r			; 30
CONST	ENDS
;	COMDAT __real@41c80000
CONST	SEGMENT
__real@41c80000 DD 041c80000r			; 25
CONST	ENDS
;	COMDAT __real@41c00000
CONST	SEGMENT
__real@41c00000 DD 041c00000r			; 24
CONST	ENDS
;	COMDAT __real@41a00000
CONST	SEGMENT
__real@41a00000 DD 041a00000r			; 20
CONST	ENDS
;	COMDAT __real@41800000
CONST	SEGMENT
__real@41800000 DD 041800000r			; 16
CONST	ENDS
;	COMDAT __real@41700000
CONST	SEGMENT
__real@41700000 DD 041700000r			; 15
CONST	ENDS
;	COMDAT __real@41200000
CONST	SEGMENT
__real@41200000 DD 041200000r			; 10
CONST	ENDS
;	COMDAT __real@41000000
CONST	SEGMENT
__real@41000000 DD 041000000r			; 8
CONST	ENDS
;	COMDAT __real@40a00000
CONST	SEGMENT
__real@40a00000 DD 040a00000r			; 5
CONST	ENDS
;	COMDAT __real@40800000
CONST	SEGMENT
__real@40800000 DD 040800000r			; 4
CONST	ENDS
;	COMDAT __real@4079000000000000
CONST	SEGMENT
__real@4079000000000000 DQ 04079000000000000r	; 400
CONST	ENDS
;	COMDAT __real@40400000
CONST	SEGMENT
__real@40400000 DD 040400000r			; 3
CONST	ENDS
;	COMDAT __real@4018000000000000
CONST	SEGMENT
__real@4018000000000000 DQ 04018000000000000r	; 6
CONST	ENDS
;	COMDAT __real@4014000000000000
CONST	SEGMENT
__real@4014000000000000 DQ 04014000000000000r	; 5
CONST	ENDS
;	COMDAT __real@4008000000000000
CONST	SEGMENT
__real@4008000000000000 DQ 04008000000000000r	; 3
CONST	ENDS
;	COMDAT __real@40066666
CONST	SEGMENT
__real@40066666 DD 040066666r			; 2.1
CONST	ENDS
;	COMDAT __real@4000cccccccccccd
CONST	SEGMENT
__real@4000cccccccccccd DQ 04000cccccccccccdr	; 2.1
CONST	ENDS
;	COMDAT __real@40000000
CONST	SEGMENT
__real@40000000 DD 040000000r			; 2
CONST	ENDS
;	COMDAT __real@3ff8000000000000
CONST	SEGMENT
__real@3ff8000000000000 DQ 03ff8000000000000r	; 1.5
CONST	ENDS
;	COMDAT __real@3ff0000000000000
CONST	SEGMENT
__real@3ff0000000000000 DQ 03ff0000000000000r	; 1
CONST	ENDS
;	COMDAT __real@3feccccccccccccd
CONST	SEGMENT
__real@3feccccccccccccd DQ 03feccccccccccccdr	; 0.9
CONST	ENDS
;	COMDAT __real@3fe999999999999a
CONST	SEGMENT
__real@3fe999999999999a DQ 03fe999999999999ar	; 0.8
CONST	ENDS
;	COMDAT __real@3fe8000000000000
CONST	SEGMENT
__real@3fe8000000000000 DQ 03fe8000000000000r	; 0.75
CONST	ENDS
;	COMDAT __real@3fe3333333333333
CONST	SEGMENT
__real@3fe3333333333333 DQ 03fe3333333333333r	; 0.6
CONST	ENDS
;	COMDAT __real@3fe0000000000000
CONST	SEGMENT
__real@3fe0000000000000 DQ 03fe0000000000000r	; 0.5
CONST	ENDS
;	COMDAT __real@3fd3333333333333
CONST	SEGMENT
__real@3fd3333333333333 DQ 03fd3333333333333r	; 0.3
CONST	ENDS
;	COMDAT __real@3fc999999999999a
CONST	SEGMENT
__real@3fc999999999999a DQ 03fc999999999999ar	; 0.2
CONST	ENDS
;	COMDAT __real@3fc00000
CONST	SEGMENT
__real@3fc00000 DD 03fc00000r			; 1.5
CONST	ENDS
;	COMDAT __real@3f800000
CONST	SEGMENT
__real@3f800000 DD 03f800000r			; 1
CONST	ENDS
;	COMDAT __real@3f4ccccd
CONST	SEGMENT
__real@3f4ccccd DD 03f4ccccdr			; 0.8
CONST	ENDS
;	COMDAT __real@3f4c49ba
CONST	SEGMENT
__real@3f4c49ba DD 03f4c49bar			; 0.798
CONST	ENDS
;	COMDAT __real@3f400000
CONST	SEGMENT
__real@3f400000 DD 03f400000r			; 0.75
CONST	ENDS
;	COMDAT __real@3f19999a
CONST	SEGMENT
__real@3f19999a DD 03f19999ar			; 0.6
CONST	ENDS
;	COMDAT __real@3f0ccccd
CONST	SEGMENT
__real@3f0ccccd DD 03f0ccccdr			; 0.55
CONST	ENDS
;	COMDAT __real@3f000000
CONST	SEGMENT
__real@3f000000 DD 03f000000r			; 0.5
CONST	ENDS
;	COMDAT __real@3ecccccd
CONST	SEGMENT
__real@3ecccccd DD 03ecccccdr			; 0.4
CONST	ENDS
;	COMDAT __real@3e800000
CONST	SEGMENT
__real@3e800000 DD 03e800000r			; 0.25
CONST	ENDS
;	COMDAT __real@3e4ccccd
CONST	SEGMENT
__real@3e4ccccd DD 03e4ccccdr			; 0.2
CONST	ENDS
;	COMDAT __real@3dcccccd
CONST	SEGMENT
__real@3dcccccd DD 03dcccccdr			; 0.1
CONST	ENDS
;	COMDAT __real@3d4ccccd
CONST	SEGMENT
__real@3d4ccccd DD 03d4ccccdr			; 0.05
CONST	ENDS
;	COMDAT __real@00000000
CONST	SEGMENT
__real@00000000 DD 000000000r			; 0
CONST	ENDS
;	COMDAT ??_R1A@?0A@EA@?$CEntityFactory@VCRpgAmmo@@@@8
rdata$r	SEGMENT
??_R1A@?0A@EA@?$CEntityFactory@VCRpgAmmo@@@@8 DD FLAT:??_R0?AV?$CEntityFactory@VCRpgAmmo@@@@@8 ; CEntityFactory<CRpgAmmo>::`RTTI Base Class Descriptor at (0,-1,0,64)'
	DD	01H
	DD	00H
	DD	0ffffffffH
	DD	00H
	DD	040H
	DD	FLAT:??_R3?$CEntityFactory@VCRpgAmmo@@@@8
rdata$r	ENDS
;	COMDAT ??_R2?$CEntityFactory@VCRpgAmmo@@@@8
rdata$r	SEGMENT
??_R2?$CEntityFactory@VCRpgAmmo@@@@8 DD FLAT:??_R1A@?0A@EA@?$CEntityFactory@VCRpgAmmo@@@@8 ; CEntityFactory<CRpgAmmo>::`RTTI Base Class Array'
	DD	FLAT:??_R1A@?0A@EA@IEntityFactory@@8
rdata$r	ENDS
;	COMDAT ??_R3?$CEntityFactory@VCRpgAmmo@@@@8
rdata$r	SEGMENT
??_R3?$CEntityFactory@VCRpgAmmo@@@@8 DD 00H		; CEntityFactory<CRpgAmmo>::`RTTI Class Hierarchy Descriptor'
	DD	00H
	DD	02H
	DD	FLAT:??_R2?$CEntityFactory@VCRpgAmmo@@@@8
rdata$r	ENDS
;	COMDAT ??_R0?AV?$CEntityFactory@VCRpgAmmo@@@@@8
data$r	SEGMENT
??_R0?AV?$CEntityFactory@VCRpgAmmo@@@@@8 DD FLAT:??_7type_info@@6B@ ; CEntityFactory<CRpgAmmo> `RTTI Type Descriptor'
	DD	00H
	DB	'.?AV?$CEntityFactory@VCRpgAmmo@@@@', 00H
data$r	ENDS
;	COMDAT ??_R4?$CEntityFactory@VCRpgAmmo@@@@6B@
rdata$r	SEGMENT
??_R4?$CEntityFactory@VCRpgAmmo@@@@6B@ DD 00H		; CEntityFactory<CRpgAmmo>::`RTTI Complete Object Locator'
	DD	00H
	DD	00H
	DD	FLAT:??_R0?AV?$CEntityFactory@VCRpgAmmo@@@@@8
	DD	FLAT:??_R3?$CEntityFactory@VCRpgAmmo@@@@8
rdata$r	ENDS
;	COMDAT ??_R1A@?0A@EA@CRpgAmmo@@8
rdata$r	SEGMENT
??_R1A@?0A@EA@CRpgAmmo@@8 DD FLAT:??_R0?AVCRpgAmmo@@@8	; CRpgAmmo::`RTTI Base Class Descriptor at (0,-1,0,64)'
	DD	02H
	DD	00H
	DD	0ffffffffH
	DD	00H
	DD	040H
	DD	FLAT:??_R3CRpgAmmo@@8
rdata$r	ENDS
;	COMDAT ??_R2CRpgAmmo@@8
rdata$r	SEGMENT
??_R2CRpgAmmo@@8 DD FLAT:??_R1A@?0A@EA@CRpgAmmo@@8	; CRpgAmmo::`RTTI Base Class Array'
	DD	FLAT:??_R1A@?0A@EA@CBasePlayerAmmo@@8
	DD	FLAT:??_R1A@?0A@EA@CBaseEntity@@8
rdata$r	ENDS
;	COMDAT ??_R3CRpgAmmo@@8
rdata$r	SEGMENT
??_R3CRpgAmmo@@8 DD 00H					; CRpgAmmo::`RTTI Class Hierarchy Descriptor'
	DD	00H
	DD	03H
	DD	FLAT:??_R2CRpgAmmo@@8
rdata$r	ENDS
;	COMDAT ??_R0?AVCRpgAmmo@@@8
data$r	SEGMENT
??_R0?AVCRpgAmmo@@@8 DD FLAT:??_7type_info@@6B@		; CRpgAmmo `RTTI Type Descriptor'
	DD	00H
	DB	'.?AVCRpgAmmo@@', 00H
data$r	ENDS
;	COMDAT ??_R4CRpgAmmo@@6B@
rdata$r	SEGMENT
??_R4CRpgAmmo@@6B@ DD 00H				; CRpgAmmo::`RTTI Complete Object Locator'
	DD	00H
	DD	00H
	DD	FLAT:??_R0?AVCRpgAmmo@@@8
	DD	FLAT:??_R3CRpgAmmo@@8
rdata$r	ENDS
;	COMDAT ??_R1A@?0A@EA@?$CEntityFactory@VCRoboRocket2@@@@8
rdata$r	SEGMENT
??_R1A@?0A@EA@?$CEntityFactory@VCRoboRocket2@@@@8 DD FLAT:??_R0?AV?$CEntityFactory@VCRoboRocket2@@@@@8 ; CEntityFactory<CRoboRocket2>::`RTTI Base Class Descriptor at (0,-1,0,64)'
	DD	01H
	DD	00H
	DD	0ffffffffH
	DD	00H
	DD	040H
	DD	FLAT:??_R3?$CEntityFactory@VCRoboRocket2@@@@8
rdata$r	ENDS
;	COMDAT ??_R2?$CEntityFactory@VCRoboRocket2@@@@8
rdata$r	SEGMENT
??_R2?$CEntityFactory@VCRoboRocket2@@@@8 DD FLAT:??_R1A@?0A@EA@?$CEntityFactory@VCRoboRocket2@@@@8 ; CEntityFactory<CRoboRocket2>::`RTTI Base Class Array'
	DD	FLAT:??_R1A@?0A@EA@IEntityFactory@@8
rdata$r	ENDS
;	COMDAT ??_R3?$CEntityFactory@VCRoboRocket2@@@@8
rdata$r	SEGMENT
??_R3?$CEntityFactory@VCRoboRocket2@@@@8 DD 00H		; CEntityFactory<CRoboRocket2>::`RTTI Class Hierarchy Descriptor'
	DD	00H
	DD	02H
	DD	FLAT:??_R2?$CEntityFactory@VCRoboRocket2@@@@8
rdata$r	ENDS
;	COMDAT ??_R0?AV?$CEntityFactory@VCRoboRocket2@@@@@8
data$r	SEGMENT
??_R0?AV?$CEntityFactory@VCRoboRocket2@@@@@8 DD FLAT:??_7type_info@@6B@ ; CEntityFactory<CRoboRocket2> `RTTI Type Descriptor'
	DD	00H
	DB	'.?AV?$CEntityFactory@VCRoboRocket2@@@@', 00H
data$r	ENDS
;	COMDAT ??_R4?$CEntityFactory@VCRoboRocket2@@@@6B@
rdata$r	SEGMENT
??_R4?$CEntityFactory@VCRoboRocket2@@@@6B@ DD 00H	; CEntityFactory<CRoboRocket2>::`RTTI Complete Object Locator'
	DD	00H
	DD	00H
	DD	FLAT:??_R0?AV?$CEntityFactory@VCRoboRocket2@@@@@8
	DD	FLAT:??_R3?$CEntityFactory@VCRoboRocket2@@@@8
rdata$r	ENDS
;	COMDAT ??_R1A@?0A@EA@CRoboRocket2@@8
rdata$r	SEGMENT
??_R1A@?0A@EA@CRoboRocket2@@8 DD FLAT:??_R0?AVCRoboRocket2@@@8 ; CRoboRocket2::`RTTI Base Class Descriptor at (0,-1,0,64)'
	DD	06H
	DD	00H
	DD	0ffffffffH
	DD	00H
	DD	040H
	DD	FLAT:??_R3CRoboRocket2@@8
rdata$r	ENDS
;	COMDAT ??_R2CRoboRocket2@@8
rdata$r	SEGMENT
??_R2CRoboRocket2@@8 DD FLAT:??_R1A@?0A@EA@CRoboRocket2@@8 ; CRoboRocket2::`RTTI Base Class Array'
	DD	FLAT:??_R1A@?0A@EA@CGrenade@@8
	DD	FLAT:??_R1A@?0A@EA@CBaseMonster@@8
	DD	FLAT:??_R1A@?0A@EA@CBaseToggle@@8
	DD	FLAT:??_R1A@?0A@EA@CBaseAnimating@@8
	DD	FLAT:??_R1A@?0A@EA@CBaseDelay@@8
	DD	FLAT:??_R1A@?0A@EA@CBaseEntity@@8
rdata$r	ENDS
;	COMDAT ??_R3CRoboRocket2@@8
rdata$r	SEGMENT
??_R3CRoboRocket2@@8 DD 00H				; CRoboRocket2::`RTTI Class Hierarchy Descriptor'
	DD	00H
	DD	07H
	DD	FLAT:??_R2CRoboRocket2@@8
rdata$r	ENDS
;	COMDAT ??_R0?AVCRoboRocket2@@@8
data$r	SEGMENT
??_R0?AVCRoboRocket2@@@8 DD FLAT:??_7type_info@@6B@	; CRoboRocket2 `RTTI Type Descriptor'
	DD	00H
	DB	'.?AVCRoboRocket2@@', 00H
data$r	ENDS
;	COMDAT ??_R4CRoboRocket2@@6B@
rdata$r	SEGMENT
??_R4CRoboRocket2@@6B@ DD 00H				; CRoboRocket2::`RTTI Complete Object Locator'
	DD	00H
	DD	00H
	DD	FLAT:??_R0?AVCRoboRocket2@@@8
	DD	FLAT:??_R3CRoboRocket2@@8
rdata$r	ENDS
;	COMDAT ??_R1A@?0A@EA@?$CEntityFactory@VCRpgRocket@@@@8
rdata$r	SEGMENT
??_R1A@?0A@EA@?$CEntityFactory@VCRpgRocket@@@@8 DD FLAT:??_R0?AV?$CEntityFactory@VCRpgRocket@@@@@8 ; CEntityFactory<CRpgRocket>::`RTTI Base Class Descriptor at (0,-1,0,64)'
	DD	01H
	DD	00H
	DD	0ffffffffH
	DD	00H
	DD	040H
	DD	FLAT:??_R3?$CEntityFactory@VCRpgRocket@@@@8
rdata$r	ENDS
;	COMDAT ??_R2?$CEntityFactory@VCRpgRocket@@@@8
rdata$r	SEGMENT
??_R2?$CEntityFactory@VCRpgRocket@@@@8 DD FLAT:??_R1A@?0A@EA@?$CEntityFactory@VCRpgRocket@@@@8 ; CEntityFactory<CRpgRocket>::`RTTI Base Class Array'
	DD	FLAT:??_R1A@?0A@EA@IEntityFactory@@8
rdata$r	ENDS
;	COMDAT ??_R3?$CEntityFactory@VCRpgRocket@@@@8
rdata$r	SEGMENT
??_R3?$CEntityFactory@VCRpgRocket@@@@8 DD 00H		; CEntityFactory<CRpgRocket>::`RTTI Class Hierarchy Descriptor'
	DD	00H
	DD	02H
	DD	FLAT:??_R2?$CEntityFactory@VCRpgRocket@@@@8
rdata$r	ENDS
;	COMDAT ??_R0?AV?$CEntityFactory@VCRpgRocket@@@@@8
data$r	SEGMENT
??_R0?AV?$CEntityFactory@VCRpgRocket@@@@@8 DD FLAT:??_7type_info@@6B@ ; CEntityFactory<CRpgRocket> `RTTI Type Descriptor'
	DD	00H
	DB	'.?AV?$CEntityFactory@VCRpgRocket@@@@', 00H
data$r	ENDS
;	COMDAT ??_R4?$CEntityFactory@VCRpgRocket@@@@6B@
rdata$r	SEGMENT
??_R4?$CEntityFactory@VCRpgRocket@@@@6B@ DD 00H		; CEntityFactory<CRpgRocket>::`RTTI Complete Object Locator'
	DD	00H
	DD	00H
	DD	FLAT:??_R0?AV?$CEntityFactory@VCRpgRocket@@@@@8
	DD	FLAT:??_R3?$CEntityFactory@VCRpgRocket@@@@8
rdata$r	ENDS
;	COMDAT ??_R1A@?0A@EA@CRpgRocket@@8
rdata$r	SEGMENT
??_R1A@?0A@EA@CRpgRocket@@8 DD FLAT:??_R0?AVCRpgRocket@@@8 ; CRpgRocket::`RTTI Base Class Descriptor at (0,-1,0,64)'
	DD	06H
	DD	00H
	DD	0ffffffffH
	DD	00H
	DD	040H
	DD	FLAT:??_R3CRpgRocket@@8
rdata$r	ENDS
;	COMDAT ??_R2CRpgRocket@@8
rdata$r	SEGMENT
??_R2CRpgRocket@@8 DD FLAT:??_R1A@?0A@EA@CRpgRocket@@8	; CRpgRocket::`RTTI Base Class Array'
	DD	FLAT:??_R1A@?0A@EA@CGrenade@@8
	DD	FLAT:??_R1A@?0A@EA@CBaseMonster@@8
	DD	FLAT:??_R1A@?0A@EA@CBaseToggle@@8
	DD	FLAT:??_R1A@?0A@EA@CBaseAnimating@@8
	DD	FLAT:??_R1A@?0A@EA@CBaseDelay@@8
	DD	FLAT:??_R1A@?0A@EA@CBaseEntity@@8
rdata$r	ENDS
;	COMDAT ??_R3CRpgRocket@@8
rdata$r	SEGMENT
??_R3CRpgRocket@@8 DD 00H				; CRpgRocket::`RTTI Class Hierarchy Descriptor'
	DD	00H
	DD	07H
	DD	FLAT:??_R2CRpgRocket@@8
rdata$r	ENDS
;	COMDAT ??_R0?AVCRpgRocket@@@8
data$r	SEGMENT
??_R0?AVCRpgRocket@@@8 DD FLAT:??_7type_info@@6B@	; CRpgRocket `RTTI Type Descriptor'
	DD	00H
	DB	'.?AVCRpgRocket@@', 00H
data$r	ENDS
;	COMDAT ??_R4CRpgRocket@@6B@
rdata$r	SEGMENT
??_R4CRpgRocket@@6B@ DD 00H				; CRpgRocket::`RTTI Complete Object Locator'
	DD	00H
	DD	00H
	DD	FLAT:??_R0?AVCRpgRocket@@@8
	DD	FLAT:??_R3CRpgRocket@@8
rdata$r	ENDS
;	COMDAT ??_R1A@?0A@EA@?$CEntityFactory@VCRpg@@@@8
rdata$r	SEGMENT
??_R1A@?0A@EA@?$CEntityFactory@VCRpg@@@@8 DD FLAT:??_R0?AV?$CEntityFactory@VCRpg@@@@@8 ; CEntityFactory<CRpg>::`RTTI Base Class Descriptor at (0,-1,0,64)'
	DD	01H
	DD	00H
	DD	0ffffffffH
	DD	00H
	DD	040H
	DD	FLAT:??_R3?$CEntityFactory@VCRpg@@@@8
rdata$r	ENDS
;	COMDAT ??_R2?$CEntityFactory@VCRpg@@@@8
rdata$r	SEGMENT
??_R2?$CEntityFactory@VCRpg@@@@8 DD FLAT:??_R1A@?0A@EA@?$CEntityFactory@VCRpg@@@@8 ; CEntityFactory<CRpg>::`RTTI Base Class Array'
	DD	FLAT:??_R1A@?0A@EA@IEntityFactory@@8
rdata$r	ENDS
;	COMDAT ??_R3?$CEntityFactory@VCRpg@@@@8
rdata$r	SEGMENT
??_R3?$CEntityFactory@VCRpg@@@@8 DD 00H			; CEntityFactory<CRpg>::`RTTI Class Hierarchy Descriptor'
	DD	00H
	DD	02H
	DD	FLAT:??_R2?$CEntityFactory@VCRpg@@@@8
rdata$r	ENDS
;	COMDAT ??_R0?AV?$CEntityFactory@VCRpg@@@@@8
data$r	SEGMENT
??_R0?AV?$CEntityFactory@VCRpg@@@@@8 DD FLAT:??_7type_info@@6B@ ; CEntityFactory<CRpg> `RTTI Type Descriptor'
	DD	00H
	DB	'.?AV?$CEntityFactory@VCRpg@@@@', 00H
data$r	ENDS
;	COMDAT ??_R4?$CEntityFactory@VCRpg@@@@6B@
rdata$r	SEGMENT
??_R4?$CEntityFactory@VCRpg@@@@6B@ DD 00H		; CEntityFactory<CRpg>::`RTTI Complete Object Locator'
	DD	00H
	DD	00H
	DD	FLAT:??_R0?AV?$CEntityFactory@VCRpg@@@@@8
	DD	FLAT:??_R3?$CEntityFactory@VCRpg@@@@8
rdata$r	ENDS
;	COMDAT ??_R1A@?0A@EA@CRpg@@8
rdata$r	SEGMENT
??_R1A@?0A@EA@CRpg@@8 DD FLAT:??_R0?AVCRpg@@@8		; CRpg::`RTTI Base Class Descriptor at (0,-1,0,64)'
	DD	05H
	DD	00H
	DD	0ffffffffH
	DD	00H
	DD	040H
	DD	FLAT:??_R3CRpg@@8
rdata$r	ENDS
;	COMDAT ??_R2CRpg@@8
rdata$r	SEGMENT
??_R2CRpg@@8 DD	FLAT:??_R1A@?0A@EA@CRpg@@8		; CRpg::`RTTI Base Class Array'
	DD	FLAT:??_R1A@?0A@EA@CBasePlayerWeapon@@8
	DD	FLAT:??_R1A@?0A@EA@CBasePlayerItem@@8
	DD	FLAT:??_R1A@?0A@EA@CBaseAnimating@@8
	DD	FLAT:??_R1A@?0A@EA@CBaseDelay@@8
	DD	FLAT:??_R1A@?0A@EA@CBaseEntity@@8
rdata$r	ENDS
;	COMDAT ??_R3CRpg@@8
rdata$r	SEGMENT
??_R3CRpg@@8 DD	00H					; CRpg::`RTTI Class Hierarchy Descriptor'
	DD	00H
	DD	06H
	DD	FLAT:??_R2CRpg@@8
rdata$r	ENDS
;	COMDAT ??_R0?AVCRpg@@@8
data$r	SEGMENT
??_R0?AVCRpg@@@8 DD FLAT:??_7type_info@@6B@		; CRpg `RTTI Type Descriptor'
	DD	00H
	DB	'.?AVCRpg@@', 00H
data$r	ENDS
;	COMDAT ??_R4CRpg@@6B@
rdata$r	SEGMENT
??_R4CRpg@@6B@ DD 00H					; CRpg::`RTTI Complete Object Locator'
	DD	00H
	DD	00H
	DD	FLAT:??_R0?AVCRpg@@@8
	DD	FLAT:??_R3CRpg@@8
rdata$r	ENDS
;	COMDAT ??_R1A@?0A@EA@CBasePlayerAmmo@@8
rdata$r	SEGMENT
??_R1A@?0A@EA@CBasePlayerAmmo@@8 DD FLAT:??_R0?AVCBasePlayerAmmo@@@8 ; CBasePlayerAmmo::`RTTI Base Class Descriptor at (0,-1,0,64)'
	DD	01H
	DD	00H
	DD	0ffffffffH
	DD	00H
	DD	040H
	DD	FLAT:??_R3CBasePlayerAmmo@@8
rdata$r	ENDS
;	COMDAT ??_R2CBasePlayerAmmo@@8
rdata$r	SEGMENT
??_R2CBasePlayerAmmo@@8 DD FLAT:??_R1A@?0A@EA@CBasePlayerAmmo@@8 ; CBasePlayerAmmo::`RTTI Base Class Array'
	DD	FLAT:??_R1A@?0A@EA@CBaseEntity@@8
rdata$r	ENDS
;	COMDAT ??_R3CBasePlayerAmmo@@8
rdata$r	SEGMENT
??_R3CBasePlayerAmmo@@8 DD 00H				; CBasePlayerAmmo::`RTTI Class Hierarchy Descriptor'
	DD	00H
	DD	02H
	DD	FLAT:??_R2CBasePlayerAmmo@@8
rdata$r	ENDS
;	COMDAT ??_R0?AVCBasePlayerAmmo@@@8
data$r	SEGMENT
??_R0?AVCBasePlayerAmmo@@@8 DD FLAT:??_7type_info@@6B@	; CBasePlayerAmmo `RTTI Type Descriptor'
	DD	00H
	DB	'.?AVCBasePlayerAmmo@@', 00H
data$r	ENDS
;	COMDAT ??_R4CBasePlayerAmmo@@6B@
rdata$r	SEGMENT
??_R4CBasePlayerAmmo@@6B@ DD 00H			; CBasePlayerAmmo::`RTTI Complete Object Locator'
	DD	00H
	DD	00H
	DD	FLAT:??_R0?AVCBasePlayerAmmo@@@8
	DD	FLAT:??_R3CBasePlayerAmmo@@8
rdata$r	ENDS
;	COMDAT ??_R1A@?0A@EA@CBasePlayerWeapon@@8
rdata$r	SEGMENT
??_R1A@?0A@EA@CBasePlayerWeapon@@8 DD FLAT:??_R0?AVCBasePlayerWeapon@@@8 ; CBasePlayerWeapon::`RTTI Base Class Descriptor at (0,-1,0,64)'
	DD	04H
	DD	00H
	DD	0ffffffffH
	DD	00H
	DD	040H
	DD	FLAT:??_R3CBasePlayerWeapon@@8
rdata$r	ENDS
;	COMDAT ??_R2CBasePlayerWeapon@@8
rdata$r	SEGMENT
??_R2CBasePlayerWeapon@@8 DD FLAT:??_R1A@?0A@EA@CBasePlayerWeapon@@8 ; CBasePlayerWeapon::`RTTI Base Class Array'
	DD	FLAT:??_R1A@?0A@EA@CBasePlayerItem@@8
	DD	FLAT:??_R1A@?0A@EA@CBaseAnimating@@8
	DD	FLAT:??_R1A@?0A@EA@CBaseDelay@@8
	DD	FLAT:??_R1A@?0A@EA@CBaseEntity@@8
rdata$r	ENDS
;	COMDAT ??_R3CBasePlayerWeapon@@8
rdata$r	SEGMENT
??_R3CBasePlayerWeapon@@8 DD 00H			; CBasePlayerWeapon::`RTTI Class Hierarchy Descriptor'
	DD	00H
	DD	05H
	DD	FLAT:??_R2CBasePlayerWeapon@@8
rdata$r	ENDS
;	COMDAT ??_R0?AVCBasePlayerWeapon@@@8
data$r	SEGMENT
??_R0?AVCBasePlayerWeapon@@@8 DD FLAT:??_7type_info@@6B@ ; CBasePlayerWeapon `RTTI Type Descriptor'
	DD	00H
	DB	'.?AVCBasePlayerWeapon@@', 00H
data$r	ENDS
;	COMDAT ??_R4CBasePlayerWeapon@@6B@
rdata$r	SEGMENT
??_R4CBasePlayerWeapon@@6B@ DD 00H			; CBasePlayerWeapon::`RTTI Complete Object Locator'
	DD	00H
	DD	00H
	DD	FLAT:??_R0?AVCBasePlayerWeapon@@@8
	DD	FLAT:??_R3CBasePlayerWeapon@@8
rdata$r	ENDS
;	COMDAT ??_R1A@?0A@EA@CGrenade@@8
rdata$r	SEGMENT
??_R1A@?0A@EA@CGrenade@@8 DD FLAT:??_R0?AVCGrenade@@@8	; CGrenade::`RTTI Base Class Descriptor at (0,-1,0,64)'
	DD	05H
	DD	00H
	DD	0ffffffffH
	DD	00H
	DD	040H
	DD	FLAT:??_R3CGrenade@@8
rdata$r	ENDS
;	COMDAT ??_R2CGrenade@@8
rdata$r	SEGMENT
??_R2CGrenade@@8 DD FLAT:??_R1A@?0A@EA@CGrenade@@8	; CGrenade::`RTTI Base Class Array'
	DD	FLAT:??_R1A@?0A@EA@CBaseMonster@@8
	DD	FLAT:??_R1A@?0A@EA@CBaseToggle@@8
	DD	FLAT:??_R1A@?0A@EA@CBaseAnimating@@8
	DD	FLAT:??_R1A@?0A@EA@CBaseDelay@@8
	DD	FLAT:??_R1A@?0A@EA@CBaseEntity@@8
rdata$r	ENDS
;	COMDAT ??_R3CGrenade@@8
rdata$r	SEGMENT
??_R3CGrenade@@8 DD 00H					; CGrenade::`RTTI Class Hierarchy Descriptor'
	DD	00H
	DD	06H
	DD	FLAT:??_R2CGrenade@@8
rdata$r	ENDS
;	COMDAT ??_R0?AVCGrenade@@@8
data$r	SEGMENT
??_R0?AVCGrenade@@@8 DD FLAT:??_7type_info@@6B@		; CGrenade `RTTI Type Descriptor'
	DD	00H
	DB	'.?AVCGrenade@@', 00H
data$r	ENDS
;	COMDAT ??_R4CGrenade@@6B@
rdata$r	SEGMENT
??_R4CGrenade@@6B@ DD 00H				; CGrenade::`RTTI Complete Object Locator'
	DD	00H
	DD	00H
	DD	FLAT:??_R0?AVCGrenade@@@8
	DD	FLAT:??_R3CGrenade@@8
rdata$r	ENDS
;	COMDAT ??_R4CBaseToggle@@6B@
rdata$r	SEGMENT
??_R4CBaseToggle@@6B@ DD 00H				; CBaseToggle::`RTTI Complete Object Locator'
	DD	00H
	DD	00H
	DD	FLAT:??_R0?AVCBaseToggle@@@8
	DD	FLAT:??_R3CBaseToggle@@8
rdata$r	ENDS
;	COMDAT ??_R4CBaseAnimating@@6B@
rdata$r	SEGMENT
??_R4CBaseAnimating@@6B@ DD 00H				; CBaseAnimating::`RTTI Complete Object Locator'
	DD	00H
	DD	00H
	DD	FLAT:??_R0?AVCBaseAnimating@@@8
	DD	FLAT:??_R3CBaseAnimating@@8
rdata$r	ENDS
;	COMDAT ??_R4CBaseDelay@@6B@
rdata$r	SEGMENT
??_R4CBaseDelay@@6B@ DD 00H				; CBaseDelay::`RTTI Complete Object Locator'
	DD	00H
	DD	00H
	DD	FLAT:??_R0?AVCBaseDelay@@@8
	DD	FLAT:??_R3CBaseDelay@@8
rdata$r	ENDS
;	COMDAT ??_R2CBaseToggle@@8
rdata$r	SEGMENT
??_R2CBaseToggle@@8 DD FLAT:??_R1A@?0A@EA@CBaseToggle@@8 ; CBaseToggle::`RTTI Base Class Array'
	DD	FLAT:??_R1A@?0A@EA@CBaseAnimating@@8
	DD	FLAT:??_R1A@?0A@EA@CBaseDelay@@8
	DD	FLAT:??_R1A@?0A@EA@CBaseEntity@@8
rdata$r	ENDS
;	COMDAT ??_R3CBaseToggle@@8
rdata$r	SEGMENT
??_R3CBaseToggle@@8 DD 00H				; CBaseToggle::`RTTI Class Hierarchy Descriptor'
	DD	00H
	DD	04H
	DD	FLAT:??_R2CBaseToggle@@8
rdata$r	ENDS
;	COMDAT ??_R0?AVCBaseToggle@@@8
data$r	SEGMENT
??_R0?AVCBaseToggle@@@8 DD FLAT:??_7type_info@@6B@	; CBaseToggle `RTTI Type Descriptor'
	DD	00H
	DB	'.?AVCBaseToggle@@', 00H
data$r	ENDS
;	COMDAT ??_R1A@?0A@EA@CBaseToggle@@8
rdata$r	SEGMENT
??_R1A@?0A@EA@CBaseToggle@@8 DD FLAT:??_R0?AVCBaseToggle@@@8 ; CBaseToggle::`RTTI Base Class Descriptor at (0,-1,0,64)'
	DD	03H
	DD	00H
	DD	0ffffffffH
	DD	00H
	DD	040H
	DD	FLAT:??_R3CBaseToggle@@8
rdata$r	ENDS
;	COMDAT ??_R1A@?0A@EA@CBaseMonster@@8
rdata$r	SEGMENT
??_R1A@?0A@EA@CBaseMonster@@8 DD FLAT:??_R0?AVCBaseMonster@@@8 ; CBaseMonster::`RTTI Base Class Descriptor at (0,-1,0,64)'
	DD	04H
	DD	00H
	DD	0ffffffffH
	DD	00H
	DD	040H
	DD	FLAT:??_R3CBaseMonster@@8
rdata$r	ENDS
;	COMDAT ??_R2CBaseMonster@@8
rdata$r	SEGMENT
??_R2CBaseMonster@@8 DD FLAT:??_R1A@?0A@EA@CBaseMonster@@8 ; CBaseMonster::`RTTI Base Class Array'
	DD	FLAT:??_R1A@?0A@EA@CBaseToggle@@8
	DD	FLAT:??_R1A@?0A@EA@CBaseAnimating@@8
	DD	FLAT:??_R1A@?0A@EA@CBaseDelay@@8
	DD	FLAT:??_R1A@?0A@EA@CBaseEntity@@8
rdata$r	ENDS
;	COMDAT ??_R3CBaseMonster@@8
rdata$r	SEGMENT
??_R3CBaseMonster@@8 DD 00H				; CBaseMonster::`RTTI Class Hierarchy Descriptor'
	DD	00H
	DD	05H
	DD	FLAT:??_R2CBaseMonster@@8
rdata$r	ENDS
;	COMDAT ??_R0?AVCBaseMonster@@@8
data$r	SEGMENT
??_R0?AVCBaseMonster@@@8 DD FLAT:??_7type_info@@6B@	; CBaseMonster `RTTI Type Descriptor'
	DD	00H
	DB	'.?AVCBaseMonster@@', 00H
data$r	ENDS
;	COMDAT ??_R4CBaseMonster@@6B@
rdata$r	SEGMENT
??_R4CBaseMonster@@6B@ DD 00H				; CBaseMonster::`RTTI Complete Object Locator'
	DD	00H
	DD	00H
	DD	FLAT:??_R0?AVCBaseMonster@@@8
	DD	FLAT:??_R3CBaseMonster@@8
rdata$r	ENDS
;	COMDAT ??_R2CBaseDelay@@8
rdata$r	SEGMENT
??_R2CBaseDelay@@8 DD FLAT:??_R1A@?0A@EA@CBaseDelay@@8	; CBaseDelay::`RTTI Base Class Array'
	DD	FLAT:??_R1A@?0A@EA@CBaseEntity@@8
rdata$r	ENDS
;	COMDAT ??_R3CBaseDelay@@8
rdata$r	SEGMENT
??_R3CBaseDelay@@8 DD 00H				; CBaseDelay::`RTTI Class Hierarchy Descriptor'
	DD	00H
	DD	02H
	DD	FLAT:??_R2CBaseDelay@@8
rdata$r	ENDS
;	COMDAT ??_R0?AVCBaseDelay@@@8
data$r	SEGMENT
??_R0?AVCBaseDelay@@@8 DD FLAT:??_7type_info@@6B@	; CBaseDelay `RTTI Type Descriptor'
	DD	00H
	DB	'.?AVCBaseDelay@@', 00H
data$r	ENDS
;	COMDAT ??_R1A@?0A@EA@CBaseDelay@@8
rdata$r	SEGMENT
??_R1A@?0A@EA@CBaseDelay@@8 DD FLAT:??_R0?AVCBaseDelay@@@8 ; CBaseDelay::`RTTI Base Class Descriptor at (0,-1,0,64)'
	DD	01H
	DD	00H
	DD	0ffffffffH
	DD	00H
	DD	040H
	DD	FLAT:??_R3CBaseDelay@@8
rdata$r	ENDS
;	COMDAT ??_R2CBaseAnimating@@8
rdata$r	SEGMENT
??_R2CBaseAnimating@@8 DD FLAT:??_R1A@?0A@EA@CBaseAnimating@@8 ; CBaseAnimating::`RTTI Base Class Array'
	DD	FLAT:??_R1A@?0A@EA@CBaseDelay@@8
	DD	FLAT:??_R1A@?0A@EA@CBaseEntity@@8
rdata$r	ENDS
;	COMDAT ??_R3CBaseAnimating@@8
rdata$r	SEGMENT
??_R3CBaseAnimating@@8 DD 00H				; CBaseAnimating::`RTTI Class Hierarchy Descriptor'
	DD	00H
	DD	03H
	DD	FLAT:??_R2CBaseAnimating@@8
rdata$r	ENDS
;	COMDAT ??_R0?AVCBaseAnimating@@@8
data$r	SEGMENT
??_R0?AVCBaseAnimating@@@8 DD FLAT:??_7type_info@@6B@	; CBaseAnimating `RTTI Type Descriptor'
	DD	00H
	DB	'.?AVCBaseAnimating@@', 00H
data$r	ENDS
;	COMDAT ??_R1A@?0A@EA@CBaseAnimating@@8
rdata$r	SEGMENT
??_R1A@?0A@EA@CBaseAnimating@@8 DD FLAT:??_R0?AVCBaseAnimating@@@8 ; CBaseAnimating::`RTTI Base Class Descriptor at (0,-1,0,64)'
	DD	02H
	DD	00H
	DD	0ffffffffH
	DD	00H
	DD	040H
	DD	FLAT:??_R3CBaseAnimating@@8
rdata$r	ENDS
;	COMDAT ??_R1A@?0A@EA@CBasePlayerItem@@8
rdata$r	SEGMENT
??_R1A@?0A@EA@CBasePlayerItem@@8 DD FLAT:??_R0?AVCBasePlayerItem@@@8 ; CBasePlayerItem::`RTTI Base Class Descriptor at (0,-1,0,64)'
	DD	03H
	DD	00H
	DD	0ffffffffH
	DD	00H
	DD	040H
	DD	FLAT:??_R3CBasePlayerItem@@8
rdata$r	ENDS
;	COMDAT ??_R2CBasePlayerItem@@8
rdata$r	SEGMENT
??_R2CBasePlayerItem@@8 DD FLAT:??_R1A@?0A@EA@CBasePlayerItem@@8 ; CBasePlayerItem::`RTTI Base Class Array'
	DD	FLAT:??_R1A@?0A@EA@CBaseAnimating@@8
	DD	FLAT:??_R1A@?0A@EA@CBaseDelay@@8
	DD	FLAT:??_R1A@?0A@EA@CBaseEntity@@8
rdata$r	ENDS
;	COMDAT ??_R3CBasePlayerItem@@8
rdata$r	SEGMENT
??_R3CBasePlayerItem@@8 DD 00H				; CBasePlayerItem::`RTTI Class Hierarchy Descriptor'
	DD	00H
	DD	04H
	DD	FLAT:??_R2CBasePlayerItem@@8
rdata$r	ENDS
;	COMDAT ??_R0?AVCBasePlayerItem@@@8
data$r	SEGMENT
??_R0?AVCBasePlayerItem@@@8 DD FLAT:??_7type_info@@6B@	; CBasePlayerItem `RTTI Type Descriptor'
	DD	00H
	DB	'.?AVCBasePlayerItem@@', 00H
data$r	ENDS
;	COMDAT ??_R4CBasePlayerItem@@6B@
rdata$r	SEGMENT
??_R4CBasePlayerItem@@6B@ DD 00H			; CBasePlayerItem::`RTTI Complete Object Locator'
	DD	00H
	DD	00H
	DD	FLAT:??_R0?AVCBasePlayerItem@@@8
	DD	FLAT:??_R3CBasePlayerItem@@8
rdata$r	ENDS
;	COMDAT ??_R1A@?0A@EA@IEntityFactory@@8
rdata$r	SEGMENT
??_R1A@?0A@EA@IEntityFactory@@8 DD FLAT:??_R0?AVIEntityFactory@@@8 ; IEntityFactory::`RTTI Base Class Descriptor at (0,-1,0,64)'
	DD	00H
	DD	00H
	DD	0ffffffffH
	DD	00H
	DD	040H
	DD	FLAT:??_R3IEntityFactory@@8
rdata$r	ENDS
;	COMDAT ??_R2IEntityFactory@@8
rdata$r	SEGMENT
??_R2IEntityFactory@@8 DD FLAT:??_R1A@?0A@EA@IEntityFactory@@8 ; IEntityFactory::`RTTI Base Class Array'
rdata$r	ENDS
;	COMDAT ??_R3IEntityFactory@@8
rdata$r	SEGMENT
??_R3IEntityFactory@@8 DD 00H				; IEntityFactory::`RTTI Class Hierarchy Descriptor'
	DD	00H
	DD	01H
	DD	FLAT:??_R2IEntityFactory@@8
rdata$r	ENDS
;	COMDAT ??_R0?AVIEntityFactory@@@8
data$r	SEGMENT
??_R0?AVIEntityFactory@@@8 DD FLAT:??_7type_info@@6B@	; IEntityFactory `RTTI Type Descriptor'
	DD	00H
	DB	'.?AVIEntityFactory@@', 00H
data$r	ENDS
;	COMDAT ??_R4IEntityFactory@@6B@
rdata$r	SEGMENT
??_R4IEntityFactory@@6B@ DD 00H				; IEntityFactory::`RTTI Complete Object Locator'
	DD	00H
	DD	00H
	DD	FLAT:??_R0?AVIEntityFactory@@@8
	DD	FLAT:??_R3IEntityFactory@@8
rdata$r	ENDS
;	COMDAT ??_R1A@?0A@EA@CBaseEntity@@8
rdata$r	SEGMENT
??_R1A@?0A@EA@CBaseEntity@@8 DD FLAT:??_R0?AVCBaseEntity@@@8 ; CBaseEntity::`RTTI Base Class Descriptor at (0,-1,0,64)'
	DD	00H
	DD	00H
	DD	0ffffffffH
	DD	00H
	DD	040H
	DD	FLAT:??_R3CBaseEntity@@8
rdata$r	ENDS
;	COMDAT ??_R2CBaseEntity@@8
rdata$r	SEGMENT
??_R2CBaseEntity@@8 DD FLAT:??_R1A@?0A@EA@CBaseEntity@@8 ; CBaseEntity::`RTTI Base Class Array'
rdata$r	ENDS
;	COMDAT ??_R3CBaseEntity@@8
rdata$r	SEGMENT
??_R3CBaseEntity@@8 DD 00H				; CBaseEntity::`RTTI Class Hierarchy Descriptor'
	DD	00H
	DD	01H
	DD	FLAT:??_R2CBaseEntity@@8
rdata$r	ENDS
;	COMDAT ??_R0?AVCBaseEntity@@@8
data$r	SEGMENT
??_R0?AVCBaseEntity@@@8 DD FLAT:??_7type_info@@6B@	; CBaseEntity `RTTI Type Descriptor'
	DD	00H
	DB	'.?AVCBaseEntity@@', 00H
data$r	ENDS
;	COMDAT ??_R4CBaseEntity@@6B@
rdata$r	SEGMENT
??_R4CBaseEntity@@6B@ DD 00H				; CBaseEntity::`RTTI Complete Object Locator'
	DD	00H
	DD	00H
	DD	FLAT:??_R0?AVCBaseEntity@@@8
	DD	FLAT:??_R3CBaseEntity@@8
rdata$r	ENDS
;	COMDAT ??_C@_1BE@OPPFELHC@?$AAm?$AA_?$AAp?$AAM?$AAe?$AAm?$AAo?$AAr?$AAy?$AA?$AA@
CONST	SEGMENT
??_C@_1BE@OPPFELHC@?$AAm?$AA_?$AAp?$AAM?$AAe?$AAm?$AAo?$AAr?$AAy?$AA?$AA@ DB 'm'
	DB	00H, '_', 00H, 'p', 00H, 'M', 00H, 'e', 00H, 'm', 00H, 'o', 00H
	DB	'r', 00H, 'y', 00H, 00H, 00H			; `string'
CONST	ENDS
;	COMDAT ??_C@_13COJANIEC@?$AA0?$AA?$AA@
CONST	SEGMENT
??_C@_13COJANIEC@?$AA0?$AA?$AA@ DB '0', 00H, 00H, 00H	; `string'
CONST	ENDS
;	COMDAT ??_C@_1BA@PKCLMAEA@?$AAn?$AAu?$AAm?$AA?5?$AA?$DO?$AA?5?$AA0?$AA?$AA@
CONST	SEGMENT
??_C@_1BA@PKCLMAEA@?$AAn?$AAu?$AAm?$AA?5?$AA?$DO?$AA?5?$AA0?$AA?$AA@ DB 'n'
	DB	00H, 'u', 00H, 'm', 00H, ' ', 00H, '>', 00H, ' ', 00H, '0', 00H
	DB	00H, 00H					; `string'
CONST	ENDS
;	COMDAT ??_C@_1GM@CDMJDFPA@?$AAI?$AAs?$AAV?$AAa?$AAl?$AAi?$AAd?$AAI?$AAn?$AAd?$AAe?$AAx?$AA?$CI?$AAe?$AAl?$AAe?$AAm?$AA?$CJ?$AA?5?$AA?$HM?$AA?$HM?$AA?5?$AA?$CI?$AA?5?$AAm?$AA_?$AAS?$AAi?$AAz?$AAe?$AA?5?$AA?$DN@
CONST	SEGMENT
??_C@_1GM@CDMJDFPA@?$AAI?$AAs?$AAV?$AAa?$AAl?$AAi?$AAd?$AAI?$AAn?$AAd?$AAe?$AAx?$AA?$CI?$AAe?$AAl?$AAe?$AAm?$AA?$CJ?$AA?5?$AA?$HM?$AA?$HM?$AA?5?$AA?$CI?$AA?5?$AAm?$AA_?$AAS?$AAi?$AAz?$AAe?$AA?5?$AA?$DN@ DB 'I'
	DB	00H, 's', 00H, 'V', 00H, 'a', 00H, 'l', 00H, 'i', 00H, 'd', 00H
	DB	'I', 00H, 'n', 00H, 'd', 00H, 'e', 00H, 'x', 00H, '(', 00H, 'e'
	DB	00H, 'l', 00H, 'e', 00H, 'm', 00H, ')', 00H, ' ', 00H, '|', 00H
	DB	'|', 00H, ' ', 00H, '(', 00H, ' ', 00H, 'm', 00H, '_', 00H, 'S'
	DB	00H, 'i', 00H, 'z', 00H, 'e', 00H, ' ', 00H, '=', 00H, '=', 00H
	DB	' ', 00H, '0', 00H, ' ', 00H, ')', 00H, ' ', 00H, '|', 00H, '|'
	DB	00H, ' ', 00H, '(', 00H, ' ', 00H, 'n', 00H, 'u', 00H, 'm', 00H
	DB	' ', 00H, '=', 00H, '=', 00H, ' ', 00H, '0', 00H, ' ', 00H, ')'
	DB	00H, 00H, 00H				; `string'
CONST	ENDS
;	COMDAT ??_C@_1FA@BPFBJKPF@?$AA?$CI?$AAe?$AAl?$AAe?$AAm?$AA?5?$AA?$DN?$AA?$DN?$AA?5?$AAC?$AAo?$AAu?$AAn?$AAt?$AA?$CI?$AA?$CJ?$AA?$CJ?$AA?5?$AA?$HM?$AA?$HM?$AA?5?$AAI?$AAs?$AAV?$AAa?$AAl?$AAi?$AAd?$AAI?$AAn?$AAd?$AAe@
CONST	SEGMENT
??_C@_1FA@BPFBJKPF@?$AA?$CI?$AAe?$AAl?$AAe?$AAm?$AA?5?$AA?$DN?$AA?$DN?$AA?5?$AAC?$AAo?$AAu?$AAn?$AAt?$AA?$CI?$AA?$CJ?$AA?$CJ?$AA?5?$AA?$HM?$AA?$HM?$AA?5?$AAI?$AAs?$AAV?$AAa?$AAl?$AAi?$AAd?$AAI?$AAn?$AAd?$AAe@ DB '('
	DB	00H, 'e', 00H, 'l', 00H, 'e', 00H, 'm', 00H, ' ', 00H, '=', 00H
	DB	'=', 00H, ' ', 00H, 'C', 00H, 'o', 00H, 'u', 00H, 'n', 00H, 't'
	DB	00H, '(', 00H, ')', 00H, ')', 00H, ' ', 00H, '|', 00H, '|', 00H
	DB	' ', 00H, 'I', 00H, 's', 00H, 'V', 00H, 'a', 00H, 'l', 00H, 'i'
	DB	00H, 'd', 00H, 'I', 00H, 'n', 00H, 'd', 00H, 'e', 00H, 'x', 00H
	DB	'(', 00H, 'e', 00H, 'l', 00H, 'e', 00H, 'm', 00H, ')', 00H, 00H
	DB	00H						; `string'
CONST	ENDS
;	COMDAT ??_C@_1BM@CKILBAKK@?$AAI?$AAs?$AAI?$AAd?$AAx?$AAV?$AAa?$AAl?$AAi?$AAd?$AA?$CI?$AAi?$AA?$CJ?$AA?$AA@
CONST	SEGMENT
??_C@_1BM@CKILBAKK@?$AAI?$AAs?$AAI?$AAd?$AAx?$AAV?$AAa?$AAl?$AAi?$AAd?$AA?$CI?$AAi?$AA?$CJ?$AA?$AA@ DB 'I'
	DB	00H, 's', 00H, 'I', 00H, 'd', 00H, 'x', 00H, 'V', 00H, 'a', 00H
	DB	'l', 00H, 'i', 00H, 'd', 00H, '(', 00H, 'i', 00H, ')', 00H, 00H
	DB	00H						; `string'
CONST	ENDS
;	COMDAT ??_C@_1BM@PFNFCCHH@?$AA?$CB?$AAI?$AAs?$AAR?$AAe?$AAa?$AAd?$AAO?$AAn?$AAl?$AAy?$AA?$CI?$AA?$CJ?$AA?$AA@
CONST	SEGMENT
??_C@_1BM@PFNFCCHH@?$AA?$CB?$AAI?$AAs?$AAR?$AAe?$AAa?$AAd?$AAO?$AAn?$AAl?$AAy?$AA?$CI?$AA?$CJ?$AA?$AA@ DB '!'
	DB	00H, 'I', 00H, 's', 00H, 'R', 00H, 'e', 00H, 'a', 00H, 'd', 00H
	DB	'O', 00H, 'n', 00H, 'l', 00H, 'y', 00H, '(', 00H, ')', 00H, 00H
	DB	00H						; `string'
CONST	ENDS
;	COMDAT ??_C@_1BO@FOOHAONO@?$AAn?$AAG?$AAr?$AAo?$AAw?$AAS?$AAi?$AAz?$AAe?$AA?5?$AA?$DO?$AA?$DN?$AA?5?$AA0?$AA?$AA@
CONST	SEGMENT
??_C@_1BO@FOOHAONO@?$AAn?$AAG?$AAr?$AAo?$AAw?$AAS?$AAi?$AAz?$AAe?$AA?5?$AA?$DO?$AA?$DN?$AA?5?$AA0?$AA?$AA@ DB 'n'
	DB	00H, 'G', 00H, 'r', 00H, 'o', 00H, 'w', 00H, 'S', 00H, 'i', 00H
	DB	'z', 00H, 'e', 00H, ' ', 00H, '>', 00H, '=', 00H, ' ', 00H, '0'
	DB	00H, 00H, 00H				; `string'
CONST	ENDS
;	COMDAT ??_C@_1JE@CIIIAKCN@?$AAd?$AA?3?$AA?2?$AA?$CB?$AAd?$AAi?$AAf?$AAf?$AAu?$AAs?$AAi?$AAo?$AAn?$AA?5?$AA2?$AA0?$AA2?$AA0?$AA?2?$AAs?$AAo?$AAu?$AAr?$AAc?$AAe?$AA?5?$AAc?$AAo?$AAd?$AAe?$AA?5?$AA2@
CONST	SEGMENT
??_C@_1JE@CIIIAKCN@?$AAd?$AA?3?$AA?2?$AA?$CB?$AAd?$AAi?$AAf?$AAf?$AAu?$AAs?$AAi?$AAo?$AAn?$AA?5?$AA2?$AA0?$AA2?$AA0?$AA?2?$AAs?$AAo?$AAu?$AAr?$AAc?$AAe?$AA?5?$AAc?$AAo?$AAd?$AAe?$AA?5?$AA2@ DB 'd'
	DB	00H, ':', 00H, '\', 00H, '!', 00H, 'd', 00H, 'i', 00H, 'f', 00H
	DB	'f', 00H, 'u', 00H, 's', 00H, 'i', 00H, 'o', 00H, 'n', 00H, ' '
	DB	00H, '2', 00H, '0', 00H, '2', 00H, '0', 00H, '\', 00H, 's', 00H
	DB	'o', 00H, 'u', 00H, 'r', 00H, 'c', 00H, 'e', 00H, ' ', 00H, 'c'
	DB	00H, 'o', 00H, 'd', 00H, 'e', 00H, ' ', 00H, '2', 00H, '0', 00H
	DB	'2', 00H, '2', 00H, '\', 00H, 'c', 00H, 'l', 00H, 'i', 00H, 'e'
	DB	00H, 'n', 00H, 't', 00H, '-', 00H, 's', 00H, 'e', 00H, 'r', 00H
	DB	'v', 00H, 'e', 00H, 'r', 00H, '\', 00H, 'g', 00H, 'a', 00H, 'm'
	DB	00H, 'e', 00H, '_', 00H, 's', 00H, 'h', 00H, 'a', 00H, 'r', 00H
	DB	'e', 00H, 'd', 00H, '\', 00H, 'u', 00H, 't', 00H, 'l', 00H, 'm'
	DB	00H, 'e', 00H, 'm', 00H, 'o', 00H, 'r', 00H, 'y', 00H, '.', 00H
	DB	'h', 00H, 00H, 00H				; `string'
CONST	ENDS
;	COMDAT ??_C@_1IK@DGJDJNN@?$AA?$CI?$AAB?$AAa?$AAs?$AAe?$AA?$CI?$AA?$CJ?$AA?5?$AA?$DN?$AA?$DN?$AA?5?$AAN?$AAU?$AAL?$AAL?$AA?$CJ?$AA?5?$AA?$HM?$AA?$HM?$AA?5?$AA?$CI?$AA?$CG?$AAs?$AAr?$AAc?$AA?5?$AA?$DM?$AA?5?$AAB?$AAa?$AAs?$AAe@
CONST	SEGMENT
??_C@_1IK@DGJDJNN@?$AA?$CI?$AAB?$AAa?$AAs?$AAe?$AA?$CI?$AA?$CJ?$AA?5?$AA?$DN?$AA?$DN?$AA?5?$AAN?$AAU?$AAL?$AAL?$AA?$CJ?$AA?5?$AA?$HM?$AA?$HM?$AA?5?$AA?$CI?$AA?$CG?$AAs?$AAr?$AAc?$AA?5?$AA?$DM?$AA?5?$AAB?$AAa?$AAs?$AAe@ DB '('
	DB	00H, 'B', 00H, 'a', 00H, 's', 00H, 'e', 00H, '(', 00H, ')', 00H
	DB	' ', 00H, '=', 00H, '=', 00H, ' ', 00H, 'N', 00H, 'U', 00H, 'L'
	DB	00H, 'L', 00H, ')', 00H, ' ', 00H, '|', 00H, '|', 00H, ' ', 00H
	DB	'(', 00H, '&', 00H, 's', 00H, 'r', 00H, 'c', 00H, ' ', 00H, '<'
	DB	00H, ' ', 00H, 'B', 00H, 'a', 00H, 's', 00H, 'e', 00H, '(', 00H
	DB	')', 00H, ')', 00H, ' ', 00H, '|', 00H, '|', 00H, ' ', 00H, '('
	DB	00H, '&', 00H, 's', 00H, 'r', 00H, 'c', 00H, ' ', 00H, '>', 00H
	DB	'=', 00H, ' ', 00H, '(', 00H, 'B', 00H, 'a', 00H, 's', 00H, 'e'
	DB	00H, '(', 00H, ')', 00H, ' ', 00H, '+', 00H, ' ', 00H, 'C', 00H
	DB	'o', 00H, 'u', 00H, 'n', 00H, 't', 00H, '(', 00H, ')', 00H, ')'
	DB	00H, ' ', 00H, ')', 00H, 00H, 00H		; `string'
CONST	ENDS
;	COMDAT ??_C@_1JC@EMNIBBBG@?$AAd?$AA?3?$AA?2?$AA?$CB?$AAd?$AAi?$AAf?$AAf?$AAu?$AAs?$AAi?$AAo?$AAn?$AA?5?$AA2?$AA0?$AA2?$AA0?$AA?2?$AAs?$AAo?$AAu?$AAr?$AAc?$AAe?$AA?5?$AAc?$AAo?$AAd?$AAe?$AA?5?$AA2@
CONST	SEGMENT
??_C@_1JC@EMNIBBBG@?$AAd?$AA?3?$AA?2?$AA?$CB?$AAd?$AAi?$AAf?$AAf?$AAu?$AAs?$AAi?$AAo?$AAn?$AA?5?$AA2?$AA0?$AA2?$AA0?$AA?2?$AAs?$AAo?$AAu?$AAr?$AAc?$AAe?$AA?5?$AAc?$AAo?$AAd?$AAe?$AA?5?$AA2@ DB 'd'
	DB	00H, ':', 00H, '\', 00H, '!', 00H, 'd', 00H, 'i', 00H, 'f', 00H
	DB	'f', 00H, 'u', 00H, 's', 00H, 'i', 00H, 'o', 00H, 'n', 00H, ' '
	DB	00H, '2', 00H, '0', 00H, '2', 00H, '0', 00H, '\', 00H, 's', 00H
	DB	'o', 00H, 'u', 00H, 'r', 00H, 'c', 00H, 'e', 00H, ' ', 00H, 'c'
	DB	00H, 'o', 00H, 'd', 00H, 'e', 00H, ' ', 00H, '2', 00H, '0', 00H
	DB	'2', 00H, '2', 00H, '\', 00H, 'c', 00H, 'l', 00H, 'i', 00H, 'e'
	DB	00H, 'n', 00H, 't', 00H, '-', 00H, 's', 00H, 'e', 00H, 'r', 00H
	DB	'v', 00H, 'e', 00H, 'r', 00H, '\', 00H, 'g', 00H, 'a', 00H, 'm'
	DB	00H, 'e', 00H, '_', 00H, 's', 00H, 'h', 00H, 'a', 00H, 'r', 00H
	DB	'e', 00H, 'd', 00H, '\', 00H, 'u', 00H, 't', 00H, 'l', 00H, 'a'
	DB	00H, 'r', 00H, 'r', 00H, 'a', 00H, 'y', 00H, '.', 00H, 'h', 00H
	DB	00H, 00H					; `string'
CONST	ENDS
;	COMDAT ??_C@_0N@FDODGIHO@ammo_rpgclip?$AA@
CONST	SEGMENT
??_C@_0N@FDODGIHO@ammo_rpgclip?$AA@ DB 'ammo_rpgclip', 00H ; `string'
CONST	ENDS
;	COMDAT ??_7?$CEntityFactory@VCRpgAmmo@@@@6B@
CONST	SEGMENT
??_7?$CEntityFactory@VCRpgAmmo@@@@6B@ DD FLAT:??_R4?$CEntityFactory@VCRpgAmmo@@@@6B@ ; CEntityFactory<CRpgAmmo>::`vftable'
	DD	FLAT:?Create@?$CEntityFactory@VCRpgAmmo@@@@UAEPAVCBaseEntity@@PBDPAUentvars_s@@@Z
	DD	FLAT:?Destroy@?$CEntityFactory@VCRpgAmmo@@@@UAEXPAVCBaseEntity@@@Z
	DD	FLAT:?GetEntitySize@?$CEntityFactory@VCRpgAmmo@@@@UAEIXZ
CONST	ENDS
;	COMDAT ??_C@_0BF@ONHNEHHH@models?1w_rpgammo?4mdl?$AA@
CONST	SEGMENT
??_C@_0BF@ONHNEHHH@models?1w_rpgammo?4mdl?$AA@ DB 'models/w_rpgammo.mdl', 00H ; `string'
CONST	ENDS
;	COMDAT ??_7CRpgAmmo@@6B@
CONST	SEGMENT
??_7CRpgAmmo@@6B@ DD FLAT:??_R4CRpgAmmo@@6B@		; CRpgAmmo::`vftable'
	DD	FLAT:?GetDataDescMap@CBasePlayerAmmo@@UAEPAUdatamap_s@@XZ
	DD	FLAT:?Spawn@CRpgAmmo@@EAEXXZ
	DD	FLAT:?Precache@CRpgAmmo@@EAEXXZ
	DD	FLAT:?KeyValue@CBaseEntity@@UAEXPAUKeyValueData_s@@@Z
	DD	FLAT:?Save@CBaseEntity@@UAEHAAVCSave@@@Z
	DD	FLAT:?Restore@CBaseEntity@@UAEHAAVCRestore@@@Z
	DD	FLAT:?ObjectCaps@CBaseEntity@@UAEHXZ
	DD	FLAT:?Activate@CBaseEntity@@UAEXXZ
	DD	FLAT:?OnChangeLevel@CBaseEntity@@UAEXXZ
	DD	FLAT:?OnTeleport@CBaseEntity@@UAEXXZ
	DD	FLAT:?PortalSleep@CBaseEntity@@UAEXM@Z
	DD	FLAT:?StartMessage@CBaseEntity@@UAEXPAVCBasePlayer@@@Z
	DD	FLAT:?GetPosition@CBaseEntity@@UAEMXZ
	DD	FLAT:?OnChangeParent@CBaseEntity@@UAEXXZ
	DD	FLAT:?OnClearParent@CBaseEntity@@UAEXXZ
	DD	FLAT:?OnRemove@CBaseEntity@@UAEXXZ
	DD	FLAT:?SetObjectCollisionBox@CBaseEntity@@UAEXXZ
	DD	FLAT:?Classify@CBaseEntity@@UAEHXZ
	DD	FLAT:?DeathNotice@CBaseEntity@@UAEXPAUentvars_s@@@Z
	DD	FLAT:?IsRigidBody@CBaseEntity@@UAEHXZ
	DD	FLAT:?SetNextThink@CBaseEntity@@UAEXM@Z
	DD	FLAT:?GetState@CBaseEntity@@UAE?AW4STATE@@PAV1@@Z
	DD	FLAT:?GetState@CBaseEntity@@UAE?AW4STATE@@XZ
	DD	FLAT:?TraceAttack@CBaseEntity@@UAEXPAUentvars_s@@MVVector@@PAUgametrace_s@@H@Z
	DD	FLAT:?TakeDamage@CBaseEntity@@UAEHPAUentvars_s@@0MH@Z
	DD	FLAT:?TakeHealth@CBaseEntity@@UAEHMH@Z
	DD	FLAT:?TakeArmor@CBaseEntity@@UAEHMH@Z
	DD	FLAT:?Killed@CBaseEntity@@UAEXPAUentvars_s@@H@Z
	DD	FLAT:?BloodColor@CBaseEntity@@UAEHXZ
	DD	FLAT:?TraceBleed@CBaseEntity@@UAEXMVVector@@PAUgametrace_s@@H@Z
	DD	FLAT:?IsTriggered@CBaseEntity@@UAEHPAV1@@Z
	DD	FLAT:?MyMonsterPointer@CBaseEntity@@UAEPAVCBaseMonster@@XZ
	DD	FLAT:?MySquadMonsterPointer@CBaseEntity@@UAEPAVCSquadMonster@@XZ
	DD	FLAT:?GetToggleState@CBaseEntity@@UAEHXZ
	DD	FLAT:?AddPoints@CBaseEntity@@UAEXHH@Z
	DD	FLAT:?AddPointsToTeam@CBaseEntity@@UAEXHH@Z
	DD	FLAT:?AddPlayerItem@CBaseEntity@@UAEHPAVCBasePlayerItem@@@Z
	DD	FLAT:?RemovePlayerItem@CBaseEntity@@UAEHPAVCBasePlayerItem@@@Z
	DD	FLAT:?GiveAmmo@CBaseEntity@@UAEHHPADH@Z
	DD	FLAT:?GetDelay@CBaseEntity@@UAEMXZ
	DD	FLAT:?IsMoving@CBaseEntity@@UAEHXZ
	DD	FLAT:?OverrideReset@CBaseEntity@@UAEXXZ
	DD	FLAT:?TransferReset@CBaseEntity@@UAEXXZ
	DD	FLAT:?DamageDecal@CBaseEntity@@UAEHH@Z
	DD	FLAT:?SetToggleState@CBaseEntity@@UAEXH@Z
	DD	FLAT:?StartSneaking@CBaseEntity@@UAEXXZ
	DD	FLAT:?StopSneaking@CBaseEntity@@UAEXXZ
	DD	FLAT:?OnControls@CBaseEntity@@UAEHPAV1@@Z
	DD	FLAT:?IsSneaking@CBaseEntity@@UAEHXZ
	DD	FLAT:?IsAlive@CBaseEntity@@UAEHXZ
	DD	FLAT:?IsBSPModel@CBaseEntity@@UAEHXZ
	DD	FLAT:?IsCustomModel@CBaseEntity@@UAEHXZ
	DD	FLAT:?ReflectGauss@CBaseEntity@@UAEHXZ
	DD	FLAT:?HasTarget@CBaseEntity@@UAEHH@Z
	DD	FLAT:?IsInWorld@CBaseEntity@@UAEHH@Z
	DD	FLAT:?IsPlayer@CBaseEntity@@UAEHXZ
	DD	FLAT:?IsNetClient@CBaseEntity@@UAEHXZ
	DD	FLAT:?IsMonster@CBaseEntity@@UAEHXZ
	DD	FLAT:?IsPushable@CBaseEntity@@UAEHXZ
	DD	FLAT:?IsProjectile@CBaseEntity@@UAEHXZ
	DD	FLAT:?IsFuncScreen@CBaseEntity@@UAEHXZ
	DD	FLAT:?IsPortal@CBaseEntity@@UAEHXZ
	DD	FLAT:?IsTank@CBaseEntity@@UAEHXZ
	DD	FLAT:?IsMover@CBaseEntity@@UAEHXZ
	DD	FLAT:?IsBreakable@CBaseEntity@@UAEHXZ
	DD	FLAT:?TeamID@CBaseEntity@@UAEPBDXZ
	DD	FLAT:?AddSpawnFlags@CBaseEntity@@UAEXH@Z
	DD	FLAT:?HasSpawnFlags@CBaseEntity@@UBE_NH@Z
	DD	FLAT:?SetFadeDistance@CBaseEntity@@UAEXH@Z
	DD	FLAT:?SetFlag@CBaseEntity@@UAEXH@Z
	DD	FLAT:?HasFlag@CBaseEntity@@UBE_NH@Z
	DD	FLAT:?RemoveFlag@CBaseEntity@@UAEXH@Z
	DD	FLAT:?SetNullModel@CBaseEntity@@UAEXXZ
	DD	FLAT:?OnPickupObject@CBaseEntity@@UAEXXZ
	DD	FLAT:?OnDropObject@CBaseEntity@@UAEXXZ
	DD	FLAT:?GetNextTarget@CBaseEntity@@UAEPAV1@XZ
	DD	FLAT:?Think@CBaseEntity@@UAEXXZ
	DD	FLAT:?Use@CBaseEntity@@UAEXPAV1@0W4USE_TYPE@@M@Z
	DD	FLAT:?Touch@CBaseEntity@@UAEXPAV1@@Z
	DD	FLAT:?Blocked@CBaseEntity@@UAEXPAV1@@Z
	DD	FLAT:?MoveDone@CBaseEntity@@UAEXXZ
	DD	FLAT:?Respawn@CBasePlayerAmmo@@UAEPAVCBaseEntity@@XZ
	DD	FLAT:?UpdateOwner@CBaseEntity@@UAEXXZ
	DD	FLAT:?FBecomeProne@CBaseEntity@@UAEHXZ
	DD	FLAT:?Center@CBaseEntity@@UAE?AVVector@@XZ
	DD	FLAT:?EyePosition@CBaseEntity@@UAE?AVVector@@XZ
	DD	FLAT:?EarPosition@CBaseEntity@@UAE?AVVector@@XZ
	DD	FLAT:?BodyTarget@CBaseEntity@@UAE?AVVector@@ABV2@@Z
	DD	FLAT:?IsPointSized@CBaseEntity@@UBEHXZ
	DD	FLAT:?Illumination@CBaseEntity@@UAEHXZ
	DD	FLAT:?FVisible@CBaseEntity@@UAEHABVVector@@@Z
	DD	FLAT:?FVisible@CBaseEntity@@UAEHPAV1@@Z
	DD	FLAT:?ShouldCollide@CBaseEntity@@UAEHPAV1@@Z
	DD	FLAT:?ClearEffects@CBaseEntity@@UAEXXZ
	DD	FLAT:?AddAmmo@CRpgAmmo@@EAEHPAVCBaseEntity@@@Z
CONST	ENDS
;	COMDAT ??_C@_08MNDBFPDE@?9attack?6?$AA@
CONST	SEGMENT
??_C@_08MNDBFPDE@?9attack?6?$AA@ DB '-attack', 0aH, 00H	; `string'
CONST	ENDS
;	COMDAT ??_C@_03GBMANNME@rpg?$AA@
CONST	SEGMENT
??_C@_03GBMANNME@rpg?$AA@ DB 'rpg', 00H			; `string'
CONST	ENDS
;	COMDAT ??_C@_07DCMGFMFH@rockets?$AA@
CONST	SEGMENT
??_C@_07DCMGFMFH@rockets?$AA@ DB 'rockets', 00H		; `string'
CONST	ENDS
;	COMDAT ??_C@_0BG@MDAACEKK@weapons?1glauncher?4wav?$AA@
CONST	SEGMENT
??_C@_0BG@MDAACEKK@weapons?1glauncher?4wav?$AA@ DB 'weapons/glauncher.wav'
	DB	00H						; `string'
CONST	ENDS
;	COMDAT ??_C@_0BI@IJKHDNAN@weapons?1rocketfire1?4wav?$AA@
CONST	SEGMENT
??_C@_0BI@IJKHDNAN@weapons?1rocketfire1?4wav?$AA@ DB 'weapons/rocketfire1'
	DB	'.wav', 00H					; `string'
CONST	ENDS
;	COMDAT ??_C@_0BD@BADMCPNB@items?19mmclip1?4wav?$AA@
CONST	SEGMENT
??_C@_0BD@BADMCPNB@items?19mmclip1?4wav?$AA@ DB 'items/9mmclip1.wav', 00H ; `string'
CONST	ENDS
;	COMDAT ??_C@_0BB@IPEABBGA@models?1p_rpg?4mdl?$AA@
CONST	SEGMENT
??_C@_0BB@IPEABBGA@models?1p_rpg?4mdl?$AA@ DB 'models/p_rpg.mdl', 00H ; `string'
CONST	ENDS
;	COMDAT ??_C@_0BB@ICFOGBCH@models?1v_rpg?4mdl?$AA@
CONST	SEGMENT
??_C@_0BB@ICFOGBCH@models?1v_rpg?4mdl?$AA@ DB 'models/v_rpg.mdl', 00H ; `string'
CONST	ENDS
;	COMDAT ??_C@_0BB@GNJMAKBJ@models?1w_rpg?4mdl?$AA@
CONST	SEGMENT
??_C@_0BB@GNJMAKBJ@models?1w_rpg?4mdl?$AA@ DB 'models/w_rpg.mdl', 00H ; `string'
CONST	ENDS
;	COMDAT ??_C@_0BL@GIKGMOAO@?$CGCRoboRocket2?3?3FollowThink?$AA@
CONST	SEGMENT
??_C@_0BL@GIKGMOAO@?$CGCRoboRocket2?3?3FollowThink?$AA@ DB '&CRoboRocket2'
	DB	'::FollowThink', 00H				; `string'
CONST	ENDS
;	COMDAT ??_C@_0N@GFJBOHAK@spark_shower?$AA@
CONST	SEGMENT
??_C@_0N@GFJBOHAK@spark_shower?$AA@ DB 'spark_shower', 00H ; `string'
CONST	ENDS
;	COMDAT ??_C@_0BB@KDDMBFAP@?$CGCGrenade?3?3Smoke?$AA@
CONST	SEGMENT
??_C@_0BB@KDDMBFAP@?$CGCGrenade?3?3Smoke?$AA@ DB '&CGrenade::Smoke', 00H ; `string'
CONST	ENDS
;	COMDAT ??_C@_0BE@NEFCKBPJ@weapons?1debris3?4wav?$AA@
CONST	SEGMENT
??_C@_0BE@NEFCKBPJ@weapons?1debris3?4wav?$AA@ DB 'weapons/debris3.wav', 00H ; `string'
CONST	ENDS
;	COMDAT ??_C@_0BE@BPAOHCFM@weapons?1debris2?4wav?$AA@
CONST	SEGMENT
??_C@_0BE@BPAOHCFM@weapons?1debris2?4wav?$AA@ DB 'weapons/debris2.wav', 00H ; `string'
CONST	ENDS
;	COMDAT ??_C@_0BE@JJJKAAPC@weapons?1debris1?4wav?$AA@
CONST	SEGMENT
??_C@_0BE@JJJKAAPC@weapons?1debris1?4wav?$AA@ DB 'weapons/debris1.wav', 00H ; `string'
CONST	ENDS
;	COMDAT ??_C@_0BL@NJOANMDL@?$CGCRoboRocket2?3?3RocketTouch?$AA@
CONST	SEGMENT
??_C@_0BL@NJOANMDL@?$CGCRoboRocket2?3?3RocketTouch?$AA@ DB '&CRoboRocket2'
	DB	'::RocketTouch', 00H				; `string'
CONST	ENDS
;	COMDAT ??_C@_0BL@DPADIFNC@?$CGCRoboRocket2?3?3IgniteThink?$AA@
CONST	SEGMENT
??_C@_0BL@DPADIFNC@?$CGCRoboRocket2?3?3IgniteThink?$AA@ DB '&CRoboRocket2'
	DB	'::IgniteThink', 00H				; `string'
CONST	ENDS
;	COMDAT ??_C@_0O@KKBBKKAJ@RocketExplode?$AA@
CONST	SEGMENT
??_C@_0O@KKBBKKAJ@RocketExplode?$AA@ DB 'RocketExplode', 00H ; `string'
CONST	ENDS
;	COMDAT ??_C@_0N@LECDHPON@robo_rocket2?$AA@
CONST	SEGMENT
??_C@_0N@LECDHPON@robo_rocket2?$AA@ DB 'robo_rocket2', 00H ; `string'
CONST	ENDS
;	COMDAT ??_7?$CEntityFactory@VCRoboRocket2@@@@6B@
CONST	SEGMENT
??_7?$CEntityFactory@VCRoboRocket2@@@@6B@ DD FLAT:??_R4?$CEntityFactory@VCRoboRocket2@@@@6B@ ; CEntityFactory<CRoboRocket2>::`vftable'
	DD	FLAT:?Create@?$CEntityFactory@VCRoboRocket2@@@@UAEPAVCBaseEntity@@PBDPAUentvars_s@@@Z
	DD	FLAT:?Destroy@?$CEntityFactory@VCRoboRocket2@@@@UAEXPAVCBaseEntity@@@Z
	DD	FLAT:?GetEntitySize@?$CEntityFactory@VCRoboRocket2@@@@UAEIXZ
CONST	ENDS
;	COMDAT ??_7CRoboRocket2@@6B@
CONST	SEGMENT
??_7CRoboRocket2@@6B@ DD FLAT:??_R4CRoboRocket2@@6B@	; CRoboRocket2::`vftable'
	DD	FLAT:?GetDataDescMap@CRoboRocket2@@UAEPAUdatamap_s@@XZ
	DD	FLAT:?Spawn@CRoboRocket2@@UAEXXZ
	DD	FLAT:?Precache@CRoboRocket2@@UAEXXZ
	DD	FLAT:?KeyValue@CBaseMonster@@UAEXPAUKeyValueData_s@@@Z
	DD	FLAT:?Save@CBaseEntity@@UAEHAAVCSave@@@Z
	DD	FLAT:?Restore@CBaseMonster@@UAEHAAVCRestore@@@Z
	DD	FLAT:?ObjectCaps@CBaseEntity@@UAEHXZ
	DD	FLAT:?Activate@CBaseEntity@@UAEXXZ
	DD	FLAT:?OnChangeLevel@CBaseEntity@@UAEXXZ
	DD	FLAT:?OnTeleport@CRoboRocket2@@UAEXXZ
	DD	FLAT:?PortalSleep@CBaseEntity@@UAEXM@Z
	DD	FLAT:?StartMessage@CBaseEntity@@UAEXPAVCBasePlayer@@@Z
	DD	FLAT:?GetPosition@CBaseEntity@@UAEMXZ
	DD	FLAT:?OnChangeParent@CBaseEntity@@UAEXXZ
	DD	FLAT:?OnClearParent@CBaseEntity@@UAEXXZ
	DD	FLAT:?OnRemove@CBaseEntity@@UAEXXZ
	DD	FLAT:?SetObjectCollisionBox@CBaseEntity@@UAEXXZ
	DD	FLAT:?Classify@CBaseMonster@@UAEHXZ
	DD	FLAT:?DeathNotice@CBaseEntity@@UAEXPAUentvars_s@@@Z
	DD	FLAT:?IsRigidBody@CBaseEntity@@UAEHXZ
	DD	FLAT:?SetNextThink@CBaseEntity@@UAEXM@Z
	DD	FLAT:?GetState@CBaseEntity@@UAE?AW4STATE@@PAV1@@Z
	DD	FLAT:?GetState@CBaseToggle@@UAE?AW4STATE@@XZ
	DD	FLAT:?TraceAttack@CBaseMonster@@UAEXPAUentvars_s@@MVVector@@PAUgametrace_s@@H@Z
	DD	FLAT:?TakeDamage@CBaseMonster@@UAEHPAUentvars_s@@0MH@Z
	DD	FLAT:?TakeHealth@CBaseMonster@@UAEHMH@Z
	DD	FLAT:?TakeArmor@CBaseEntity@@UAEHMH@Z
	DD	FLAT:?Killed@CGrenade@@UAEXPAUentvars_s@@H@Z
	DD	FLAT:?BloodColor@CGrenade@@UAEHXZ
	DD	FLAT:?TraceBleed@CBaseEntity@@UAEXMVVector@@PAUgametrace_s@@H@Z
	DD	FLAT:?IsTriggered@CBaseEntity@@UAEHPAV1@@Z
	DD	FLAT:?MyMonsterPointer@CBaseMonster@@UAEPAV1@XZ
	DD	FLAT:?MySquadMonsterPointer@CBaseEntity@@UAEPAVCSquadMonster@@XZ
	DD	FLAT:?GetToggleState@CBaseToggle@@UAEHXZ
	DD	FLAT:?AddPoints@CBaseEntity@@UAEXHH@Z
	DD	FLAT:?AddPointsToTeam@CBaseEntity@@UAEXHH@Z
	DD	FLAT:?AddPlayerItem@CBaseEntity@@UAEHPAVCBasePlayerItem@@@Z
	DD	FLAT:?RemovePlayerItem@CBaseEntity@@UAEHPAVCBasePlayerItem@@@Z
	DD	FLAT:?GiveAmmo@CBaseEntity@@UAEHHPADH@Z
	DD	FLAT:?GetDelay@CBaseToggle@@UAEMXZ
	DD	FLAT:?IsMoving@CBaseMonster@@UAEHXZ
	DD	FLAT:?OverrideReset@CBaseEntity@@UAEXXZ
	DD	FLAT:?TransferReset@CBaseEntity@@UAEXXZ
	DD	FLAT:?DamageDecal@CBaseMonster@@UAEHH@Z
	DD	FLAT:?SetToggleState@CBaseEntity@@UAEXH@Z
	DD	FLAT:?StartSneaking@CBaseEntity@@UAEXXZ
	DD	FLAT:?StopSneaking@CBaseEntity@@UAEXXZ
	DD	FLAT:?OnControls@CBaseEntity@@UAEHPAV1@@Z
	DD	FLAT:?IsSneaking@CBaseEntity@@UAEHXZ
	DD	FLAT:?IsAlive@CBaseMonster@@UAEHXZ
	DD	FLAT:?IsBSPModel@CBaseEntity@@UAEHXZ
	DD	FLAT:?IsCustomModel@CBaseEntity@@UAEHXZ
	DD	FLAT:?ReflectGauss@CBaseEntity@@UAEHXZ
	DD	FLAT:?HasTarget@CBaseEntity@@UAEHH@Z
	DD	FLAT:?IsInWorld@CBaseEntity@@UAEHH@Z
	DD	FLAT:?IsPlayer@CBaseEntity@@UAEHXZ
	DD	FLAT:?IsNetClient@CBaseEntity@@UAEHXZ
	DD	FLAT:?IsMonster@CBaseEntity@@UAEHXZ
	DD	FLAT:?IsPushable@CBaseEntity@@UAEHXZ
	DD	FLAT:?IsProjectile@CGrenade@@UAEHXZ
	DD	FLAT:?IsFuncScreen@CBaseEntity@@UAEHXZ
	DD	FLAT:?IsPortal@CBaseEntity@@UAEHXZ
	DD	FLAT:?IsTank@CBaseEntity@@UAEHXZ
	DD	FLAT:?IsMover@CBaseEntity@@UAEHXZ
	DD	FLAT:?IsBreakable@CBaseEntity@@UAEHXZ
	DD	FLAT:?TeamID@CBaseEntity@@UAEPBDXZ
	DD	FLAT:?AddSpawnFlags@CBaseEntity@@UAEXH@Z
	DD	FLAT:?HasSpawnFlags@CBaseEntity@@UBE_NH@Z
	DD	FLAT:?SetFadeDistance@CBaseEntity@@UAEXH@Z
	DD	FLAT:?SetFlag@CBaseEntity@@UAEXH@Z
	DD	FLAT:?HasFlag@CBaseEntity@@UBE_NH@Z
	DD	FLAT:?RemoveFlag@CBaseEntity@@UAEXH@Z
	DD	FLAT:?SetNullModel@CBaseEntity@@UAEXXZ
	DD	FLAT:?OnPickupObject@CBaseEntity@@UAEXXZ
	DD	FLAT:?OnDropObject@CBaseEntity@@UAEXXZ
	DD	FLAT:?GetNextTarget@CBaseEntity@@UAEPAV1@XZ
	DD	FLAT:?Think@CBaseEntity@@UAEXXZ
	DD	FLAT:?Use@CBaseEntity@@UAEXPAV1@0W4USE_TYPE@@M@Z
	DD	FLAT:?Touch@CBaseEntity@@UAEXPAV1@@Z
	DD	FLAT:?Blocked@CBaseEntity@@UAEXPAV1@@Z
	DD	FLAT:?MoveDone@CBaseToggle@@UAEXXZ
	DD	FLAT:?Respawn@CBaseEntity@@UAEPAV1@XZ
	DD	FLAT:?UpdateOwner@CBaseEntity@@UAEXXZ
	DD	FLAT:?FBecomeProne@CBaseMonster@@UAEHXZ
	DD	FLAT:?Center@CBaseEntity@@UAE?AVVector@@XZ
	DD	FLAT:?EyePosition@CBaseEntity@@UAE?AVVector@@XZ
	DD	FLAT:?EarPosition@CBaseEntity@@UAE?AVVector@@XZ
	DD	FLAT:?BodyTarget@CBaseMonster@@UAE?AVVector@@ABV2@@Z
	DD	FLAT:?IsPointSized@CBaseEntity@@UBEHXZ
	DD	FLAT:?Illumination@CBaseEntity@@UAEHXZ
	DD	FLAT:?FVisible@CBaseEntity@@UAEHABVVector@@@Z
	DD	FLAT:?FVisible@CBaseEntity@@UAEHPAV1@@Z
	DD	FLAT:?ShouldCollide@CBaseEntity@@UAEHPAV1@@Z
	DD	FLAT:?ClearEffects@CGrenade@@UAEXXZ
	DD	FLAT:?HandleAnimEvent@CBaseMonster@@UAEXPAUMonsterEvent_t@@@Z
	DD	FLAT:?Look@CBaseMonster@@UAEXH@Z
	DD	FLAT:?RunAI@CBaseMonster@@UAEXXZ
	DD	FLAT:?ShouldFadeOnDeath@CBaseMonster@@UAEHXZ
	DD	FLAT:?ChangeYaw@CBaseMonster@@UAEMH@Z
	DD	FLAT:?MonsterThink@CBaseMonster@@UAEXXZ
	DD	FLAT:?IRelationship@CBaseMonster@@UAEHPAVCBaseEntity@@@Z
	DD	FLAT:?MonsterInit@CBaseMonster@@UAEXXZ
	DD	FLAT:?MonsterInitDead@CBaseMonster@@UAEXXZ
	DD	FLAT:?BecomeDead@CBaseMonster@@UAEXXZ
	DD	FLAT:?StartMonster@CBaseMonster@@UAEXXZ
	DD	FLAT:?BestVisibleEnemy@CBaseMonster@@UAEPAVCBaseEntity@@XZ
	DD	FLAT:?FInViewCone@CBaseMonster@@UAEHPAVVector@@@Z
	DD	FLAT:?FInViewCone@CBaseMonster@@UAEHPAVCBaseEntity@@M@Z
	DD	FLAT:?CheckLocalMove@CBaseMonster@@UAEHABVVector@@0PAVCBaseEntity@@PAM@Z
	DD	FLAT:?Move@CBaseMonster@@UAEXM@Z
	DD	FLAT:?MoveExecute@CBaseMonster@@UAEXPAVCBaseEntity@@ABVVector@@M@Z
	DD	FLAT:?ShouldAdvanceRoute@CBaseMonster@@UAEHM@Z
	DD	FLAT:?GetStoppedActivity@CBaseMonster@@UAE?AW4Activity@@XZ
	DD	FLAT:?Stop@CBaseMonster@@UAEXXZ
	DD	FLAT:?CheckRangeAttack1@CBaseMonster@@UAEHMM@Z
	DD	FLAT:?CheckRangeAttack2@CBaseMonster@@UAEHMM@Z
	DD	FLAT:?CheckMeleeAttack1@CBaseMonster@@UAEHMM@Z
	DD	FLAT:?CheckMeleeAttack2@CBaseMonster@@UAEHMM@Z
	DD	FLAT:?ScheduleFromName@CBaseMonster@@UAEPAUSchedule_t@@PBD@Z
	DD	FLAT:?StartTask@CBaseMonster@@UAEXPAUTask_t@@@Z
	DD	FLAT:?RunTask@CBaseMonster@@UAEXPAUTask_t@@@Z
	DD	FLAT:?GetScheduleOfType@CBaseMonster@@UAEPAUSchedule_t@@H@Z
	DD	FLAT:?GetSchedule@CBaseMonster@@UAEPAUSchedule_t@@XZ
	DD	FLAT:?ScheduleChange@CBaseMonster@@UAEXXZ
	DD	FLAT:?CanPlaySequence@CBaseMonster@@UAEHHH@Z
	DD	FLAT:?CanPlaySentence@CBaseMonster@@UAEHH@Z
	DD	FLAT:?PlaySentence@CBaseMonster@@UAEXPBDMMMH@Z
	DD	FLAT:?PlayScriptedSentence@CBaseMonster@@UAEXPBDMMMHPAVCBaseEntity@@H@Z
	DD	FLAT:?SentenceStop@CBaseMonster@@UAEXXZ
	DD	FLAT:?GetIdealState@CBaseMonster@@UAE?AW4MONSTERSTATE@@XZ
	DD	FLAT:?SetActivity@CBaseMonster@@UAEXW4Activity@@@Z
	DD	FLAT:?ReportAIState@CBaseMonster@@UAEXXZ
	DD	FLAT:?CheckEnemy@CBaseMonster@@UAEHPAVCBaseEntity@@@Z
	DD	FLAT:?FTriangulate@CBaseMonster@@UAEHABVVector@@0MPAVCBaseEntity@@PAV2@@Z
	DD	FLAT:?SetYawSpeed@CBaseMonster@@UAEXXZ
	DD	FLAT:?BuildNearestRoute@CBaseMonster@@UAEHVVector@@0MM@Z
	DD	FLAT:?FindCover@CBaseMonster@@UAEHVVector@@0MM@Z
	DD	FLAT:?FindRunAway@CBaseMonster@@UAEHVVector@@MM@Z
	DD	FLAT:?FValidateCover@CBaseMonster@@UAEHABVVector@@@Z
	DD	FLAT:?CoverRadius@CBaseMonster@@UAEMXZ
	DD	FLAT:?FCanCheckAttacks@CBaseMonster@@UAEHXZ
	DD	FLAT:?CheckAmmo@CBaseMonster@@UAEXXZ
	DD	FLAT:?IgnoreConditions@CBaseMonster@@UAEHXZ
	DD	FLAT:?FValidateHintType@CBaseMonster@@UAEHF@Z
	DD	FLAT:?FCanActiveIdle@CBaseMonster@@UAEHXZ
	DD	FLAT:?ISoundMask@CBaseMonster@@UAEHXZ
	DD	FLAT:?PBestSound@CBaseMonster@@UAEPAVCSound@@XZ
	DD	FLAT:?PBestScent@CBaseMonster@@UAEPAVCSound@@XZ
	DD	FLAT:?HearingSensitivity@CBaseMonster@@UAEMXZ
	DD	FLAT:?BarnacleVictimBitten@CBaseMonster@@UAEXPAUentvars_s@@@Z
	DD	FLAT:?BarnacleVictimReleased@CBaseMonster@@UAEXXZ
	DD	FLAT:?PrescheduleThink@CBaseMonster@@UAEXXZ
	DD	FLAT:?GetDeathActivity@CBaseMonster@@UAE?AW4Activity@@XZ
	DD	FLAT:?GibMonster@CBaseMonster@@UAEXXZ
	DD	FLAT:?HasHumanGibs@CBaseMonster@@UAEHXZ
	DD	FLAT:?HasAlienGibs@CBaseMonster@@UAEHXZ
	DD	FLAT:?FadeMonster@CBaseMonster@@UAEXXZ
	DD	FLAT:?GetGunPosition@CBaseMonster@@UAE?AVVector@@XZ
	DD	FLAT:?DeathSound@CBaseMonster@@UAEXXZ
	DD	FLAT:?AlertSound@CBaseMonster@@UAEXXZ
	DD	FLAT:?IdleSound@CBaseMonster@@UAEXXZ
	DD	FLAT:?PainSound@CBaseMonster@@UAEXXZ
	DD	FLAT:?StepSound@CBaseMonster@@UAEXXZ
	DD	FLAT:?StopFollowing@CBaseMonster@@UAEXH@Z
	DD	FLAT:?BounceSound@CGrenade@@UAEXXZ
CONST	ENDS
;	COMDAT ??_C@_0L@PKAMAFCB@laser_spot?$AA@
CONST	SEGMENT
??_C@_0L@PKAMAFCB@laser_spot?$AA@ DB 'laser_spot', 00H	; `string'
CONST	ENDS
;	COMDAT ??_C@_0BJ@DNDGCEJF@?$CGCRpgRocket?3?3FollowThink?$AA@
CONST	SEGMENT
??_C@_0BJ@DNDGCEJF@?$CGCRpgRocket?3?3FollowThink?$AA@ DB '&CRpgRocket::Fo'
	DB	'llowThink', 00H				; `string'
CONST	ENDS
;	COMDAT ??_C@_0BI@JDBICBFF@?$CGCRpgRocket?3?3AugerThink?$AA@
CONST	SEGMENT
??_C@_0BI@JDBICBFF@?$CGCRpgRocket?3?3AugerThink?$AA@ DB '&CRpgRocket::Aug'
	DB	'erThink', 00H				; `string'
CONST	ENDS
;	COMDAT ??_C@_0P@DFJONIEE@monster_apache?$AA@
CONST	SEGMENT
??_C@_0P@DFJONIEE@monster_apache?$AA@ DB 'monster_apache', 00H ; `string'
CONST	ENDS
;	COMDAT ??_C@_0BI@OOPPOBKK@?$CGCGrenade?3?3ExplodeTouch?$AA@
CONST	SEGMENT
??_C@_0BI@OOPPOBKK@?$CGCGrenade?3?3ExplodeTouch?$AA@ DB '&CGrenade::Explo'
	DB	'deTouch', 00H				; `string'
CONST	ENDS
;	COMDAT ??_C@_0BJ@GKJDGPEJ@?$CGCRpgRocket?3?3IgniteThink?$AA@
CONST	SEGMENT
??_C@_0BJ@GKJDGPEJ@?$CGCRpgRocket?3?3IgniteThink?$AA@ DB '&CRpgRocket::Ig'
	DB	'niteThink', 00H				; `string'
CONST	ENDS
;	COMDAT ??_C@_0BJ@NMPKGCCP@weapons?1rpg_shotdown?4wav?$AA@
CONST	SEGMENT
??_C@_0BJ@NMPKGCCP@weapons?1rpg_shotdown?4wav?$AA@ DB 'weapons/rpg_shotdo'
	DB	'wn.wav', 00H				; `string'
CONST	ENDS
;	COMDAT ??_C@_0BE@OFLJKELP@weapons?1rocket1?4wav?$AA@
CONST	SEGMENT
??_C@_0BE@OFLJKELP@weapons?1rocket1?4wav?$AA@ DB 'weapons/rocket1.wav', 00H ; `string'
CONST	ENDS
;	COMDAT ??_C@_0BC@DDAJIPKB@sprites?1smoke?4spr?$AA@
CONST	SEGMENT
??_C@_0BC@DDAJIPKB@sprites?1smoke?4spr?$AA@ DB 'sprites/smoke.spr', 00H ; `string'
CONST	ENDS
;	COMDAT ??_C@_0BF@JALHEJDN@models?1rpgrocket?4mdl?$AA@
CONST	SEGMENT
??_C@_0BF@JALHEJDN@models?1rpgrocket?4mdl?$AA@ DB 'models/rpgrocket.mdl', 00H ; `string'
CONST	ENDS
;	COMDAT ??_C@_0BJ@IMHADGKA@?$CGCRpgRocket?3?3RocketTouch?$AA@
CONST	SEGMENT
??_C@_0BJ@IMHADGKA@?$CGCRpgRocket?3?3RocketTouch?$AA@ DB '&CRpgRocket::Ro'
	DB	'cketTouch', 00H				; `string'
CONST	ENDS
;	COMDAT ??_C@_0L@PEBDNPPC@AugerThink?$AA@
CONST	SEGMENT
??_C@_0L@PEBDNPPC@AugerThink?$AA@ DB 'AugerThink', 00H	; `string'
CONST	ENDS
;	COMDAT ??_C@_0BB@GHOCPPMI@m_flMarkDeadTime?$AA@
CONST	SEGMENT
??_C@_0BB@GHOCPPMI@m_flMarkDeadTime?$AA@ DB 'm_flMarkDeadTime', 00H ; `string'
CONST	ENDS
;	COMDAT ??_C@_0O@PLAGMMCE@m_flAugerTime?$AA@
CONST	SEGMENT
??_C@_0O@PLAGMMCE@m_flAugerTime?$AA@ DB 'm_flAugerTime', 00H ; `string'
CONST	ENDS
;	COMDAT ??_C@_0M@MEKFALBF@RocketTouch?$AA@
CONST	SEGMENT
??_C@_0M@MEKFALBF@RocketTouch?$AA@ DB 'RocketTouch', 00H ; `string'
CONST	ENDS
;	COMDAT ??_C@_0M@CCEGFCPM@IgniteThink?$AA@
CONST	SEGMENT
??_C@_0M@CCEGFCPM@IgniteThink?$AA@ DB 'IgniteThink', 00H ; `string'
CONST	ENDS
;	COMDAT ??_C@_0M@HFODBJCA@FollowThink?$AA@
CONST	SEGMENT
??_C@_0M@HFODBJCA@FollowThink?$AA@ DB 'FollowThink', 00H ; `string'
CONST	ENDS
;	COMDAT ??_C@_0L@MFNEJJJF@rpg_rocket?$AA@
CONST	SEGMENT
??_C@_0L@MFNEJJJF@rpg_rocket?$AA@ DB 'rpg_rocket', 00H	; `string'
CONST	ENDS
;	COMDAT ??_7?$CEntityFactory@VCRpgRocket@@@@6B@
CONST	SEGMENT
??_7?$CEntityFactory@VCRpgRocket@@@@6B@ DD FLAT:??_R4?$CEntityFactory@VCRpgRocket@@@@6B@ ; CEntityFactory<CRpgRocket>::`vftable'
	DD	FLAT:?Create@?$CEntityFactory@VCRpgRocket@@@@UAEPAVCBaseEntity@@PBDPAUentvars_s@@@Z
	DD	FLAT:?Destroy@?$CEntityFactory@VCRpgRocket@@@@UAEXPAVCBaseEntity@@@Z
	DD	FLAT:?GetEntitySize@?$CEntityFactory@VCRpgRocket@@@@UAEIXZ
CONST	ENDS
;	COMDAT ??_7CRpgRocket@@6B@
CONST	SEGMENT
??_7CRpgRocket@@6B@ DD FLAT:??_R4CRpgRocket@@6B@	; CRpgRocket::`vftable'
	DD	FLAT:?GetDataDescMap@CRpgRocket@@UAEPAUdatamap_s@@XZ
	DD	FLAT:?Spawn@CRpgRocket@@UAEXXZ
	DD	FLAT:?Precache@CRpgRocket@@UAEXXZ
	DD	FLAT:?KeyValue@CBaseMonster@@UAEXPAUKeyValueData_s@@@Z
	DD	FLAT:?Save@CBaseEntity@@UAEHAAVCSave@@@Z
	DD	FLAT:?Restore@CBaseMonster@@UAEHAAVCRestore@@@Z
	DD	FLAT:?ObjectCaps@CBaseEntity@@UAEHXZ
	DD	FLAT:?Activate@CBaseEntity@@UAEXXZ
	DD	FLAT:?OnChangeLevel@CBaseEntity@@UAEXXZ
	DD	FLAT:?OnTeleport@CRpgRocket@@UAEXXZ
	DD	FLAT:?PortalSleep@CBaseEntity@@UAEXM@Z
	DD	FLAT:?StartMessage@CBaseEntity@@UAEXPAVCBasePlayer@@@Z
	DD	FLAT:?GetPosition@CBaseEntity@@UAEMXZ
	DD	FLAT:?OnChangeParent@CBaseEntity@@UAEXXZ
	DD	FLAT:?OnClearParent@CBaseEntity@@UAEXXZ
	DD	FLAT:?OnRemove@CBaseEntity@@UAEXXZ
	DD	FLAT:?SetObjectCollisionBox@CBaseEntity@@UAEXXZ
	DD	FLAT:?Classify@CRpgRocket@@UAEHXZ
	DD	FLAT:?DeathNotice@CBaseEntity@@UAEXPAUentvars_s@@@Z
	DD	FLAT:?IsRigidBody@CBaseEntity@@UAEHXZ
	DD	FLAT:?SetNextThink@CBaseEntity@@UAEXM@Z
	DD	FLAT:?GetState@CBaseEntity@@UAE?AW4STATE@@PAV1@@Z
	DD	FLAT:?GetState@CBaseToggle@@UAE?AW4STATE@@XZ
	DD	FLAT:?TraceAttack@CBaseMonster@@UAEXPAUentvars_s@@MVVector@@PAUgametrace_s@@H@Z
	DD	FLAT:?TakeDamage@CRpgRocket@@UAEHPAUentvars_s@@0MH@Z
	DD	FLAT:?TakeHealth@CBaseMonster@@UAEHMH@Z
	DD	FLAT:?TakeArmor@CBaseEntity@@UAEHMH@Z
	DD	FLAT:?Killed@CGrenade@@UAEXPAUentvars_s@@H@Z
	DD	FLAT:?BloodColor@CGrenade@@UAEHXZ
	DD	FLAT:?TraceBleed@CBaseEntity@@UAEXMVVector@@PAUgametrace_s@@H@Z
	DD	FLAT:?IsTriggered@CBaseEntity@@UAEHPAV1@@Z
	DD	FLAT:?MyMonsterPointer@CBaseMonster@@UAEPAV1@XZ
	DD	FLAT:?MySquadMonsterPointer@CBaseEntity@@UAEPAVCSquadMonster@@XZ
	DD	FLAT:?GetToggleState@CBaseToggle@@UAEHXZ
	DD	FLAT:?AddPoints@CBaseEntity@@UAEXHH@Z
	DD	FLAT:?AddPointsToTeam@CBaseEntity@@UAEXHH@Z
	DD	FLAT:?AddPlayerItem@CBaseEntity@@UAEHPAVCBasePlayerItem@@@Z
	DD	FLAT:?RemovePlayerItem@CBaseEntity@@UAEHPAVCBasePlayerItem@@@Z
	DD	FLAT:?GiveAmmo@CBaseEntity@@UAEHHPADH@Z
	DD	FLAT:?GetDelay@CBaseToggle@@UAEMXZ
	DD	FLAT:?IsMoving@CBaseMonster@@UAEHXZ
	DD	FLAT:?OverrideReset@CBaseEntity@@UAEXXZ
	DD	FLAT:?TransferReset@CBaseEntity@@UAEXXZ
	DD	FLAT:?DamageDecal@CBaseMonster@@UAEHH@Z
	DD	FLAT:?SetToggleState@CBaseEntity@@UAEXH@Z
	DD	FLAT:?StartSneaking@CBaseEntity@@UAEXXZ
	DD	FLAT:?StopSneaking@CBaseEntity@@UAEXXZ
	DD	FLAT:?OnControls@CBaseEntity@@UAEHPAV1@@Z
	DD	FLAT:?IsSneaking@CBaseEntity@@UAEHXZ
	DD	FLAT:?IsAlive@CBaseMonster@@UAEHXZ
	DD	FLAT:?IsBSPModel@CBaseEntity@@UAEHXZ
	DD	FLAT:?IsCustomModel@CBaseEntity@@UAEHXZ
	DD	FLAT:?ReflectGauss@CBaseEntity@@UAEHXZ
	DD	FLAT:?HasTarget@CBaseEntity@@UAEHH@Z
	DD	FLAT:?IsInWorld@CBaseEntity@@UAEHH@Z
	DD	FLAT:?IsPlayer@CBaseEntity@@UAEHXZ
	DD	FLAT:?IsNetClient@CBaseEntity@@UAEHXZ
	DD	FLAT:?IsMonster@CBaseEntity@@UAEHXZ
	DD	FLAT:?IsPushable@CBaseEntity@@UAEHXZ
	DD	FLAT:?IsProjectile@CGrenade@@UAEHXZ
	DD	FLAT:?IsFuncScreen@CBaseEntity@@UAEHXZ
	DD	FLAT:?IsPortal@CBaseEntity@@UAEHXZ
	DD	FLAT:?IsTank@CBaseEntity@@UAEHXZ
	DD	FLAT:?IsMover@CBaseEntity@@UAEHXZ
	DD	FLAT:?IsBreakable@CBaseEntity@@UAEHXZ
	DD	FLAT:?TeamID@CBaseEntity@@UAEPBDXZ
	DD	FLAT:?AddSpawnFlags@CBaseEntity@@UAEXH@Z
	DD	FLAT:?HasSpawnFlags@CBaseEntity@@UBE_NH@Z
	DD	FLAT:?SetFadeDistance@CBaseEntity@@UAEXH@Z
	DD	FLAT:?SetFlag@CBaseEntity@@UAEXH@Z
	DD	FLAT:?HasFlag@CBaseEntity@@UBE_NH@Z
	DD	FLAT:?RemoveFlag@CBaseEntity@@UAEXH@Z
	DD	FLAT:?SetNullModel@CBaseEntity@@UAEXXZ
	DD	FLAT:?OnPickupObject@CBaseEntity@@UAEXXZ
	DD	FLAT:?OnDropObject@CBaseEntity@@UAEXXZ
	DD	FLAT:?GetNextTarget@CBaseEntity@@UAEPAV1@XZ
	DD	FLAT:?Think@CBaseEntity@@UAEXXZ
	DD	FLAT:?Use@CBaseEntity@@UAEXPAV1@0W4USE_TYPE@@M@Z
	DD	FLAT:?Touch@CBaseEntity@@UAEXPAV1@@Z
	DD	FLAT:?Blocked@CBaseEntity@@UAEXPAV1@@Z
	DD	FLAT:?MoveDone@CBaseToggle@@UAEXXZ
	DD	FLAT:?Respawn@CBaseEntity@@UAEPAV1@XZ
	DD	FLAT:?UpdateOwner@CBaseEntity@@UAEXXZ
	DD	FLAT:?FBecomeProne@CBaseMonster@@UAEHXZ
	DD	FLAT:?Center@CBaseEntity@@UAE?AVVector@@XZ
	DD	FLAT:?EyePosition@CBaseEntity@@UAE?AVVector@@XZ
	DD	FLAT:?EarPosition@CBaseEntity@@UAE?AVVector@@XZ
	DD	FLAT:?BodyTarget@CBaseMonster@@UAE?AVVector@@ABV2@@Z
	DD	FLAT:?IsPointSized@CBaseEntity@@UBEHXZ
	DD	FLAT:?Illumination@CBaseEntity@@UAEHXZ
	DD	FLAT:?FVisible@CBaseEntity@@UAEHABVVector@@@Z
	DD	FLAT:?FVisible@CBaseEntity@@UAEHPAV1@@Z
	DD	FLAT:?ShouldCollide@CBaseEntity@@UAEHPAV1@@Z
	DD	FLAT:?ClearEffects@CRpgRocket@@UAEXXZ
	DD	FLAT:?HandleAnimEvent@CBaseMonster@@UAEXPAUMonsterEvent_t@@@Z
	DD	FLAT:?Look@CBaseMonster@@UAEXH@Z
	DD	FLAT:?RunAI@CBaseMonster@@UAEXXZ
	DD	FLAT:?ShouldFadeOnDeath@CBaseMonster@@UAEHXZ
	DD	FLAT:?ChangeYaw@CBaseMonster@@UAEMH@Z
	DD	FLAT:?MonsterThink@CBaseMonster@@UAEXXZ
	DD	FLAT:?IRelationship@CBaseMonster@@UAEHPAVCBaseEntity@@@Z
	DD	FLAT:?MonsterInit@CBaseMonster@@UAEXXZ
	DD	FLAT:?MonsterInitDead@CBaseMonster@@UAEXXZ
	DD	FLAT:?BecomeDead@CBaseMonster@@UAEXXZ
	DD	FLAT:?StartMonster@CBaseMonster@@UAEXXZ
	DD	FLAT:?BestVisibleEnemy@CBaseMonster@@UAEPAVCBaseEntity@@XZ
	DD	FLAT:?FInViewCone@CBaseMonster@@UAEHPAVVector@@@Z
	DD	FLAT:?FInViewCone@CBaseMonster@@UAEHPAVCBaseEntity@@M@Z
	DD	FLAT:?CheckLocalMove@CBaseMonster@@UAEHABVVector@@0PAVCBaseEntity@@PAM@Z
	DD	FLAT:?Move@CBaseMonster@@UAEXM@Z
	DD	FLAT:?MoveExecute@CBaseMonster@@UAEXPAVCBaseEntity@@ABVVector@@M@Z
	DD	FLAT:?ShouldAdvanceRoute@CBaseMonster@@UAEHM@Z
	DD	FLAT:?GetStoppedActivity@CBaseMonster@@UAE?AW4Activity@@XZ
	DD	FLAT:?Stop@CBaseMonster@@UAEXXZ
	DD	FLAT:?CheckRangeAttack1@CBaseMonster@@UAEHMM@Z
	DD	FLAT:?CheckRangeAttack2@CBaseMonster@@UAEHMM@Z
	DD	FLAT:?CheckMeleeAttack1@CBaseMonster@@UAEHMM@Z
	DD	FLAT:?CheckMeleeAttack2@CBaseMonster@@UAEHMM@Z
	DD	FLAT:?ScheduleFromName@CBaseMonster@@UAEPAUSchedule_t@@PBD@Z
	DD	FLAT:?StartTask@CBaseMonster@@UAEXPAUTask_t@@@Z
	DD	FLAT:?RunTask@CBaseMonster@@UAEXPAUTask_t@@@Z
	DD	FLAT:?GetScheduleOfType@CBaseMonster@@UAEPAUSchedule_t@@H@Z
	DD	FLAT:?GetSchedule@CBaseMonster@@UAEPAUSchedule_t@@XZ
	DD	FLAT:?ScheduleChange@CBaseMonster@@UAEXXZ
	DD	FLAT:?CanPlaySequence@CBaseMonster@@UAEHHH@Z
	DD	FLAT:?CanPlaySentence@CBaseMonster@@UAEHH@Z
	DD	FLAT:?PlaySentence@CBaseMonster@@UAEXPBDMMMH@Z
	DD	FLAT:?PlayScriptedSentence@CBaseMonster@@UAEXPBDMMMHPAVCBaseEntity@@H@Z
	DD	FLAT:?SentenceStop@CBaseMonster@@UAEXXZ
	DD	FLAT:?GetIdealState@CBaseMonster@@UAE?AW4MONSTERSTATE@@XZ
	DD	FLAT:?SetActivity@CBaseMonster@@UAEXW4Activity@@@Z
	DD	FLAT:?ReportAIState@CBaseMonster@@UAEXXZ
	DD	FLAT:?CheckEnemy@CBaseMonster@@UAEHPAVCBaseEntity@@@Z
	DD	FLAT:?FTriangulate@CBaseMonster@@UAEHABVVector@@0MPAVCBaseEntity@@PAV2@@Z
	DD	FLAT:?SetYawSpeed@CBaseMonster@@UAEXXZ
	DD	FLAT:?BuildNearestRoute@CBaseMonster@@UAEHVVector@@0MM@Z
	DD	FLAT:?FindCover@CBaseMonster@@UAEHVVector@@0MM@Z
	DD	FLAT:?FindRunAway@CBaseMonster@@UAEHVVector@@MM@Z
	DD	FLAT:?FValidateCover@CBaseMonster@@UAEHABVVector@@@Z
	DD	FLAT:?CoverRadius@CBaseMonster@@UAEMXZ
	DD	FLAT:?FCanCheckAttacks@CBaseMonster@@UAEHXZ
	DD	FLAT:?CheckAmmo@CBaseMonster@@UAEXXZ
	DD	FLAT:?IgnoreConditions@CBaseMonster@@UAEHXZ
	DD	FLAT:?FValidateHintType@CBaseMonster@@UAEHF@Z
	DD	FLAT:?FCanActiveIdle@CBaseMonster@@UAEHXZ
	DD	FLAT:?ISoundMask@CBaseMonster@@UAEHXZ
	DD	FLAT:?PBestSound@CBaseMonster@@UAEPAVCSound@@XZ
	DD	FLAT:?PBestScent@CBaseMonster@@UAEPAVCSound@@XZ
	DD	FLAT:?HearingSensitivity@CBaseMonster@@UAEMXZ
	DD	FLAT:?BarnacleVictimBitten@CBaseMonster@@UAEXPAUentvars_s@@@Z
	DD	FLAT:?BarnacleVictimReleased@CBaseMonster@@UAEXXZ
	DD	FLAT:?PrescheduleThink@CBaseMonster@@UAEXXZ
	DD	FLAT:?GetDeathActivity@CBaseMonster@@UAE?AW4Activity@@XZ
	DD	FLAT:?GibMonster@CBaseMonster@@UAEXXZ
	DD	FLAT:?HasHumanGibs@CBaseMonster@@UAEHXZ
	DD	FLAT:?HasAlienGibs@CBaseMonster@@UAEHXZ
	DD	FLAT:?FadeMonster@CBaseMonster@@UAEXXZ
	DD	FLAT:?GetGunPosition@CBaseMonster@@UAE?AVVector@@XZ
	DD	FLAT:?DeathSound@CBaseMonster@@UAEXXZ
	DD	FLAT:?AlertSound@CBaseMonster@@UAEXXZ
	DD	FLAT:?IdleSound@CBaseMonster@@UAEXXZ
	DD	FLAT:?PainSound@CBaseMonster@@UAEXXZ
	DD	FLAT:?StepSound@CBaseMonster@@UAEXXZ
	DD	FLAT:?StopFollowing@CBaseMonster@@UAEXH@Z
	DD	FLAT:?BounceSound@CGrenade@@UAEXXZ
CONST	ENDS
;	COMDAT ??_C@_0L@NJNPDFDL@weapon_rpg?$AA@
CONST	SEGMENT
??_C@_0L@NJNPDFDL@weapon_rpg?$AA@ DB 'weapon_rpg', 00H	; `string'
CONST	ENDS
;	COMDAT ??_7?$CEntityFactory@VCRpg@@@@6B@
CONST	SEGMENT
??_7?$CEntityFactory@VCRpg@@@@6B@ DD FLAT:??_R4?$CEntityFactory@VCRpg@@@@6B@ ; CEntityFactory<CRpg>::`vftable'
	DD	FLAT:?Create@?$CEntityFactory@VCRpg@@@@UAEPAVCBaseEntity@@PBDPAUentvars_s@@@Z
	DD	FLAT:?Destroy@?$CEntityFactory@VCRpg@@@@UAEXPAVCBaseEntity@@@Z
	DD	FLAT:?GetEntitySize@?$CEntityFactory@VCRpg@@@@UAEIXZ
CONST	ENDS
;	COMDAT ??_7CRpg@@6B@
CONST	SEGMENT
??_7CRpg@@6B@ DD FLAT:??_R4CRpg@@6B@			; CRpg::`vftable'
	DD	FLAT:?GetDataDescMap@CRpg@@UAEPAUdatamap_s@@XZ
	DD	FLAT:?Spawn@CRpg@@UAEXXZ
	DD	FLAT:?Precache@CRpg@@UAEXXZ
	DD	FLAT:?KeyValue@CBaseDelay@@UAEXPAUKeyValueData_s@@@Z
	DD	FLAT:?Save@CBaseEntity@@UAEHAAVCSave@@@Z
	DD	FLAT:?Restore@CBaseEntity@@UAEHAAVCRestore@@@Z
	DD	FLAT:?ObjectCaps@CBaseEntity@@UAEHXZ
	DD	FLAT:?Activate@CBaseEntity@@UAEXXZ
	DD	FLAT:?OnChangeLevel@CBaseEntity@@UAEXXZ
	DD	FLAT:?OnTeleport@CBaseEntity@@UAEXXZ
	DD	FLAT:?PortalSleep@CBaseEntity@@UAEXM@Z
	DD	FLAT:?StartMessage@CBaseEntity@@UAEXPAVCBasePlayer@@@Z
	DD	FLAT:?GetPosition@CBaseEntity@@UAEMXZ
	DD	FLAT:?OnChangeParent@CBaseEntity@@UAEXXZ
	DD	FLAT:?OnClearParent@CBaseEntity@@UAEXXZ
	DD	FLAT:?OnRemove@CBaseEntity@@UAEXXZ
	DD	FLAT:?SetObjectCollisionBox@CBasePlayerItem@@UAEXXZ
	DD	FLAT:?Classify@CBaseEntity@@UAEHXZ
	DD	FLAT:?DeathNotice@CBaseEntity@@UAEXPAUentvars_s@@@Z
	DD	FLAT:?IsRigidBody@CBaseEntity@@UAEHXZ
	DD	FLAT:?SetNextThink@CBaseEntity@@UAEXM@Z
	DD	FLAT:?GetState@CBaseEntity@@UAE?AW4STATE@@PAV1@@Z
	DD	FLAT:?GetState@CBaseDelay@@UAE?AW4STATE@@XZ
	DD	FLAT:?TraceAttack@CBaseEntity@@UAEXPAUentvars_s@@MVVector@@PAUgametrace_s@@H@Z
	DD	FLAT:?TakeDamage@CBaseEntity@@UAEHPAUentvars_s@@0MH@Z
	DD	FLAT:?TakeHealth@CBaseEntity@@UAEHMH@Z
	DD	FLAT:?TakeArmor@CBaseEntity@@UAEHMH@Z
	DD	FLAT:?Killed@CBaseEntity@@UAEXPAUentvars_s@@H@Z
	DD	FLAT:?BloodColor@CBaseEntity@@UAEHXZ
	DD	FLAT:?TraceBleed@CBaseEntity@@UAEXMVVector@@PAUgametrace_s@@H@Z
	DD	FLAT:?IsTriggered@CBaseEntity@@UAEHPAV1@@Z
	DD	FLAT:?MyMonsterPointer@CBaseEntity@@UAEPAVCBaseMonster@@XZ
	DD	FLAT:?MySquadMonsterPointer@CBaseEntity@@UAEPAVCSquadMonster@@XZ
	DD	FLAT:?GetToggleState@CBaseEntity@@UAEHXZ
	DD	FLAT:?AddPoints@CBaseEntity@@UAEXHH@Z
	DD	FLAT:?AddPointsToTeam@CBaseEntity@@UAEXHH@Z
	DD	FLAT:?AddPlayerItem@CBaseEntity@@UAEHPAVCBasePlayerItem@@@Z
	DD	FLAT:?RemovePlayerItem@CBaseEntity@@UAEHPAVCBasePlayerItem@@@Z
	DD	FLAT:?GiveAmmo@CBaseEntity@@UAEHHPADH@Z
	DD	FLAT:?GetDelay@CBaseEntity@@UAEMXZ
	DD	FLAT:?IsMoving@CBaseEntity@@UAEHXZ
	DD	FLAT:?OverrideReset@CBaseEntity@@UAEXXZ
	DD	FLAT:?TransferReset@CBaseEntity@@UAEXXZ
	DD	FLAT:?DamageDecal@CBaseEntity@@UAEHH@Z
	DD	FLAT:?SetToggleState@CBaseEntity@@UAEXH@Z
	DD	FLAT:?StartSneaking@CBaseEntity@@UAEXXZ
	DD	FLAT:?StopSneaking@CBaseEntity@@UAEXXZ
	DD	FLAT:?OnControls@CBaseEntity@@UAEHPAV1@@Z
	DD	FLAT:?IsSneaking@CBaseEntity@@UAEHXZ
	DD	FLAT:?IsAlive@CBaseEntity@@UAEHXZ
	DD	FLAT:?IsBSPModel@CBaseEntity@@UAEHXZ
	DD	FLAT:?IsCustomModel@CBaseEntity@@UAEHXZ
	DD	FLAT:?ReflectGauss@CBaseEntity@@UAEHXZ
	DD	FLAT:?HasTarget@CBaseEntity@@UAEHH@Z
	DD	FLAT:?IsInWorld@CBaseEntity@@UAEHH@Z
	DD	FLAT:?IsPlayer@CBaseEntity@@UAEHXZ
	DD	FLAT:?IsNetClient@CBaseEntity@@UAEHXZ
	DD	FLAT:?IsMonster@CBaseEntity@@UAEHXZ
	DD	FLAT:?IsPushable@CBaseEntity@@UAEHXZ
	DD	FLAT:?IsProjectile@CBaseEntity@@UAEHXZ
	DD	FLAT:?IsFuncScreen@CBaseEntity@@UAEHXZ
	DD	FLAT:?IsPortal@CBaseEntity@@UAEHXZ
	DD	FLAT:?IsTank@CBaseEntity@@UAEHXZ
	DD	FLAT:?IsMover@CBaseEntity@@UAEHXZ
	DD	FLAT:?IsBreakable@CBaseEntity@@UAEHXZ
	DD	FLAT:?TeamID@CBaseEntity@@UAEPBDXZ
	DD	FLAT:?AddSpawnFlags@CBaseEntity@@UAEXH@Z
	DD	FLAT:?HasSpawnFlags@CBaseEntity@@UBE_NH@Z
	DD	FLAT:?SetFadeDistance@CBaseEntity@@UAEXH@Z
	DD	FLAT:?SetFlag@CBaseEntity@@UAEXH@Z
	DD	FLAT:?HasFlag@CBaseEntity@@UBE_NH@Z
	DD	FLAT:?RemoveFlag@CBaseEntity@@UAEXH@Z
	DD	FLAT:?SetNullModel@CBaseEntity@@UAEXXZ
	DD	FLAT:?OnPickupObject@CBaseEntity@@UAEXXZ
	DD	FLAT:?OnDropObject@CBaseEntity@@UAEXXZ
	DD	FLAT:?GetNextTarget@CBaseEntity@@UAEPAV1@XZ
	DD	FLAT:?Think@CBaseEntity@@UAEXXZ
	DD	FLAT:?Use@CBaseEntity@@UAEXPAV1@0W4USE_TYPE@@M@Z
	DD	FLAT:?Touch@CBaseEntity@@UAEXPAV1@@Z
	DD	FLAT:?Blocked@CBaseEntity@@UAEXPAV1@@Z
	DD	FLAT:?MoveDone@CBaseEntity@@UAEXXZ
	DD	FLAT:?Respawn@CBasePlayerItem@@UAEPAVCBaseEntity@@XZ
	DD	FLAT:?UpdateOwner@CBaseEntity@@UAEXXZ
	DD	FLAT:?FBecomeProne@CBaseEntity@@UAEHXZ
	DD	FLAT:?Center@CBaseEntity@@UAE?AVVector@@XZ
	DD	FLAT:?EyePosition@CBaseEntity@@UAE?AVVector@@XZ
	DD	FLAT:?EarPosition@CBaseEntity@@UAE?AVVector@@XZ
	DD	FLAT:?BodyTarget@CBaseEntity@@UAE?AVVector@@ABV2@@Z
	DD	FLAT:?IsPointSized@CBaseEntity@@UBEHXZ
	DD	FLAT:?Illumination@CBaseEntity@@UAEHXZ
	DD	FLAT:?FVisible@CBaseEntity@@UAEHABVVector@@@Z
	DD	FLAT:?FVisible@CBaseEntity@@UAEHPAV1@@Z
	DD	FLAT:?ShouldCollide@CBaseEntity@@UAEHPAV1@@Z
	DD	FLAT:?ClearEffects@CBaseEntity@@UAEXXZ
	DD	FLAT:?HandleAnimEvent@CBaseAnimating@@UAEXPAUMonsterEvent_t@@@Z
	DD	FLAT:?AddToPlayer@CRpg@@UAEHPAVCBasePlayer@@@Z
	DD	FLAT:?AddDuplicate@CBasePlayerWeapon@@UAEHPAVCBasePlayerItem@@@Z
	DD	FLAT:?GetItemInfo@CRpg@@UAEHPAUItemInfo@@@Z
	DD	FLAT:?CanDeploy@CBasePlayerWeapon@@UAEHXZ
	DD	FLAT:?Deploy@CRpg@@UAEHXZ
	DD	FLAT:?CanHolster@CRpg@@UAEHXZ
	DD	FLAT:?Holster@CRpg@@UAEXXZ
	DD	FLAT:?UpdateItemInfo@CBasePlayerWeapon@@UAEXXZ
	DD	FLAT:?ItemPreFrame@CBasePlayerItem@@UAEXXZ
	DD	FLAT:?ItemPostFrame@CBasePlayerWeapon@@UAEXXZ
	DD	FLAT:?Drop@CBasePlayerItem@@UAEXXZ
	DD	FLAT:?Kill@CBasePlayerItem@@UAEXXZ
	DD	FLAT:?AttachToPlayer@CBasePlayerItem@@UAEXPAVCBasePlayer@@@Z
	DD	FLAT:?PrimaryAmmoIndex@CBasePlayerWeapon@@UAEHXZ
	DD	FLAT:?SecondaryAmmoIndex@CBasePlayerWeapon@@UAEHXZ
	DD	FLAT:?UpdateClientData@CBasePlayerWeapon@@UAEHPAVCBasePlayer@@@Z
	DD	FLAT:?GetWeaponPtr@CBasePlayerWeapon@@UAEPAVCBasePlayerItem@@XZ
	DD	FLAT:?iItemSlot@CRpg@@UAEHXZ
	DD	FLAT:?ExtractAmmo@CBasePlayerWeapon@@UAEHPAV1@@Z
	DD	FLAT:?ExtractClipAmmo@CBasePlayerWeapon@@UAEHPAV1@@Z
	DD	FLAT:?AddWeapon@CBasePlayerWeapon@@UAEHXZ
	DD	FLAT:?PlayEmptySound@CBasePlayerWeapon@@UAEHXZ
	DD	FLAT:?ResetEmptySound@CBasePlayerWeapon@@UAEXXZ
	DD	FLAT:?SendWeaponAnim@CBasePlayerWeapon@@UAEXHHH@Z
	DD	FLAT:?IsUseable@CBasePlayerWeapon@@UAEHXZ
	DD	FLAT:?PrimaryAttack@CRpg@@UAEXXZ
	DD	FLAT:?SecondaryAttack@CRpg@@UAEXXZ
	DD	FLAT:?Reload@CRpg@@UAEXXZ
	DD	FLAT:?WeaponIdle@CRpg@@UAEXXZ
	DD	FLAT:?RetireWeapon@CBasePlayerWeapon@@UAEXXZ
	DD	FLAT:?ShouldWeaponIdle@CRpg@@UAEHXZ
	DD	FLAT:?UseDecrement@CBasePlayerWeapon@@UAEHXZ
	DD	FLAT:?LowAmmoMsg@CBasePlayerWeapon@@UAEXPAVCBasePlayer@@@Z
CONST	ENDS
;	COMDAT ??_7CBasePlayerAmmo@@6B@
CONST	SEGMENT
??_7CBasePlayerAmmo@@6B@ DD FLAT:??_R4CBasePlayerAmmo@@6B@ ; CBasePlayerAmmo::`vftable'
	DD	FLAT:?GetDataDescMap@CBasePlayerAmmo@@UAEPAUdatamap_s@@XZ
	DD	FLAT:?Spawn@CBasePlayerAmmo@@UAEXXZ
	DD	FLAT:?Precache@CBaseEntity@@UAEXXZ
	DD	FLAT:?KeyValue@CBaseEntity@@UAEXPAUKeyValueData_s@@@Z
	DD	FLAT:?Save@CBaseEntity@@UAEHAAVCSave@@@Z
	DD	FLAT:?Restore@CBaseEntity@@UAEHAAVCRestore@@@Z
	DD	FLAT:?ObjectCaps@CBaseEntity@@UAEHXZ
	DD	FLAT:?Activate@CBaseEntity@@UAEXXZ
	DD	FLAT:?OnChangeLevel@CBaseEntity@@UAEXXZ
	DD	FLAT:?OnTeleport@CBaseEntity@@UAEXXZ
	DD	FLAT:?PortalSleep@CBaseEntity@@UAEXM@Z
	DD	FLAT:?StartMessage@CBaseEntity@@UAEXPAVCBasePlayer@@@Z
	DD	FLAT:?GetPosition@CBaseEntity@@UAEMXZ
	DD	FLAT:?OnChangeParent@CBaseEntity@@UAEXXZ
	DD	FLAT:?OnClearParent@CBaseEntity@@UAEXXZ
	DD	FLAT:?OnRemove@CBaseEntity@@UAEXXZ
	DD	FLAT:?SetObjectCollisionBox@CBaseEntity@@UAEXXZ
	DD	FLAT:?Classify@CBaseEntity@@UAEHXZ
	DD	FLAT:?DeathNotice@CBaseEntity@@UAEXPAUentvars_s@@@Z
	DD	FLAT:?IsRigidBody@CBaseEntity@@UAEHXZ
	DD	FLAT:?SetNextThink@CBaseEntity@@UAEXM@Z
	DD	FLAT:?GetState@CBaseEntity@@UAE?AW4STATE@@PAV1@@Z
	DD	FLAT:?GetState@CBaseEntity@@UAE?AW4STATE@@XZ
	DD	FLAT:?TraceAttack@CBaseEntity@@UAEXPAUentvars_s@@MVVector@@PAUgametrace_s@@H@Z
	DD	FLAT:?TakeDamage@CBaseEntity@@UAEHPAUentvars_s@@0MH@Z
	DD	FLAT:?TakeHealth@CBaseEntity@@UAEHMH@Z
	DD	FLAT:?TakeArmor@CBaseEntity@@UAEHMH@Z
	DD	FLAT:?Killed@CBaseEntity@@UAEXPAUentvars_s@@H@Z
	DD	FLAT:?BloodColor@CBaseEntity@@UAEHXZ
	DD	FLAT:?TraceBleed@CBaseEntity@@UAEXMVVector@@PAUgametrace_s@@H@Z
	DD	FLAT:?IsTriggered@CBaseEntity@@UAEHPAV1@@Z
	DD	FLAT:?MyMonsterPointer@CBaseEntity@@UAEPAVCBaseMonster@@XZ
	DD	FLAT:?MySquadMonsterPointer@CBaseEntity@@UAEPAVCSquadMonster@@XZ
	DD	FLAT:?GetToggleState@CBaseEntity@@UAEHXZ
	DD	FLAT:?AddPoints@CBaseEntity@@UAEXHH@Z
	DD	FLAT:?AddPointsToTeam@CBaseEntity@@UAEXHH@Z
	DD	FLAT:?AddPlayerItem@CBaseEntity@@UAEHPAVCBasePlayerItem@@@Z
	DD	FLAT:?RemovePlayerItem@CBaseEntity@@UAEHPAVCBasePlayerItem@@@Z
	DD	FLAT:?GiveAmmo@CBaseEntity@@UAEHHPADH@Z
	DD	FLAT:?GetDelay@CBaseEntity@@UAEMXZ
	DD	FLAT:?IsMoving@CBaseEntity@@UAEHXZ
	DD	FLAT:?OverrideReset@CBaseEntity@@UAEXXZ
	DD	FLAT:?TransferReset@CBaseEntity@@UAEXXZ
	DD	FLAT:?DamageDecal@CBaseEntity@@UAEHH@Z
	DD	FLAT:?SetToggleState@CBaseEntity@@UAEXH@Z
	DD	FLAT:?StartSneaking@CBaseEntity@@UAEXXZ
	DD	FLAT:?StopSneaking@CBaseEntity@@UAEXXZ
	DD	FLAT:?OnControls@CBaseEntity@@UAEHPAV1@@Z
	DD	FLAT:?IsSneaking@CBaseEntity@@UAEHXZ
	DD	FLAT:?IsAlive@CBaseEntity@@UAEHXZ
	DD	FLAT:?IsBSPModel@CBaseEntity@@UAEHXZ
	DD	FLAT:?IsCustomModel@CBaseEntity@@UAEHXZ
	DD	FLAT:?ReflectGauss@CBaseEntity@@UAEHXZ
	DD	FLAT:?HasTarget@CBaseEntity@@UAEHH@Z
	DD	FLAT:?IsInWorld@CBaseEntity@@UAEHH@Z
	DD	FLAT:?IsPlayer@CBaseEntity@@UAEHXZ
	DD	FLAT:?IsNetClient@CBaseEntity@@UAEHXZ
	DD	FLAT:?IsMonster@CBaseEntity@@UAEHXZ
	DD	FLAT:?IsPushable@CBaseEntity@@UAEHXZ
	DD	FLAT:?IsProjectile@CBaseEntity@@UAEHXZ
	DD	FLAT:?IsFuncScreen@CBaseEntity@@UAEHXZ
	DD	FLAT:?IsPortal@CBaseEntity@@UAEHXZ
	DD	FLAT:?IsTank@CBaseEntity@@UAEHXZ
	DD	FLAT:?IsMover@CBaseEntity@@UAEHXZ
	DD	FLAT:?IsBreakable@CBaseEntity@@UAEHXZ
	DD	FLAT:?TeamID@CBaseEntity@@UAEPBDXZ
	DD	FLAT:?AddSpawnFlags@CBaseEntity@@UAEXH@Z
	DD	FLAT:?HasSpawnFlags@CBaseEntity@@UBE_NH@Z
	DD	FLAT:?SetFadeDistance@CBaseEntity@@UAEXH@Z
	DD	FLAT:?SetFlag@CBaseEntity@@UAEXH@Z
	DD	FLAT:?HasFlag@CBaseEntity@@UBE_NH@Z
	DD	FLAT:?RemoveFlag@CBaseEntity@@UAEXH@Z
	DD	FLAT:?SetNullModel@CBaseEntity@@UAEXXZ
	DD	FLAT:?OnPickupObject@CBaseEntity@@UAEXXZ
	DD	FLAT:?OnDropObject@CBaseEntity@@UAEXXZ
	DD	FLAT:?GetNextTarget@CBaseEntity@@UAEPAV1@XZ
	DD	FLAT:?Think@CBaseEntity@@UAEXXZ
	DD	FLAT:?Use@CBaseEntity@@UAEXPAV1@0W4USE_TYPE@@M@Z
	DD	FLAT:?Touch@CBaseEntity@@UAEXPAV1@@Z
	DD	FLAT:?Blocked@CBaseEntity@@UAEXPAV1@@Z
	DD	FLAT:?MoveDone@CBaseEntity@@UAEXXZ
	DD	FLAT:?Respawn@CBasePlayerAmmo@@UAEPAVCBaseEntity@@XZ
	DD	FLAT:?UpdateOwner@CBaseEntity@@UAEXXZ
	DD	FLAT:?FBecomeProne@CBaseEntity@@UAEHXZ
	DD	FLAT:?Center@CBaseEntity@@UAE?AVVector@@XZ
	DD	FLAT:?EyePosition@CBaseEntity@@UAE?AVVector@@XZ
	DD	FLAT:?EarPosition@CBaseEntity@@UAE?AVVector@@XZ
	DD	FLAT:?BodyTarget@CBaseEntity@@UAE?AVVector@@ABV2@@Z
	DD	FLAT:?IsPointSized@CBaseEntity@@UBEHXZ
	DD	FLAT:?Illumination@CBaseEntity@@UAEHXZ
	DD	FLAT:?FVisible@CBaseEntity@@UAEHABVVector@@@Z
	DD	FLAT:?FVisible@CBaseEntity@@UAEHPAV1@@Z
	DD	FLAT:?ShouldCollide@CBaseEntity@@UAEHPAV1@@Z
	DD	FLAT:?ClearEffects@CBaseEntity@@UAEXXZ
	DD	FLAT:?AddAmmo@CBasePlayerAmmo@@UAEHPAVCBaseEntity@@@Z
CONST	ENDS
;	COMDAT ??_7CBasePlayerWeapon@@6B@
CONST	SEGMENT
??_7CBasePlayerWeapon@@6B@ DD FLAT:??_R4CBasePlayerWeapon@@6B@ ; CBasePlayerWeapon::`vftable'
	DD	FLAT:?GetDataDescMap@CBasePlayerWeapon@@UAEPAUdatamap_s@@XZ
	DD	FLAT:?Spawn@CBaseEntity@@UAEXXZ
	DD	FLAT:?Precache@CBaseEntity@@UAEXXZ
	DD	FLAT:?KeyValue@CBaseDelay@@UAEXPAUKeyValueData_s@@@Z
	DD	FLAT:?Save@CBaseEntity@@UAEHAAVCSave@@@Z
	DD	FLAT:?Restore@CBaseEntity@@UAEHAAVCRestore@@@Z
	DD	FLAT:?ObjectCaps@CBaseEntity@@UAEHXZ
	DD	FLAT:?Activate@CBaseEntity@@UAEXXZ
	DD	FLAT:?OnChangeLevel@CBaseEntity@@UAEXXZ
	DD	FLAT:?OnTeleport@CBaseEntity@@UAEXXZ
	DD	FLAT:?PortalSleep@CBaseEntity@@UAEXM@Z
	DD	FLAT:?StartMessage@CBaseEntity@@UAEXPAVCBasePlayer@@@Z
	DD	FLAT:?GetPosition@CBaseEntity@@UAEMXZ
	DD	FLAT:?OnChangeParent@CBaseEntity@@UAEXXZ
	DD	FLAT:?OnClearParent@CBaseEntity@@UAEXXZ
	DD	FLAT:?OnRemove@CBaseEntity@@UAEXXZ
	DD	FLAT:?SetObjectCollisionBox@CBasePlayerItem@@UAEXXZ
	DD	FLAT:?Classify@CBaseEntity@@UAEHXZ
	DD	FLAT:?DeathNotice@CBaseEntity@@UAEXPAUentvars_s@@@Z
	DD	FLAT:?IsRigidBody@CBaseEntity@@UAEHXZ
	DD	FLAT:?SetNextThink@CBaseEntity@@UAEXM@Z
	DD	FLAT:?GetState@CBaseEntity@@UAE?AW4STATE@@PAV1@@Z
	DD	FLAT:?GetState@CBaseDelay@@UAE?AW4STATE@@XZ
	DD	FLAT:?TraceAttack@CBaseEntity@@UAEXPAUentvars_s@@MVVector@@PAUgametrace_s@@H@Z
	DD	FLAT:?TakeDamage@CBaseEntity@@UAEHPAUentvars_s@@0MH@Z
	DD	FLAT:?TakeHealth@CBaseEntity@@UAEHMH@Z
	DD	FLAT:?TakeArmor@CBaseEntity@@UAEHMH@Z
	DD	FLAT:?Killed@CBaseEntity@@UAEXPAUentvars_s@@H@Z
	DD	FLAT:?BloodColor@CBaseEntity@@UAEHXZ
	DD	FLAT:?TraceBleed@CBaseEntity@@UAEXMVVector@@PAUgametrace_s@@H@Z
	DD	FLAT:?IsTriggered@CBaseEntity@@UAEHPAV1@@Z
	DD	FLAT:?MyMonsterPointer@CBaseEntity@@UAEPAVCBaseMonster@@XZ
	DD	FLAT:?MySquadMonsterPointer@CBaseEntity@@UAEPAVCSquadMonster@@XZ
	DD	FLAT:?GetToggleState@CBaseEntity@@UAEHXZ
	DD	FLAT:?AddPoints@CBaseEntity@@UAEXHH@Z
	DD	FLAT:?AddPointsToTeam@CBaseEntity@@UAEXHH@Z
	DD	FLAT:?AddPlayerItem@CBaseEntity@@UAEHPAVCBasePlayerItem@@@Z
	DD	FLAT:?RemovePlayerItem@CBaseEntity@@UAEHPAVCBasePlayerItem@@@Z
	DD	FLAT:?GiveAmmo@CBaseEntity@@UAEHHPADH@Z
	DD	FLAT:?GetDelay@CBaseEntity@@UAEMXZ
	DD	FLAT:?IsMoving@CBaseEntity@@UAEHXZ
	DD	FLAT:?OverrideReset@CBaseEntity@@UAEXXZ
	DD	FLAT:?TransferReset@CBaseEntity@@UAEXXZ
	DD	FLAT:?DamageDecal@CBaseEntity@@UAEHH@Z
	DD	FLAT:?SetToggleState@CBaseEntity@@UAEXH@Z
	DD	FLAT:?StartSneaking@CBaseEntity@@UAEXXZ
	DD	FLAT:?StopSneaking@CBaseEntity@@UAEXXZ
	DD	FLAT:?OnControls@CBaseEntity@@UAEHPAV1@@Z
	DD	FLAT:?IsSneaking@CBaseEntity@@UAEHXZ
	DD	FLAT:?IsAlive@CBaseEntity@@UAEHXZ
	DD	FLAT:?IsBSPModel@CBaseEntity@@UAEHXZ
	DD	FLAT:?IsCustomModel@CBaseEntity@@UAEHXZ
	DD	FLAT:?ReflectGauss@CBaseEntity@@UAEHXZ
	DD	FLAT:?HasTarget@CBaseEntity@@UAEHH@Z
	DD	FLAT:?IsInWorld@CBaseEntity@@UAEHH@Z
	DD	FLAT:?IsPlayer@CBaseEntity@@UAEHXZ
	DD	FLAT:?IsNetClient@CBaseEntity@@UAEHXZ
	DD	FLAT:?IsMonster@CBaseEntity@@UAEHXZ
	DD	FLAT:?IsPushable@CBaseEntity@@UAEHXZ
	DD	FLAT:?IsProjectile@CBaseEntity@@UAEHXZ
	DD	FLAT:?IsFuncScreen@CBaseEntity@@UAEHXZ
	DD	FLAT:?IsPortal@CBaseEntity@@UAEHXZ
	DD	FLAT:?IsTank@CBaseEntity@@UAEHXZ
	DD	FLAT:?IsMover@CBaseEntity@@UAEHXZ
	DD	FLAT:?IsBreakable@CBaseEntity@@UAEHXZ
	DD	FLAT:?TeamID@CBaseEntity@@UAEPBDXZ
	DD	FLAT:?AddSpawnFlags@CBaseEntity@@UAEXH@Z
	DD	FLAT:?HasSpawnFlags@CBaseEntity@@UBE_NH@Z
	DD	FLAT:?SetFadeDistance@CBaseEntity@@UAEXH@Z
	DD	FLAT:?SetFlag@CBaseEntity@@UAEXH@Z
	DD	FLAT:?HasFlag@CBaseEntity@@UBE_NH@Z
	DD	FLAT:?RemoveFlag@CBaseEntity@@UAEXH@Z
	DD	FLAT:?SetNullModel@CBaseEntity@@UAEXXZ
	DD	FLAT:?OnPickupObject@CBaseEntity@@UAEXXZ
	DD	FLAT:?OnDropObject@CBaseEntity@@UAEXXZ
	DD	FLAT:?GetNextTarget@CBaseEntity@@UAEPAV1@XZ
	DD	FLAT:?Think@CBaseEntity@@UAEXXZ
	DD	FLAT:?Use@CBaseEntity@@UAEXPAV1@0W4USE_TYPE@@M@Z
	DD	FLAT:?Touch@CBaseEntity@@UAEXPAV1@@Z
	DD	FLAT:?Blocked@CBaseEntity@@UAEXPAV1@@Z
	DD	FLAT:?MoveDone@CBaseEntity@@UAEXXZ
	DD	FLAT:?Respawn@CBasePlayerItem@@UAEPAVCBaseEntity@@XZ
	DD	FLAT:?UpdateOwner@CBaseEntity@@UAEXXZ
	DD	FLAT:?FBecomeProne@CBaseEntity@@UAEHXZ
	DD	FLAT:?Center@CBaseEntity@@UAE?AVVector@@XZ
	DD	FLAT:?EyePosition@CBaseEntity@@UAE?AVVector@@XZ
	DD	FLAT:?EarPosition@CBaseEntity@@UAE?AVVector@@XZ
	DD	FLAT:?BodyTarget@CBaseEntity@@UAE?AVVector@@ABV2@@Z
	DD	FLAT:?IsPointSized@CBaseEntity@@UBEHXZ
	DD	FLAT:?Illumination@CBaseEntity@@UAEHXZ
	DD	FLAT:?FVisible@CBaseEntity@@UAEHABVVector@@@Z
	DD	FLAT:?FVisible@CBaseEntity@@UAEHPAV1@@Z
	DD	FLAT:?ShouldCollide@CBaseEntity@@UAEHPAV1@@Z
	DD	FLAT:?ClearEffects@CBaseEntity@@UAEXXZ
	DD	FLAT:?HandleAnimEvent@CBaseAnimating@@UAEXPAUMonsterEvent_t@@@Z
	DD	FLAT:?AddToPlayer@CBasePlayerWeapon@@UAEHPAVCBasePlayer@@@Z
	DD	FLAT:?AddDuplicate@CBasePlayerWeapon@@UAEHPAVCBasePlayerItem@@@Z
	DD	FLAT:?GetItemInfo@CBasePlayerItem@@UAEHPAUItemInfo@@@Z
	DD	FLAT:?CanDeploy@CBasePlayerWeapon@@UAEHXZ
	DD	FLAT:?Deploy@CBasePlayerItem@@UAEHXZ
	DD	FLAT:?CanHolster@CBasePlayerItem@@UAEHXZ
	DD	FLAT:?Holster@CBasePlayerWeapon@@UAEXXZ
	DD	FLAT:?UpdateItemInfo@CBasePlayerWeapon@@UAEXXZ
	DD	FLAT:?ItemPreFrame@CBasePlayerItem@@UAEXXZ
	DD	FLAT:?ItemPostFrame@CBasePlayerWeapon@@UAEXXZ
	DD	FLAT:?Drop@CBasePlayerItem@@UAEXXZ
	DD	FLAT:?Kill@CBasePlayerItem@@UAEXXZ
	DD	FLAT:?AttachToPlayer@CBasePlayerItem@@UAEXPAVCBasePlayer@@@Z
	DD	FLAT:?PrimaryAmmoIndex@CBasePlayerWeapon@@UAEHXZ
	DD	FLAT:?SecondaryAmmoIndex@CBasePlayerWeapon@@UAEHXZ
	DD	FLAT:?UpdateClientData@CBasePlayerWeapon@@UAEHPAVCBasePlayer@@@Z
	DD	FLAT:?GetWeaponPtr@CBasePlayerWeapon@@UAEPAVCBasePlayerItem@@XZ
	DD	FLAT:?iItemSlot@CBasePlayerItem@@UAEHXZ
	DD	FLAT:?ExtractAmmo@CBasePlayerWeapon@@UAEHPAV1@@Z
	DD	FLAT:?ExtractClipAmmo@CBasePlayerWeapon@@UAEHPAV1@@Z
	DD	FLAT:?AddWeapon@CBasePlayerWeapon@@UAEHXZ
	DD	FLAT:?PlayEmptySound@CBasePlayerWeapon@@UAEHXZ
	DD	FLAT:?ResetEmptySound@CBasePlayerWeapon@@UAEXXZ
	DD	FLAT:?SendWeaponAnim@CBasePlayerWeapon@@UAEXHHH@Z
	DD	FLAT:?IsUseable@CBasePlayerWeapon@@UAEHXZ
	DD	FLAT:?PrimaryAttack@CBasePlayerWeapon@@UAEXXZ
	DD	FLAT:?SecondaryAttack@CBasePlayerWeapon@@UAEXXZ
	DD	FLAT:?Reload@CBasePlayerWeapon@@UAEXXZ
	DD	FLAT:?WeaponIdle@CBasePlayerWeapon@@UAEXXZ
	DD	FLAT:?RetireWeapon@CBasePlayerWeapon@@UAEXXZ
	DD	FLAT:?ShouldWeaponIdle@CBasePlayerWeapon@@UAEHXZ
	DD	FLAT:?UseDecrement@CBasePlayerWeapon@@UAEHXZ
	DD	FLAT:?LowAmmoMsg@CBasePlayerWeapon@@UAEXPAVCBasePlayer@@@Z
CONST	ENDS
;	COMDAT ??_7CBasePlayerItem@@6B@
CONST	SEGMENT
??_7CBasePlayerItem@@6B@ DD FLAT:??_R4CBasePlayerItem@@6B@ ; CBasePlayerItem::`vftable'
	DD	FLAT:?GetDataDescMap@CBasePlayerItem@@UAEPAUdatamap_s@@XZ
	DD	FLAT:?Spawn@CBaseEntity@@UAEXXZ
	DD	FLAT:?Precache@CBaseEntity@@UAEXXZ
	DD	FLAT:?KeyValue@CBaseDelay@@UAEXPAUKeyValueData_s@@@Z
	DD	FLAT:?Save@CBaseEntity@@UAEHAAVCSave@@@Z
	DD	FLAT:?Restore@CBaseEntity@@UAEHAAVCRestore@@@Z
	DD	FLAT:?ObjectCaps@CBaseEntity@@UAEHXZ
	DD	FLAT:?Activate@CBaseEntity@@UAEXXZ
	DD	FLAT:?OnChangeLevel@CBaseEntity@@UAEXXZ
	DD	FLAT:?OnTeleport@CBaseEntity@@UAEXXZ
	DD	FLAT:?PortalSleep@CBaseEntity@@UAEXM@Z
	DD	FLAT:?StartMessage@CBaseEntity@@UAEXPAVCBasePlayer@@@Z
	DD	FLAT:?GetPosition@CBaseEntity@@UAEMXZ
	DD	FLAT:?OnChangeParent@CBaseEntity@@UAEXXZ
	DD	FLAT:?OnClearParent@CBaseEntity@@UAEXXZ
	DD	FLAT:?OnRemove@CBaseEntity@@UAEXXZ
	DD	FLAT:?SetObjectCollisionBox@CBasePlayerItem@@UAEXXZ
	DD	FLAT:?Classify@CBaseEntity@@UAEHXZ
	DD	FLAT:?DeathNotice@CBaseEntity@@UAEXPAUentvars_s@@@Z
	DD	FLAT:?IsRigidBody@CBaseEntity@@UAEHXZ
	DD	FLAT:?SetNextThink@CBaseEntity@@UAEXM@Z
	DD	FLAT:?GetState@CBaseEntity@@UAE?AW4STATE@@PAV1@@Z
	DD	FLAT:?GetState@CBaseDelay@@UAE?AW4STATE@@XZ
	DD	FLAT:?TraceAttack@CBaseEntity@@UAEXPAUentvars_s@@MVVector@@PAUgametrace_s@@H@Z
	DD	FLAT:?TakeDamage@CBaseEntity@@UAEHPAUentvars_s@@0MH@Z
	DD	FLAT:?TakeHealth@CBaseEntity@@UAEHMH@Z
	DD	FLAT:?TakeArmor@CBaseEntity@@UAEHMH@Z
	DD	FLAT:?Killed@CBaseEntity@@UAEXPAUentvars_s@@H@Z
	DD	FLAT:?BloodColor@CBaseEntity@@UAEHXZ
	DD	FLAT:?TraceBleed@CBaseEntity@@UAEXMVVector@@PAUgametrace_s@@H@Z
	DD	FLAT:?IsTriggered@CBaseEntity@@UAEHPAV1@@Z
	DD	FLAT:?MyMonsterPointer@CBaseEntity@@UAEPAVCBaseMonster@@XZ
	DD	FLAT:?MySquadMonsterPointer@CBaseEntity@@UAEPAVCSquadMonster@@XZ
	DD	FLAT:?GetToggleState@CBaseEntity@@UAEHXZ
	DD	FLAT:?AddPoints@CBaseEntity@@UAEXHH@Z
	DD	FLAT:?AddPointsToTeam@CBaseEntity@@UAEXHH@Z
	DD	FLAT:?AddPlayerItem@CBaseEntity@@UAEHPAVCBasePlayerItem@@@Z
	DD	FLAT:?RemovePlayerItem@CBaseEntity@@UAEHPAVCBasePlayerItem@@@Z
	DD	FLAT:?GiveAmmo@CBaseEntity@@UAEHHPADH@Z
	DD	FLAT:?GetDelay@CBaseEntity@@UAEMXZ
	DD	FLAT:?IsMoving@CBaseEntity@@UAEHXZ
	DD	FLAT:?OverrideReset@CBaseEntity@@UAEXXZ
	DD	FLAT:?TransferReset@CBaseEntity@@UAEXXZ
	DD	FLAT:?DamageDecal@CBaseEntity@@UAEHH@Z
	DD	FLAT:?SetToggleState@CBaseEntity@@UAEXH@Z
	DD	FLAT:?StartSneaking@CBaseEntity@@UAEXXZ
	DD	FLAT:?StopSneaking@CBaseEntity@@UAEXXZ
	DD	FLAT:?OnControls@CBaseEntity@@UAEHPAV1@@Z
	DD	FLAT:?IsSneaking@CBaseEntity@@UAEHXZ
	DD	FLAT:?IsAlive@CBaseEntity@@UAEHXZ
	DD	FLAT:?IsBSPModel@CBaseEntity@@UAEHXZ
	DD	FLAT:?IsCustomModel@CBaseEntity@@UAEHXZ
	DD	FLAT:?ReflectGauss@CBaseEntity@@UAEHXZ
	DD	FLAT:?HasTarget@CBaseEntity@@UAEHH@Z
	DD	FLAT:?IsInWorld@CBaseEntity@@UAEHH@Z
	DD	FLAT:?IsPlayer@CBaseEntity@@UAEHXZ
	DD	FLAT:?IsNetClient@CBaseEntity@@UAEHXZ
	DD	FLAT:?IsMonster@CBaseEntity@@UAEHXZ
	DD	FLAT:?IsPushable@CBaseEntity@@UAEHXZ
	DD	FLAT:?IsProjectile@CBaseEntity@@UAEHXZ
	DD	FLAT:?IsFuncScreen@CBaseEntity@@UAEHXZ
	DD	FLAT:?IsPortal@CBaseEntity@@UAEHXZ
	DD	FLAT:?IsTank@CBaseEntity@@UAEHXZ
	DD	FLAT:?IsMover@CBaseEntity@@UAEHXZ
	DD	FLAT:?IsBreakable@CBaseEntity@@UAEHXZ
	DD	FLAT:?TeamID@CBaseEntity@@UAEPBDXZ
	DD	FLAT:?AddSpawnFlags@CBaseEntity@@UAEXH@Z
	DD	FLAT:?HasSpawnFlags@CBaseEntity@@UBE_NH@Z
	DD	FLAT:?SetFadeDistance@CBaseEntity@@UAEXH@Z
	DD	FLAT:?SetFlag@CBaseEntity@@UAEXH@Z
	DD	FLAT:?HasFlag@CBaseEntity@@UBE_NH@Z
	DD	FLAT:?RemoveFlag@CBaseEntity@@UAEXH@Z
	DD	FLAT:?SetNullModel@CBaseEntity@@UAEXXZ
	DD	FLAT:?OnPickupObject@CBaseEntity@@UAEXXZ
	DD	FLAT:?OnDropObject@CBaseEntity@@UAEXXZ
	DD	FLAT:?GetNextTarget@CBaseEntity@@UAEPAV1@XZ
	DD	FLAT:?Think@CBaseEntity@@UAEXXZ
	DD	FLAT:?Use@CBaseEntity@@UAEXPAV1@0W4USE_TYPE@@M@Z
	DD	FLAT:?Touch@CBaseEntity@@UAEXPAV1@@Z
	DD	FLAT:?Blocked@CBaseEntity@@UAEXPAV1@@Z
	DD	FLAT:?MoveDone@CBaseEntity@@UAEXXZ
	DD	FLAT:?Respawn@CBasePlayerItem@@UAEPAVCBaseEntity@@XZ
	DD	FLAT:?UpdateOwner@CBaseEntity@@UAEXXZ
	DD	FLAT:?FBecomeProne@CBaseEntity@@UAEHXZ
	DD	FLAT:?Center@CBaseEntity@@UAE?AVVector@@XZ
	DD	FLAT:?EyePosition@CBaseEntity@@UAE?AVVector@@XZ
	DD	FLAT:?EarPosition@CBaseEntity@@UAE?AVVector@@XZ
	DD	FLAT:?BodyTarget@CBaseEntity@@UAE?AVVector@@ABV2@@Z
	DD	FLAT:?IsPointSized@CBaseEntity@@UBEHXZ
	DD	FLAT:?Illumination@CBaseEntity@@UAEHXZ
	DD	FLAT:?FVisible@CBaseEntity@@UAEHABVVector@@@Z
	DD	FLAT:?FVisible@CBaseEntity@@UAEHPAV1@@Z
	DD	FLAT:?ShouldCollide@CBaseEntity@@UAEHPAV1@@Z
	DD	FLAT:?ClearEffects@CBaseEntity@@UAEXXZ
	DD	FLAT:?HandleAnimEvent@CBaseAnimating@@UAEXPAUMonsterEvent_t@@@Z
	DD	FLAT:?AddToPlayer@CBasePlayerItem@@UAEHPAVCBasePlayer@@@Z
	DD	FLAT:?AddDuplicate@CBasePlayerItem@@UAEHPAV1@@Z
	DD	FLAT:?GetItemInfo@CBasePlayerItem@@UAEHPAUItemInfo@@@Z
	DD	FLAT:?CanDeploy@CBasePlayerItem@@UAEHXZ
	DD	FLAT:?Deploy@CBasePlayerItem@@UAEHXZ
	DD	FLAT:?CanHolster@CBasePlayerItem@@UAEHXZ
	DD	FLAT:?Holster@CBasePlayerItem@@UAEXXZ
	DD	FLAT:?UpdateItemInfo@CBasePlayerItem@@UAEXXZ
	DD	FLAT:?ItemPreFrame@CBasePlayerItem@@UAEXXZ
	DD	FLAT:?ItemPostFrame@CBasePlayerItem@@UAEXXZ
	DD	FLAT:?Drop@CBasePlayerItem@@UAEXXZ
	DD	FLAT:?Kill@CBasePlayerItem@@UAEXXZ
	DD	FLAT:?AttachToPlayer@CBasePlayerItem@@UAEXPAVCBasePlayer@@@Z
	DD	FLAT:?PrimaryAmmoIndex@CBasePlayerItem@@UAEHXZ
	DD	FLAT:?SecondaryAmmoIndex@CBasePlayerItem@@UAEHXZ
	DD	FLAT:?UpdateClientData@CBasePlayerItem@@UAEHPAVCBasePlayer@@@Z
	DD	FLAT:?GetWeaponPtr@CBasePlayerItem@@UAEPAV1@XZ
	DD	FLAT:?iItemSlot@CBasePlayerItem@@UAEHXZ
CONST	ENDS
;	COMDAT ??_7CGrenade@@6B@
CONST	SEGMENT
??_7CGrenade@@6B@ DD FLAT:??_R4CGrenade@@6B@		; CGrenade::`vftable'
	DD	FLAT:?GetDataDescMap@CGrenade@@UAEPAUdatamap_s@@XZ
	DD	FLAT:?Spawn@CGrenade@@UAEXXZ
	DD	FLAT:?Precache@CBaseEntity@@UAEXXZ
	DD	FLAT:?KeyValue@CBaseMonster@@UAEXPAUKeyValueData_s@@@Z
	DD	FLAT:?Save@CBaseEntity@@UAEHAAVCSave@@@Z
	DD	FLAT:?Restore@CBaseMonster@@UAEHAAVCRestore@@@Z
	DD	FLAT:?ObjectCaps@CBaseEntity@@UAEHXZ
	DD	FLAT:?Activate@CBaseEntity@@UAEXXZ
	DD	FLAT:?OnChangeLevel@CBaseEntity@@UAEXXZ
	DD	FLAT:?OnTeleport@CBaseEntity@@UAEXXZ
	DD	FLAT:?PortalSleep@CBaseEntity@@UAEXM@Z
	DD	FLAT:?StartMessage@CBaseEntity@@UAEXPAVCBasePlayer@@@Z
	DD	FLAT:?GetPosition@CBaseEntity@@UAEMXZ
	DD	FLAT:?OnChangeParent@CBaseEntity@@UAEXXZ
	DD	FLAT:?OnClearParent@CBaseEntity@@UAEXXZ
	DD	FLAT:?OnRemove@CBaseEntity@@UAEXXZ
	DD	FLAT:?SetObjectCollisionBox@CBaseEntity@@UAEXXZ
	DD	FLAT:?Classify@CBaseMonster@@UAEHXZ
	DD	FLAT:?DeathNotice@CBaseEntity@@UAEXPAUentvars_s@@@Z
	DD	FLAT:?IsRigidBody@CBaseEntity@@UAEHXZ
	DD	FLAT:?SetNextThink@CBaseEntity@@UAEXM@Z
	DD	FLAT:?GetState@CBaseEntity@@UAE?AW4STATE@@PAV1@@Z
	DD	FLAT:?GetState@CBaseToggle@@UAE?AW4STATE@@XZ
	DD	FLAT:?TraceAttack@CBaseMonster@@UAEXPAUentvars_s@@MVVector@@PAUgametrace_s@@H@Z
	DD	FLAT:?TakeDamage@CBaseMonster@@UAEHPAUentvars_s@@0MH@Z
	DD	FLAT:?TakeHealth@CBaseMonster@@UAEHMH@Z
	DD	FLAT:?TakeArmor@CBaseEntity@@UAEHMH@Z
	DD	FLAT:?Killed@CGrenade@@UAEXPAUentvars_s@@H@Z
	DD	FLAT:?BloodColor@CGrenade@@UAEHXZ
	DD	FLAT:?TraceBleed@CBaseEntity@@UAEXMVVector@@PAUgametrace_s@@H@Z
	DD	FLAT:?IsTriggered@CBaseEntity@@UAEHPAV1@@Z
	DD	FLAT:?MyMonsterPointer@CBaseMonster@@UAEPAV1@XZ
	DD	FLAT:?MySquadMonsterPointer@CBaseEntity@@UAEPAVCSquadMonster@@XZ
	DD	FLAT:?GetToggleState@CBaseToggle@@UAEHXZ
	DD	FLAT:?AddPoints@CBaseEntity@@UAEXHH@Z
	DD	FLAT:?AddPointsToTeam@CBaseEntity@@UAEXHH@Z
	DD	FLAT:?AddPlayerItem@CBaseEntity@@UAEHPAVCBasePlayerItem@@@Z
	DD	FLAT:?RemovePlayerItem@CBaseEntity@@UAEHPAVCBasePlayerItem@@@Z
	DD	FLAT:?GiveAmmo@CBaseEntity@@UAEHHPADH@Z
	DD	FLAT:?GetDelay@CBaseToggle@@UAEMXZ
	DD	FLAT:?IsMoving@CBaseMonster@@UAEHXZ
	DD	FLAT:?OverrideReset@CBaseEntity@@UAEXXZ
	DD	FLAT:?TransferReset@CBaseEntity@@UAEXXZ
	DD	FLAT:?DamageDecal@CBaseMonster@@UAEHH@Z
	DD	FLAT:?SetToggleState@CBaseEntity@@UAEXH@Z
	DD	FLAT:?StartSneaking@CBaseEntity@@UAEXXZ
	DD	FLAT:?StopSneaking@CBaseEntity@@UAEXXZ
	DD	FLAT:?OnControls@CBaseEntity@@UAEHPAV1@@Z
	DD	FLAT:?IsSneaking@CBaseEntity@@UAEHXZ
	DD	FLAT:?IsAlive@CBaseMonster@@UAEHXZ
	DD	FLAT:?IsBSPModel@CBaseEntity@@UAEHXZ
	DD	FLAT:?IsCustomModel@CBaseEntity@@UAEHXZ
	DD	FLAT:?ReflectGauss@CBaseEntity@@UAEHXZ
	DD	FLAT:?HasTarget@CBaseEntity@@UAEHH@Z
	DD	FLAT:?IsInWorld@CBaseEntity@@UAEHH@Z
	DD	FLAT:?IsPlayer@CBaseEntity@@UAEHXZ
	DD	FLAT:?IsNetClient@CBaseEntity@@UAEHXZ
	DD	FLAT:?IsMonster@CBaseEntity@@UAEHXZ
	DD	FLAT:?IsPushable@CBaseEntity@@UAEHXZ
	DD	FLAT:?IsProjectile@CGrenade@@UAEHXZ
	DD	FLAT:?IsFuncScreen@CBaseEntity@@UAEHXZ
	DD	FLAT:?IsPortal@CBaseEntity@@UAEHXZ
	DD	FLAT:?IsTank@CBaseEntity@@UAEHXZ
	DD	FLAT:?IsMover@CBaseEntity@@UAEHXZ
	DD	FLAT:?IsBreakable@CBaseEntity@@UAEHXZ
	DD	FLAT:?TeamID@CBaseEntity@@UAEPBDXZ
	DD	FLAT:?AddSpawnFlags@CBaseEntity@@UAEXH@Z
	DD	FLAT:?HasSpawnFlags@CBaseEntity@@UBE_NH@Z
	DD	FLAT:?SetFadeDistance@CBaseEntity@@UAEXH@Z
	DD	FLAT:?SetFlag@CBaseEntity@@UAEXH@Z
	DD	FLAT:?HasFlag@CBaseEntity@@UBE_NH@Z
	DD	FLAT:?RemoveFlag@CBaseEntity@@UAEXH@Z
	DD	FLAT:?SetNullModel@CBaseEntity@@UAEXXZ
	DD	FLAT:?OnPickupObject@CBaseEntity@@UAEXXZ
	DD	FLAT:?OnDropObject@CBaseEntity@@UAEXXZ
	DD	FLAT:?GetNextTarget@CBaseEntity@@UAEPAV1@XZ
	DD	FLAT:?Think@CBaseEntity@@UAEXXZ
	DD	FLAT:?Use@CBaseEntity@@UAEXPAV1@0W4USE_TYPE@@M@Z
	DD	FLAT:?Touch@CBaseEntity@@UAEXPAV1@@Z
	DD	FLAT:?Blocked@CBaseEntity@@UAEXPAV1@@Z
	DD	FLAT:?MoveDone@CBaseToggle@@UAEXXZ
	DD	FLAT:?Respawn@CBaseEntity@@UAEPAV1@XZ
	DD	FLAT:?UpdateOwner@CBaseEntity@@UAEXXZ
	DD	FLAT:?FBecomeProne@CBaseMonster@@UAEHXZ
	DD	FLAT:?Center@CBaseEntity@@UAE?AVVector@@XZ
	DD	FLAT:?EyePosition@CBaseEntity@@UAE?AVVector@@XZ
	DD	FLAT:?EarPosition@CBaseEntity@@UAE?AVVector@@XZ
	DD	FLAT:?BodyTarget@CBaseMonster@@UAE?AVVector@@ABV2@@Z
	DD	FLAT:?IsPointSized@CBaseEntity@@UBEHXZ
	DD	FLAT:?Illumination@CBaseEntity@@UAEHXZ
	DD	FLAT:?FVisible@CBaseEntity@@UAEHABVVector@@@Z
	DD	FLAT:?FVisible@CBaseEntity@@UAEHPAV1@@Z
	DD	FLAT:?ShouldCollide@CBaseEntity@@UAEHPAV1@@Z
	DD	FLAT:?ClearEffects@CGrenade@@UAEXXZ
	DD	FLAT:?HandleAnimEvent@CBaseMonster@@UAEXPAUMonsterEvent_t@@@Z
	DD	FLAT:?Look@CBaseMonster@@UAEXH@Z
	DD	FLAT:?RunAI@CBaseMonster@@UAEXXZ
	DD	FLAT:?ShouldFadeOnDeath@CBaseMonster@@UAEHXZ
	DD	FLAT:?ChangeYaw@CBaseMonster@@UAEMH@Z
	DD	FLAT:?MonsterThink@CBaseMonster@@UAEXXZ
	DD	FLAT:?IRelationship@CBaseMonster@@UAEHPAVCBaseEntity@@@Z
	DD	FLAT:?MonsterInit@CBaseMonster@@UAEXXZ
	DD	FLAT:?MonsterInitDead@CBaseMonster@@UAEXXZ
	DD	FLAT:?BecomeDead@CBaseMonster@@UAEXXZ
	DD	FLAT:?StartMonster@CBaseMonster@@UAEXXZ
	DD	FLAT:?BestVisibleEnemy@CBaseMonster@@UAEPAVCBaseEntity@@XZ
	DD	FLAT:?FInViewCone@CBaseMonster@@UAEHPAVVector@@@Z
	DD	FLAT:?FInViewCone@CBaseMonster@@UAEHPAVCBaseEntity@@M@Z
	DD	FLAT:?CheckLocalMove@CBaseMonster@@UAEHABVVector@@0PAVCBaseEntity@@PAM@Z
	DD	FLAT:?Move@CBaseMonster@@UAEXM@Z
	DD	FLAT:?MoveExecute@CBaseMonster@@UAEXPAVCBaseEntity@@ABVVector@@M@Z
	DD	FLAT:?ShouldAdvanceRoute@CBaseMonster@@UAEHM@Z
	DD	FLAT:?GetStoppedActivity@CBaseMonster@@UAE?AW4Activity@@XZ
	DD	FLAT:?Stop@CBaseMonster@@UAEXXZ
	DD	FLAT:?CheckRangeAttack1@CBaseMonster@@UAEHMM@Z
	DD	FLAT:?CheckRangeAttack2@CBaseMonster@@UAEHMM@Z
	DD	FLAT:?CheckMeleeAttack1@CBaseMonster@@UAEHMM@Z
	DD	FLAT:?CheckMeleeAttack2@CBaseMonster@@UAEHMM@Z
	DD	FLAT:?ScheduleFromName@CBaseMonster@@UAEPAUSchedule_t@@PBD@Z
	DD	FLAT:?StartTask@CBaseMonster@@UAEXPAUTask_t@@@Z
	DD	FLAT:?RunTask@CBaseMonster@@UAEXPAUTask_t@@@Z
	DD	FLAT:?GetScheduleOfType@CBaseMonster@@UAEPAUSchedule_t@@H@Z
	DD	FLAT:?GetSchedule@CBaseMonster@@UAEPAUSchedule_t@@XZ
	DD	FLAT:?ScheduleChange@CBaseMonster@@UAEXXZ
	DD	FLAT:?CanPlaySequence@CBaseMonster@@UAEHHH@Z
	DD	FLAT:?CanPlaySentence@CBaseMonster@@UAEHH@Z
	DD	FLAT:?PlaySentence@CBaseMonster@@UAEXPBDMMMH@Z
	DD	FLAT:?PlayScriptedSentence@CBaseMonster@@UAEXPBDMMMHPAVCBaseEntity@@H@Z
	DD	FLAT:?SentenceStop@CBaseMonster@@UAEXXZ
	DD	FLAT:?GetIdealState@CBaseMonster@@UAE?AW4MONSTERSTATE@@XZ
	DD	FLAT:?SetActivity@CBaseMonster@@UAEXW4Activity@@@Z
	DD	FLAT:?ReportAIState@CBaseMonster@@UAEXXZ
	DD	FLAT:?CheckEnemy@CBaseMonster@@UAEHPAVCBaseEntity@@@Z
	DD	FLAT:?FTriangulate@CBaseMonster@@UAEHABVVector@@0MPAVCBaseEntity@@PAV2@@Z
	DD	FLAT:?SetYawSpeed@CBaseMonster@@UAEXXZ
	DD	FLAT:?BuildNearestRoute@CBaseMonster@@UAEHVVector@@0MM@Z
	DD	FLAT:?FindCover@CBaseMonster@@UAEHVVector@@0MM@Z
	DD	FLAT:?FindRunAway@CBaseMonster@@UAEHVVector@@MM@Z
	DD	FLAT:?FValidateCover@CBaseMonster@@UAEHABVVector@@@Z
	DD	FLAT:?CoverRadius@CBaseMonster@@UAEMXZ
	DD	FLAT:?FCanCheckAttacks@CBaseMonster@@UAEHXZ
	DD	FLAT:?CheckAmmo@CBaseMonster@@UAEXXZ
	DD	FLAT:?IgnoreConditions@CBaseMonster@@UAEHXZ
	DD	FLAT:?FValidateHintType@CBaseMonster@@UAEHF@Z
	DD	FLAT:?FCanActiveIdle@CBaseMonster@@UAEHXZ
	DD	FLAT:?ISoundMask@CBaseMonster@@UAEHXZ
	DD	FLAT:?PBestSound@CBaseMonster@@UAEPAVCSound@@XZ
	DD	FLAT:?PBestScent@CBaseMonster@@UAEPAVCSound@@XZ
	DD	FLAT:?HearingSensitivity@CBaseMonster@@UAEMXZ
	DD	FLAT:?BarnacleVictimBitten@CBaseMonster@@UAEXPAUentvars_s@@@Z
	DD	FLAT:?BarnacleVictimReleased@CBaseMonster@@UAEXXZ
	DD	FLAT:?PrescheduleThink@CBaseMonster@@UAEXXZ
	DD	FLAT:?GetDeathActivity@CBaseMonster@@UAE?AW4Activity@@XZ
	DD	FLAT:?GibMonster@CBaseMonster@@UAEXXZ
	DD	FLAT:?HasHumanGibs@CBaseMonster@@UAEHXZ
	DD	FLAT:?HasAlienGibs@CBaseMonster@@UAEHXZ
	DD	FLAT:?FadeMonster@CBaseMonster@@UAEXXZ
	DD	FLAT:?GetGunPosition@CBaseMonster@@UAE?AVVector@@XZ
	DD	FLAT:?DeathSound@CBaseMonster@@UAEXXZ
	DD	FLAT:?AlertSound@CBaseMonster@@UAEXXZ
	DD	FLAT:?IdleSound@CBaseMonster@@UAEXXZ
	DD	FLAT:?PainSound@CBaseMonster@@UAEXXZ
	DD	FLAT:?StepSound@CBaseMonster@@UAEXXZ
	DD	FLAT:?StopFollowing@CBaseMonster@@UAEXH@Z
	DD	FLAT:?BounceSound@CGrenade@@UAEXXZ
CONST	ENDS
;	COMDAT ??_C@_0BB@EMJBJDBM@sprites?1null?4spr?$AA@
CONST	SEGMENT
??_C@_0BB@EMJBJDBM@sprites?1null?4spr?$AA@ DB 'sprites/null.spr', 00H ; `string'
CONST	ENDS
;	COMDAT ??_7CBaseMonster@@6B@
CONST	SEGMENT
??_7CBaseMonster@@6B@ DD FLAT:??_R4CBaseMonster@@6B@	; CBaseMonster::`vftable'
	DD	FLAT:?GetDataDescMap@CBaseMonster@@UAEPAUdatamap_s@@XZ
	DD	FLAT:?Spawn@CBaseEntity@@UAEXXZ
	DD	FLAT:?Precache@CBaseEntity@@UAEXXZ
	DD	FLAT:?KeyValue@CBaseMonster@@UAEXPAUKeyValueData_s@@@Z
	DD	FLAT:?Save@CBaseEntity@@UAEHAAVCSave@@@Z
	DD	FLAT:?Restore@CBaseMonster@@UAEHAAVCRestore@@@Z
	DD	FLAT:?ObjectCaps@CBaseEntity@@UAEHXZ
	DD	FLAT:?Activate@CBaseEntity@@UAEXXZ
	DD	FLAT:?OnChangeLevel@CBaseEntity@@UAEXXZ
	DD	FLAT:?OnTeleport@CBaseEntity@@UAEXXZ
	DD	FLAT:?PortalSleep@CBaseEntity@@UAEXM@Z
	DD	FLAT:?StartMessage@CBaseEntity@@UAEXPAVCBasePlayer@@@Z
	DD	FLAT:?GetPosition@CBaseEntity@@UAEMXZ
	DD	FLAT:?OnChangeParent@CBaseEntity@@UAEXXZ
	DD	FLAT:?OnClearParent@CBaseEntity@@UAEXXZ
	DD	FLAT:?OnRemove@CBaseEntity@@UAEXXZ
	DD	FLAT:?SetObjectCollisionBox@CBaseEntity@@UAEXXZ
	DD	FLAT:?Classify@CBaseMonster@@UAEHXZ
	DD	FLAT:?DeathNotice@CBaseEntity@@UAEXPAUentvars_s@@@Z
	DD	FLAT:?IsRigidBody@CBaseEntity@@UAEHXZ
	DD	FLAT:?SetNextThink@CBaseEntity@@UAEXM@Z
	DD	FLAT:?GetState@CBaseEntity@@UAE?AW4STATE@@PAV1@@Z
	DD	FLAT:?GetState@CBaseToggle@@UAE?AW4STATE@@XZ
	DD	FLAT:?TraceAttack@CBaseMonster@@UAEXPAUentvars_s@@MVVector@@PAUgametrace_s@@H@Z
	DD	FLAT:?TakeDamage@CBaseMonster@@UAEHPAUentvars_s@@0MH@Z
	DD	FLAT:?TakeHealth@CBaseMonster@@UAEHMH@Z
	DD	FLAT:?TakeArmor@CBaseEntity@@UAEHMH@Z
	DD	FLAT:?Killed@CBaseMonster@@UAEXPAUentvars_s@@H@Z
	DD	FLAT:?BloodColor@CBaseMonster@@UAEHXZ
	DD	FLAT:?TraceBleed@CBaseEntity@@UAEXMVVector@@PAUgametrace_s@@H@Z
	DD	FLAT:?IsTriggered@CBaseEntity@@UAEHPAV1@@Z
	DD	FLAT:?MyMonsterPointer@CBaseMonster@@UAEPAV1@XZ
	DD	FLAT:?MySquadMonsterPointer@CBaseEntity@@UAEPAVCSquadMonster@@XZ
	DD	FLAT:?GetToggleState@CBaseToggle@@UAEHXZ
	DD	FLAT:?AddPoints@CBaseEntity@@UAEXHH@Z
	DD	FLAT:?AddPointsToTeam@CBaseEntity@@UAEXHH@Z
	DD	FLAT:?AddPlayerItem@CBaseEntity@@UAEHPAVCBasePlayerItem@@@Z
	DD	FLAT:?RemovePlayerItem@CBaseEntity@@UAEHPAVCBasePlayerItem@@@Z
	DD	FLAT:?GiveAmmo@CBaseEntity@@UAEHHPADH@Z
	DD	FLAT:?GetDelay@CBaseToggle@@UAEMXZ
	DD	FLAT:?IsMoving@CBaseMonster@@UAEHXZ
	DD	FLAT:?OverrideReset@CBaseEntity@@UAEXXZ
	DD	FLAT:?TransferReset@CBaseEntity@@UAEXXZ
	DD	FLAT:?DamageDecal@CBaseMonster@@UAEHH@Z
	DD	FLAT:?SetToggleState@CBaseEntity@@UAEXH@Z
	DD	FLAT:?StartSneaking@CBaseEntity@@UAEXXZ
	DD	FLAT:?StopSneaking@CBaseEntity@@UAEXXZ
	DD	FLAT:?OnControls@CBaseEntity@@UAEHPAV1@@Z
	DD	FLAT:?IsSneaking@CBaseEntity@@UAEHXZ
	DD	FLAT:?IsAlive@CBaseMonster@@UAEHXZ
	DD	FLAT:?IsBSPModel@CBaseEntity@@UAEHXZ
	DD	FLAT:?IsCustomModel@CBaseEntity@@UAEHXZ
	DD	FLAT:?ReflectGauss@CBaseEntity@@UAEHXZ
	DD	FLAT:?HasTarget@CBaseEntity@@UAEHH@Z
	DD	FLAT:?IsInWorld@CBaseEntity@@UAEHH@Z
	DD	FLAT:?IsPlayer@CBaseEntity@@UAEHXZ
	DD	FLAT:?IsNetClient@CBaseEntity@@UAEHXZ
	DD	FLAT:?IsMonster@CBaseEntity@@UAEHXZ
	DD	FLAT:?IsPushable@CBaseEntity@@UAEHXZ
	DD	FLAT:?IsProjectile@CBaseEntity@@UAEHXZ
	DD	FLAT:?IsFuncScreen@CBaseEntity@@UAEHXZ
	DD	FLAT:?IsPortal@CBaseEntity@@UAEHXZ
	DD	FLAT:?IsTank@CBaseEntity@@UAEHXZ
	DD	FLAT:?IsMover@CBaseEntity@@UAEHXZ
	DD	FLAT:?IsBreakable@CBaseEntity@@UAEHXZ
	DD	FLAT:?TeamID@CBaseEntity@@UAEPBDXZ
	DD	FLAT:?AddSpawnFlags@CBaseEntity@@UAEXH@Z
	DD	FLAT:?HasSpawnFlags@CBaseEntity@@UBE_NH@Z
	DD	FLAT:?SetFadeDistance@CBaseEntity@@UAEXH@Z
	DD	FLAT:?SetFlag@CBaseEntity@@UAEXH@Z
	DD	FLAT:?HasFlag@CBaseEntity@@UBE_NH@Z
	DD	FLAT:?RemoveFlag@CBaseEntity@@UAEXH@Z
	DD	FLAT:?SetNullModel@CBaseEntity@@UAEXXZ
	DD	FLAT:?OnPickupObject@CBaseEntity@@UAEXXZ
	DD	FLAT:?OnDropObject@CBaseEntity@@UAEXXZ
	DD	FLAT:?GetNextTarget@CBaseEntity@@UAEPAV1@XZ
	DD	FLAT:?Think@CBaseEntity@@UAEXXZ
	DD	FLAT:?Use@CBaseEntity@@UAEXPAV1@0W4USE_TYPE@@M@Z
	DD	FLAT:?Touch@CBaseEntity@@UAEXPAV1@@Z
	DD	FLAT:?Blocked@CBaseEntity@@UAEXPAV1@@Z
	DD	FLAT:?MoveDone@CBaseToggle@@UAEXXZ
	DD	FLAT:?Respawn@CBaseEntity@@UAEPAV1@XZ
	DD	FLAT:?UpdateOwner@CBaseEntity@@UAEXXZ
	DD	FLAT:?FBecomeProne@CBaseMonster@@UAEHXZ
	DD	FLAT:?Center@CBaseEntity@@UAE?AVVector@@XZ
	DD	FLAT:?EyePosition@CBaseEntity@@UAE?AVVector@@XZ
	DD	FLAT:?EarPosition@CBaseEntity@@UAE?AVVector@@XZ
	DD	FLAT:?BodyTarget@CBaseMonster@@UAE?AVVector@@ABV2@@Z
	DD	FLAT:?IsPointSized@CBaseEntity@@UBEHXZ
	DD	FLAT:?Illumination@CBaseEntity@@UAEHXZ
	DD	FLAT:?FVisible@CBaseEntity@@UAEHABVVector@@@Z
	DD	FLAT:?FVisible@CBaseEntity@@UAEHPAV1@@Z
	DD	FLAT:?ShouldCollide@CBaseEntity@@UAEHPAV1@@Z
	DD	FLAT:?ClearEffects@CBaseMonster@@UAEXXZ
	DD	FLAT:?HandleAnimEvent@CBaseMonster@@UAEXPAUMonsterEvent_t@@@Z
	DD	FLAT:?Look@CBaseMonster@@UAEXH@Z
	DD	FLAT:?RunAI@CBaseMonster@@UAEXXZ
	DD	FLAT:?ShouldFadeOnDeath@CBaseMonster@@UAEHXZ
	DD	FLAT:?ChangeYaw@CBaseMonster@@UAEMH@Z
	DD	FLAT:?MonsterThink@CBaseMonster@@UAEXXZ
	DD	FLAT:?IRelationship@CBaseMonster@@UAEHPAVCBaseEntity@@@Z
	DD	FLAT:?MonsterInit@CBaseMonster@@UAEXXZ
	DD	FLAT:?MonsterInitDead@CBaseMonster@@UAEXXZ
	DD	FLAT:?BecomeDead@CBaseMonster@@UAEXXZ
	DD	FLAT:?StartMonster@CBaseMonster@@UAEXXZ
	DD	FLAT:?BestVisibleEnemy@CBaseMonster@@UAEPAVCBaseEntity@@XZ
	DD	FLAT:?FInViewCone@CBaseMonster@@UAEHPAVVector@@@Z
	DD	FLAT:?FInViewCone@CBaseMonster@@UAEHPAVCBaseEntity@@M@Z
	DD	FLAT:?CheckLocalMove@CBaseMonster@@UAEHABVVector@@0PAVCBaseEntity@@PAM@Z
	DD	FLAT:?Move@CBaseMonster@@UAEXM@Z
	DD	FLAT:?MoveExecute@CBaseMonster@@UAEXPAVCBaseEntity@@ABVVector@@M@Z
	DD	FLAT:?ShouldAdvanceRoute@CBaseMonster@@UAEHM@Z
	DD	FLAT:?GetStoppedActivity@CBaseMonster@@UAE?AW4Activity@@XZ
	DD	FLAT:?Stop@CBaseMonster@@UAEXXZ
	DD	FLAT:?CheckRangeAttack1@CBaseMonster@@UAEHMM@Z
	DD	FLAT:?CheckRangeAttack2@CBaseMonster@@UAEHMM@Z
	DD	FLAT:?CheckMeleeAttack1@CBaseMonster@@UAEHMM@Z
	DD	FLAT:?CheckMeleeAttack2@CBaseMonster@@UAEHMM@Z
	DD	FLAT:?ScheduleFromName@CBaseMonster@@UAEPAUSchedule_t@@PBD@Z
	DD	FLAT:?StartTask@CBaseMonster@@UAEXPAUTask_t@@@Z
	DD	FLAT:?RunTask@CBaseMonster@@UAEXPAUTask_t@@@Z
	DD	FLAT:?GetScheduleOfType@CBaseMonster@@UAEPAUSchedule_t@@H@Z
	DD	FLAT:?GetSchedule@CBaseMonster@@UAEPAUSchedule_t@@XZ
	DD	FLAT:?ScheduleChange@CBaseMonster@@UAEXXZ
	DD	FLAT:?CanPlaySequence@CBaseMonster@@UAEHHH@Z
	DD	FLAT:?CanPlaySentence@CBaseMonster@@UAEHH@Z
	DD	FLAT:?PlaySentence@CBaseMonster@@UAEXPBDMMMH@Z
	DD	FLAT:?PlayScriptedSentence@CBaseMonster@@UAEXPBDMMMHPAVCBaseEntity@@H@Z
	DD	FLAT:?SentenceStop@CBaseMonster@@UAEXXZ
	DD	FLAT:?GetIdealState@CBaseMonster@@UAE?AW4MONSTERSTATE@@XZ
	DD	FLAT:?SetActivity@CBaseMonster@@UAEXW4Activity@@@Z
	DD	FLAT:?ReportAIState@CBaseMonster@@UAEXXZ
	DD	FLAT:?CheckEnemy@CBaseMonster@@UAEHPAVCBaseEntity@@@Z
	DD	FLAT:?FTriangulate@CBaseMonster@@UAEHABVVector@@0MPAVCBaseEntity@@PAV2@@Z
	DD	FLAT:?SetYawSpeed@CBaseMonster@@UAEXXZ
	DD	FLAT:?BuildNearestRoute@CBaseMonster@@UAEHVVector@@0MM@Z
	DD	FLAT:?FindCover@CBaseMonster@@UAEHVVector@@0MM@Z
	DD	FLAT:?FindRunAway@CBaseMonster@@UAEHVVector@@MM@Z
	DD	FLAT:?FValidateCover@CBaseMonster@@UAEHABVVector@@@Z
	DD	FLAT:?CoverRadius@CBaseMonster@@UAEMXZ
	DD	FLAT:?FCanCheckAttacks@CBaseMonster@@UAEHXZ
	DD	FLAT:?CheckAmmo@CBaseMonster@@UAEXXZ
	DD	FLAT:?IgnoreConditions@CBaseMonster@@UAEHXZ
	DD	FLAT:?FValidateHintType@CBaseMonster@@UAEHF@Z
	DD	FLAT:?FCanActiveIdle@CBaseMonster@@UAEHXZ
	DD	FLAT:?ISoundMask@CBaseMonster@@UAEHXZ
	DD	FLAT:?PBestSound@CBaseMonster@@UAEPAVCSound@@XZ
	DD	FLAT:?PBestScent@CBaseMonster@@UAEPAVCSound@@XZ
	DD	FLAT:?HearingSensitivity@CBaseMonster@@UAEMXZ
	DD	FLAT:?BarnacleVictimBitten@CBaseMonster@@UAEXPAUentvars_s@@@Z
	DD	FLAT:?BarnacleVictimReleased@CBaseMonster@@UAEXXZ
	DD	FLAT:?PrescheduleThink@CBaseMonster@@UAEXXZ
	DD	FLAT:?GetDeathActivity@CBaseMonster@@UAE?AW4Activity@@XZ
	DD	FLAT:?GibMonster@CBaseMonster@@UAEXXZ
	DD	FLAT:?HasHumanGibs@CBaseMonster@@UAEHXZ
	DD	FLAT:?HasAlienGibs@CBaseMonster@@UAEHXZ
	DD	FLAT:?FadeMonster@CBaseMonster@@UAEXXZ
	DD	FLAT:?GetGunPosition@CBaseMonster@@UAE?AVVector@@XZ
	DD	FLAT:?DeathSound@CBaseMonster@@UAEXXZ
	DD	FLAT:?AlertSound@CBaseMonster@@UAEXXZ
	DD	FLAT:?IdleSound@CBaseMonster@@UAEXXZ
	DD	FLAT:?PainSound@CBaseMonster@@UAEXXZ
	DD	FLAT:?StepSound@CBaseMonster@@UAEXXZ
	DD	FLAT:?StopFollowing@CBaseMonster@@UAEXH@Z
CONST	ENDS
;	COMDAT ??_7CBaseToggle@@6B@
CONST	SEGMENT
??_7CBaseToggle@@6B@ DD FLAT:??_R4CBaseToggle@@6B@	; CBaseToggle::`vftable'
	DD	FLAT:?GetDataDescMap@CBaseToggle@@UAEPAUdatamap_s@@XZ
	DD	FLAT:?Spawn@CBaseEntity@@UAEXXZ
	DD	FLAT:?Precache@CBaseEntity@@UAEXXZ
	DD	FLAT:?KeyValue@CBaseToggle@@UAEXPAUKeyValueData_s@@@Z
	DD	FLAT:?Save@CBaseEntity@@UAEHAAVCSave@@@Z
	DD	FLAT:?Restore@CBaseToggle@@UAEHAAVCRestore@@@Z
	DD	FLAT:?ObjectCaps@CBaseEntity@@UAEHXZ
	DD	FLAT:?Activate@CBaseEntity@@UAEXXZ
	DD	FLAT:?OnChangeLevel@CBaseEntity@@UAEXXZ
	DD	FLAT:?OnTeleport@CBaseEntity@@UAEXXZ
	DD	FLAT:?PortalSleep@CBaseEntity@@UAEXM@Z
	DD	FLAT:?StartMessage@CBaseEntity@@UAEXPAVCBasePlayer@@@Z
	DD	FLAT:?GetPosition@CBaseEntity@@UAEMXZ
	DD	FLAT:?OnChangeParent@CBaseEntity@@UAEXXZ
	DD	FLAT:?OnClearParent@CBaseEntity@@UAEXXZ
	DD	FLAT:?OnRemove@CBaseEntity@@UAEXXZ
	DD	FLAT:?SetObjectCollisionBox@CBaseEntity@@UAEXXZ
	DD	FLAT:?Classify@CBaseEntity@@UAEHXZ
	DD	FLAT:?DeathNotice@CBaseEntity@@UAEXPAUentvars_s@@@Z
	DD	FLAT:?IsRigidBody@CBaseEntity@@UAEHXZ
	DD	FLAT:?SetNextThink@CBaseEntity@@UAEXM@Z
	DD	FLAT:?GetState@CBaseEntity@@UAE?AW4STATE@@PAV1@@Z
	DD	FLAT:?GetState@CBaseToggle@@UAE?AW4STATE@@XZ
	DD	FLAT:?TraceAttack@CBaseEntity@@UAEXPAUentvars_s@@MVVector@@PAUgametrace_s@@H@Z
	DD	FLAT:?TakeDamage@CBaseEntity@@UAEHPAUentvars_s@@0MH@Z
	DD	FLAT:?TakeHealth@CBaseEntity@@UAEHMH@Z
	DD	FLAT:?TakeArmor@CBaseEntity@@UAEHMH@Z
	DD	FLAT:?Killed@CBaseEntity@@UAEXPAUentvars_s@@H@Z
	DD	FLAT:?BloodColor@CBaseEntity@@UAEHXZ
	DD	FLAT:?TraceBleed@CBaseEntity@@UAEXMVVector@@PAUgametrace_s@@H@Z
	DD	FLAT:?IsTriggered@CBaseEntity@@UAEHPAV1@@Z
	DD	FLAT:?MyMonsterPointer@CBaseEntity@@UAEPAVCBaseMonster@@XZ
	DD	FLAT:?MySquadMonsterPointer@CBaseEntity@@UAEPAVCSquadMonster@@XZ
	DD	FLAT:?GetToggleState@CBaseToggle@@UAEHXZ
	DD	FLAT:?AddPoints@CBaseEntity@@UAEXHH@Z
	DD	FLAT:?AddPointsToTeam@CBaseEntity@@UAEXHH@Z
	DD	FLAT:?AddPlayerItem@CBaseEntity@@UAEHPAVCBasePlayerItem@@@Z
	DD	FLAT:?RemovePlayerItem@CBaseEntity@@UAEHPAVCBasePlayerItem@@@Z
	DD	FLAT:?GiveAmmo@CBaseEntity@@UAEHHPADH@Z
	DD	FLAT:?GetDelay@CBaseToggle@@UAEMXZ
	DD	FLAT:?IsMoving@CBaseEntity@@UAEHXZ
	DD	FLAT:?OverrideReset@CBaseEntity@@UAEXXZ
	DD	FLAT:?TransferReset@CBaseEntity@@UAEXXZ
	DD	FLAT:?DamageDecal@CBaseEntity@@UAEHH@Z
	DD	FLAT:?SetToggleState@CBaseEntity@@UAEXH@Z
	DD	FLAT:?StartSneaking@CBaseEntity@@UAEXXZ
	DD	FLAT:?StopSneaking@CBaseEntity@@UAEXXZ
	DD	FLAT:?OnControls@CBaseEntity@@UAEHPAV1@@Z
	DD	FLAT:?IsSneaking@CBaseEntity@@UAEHXZ
	DD	FLAT:?IsAlive@CBaseEntity@@UAEHXZ
	DD	FLAT:?IsBSPModel@CBaseEntity@@UAEHXZ
	DD	FLAT:?IsCustomModel@CBaseEntity@@UAEHXZ
	DD	FLAT:?ReflectGauss@CBaseEntity@@UAEHXZ
	DD	FLAT:?HasTarget@CBaseEntity@@UAEHH@Z
	DD	FLAT:?IsInWorld@CBaseEntity@@UAEHH@Z
	DD	FLAT:?IsPlayer@CBaseEntity@@UAEHXZ
	DD	FLAT:?IsNetClient@CBaseEntity@@UAEHXZ
	DD	FLAT:?IsMonster@CBaseEntity@@UAEHXZ
	DD	FLAT:?IsPushable@CBaseEntity@@UAEHXZ
	DD	FLAT:?IsProjectile@CBaseEntity@@UAEHXZ
	DD	FLAT:?IsFuncScreen@CBaseEntity@@UAEHXZ
	DD	FLAT:?IsPortal@CBaseEntity@@UAEHXZ
	DD	FLAT:?IsTank@CBaseEntity@@UAEHXZ
	DD	FLAT:?IsMover@CBaseEntity@@UAEHXZ
	DD	FLAT:?IsBreakable@CBaseEntity@@UAEHXZ
	DD	FLAT:?TeamID@CBaseEntity@@UAEPBDXZ
	DD	FLAT:?AddSpawnFlags@CBaseEntity@@UAEXH@Z
	DD	FLAT:?HasSpawnFlags@CBaseEntity@@UBE_NH@Z
	DD	FLAT:?SetFadeDistance@CBaseEntity@@UAEXH@Z
	DD	FLAT:?SetFlag@CBaseEntity@@UAEXH@Z
	DD	FLAT:?HasFlag@CBaseEntity@@UBE_NH@Z
	DD	FLAT:?RemoveFlag@CBaseEntity@@UAEXH@Z
	DD	FLAT:?SetNullModel@CBaseEntity@@UAEXXZ
	DD	FLAT:?OnPickupObject@CBaseEntity@@UAEXXZ
	DD	FLAT:?OnDropObject@CBaseEntity@@UAEXXZ
	DD	FLAT:?GetNextTarget@CBaseEntity@@UAEPAV1@XZ
	DD	FLAT:?Think@CBaseEntity@@UAEXXZ
	DD	FLAT:?Use@CBaseEntity@@UAEXPAV1@0W4USE_TYPE@@M@Z
	DD	FLAT:?Touch@CBaseEntity@@UAEXPAV1@@Z
	DD	FLAT:?Blocked@CBaseEntity@@UAEXPAV1@@Z
	DD	FLAT:?MoveDone@CBaseToggle@@UAEXXZ
	DD	FLAT:?Respawn@CBaseEntity@@UAEPAV1@XZ
	DD	FLAT:?UpdateOwner@CBaseEntity@@UAEXXZ
	DD	FLAT:?FBecomeProne@CBaseEntity@@UAEHXZ
	DD	FLAT:?Center@CBaseEntity@@UAE?AVVector@@XZ
	DD	FLAT:?EyePosition@CBaseEntity@@UAE?AVVector@@XZ
	DD	FLAT:?EarPosition@CBaseEntity@@UAE?AVVector@@XZ
	DD	FLAT:?BodyTarget@CBaseEntity@@UAE?AVVector@@ABV2@@Z
	DD	FLAT:?IsPointSized@CBaseEntity@@UBEHXZ
	DD	FLAT:?Illumination@CBaseEntity@@UAEHXZ
	DD	FLAT:?FVisible@CBaseEntity@@UAEHABVVector@@@Z
	DD	FLAT:?FVisible@CBaseEntity@@UAEHPAV1@@Z
	DD	FLAT:?ShouldCollide@CBaseEntity@@UAEHPAV1@@Z
	DD	FLAT:?ClearEffects@CBaseEntity@@UAEXXZ
	DD	FLAT:?HandleAnimEvent@CBaseAnimating@@UAEXPAUMonsterEvent_t@@@Z
CONST	ENDS
;	COMDAT ??_7CBaseAnimating@@6B@
CONST	SEGMENT
??_7CBaseAnimating@@6B@ DD FLAT:??_R4CBaseAnimating@@6B@ ; CBaseAnimating::`vftable'
	DD	FLAT:?GetDataDescMap@CBaseAnimating@@UAEPAUdatamap_s@@XZ
	DD	FLAT:?Spawn@CBaseEntity@@UAEXXZ
	DD	FLAT:?Precache@CBaseEntity@@UAEXXZ
	DD	FLAT:?KeyValue@CBaseDelay@@UAEXPAUKeyValueData_s@@@Z
	DD	FLAT:?Save@CBaseEntity@@UAEHAAVCSave@@@Z
	DD	FLAT:?Restore@CBaseEntity@@UAEHAAVCRestore@@@Z
	DD	FLAT:?ObjectCaps@CBaseEntity@@UAEHXZ
	DD	FLAT:?Activate@CBaseEntity@@UAEXXZ
	DD	FLAT:?OnChangeLevel@CBaseEntity@@UAEXXZ
	DD	FLAT:?OnTeleport@CBaseEntity@@UAEXXZ
	DD	FLAT:?PortalSleep@CBaseEntity@@UAEXM@Z
	DD	FLAT:?StartMessage@CBaseEntity@@UAEXPAVCBasePlayer@@@Z
	DD	FLAT:?GetPosition@CBaseEntity@@UAEMXZ
	DD	FLAT:?OnChangeParent@CBaseEntity@@UAEXXZ
	DD	FLAT:?OnClearParent@CBaseEntity@@UAEXXZ
	DD	FLAT:?OnRemove@CBaseEntity@@UAEXXZ
	DD	FLAT:?SetObjectCollisionBox@CBaseEntity@@UAEXXZ
	DD	FLAT:?Classify@CBaseEntity@@UAEHXZ
	DD	FLAT:?DeathNotice@CBaseEntity@@UAEXPAUentvars_s@@@Z
	DD	FLAT:?IsRigidBody@CBaseEntity@@UAEHXZ
	DD	FLAT:?SetNextThink@CBaseEntity@@UAEXM@Z
	DD	FLAT:?GetState@CBaseEntity@@UAE?AW4STATE@@PAV1@@Z
	DD	FLAT:?GetState@CBaseDelay@@UAE?AW4STATE@@XZ
	DD	FLAT:?TraceAttack@CBaseEntity@@UAEXPAUentvars_s@@MVVector@@PAUgametrace_s@@H@Z
	DD	FLAT:?TakeDamage@CBaseEntity@@UAEHPAUentvars_s@@0MH@Z
	DD	FLAT:?TakeHealth@CBaseEntity@@UAEHMH@Z
	DD	FLAT:?TakeArmor@CBaseEntity@@UAEHMH@Z
	DD	FLAT:?Killed@CBaseEntity@@UAEXPAUentvars_s@@H@Z
	DD	FLAT:?BloodColor@CBaseEntity@@UAEHXZ
	DD	FLAT:?TraceBleed@CBaseEntity@@UAEXMVVector@@PAUgametrace_s@@H@Z
	DD	FLAT:?IsTriggered@CBaseEntity@@UAEHPAV1@@Z
	DD	FLAT:?MyMonsterPointer@CBaseEntity@@UAEPAVCBaseMonster@@XZ
	DD	FLAT:?MySquadMonsterPointer@CBaseEntity@@UAEPAVCSquadMonster@@XZ
	DD	FLAT:?GetToggleState@CBaseEntity@@UAEHXZ
	DD	FLAT:?AddPoints@CBaseEntity@@UAEXHH@Z
	DD	FLAT:?AddPointsToTeam@CBaseEntity@@UAEXHH@Z
	DD	FLAT:?AddPlayerItem@CBaseEntity@@UAEHPAVCBasePlayerItem@@@Z
	DD	FLAT:?RemovePlayerItem@CBaseEntity@@UAEHPAVCBasePlayerItem@@@Z
	DD	FLAT:?GiveAmmo@CBaseEntity@@UAEHHPADH@Z
	DD	FLAT:?GetDelay@CBaseEntity@@UAEMXZ
	DD	FLAT:?IsMoving@CBaseEntity@@UAEHXZ
	DD	FLAT:?OverrideReset@CBaseEntity@@UAEXXZ
	DD	FLAT:?TransferReset@CBaseEntity@@UAEXXZ
	DD	FLAT:?DamageDecal@CBaseEntity@@UAEHH@Z
	DD	FLAT:?SetToggleState@CBaseEntity@@UAEXH@Z
	DD	FLAT:?StartSneaking@CBaseEntity@@UAEXXZ
	DD	FLAT:?StopSneaking@CBaseEntity@@UAEXXZ
	DD	FLAT:?OnControls@CBaseEntity@@UAEHPAV1@@Z
	DD	FLAT:?IsSneaking@CBaseEntity@@UAEHXZ
	DD	FLAT:?IsAlive@CBaseEntity@@UAEHXZ
	DD	FLAT:?IsBSPModel@CBaseEntity@@UAEHXZ
	DD	FLAT:?IsCustomModel@CBaseEntity@@UAEHXZ
	DD	FLAT:?ReflectGauss@CBaseEntity@@UAEHXZ
	DD	FLAT:?HasTarget@CBaseEntity@@UAEHH@Z
	DD	FLAT:?IsInWorld@CBaseEntity@@UAEHH@Z
	DD	FLAT:?IsPlayer@CBaseEntity@@UAEHXZ
	DD	FLAT:?IsNetClient@CBaseEntity@@UAEHXZ
	DD	FLAT:?IsMonster@CBaseEntity@@UAEHXZ
	DD	FLAT:?IsPushable@CBaseEntity@@UAEHXZ
	DD	FLAT:?IsProjectile@CBaseEntity@@UAEHXZ
	DD	FLAT:?IsFuncScreen@CBaseEntity@@UAEHXZ
	DD	FLAT:?IsPortal@CBaseEntity@@UAEHXZ
	DD	FLAT:?IsTank@CBaseEntity@@UAEHXZ
	DD	FLAT:?IsMover@CBaseEntity@@UAEHXZ
	DD	FLAT:?IsBreakable@CBaseEntity@@UAEHXZ
	DD	FLAT:?TeamID@CBaseEntity@@UAEPBDXZ
	DD	FLAT:?AddSpawnFlags@CBaseEntity@@UAEXH@Z
	DD	FLAT:?HasSpawnFlags@CBaseEntity@@UBE_NH@Z
	DD	FLAT:?SetFadeDistance@CBaseEntity@@UAEXH@Z
	DD	FLAT:?SetFlag@CBaseEntity@@UAEXH@Z
	DD	FLAT:?HasFlag@CBaseEntity@@UBE_NH@Z
	DD	FLAT:?RemoveFlag@CBaseEntity@@UAEXH@Z
	DD	FLAT:?SetNullModel@CBaseEntity@@UAEXXZ
	DD	FLAT:?OnPickupObject@CBaseEntity@@UAEXXZ
	DD	FLAT:?OnDropObject@CBaseEntity@@UAEXXZ
	DD	FLAT:?GetNextTarget@CBaseEntity@@UAEPAV1@XZ
	DD	FLAT:?Think@CBaseEntity@@UAEXXZ
	DD	FLAT:?Use@CBaseEntity@@UAEXPAV1@0W4USE_TYPE@@M@Z
	DD	FLAT:?Touch@CBaseEntity@@UAEXPAV1@@Z
	DD	FLAT:?Blocked@CBaseEntity@@UAEXPAV1@@Z
	DD	FLAT:?MoveDone@CBaseEntity@@UAEXXZ
	DD	FLAT:?Respawn@CBaseEntity@@UAEPAV1@XZ
	DD	FLAT:?UpdateOwner@CBaseEntity@@UAEXXZ
	DD	FLAT:?FBecomeProne@CBaseEntity@@UAEHXZ
	DD	FLAT:?Center@CBaseEntity@@UAE?AVVector@@XZ
	DD	FLAT:?EyePosition@CBaseEntity@@UAE?AVVector@@XZ
	DD	FLAT:?EarPosition@CBaseEntity@@UAE?AVVector@@XZ
	DD	FLAT:?BodyTarget@CBaseEntity@@UAE?AVVector@@ABV2@@Z
	DD	FLAT:?IsPointSized@CBaseEntity@@UBEHXZ
	DD	FLAT:?Illumination@CBaseEntity@@UAEHXZ
	DD	FLAT:?FVisible@CBaseEntity@@UAEHABVVector@@@Z
	DD	FLAT:?FVisible@CBaseEntity@@UAEHPAV1@@Z
	DD	FLAT:?ShouldCollide@CBaseEntity@@UAEHPAV1@@Z
	DD	FLAT:?ClearEffects@CBaseEntity@@UAEXXZ
	DD	FLAT:?HandleAnimEvent@CBaseAnimating@@UAEXPAUMonsterEvent_t@@@Z
CONST	ENDS
;	COMDAT ??_7CBaseDelay@@6B@
CONST	SEGMENT
??_7CBaseDelay@@6B@ DD FLAT:??_R4CBaseDelay@@6B@	; CBaseDelay::`vftable'
	DD	FLAT:?GetDataDescMap@CBaseDelay@@UAEPAUdatamap_s@@XZ
	DD	FLAT:?Spawn@CBaseEntity@@UAEXXZ
	DD	FLAT:?Precache@CBaseEntity@@UAEXXZ
	DD	FLAT:?KeyValue@CBaseDelay@@UAEXPAUKeyValueData_s@@@Z
	DD	FLAT:?Save@CBaseEntity@@UAEHAAVCSave@@@Z
	DD	FLAT:?Restore@CBaseEntity@@UAEHAAVCRestore@@@Z
	DD	FLAT:?ObjectCaps@CBaseEntity@@UAEHXZ
	DD	FLAT:?Activate@CBaseEntity@@UAEXXZ
	DD	FLAT:?OnChangeLevel@CBaseEntity@@UAEXXZ
	DD	FLAT:?OnTeleport@CBaseEntity@@UAEXXZ
	DD	FLAT:?PortalSleep@CBaseEntity@@UAEXM@Z
	DD	FLAT:?StartMessage@CBaseEntity@@UAEXPAVCBasePlayer@@@Z
	DD	FLAT:?GetPosition@CBaseEntity@@UAEMXZ
	DD	FLAT:?OnChangeParent@CBaseEntity@@UAEXXZ
	DD	FLAT:?OnClearParent@CBaseEntity@@UAEXXZ
	DD	FLAT:?OnRemove@CBaseEntity@@UAEXXZ
	DD	FLAT:?SetObjectCollisionBox@CBaseEntity@@UAEXXZ
	DD	FLAT:?Classify@CBaseEntity@@UAEHXZ
	DD	FLAT:?DeathNotice@CBaseEntity@@UAEXPAUentvars_s@@@Z
	DD	FLAT:?IsRigidBody@CBaseEntity@@UAEHXZ
	DD	FLAT:?SetNextThink@CBaseEntity@@UAEXM@Z
	DD	FLAT:?GetState@CBaseEntity@@UAE?AW4STATE@@PAV1@@Z
	DD	FLAT:?GetState@CBaseDelay@@UAE?AW4STATE@@XZ
	DD	FLAT:?TraceAttack@CBaseEntity@@UAEXPAUentvars_s@@MVVector@@PAUgametrace_s@@H@Z
	DD	FLAT:?TakeDamage@CBaseEntity@@UAEHPAUentvars_s@@0MH@Z
	DD	FLAT:?TakeHealth@CBaseEntity@@UAEHMH@Z
	DD	FLAT:?TakeArmor@CBaseEntity@@UAEHMH@Z
	DD	FLAT:?Killed@CBaseEntity@@UAEXPAUentvars_s@@H@Z
	DD	FLAT:?BloodColor@CBaseEntity@@UAEHXZ
	DD	FLAT:?TraceBleed@CBaseEntity@@UAEXMVVector@@PAUgametrace_s@@H@Z
	DD	FLAT:?IsTriggered@CBaseEntity@@UAEHPAV1@@Z
	DD	FLAT:?MyMonsterPointer@CBaseEntity@@UAEPAVCBaseMonster@@XZ
	DD	FLAT:?MySquadMonsterPointer@CBaseEntity@@UAEPAVCSquadMonster@@XZ
	DD	FLAT:?GetToggleState@CBaseEntity@@UAEHXZ
	DD	FLAT:?AddPoints@CBaseEntity@@UAEXHH@Z
	DD	FLAT:?AddPointsToTeam@CBaseEntity@@UAEXHH@Z
	DD	FLAT:?AddPlayerItem@CBaseEntity@@UAEHPAVCBasePlayerItem@@@Z
	DD	FLAT:?RemovePlayerItem@CBaseEntity@@UAEHPAVCBasePlayerItem@@@Z
	DD	FLAT:?GiveAmmo@CBaseEntity@@UAEHHPADH@Z
	DD	FLAT:?GetDelay@CBaseEntity@@UAEMXZ
	DD	FLAT:?IsMoving@CBaseEntity@@UAEHXZ
	DD	FLAT:?OverrideReset@CBaseEntity@@UAEXXZ
	DD	FLAT:?TransferReset@CBaseEntity@@UAEXXZ
	DD	FLAT:?DamageDecal@CBaseEntity@@UAEHH@Z
	DD	FLAT:?SetToggleState@CBaseEntity@@UAEXH@Z
	DD	FLAT:?StartSneaking@CBaseEntity@@UAEXXZ
	DD	FLAT:?StopSneaking@CBaseEntity@@UAEXXZ
	DD	FLAT:?OnControls@CBaseEntity@@UAEHPAV1@@Z
	DD	FLAT:?IsSneaking@CBaseEntity@@UAEHXZ
	DD	FLAT:?IsAlive@CBaseEntity@@UAEHXZ
	DD	FLAT:?IsBSPModel@CBaseEntity@@UAEHXZ
	DD	FLAT:?IsCustomModel@CBaseEntity@@UAEHXZ
	DD	FLAT:?ReflectGauss@CBaseEntity@@UAEHXZ
	DD	FLAT:?HasTarget@CBaseEntity@@UAEHH@Z
	DD	FLAT:?IsInWorld@CBaseEntity@@UAEHH@Z
	DD	FLAT:?IsPlayer@CBaseEntity@@UAEHXZ
	DD	FLAT:?IsNetClient@CBaseEntity@@UAEHXZ
	DD	FLAT:?IsMonster@CBaseEntity@@UAEHXZ
	DD	FLAT:?IsPushable@CBaseEntity@@UAEHXZ
	DD	FLAT:?IsProjectile@CBaseEntity@@UAEHXZ
	DD	FLAT:?IsFuncScreen@CBaseEntity@@UAEHXZ
	DD	FLAT:?IsPortal@CBaseEntity@@UAEHXZ
	DD	FLAT:?IsTank@CBaseEntity@@UAEHXZ
	DD	FLAT:?IsMover@CBaseEntity@@UAEHXZ
	DD	FLAT:?IsBreakable@CBaseEntity@@UAEHXZ
	DD	FLAT:?TeamID@CBaseEntity@@UAEPBDXZ
	DD	FLAT:?AddSpawnFlags@CBaseEntity@@UAEXH@Z
	DD	FLAT:?HasSpawnFlags@CBaseEntity@@UBE_NH@Z
	DD	FLAT:?SetFadeDistance@CBaseEntity@@UAEXH@Z
	DD	FLAT:?SetFlag@CBaseEntity@@UAEXH@Z
	DD	FLAT:?HasFlag@CBaseEntity@@UBE_NH@Z
	DD	FLAT:?RemoveFlag@CBaseEntity@@UAEXH@Z
	DD	FLAT:?SetNullModel@CBaseEntity@@UAEXXZ
	DD	FLAT:?OnPickupObject@CBaseEntity@@UAEXXZ
	DD	FLAT:?OnDropObject@CBaseEntity@@UAEXXZ
	DD	FLAT:?GetNextTarget@CBaseEntity@@UAEPAV1@XZ
	DD	FLAT:?Think@CBaseEntity@@UAEXXZ
	DD	FLAT:?Use@CBaseEntity@@UAEXPAV1@0W4USE_TYPE@@M@Z
	DD	FLAT:?Touch@CBaseEntity@@UAEXPAV1@@Z
	DD	FLAT:?Blocked@CBaseEntity@@UAEXPAV1@@Z
	DD	FLAT:?MoveDone@CBaseEntity@@UAEXXZ
	DD	FLAT:?Respawn@CBaseEntity@@UAEPAV1@XZ
	DD	FLAT:?UpdateOwner@CBaseEntity@@UAEXXZ
	DD	FLAT:?FBecomeProne@CBaseEntity@@UAEHXZ
	DD	FLAT:?Center@CBaseEntity@@UAE?AVVector@@XZ
	DD	FLAT:?EyePosition@CBaseEntity@@UAE?AVVector@@XZ
	DD	FLAT:?EarPosition@CBaseEntity@@UAE?AVVector@@XZ
	DD	FLAT:?BodyTarget@CBaseEntity@@UAE?AVVector@@ABV2@@Z
	DD	FLAT:?IsPointSized@CBaseEntity@@UBEHXZ
	DD	FLAT:?Illumination@CBaseEntity@@UAEHXZ
	DD	FLAT:?FVisible@CBaseEntity@@UAEHABVVector@@@Z
	DD	FLAT:?FVisible@CBaseEntity@@UAEHPAV1@@Z
	DD	FLAT:?ShouldCollide@CBaseEntity@@UAEHPAV1@@Z
	DD	FLAT:?ClearEffects@CBaseEntity@@UAEXXZ
CONST	ENDS
;	COMDAT ??_C@_0CH@HELFJPDL@FUNCTION?5NOT?5IN?5TABLE?$CB?3?5?$CFs?3?$CFs?5?$CI?$CF@
CONST	SEGMENT
??_C@_0CH@HELFJPDL@FUNCTION?5NOT?5IN?5TABLE?$CB?3?5?$CFs?3?$CFs?5?$CI?$CF@ DB 'F'
	DB	'UNCTION NOT IN TABLE!: %s:%s (%08lx)', 0aH, 00H ; `string'
CONST	ENDS
;	COMDAT ??_C@_0L@JIJDCONP@customname?$AA@
CONST	SEGMENT
??_C@_0L@JIJDCONP@customname?$AA@ DB 'customname', 00H	; `string'
CONST	ENDS
;	COMDAT ??_C@_0N@JILDNHAP@vlight_cache?$AA@
CONST	SEGMENT
??_C@_0N@JILDNHAP@vlight_cache?$AA@ DB 'vlight_cache', 00H ; `string'
CONST	ENDS
;	COMDAT ??_C@_0L@IKCANML@reflection?$AA@
CONST	SEGMENT
??_C@_0L@IKCANML@reflection?$AA@ DB 'reflection', 00H	; `string'
CONST	ENDS
;	COMDAT ??_C@_05IAKJCFIM@style?$AA@
CONST	SEGMENT
??_C@_05IAKJCFIM@style?$AA@ DB 'style', 00H		; `string'
CONST	ENDS
;	COMDAT ??_C@_0M@EAELDHJO@parentflags?$AA@
CONST	SEGMENT
??_C@_0M@EAELDHJO@parentflags?$AA@ DB 'parentflags', 00H ; `string'
CONST	ENDS
;	COMDAT ??_C@_08JJJAOBDI@movewith?$AA@
CONST	SEGMENT
??_C@_08JJJAOBDI@movewith?$AA@ DB 'movewith', 00H	; `string'
CONST	ENDS
;	COMDAT ??_C@_06MLKDMCBD@parent?$AA@
CONST	SEGMENT
??_C@_06MLKDMCBD@parent?$AA@ DB 'parent', 00H		; `string'
CONST	ENDS
;	COMDAT ??_7CBaseEntity@@6B@
CONST	SEGMENT
??_7CBaseEntity@@6B@ DD FLAT:??_R4CBaseEntity@@6B@	; CBaseEntity::`vftable'
	DD	FLAT:?GetDataDescMap@CBaseEntity@@UAEPAUdatamap_s@@XZ
	DD	FLAT:?Spawn@CBaseEntity@@UAEXXZ
	DD	FLAT:?Precache@CBaseEntity@@UAEXXZ
	DD	FLAT:?KeyValue@CBaseEntity@@UAEXPAUKeyValueData_s@@@Z
	DD	FLAT:?Save@CBaseEntity@@UAEHAAVCSave@@@Z
	DD	FLAT:?Restore@CBaseEntity@@UAEHAAVCRestore@@@Z
	DD	FLAT:?ObjectCaps@CBaseEntity@@UAEHXZ
	DD	FLAT:?Activate@CBaseEntity@@UAEXXZ
	DD	FLAT:?OnChangeLevel@CBaseEntity@@UAEXXZ
	DD	FLAT:?OnTeleport@CBaseEntity@@UAEXXZ
	DD	FLAT:?PortalSleep@CBaseEntity@@UAEXM@Z
	DD	FLAT:?StartMessage@CBaseEntity@@UAEXPAVCBasePlayer@@@Z
	DD	FLAT:?GetPosition@CBaseEntity@@UAEMXZ
	DD	FLAT:?OnChangeParent@CBaseEntity@@UAEXXZ
	DD	FLAT:?OnClearParent@CBaseEntity@@UAEXXZ
	DD	FLAT:?OnRemove@CBaseEntity@@UAEXXZ
	DD	FLAT:?SetObjectCollisionBox@CBaseEntity@@UAEXXZ
	DD	FLAT:?Classify@CBaseEntity@@UAEHXZ
	DD	FLAT:?DeathNotice@CBaseEntity@@UAEXPAUentvars_s@@@Z
	DD	FLAT:?IsRigidBody@CBaseEntity@@UAEHXZ
	DD	FLAT:?SetNextThink@CBaseEntity@@UAEXM@Z
	DD	FLAT:?GetState@CBaseEntity@@UAE?AW4STATE@@PAV1@@Z
	DD	FLAT:?GetState@CBaseEntity@@UAE?AW4STATE@@XZ
	DD	FLAT:?TraceAttack@CBaseEntity@@UAEXPAUentvars_s@@MVVector@@PAUgametrace_s@@H@Z
	DD	FLAT:?TakeDamage@CBaseEntity@@UAEHPAUentvars_s@@0MH@Z
	DD	FLAT:?TakeHealth@CBaseEntity@@UAEHMH@Z
	DD	FLAT:?TakeArmor@CBaseEntity@@UAEHMH@Z
	DD	FLAT:?Killed@CBaseEntity@@UAEXPAUentvars_s@@H@Z
	DD	FLAT:?BloodColor@CBaseEntity@@UAEHXZ
	DD	FLAT:?TraceBleed@CBaseEntity@@UAEXMVVector@@PAUgametrace_s@@H@Z
	DD	FLAT:?IsTriggered@CBaseEntity@@UAEHPAV1@@Z
	DD	FLAT:?MyMonsterPointer@CBaseEntity@@UAEPAVCBaseMonster@@XZ
	DD	FLAT:?MySquadMonsterPointer@CBaseEntity@@UAEPAVCSquadMonster@@XZ
	DD	FLAT:?GetToggleState@CBaseEntity@@UAEHXZ
	DD	FLAT:?AddPoints@CBaseEntity@@UAEXHH@Z
	DD	FLAT:?AddPointsToTeam@CBaseEntity@@UAEXHH@Z
	DD	FLAT:?AddPlayerItem@CBaseEntity@@UAEHPAVCBasePlayerItem@@@Z
	DD	FLAT:?RemovePlayerItem@CBaseEntity@@UAEHPAVCBasePlayerItem@@@Z
	DD	FLAT:?GiveAmmo@CBaseEntity@@UAEHHPADH@Z
	DD	FLAT:?GetDelay@CBaseEntity@@UAEMXZ
	DD	FLAT:?IsMoving@CBaseEntity@@UAEHXZ
	DD	FLAT:?OverrideReset@CBaseEntity@@UAEXXZ
	DD	FLAT:?TransferReset@CBaseEntity@@UAEXXZ
	DD	FLAT:?DamageDecal@CBaseEntity@@UAEHH@Z
	DD	FLAT:?SetToggleState@CBaseEntity@@UAEXH@Z
	DD	FLAT:?StartSneaking@CBaseEntity@@UAEXXZ
	DD	FLAT:?StopSneaking@CBaseEntity@@UAEXXZ
	DD	FLAT:?OnControls@CBaseEntity@@UAEHPAV1@@Z
	DD	FLAT:?IsSneaking@CBaseEntity@@UAEHXZ
	DD	FLAT:?IsAlive@CBaseEntity@@UAEHXZ
	DD	FLAT:?IsBSPModel@CBaseEntity@@UAEHXZ
	DD	FLAT:?IsCustomModel@CBaseEntity@@UAEHXZ
	DD	FLAT:?ReflectGauss@CBaseEntity@@UAEHXZ
	DD	FLAT:?HasTarget@CBaseEntity@@UAEHH@Z
	DD	FLAT:?IsInWorld@CBaseEntity@@UAEHH@Z
	DD	FLAT:?IsPlayer@CBaseEntity@@UAEHXZ
	DD	FLAT:?IsNetClient@CBaseEntity@@UAEHXZ
	DD	FLAT:?IsMonster@CBaseEntity@@UAEHXZ
	DD	FLAT:?IsPushable@CBaseEntity@@UAEHXZ
	DD	FLAT:?IsProjectile@CBaseEntity@@UAEHXZ
	DD	FLAT:?IsFuncScreen@CBaseEntity@@UAEHXZ
	DD	FLAT:?IsPortal@CBaseEntity@@UAEHXZ
	DD	FLAT:?IsTank@CBaseEntity@@UAEHXZ
	DD	FLAT:?IsMover@CBaseEntity@@UAEHXZ
	DD	FLAT:?IsBreakable@CBaseEntity@@UAEHXZ
	DD	FLAT:?TeamID@CBaseEntity@@UAEPBDXZ
	DD	FLAT:?AddSpawnFlags@CBaseEntity@@UAEXH@Z
	DD	FLAT:?HasSpawnFlags@CBaseEntity@@UBE_NH@Z
	DD	FLAT:?SetFadeDistance@CBaseEntity@@UAEXH@Z
	DD	FLAT:?SetFlag@CBaseEntity@@UAEXH@Z
	DD	FLAT:?HasFlag@CBaseEntity@@UBE_NH@Z
	DD	FLAT:?RemoveFlag@CBaseEntity@@UAEXH@Z
	DD	FLAT:?SetNullModel@CBaseEntity@@UAEXXZ
	DD	FLAT:?OnPickupObject@CBaseEntity@@UAEXXZ
	DD	FLAT:?OnDropObject@CBaseEntity@@UAEXXZ
	DD	FLAT:?GetNextTarget@CBaseEntity@@UAEPAV1@XZ
	DD	FLAT:?Think@CBaseEntity@@UAEXXZ
	DD	FLAT:?Use@CBaseEntity@@UAEXPAV1@0W4USE_TYPE@@M@Z
	DD	FLAT:?Touch@CBaseEntity@@UAEXPAV1@@Z
	DD	FLAT:?Blocked@CBaseEntity@@UAEXPAV1@@Z
	DD	FLAT:?MoveDone@CBaseEntity@@UAEXXZ
	DD	FLAT:?Respawn@CBaseEntity@@UAEPAV1@XZ
	DD	FLAT:?UpdateOwner@CBaseEntity@@UAEXXZ
	DD	FLAT:?FBecomeProne@CBaseEntity@@UAEHXZ
	DD	FLAT:?Center@CBaseEntity@@UAE?AVVector@@XZ
	DD	FLAT:?EyePosition@CBaseEntity@@UAE?AVVector@@XZ
	DD	FLAT:?EarPosition@CBaseEntity@@UAE?AVVector@@XZ
	DD	FLAT:?BodyTarget@CBaseEntity@@UAE?AVVector@@ABV2@@Z
	DD	FLAT:?IsPointSized@CBaseEntity@@UBEHXZ
	DD	FLAT:?Illumination@CBaseEntity@@UAEHXZ
	DD	FLAT:?FVisible@CBaseEntity@@UAEHABVVector@@@Z
	DD	FLAT:?FVisible@CBaseEntity@@UAEHPAV1@@Z
	DD	FLAT:?ShouldCollide@CBaseEntity@@UAEHPAV1@@Z
	DD	FLAT:?ClearEffects@CBaseEntity@@UAEXXZ
CONST	ENDS
;	COMDAT ??_C@_0BF@DOONGEFO@Bad?5pev?5in?5OFFSET?$CI?$CJ?6?$AA@
CONST	SEGMENT
??_C@_0BF@DOONGEFO@Bad?5pev?5in?5OFFSET?$CI?$CJ?6?$AA@ DB 'Bad pev in OFF'
	DB	'SET()', 0aH, 00H				; `string'
CONST	ENDS
;	COMDAT ??_C@_0BF@CPEPILID@Bad?5ent?5in?5OFFSET?$CI?$CJ?6?$AA@
CONST	SEGMENT
??_C@_0BF@CPEPILID@Bad?5ent?5in?5OFFSET?$CI?$CJ?6?$AA@ DB 'Bad ent in OFF'
	DB	'SET()', 0aH, 00H				; `string'
CONST	ENDS
;	COMDAT ??_7IEntityFactory@@6B@
CONST	SEGMENT
??_7IEntityFactory@@6B@ DD FLAT:??_R4IEntityFactory@@6B@ ; IEntityFactory::`vftable'
	DD	FLAT:__purecall
	DD	FLAT:__purecall
	DD	FLAT:__purecall
CONST	ENDS
;	COMDAT ??_C@_04EFCDBJNL@?$CFs?3?3?$AA@
CONST	SEGMENT
??_C@_04EFCDBJNL@?$CFs?3?3?$AA@ DB '%s::', 00H		; `string'
CONST	ENDS
;	COMDAT ??_C@_00CNPNBAHC@?$AA@
CONST	SEGMENT
??_C@_00CNPNBAHC@?$AA@ DB 00H				; `string'
CONST	ENDS
;	COMDAT xdata$x
xdata$x	SEGMENT
__unwindtable$??$GetClassPtr@VCRpg@@@@YAPAVCRpg@@PAV0@PBD@Z DD 0ffffffffH
	DD	FLAT:__unwindfunclet$??$GetClassPtr@VCRpg@@@@YAPAVCRpg@@PAV0@PBD@Z$0
__ehfuncinfo$??$GetClassPtr@VCRpg@@@@YAPAVCRpg@@PAV0@PBD@Z DD 019930522H
	DD	01H
	DD	FLAT:__unwindtable$??$GetClassPtr@VCRpg@@@@YAPAVCRpg@@PAV0@PBD@Z
	DD	2 DUP(00H)
	DD	2 DUP(00H)
	DD	00H
	DD	01H
xdata$x	ENDS
;	COMDAT xdata$x
xdata$x	SEGMENT
__unwindtable$??$GetClassPtr@VCRpgRocket@@@@YAPAVCRpgRocket@@PAV0@PBD@Z DD 0ffffffffH
	DD	FLAT:__unwindfunclet$??$GetClassPtr@VCRpgRocket@@@@YAPAVCRpgRocket@@PAV0@PBD@Z$0
__ehfuncinfo$??$GetClassPtr@VCRpgRocket@@@@YAPAVCRpgRocket@@PAV0@PBD@Z DD 019930522H
	DD	01H
	DD	FLAT:__unwindtable$??$GetClassPtr@VCRpgRocket@@@@YAPAVCRpgRocket@@PAV0@PBD@Z
	DD	2 DUP(00H)
	DD	2 DUP(00H)
	DD	00H
	DD	01H
xdata$x	ENDS
;	COMDAT xdata$x
xdata$x	SEGMENT
__unwindtable$??$GetClassPtr@VCRoboRocket2@@@@YAPAVCRoboRocket2@@PAV0@PBD@Z DD 0ffffffffH
	DD	FLAT:__unwindfunclet$??$GetClassPtr@VCRoboRocket2@@@@YAPAVCRoboRocket2@@PAV0@PBD@Z$0
__ehfuncinfo$??$GetClassPtr@VCRoboRocket2@@@@YAPAVCRoboRocket2@@PAV0@PBD@Z DD 019930522H
	DD	01H
	DD	FLAT:__unwindtable$??$GetClassPtr@VCRoboRocket2@@@@YAPAVCRoboRocket2@@PAV0@PBD@Z
	DD	2 DUP(00H)
	DD	2 DUP(00H)
	DD	00H
	DD	01H
xdata$x	ENDS
;	COMDAT xdata$x
xdata$x	SEGMENT
__unwindtable$??$GetClassPtr@VCRpgAmmo@@@@YAPAVCRpgAmmo@@PAV0@PBD@Z DD 0ffffffffH
	DD	FLAT:__unwindfunclet$??$GetClassPtr@VCRpgAmmo@@@@YAPAVCRpgAmmo@@PAV0@PBD@Z$0
__ehfuncinfo$??$GetClassPtr@VCRpgAmmo@@@@YAPAVCRpgAmmo@@PAV0@PBD@Z DD 019930522H
	DD	01H
	DD	FLAT:__unwindtable$??$GetClassPtr@VCRpgAmmo@@@@YAPAVCRpgAmmo@@PAV0@PBD@Z
	DD	2 DUP(00H)
	DD	2 DUP(00H)
	DD	00H
	DD	01H
xdata$x	ENDS
;	COMDAT xdata$x
xdata$x	SEGMENT
__unwindtable$??$DataMapInit@VCRoboRocket2@@@@YAPAUdatamap_s@@PAVCRoboRocket2@@@Z DD 0ffffffffH
	DD	FLAT:__unwindfunclet$??$DataMapInit@VCRoboRocket2@@@@YAPAUdatamap_s@@PAVCRoboRocket2@@@Z$0
	DD	0ffffffffH
	DD	FLAT:__unwindfunclet$??$DataMapInit@VCRoboRocket2@@@@YAPAUdatamap_s@@PAVCRoboRocket2@@@Z$1
__ehfuncinfo$??$DataMapInit@VCRoboRocket2@@@@YAPAUdatamap_s@@PAVCRoboRocket2@@@Z DD 019930522H
	DD	02H
	DD	FLAT:__unwindtable$??$DataMapInit@VCRoboRocket2@@@@YAPAUdatamap_s@@PAVCRoboRocket2@@@Z
	DD	2 DUP(00H)
	DD	2 DUP(00H)
	DD	00H
	DD	01H
xdata$x	ENDS
;	COMDAT xdata$x
xdata$x	SEGMENT
__unwindtable$??$GetClassPtr@VCRpgRocket@@@@YAPAVCRpgRocket@@PAV0@@Z DD 0ffffffffH
	DD	FLAT:__unwindfunclet$??$GetClassPtr@VCRpgRocket@@@@YAPAVCRpgRocket@@PAV0@@Z$0
__ehfuncinfo$??$GetClassPtr@VCRpgRocket@@@@YAPAVCRpgRocket@@PAV0@@Z DD 019930522H
	DD	01H
	DD	FLAT:__unwindtable$??$GetClassPtr@VCRpgRocket@@@@YAPAVCRpgRocket@@PAV0@@Z
	DD	2 DUP(00H)
	DD	2 DUP(00H)
	DD	00H
	DD	01H
xdata$x	ENDS
;	COMDAT xdata$x
xdata$x	SEGMENT
__unwindtable$??$DataMapInit@VCRpgRocket@@@@YAPAUdatamap_s@@PAVCRpgRocket@@@Z DD 0ffffffffH
	DD	FLAT:__unwindfunclet$??$DataMapInit@VCRpgRocket@@@@YAPAUdatamap_s@@PAVCRpgRocket@@@Z$0
	DD	0ffffffffH
	DD	FLAT:__unwindfunclet$??$DataMapInit@VCRpgRocket@@@@YAPAUdatamap_s@@PAVCRpgRocket@@@Z$1
__ehfuncinfo$??$DataMapInit@VCRpgRocket@@@@YAPAUdatamap_s@@PAVCRpgRocket@@@Z DD 019930522H
	DD	02H
	DD	FLAT:__unwindtable$??$DataMapInit@VCRpgRocket@@@@YAPAUdatamap_s@@PAVCRpgRocket@@@Z
	DD	2 DUP(00H)
	DD	2 DUP(00H)
	DD	00H
	DD	01H
xdata$x	ENDS
;	COMDAT xdata$x
xdata$x	SEGMENT
__unwindtable$??$DataMapInit@VCRpg@@@@YAPAUdatamap_s@@PAVCRpg@@@Z DD 0ffffffffH
	DD	FLAT:__unwindfunclet$??$DataMapInit@VCRpg@@@@YAPAUdatamap_s@@PAVCRpg@@@Z$0
__ehfuncinfo$??$DataMapInit@VCRpg@@@@YAPAUdatamap_s@@PAVCRpg@@@Z DD 019930522H
	DD	01H
	DD	FLAT:__unwindtable$??$DataMapInit@VCRpg@@@@YAPAUdatamap_s@@PAVCRpg@@@Z
	DD	2 DUP(00H)
	DD	2 DUP(00H)
	DD	00H
	DD	01H
xdata$x	ENDS
;	COMDAT xdata$x
xdata$x	SEGMENT
__unwindtable$??0CGrenade@@QAE@XZ DD 0ffffffffH
	DD	FLAT:__unwindfunclet$??0CGrenade@@QAE@XZ$0
__ehfuncinfo$??0CGrenade@@QAE@XZ DD 019930522H
	DD	01H
	DD	FLAT:__unwindtable$??0CGrenade@@QAE@XZ
	DD	2 DUP(00H)
	DD	2 DUP(00H)
	DD	00H
	DD	01H
xdata$x	ENDS
;	COMDAT xdata$x
xdata$x	SEGMENT
__unwindtable$??0CBaseMonster@@QAE@XZ DD 0ffffffffH
	DD	FLAT:__unwindfunclet$??0CBaseMonster@@QAE@XZ$0
__ehfuncinfo$??0CBaseMonster@@QAE@XZ DD 019930522H
	DD	01H
	DD	FLAT:__unwindtable$??0CBaseMonster@@QAE@XZ
	DD	2 DUP(00H)
	DD	2 DUP(00H)
	DD	00H
	DD	01H
xdata$x	ENDS
;	COMDAT xdata$x
xdata$x	SEGMENT
__unwindtable$??0CBaseToggle@@QAE@XZ DD 0ffffffffH
	DD	FLAT:__unwindfunclet$??0CBaseToggle@@QAE@XZ$0
__ehfuncinfo$??0CBaseToggle@@QAE@XZ DD 019930522H
	DD	01H
	DD	FLAT:__unwindtable$??0CBaseToggle@@QAE@XZ
	DD	2 DUP(00H)
	DD	2 DUP(00H)
	DD	00H
	DD	01H
xdata$x	ENDS
;	COMDAT xdata$x
xdata$x	SEGMENT
__unwindtable$??0CBaseEntity@@QAE@XZ DD 0ffffffffH
	DD	FLAT:__unwindfunclet$??0CBaseEntity@@QAE@XZ$0
__ehfuncinfo$??0CBaseEntity@@QAE@XZ DD 019930522H
	DD	01H
	DD	FLAT:__unwindtable$??0CBaseEntity@@QAE@XZ
	DD	2 DUP(00H)
	DD	2 DUP(00H)
	DD	00H
	DD	01H
xdata$x	ENDS
;	COMDAT xdata$x
xdata$x	SEGMENT
__ehfuncinfo$??1?$CUtlMemory@PADH@@QAE@XZ DD 019930522H
	DD	00H
	DD	00H
	DD	2 DUP(00H)
	DD	2 DUP(00H)
	DD	00H
	DD	05H
xdata$x	ENDS
;	COMDAT xdata$x
xdata$x	SEGMENT
__ehfuncinfo$??1?$CUtlArray@PADV?$CUtlMemory@PADH@@@@QAE@XZ DD 019930522H
	DD	00H
	DD	00H
	DD	2 DUP(00H)
	DD	2 DUP(00H)
	DD	00H
	DD	05H
xdata$x	ENDS
;	COMDAT xdata$x
xdata$x	SEGMENT
__unwindtable$??0?$CUtlArray@PADV?$CUtlMemory@PADH@@@@QAE@HH@Z DD 0ffffffffH
	DD	FLAT:__unwindfunclet$??0?$CUtlArray@PADV?$CUtlMemory@PADH@@@@QAE@HH@Z$0
__ehfuncinfo$??0?$CUtlArray@PADV?$CUtlMemory@PADH@@@@QAE@HH@Z DD 019930522H
	DD	01H
	DD	FLAT:__unwindtable$??0?$CUtlArray@PADV?$CUtlMemory@PADH@@@@QAE@HH@Z
	DD	2 DUP(00H)
	DD	2 DUP(00H)
	DD	00H
	DD	01H
xdata$x	ENDS
;	COMDAT xdata$x
xdata$x	SEGMENT
__ehfuncinfo$??1CDatadescGeneratedNameHolder@@QAE@XZ DD 019930522H
	DD	00H
	DD	00H
	DD	2 DUP(00H)
	DD	2 DUP(00H)
	DD	00H
	DD	05H
xdata$x	ENDS
CRT$XCU	SEGMENT
?g_DataMapHolder$initializer$@CRpg_DataDescInit@@3P6AXXZA DD FLAT:??__Eg_DataMapHolder@CRpg_DataDescInit@@YAXXZ ; CRpg_DataDescInit::g_DataMapHolder$initializer$
CRT$XCU	ENDS
CRT$XCU	SEGMENT
?rpg_rocket$initializer$@@3P6AXXZA DD FLAT:??__Erpg_rocket@@YAXXZ ; rpg_rocket$initializer$
CRT$XCU	ENDS
CRT$XCU	SEGMENT
?g_DataMapHolder$initializer$@CRpgRocket_DataDescInit@@3P6AXXZA DD FLAT:??__Eg_DataMapHolder@CRpgRocket_DataDescInit@@YAXXZ ; CRpgRocket_DataDescInit::g_DataMapHolder$initializer$
CRT$XCU	ENDS
CRT$XCU	SEGMENT
?robo_rocket2$initializer$@@3P6AXXZA DD FLAT:??__Erobo_rocket2@@YAXXZ ; robo_rocket2$initializer$
CRT$XCU	ENDS
CRT$XCU	SEGMENT
?g_DataMapHolder$initializer$@CRoboRocket2_DataDescInit@@3P6AXXZA DD FLAT:??__Eg_DataMapHolder@CRoboRocket2_DataDescInit@@YAXXZ ; CRoboRocket2_DataDescInit::g_DataMapHolder$initializer$
CRT$XCU	ENDS
CRT$XCU	SEGMENT
?ammo_rpgclip$initializer$@@3P6AXXZA DD FLAT:??__Eammo_rpgclip@@YAXXZ ; ammo_rpgclip$initializer$
CRT$XCU	ENDS
; Function compile flags: /Odtp /ZI
; File d:\!diffusion 2020\source code 2022\client-server\game_shared\utlmemory.h
;	COMDAT ??$Destruct@PAD@@YAXPAPAD@Z
_TEXT	SEGMENT
_pMemory$ = 8						; size = 4
??$Destruct@PAD@@YAXPAPAD@Z PROC			; Destruct<char *>, COMDAT

; 49   : {

	push	ebp
	mov	ebp, esp
	sub	esp, 64					; 00000040H
	push	ebx
	push	esi
	push	edi

; 50   : 	pMemory->~T();
; 51   : 
; 52   : #ifdef _DEBUG
; 53   : 	memset( pMemory, 0xDD, sizeof(T) );

	push	4
	push	221					; 000000ddH
	mov	eax, DWORD PTR _pMemory$[ebp]
	push	eax
	call	_memset
	add	esp, 12					; 0000000cH

; 54   : #endif
; 55   : }

	pop	edi
	pop	esi
	pop	ebx
	mov	esp, ebp
	pop	ebp
	ret	0
??$Destruct@PAD@@YAXPAPAD@Z ENDP			; Destruct<char *>
_TEXT	ENDS
; Function compile flags: /Odtp /ZI
; File d:\!diffusion 2020\source code 2022\client-server\game_shared\utlmemory.h
;	COMDAT ??$CopyConstruct@PAD@@YAXPAPADABQAD@Z
_TEXT	SEGMENT
tv71 = -72						; size = 4
$T1 = -68						; size = 4
_pMemory$ = 8						; size = 4
_src$ = 12						; size = 4
??$CopyConstruct@PAD@@YAXPAPADABQAD@Z PROC		; CopyConstruct<char *>, COMDAT

; 43   : {

	push	ebp
	mov	ebp, esp
	sub	esp, 72					; 00000048H
	push	ebx
	push	esi
	push	edi

; 44   : 	new( pMemory ) T(src);

	mov	eax, DWORD PTR _pMemory$[ebp]
	push	eax
	push	4
	call	??2@YAPAXIPAX@Z				; operator new
	add	esp, 8
	mov	DWORD PTR $T1[ebp], eax
	cmp	DWORD PTR $T1[ebp], 0
	je	SHORT $LN3@CopyConstr
	mov	ecx, DWORD PTR $T1[ebp]
	mov	edx, DWORD PTR _src$[ebp]
	mov	eax, DWORD PTR [edx]
	mov	DWORD PTR [ecx], eax
	mov	ecx, DWORD PTR $T1[ebp]
	mov	DWORD PTR tv71[ebp], ecx
	jmp	SHORT $LN1@CopyConstr
$LN3@CopyConstr:
	mov	DWORD PTR tv71[ebp], 0
$LN1@CopyConstr:

; 45   : }

	pop	edi
	pop	esi
	pop	ebx
	mov	esp, ebp
	pop	ebp
	ret	0
??$CopyConstruct@PAD@@YAXPAPADABQAD@Z ENDP		; CopyConstruct<char *>
_TEXT	ENDS
; Function compile flags: /Odtp /ZI
; File d:\!diffusion 2020\source code 2022\client-server\server\cbase.h
;	COMDAT ??$GetClassPtr@VCRpg@@@@YAPAVCRpg@@PAV0@PBD@Z
_TEXT	SEGMENT
tv85 = -92						; size = 4
$T2 = -88						; size = 4
$T3 = -84						; size = 4
_pev$ = -16						; size = 4
__$EHRec$ = -12						; size = 12
_newEnt$ = 8						; size = 4
_className$ = 12					; size = 4
??$GetClassPtr@VCRpg@@@@YAPAVCRpg@@PAV0@PBD@Z PROC	; GetClassPtr<CRpg>, COMDAT

; 1146 : {

	push	ebp
	mov	ebp, esp
	push	-1
	push	__ehhandler$??$GetClassPtr@VCRpg@@@@YAPAVCRpg@@PAV0@PBD@Z
	mov	eax, DWORD PTR fs:0
	push	eax
	sub	esp, 80					; 00000050H
	push	ebx
	push	esi
	push	edi
	mov	eax, DWORD PTR ___security_cookie
	xor	eax, ebp
	push	eax
	lea	eax, DWORD PTR __$EHRec$[ebp]
	mov	DWORD PTR fs:0, eax

; 1147 : 	entvars_t *pev = (entvars_t *)newEnt;

	mov	eax, DWORD PTR _newEnt$[ebp]
	mov	DWORD PTR _pev$[ebp], eax

; 1148 : 
; 1149 : 	// allocate entity if necessary
; 1150 : 	if (pev == NULL)

	cmp	DWORD PTR _pev$[ebp], 0
	jne	SHORT $LN2@GetClassPt

; 1151 : 		pev = VARS(CREATE_ENTITY());

	call	DWORD PTR ?g_engfuncs@@3Uenginefuncs_s@@A+84
	push	eax
	call	?VARS@@YAPAUentvars_s@@PAUedict_s@@@Z	; VARS
	add	esp, 4
	mov	DWORD PTR _pev$[ebp], eax
$LN2@GetClassPt:

; 1152 : 
; 1153 : 	// get the private data
; 1154 : 	newEnt = (T *)GET_PRIVATE(ENT(pev));

	mov	eax, DWORD PTR _pev$[ebp]
	push	eax
	call	?ENT@@YAPAUedict_s@@PBUentvars_s@@@Z	; ENT
	add	esp, 4
	push	eax
	call	?GET_PRIVATE@@YAPAXPAUedict_s@@@Z	; GET_PRIVATE
	add	esp, 4
	mov	DWORD PTR _newEnt$[ebp], eax

; 1155 : 
; 1156 : 	if (newEnt == NULL) 

	cmp	DWORD PTR _newEnt$[ebp], 0
	jne	SHORT $LN3@GetClassPt

; 1157 : 	{
; 1158 : 		// allocate private data 
; 1159 : 		newEnt = new(pev) T;

	mov	eax, DWORD PTR _pev$[ebp]
	push	eax
	push	1936					; 00000790H
	call	??2CBaseEntity@@SAPAXIPAUentvars_s@@@Z	; CBaseEntity::operator new
	add	esp, 8
	mov	DWORD PTR $T2[ebp], eax
	mov	DWORD PTR __$EHRec$[ebp+8], 0
	cmp	DWORD PTR $T2[ebp], 0
	je	SHORT $LN5@GetClassPt
	mov	ecx, DWORD PTR $T2[ebp]
	call	??0CRpg@@QAE@XZ
	mov	DWORD PTR tv85[ebp], eax
	jmp	SHORT $LN6@GetClassPt
$LN5@GetClassPt:
	mov	DWORD PTR tv85[ebp], 0
$LN6@GetClassPt:
	mov	ecx, DWORD PTR tv85[ebp]
	mov	DWORD PTR $T3[ebp], ecx
	mov	DWORD PTR __$EHRec$[ebp+8], -1
	mov	edx, DWORD PTR $T3[ebp]
	mov	DWORD PTR _newEnt$[ebp], edx

; 1160 : 		newEnt->pev = pev;

	mov	eax, DWORD PTR _newEnt$[ebp]
	mov	ecx, DWORD PTR _pev$[ebp]
	mov	DWORD PTR [eax+4], ecx
$LN3@GetClassPt:

; 1161 : 	}
; 1162 : 	newEnt->SetClassname( className );

	mov	eax, DWORD PTR _className$[ebp]
	push	eax
	mov	ecx, DWORD PTR _newEnt$[ebp]
	call	?SetClassname@CBaseEntity@@QAEXPBD@Z	; CBaseEntity::SetClassname

; 1163 : 
; 1164 : 	return newEnt;

	mov	eax, DWORD PTR _newEnt$[ebp]

; 1165 : }

	mov	ecx, DWORD PTR __$EHRec$[ebp]
	mov	DWORD PTR fs:0, ecx
	pop	ecx
	pop	edi
	pop	esi
	pop	ebx
	mov	esp, ebp
	pop	ebp
	ret	0
_TEXT	ENDS
;	COMDAT text$x
text$x	SEGMENT
__unwindfunclet$??$GetClassPtr@VCRpg@@@@YAPAVCRpg@@PAV0@PBD@Z$0:
	mov	eax, DWORD PTR _pev$[ebp]
	push	eax
	mov	eax, DWORD PTR $T2[ebp]
	push	eax
	call	??3CBaseEntity@@SAXPAXPAUentvars_s@@@Z	; CBaseEntity::operator delete
	add	esp, 8
	ret	0
__ehhandler$??$GetClassPtr@VCRpg@@@@YAPAVCRpg@@PAV0@PBD@Z:
	mov	edx, DWORD PTR [esp+8]
	lea	eax, DWORD PTR [edx+12]
	mov	ecx, DWORD PTR [edx-96]
	xor	ecx, eax
	call	@__security_check_cookie@4
	mov	eax, OFFSET __ehfuncinfo$??$GetClassPtr@VCRpg@@@@YAPAVCRpg@@PAV0@PBD@Z
	jmp	___CxxFrameHandler3
text$x	ENDS
??$GetClassPtr@VCRpg@@@@YAPAVCRpg@@PAV0@PBD@Z ENDP	; GetClassPtr<CRpg>
; Function compile flags: /Odtp /ZI
; File d:\!diffusion 2020\source code 2022\client-server\server\cbase.h
;	COMDAT ??$GetClassPtr@VCRpgRocket@@@@YAPAVCRpgRocket@@PAV0@PBD@Z
_TEXT	SEGMENT
tv85 = -92						; size = 4
$T2 = -88						; size = 4
$T3 = -84						; size = 4
_pev$ = -16						; size = 4
__$EHRec$ = -12						; size = 12
_newEnt$ = 8						; size = 4
_className$ = 12					; size = 4
??$GetClassPtr@VCRpgRocket@@@@YAPAVCRpgRocket@@PAV0@PBD@Z PROC ; GetClassPtr<CRpgRocket>, COMDAT

; 1146 : {

	push	ebp
	mov	ebp, esp
	push	-1
	push	__ehhandler$??$GetClassPtr@VCRpgRocket@@@@YAPAVCRpgRocket@@PAV0@PBD@Z
	mov	eax, DWORD PTR fs:0
	push	eax
	sub	esp, 80					; 00000050H
	push	ebx
	push	esi
	push	edi
	mov	eax, DWORD PTR ___security_cookie
	xor	eax, ebp
	push	eax
	lea	eax, DWORD PTR __$EHRec$[ebp]
	mov	DWORD PTR fs:0, eax

; 1147 : 	entvars_t *pev = (entvars_t *)newEnt;

	mov	eax, DWORD PTR _newEnt$[ebp]
	mov	DWORD PTR _pev$[ebp], eax

; 1148 : 
; 1149 : 	// allocate entity if necessary
; 1150 : 	if (pev == NULL)

	cmp	DWORD PTR _pev$[ebp], 0
	jne	SHORT $LN2@GetClassPt

; 1151 : 		pev = VARS(CREATE_ENTITY());

	call	DWORD PTR ?g_engfuncs@@3Uenginefuncs_s@@A+84
	push	eax
	call	?VARS@@YAPAUentvars_s@@PAUedict_s@@@Z	; VARS
	add	esp, 4
	mov	DWORD PTR _pev$[ebp], eax
$LN2@GetClassPt:

; 1152 : 
; 1153 : 	// get the private data
; 1154 : 	newEnt = (T *)GET_PRIVATE(ENT(pev));

	mov	eax, DWORD PTR _pev$[ebp]
	push	eax
	call	?ENT@@YAPAUedict_s@@PBUentvars_s@@@Z	; ENT
	add	esp, 4
	push	eax
	call	?GET_PRIVATE@@YAPAXPAUedict_s@@@Z	; GET_PRIVATE
	add	esp, 4
	mov	DWORD PTR _newEnt$[ebp], eax

; 1155 : 
; 1156 : 	if (newEnt == NULL) 

	cmp	DWORD PTR _newEnt$[ebp], 0
	jne	SHORT $LN3@GetClassPt

; 1157 : 	{
; 1158 : 		// allocate private data 
; 1159 : 		newEnt = new(pev) T;

	mov	eax, DWORD PTR _pev$[ebp]
	push	eax
	push	2536					; 000009e8H
	call	??2CBaseEntity@@SAPAXIPAUentvars_s@@@Z	; CBaseEntity::operator new
	add	esp, 8
	mov	DWORD PTR $T2[ebp], eax
	mov	DWORD PTR __$EHRec$[ebp+8], 0
	cmp	DWORD PTR $T2[ebp], 0
	je	SHORT $LN5@GetClassPt
	mov	ecx, DWORD PTR $T2[ebp]
	call	??0CRpgRocket@@QAE@XZ
	mov	DWORD PTR tv85[ebp], eax
	jmp	SHORT $LN6@GetClassPt
$LN5@GetClassPt:
	mov	DWORD PTR tv85[ebp], 0
$LN6@GetClassPt:
	mov	ecx, DWORD PTR tv85[ebp]
	mov	DWORD PTR $T3[ebp], ecx
	mov	DWORD PTR __$EHRec$[ebp+8], -1
	mov	edx, DWORD PTR $T3[ebp]
	mov	DWORD PTR _newEnt$[ebp], edx

; 1160 : 		newEnt->pev = pev;

	mov	eax, DWORD PTR _newEnt$[ebp]
	mov	ecx, DWORD PTR _pev$[ebp]
	mov	DWORD PTR [eax+4], ecx
$LN3@GetClassPt:

; 1161 : 	}
; 1162 : 	newEnt->SetClassname( className );

	mov	eax, DWORD PTR _className$[ebp]
	push	eax
	mov	ecx, DWORD PTR _newEnt$[ebp]
	call	?SetClassname@CBaseEntity@@QAEXPBD@Z	; CBaseEntity::SetClassname

; 1163 : 
; 1164 : 	return newEnt;

	mov	eax, DWORD PTR _newEnt$[ebp]

; 1165 : }

	mov	ecx, DWORD PTR __$EHRec$[ebp]
	mov	DWORD PTR fs:0, ecx
	pop	ecx
	pop	edi
	pop	esi
	pop	ebx
	mov	esp, ebp
	pop	ebp
	ret	0
_TEXT	ENDS
;	COMDAT text$x
text$x	SEGMENT
__unwindfunclet$??$GetClassPtr@VCRpgRocket@@@@YAPAVCRpgRocket@@PAV0@PBD@Z$0:
	mov	eax, DWORD PTR _pev$[ebp]
	push	eax
	mov	eax, DWORD PTR $T2[ebp]
	push	eax
	call	??3CBaseEntity@@SAXPAXPAUentvars_s@@@Z	; CBaseEntity::operator delete
	add	esp, 8
	ret	0
__ehhandler$??$GetClassPtr@VCRpgRocket@@@@YAPAVCRpgRocket@@PAV0@PBD@Z:
	mov	edx, DWORD PTR [esp+8]
	lea	eax, DWORD PTR [edx+12]
	mov	ecx, DWORD PTR [edx-96]
	xor	ecx, eax
	call	@__security_check_cookie@4
	mov	eax, OFFSET __ehfuncinfo$??$GetClassPtr@VCRpgRocket@@@@YAPAVCRpgRocket@@PAV0@PBD@Z
	jmp	___CxxFrameHandler3
text$x	ENDS
??$GetClassPtr@VCRpgRocket@@@@YAPAVCRpgRocket@@PAV0@PBD@Z ENDP ; GetClassPtr<CRpgRocket>
; Function compile flags: /Odtp /ZI
; File d:\!diffusion 2020\source code 2022\client-server\server\cbase.h
;	COMDAT ??$GetClassPtr@VCRoboRocket2@@@@YAPAVCRoboRocket2@@PAV0@PBD@Z
_TEXT	SEGMENT
tv85 = -92						; size = 4
$T2 = -88						; size = 4
$T3 = -84						; size = 4
_pev$ = -16						; size = 4
__$EHRec$ = -12						; size = 12
_newEnt$ = 8						; size = 4
_className$ = 12					; size = 4
??$GetClassPtr@VCRoboRocket2@@@@YAPAVCRoboRocket2@@PAV0@PBD@Z PROC ; GetClassPtr<CRoboRocket2>, COMDAT

; 1146 : {

	push	ebp
	mov	ebp, esp
	push	-1
	push	__ehhandler$??$GetClassPtr@VCRoboRocket2@@@@YAPAVCRoboRocket2@@PAV0@PBD@Z
	mov	eax, DWORD PTR fs:0
	push	eax
	sub	esp, 80					; 00000050H
	push	ebx
	push	esi
	push	edi
	mov	eax, DWORD PTR ___security_cookie
	xor	eax, ebp
	push	eax
	lea	eax, DWORD PTR __$EHRec$[ebp]
	mov	DWORD PTR fs:0, eax

; 1147 : 	entvars_t *pev = (entvars_t *)newEnt;

	mov	eax, DWORD PTR _newEnt$[ebp]
	mov	DWORD PTR _pev$[ebp], eax

; 1148 : 
; 1149 : 	// allocate entity if necessary
; 1150 : 	if (pev == NULL)

	cmp	DWORD PTR _pev$[ebp], 0
	jne	SHORT $LN2@GetClassPt

; 1151 : 		pev = VARS(CREATE_ENTITY());

	call	DWORD PTR ?g_engfuncs@@3Uenginefuncs_s@@A+84
	push	eax
	call	?VARS@@YAPAUentvars_s@@PAUedict_s@@@Z	; VARS
	add	esp, 4
	mov	DWORD PTR _pev$[ebp], eax
$LN2@GetClassPt:

; 1152 : 
; 1153 : 	// get the private data
; 1154 : 	newEnt = (T *)GET_PRIVATE(ENT(pev));

	mov	eax, DWORD PTR _pev$[ebp]
	push	eax
	call	?ENT@@YAPAUedict_s@@PBUentvars_s@@@Z	; ENT
	add	esp, 4
	push	eax
	call	?GET_PRIVATE@@YAPAXPAUedict_s@@@Z	; GET_PRIVATE
	add	esp, 4
	mov	DWORD PTR _newEnt$[ebp], eax

; 1155 : 
; 1156 : 	if (newEnt == NULL) 

	cmp	DWORD PTR _newEnt$[ebp], 0
	jne	SHORT $LN3@GetClassPt

; 1157 : 	{
; 1158 : 		// allocate private data 
; 1159 : 		newEnt = new(pev) T;

	mov	eax, DWORD PTR _pev$[ebp]
	push	eax
	push	2524					; 000009dcH
	call	??2CBaseEntity@@SAPAXIPAUentvars_s@@@Z	; CBaseEntity::operator new
	add	esp, 8
	mov	DWORD PTR $T2[ebp], eax
	mov	DWORD PTR __$EHRec$[ebp+8], 0
	cmp	DWORD PTR $T2[ebp], 0
	je	SHORT $LN5@GetClassPt
	mov	ecx, DWORD PTR $T2[ebp]
	call	??0CRoboRocket2@@QAE@XZ
	mov	DWORD PTR tv85[ebp], eax
	jmp	SHORT $LN6@GetClassPt
$LN5@GetClassPt:
	mov	DWORD PTR tv85[ebp], 0
$LN6@GetClassPt:
	mov	ecx, DWORD PTR tv85[ebp]
	mov	DWORD PTR $T3[ebp], ecx
	mov	DWORD PTR __$EHRec$[ebp+8], -1
	mov	edx, DWORD PTR $T3[ebp]
	mov	DWORD PTR _newEnt$[ebp], edx

; 1160 : 		newEnt->pev = pev;

	mov	eax, DWORD PTR _newEnt$[ebp]
	mov	ecx, DWORD PTR _pev$[ebp]
	mov	DWORD PTR [eax+4], ecx
$LN3@GetClassPt:

; 1161 : 	}
; 1162 : 	newEnt->SetClassname( className );

	mov	eax, DWORD PTR _className$[ebp]
	push	eax
	mov	ecx, DWORD PTR _newEnt$[ebp]
	call	?SetClassname@CBaseEntity@@QAEXPBD@Z	; CBaseEntity::SetClassname

; 1163 : 
; 1164 : 	return newEnt;

	mov	eax, DWORD PTR _newEnt$[ebp]

; 1165 : }

	mov	ecx, DWORD PTR __$EHRec$[ebp]
	mov	DWORD PTR fs:0, ecx
	pop	ecx
	pop	edi
	pop	esi
	pop	ebx
	mov	esp, ebp
	pop	ebp
	ret	0
_TEXT	ENDS
;	COMDAT text$x
text$x	SEGMENT
__unwindfunclet$??$GetClassPtr@VCRoboRocket2@@@@YAPAVCRoboRocket2@@PAV0@PBD@Z$0:
	mov	eax, DWORD PTR _pev$[ebp]
	push	eax
	mov	eax, DWORD PTR $T2[ebp]
	push	eax
	call	??3CBaseEntity@@SAXPAXPAUentvars_s@@@Z	; CBaseEntity::operator delete
	add	esp, 8
	ret	0
__ehhandler$??$GetClassPtr@VCRoboRocket2@@@@YAPAVCRoboRocket2@@PAV0@PBD@Z:
	mov	edx, DWORD PTR [esp+8]
	lea	eax, DWORD PTR [edx+12]
	mov	ecx, DWORD PTR [edx-96]
	xor	ecx, eax
	call	@__security_check_cookie@4
	mov	eax, OFFSET __ehfuncinfo$??$GetClassPtr@VCRoboRocket2@@@@YAPAVCRoboRocket2@@PAV0@PBD@Z
	jmp	___CxxFrameHandler3
text$x	ENDS
??$GetClassPtr@VCRoboRocket2@@@@YAPAVCRoboRocket2@@PAV0@PBD@Z ENDP ; GetClassPtr<CRoboRocket2>
; Function compile flags: /Odtp /ZI
; File d:\!diffusion 2020\source code 2022\client-server\server\cbase.h
;	COMDAT ??$GetClassPtr@VCRpgAmmo@@@@YAPAVCRpgAmmo@@PAV0@PBD@Z
_TEXT	SEGMENT
tv85 = -92						; size = 4
$T2 = -88						; size = 4
$T3 = -84						; size = 4
_pev$ = -16						; size = 4
__$EHRec$ = -12						; size = 12
_newEnt$ = 8						; size = 4
_className$ = 12					; size = 4
??$GetClassPtr@VCRpgAmmo@@@@YAPAVCRpgAmmo@@PAV0@PBD@Z PROC ; GetClassPtr<CRpgAmmo>, COMDAT

; 1146 : {

	push	ebp
	mov	ebp, esp
	push	-1
	push	__ehhandler$??$GetClassPtr@VCRpgAmmo@@@@YAPAVCRpgAmmo@@PAV0@PBD@Z
	mov	eax, DWORD PTR fs:0
	push	eax
	sub	esp, 80					; 00000050H
	push	ebx
	push	esi
	push	edi
	mov	eax, DWORD PTR ___security_cookie
	xor	eax, ebp
	push	eax
	lea	eax, DWORD PTR __$EHRec$[ebp]
	mov	DWORD PTR fs:0, eax

; 1147 : 	entvars_t *pev = (entvars_t *)newEnt;

	mov	eax, DWORD PTR _newEnt$[ebp]
	mov	DWORD PTR _pev$[ebp], eax

; 1148 : 
; 1149 : 	// allocate entity if necessary
; 1150 : 	if (pev == NULL)

	cmp	DWORD PTR _pev$[ebp], 0
	jne	SHORT $LN2@GetClassPt

; 1151 : 		pev = VARS(CREATE_ENTITY());

	call	DWORD PTR ?g_engfuncs@@3Uenginefuncs_s@@A+84
	push	eax
	call	?VARS@@YAPAUentvars_s@@PAUedict_s@@@Z	; VARS
	add	esp, 4
	mov	DWORD PTR _pev$[ebp], eax
$LN2@GetClassPt:

; 1152 : 
; 1153 : 	// get the private data
; 1154 : 	newEnt = (T *)GET_PRIVATE(ENT(pev));

	mov	eax, DWORD PTR _pev$[ebp]
	push	eax
	call	?ENT@@YAPAUedict_s@@PBUentvars_s@@@Z	; ENT
	add	esp, 4
	push	eax
	call	?GET_PRIVATE@@YAPAXPAUedict_s@@@Z	; GET_PRIVATE
	add	esp, 4
	mov	DWORD PTR _newEnt$[ebp], eax

; 1155 : 
; 1156 : 	if (newEnt == NULL) 

	cmp	DWORD PTR _newEnt$[ebp], 0
	jne	SHORT $LN3@GetClassPt

; 1157 : 	{
; 1158 : 		// allocate private data 
; 1159 : 		newEnt = new(pev) T;

	mov	eax, DWORD PTR _pev$[ebp]
	push	eax
	push	1804					; 0000070cH
	call	??2CBaseEntity@@SAPAXIPAUentvars_s@@@Z	; CBaseEntity::operator new
	add	esp, 8
	mov	DWORD PTR $T2[ebp], eax
	mov	DWORD PTR __$EHRec$[ebp+8], 0
	cmp	DWORD PTR $T2[ebp], 0
	je	SHORT $LN5@GetClassPt
	mov	ecx, DWORD PTR $T2[ebp]
	call	??0CRpgAmmo@@QAE@XZ
	mov	DWORD PTR tv85[ebp], eax
	jmp	SHORT $LN6@GetClassPt
$LN5@GetClassPt:
	mov	DWORD PTR tv85[ebp], 0
$LN6@GetClassPt:
	mov	ecx, DWORD PTR tv85[ebp]
	mov	DWORD PTR $T3[ebp], ecx
	mov	DWORD PTR __$EHRec$[ebp+8], -1
	mov	edx, DWORD PTR $T3[ebp]
	mov	DWORD PTR _newEnt$[ebp], edx

; 1160 : 		newEnt->pev = pev;

	mov	eax, DWORD PTR _newEnt$[ebp]
	mov	ecx, DWORD PTR _pev$[ebp]
	mov	DWORD PTR [eax+4], ecx
$LN3@GetClassPt:

; 1161 : 	}
; 1162 : 	newEnt->SetClassname( className );

	mov	eax, DWORD PTR _className$[ebp]
	push	eax
	mov	ecx, DWORD PTR _newEnt$[ebp]
	call	?SetClassname@CBaseEntity@@QAEXPBD@Z	; CBaseEntity::SetClassname

; 1163 : 
; 1164 : 	return newEnt;

	mov	eax, DWORD PTR _newEnt$[ebp]

; 1165 : }

	mov	ecx, DWORD PTR __$EHRec$[ebp]
	mov	DWORD PTR fs:0, ecx
	pop	ecx
	pop	edi
	pop	esi
	pop	ebx
	mov	esp, ebp
	pop	ebp
	ret	0
_TEXT	ENDS
;	COMDAT text$x
text$x	SEGMENT
__unwindfunclet$??$GetClassPtr@VCRpgAmmo@@@@YAPAVCRpgAmmo@@PAV0@PBD@Z$0:
	mov	eax, DWORD PTR _pev$[ebp]
	push	eax
	mov	eax, DWORD PTR $T2[ebp]
	push	eax
	call	??3CBaseEntity@@SAXPAXPAUentvars_s@@@Z	; CBaseEntity::operator delete
	add	esp, 8
	ret	0
__ehhandler$??$GetClassPtr@VCRpgAmmo@@@@YAPAVCRpgAmmo@@PAV0@PBD@Z:
	mov	edx, DWORD PTR [esp+8]
	lea	eax, DWORD PTR [edx+12]
	mov	ecx, DWORD PTR [edx-96]
	xor	ecx, eax
	call	@__security_check_cookie@4
	mov	eax, OFFSET __ehfuncinfo$??$GetClassPtr@VCRpgAmmo@@@@YAPAVCRpgAmmo@@PAV0@PBD@Z
	jmp	___CxxFrameHandler3
text$x	ENDS
??$GetClassPtr@VCRpgAmmo@@@@YAPAVCRpgAmmo@@PAV0@PBD@Z ENDP ; GetClassPtr<CRpgAmmo>
; Function compile flags: /Odtp /ZI
; File d:\!diffusion 2020\source code 2022\client-server\server\weapons\weapon_rpg.cpp
;	COMDAT ??__Eammo_rpgclip@@YAXXZ
text$di	SEGMENT
??__Eammo_rpgclip@@YAXXZ PROC				; `dynamic initializer for 'ammo_rpgclip'', COMDAT

; 1131 : LINK_ENTITY_TO_CLASS( ammo_rpgclip, CRpgAmmo );

	push	ebp
	mov	ebp, esp
	sub	esp, 64					; 00000040H
	push	ebx
	push	esi
	push	edi
	push	OFFSET ??_C@_0N@FDODGIHO@ammo_rpgclip?$AA@
	mov	ecx, OFFSET ?ammo_rpgclip@@3V?$CEntityFactory@VCRpgAmmo@@@@A
	call	??0?$CEntityFactory@VCRpgAmmo@@@@QAE@PBD@Z ; CEntityFactory<CRpgAmmo>::CEntityFactory<CRpgAmmo>
	pop	edi
	pop	esi
	pop	ebx
	mov	esp, ebp
	pop	ebp
	ret	0
??__Eammo_rpgclip@@YAXXZ ENDP				; `dynamic initializer for 'ammo_rpgclip''
text$di	ENDS
; Function compile flags: /Odtp /ZI
; File d:\!diffusion 2020\source code 2022\client-server\server\util.h
;	COMDAT ?GetEntitySize@?$CEntityFactory@VCRpgAmmo@@@@UAEIXZ
_TEXT	SEGMENT
_this$ = -4						; size = 4
?GetEntitySize@?$CEntityFactory@VCRpgAmmo@@@@UAEIXZ PROC ; CEntityFactory<CRpgAmmo>::GetEntitySize, COMDAT
; _this$ = ecx

; 103  : 	{

	push	ebp
	mov	ebp, esp
	sub	esp, 68					; 00000044H
	push	ebx
	push	esi
	push	edi
	mov	DWORD PTR _this$[ebp], ecx

; 104  : 		return sizeof(T);

	mov	eax, 1804				; 0000070cH

; 105  : 	}

	pop	edi
	pop	esi
	pop	ebx
	mov	esp, ebp
	pop	ebp
	ret	0
?GetEntitySize@?$CEntityFactory@VCRpgAmmo@@@@UAEIXZ ENDP ; CEntityFactory<CRpgAmmo>::GetEntitySize
_TEXT	ENDS
; Function compile flags: /Odtp /ZI
; File d:\!diffusion 2020\source code 2022\client-server\server\util.h
;	COMDAT ?Destroy@?$CEntityFactory@VCRpgAmmo@@@@UAEXPAVCBaseEntity@@@Z
_TEXT	SEGMENT
_this$ = -4						; size = 4
_pEntity$ = 8						; size = 4
?Destroy@?$CEntityFactory@VCRpgAmmo@@@@UAEXPAVCBaseEntity@@@Z PROC ; CEntityFactory<CRpgAmmo>::Destroy, COMDAT
; _this$ = ecx

; 98   : 	{

	push	ebp
	mov	ebp, esp
	sub	esp, 68					; 00000044H
	push	ebx
	push	esi
	push	edi
	mov	DWORD PTR _this$[ebp], ecx

; 99   : 		UTIL_Remove( pEntity );

	mov	eax, DWORD PTR _pEntity$[ebp]
	push	eax
	call	?UTIL_Remove@@YAXPAVCBaseEntity@@@Z	; UTIL_Remove
	add	esp, 4

; 100  : 	}

	pop	edi
	pop	esi
	pop	ebx
	mov	esp, ebp
	pop	ebp
	ret	4
?Destroy@?$CEntityFactory@VCRpgAmmo@@@@UAEXPAVCBaseEntity@@@Z ENDP ; CEntityFactory<CRpgAmmo>::Destroy
_TEXT	ENDS
; Function compile flags: /Odtp /ZI
; File d:\!diffusion 2020\source code 2022\client-server\server\util.h
;	COMDAT ?Create@?$CEntityFactory@VCRpgAmmo@@@@UAEPAVCBaseEntity@@PBDPAUentvars_s@@@Z
_TEXT	SEGMENT
_pEnt$ = -8						; size = 4
_this$ = -4						; size = 4
_pClassName$ = 8					; size = 4
_pev$ = 12						; size = 4
?Create@?$CEntityFactory@VCRpgAmmo@@@@UAEPAVCBaseEntity@@PBDPAUentvars_s@@@Z PROC ; CEntityFactory<CRpgAmmo>::Create, COMDAT
; _this$ = ecx

; 92   : 	{

	push	ebp
	mov	ebp, esp
	sub	esp, 72					; 00000048H
	push	ebx
	push	esi
	push	edi
	mov	DWORD PTR _this$[ebp], ecx

; 93   : 		T* pEnt = GetClassPtr((T*)pev, pClassName);

	mov	eax, DWORD PTR _pClassName$[ebp]
	push	eax
	mov	ecx, DWORD PTR _pev$[ebp]
	push	ecx
	call	??$GetClassPtr@VCRpgAmmo@@@@YAPAVCRpgAmmo@@PAV0@PBD@Z ; GetClassPtr<CRpgAmmo>
	add	esp, 8
	mov	DWORD PTR _pEnt$[ebp], eax

; 94   : 		return pEnt;

	mov	eax, DWORD PTR _pEnt$[ebp]

; 95   : 	}

	pop	edi
	pop	esi
	pop	ebx
	mov	esp, ebp
	pop	ebp
	ret	8
?Create@?$CEntityFactory@VCRpgAmmo@@@@UAEPAVCBaseEntity@@PBDPAUentvars_s@@@Z ENDP ; CEntityFactory<CRpgAmmo>::Create
_TEXT	ENDS
; Function compile flags: /Odtp /ZI
; File d:\!diffusion 2020\source code 2022\client-server\server\util.h
;	COMDAT ??0?$CEntityFactory@VCRpgAmmo@@@@QAE@PBD@Z
_TEXT	SEGMENT
tv76 = -72						; size = 4
_this$ = -4						; size = 4
_pClassName$ = 8					; size = 4
??0?$CEntityFactory@VCRpgAmmo@@@@QAE@PBD@Z PROC		; CEntityFactory<CRpgAmmo>::CEntityFactory<CRpgAmmo>, COMDAT
; _this$ = ecx

; 86   : 	CEntityFactory( const char *pClassName )

	push	ebp
	mov	ebp, esp
	sub	esp, 72					; 00000048H
	push	ebx
	push	esi
	push	edi
	mov	DWORD PTR _this$[ebp], ecx

; 87   : 	{

	mov	ecx, DWORD PTR _this$[ebp]
	call	??0IEntityFactory@@QAE@XZ
	mov	eax, DWORD PTR _this$[ebp]
	mov	DWORD PTR [eax], OFFSET ??_7?$CEntityFactory@VCRpgAmmo@@@@6B@

; 88   : 		EntityFactoryDictionary()->InstallFactory( this, pClassName );

	call	?EntityFactoryDictionary@@YAPAVIEntityFactoryDictionary@@XZ ; EntityFactoryDictionary
	mov	DWORD PTR tv76[ebp], eax
	mov	eax, DWORD PTR _pClassName$[ebp]
	push	eax
	mov	ecx, DWORD PTR _this$[ebp]
	push	ecx
	mov	edx, DWORD PTR tv76[ebp]
	mov	eax, DWORD PTR [edx]
	mov	ecx, DWORD PTR tv76[ebp]
	mov	edx, DWORD PTR [eax]
	call	edx

; 89   : 	}

	mov	eax, DWORD PTR _this$[ebp]
	pop	edi
	pop	esi
	pop	ebx
	mov	esp, ebp
	pop	ebp
	ret	4
??0?$CEntityFactory@VCRpgAmmo@@@@QAE@PBD@Z ENDP		; CEntityFactory<CRpgAmmo>::CEntityFactory<CRpgAmmo>
_TEXT	ENDS
; Function compile flags: /Odtp /ZI
;	COMDAT ??0CRpgAmmo@@QAE@XZ
_TEXT	SEGMENT
_this$ = -4						; size = 4
??0CRpgAmmo@@QAE@XZ PROC				; CRpgAmmo::CRpgAmmo, COMDAT
; _this$ = ecx
	push	ebp
	mov	ebp, esp
	sub	esp, 68					; 00000044H
	push	ebx
	push	esi
	push	edi
	mov	DWORD PTR _this$[ebp], ecx
	mov	ecx, DWORD PTR _this$[ebp]
	call	??0CBasePlayerAmmo@@QAE@XZ
	mov	eax, DWORD PTR _this$[ebp]
	mov	DWORD PTR [eax], OFFSET ??_7CRpgAmmo@@6B@
	mov	eax, DWORD PTR _this$[ebp]
	pop	edi
	pop	esi
	pop	ebx
	mov	esp, ebp
	pop	ebp
	ret	0
??0CRpgAmmo@@QAE@XZ ENDP				; CRpgAmmo::CRpgAmmo
_TEXT	ENDS
; Function compile flags: /Odtp /ZI
; File d:\!diffusion 2020\source code 2022\client-server\server\weapons\weapon_rpg.cpp
;	COMDAT ?AddAmmo@CRpgAmmo@@EAEHPAVCBaseEntity@@@Z
_TEXT	SEGMENT
_iGive$ = -8						; size = 4
_this$ = -4						; size = 4
_pOther$ = 8						; size = 4
?AddAmmo@CRpgAmmo@@EAEHPAVCBaseEntity@@@Z PROC		; CRpgAmmo::AddAmmo, COMDAT
; _this$ = ecx

; 1108 : 	{ 

	push	ebp
	mov	ebp, esp
	sub	esp, 72					; 00000048H
	push	ebx
	push	esi
	push	edi
	mov	DWORD PTR _this$[ebp], ecx

; 1109 : 		int iGive;
; 1110 : 
; 1111 : 		if ( g_pGameRules->IsMultiplayer() )

	mov	eax, DWORD PTR ?g_pGameRules@@3PAVCGameRules@@A ; g_pGameRules
	mov	edx, DWORD PTR [eax]
	mov	ecx, DWORD PTR ?g_pGameRules@@3PAVCGameRules@@A ; g_pGameRules
	mov	eax, DWORD PTR [edx+24]
	call	eax
	test	eax, eax
	je	SHORT $LN2@AddAmmo

; 1112 : 		{
; 1113 : 			// hand out more ammo per rocket in multiplayer.
; 1114 : 			iGive = AMMO_RPGCLIP_GIVE * 2;

	mov	DWORD PTR _iGive$[ebp], 2

; 1115 : 		}
; 1116 : 		else

	jmp	SHORT $LN3@AddAmmo
$LN2@AddAmmo:

; 1117 : 		{
; 1118 : 			iGive = AMMO_RPGCLIP_GIVE;

	mov	DWORD PTR _iGive$[ebp], 1
$LN3@AddAmmo:

; 1119 : 		}
; 1120 : 
; 1121 : 		if (pOther->GiveAmmo( iGive, "rockets", ROCKET_MAX_CARRY ) != -1)

	push	5
	push	OFFSET ??_C@_07DCMGFMFH@rockets?$AA@
	mov	eax, DWORD PTR _iGive$[ebp]
	push	eax
	mov	ecx, DWORD PTR _pOther$[ebp]
	mov	edx, DWORD PTR [ecx]
	mov	ecx, DWORD PTR _pOther$[ebp]
	mov	eax, DWORD PTR [edx+152]
	call	eax
	cmp	eax, -1
	je	SHORT $LN4@AddAmmo

; 1122 : 		{
; 1123 : 		//	EMIT_SOUND(ENT(pev), CHAN_ITEM, "items/9mmclip1.wav", 1, ATTN_NORM);
; 1124 : 			PlayPickupSound( pOther );

	push	250					; 000000faH
	mov	eax, DWORD PTR _pOther$[ebp]
	push	eax
	call	?PlayPickupSound@@YAXPAVCBaseEntity@@H@Z ; PlayPickupSound
	add	esp, 8

; 1125 : 			return TRUE;

	mov	eax, 1
	jmp	SHORT $LN1@AddAmmo
$LN4@AddAmmo:

; 1126 : 		}
; 1127 : 		return FALSE;

	xor	eax, eax
$LN1@AddAmmo:

; 1128 : 	}

	pop	edi
	pop	esi
	pop	ebx
	mov	esp, ebp
	pop	ebp
	ret	4
?AddAmmo@CRpgAmmo@@EAEHPAVCBaseEntity@@@Z ENDP		; CRpgAmmo::AddAmmo
_TEXT	ENDS
; Function compile flags: /Odtp /ZI
; File d:\!diffusion 2020\source code 2022\client-server\server\weapons\weapon_rpg.cpp
;	COMDAT ?Precache@CRpgAmmo@@EAEXXZ
_TEXT	SEGMENT
_this$ = -4						; size = 4
?Precache@CRpgAmmo@@EAEXXZ PROC				; CRpgAmmo::Precache, COMDAT
; _this$ = ecx

; 1103 : 	{

	push	ebp
	mov	ebp, esp
	sub	esp, 68					; 00000044H
	push	ebx
	push	esi
	push	edi
	mov	DWORD PTR _this$[ebp], ecx

; 1104 : 		PRECACHE_MODEL ("models/w_rpgammo.mdl");

	push	OFFSET ??_C@_0BF@ONHNEHHH@models?1w_rpgammo?4mdl?$AA@
	call	DWORD PTR ?g_engfuncs@@3Uenginefuncs_s@@A
	add	esp, 4

; 1105 : 		PRECACHE_SOUND("items/9mmclip1.wav");

	push	OFFSET ??_C@_0BD@BADMCPNB@items?19mmclip1?4wav?$AA@
	call	DWORD PTR ?g_engfuncs@@3Uenginefuncs_s@@A+4
	add	esp, 4

; 1106 : 	}

	pop	edi
	pop	esi
	pop	ebx
	mov	esp, ebp
	pop	ebp
	ret	0
?Precache@CRpgAmmo@@EAEXXZ ENDP				; CRpgAmmo::Precache
_TEXT	ENDS
; Function compile flags: /Odtp /ZI
; File d:\!diffusion 2020\source code 2022\client-server\server\weapons\weapon_rpg.cpp
;	COMDAT ?Spawn@CRpgAmmo@@EAEXXZ
_TEXT	SEGMENT
_this$ = -4						; size = 4
?Spawn@CRpgAmmo@@EAEXXZ PROC				; CRpgAmmo::Spawn, COMDAT
; _this$ = ecx

; 1097 : 	{ 

	push	ebp
	mov	ebp, esp
	sub	esp, 68					; 00000044H
	push	ebx
	push	esi
	push	edi
	mov	DWORD PTR _this$[ebp], ecx

; 1098 : 		Precache( );

	mov	eax, DWORD PTR _this$[ebp]
	mov	edx, DWORD PTR [eax]
	mov	ecx, DWORD PTR _this$[ebp]
	mov	eax, DWORD PTR [edx+8]
	call	eax

; 1099 : 		SET_MODEL(ENT(pev), "models/w_rpgammo.mdl");

	push	OFFSET ??_C@_0BF@ONHNEHHH@models?1w_rpgammo?4mdl?$AA@
	mov	eax, DWORD PTR _this$[ebp]
	mov	ecx, DWORD PTR [eax+4]
	push	ecx
	call	?ENT@@YAPAUedict_s@@PBUentvars_s@@@Z	; ENT
	add	esp, 4
	push	eax
	call	DWORD PTR ?g_engfuncs@@3Uenginefuncs_s@@A+8
	add	esp, 8

; 1100 : 		BaseClass::Spawn( );

	mov	ecx, DWORD PTR _this$[ebp]
	call	?Spawn@CBasePlayerAmmo@@UAEXXZ		; CBasePlayerAmmo::Spawn

; 1101 : 	}

	pop	edi
	pop	esi
	pop	ebx
	mov	esp, ebp
	pop	ebp
	ret	0
?Spawn@CRpgAmmo@@EAEXXZ ENDP				; CRpgAmmo::Spawn
_TEXT	ENDS
; Function compile flags: /Odtp /ZI
;	COMDAT ??__FnameHolder@?1???$DataMapInit@VCRoboRocket2@@@@YAPAUdatamap_s@@PAVCRoboRocket2@@@Z@YAXXZ
text$yd	SEGMENT
??__FnameHolder@?1???$DataMapInit@VCRoboRocket2@@@@YAPAUdatamap_s@@PAVCRoboRocket2@@@Z@YAXXZ PROC ; `DataMapInit<CRoboRocket2>'::`2'::`dynamic atexit destructor for 'nameHolder'', COMDAT
	push	ebp
	mov	ebp, esp
	sub	esp, 64					; 00000040H
	push	ebx
	push	esi
	push	edi
	mov	ecx, OFFSET ?nameHolder@?1???$DataMapInit@VCRoboRocket2@@@@YAPAUdatamap_s@@PAVCRoboRocket2@@@Z@4VCDatadescGeneratedNameHolder@@A
	call	??1CDatadescGeneratedNameHolder@@QAE@XZ	; CDatadescGeneratedNameHolder::~CDatadescGeneratedNameHolder
	pop	edi
	pop	esi
	pop	ebx
	mov	esp, ebp
	pop	ebp
	ret	0
??__FnameHolder@?1???$DataMapInit@VCRoboRocket2@@@@YAPAUdatamap_s@@PAVCRoboRocket2@@@Z@YAXXZ ENDP ; `DataMapInit<CRoboRocket2>'::`2'::`dynamic atexit destructor for 'nameHolder''
text$yd	ENDS
; Function compile flags: /Odtp /ZI
; File d:\!diffusion 2020\source code 2022\client-server\server\weapons\weapon_rpg.cpp
;	COMDAT ??__Eg_DataMapHolder@CRoboRocket2_DataDescInit@@YAXXZ
text$di	SEGMENT
??__Eg_DataMapHolder@CRoboRocket2_DataDescInit@@YAXXZ PROC ; CRoboRocket2_DataDescInit::`dynamic initializer for 'g_DataMapHolder'', COMDAT

; 483  : BEGIN_DATADESC( CRoboRocket2 )

	push	ebp
	mov	ebp, esp
	sub	esp, 64					; 00000040H
	push	ebx
	push	esi
	push	edi
	push	0
	call	??$DataMapInit@VCRoboRocket2@@@@YAPAUdatamap_s@@PAVCRoboRocket2@@@Z ; DataMapInit<CRoboRocket2>
	add	esp, 4
	mov	DWORD PTR ?g_DataMapHolder@CRoboRocket2_DataDescInit@@3PAUdatamap_s@@A, eax ; CRoboRocket2_DataDescInit::g_DataMapHolder
	pop	edi
	pop	esi
	pop	ebx
	mov	esp, ebp
	pop	ebp
	ret	0
??__Eg_DataMapHolder@CRoboRocket2_DataDescInit@@YAXXZ ENDP ; CRoboRocket2_DataDescInit::`dynamic initializer for 'g_DataMapHolder''
text$di	ENDS
; Function compile flags: /Odtp /ZI
; File d:\!diffusion 2020\source code 2022\client-server\server\weapons\weapon_rpg.cpp
;	COMDAT ??$DataMapInit@VCRoboRocket2@@@@YAPAUdatamap_s@@PAVCRoboRocket2@@@Z
_TEXT	SEGMENT
__$EHRec$ = -12						; size = 12
___formal$ = 8						; size = 4
??$DataMapInit@VCRoboRocket2@@@@YAPAUdatamap_s@@PAVCRoboRocket2@@@Z PROC ; DataMapInit<CRoboRocket2>, COMDAT

; 483  : BEGIN_DATADESC( CRoboRocket2 )

	push	ebp
	mov	ebp, esp
	push	-1
	push	__ehhandler$??$DataMapInit@VCRoboRocket2@@@@YAPAUdatamap_s@@PAVCRoboRocket2@@@Z
	mov	eax, DWORD PTR fs:0
	push	eax
	sub	esp, 64					; 00000040H
	push	ebx
	push	esi
	push	edi
	mov	eax, DWORD PTR ___security_cookie
	xor	eax, ebp
	push	eax
	lea	eax, DWORD PTR __$EHRec$[ebp]
	mov	DWORD PTR fs:0, eax
	mov	eax, DWORD PTR __tls_index
	mov	ecx, DWORD PTR fs:__tls_array
	mov	edx, DWORD PTR [ecx+eax*4]
	mov	eax, DWORD PTR ?$TSS0@?1???$DataMapInit@VCRoboRocket2@@@@YAPAUdatamap_s@@PAVCRoboRocket2@@@Z@4HA
	cmp	eax, DWORD PTR __Init_thread_epoch[edx]
	jle	SHORT $LN2@DataMapIni
	push	OFFSET ?$TSS0@?1???$DataMapInit@VCRoboRocket2@@@@YAPAUdatamap_s@@PAVCRoboRocket2@@@Z@4HA
	call	__Init_thread_header
	add	esp, 4
	cmp	DWORD PTR ?$TSS0@?1???$DataMapInit@VCRoboRocket2@@@@YAPAUdatamap_s@@PAVCRoboRocket2@@@Z@4HA, -1
	jne	SHORT $LN2@DataMapIni
	mov	DWORD PTR __$EHRec$[ebp+8], 0
	push	OFFSET ??_C@_0N@NGHBIJO@CRoboRocket2?$AA@
	mov	ecx, OFFSET ?nameHolder@?1???$DataMapInit@VCRoboRocket2@@@@YAPAUdatamap_s@@PAVCRoboRocket2@@@Z@4VCDatadescGeneratedNameHolder@@A
	call	??0CDatadescGeneratedNameHolder@@QAE@PBD@Z ; CDatadescGeneratedNameHolder::CDatadescGeneratedNameHolder
	push	OFFSET ??__FnameHolder@?1???$DataMapInit@VCRoboRocket2@@@@YAPAUdatamap_s@@PAVCRoboRocket2@@@Z@YAXXZ ; `DataMapInit<CRoboRocket2>'::`2'::`dynamic atexit destructor for 'nameHolder''
	call	_atexit
	add	esp, 4
	mov	DWORD PTR __$EHRec$[ebp+8], -1
	push	OFFSET ?$TSS0@?1???$DataMapInit@VCRoboRocket2@@@@YAPAUdatamap_s@@PAVCRoboRocket2@@@Z@4HA
	call	__Init_thread_footer
	add	esp, 4
$LN2@DataMapIni:

; 490  : END_DATADESC()

	call	?GetBaseMap@CRoboRocket2@@SAPAUdatamap_s@@XZ ; CRoboRocket2::GetBaseMap
	mov	DWORD PTR ?m_DataMap@CRoboRocket2@@2Udatamap_s@@A+12, eax

; 483  : BEGIN_DATADESC( CRoboRocket2 )

	mov	eax, DWORD PTR __tls_index
	mov	ecx, DWORD PTR fs:__tls_array
	mov	edx, DWORD PTR [ecx+eax*4]
	mov	eax, DWORD PTR ?$TSS1@?1???$DataMapInit@VCRoboRocket2@@@@YAPAUdatamap_s@@PAVCRoboRocket2@@@Z@4HA
	cmp	eax, DWORD PTR __Init_thread_epoch[edx]
	jle	$LN3@DataMapIni
	push	OFFSET ?$TSS1@?1???$DataMapInit@VCRoboRocket2@@@@YAPAUdatamap_s@@PAVCRoboRocket2@@@Z@4HA
	call	__Init_thread_header
	add	esp, 4
	cmp	DWORD PTR ?$TSS1@?1???$DataMapInit@VCRoboRocket2@@@@YAPAUdatamap_s@@PAVCRoboRocket2@@@Z@4HA, -1
	jne	$LN3@DataMapIni
	mov	DWORD PTR __$EHRec$[ebp+8], 1

; 484  : 	DEFINE_FIELD( m_flIgniteTime, FIELD_TIME ),
; 485  : //	DEFINE_FIELD( m_pLauncher, FIELD_CLASSPTR ),
; 486  : 	DEFINE_FUNCTION( FollowThink ),

	push	OFFSET ??_C@_0M@HFODBJCA@FollowThink?$AA@
	mov	ecx, OFFSET ?nameHolder@?1???$DataMapInit@VCRoboRocket2@@@@YAPAUdatamap_s@@PAVCRoboRocket2@@@Z@4VCDatadescGeneratedNameHolder@@A
	call	?GenerateName@CDatadescGeneratedNameHolder@@QAEPBDPBD@Z ; CDatadescGeneratedNameHolder::GenerateName
	mov	DWORD PTR ?dataDesc@?1???$DataMapInit@VCRoboRocket2@@@@YAPAUdatamap_s@@PAVCRoboRocket2@@@Z@4PAUtypedescription_s@@A+52, eax
	mov	DWORD PTR ?dataDesc@?1???$DataMapInit@VCRoboRocket2@@@@YAPAUdatamap_s@@PAVCRoboRocket2@@@Z@4PAUtypedescription_s@@A+56, 0
	mov	eax, 1
	mov	WORD PTR ?dataDesc@?1???$DataMapInit@VCRoboRocket2@@@@YAPAUdatamap_s@@PAVCRoboRocket2@@@Z@4PAUtypedescription_s@@A+60, ax
	mov	eax, 8
	mov	WORD PTR ?dataDesc@?1???$DataMapInit@VCRoboRocket2@@@@YAPAUdatamap_s@@PAVCRoboRocket2@@@Z@4PAUtypedescription_s@@A+62, ax
	mov	DWORD PTR ?dataDesc@?1???$DataMapInit@VCRoboRocket2@@@@YAPAUdatamap_s@@PAVCRoboRocket2@@@Z@4PAUtypedescription_s@@A+64, 0
	mov	DWORD PTR ?dataDesc@?1???$DataMapInit@VCRoboRocket2@@@@YAPAUdatamap_s@@PAVCRoboRocket2@@@Z@4PAUtypedescription_s@@A+68, OFFSET ?FollowThink@CRoboRocket2@@QAEXXZ ; CRoboRocket2::FollowThink

; 487  : 	DEFINE_FUNCTION( IgniteThink ),

	mov	DWORD PTR ?dataDesc@?1???$DataMapInit@VCRoboRocket2@@@@YAPAUdatamap_s@@PAVCRoboRocket2@@@Z@4PAUtypedescription_s@@A+72, 18 ; 00000012H
	push	OFFSET ??_C@_0M@CCEGFCPM@IgniteThink?$AA@
	mov	ecx, OFFSET ?nameHolder@?1???$DataMapInit@VCRoboRocket2@@@@YAPAUdatamap_s@@PAVCRoboRocket2@@@Z@4VCDatadescGeneratedNameHolder@@A
	call	?GenerateName@CDatadescGeneratedNameHolder@@QAEPBDPBD@Z ; CDatadescGeneratedNameHolder::GenerateName
	mov	DWORD PTR ?dataDesc@?1???$DataMapInit@VCRoboRocket2@@@@YAPAUdatamap_s@@PAVCRoboRocket2@@@Z@4PAUtypedescription_s@@A+76, eax
	mov	DWORD PTR ?dataDesc@?1???$DataMapInit@VCRoboRocket2@@@@YAPAUdatamap_s@@PAVCRoboRocket2@@@Z@4PAUtypedescription_s@@A+80, 0
	mov	eax, 1
	mov	WORD PTR ?dataDesc@?1???$DataMapInit@VCRoboRocket2@@@@YAPAUdatamap_s@@PAVCRoboRocket2@@@Z@4PAUtypedescription_s@@A+84, ax
	mov	eax, 8
	mov	WORD PTR ?dataDesc@?1???$DataMapInit@VCRoboRocket2@@@@YAPAUdatamap_s@@PAVCRoboRocket2@@@Z@4PAUtypedescription_s@@A+86, ax
	mov	DWORD PTR ?dataDesc@?1???$DataMapInit@VCRoboRocket2@@@@YAPAUdatamap_s@@PAVCRoboRocket2@@@Z@4PAUtypedescription_s@@A+88, 0
	mov	DWORD PTR ?dataDesc@?1???$DataMapInit@VCRoboRocket2@@@@YAPAUdatamap_s@@PAVCRoboRocket2@@@Z@4PAUtypedescription_s@@A+92, OFFSET ?IgniteThink@CRoboRocket2@@QAEXXZ ; CRoboRocket2::IgniteThink

; 488  : 	DEFINE_FUNCTION( RocketTouch ),

	mov	DWORD PTR ?dataDesc@?1???$DataMapInit@VCRoboRocket2@@@@YAPAUdatamap_s@@PAVCRoboRocket2@@@Z@4PAUtypedescription_s@@A+96, 18 ; 00000012H
	push	OFFSET ??_C@_0M@MEKFALBF@RocketTouch?$AA@
	mov	ecx, OFFSET ?nameHolder@?1???$DataMapInit@VCRoboRocket2@@@@YAPAUdatamap_s@@PAVCRoboRocket2@@@Z@4VCDatadescGeneratedNameHolder@@A
	call	?GenerateName@CDatadescGeneratedNameHolder@@QAEPBDPBD@Z ; CDatadescGeneratedNameHolder::GenerateName
	mov	DWORD PTR ?dataDesc@?1???$DataMapInit@VCRoboRocket2@@@@YAPAUdatamap_s@@PAVCRoboRocket2@@@Z@4PAUtypedescription_s@@A+100, eax
	mov	DWORD PTR ?dataDesc@?1???$DataMapInit@VCRoboRocket2@@@@YAPAUdatamap_s@@PAVCRoboRocket2@@@Z@4PAUtypedescription_s@@A+104, 0
	mov	eax, 1
	mov	WORD PTR ?dataDesc@?1???$DataMapInit@VCRoboRocket2@@@@YAPAUdatamap_s@@PAVCRoboRocket2@@@Z@4PAUtypedescription_s@@A+108, ax
	mov	eax, 8
	mov	WORD PTR ?dataDesc@?1???$DataMapInit@VCRoboRocket2@@@@YAPAUdatamap_s@@PAVCRoboRocket2@@@Z@4PAUtypedescription_s@@A+110, ax
	mov	DWORD PTR ?dataDesc@?1???$DataMapInit@VCRoboRocket2@@@@YAPAUdatamap_s@@PAVCRoboRocket2@@@Z@4PAUtypedescription_s@@A+112, 0
	mov	DWORD PTR ?dataDesc@?1???$DataMapInit@VCRoboRocket2@@@@YAPAUdatamap_s@@PAVCRoboRocket2@@@Z@4PAUtypedescription_s@@A+116, OFFSET ?RocketTouch@CRoboRocket2@@QAEXPAVCBaseEntity@@@Z ; CRoboRocket2::RocketTouch

; 489  : 	DEFINE_FUNCTION( RocketExplode ),

	mov	DWORD PTR ?dataDesc@?1???$DataMapInit@VCRoboRocket2@@@@YAPAUdatamap_s@@PAVCRoboRocket2@@@Z@4PAUtypedescription_s@@A+120, 18 ; 00000012H
	push	OFFSET ??_C@_0O@KKBBKKAJ@RocketExplode?$AA@
	mov	ecx, OFFSET ?nameHolder@?1???$DataMapInit@VCRoboRocket2@@@@YAPAUdatamap_s@@PAVCRoboRocket2@@@Z@4VCDatadescGeneratedNameHolder@@A
	call	?GenerateName@CDatadescGeneratedNameHolder@@QAEPBDPBD@Z ; CDatadescGeneratedNameHolder::GenerateName
	mov	DWORD PTR ?dataDesc@?1???$DataMapInit@VCRoboRocket2@@@@YAPAUdatamap_s@@PAVCRoboRocket2@@@Z@4PAUtypedescription_s@@A+124, eax
	mov	DWORD PTR ?dataDesc@?1???$DataMapInit@VCRoboRocket2@@@@YAPAUdatamap_s@@PAVCRoboRocket2@@@Z@4PAUtypedescription_s@@A+128, 0
	mov	eax, 1
	mov	WORD PTR ?dataDesc@?1???$DataMapInit@VCRoboRocket2@@@@YAPAUdatamap_s@@PAVCRoboRocket2@@@Z@4PAUtypedescription_s@@A+132, ax
	mov	eax, 8
	mov	WORD PTR ?dataDesc@?1???$DataMapInit@VCRoboRocket2@@@@YAPAUdatamap_s@@PAVCRoboRocket2@@@Z@4PAUtypedescription_s@@A+134, ax
	mov	DWORD PTR ?dataDesc@?1???$DataMapInit@VCRoboRocket2@@@@YAPAUdatamap_s@@PAVCRoboRocket2@@@Z@4PAUtypedescription_s@@A+136, 0
	mov	DWORD PTR ?dataDesc@?1???$DataMapInit@VCRoboRocket2@@@@YAPAUdatamap_s@@PAVCRoboRocket2@@@Z@4PAUtypedescription_s@@A+140, OFFSET ?RocketExplode@CRoboRocket2@@QAEXPAUgametrace_s@@H@Z ; CRoboRocket2::RocketExplode
	mov	DWORD PTR __$EHRec$[ebp+8], -1
	push	OFFSET ?$TSS1@?1???$DataMapInit@VCRoboRocket2@@@@YAPAUdatamap_s@@PAVCRoboRocket2@@@Z@4HA
	call	__Init_thread_footer
	add	esp, 4
$LN3@DataMapIni:

; 490  : END_DATADESC()

	mov	eax, 1
	test	eax, eax
	je	SHORT $LN4@DataMapIni
	mov	DWORD PTR ?m_DataMap@CRoboRocket2@@2Udatamap_s@@A+4, 5
	mov	eax, 24					; 00000018H
	shl	eax, 0
	add	eax, OFFSET ?dataDesc@?1???$DataMapInit@VCRoboRocket2@@@@YAPAUdatamap_s@@PAVCRoboRocket2@@@Z@4PAUtypedescription_s@@A
	mov	DWORD PTR ?m_DataMap@CRoboRocket2@@2Udatamap_s@@A, eax
	jmp	SHORT $LN5@DataMapIni
$LN4@DataMapIni:
	mov	DWORD PTR ?m_DataMap@CRoboRocket2@@2Udatamap_s@@A+4, 1
	mov	DWORD PTR ?m_DataMap@CRoboRocket2@@2Udatamap_s@@A, OFFSET ?dataDesc@?1???$DataMapInit@VCRoboRocket2@@@@YAPAUdatamap_s@@PAVCRoboRocket2@@@Z@4PAUtypedescription_s@@A
$LN5@DataMapIni:
	mov	eax, OFFSET ?m_DataMap@CRoboRocket2@@2Udatamap_s@@A ; CRoboRocket2::m_DataMap
	mov	ecx, DWORD PTR __$EHRec$[ebp]
	mov	DWORD PTR fs:0, ecx
	pop	ecx
	pop	edi
	pop	esi
	pop	ebx
	mov	esp, ebp
	pop	ebp
	ret	0
_TEXT	ENDS
;	COMDAT text$x
text$x	SEGMENT
__unwindfunclet$??$DataMapInit@VCRoboRocket2@@@@YAPAUdatamap_s@@PAVCRoboRocket2@@@Z$0:
	push	OFFSET ?$TSS0@?1???$DataMapInit@VCRoboRocket2@@@@YAPAUdatamap_s@@PAVCRoboRocket2@@@Z@4HA
	call	__Init_thread_abort
	pop	ecx
	ret	0
__unwindfunclet$??$DataMapInit@VCRoboRocket2@@@@YAPAUdatamap_s@@PAVCRoboRocket2@@@Z$1:
	push	OFFSET ?$TSS1@?1???$DataMapInit@VCRoboRocket2@@@@YAPAUdatamap_s@@PAVCRoboRocket2@@@Z@4HA
	call	__Init_thread_abort
	pop	ecx
	ret	0
__ehhandler$??$DataMapInit@VCRoboRocket2@@@@YAPAUdatamap_s@@PAVCRoboRocket2@@@Z:
	mov	edx, DWORD PTR [esp+8]
	lea	eax, DWORD PTR [edx+12]
	mov	ecx, DWORD PTR [edx-80]
	xor	ecx, eax
	call	@__security_check_cookie@4
	mov	eax, OFFSET __ehfuncinfo$??$DataMapInit@VCRoboRocket2@@@@YAPAUdatamap_s@@PAVCRoboRocket2@@@Z
	jmp	___CxxFrameHandler3
text$x	ENDS
??$DataMapInit@VCRoboRocket2@@@@YAPAUdatamap_s@@PAVCRoboRocket2@@@Z ENDP ; DataMapInit<CRoboRocket2>
; Function compile flags: /Odtp /ZI
; File d:\!diffusion 2020\source code 2022\client-server\server\weapons\weapon_rpg.cpp
;	COMDAT ??__Erobo_rocket2@@YAXXZ
text$di	SEGMENT
??__Erobo_rocket2@@YAXXZ PROC				; `dynamic initializer for 'robo_rocket2'', COMDAT

; 481  : LINK_ENTITY_TO_CLASS( robo_rocket2, CRoboRocket2 );

	push	ebp
	mov	ebp, esp
	sub	esp, 64					; 00000040H
	push	ebx
	push	esi
	push	edi
	push	OFFSET ??_C@_0N@LECDHPON@robo_rocket2?$AA@
	mov	ecx, OFFSET ?robo_rocket2@@3V?$CEntityFactory@VCRoboRocket2@@@@A
	call	??0?$CEntityFactory@VCRoboRocket2@@@@QAE@PBD@Z ; CEntityFactory<CRoboRocket2>::CEntityFactory<CRoboRocket2>
	pop	edi
	pop	esi
	pop	ebx
	mov	esp, ebp
	pop	ebp
	ret	0
??__Erobo_rocket2@@YAXXZ ENDP				; `dynamic initializer for 'robo_rocket2''
text$di	ENDS
; Function compile flags: /Odtp /ZI
; File d:\!diffusion 2020\source code 2022\client-server\server\util.h
;	COMDAT ?GetEntitySize@?$CEntityFactory@VCRoboRocket2@@@@UAEIXZ
_TEXT	SEGMENT
_this$ = -4						; size = 4
?GetEntitySize@?$CEntityFactory@VCRoboRocket2@@@@UAEIXZ PROC ; CEntityFactory<CRoboRocket2>::GetEntitySize, COMDAT
; _this$ = ecx

; 103  : 	{

	push	ebp
	mov	ebp, esp
	sub	esp, 68					; 00000044H
	push	ebx
	push	esi
	push	edi
	mov	DWORD PTR _this$[ebp], ecx

; 104  : 		return sizeof(T);

	mov	eax, 2524				; 000009dcH

; 105  : 	}

	pop	edi
	pop	esi
	pop	ebx
	mov	esp, ebp
	pop	ebp
	ret	0
?GetEntitySize@?$CEntityFactory@VCRoboRocket2@@@@UAEIXZ ENDP ; CEntityFactory<CRoboRocket2>::GetEntitySize
_TEXT	ENDS
; Function compile flags: /Odtp /ZI
; File d:\!diffusion 2020\source code 2022\client-server\server\util.h
;	COMDAT ?Destroy@?$CEntityFactory@VCRoboRocket2@@@@UAEXPAVCBaseEntity@@@Z
_TEXT	SEGMENT
_this$ = -4						; size = 4
_pEntity$ = 8						; size = 4
?Destroy@?$CEntityFactory@VCRoboRocket2@@@@UAEXPAVCBaseEntity@@@Z PROC ; CEntityFactory<CRoboRocket2>::Destroy, COMDAT
; _this$ = ecx

; 98   : 	{

	push	ebp
	mov	ebp, esp
	sub	esp, 68					; 00000044H
	push	ebx
	push	esi
	push	edi
	mov	DWORD PTR _this$[ebp], ecx

; 99   : 		UTIL_Remove( pEntity );

	mov	eax, DWORD PTR _pEntity$[ebp]
	push	eax
	call	?UTIL_Remove@@YAXPAVCBaseEntity@@@Z	; UTIL_Remove
	add	esp, 4

; 100  : 	}

	pop	edi
	pop	esi
	pop	ebx
	mov	esp, ebp
	pop	ebp
	ret	4
?Destroy@?$CEntityFactory@VCRoboRocket2@@@@UAEXPAVCBaseEntity@@@Z ENDP ; CEntityFactory<CRoboRocket2>::Destroy
_TEXT	ENDS
; Function compile flags: /Odtp /ZI
; File d:\!diffusion 2020\source code 2022\client-server\server\util.h
;	COMDAT ?Create@?$CEntityFactory@VCRoboRocket2@@@@UAEPAVCBaseEntity@@PBDPAUentvars_s@@@Z
_TEXT	SEGMENT
_pEnt$ = -8						; size = 4
_this$ = -4						; size = 4
_pClassName$ = 8					; size = 4
_pev$ = 12						; size = 4
?Create@?$CEntityFactory@VCRoboRocket2@@@@UAEPAVCBaseEntity@@PBDPAUentvars_s@@@Z PROC ; CEntityFactory<CRoboRocket2>::Create, COMDAT
; _this$ = ecx

; 92   : 	{

	push	ebp
	mov	ebp, esp
	sub	esp, 72					; 00000048H
	push	ebx
	push	esi
	push	edi
	mov	DWORD PTR _this$[ebp], ecx

; 93   : 		T* pEnt = GetClassPtr((T*)pev, pClassName);

	mov	eax, DWORD PTR _pClassName$[ebp]
	push	eax
	mov	ecx, DWORD PTR _pev$[ebp]
	push	ecx
	call	??$GetClassPtr@VCRoboRocket2@@@@YAPAVCRoboRocket2@@PAV0@PBD@Z ; GetClassPtr<CRoboRocket2>
	add	esp, 8
	mov	DWORD PTR _pEnt$[ebp], eax

; 94   : 		return pEnt;

	mov	eax, DWORD PTR _pEnt$[ebp]

; 95   : 	}

	pop	edi
	pop	esi
	pop	ebx
	mov	esp, ebp
	pop	ebp
	ret	8
?Create@?$CEntityFactory@VCRoboRocket2@@@@UAEPAVCBaseEntity@@PBDPAUentvars_s@@@Z ENDP ; CEntityFactory<CRoboRocket2>::Create
_TEXT	ENDS
; Function compile flags: /Odtp /ZI
; File d:\!diffusion 2020\source code 2022\client-server\server\util.h
;	COMDAT ??0?$CEntityFactory@VCRoboRocket2@@@@QAE@PBD@Z
_TEXT	SEGMENT
tv76 = -72						; size = 4
_this$ = -4						; size = 4
_pClassName$ = 8					; size = 4
??0?$CEntityFactory@VCRoboRocket2@@@@QAE@PBD@Z PROC	; CEntityFactory<CRoboRocket2>::CEntityFactory<CRoboRocket2>, COMDAT
; _this$ = ecx

; 86   : 	CEntityFactory( const char *pClassName )

	push	ebp
	mov	ebp, esp
	sub	esp, 72					; 00000048H
	push	ebx
	push	esi
	push	edi
	mov	DWORD PTR _this$[ebp], ecx

; 87   : 	{

	mov	ecx, DWORD PTR _this$[ebp]
	call	??0IEntityFactory@@QAE@XZ
	mov	eax, DWORD PTR _this$[ebp]
	mov	DWORD PTR [eax], OFFSET ??_7?$CEntityFactory@VCRoboRocket2@@@@6B@

; 88   : 		EntityFactoryDictionary()->InstallFactory( this, pClassName );

	call	?EntityFactoryDictionary@@YAPAVIEntityFactoryDictionary@@XZ ; EntityFactoryDictionary
	mov	DWORD PTR tv76[ebp], eax
	mov	eax, DWORD PTR _pClassName$[ebp]
	push	eax
	mov	ecx, DWORD PTR _this$[ebp]
	push	ecx
	mov	edx, DWORD PTR tv76[ebp]
	mov	eax, DWORD PTR [edx]
	mov	ecx, DWORD PTR tv76[ebp]
	mov	edx, DWORD PTR [eax]
	call	edx

; 89   : 	}

	mov	eax, DWORD PTR _this$[ebp]
	pop	edi
	pop	esi
	pop	ebx
	mov	esp, ebp
	pop	ebp
	ret	4
??0?$CEntityFactory@VCRoboRocket2@@@@QAE@PBD@Z ENDP	; CEntityFactory<CRoboRocket2>::CEntityFactory<CRoboRocket2>
_TEXT	ENDS
; Function compile flags: /Odtp /ZI
;	COMDAT ??0CRoboRocket2@@QAE@XZ
_TEXT	SEGMENT
_this$ = -4						; size = 4
??0CRoboRocket2@@QAE@XZ PROC				; CRoboRocket2::CRoboRocket2, COMDAT
; _this$ = ecx
	push	ebp
	mov	ebp, esp
	sub	esp, 68					; 00000044H
	push	ebx
	push	esi
	push	edi
	mov	DWORD PTR _this$[ebp], ecx
	mov	ecx, DWORD PTR _this$[ebp]
	call	??0CGrenade@@QAE@XZ
	mov	eax, DWORD PTR _this$[ebp]
	mov	DWORD PTR [eax], OFFSET ??_7CRoboRocket2@@6B@
	mov	eax, DWORD PTR _this$[ebp]
	pop	edi
	pop	esi
	pop	ebx
	mov	esp, ebp
	pop	ebp
	ret	0
??0CRoboRocket2@@QAE@XZ ENDP				; CRoboRocket2::CRoboRocket2
_TEXT	ENDS
; Function compile flags: /Odtp /ZI
; File d:\!diffusion 2020\source code 2022\client-server\server\weapons\weapon_rpg.cpp
;	COMDAT ?GetDataDescMap@CRoboRocket2@@UAEPAUdatamap_s@@XZ
_TEXT	SEGMENT
_this$ = -4						; size = 4
?GetDataDescMap@CRoboRocket2@@UAEPAUdatamap_s@@XZ PROC	; CRoboRocket2::GetDataDescMap, COMDAT
; _this$ = ecx

; 483  : BEGIN_DATADESC( CRoboRocket2 )

	push	ebp
	mov	ebp, esp
	sub	esp, 68					; 00000044H
	push	ebx
	push	esi
	push	edi
	mov	DWORD PTR _this$[ebp], ecx
	mov	eax, OFFSET ?m_DataMap@CRoboRocket2@@2Udatamap_s@@A ; CRoboRocket2::m_DataMap
	pop	edi
	pop	esi
	pop	ebx
	mov	esp, ebp
	pop	ebp
	ret	0
?GetDataDescMap@CRoboRocket2@@UAEPAUdatamap_s@@XZ ENDP	; CRoboRocket2::GetDataDescMap
_TEXT	ENDS
; Function compile flags: /Odtp /ZI
; File d:\!diffusion 2020\source code 2022\client-server\server\weapons\weapon_rpg.cpp
;	COMDAT ?GetBaseMap@CRoboRocket2@@SAPAUdatamap_s@@XZ
_TEXT	SEGMENT
_pResult$ = -4						; size = 4
?GetBaseMap@CRoboRocket2@@SAPAUdatamap_s@@XZ PROC	; CRoboRocket2::GetBaseMap, COMDAT

; 483  : BEGIN_DATADESC( CRoboRocket2 )

	push	ebp
	mov	ebp, esp
	sub	esp, 68					; 00000044H
	push	ebx
	push	esi
	push	edi
	lea	eax, DWORD PTR _pResult$[ebp]
	push	eax
	push	0
	call	??$DataMapAccess@VCGrenade@@@@YAXPAVCGrenade@@PAPAUdatamap_s@@@Z ; DataMapAccess<CGrenade>
	add	esp, 8
	mov	eax, DWORD PTR _pResult$[ebp]
	pop	edi
	pop	esi
	pop	ebx
	mov	esp, ebp
	pop	ebp
	ret	0
?GetBaseMap@CRoboRocket2@@SAPAUdatamap_s@@XZ ENDP	; CRoboRocket2::GetBaseMap
_TEXT	ENDS
; Function compile flags: /Odtp /ZI
; File d:\!diffusion 2020\source code 2022\client-server\server\weapons\weapon_rpg.cpp
;	COMDAT ?OnTeleport@CRoboRocket2@@UAEXXZ
_TEXT	SEGMENT
$T1 = -80						; size = 12
_this$ = -4						; size = 4
?OnTeleport@CRoboRocket2@@UAEXXZ PROC			; CRoboRocket2::OnTeleport, COMDAT
; _this$ = ecx

; 715  : {

	push	ebp
	mov	ebp, esp
	sub	esp, 80					; 00000050H
	push	ebx
	push	esi
	push	edi
	mov	DWORD PTR _this$[ebp], ecx

; 716  : 	// re-aiming the projectile
; 717  : 	SetLocalAngles( UTIL_VecToAngles( GetLocalVelocity( ) ));

	mov	ecx, DWORD PTR _this$[ebp]
	call	?GetLocalVelocity@CBaseEntity@@QBEABVVector@@XZ ; CBaseEntity::GetLocalVelocity
	push	eax
	lea	eax, DWORD PTR $T1[ebp]
	push	eax
	call	?UTIL_VecToAngles@@YA?AVVector@@ABV1@@Z	; UTIL_VecToAngles
	add	esp, 8
	push	eax
	mov	ecx, DWORD PTR _this$[ebp]
	call	?SetLocalAngles@CBaseEntity@@QAEXABVVector@@@Z ; CBaseEntity::SetLocalAngles

; 718  : 
; 719  : 	MESSAGE_BEGIN( MSG_ALL, SVC_TEMPENTITY );

	push	0
	push	0
	push	23					; 00000017H
	push	2
	call	?MESSAGE_BEGIN@@YAXHHPBMPAUedict_s@@@Z	; MESSAGE_BEGIN
	add	esp, 16					; 00000010H

; 720  : 		WRITE_BYTE( TE_KILLBEAM );

	push	99					; 00000063H
	call	DWORD PTR ?g_engfuncs@@3Uenginefuncs_s@@A+192
	add	esp, 4

; 721  : 		WRITE_ENTITY( entindex() );

	mov	ecx, DWORD PTR _this$[ebp]
	call	?entindex@CBaseEntity@@QAEHXZ		; CBaseEntity::entindex
	push	eax
	call	DWORD PTR ?g_engfuncs@@3Uenginefuncs_s@@A+220
	add	esp, 4

; 722  : 	MESSAGE_END();

	call	DWORD PTR ?g_engfuncs@@3Uenginefuncs_s@@A+188

; 723  : 
; 724  : 	CreateTrail();

	mov	ecx, DWORD PTR _this$[ebp]
	call	?CreateTrail@CRoboRocket2@@QAEXXZ	; CRoboRocket2::CreateTrail

; 725  : }

	pop	edi
	pop	esi
	pop	ebx
	mov	esp, ebp
	pop	ebp
	ret	0
?OnTeleport@CRoboRocket2@@UAEXXZ ENDP			; CRoboRocket2::OnTeleport
_TEXT	ENDS
; Function compile flags: /Odtp /ZI
; File d:\!diffusion 2020\source code 2022\client-server\server\weapons\weapon_rpg.cpp
;	COMDAT ?CreateTrail@CRoboRocket2@@QAEXXZ
_TEXT	SEGMENT
_this$ = -4						; size = 4
?CreateTrail@CRoboRocket2@@QAEXXZ PROC			; CRoboRocket2::CreateTrail, COMDAT
; _this$ = ecx

; 678  : {

	push	ebp
	mov	ebp, esp
	sub	esp, 68					; 00000044H
	push	ebx
	push	esi
	push	edi
	mov	DWORD PTR _this$[ebp], ecx

; 679  : 	// rocket trail
; 680  : 	MESSAGE_BEGIN( MSG_BROADCAST, SVC_TEMPENTITY );

	push	0
	push	0
	push	23					; 00000017H
	push	0
	call	?MESSAGE_BEGIN@@YAXHHPBMPAUedict_s@@@Z	; MESSAGE_BEGIN
	add	esp, 16					; 00000010H

; 681  : 
; 682  : 		WRITE_BYTE( TE_BEAMFOLLOW );

	push	22					; 00000016H
	call	DWORD PTR ?g_engfuncs@@3Uenginefuncs_s@@A+192
	add	esp, 4

; 683  : 		WRITE_SHORT(entindex());	// entity

	mov	ecx, DWORD PTR _this$[ebp]
	call	?entindex@CBaseEntity@@QAEHXZ		; CBaseEntity::entindex
	push	eax
	call	DWORD PTR ?g_engfuncs@@3Uenginefuncs_s@@A+200
	add	esp, 4

; 684  : 		WRITE_SHORT(m_iTrail );	// model

	mov	eax, DWORD PTR _this$[ebp]
	mov	ecx, DWORD PTR [eax+2516]
	push	ecx
	call	DWORD PTR ?g_engfuncs@@3Uenginefuncs_s@@A+200
	add	esp, 4

; 685  : 		WRITE_BYTE( 40 ); // life

	push	40					; 00000028H
	call	DWORD PTR ?g_engfuncs@@3Uenginefuncs_s@@A+192
	add	esp, 4

; 686  : 		WRITE_BYTE( 5 );  // width

	push	5
	call	DWORD PTR ?g_engfuncs@@3Uenginefuncs_s@@A+192
	add	esp, 4

; 687  : 		WRITE_BYTE( 224 );   // r, g, b

	push	224					; 000000e0H
	call	DWORD PTR ?g_engfuncs@@3Uenginefuncs_s@@A+192
	add	esp, 4

; 688  : 		WRITE_BYTE( 224 );   // r, g, b

	push	224					; 000000e0H
	call	DWORD PTR ?g_engfuncs@@3Uenginefuncs_s@@A+192
	add	esp, 4

; 689  : 		WRITE_BYTE( 255 );   // r, g, b

	push	255					; 000000ffH
	call	DWORD PTR ?g_engfuncs@@3Uenginefuncs_s@@A+192
	add	esp, 4

; 690  : 		WRITE_BYTE( 255 );	// brightness

	push	255					; 000000ffH
	call	DWORD PTR ?g_engfuncs@@3Uenginefuncs_s@@A+192
	add	esp, 4

; 691  : 
; 692  : 	MESSAGE_END();  // move PHS/PVS data sending into here (SEND_ALL, SEND_PVS, SEND_PHS)

	call	DWORD PTR ?g_engfuncs@@3Uenginefuncs_s@@A+188

; 693  : }

	pop	edi
	pop	esi
	pop	ebx
	mov	esp, ebp
	pop	ebp
	ret	0
?CreateTrail@CRoboRocket2@@QAEXXZ ENDP			; CRoboRocket2::CreateTrail
_TEXT	ENDS
; Function compile flags: /Odtp /ZI
; File d:\!diffusion 2020\source code 2022\client-server\server\weapons\weapon_rpg.cpp
;	COMDAT ?RocketExplode@CRoboRocket2@@QAEXPAUgametrace_s@@H@Z
_TEXT	SEGMENT
tv461 = -148						; size = 8
tv292 = -144						; size = 4
$T1 = -140						; size = 12
$T2 = -128						; size = 12
_i$3 = -52						; size = 4
_sparkCount$4 = -48					; size = 4
_pEntity$ = -44						; size = 4
_pevOwner$ = -40					; size = 4
_sndentindex$ = -36					; size = 4
_spritescale$ = -32					; size = 4
_iContents$ = -28					; size = 4
_absOrigin$ = -24					; size = 12
_vecPlaneScale$5 = -12					; size = 4
_flRndSound$ = -8					; size = 4
_this$ = -4						; size = 4
_pTrace$ = 8						; size = 4
_bitsDamageType$ = 12					; size = 4
?RocketExplode@CRoboRocket2@@QAEXPAUgametrace_s@@H@Z PROC ; CRoboRocket2::RocketExplode, COMDAT
; _this$ = ecx

; 574  : {

	push	ebp
	mov	ebp, esp
	sub	esp, 148				; 00000094H
	push	ebx
	push	esi
	push	edi
	mov	DWORD PTR _this$[ebp], ecx

; 575  : 	float		flRndSound;// sound randomizer
; 576  : 
; 577  : 	pev->model = iStringNull;//invisible

	mov	eax, DWORD PTR _this$[ebp]
	mov	ecx, DWORD PTR [eax+4]
	mov	DWORD PTR [ecx+184], 0

; 578  : 	pev->solid = SOLID_NOT;// intangible

	mov	eax, DWORD PTR _this$[ebp]
	mov	ecx, DWORD PTR [eax+4]
	mov	DWORD PTR [ecx+268], 0

; 579  : 
; 580  : 	pev->takedamage = DAMAGE_NO;

	mov	eax, DWORD PTR _this$[ebp]
	mov	ecx, DWORD PTR [eax+4]
	xorps	xmm0, xmm0
	movss	DWORD PTR [ecx+364], xmm0

; 581  : 
; 582  : 	// Pull out of the wall a bit
; 583  : 	if ( pTrace->flFraction != 1.0 )

	mov	eax, DWORD PTR _pTrace$[ebp]
	cvtss2sd xmm0, DWORD PTR [eax+16]
	ucomisd	xmm0, QWORD PTR __real@3ff0000000000000
	lahf
	test	ah, 68					; 00000044H
	jnp	SHORT $LN7@RocketExpl

; 584  : 	{
; 585  : 		float vecPlaneScale = (pev->dmg - 24) * 0.6f;

	mov	eax, DWORD PTR _this$[ebp]
	mov	ecx, DWORD PTR [eax+4]
	movss	xmm0, DWORD PTR [ecx+480]
	subss	xmm0, DWORD PTR __real@41c00000
	mulss	xmm0, DWORD PTR __real@3f19999a
	movss	DWORD PTR _vecPlaneScale$5[ebp], xmm0

; 586  : 		if( vecPlaneScale < 1 )

	movss	xmm0, DWORD PTR __real@3f800000
	comiss	xmm0, DWORD PTR _vecPlaneScale$5[ebp]
	jbe	SHORT $LN8@RocketExpl

; 587  : 			vecPlaneScale = 1;

	movss	xmm0, DWORD PTR __real@3f800000
	movss	DWORD PTR _vecPlaneScale$5[ebp], xmm0
$LN8@RocketExpl:

; 588  : 		SetAbsOrigin( pTrace->vecEndPos + (pTrace->vecPlaneNormal * vecPlaneScale ));

	push	ecx
	movss	xmm0, DWORD PTR _vecPlaneScale$5[ebp]
	movss	DWORD PTR [esp], xmm0
	lea	eax, DWORD PTR $T2[ebp]
	push	eax
	mov	ecx, DWORD PTR _pTrace$[ebp]
	add	ecx, 36					; 00000024H
	call	??DVector@@QBE?AV0@M@Z			; Vector::operator*
	push	eax
	lea	ecx, DWORD PTR $T1[ebp]
	push	ecx
	mov	ecx, DWORD PTR _pTrace$[ebp]
	add	ecx, 20					; 00000014H
	call	??HVector@@QBE?AV0@ABV0@@Z		; Vector::operator+
	push	eax
	mov	ecx, DWORD PTR _this$[ebp]
	call	?SetAbsOrigin@CBaseEntity@@QAEXABVVector@@@Z ; CBaseEntity::SetAbsOrigin
$LN7@RocketExpl:

; 589  : 	}
; 590  : 
; 591  : 	Vector absOrigin = GetAbsOrigin();

	mov	ecx, DWORD PTR _this$[ebp]
	call	?GetAbsOrigin@CBaseEntity@@QBEABVVector@@XZ ; CBaseEntity::GetAbsOrigin
	push	eax
	lea	ecx, DWORD PTR _absOrigin$[ebp]
	call	??0Vector@@QAE@ABV0@@Z			; Vector::Vector

; 592  : 
; 593  : 	int iContents = UTIL_PointContents ( absOrigin );

	lea	eax, DWORD PTR _absOrigin$[ebp]
	push	eax
	call	?UTIL_PointContents@@YAHABVVector@@@Z	; UTIL_PointContents
	add	esp, 4
	mov	DWORD PTR _iContents$[ebp], eax

; 594  : 	
; 595  : 	MESSAGE_BEGIN( MSG_PAS, gmsgTempEnt, absOrigin );

	push	0
	lea	ecx, DWORD PTR _absOrigin$[ebp]
	call	??BVector@@QAEPAMXZ			; Vector::operator float *
	push	eax
	mov	eax, DWORD PTR ?gmsgTempEnt@@3HA	; gmsgTempEnt
	push	eax
	push	5
	call	?MESSAGE_BEGIN@@YAXHHPBMPAUedict_s@@@Z	; MESSAGE_BEGIN
	add	esp, 16					; 00000010H

; 596  : 		WRITE_BYTE( TE_EXPLOSION );		// This makes a dynamic light and the explosion sprites/sound

	push	3
	call	DWORD PTR ?g_engfuncs@@3Uenginefuncs_s@@A+192
	add	esp, 4

; 597  : 		WRITE_COORD( absOrigin.x );	// Send to PAS because of the sound

	push	ecx
	movss	xmm0, DWORD PTR _absOrigin$[ebp]
	movss	DWORD PTR [esp], xmm0
	call	DWORD PTR ?g_engfuncs@@3Uenginefuncs_s@@A+212
	add	esp, 4

; 598  : 		WRITE_COORD( absOrigin.y );

	push	ecx
	movss	xmm0, DWORD PTR _absOrigin$[ebp+4]
	movss	DWORD PTR [esp], xmm0
	call	DWORD PTR ?g_engfuncs@@3Uenginefuncs_s@@A+212
	add	esp, 4

; 599  : 		WRITE_COORD( absOrigin.z );

	push	ecx
	movss	xmm0, DWORD PTR _absOrigin$[ebp+8]
	movss	DWORD PTR [esp], xmm0
	call	DWORD PTR ?g_engfuncs@@3Uenginefuncs_s@@A+212
	add	esp, 4

; 600  : 
; 601  : 		if( iContents != CONTENTS_WATER )

	cmp	DWORD PTR _iContents$[ebp], -3		; fffffffdH
	je	SHORT $LN9@RocketExpl

; 602  : 		{
; 603  : 			WRITE_SHORT( g_sModelIndexFireball );

	movsx	eax, WORD PTR ?g_sModelIndexFireball@@3FA ; g_sModelIndexFireball
	push	eax
	call	DWORD PTR ?g_engfuncs@@3Uenginefuncs_s@@A+200
	add	esp, 4

; 604  : 		}
; 605  : 		else

	jmp	SHORT $LN10@RocketExpl
$LN9@RocketExpl:

; 606  : 		{
; 607  : 			WRITE_SHORT( g_sModelIndexWExplosion );

	movsx	eax, WORD PTR ?g_sModelIndexWExplosion@@3FA ; g_sModelIndexWExplosion
	push	eax
	call	DWORD PTR ?g_engfuncs@@3Uenginefuncs_s@@A+200
	add	esp, 4
$LN10@RocketExpl:

; 608  : 		}
; 609  : 		int spritescale = (pev->dmg - 50) * .60;

	mov	eax, DWORD PTR _this$[ebp]
	mov	ecx, DWORD PTR [eax+4]
	movss	xmm0, DWORD PTR [ecx+480]
	subss	xmm0, DWORD PTR __real@42480000
	cvtss2sd xmm0, xmm0
	mulsd	xmm0, QWORD PTR __real@3fe3333333333333
	cvttsd2si edx, xmm0
	mov	DWORD PTR _spritescale$[ebp], edx

; 610  : 		if( spritescale < 20 )

	cmp	DWORD PTR _spritescale$[ebp], 20	; 00000014H
	jge	SHORT $LN11@RocketExpl

; 611  : 			spritescale = 20;

	mov	DWORD PTR _spritescale$[ebp], 20	; 00000014H
$LN11@RocketExpl:

; 612  : 		WRITE_BYTE( spritescale ); // scale * 10

	mov	eax, DWORD PTR _spritescale$[ebp]
	push	eax
	call	DWORD PTR ?g_engfuncs@@3Uenginefuncs_s@@A+192
	add	esp, 4

; 613  : 		WRITE_BYTE( 15  ); // framerate

	push	15					; 0000000fH
	call	DWORD PTR ?g_engfuncs@@3Uenginefuncs_s@@A+192
	add	esp, 4

; 614  : 		WRITE_BYTE( TE_EXPLFLAG_NONE );

	push	0
	call	DWORD PTR ?g_engfuncs@@3Uenginefuncs_s@@A+192
	add	esp, 4

; 615  : 	MESSAGE_END();

	call	DWORD PTR ?g_engfuncs@@3Uenginefuncs_s@@A+188

; 616  : 
; 617  : 	int sndentindex = 0;

	mov	DWORD PTR _sndentindex$[ebp], 0

; 618  : 	if( pev->owner )

	mov	eax, DWORD PTR _this$[ebp]
	mov	ecx, DWORD PTR [eax+4]
	cmp	DWORD PTR [ecx+408], 0
	je	SHORT $LN12@RocketExpl

; 619  : 		sndentindex = ENTINDEX( pev->owner );

	mov	eax, DWORD PTR _this$[ebp]
	mov	ecx, DWORD PTR [eax+4]
	mov	edx, DWORD PTR [ecx+408]
	push	edx
	call	?ENTINDEX@@YAHPAUedict_s@@@Z		; ENTINDEX
	add	esp, 4
	mov	DWORD PTR _sndentindex$[ebp], eax
$LN12@RocketExpl:

; 620  : 	CSoundEnt::InsertSound ( bits_SOUND_COMBAT, absOrigin, NORMAL_EXPLOSION_VOLUME, 3.0, sndentindex );

	mov	eax, DWORD PTR _sndentindex$[ebp]
	push	eax
	push	ecx
	movss	xmm0, DWORD PTR __real@40400000
	movss	DWORD PTR [esp], xmm0
	push	1024					; 00000400H
	lea	ecx, DWORD PTR _absOrigin$[ebp]
	push	ecx
	push	1
	call	?InsertSound@CSoundEnt@@SAXHABVVector@@HMH@Z ; CSoundEnt::InsertSound
	add	esp, 20					; 00000014H

; 621  : 	entvars_t *pevOwner;
; 622  : 	if ( pev->owner )

	mov	eax, DWORD PTR _this$[ebp]
	mov	ecx, DWORD PTR [eax+4]
	cmp	DWORD PTR [ecx+408], 0
	je	SHORT $LN13@RocketExpl

; 623  : 		pevOwner = VARS( pev->owner );

	mov	eax, DWORD PTR _this$[ebp]
	mov	ecx, DWORD PTR [eax+4]
	mov	edx, DWORD PTR [ecx+408]
	push	edx
	call	?VARS@@YAPAUentvars_s@@PAUedict_s@@@Z	; VARS
	add	esp, 4
	mov	DWORD PTR _pevOwner$[ebp], eax

; 624  : 	else

	jmp	SHORT $LN14@RocketExpl
$LN13@RocketExpl:

; 625  : 		pevOwner = NULL;

	mov	DWORD PTR _pevOwner$[ebp], 0
$LN14@RocketExpl:

; 626  : 
; 627  : 	pev->owner = NULL; // can't traceline attack owner if this is set

	mov	eax, DWORD PTR _this$[ebp]
	mov	ecx, DWORD PTR [eax+4]
	mov	DWORD PTR [ecx+408], 0

; 628  : 
; 629  : 	RadiusDamage ( pev, pevOwner, pev->dmg, pev->dmg * 10, m_iClass, bitsDamageType );

	mov	eax, DWORD PTR _bitsDamageType$[ebp]
	push	eax
	mov	ecx, DWORD PTR _this$[ebp]
	mov	edx, DWORD PTR [ecx+2464]
	push	edx
	mov	eax, DWORD PTR _this$[ebp]
	mov	ecx, DWORD PTR [eax+4]
	movss	xmm0, DWORD PTR [ecx+480]
	mulss	xmm0, DWORD PTR __real@41200000
	push	ecx
	movss	DWORD PTR [esp], xmm0
	mov	edx, DWORD PTR _this$[ebp]
	mov	eax, DWORD PTR [edx+4]
	push	ecx
	movss	xmm0, DWORD PTR [eax+480]
	movss	DWORD PTR [esp], xmm0
	mov	ecx, DWORD PTR _pevOwner$[ebp]
	push	ecx
	mov	edx, DWORD PTR _this$[ebp]
	mov	eax, DWORD PTR [edx+4]
	push	eax
	mov	ecx, DWORD PTR _this$[ebp]
	call	?RadiusDamage@CBaseMonster@@QAEXPAUentvars_s@@0MMHH@Z ; CBaseMonster::RadiusDamage

; 630  : 
; 631  : 	CBaseEntity *pEntity = CBaseEntity::Instance( pTrace->pHit );

	mov	eax, DWORD PTR _pTrace$[ebp]
	mov	ecx, DWORD PTR [eax+48]
	push	ecx
	call	?Instance@CBaseEntity@@SAPAV1@PAUedict_s@@@Z ; CBaseEntity::Instance
	add	esp, 4
	mov	DWORD PTR _pEntity$[ebp], eax

; 632  : 
; 633  : 	if ( RANDOM_FLOAT( 0 , 1 ) < 0.5 )

	push	ecx
	movss	xmm0, DWORD PTR __real@3f800000
	movss	DWORD PTR [esp], xmm0
	push	ecx
	xorps	xmm0, xmm0
	movss	DWORD PTR [esp], xmm0
	call	DWORD PTR ?g_engfuncs@@3Uenginefuncs_s@@A+364
	add	esp, 8
	fstp	QWORD PTR tv461[ebp]
	movsd	xmm0, QWORD PTR __real@3fe0000000000000
	comisd	xmm0, QWORD PTR tv461[ebp]
	jbe	SHORT $LN15@RocketExpl

; 634  : 	{
; 635  : 		if( pEntity && UTIL_GetModelType( pEntity->pev->modelindex ) == mod_studio )

	cmp	DWORD PTR _pEntity$[ebp], 0
	je	SHORT $LN17@RocketExpl
	mov	eax, DWORD PTR _pEntity$[ebp]
	mov	ecx, DWORD PTR [eax+4]
	mov	edx, DWORD PTR [ecx+180]
	push	edx
	call	?UTIL_GetModelType@@YA?AW4modtype_t@@H@Z ; UTIL_GetModelType
	add	esp, 4
	cmp	eax, 3
	jne	SHORT $LN17@RocketExpl

; 636  : 			UTIL_StudioDecalTrace( pTrace, DECAL_SCORCH1 );

	push	0
	push	11					; 0000000bH
	mov	eax, DWORD PTR _pTrace$[ebp]
	push	eax
	call	?UTIL_StudioDecalTrace@@YAXPAUgametrace_s@@HH@Z ; UTIL_StudioDecalTrace
	add	esp, 12					; 0000000cH
	jmp	SHORT $LN18@RocketExpl
$LN17@RocketExpl:

; 637  : 		else UTIL_DecalTrace( pTrace, DECAL_SCORCH1 );

	push	11					; 0000000bH
	mov	eax, DWORD PTR _pTrace$[ebp]
	push	eax
	call	?UTIL_DecalTrace@@YAXPAUgametrace_s@@H@Z ; UTIL_DecalTrace
	add	esp, 8
$LN18@RocketExpl:

; 638  : 	}
; 639  : 	else

	jmp	SHORT $LN20@RocketExpl
$LN15@RocketExpl:

; 640  : 	{
; 641  : 		if( pEntity && UTIL_GetModelType( pEntity->pev->modelindex ) == mod_studio )

	cmp	DWORD PTR _pEntity$[ebp], 0
	je	SHORT $LN19@RocketExpl
	mov	eax, DWORD PTR _pEntity$[ebp]
	mov	ecx, DWORD PTR [eax+4]
	mov	edx, DWORD PTR [ecx+180]
	push	edx
	call	?UTIL_GetModelType@@YA?AW4modtype_t@@H@Z ; UTIL_GetModelType
	add	esp, 4
	cmp	eax, 3
	jne	SHORT $LN19@RocketExpl

; 642  : 			UTIL_StudioDecalTrace( pTrace, DECAL_SCORCH2 );

	push	0
	push	12					; 0000000cH
	mov	eax, DWORD PTR _pTrace$[ebp]
	push	eax
	call	?UTIL_StudioDecalTrace@@YAXPAUgametrace_s@@HH@Z ; UTIL_StudioDecalTrace
	add	esp, 12					; 0000000cH
	jmp	SHORT $LN20@RocketExpl
$LN19@RocketExpl:

; 643  : 		else UTIL_DecalTrace( pTrace, DECAL_SCORCH2 );

	push	12					; 0000000cH
	mov	eax, DWORD PTR _pTrace$[ebp]
	push	eax
	call	?UTIL_DecalTrace@@YAXPAUgametrace_s@@H@Z ; UTIL_DecalTrace
	add	esp, 8
$LN20@RocketExpl:

; 644  : 	}
; 645  : 
; 646  : 	flRndSound = RANDOM_FLOAT( 0 , 1 );

	push	ecx
	movss	xmm0, DWORD PTR __real@3f800000
	movss	DWORD PTR [esp], xmm0
	push	ecx
	xorps	xmm0, xmm0
	movss	DWORD PTR [esp], xmm0
	call	DWORD PTR ?g_engfuncs@@3Uenginefuncs_s@@A+364
	add	esp, 8
	fstp	DWORD PTR _flRndSound$[ebp]

; 647  : 
; 648  : 	switch ( RANDOM_LONG( 0, 2 ) )

	push	2
	push	0
	call	DWORD PTR ?g_engfuncs@@3Uenginefuncs_s@@A+360
	add	esp, 8
	mov	DWORD PTR tv292[ebp], eax
	cmp	DWORD PTR tv292[ebp], 0
	je	SHORT $LN21@RocketExpl
	cmp	DWORD PTR tv292[ebp], 1
	je	SHORT $LN22@RocketExpl
	cmp	DWORD PTR tv292[ebp], 2
	je	SHORT $LN23@RocketExpl
	jmp	$LN2@RocketExpl
$LN21@RocketExpl:

; 649  : 	{
; 650  : 		case 0:	EMIT_SOUND(ENT(pev), CHAN_VOICE, "weapons/debris1.wav", 0.55, ATTN_NORM);	break;

	push	ecx
	movss	xmm0, DWORD PTR __real@3f4ccccd
	movss	DWORD PTR [esp], xmm0
	push	ecx
	movss	xmm0, DWORD PTR __real@3f0ccccd
	movss	DWORD PTR [esp], xmm0
	push	OFFSET ??_C@_0BE@JJJKAAPC@weapons?1debris1?4wav?$AA@
	push	2
	mov	eax, DWORD PTR _this$[ebp]
	mov	ecx, DWORD PTR [eax+4]
	push	ecx
	call	?ENT@@YAPAUedict_s@@PBUentvars_s@@@Z	; ENT
	add	esp, 4
	push	eax
	call	?EMIT_SOUND@@YAXPAUedict_s@@HPBDMM@Z	; EMIT_SOUND
	add	esp, 20					; 00000014H
	jmp	SHORT $LN2@RocketExpl
$LN22@RocketExpl:

; 651  : 		case 1:	EMIT_SOUND(ENT(pev), CHAN_VOICE, "weapons/debris2.wav", 0.55, ATTN_NORM);	break;

	push	ecx
	movss	xmm0, DWORD PTR __real@3f4ccccd
	movss	DWORD PTR [esp], xmm0
	push	ecx
	movss	xmm0, DWORD PTR __real@3f0ccccd
	movss	DWORD PTR [esp], xmm0
	push	OFFSET ??_C@_0BE@BPAOHCFM@weapons?1debris2?4wav?$AA@
	push	2
	mov	eax, DWORD PTR _this$[ebp]
	mov	ecx, DWORD PTR [eax+4]
	push	ecx
	call	?ENT@@YAPAUedict_s@@PBUentvars_s@@@Z	; ENT
	add	esp, 4
	push	eax
	call	?EMIT_SOUND@@YAXPAUedict_s@@HPBDMM@Z	; EMIT_SOUND
	add	esp, 20					; 00000014H
	jmp	SHORT $LN2@RocketExpl
$LN23@RocketExpl:

; 652  : 		case 2:	EMIT_SOUND(ENT(pev), CHAN_VOICE, "weapons/debris3.wav", 0.55, ATTN_NORM);	break;

	push	ecx
	movss	xmm0, DWORD PTR __real@3f4ccccd
	movss	DWORD PTR [esp], xmm0
	push	ecx
	movss	xmm0, DWORD PTR __real@3f0ccccd
	movss	DWORD PTR [esp], xmm0
	push	OFFSET ??_C@_0BE@NEFCKBPJ@weapons?1debris3?4wav?$AA@
	push	2
	mov	eax, DWORD PTR _this$[ebp]
	mov	ecx, DWORD PTR [eax+4]
	push	ecx
	call	?ENT@@YAPAUedict_s@@PBUentvars_s@@@Z	; ENT
	add	esp, 4
	push	eax
	call	?EMIT_SOUND@@YAXPAUedict_s@@HPBDMM@Z	; EMIT_SOUND
	add	esp, 20					; 00000014H
$LN2@RocketExpl:

; 653  : 	}
; 654  : 
; 655  : 	pev->effects |= EF_NODRAW;

	mov	eax, DWORD PTR _this$[ebp]
	mov	ecx, DWORD PTR [eax+4]
	mov	edx, DWORD PTR [ecx+280]
	or	edx, 128				; 00000080H
	mov	eax, DWORD PTR _this$[ebp]
	mov	ecx, DWORD PTR [eax+4]
	mov	DWORD PTR [ecx+280], edx

; 656  : 	SetThink( &CGrenade::Smoke );

	push	OFFSET ??_C@_0BB@KDDMBFAP@?$CGCGrenade?3?3Smoke?$AA@
	push	OFFSET ?Smoke@CGrenade@@QAEXXZ		; CGrenade::Smoke
	mov	ecx, DWORD PTR _this$[ebp]
	call	?ThinkSet@CBaseEntity@@QAEP81@AEXXZP81@AEXXZPAD@Z ; CBaseEntity::ThinkSet

; 657  : 	SetAbsVelocity( g_vecZero );

	push	OFFSET ?g_vecZero@@3VVector@@B		; g_vecZero
	mov	ecx, DWORD PTR _this$[ebp]
	call	?SetAbsVelocity@CBaseEntity@@QAEXABVVector@@@Z ; CBaseEntity::SetAbsVelocity

; 658  : 	pev->nextthink = gpGlobals->time + 0.3;

	mov	eax, DWORD PTR ?gpGlobals@@3PAUglobalvars_t@@A ; gpGlobals
	cvtss2sd xmm0, DWORD PTR [eax]
	addsd	xmm0, QWORD PTR __real@3fd3333333333333
	cvtsd2ss xmm0, xmm0
	mov	ecx, DWORD PTR _this$[ebp]
	mov	edx, DWORD PTR [ecx+4]
	movss	DWORD PTR [edx+260], xmm0

; 659  : 
; 660  : 	if (iContents != CONTENTS_WATER)

	cmp	DWORD PTR _iContents$[ebp], -3		; fffffffdH
	je	SHORT $LN5@RocketExpl

; 661  : 	{
; 662  : 		int sparkCount = RANDOM_LONG(0,3);

	push	3
	push	0
	call	DWORD PTR ?g_engfuncs@@3Uenginefuncs_s@@A+360
	add	esp, 8
	mov	DWORD PTR _sparkCount$4[ebp], eax

; 663  : 		for ( int i = 0; i < sparkCount; i++ )

	mov	DWORD PTR _i$3[ebp], 0
	jmp	SHORT $LN6@RocketExpl
$LN4@RocketExpl:
	mov	eax, DWORD PTR _i$3[ebp]
	add	eax, 1
	mov	DWORD PTR _i$3[ebp], eax
$LN6@RocketExpl:
	mov	eax, DWORD PTR _i$3[ebp]
	cmp	eax, DWORD PTR _sparkCount$4[ebp]
	jge	SHORT $LN5@RocketExpl

; 664  : 			Create( "spark_shower", absOrigin, pTrace->vecPlaneNormal, NULL );

	push	0
	mov	eax, DWORD PTR _pTrace$[ebp]
	add	eax, 36					; 00000024H
	push	eax
	lea	ecx, DWORD PTR _absOrigin$[ebp]
	push	ecx
	push	OFFSET ??_C@_0N@GFJBOHAK@spark_shower?$AA@
	call	?Create@CBaseEntity@@SAPAV1@PADABVVector@@1PAUedict_s@@@Z ; CBaseEntity::Create
	add	esp, 16					; 00000010H
	jmp	SHORT $LN4@RocketExpl
$LN5@RocketExpl:

; 665  : 	}
; 666  : }

	pop	edi
	pop	esi
	pop	ebx
	mov	esp, ebp
	pop	ebp
	ret	8
?RocketExplode@CRoboRocket2@@QAEXPAUgametrace_s@@H@Z ENDP ; CRoboRocket2::RocketExplode
_TEXT	ENDS
; Function compile flags: /Odtp /ZI
; File d:\!diffusion 2020\source code 2022\client-server\server\weapons\weapon_rpg.cpp
;	COMDAT ?RocketTouch@CRoboRocket2@@QAEXPAVCBaseEntity@@@Z
_TEXT	SEGMENT
$T1 = -208						; size = 12
$T2 = -196						; size = 12
$T3 = -184						; size = 12
$T4 = -172						; size = 12
$T5 = -160						; size = 12
$T6 = -148						; size = 12
_vecSpot$ = -72						; size = 12
_tr$ = -60						; size = 56
_this$ = -4						; size = 4
_pOther$ = 8						; size = 4
?RocketTouch@CRoboRocket2@@QAEXPAVCBaseEntity@@@Z PROC	; CRoboRocket2::RocketTouch, COMDAT
; _this$ = ecx

; 556  : {

	push	ebp
	mov	ebp, esp
	sub	esp, 208				; 000000d0H
	push	ebx
	push	esi
	push	edi
	mov	DWORD PTR _this$[ebp], ecx

; 557  : //	if ( m_pLauncher )
; 558  : //	{
; 559  : //		// my launcher is still around, tell it I'm dead.
; 560  : //		m_pLauncher->m_cActiveRockets--;
; 561  : //	}
; 562  : 
; 563  : 	STOP_SOUND( edict(), CHAN_VOICE, "weapons/rocket1.wav" );

	push	OFFSET ??_C@_0BE@OFLJKELP@weapons?1rocket1?4wav?$AA@
	push	2
	mov	ecx, DWORD PTR _this$[ebp]
	call	?edict@CBaseEntity@@QAEPAUedict_s@@XZ	; CBaseEntity::edict
	push	eax
	call	?STOP_SOUND@@YAXPAUedict_s@@HPBD@Z	; STOP_SOUND
	add	esp, 12					; 0000000cH

; 564  : 	TraceResult tr;

	lea	ecx, DWORD PTR _tr$[ebp]
	call	??0gametrace_s@@QAE@XZ

; 565  : 	Vector		vecSpot;// trace starts here!

	lea	ecx, DWORD PTR _vecSpot$[ebp]
	call	??0Vector@@QAE@XZ			; Vector::Vector

; 566  : 	pev->enemy = pOther->edict();

	mov	ecx, DWORD PTR _pOther$[ebp]
	call	?edict@CBaseEntity@@QAEPAUedict_s@@XZ	; CBaseEntity::edict
	mov	ecx, DWORD PTR _this$[ebp]
	mov	edx, DWORD PTR [ecx+4]
	mov	DWORD PTR [edx+400], eax

; 567  : 	vecSpot = GetAbsOrigin() - GetAbsVelocity().Normalize() * 32;

	push	ecx
	movss	xmm0, DWORD PTR __real@42000000
	movss	DWORD PTR [esp], xmm0
	lea	eax, DWORD PTR $T5[ebp]
	push	eax
	lea	ecx, DWORD PTR $T6[ebp]
	push	ecx
	mov	ecx, DWORD PTR _this$[ebp]
	call	?GetAbsVelocity@CBaseEntity@@QBEABVVector@@XZ ; CBaseEntity::GetAbsVelocity
	mov	ecx, eax
	call	?Normalize@Vector@@QBE?AV1@XZ		; Vector::Normalize
	mov	ecx, eax
	call	??DVector@@QBE?AV0@M@Z			; Vector::operator*
	push	eax
	lea	edx, DWORD PTR $T4[ebp]
	push	edx
	mov	ecx, DWORD PTR _this$[ebp]
	call	?GetAbsOrigin@CBaseEntity@@QBEABVVector@@XZ ; CBaseEntity::GetAbsOrigin
	mov	ecx, eax
	call	??GVector@@QBE?AV0@ABV0@@Z		; Vector::operator-
	mov	ecx, DWORD PTR [eax]
	mov	DWORD PTR _vecSpot$[ebp], ecx
	mov	edx, DWORD PTR [eax+4]
	mov	DWORD PTR _vecSpot$[ebp+4], edx
	mov	eax, DWORD PTR [eax+8]
	mov	DWORD PTR _vecSpot$[ebp+8], eax

; 568  : 	UTIL_TraceLine( vecSpot, vecSpot + GetAbsVelocity().Normalize() * 64, ignore_monsters, edict(), &tr );

	lea	eax, DWORD PTR _tr$[ebp]
	push	eax
	mov	ecx, DWORD PTR _this$[ebp]
	call	?edict@CBaseEntity@@QAEPAUedict_s@@XZ	; CBaseEntity::edict
	push	eax
	push	1
	push	ecx
	movss	xmm0, DWORD PTR __real@42800000
	movss	DWORD PTR [esp], xmm0
	lea	ecx, DWORD PTR $T2[ebp]
	push	ecx
	lea	edx, DWORD PTR $T3[ebp]
	push	edx
	mov	ecx, DWORD PTR _this$[ebp]
	call	?GetAbsVelocity@CBaseEntity@@QBEABVVector@@XZ ; CBaseEntity::GetAbsVelocity
	mov	ecx, eax
	call	?Normalize@Vector@@QBE?AV1@XZ		; Vector::Normalize
	mov	ecx, eax
	call	??DVector@@QBE?AV0@M@Z			; Vector::operator*
	push	eax
	lea	eax, DWORD PTR $T1[ebp]
	push	eax
	lea	ecx, DWORD PTR _vecSpot$[ebp]
	call	??HVector@@QBE?AV0@ABV0@@Z		; Vector::operator+
	push	eax
	lea	ecx, DWORD PTR _vecSpot$[ebp]
	push	ecx
	call	?UTIL_TraceLine@@YAXABVVector@@0W4IGNORE_MONSTERS@@PAUedict_s@@PAUgametrace_s@@@Z ; UTIL_TraceLine
	add	esp, 20					; 00000014H

; 569  : 	RocketExplode( &tr, DMG_BLAST );

	push	64					; 00000040H
	lea	eax, DWORD PTR _tr$[ebp]
	push	eax
	mov	ecx, DWORD PTR _this$[ebp]
	call	?RocketExplode@CRoboRocket2@@QAEXPAUgametrace_s@@H@Z ; CRoboRocket2::RocketExplode

; 570  : }

	pop	edi
	pop	esi
	pop	ebx
	mov	esp, ebp
	pop	ebp
	ret	4
?RocketTouch@CRoboRocket2@@QAEXPAVCBaseEntity@@@Z ENDP	; CRoboRocket2::RocketTouch
_TEXT	ENDS
; Function compile flags: /Odtp /ZI
; File d:\!diffusion 2020\source code 2022\client-server\server\weapons\weapon_rpg.cpp
;	COMDAT ?IgniteThink@CRoboRocket2@@QAEXXZ
_TEXT	SEGMENT
_this$ = -4						; size = 4
?IgniteThink@CRoboRocket2@@QAEXXZ PROC			; CRoboRocket2::IgniteThink, COMDAT
; _this$ = ecx

; 696  : {

	push	ebp
	mov	ebp, esp
	sub	esp, 68					; 00000044H
	push	ebx
	push	esi
	push	edi
	mov	DWORD PTR _this$[ebp], ecx

; 697  : 	// pev->movetype = MOVETYPE_TOSS;
; 698  : 
; 699  : 	pev->movetype = MOVETYPE_FLY;

	mov	eax, DWORD PTR _this$[ebp]
	mov	ecx, DWORD PTR [eax+4]
	mov	DWORD PTR [ecx+264], 5

; 700  : 	pev->effects |= EF_LIGHT;

	mov	eax, DWORD PTR _this$[ebp]
	mov	ecx, DWORD PTR [eax+4]
	mov	edx, DWORD PTR [ecx+280]
	or	edx, 64					; 00000040H
	mov	eax, DWORD PTR _this$[ebp]
	mov	ecx, DWORD PTR [eax+4]
	mov	DWORD PTR [ecx+280], edx

; 701  : 
; 702  : 	// make rocket sound
; 703  : 	EMIT_SOUND( edict(), CHAN_VOICE, "weapons/rocket1.wav", 1, 0.5 );

	push	ecx
	movss	xmm0, DWORD PTR __real@3f000000
	movss	DWORD PTR [esp], xmm0
	push	ecx
	movss	xmm0, DWORD PTR __real@3f800000
	movss	DWORD PTR [esp], xmm0
	push	OFFSET ??_C@_0BE@OFLJKELP@weapons?1rocket1?4wav?$AA@
	push	2
	mov	ecx, DWORD PTR _this$[ebp]
	call	?edict@CBaseEntity@@QAEPAUedict_s@@XZ	; CBaseEntity::edict
	push	eax
	call	?EMIT_SOUND@@YAXPAUedict_s@@HPBDMM@Z	; EMIT_SOUND
	add	esp, 20					; 00000014H

; 704  : 
; 705  : 	CreateTrail();

	mov	ecx, DWORD PTR _this$[ebp]
	call	?CreateTrail@CRoboRocket2@@QAEXXZ	; CRoboRocket2::CreateTrail

; 706  : 
; 707  : 	m_flIgniteTime = gpGlobals->time;

	mov	eax, DWORD PTR _this$[ebp]
	mov	ecx, DWORD PTR ?gpGlobals@@3PAUglobalvars_t@@A ; gpGlobals
	mov	edx, DWORD PTR [ecx]
	mov	DWORD PTR [eax+2520], edx

; 708  : 
; 709  : 	// set to follow laser spot
; 710  : 	SetThink(&CRoboRocket2::FollowThink );

	push	OFFSET ??_C@_0BL@GIKGMOAO@?$CGCRoboRocket2?3?3FollowThink?$AA@
	push	OFFSET ?FollowThink@CRoboRocket2@@QAEXXZ ; CRoboRocket2::FollowThink
	mov	ecx, DWORD PTR _this$[ebp]
	call	?ThinkSet@CBaseEntity@@QAEP81@AEXXZP81@AEXXZPAD@Z ; CBaseEntity::ThinkSet

; 711  : 	SetNextThink( 0.1 );

	push	ecx
	movss	xmm0, DWORD PTR __real@3dcccccd
	movss	DWORD PTR [esp], xmm0
	mov	eax, DWORD PTR _this$[ebp]
	mov	edx, DWORD PTR [eax]
	mov	ecx, DWORD PTR _this$[ebp]
	mov	eax, DWORD PTR [edx+80]
	call	eax

; 712  : }

	pop	edi
	pop	esi
	pop	ebx
	mov	esp, ebp
	pop	ebp
	ret	0
?IgniteThink@CRoboRocket2@@QAEXXZ ENDP			; CRoboRocket2::IgniteThink
_TEXT	ENDS
; Function compile flags: /Odtp /ZI
; File d:\!diffusion 2020\source code 2022\client-server\server\weapons\weapon_rpg.cpp
;	COMDAT ?FollowThink@CRoboRocket2@@QAEXXZ
_TEXT	SEGMENT
tv645 = -380						; size = 4
tv611 = -380						; size = 4
tv590 = -380						; size = 4
tv178 = -380						; size = 4
$T1 = -376						; size = 12
$T2 = -364						; size = 12
$T3 = -352						; size = 12
$T4 = -340						; size = 12
$T5 = -328						; size = 12
$T6 = -316						; size = 12
$T7 = -304						; size = 12
$T8 = -284						; size = 12
$T9 = -272						; size = 12
$T10 = -260						; size = 12
$T11 = -248						; size = 12
$T12 = -236						; size = 12
$T13 = -224						; size = 12
$T14 = -212						; size = 12
$T15 = -200						; size = 12
_flSpeed$ = -124					; size = 4
_vecEnemyOrigin$16 = -120				; size = 12
_angles$ = -108						; size = 12
_tr$ = -96						; size = 56
_flDot$ = -40						; size = 4
_flMax$ = -36						; size = 4
_flDist$ = -32						; size = 4
_vecDir$ = -28						; size = 12
_vecTarget$ = -16					; size = 12
_this$ = -4						; size = 4
?FollowThink@CRoboRocket2@@QAEXXZ PROC			; CRoboRocket2::FollowThink, COMDAT
; _this$ = ecx

; 728  : {

	push	ebp
	mov	ebp, esp
	sub	esp, 380				; 0000017cH
	push	ebx
	push	esi
	push	edi
	mov	DWORD PTR _this$[ebp], ecx

; 729  : //	CBaseEntity *pOther = NULL;
; 730  : 
; 731  : 	Vector vecTarget;

	lea	ecx, DWORD PTR _vecTarget$[ebp]
	call	??0Vector@@QAE@XZ			; Vector::Vector

; 732  : 	Vector vecDir;

	lea	ecx, DWORD PTR _vecDir$[ebp]
	call	??0Vector@@QAE@XZ			; Vector::Vector

; 733  : 	
; 734  : 	float flDist, flMax, flDot;
; 735  : 	TraceResult tr;

	lea	ecx, DWORD PTR _tr$[ebp]
	call	??0gametrace_s@@QAE@XZ

; 736  : 
; 737  : 	Vector angles = GetLocalAngles();

	mov	ecx, DWORD PTR _this$[ebp]
	call	?GetLocalAngles@CBaseEntity@@QBEABVVector@@XZ ; CBaseEntity::GetLocalAngles
	push	eax
	lea	ecx, DWORD PTR _angles$[ebp]
	call	??0Vector@@QAE@ABV0@@Z			; Vector::Vector

; 738  : 	UTIL_MakeVectors( angles );

	lea	eax, DWORD PTR _angles$[ebp]
	push	eax
	call	?UTIL_MakeVectors@@YAXABVVector@@@Z	; UTIL_MakeVectors
	add	esp, 4

; 739  : 
; 740  : 	vecTarget = gpGlobals->v_forward;

	mov	eax, DWORD PTR ?gpGlobals@@3PAUglobalvars_t@@A ; gpGlobals
	add	eax, 40					; 00000028H
	mov	ecx, DWORD PTR [eax]
	mov	DWORD PTR _vecTarget$[ebp], ecx
	mov	edx, DWORD PTR [eax+4]
	mov	DWORD PTR _vecTarget$[ebp+4], edx
	mov	eax, DWORD PTR [eax+8]
	mov	DWORD PTR _vecTarget$[ebp+8], eax

; 741  : 	flMax = 4096;

	movss	xmm0, DWORD PTR __real@45800000
	movss	DWORD PTR _flMax$[ebp], xmm0

; 742  : 	
; 743  : 	if (m_hEnemy != NULL)

	mov	ecx, DWORD PTR _this$[ebp]
	add	ecx, 2000				; 000007d0H
	call	??BEHANDLE@@QAEHXZ			; EHANDLE::operator int
	test	eax, eax
	je	$LN6@FollowThin

; 744  : 	{
; 745  : 		Vector vecEnemyOrigin = m_hEnemy->GetAbsOrigin();

	mov	ecx, DWORD PTR _this$[ebp]
	add	ecx, 2000				; 000007d0H
	call	??CEHANDLE@@QAEPAVCBaseEntity@@XZ	; EHANDLE::operator->
	mov	ecx, eax
	call	?GetAbsOrigin@CBaseEntity@@QBEABVVector@@XZ ; CBaseEntity::GetAbsOrigin
	push	eax
	lea	ecx, DWORD PTR _vecEnemyOrigin$16[ebp]
	call	??0Vector@@QAE@ABV0@@Z			; Vector::Vector

; 746  : 		UTIL_TraceLine ( GetAbsOrigin(), m_hEnemy->GetAbsOrigin(), dont_ignore_monsters, ENT(pev), &tr );

	lea	eax, DWORD PTR _tr$[ebp]
	push	eax
	mov	ecx, DWORD PTR _this$[ebp]
	mov	edx, DWORD PTR [ecx+4]
	push	edx
	call	?ENT@@YAPAUedict_s@@PBUentvars_s@@@Z	; ENT
	add	esp, 4
	push	eax
	push	0
	mov	ecx, DWORD PTR _this$[ebp]
	add	ecx, 2000				; 000007d0H
	call	??CEHANDLE@@QAEPAVCBaseEntity@@XZ	; EHANDLE::operator->
	mov	ecx, eax
	call	?GetAbsOrigin@CBaseEntity@@QBEABVVector@@XZ ; CBaseEntity::GetAbsOrigin
	push	eax
	mov	ecx, DWORD PTR _this$[ebp]
	call	?GetAbsOrigin@CBaseEntity@@QBEABVVector@@XZ ; CBaseEntity::GetAbsOrigin
	push	eax
	call	?UTIL_TraceLine@@YAXABVVector@@0W4IGNORE_MONSTERS@@PAUedict_s@@PAUgametrace_s@@@Z ; UTIL_TraceLine
	add	esp, 20					; 00000014H

; 747  : 		// ALERT( at_console, "%f\n", tr.flFraction );
; 748  : 		if( tr.flFraction >= 0.90 )

	cvtss2sd xmm0, DWORD PTR _tr$[ebp+16]
	comisd	xmm0, QWORD PTR __real@3feccccccccccccd
	jb	$LN6@FollowThin

; 749  : 		{
; 750  : 			if( FBitSet( m_hEnemy->pev->flags, FL_ONGROUND ) )

	mov	ecx, DWORD PTR _this$[ebp]
	add	ecx, 2000				; 000007d0H
	call	??CEHANDLE@@QAEPAVCBaseEntity@@XZ	; EHANDLE::operator->
	mov	eax, DWORD PTR [eax+4]
	mov	ecx, DWORD PTR [eax+420]
	and	ecx, 512				; 00000200H
	je	SHORT $LN4@FollowThin

; 751  : 				vecEnemyOrigin.z -= 10; // shoot under their feet

	movss	xmm0, DWORD PTR _vecEnemyOrigin$16[ebp+8]
	subss	xmm0, DWORD PTR __real@41200000
	movss	DWORD PTR _vecEnemyOrigin$16[ebp+8], xmm0
$LN4@FollowThin:

; 752  : 
; 753  : 			if( m_hEnemy->IsPlayer() )

	mov	ecx, DWORD PTR _this$[ebp]
	add	ecx, 2000				; 000007d0H
	call	??CEHANDLE@@QAEPAVCBaseEntity@@XZ	; EHANDLE::operator->
	mov	DWORD PTR tv178[ebp], eax
	mov	eax, DWORD PTR tv178[ebp]
	mov	edx, DWORD PTR [eax]
	mov	ecx, DWORD PTR tv178[ebp]
	mov	eax, DWORD PTR [edx+220]
	call	eax
	test	eax, eax
	je	SHORT $LN5@FollowThin

; 754  : 				vecEnemyOrigin.z -= 20; // -30 in total if player is on ground

	movss	xmm0, DWORD PTR _vecEnemyOrigin$16[ebp+8]
	subss	xmm0, DWORD PTR __real@41a00000
	movss	DWORD PTR _vecEnemyOrigin$16[ebp+8], xmm0
$LN5@FollowThin:

; 755  : 			
; 756  : 			vecDir = vecEnemyOrigin - GetAbsOrigin();

	mov	ecx, DWORD PTR _this$[ebp]
	call	?GetAbsOrigin@CBaseEntity@@QBEABVVector@@XZ ; CBaseEntity::GetAbsOrigin
	push	eax
	lea	eax, DWORD PTR $T15[ebp]
	push	eax
	lea	ecx, DWORD PTR _vecEnemyOrigin$16[ebp]
	call	??GVector@@QBE?AV0@ABV0@@Z		; Vector::operator-
	mov	ecx, DWORD PTR [eax]
	mov	DWORD PTR _vecDir$[ebp], ecx
	mov	edx, DWORD PTR [eax+4]
	mov	DWORD PTR _vecDir$[ebp+4], edx
	mov	eax, DWORD PTR [eax+8]
	mov	DWORD PTR _vecDir$[ebp+8], eax

; 757  : 			flDist = vecDir.Length( );

	lea	ecx, DWORD PTR _vecDir$[ebp]
	call	?Length@Vector@@QBEMXZ			; Vector::Length
	fstp	DWORD PTR _flDist$[ebp]

; 758  : 			vecDir = vecDir.Normalize( );

	lea	eax, DWORD PTR $T14[ebp]
	push	eax
	lea	ecx, DWORD PTR _vecDir$[ebp]
	call	?Normalize@Vector@@QBE?AV1@XZ		; Vector::Normalize
	mov	ecx, DWORD PTR [eax]
	mov	DWORD PTR _vecDir$[ebp], ecx
	mov	edx, DWORD PTR [eax+4]
	mov	DWORD PTR _vecDir$[ebp+4], edx
	mov	eax, DWORD PTR [eax+8]
	mov	DWORD PTR _vecDir$[ebp+8], eax

; 759  : 			flDot = DotProduct( gpGlobals->v_forward, vecDir );

	lea	eax, DWORD PTR _vecDir$[ebp]
	push	eax
	mov	ecx, DWORD PTR ?gpGlobals@@3PAUglobalvars_t@@A ; gpGlobals
	add	ecx, 40					; 00000028H
	push	ecx
	call	?DotProduct@@YAMABVVector@@0@Z		; DotProduct
	add	esp, 8
	fstp	DWORD PTR _flDot$[ebp]

; 760  : 			if ((flDot > 0) && (flDist * (1 - flDot) < flMax))

	movss	xmm0, DWORD PTR _flDot$[ebp]
	comiss	xmm0, DWORD PTR __real@00000000
	jbe	SHORT $LN6@FollowThin
	movss	xmm0, DWORD PTR __real@3f800000
	subss	xmm0, DWORD PTR _flDot$[ebp]
	mulss	xmm0, DWORD PTR _flDist$[ebp]
	movss	xmm1, DWORD PTR _flMax$[ebp]
	comiss	xmm1, xmm0
	jbe	SHORT $LN6@FollowThin

; 761  : 			{
; 762  : 				flMax = flDist * (1 - flDot);

	movss	xmm0, DWORD PTR __real@3f800000
	subss	xmm0, DWORD PTR _flDot$[ebp]
	mulss	xmm0, DWORD PTR _flDist$[ebp]
	movss	DWORD PTR _flMax$[ebp], xmm0

; 763  : 				vecTarget = vecDir;

	mov	eax, DWORD PTR _vecDir$[ebp]
	mov	DWORD PTR _vecTarget$[ebp], eax
	mov	ecx, DWORD PTR _vecDir$[ebp+4]
	mov	DWORD PTR _vecTarget$[ebp+4], ecx
	mov	edx, DWORD PTR _vecDir$[ebp+8]
	mov	DWORD PTR _vecTarget$[ebp+8], edx
$LN6@FollowThin:

; 764  : 			}
; 765  : 		}
; 766  : 	}
; 767  : 
; 768  : 	SetLocalAngles( UTIL_VecToAngles( vecTarget ));

	lea	eax, DWORD PTR _vecTarget$[ebp]
	push	eax
	lea	ecx, DWORD PTR $T13[ebp]
	push	ecx
	call	?UTIL_VecToAngles@@YA?AVVector@@ABV1@@Z	; UTIL_VecToAngles
	add	esp, 8
	push	eax
	mov	ecx, DWORD PTR _this$[ebp]
	call	?SetLocalAngles@CBaseEntity@@QAEXABVVector@@@Z ; CBaseEntity::SetLocalAngles

; 769  : 
; 770  : 	// this acceleration and turning math is totally wrong, but it seems to respond well so don't change it.
; 771  : 	float flSpeed = GetLocalVelocity().Length();

	mov	ecx, DWORD PTR _this$[ebp]
	call	?GetLocalVelocity@CBaseEntity@@QBEABVVector@@XZ ; CBaseEntity::GetLocalVelocity
	mov	ecx, eax
	call	?Length@Vector@@QBEMXZ			; Vector::Length
	fstp	DWORD PTR _flSpeed$[ebp]

; 772  : 
; 773  : 	if( gpGlobals->time - m_flIgniteTime < 1.0 )

	mov	eax, DWORD PTR ?gpGlobals@@3PAUglobalvars_t@@A ; gpGlobals
	mov	ecx, DWORD PTR _this$[ebp]
	movss	xmm0, DWORD PTR [eax]
	subss	xmm0, DWORD PTR [ecx+2520]
	cvtss2sd xmm0, xmm0
	movsd	xmm1, QWORD PTR __real@3ff0000000000000
	comisd	xmm1, xmm0
	jbe	$LN7@FollowThin

; 774  : 	{
; 775  : 		SetLocalVelocity( GetLocalVelocity() * 0.2 + vecTarget * (flSpeed * 0.8 + 400));

	cvtss2sd xmm0, DWORD PTR _flSpeed$[ebp]
	mulsd	xmm0, QWORD PTR __real@3fe999999999999a
	addsd	xmm0, QWORD PTR __real@4079000000000000
	cvtsd2ss xmm0, xmm0
	push	ecx
	movss	DWORD PTR [esp], xmm0
	lea	eax, DWORD PTR $T11[ebp]
	push	eax
	lea	ecx, DWORD PTR _vecTarget$[ebp]
	call	??DVector@@QBE?AV0@M@Z			; Vector::operator*
	push	eax
	lea	ecx, DWORD PTR $T10[ebp]
	push	ecx
	push	ecx
	movss	xmm0, DWORD PTR __real@3e4ccccd
	movss	DWORD PTR [esp], xmm0
	lea	edx, DWORD PTR $T12[ebp]
	push	edx
	mov	ecx, DWORD PTR _this$[ebp]
	call	?GetLocalVelocity@CBaseEntity@@QBEABVVector@@XZ ; CBaseEntity::GetLocalVelocity
	mov	ecx, eax
	call	??DVector@@QBE?AV0@M@Z			; Vector::operator*
	mov	ecx, eax
	call	??HVector@@QBE?AV0@ABV0@@Z		; Vector::operator+
	push	eax
	mov	ecx, DWORD PTR _this$[ebp]
	call	?SetLocalVelocity@CBaseEntity@@QAEXABVVector@@@Z ; CBaseEntity::SetLocalVelocity

; 776  : 		if (pev->waterlevel == 3)

	mov	eax, DWORD PTR _this$[ebp]
	mov	ecx, DWORD PTR [eax+4]
	cmp	DWORD PTR [ecx+448], 3
	jne	$LN9@FollowThin

; 777  : 		{
; 778  : 			// go slow underwater
; 779  : 			if( GetLocalVelocity().Length() > 300 )

	mov	ecx, DWORD PTR _this$[ebp]
	call	?GetLocalVelocity@CBaseEntity@@QBEABVVector@@XZ ; CBaseEntity::GetLocalVelocity
	mov	ecx, eax
	call	?Length@Vector@@QBEMXZ			; Vector::Length
	fstp	DWORD PTR tv590[ebp]
	movss	xmm0, DWORD PTR tv590[ebp]
	comiss	xmm0, DWORD PTR __real@43960000
	jbe	SHORT $LN11@FollowThin

; 780  : 			{
; 781  : 				SetLocalVelocity( GetLocalVelocity().Normalize() * 300 );

	push	ecx
	movss	xmm0, DWORD PTR __real@43960000
	movss	DWORD PTR [esp], xmm0
	lea	eax, DWORD PTR $T8[ebp]
	push	eax
	lea	ecx, DWORD PTR $T9[ebp]
	push	ecx
	mov	ecx, DWORD PTR _this$[ebp]
	call	?GetLocalVelocity@CBaseEntity@@QBEABVVector@@XZ ; CBaseEntity::GetLocalVelocity
	mov	ecx, eax
	call	?Normalize@Vector@@QBE?AV1@XZ		; Vector::Normalize
	mov	ecx, eax
	call	??DVector@@QBE?AV0@M@Z			; Vector::operator*
	push	eax
	mov	ecx, DWORD PTR _this$[ebp]
	call	?SetLocalVelocity@CBaseEntity@@QAEXABVVector@@@Z ; CBaseEntity::SetLocalVelocity
$LN11@FollowThin:

; 782  : 			}
; 783  : 			UTIL_BubbleTrail( GetAbsOrigin() - GetAbsVelocity() * 0.1, GetAbsOrigin(), 4 );

	push	4
	mov	ecx, DWORD PTR _this$[ebp]
	call	?GetAbsOrigin@CBaseEntity@@QBEABVVector@@XZ ; CBaseEntity::GetAbsOrigin
	sub	esp, 12					; 0000000cH
	mov	ecx, esp
	push	eax
	call	??0Vector@@QAE@ABV0@@Z			; Vector::Vector
	push	ecx
	movss	xmm0, DWORD PTR __real@3dcccccd
	movss	DWORD PTR [esp], xmm0
	lea	eax, DWORD PTR $T7[ebp]
	push	eax
	mov	ecx, DWORD PTR _this$[ebp]
	call	?GetAbsVelocity@CBaseEntity@@QBEABVVector@@XZ ; CBaseEntity::GetAbsVelocity
	mov	ecx, eax
	call	??DVector@@QBE?AV0@M@Z			; Vector::operator*
	sub	esp, 12					; 0000000cH
	mov	ecx, esp
	push	eax
	push	ecx
	mov	ecx, DWORD PTR _this$[ebp]
	call	?GetAbsOrigin@CBaseEntity@@QBEABVVector@@XZ ; CBaseEntity::GetAbsOrigin
	mov	ecx, eax
	call	??GVector@@QBE?AV0@ABV0@@Z		; Vector::operator-
	call	?UTIL_BubbleTrail@@YAXVVector@@0H@Z	; UTIL_BubbleTrail
	add	esp, 28					; 0000001cH

; 784  : 		} 
; 785  : 		else 

	jmp	SHORT $LN12@FollowThin
$LN9@FollowThin:

; 786  : 		{
; 787  : 			if( GetLocalVelocity().Length() > 2000 )

	mov	ecx, DWORD PTR _this$[ebp]
	call	?GetLocalVelocity@CBaseEntity@@QBEABVVector@@XZ ; CBaseEntity::GetLocalVelocity
	mov	ecx, eax
	call	?Length@Vector@@QBEMXZ			; Vector::Length
	fstp	DWORD PTR tv611[ebp]
	movss	xmm0, DWORD PTR tv611[ebp]
	comiss	xmm0, DWORD PTR __real@44fa0000
	jbe	SHORT $LN12@FollowThin

; 788  : 			{
; 789  : 				SetLocalVelocity( GetLocalVelocity().Normalize() * 2000 );

	push	ecx
	movss	xmm0, DWORD PTR __real@44fa0000
	movss	DWORD PTR [esp], xmm0
	lea	eax, DWORD PTR $T5[ebp]
	push	eax
	lea	ecx, DWORD PTR $T6[ebp]
	push	ecx
	mov	ecx, DWORD PTR _this$[ebp]
	call	?GetLocalVelocity@CBaseEntity@@QBEABVVector@@XZ ; CBaseEntity::GetLocalVelocity
	mov	ecx, eax
	call	?Normalize@Vector@@QBE?AV1@XZ		; Vector::Normalize
	mov	ecx, eax
	call	??DVector@@QBE?AV0@M@Z			; Vector::operator*
	push	eax
	mov	ecx, DWORD PTR _this$[ebp]
	call	?SetLocalVelocity@CBaseEntity@@QAEXABVVector@@@Z ; CBaseEntity::SetLocalVelocity
$LN12@FollowThin:

; 790  : 			}
; 791  : 		}
; 792  : 	}
; 793  : 	else

	jmp	$LN14@FollowThin
$LN7@FollowThin:

; 794  : 	{
; 795  : 		if( pev->effects & EF_LIGHT )

	mov	eax, DWORD PTR _this$[ebp]
	mov	ecx, DWORD PTR [eax+4]
	mov	edx, DWORD PTR [ecx+280]
	and	edx, 64					; 00000040H
	je	SHORT $LN13@FollowThin

; 796  : 		{
; 797  : 			pev->effects = 0;

	mov	eax, DWORD PTR _this$[ebp]
	mov	ecx, DWORD PTR [eax+4]
	mov	DWORD PTR [ecx+280], 0

; 798  : 			STOP_SOUND( ENT(pev), CHAN_VOICE, "weapons/rocket1.wav" );

	push	OFFSET ??_C@_0BE@OFLJKELP@weapons?1rocket1?4wav?$AA@
	push	2
	mov	eax, DWORD PTR _this$[ebp]
	mov	ecx, DWORD PTR [eax+4]
	push	ecx
	call	?ENT@@YAPAUedict_s@@PBUentvars_s@@@Z	; ENT
	add	esp, 4
	push	eax
	call	?STOP_SOUND@@YAXPAUedict_s@@HPBD@Z	; STOP_SOUND
	add	esp, 12					; 0000000cH
$LN13@FollowThin:

; 799  : 		}
; 800  : 
; 801  : 		SetLocalVelocity( GetLocalVelocity() * 0.2 + vecTarget * flSpeed * 0.798 );

	push	ecx
	movss	xmm0, DWORD PTR __real@3f4c49ba
	movss	DWORD PTR [esp], xmm0
	lea	eax, DWORD PTR $T2[ebp]
	push	eax
	push	ecx
	movss	xmm0, DWORD PTR _flSpeed$[ebp]
	movss	DWORD PTR [esp], xmm0
	lea	ecx, DWORD PTR $T3[ebp]
	push	ecx
	lea	ecx, DWORD PTR _vecTarget$[ebp]
	call	??DVector@@QBE?AV0@M@Z			; Vector::operator*
	mov	ecx, eax
	call	??DVector@@QBE?AV0@M@Z			; Vector::operator*
	push	eax
	lea	edx, DWORD PTR $T1[ebp]
	push	edx
	push	ecx
	movss	xmm0, DWORD PTR __real@3e4ccccd
	movss	DWORD PTR [esp], xmm0
	lea	eax, DWORD PTR $T4[ebp]
	push	eax
	mov	ecx, DWORD PTR _this$[ebp]
	call	?GetLocalVelocity@CBaseEntity@@QBEABVVector@@XZ ; CBaseEntity::GetLocalVelocity
	mov	ecx, eax
	call	??DVector@@QBE?AV0@M@Z			; Vector::operator*
	mov	ecx, eax
	call	??HVector@@QBE?AV0@ABV0@@Z		; Vector::operator+
	push	eax
	mov	ecx, DWORD PTR _this$[ebp]
	call	?SetLocalVelocity@CBaseEntity@@QAEXABVVector@@@Z ; CBaseEntity::SetLocalVelocity

; 802  : 
; 803  : 		if( pev->waterlevel == 0 && GetLocalVelocity().Length() < 1500 )

	mov	eax, DWORD PTR _this$[ebp]
	mov	ecx, DWORD PTR [eax+4]
	cmp	DWORD PTR [ecx+448], 0
	jne	SHORT $LN14@FollowThin
	mov	ecx, DWORD PTR _this$[ebp]
	call	?GetLocalVelocity@CBaseEntity@@QBEABVVector@@XZ ; CBaseEntity::GetLocalVelocity
	mov	ecx, eax
	call	?Length@Vector@@QBEMXZ			; Vector::Length
	fstp	DWORD PTR tv645[ebp]
	movss	xmm0, DWORD PTR __real@44bb8000
	comiss	xmm0, DWORD PTR tv645[ebp]
	jbe	SHORT $LN14@FollowThin

; 804  : 		{
; 805  : 			Detonate( );

	mov	ecx, DWORD PTR _this$[ebp]
	call	?Detonate@CGrenade@@QAEXXZ		; CGrenade::Detonate
$LN14@FollowThin:

; 806  : 		}
; 807  : 	}
; 808  : 	// ALERT( at_console, "%.0f\n", flSpeed );
; 809  : 
; 810  : 	SetNextThink( 0.1 );

	push	ecx
	movss	xmm0, DWORD PTR __real@3dcccccd
	movss	DWORD PTR [esp], xmm0
	mov	eax, DWORD PTR _this$[ebp]
	mov	edx, DWORD PTR [eax]
	mov	ecx, DWORD PTR _this$[ebp]
	mov	eax, DWORD PTR [edx+80]
	call	eax

; 811  : }

	pop	edi
	pop	esi
	pop	ebx
	mov	esp, ebp
	pop	ebp
	ret	0
?FollowThink@CRoboRocket2@@QAEXXZ ENDP			; CRoboRocket2::FollowThink
_TEXT	ENDS
; Function compile flags: /Odtp /ZI
; File d:\!diffusion 2020\source code 2022\client-server\server\weapons\weapon_rpg.cpp
;	COMDAT ?Precache@CRoboRocket2@@UAEXXZ
_TEXT	SEGMENT
_this$ = -4						; size = 4
?Precache@CRoboRocket2@@UAEXXZ PROC			; CRoboRocket2::Precache, COMDAT
; _this$ = ecx

; 671  : {

	push	ebp
	mov	ebp, esp
	sub	esp, 68					; 00000044H
	push	ebx
	push	esi
	push	edi
	mov	DWORD PTR _this$[ebp], ecx

; 672  : 	PRECACHE_MODEL("models/rpgrocket.mdl");

	push	OFFSET ??_C@_0BF@JALHEJDN@models?1rpgrocket?4mdl?$AA@
	call	DWORD PTR ?g_engfuncs@@3Uenginefuncs_s@@A
	add	esp, 4

; 673  : 	m_iTrail = PRECACHE_MODEL("sprites/smoke.spr");

	push	OFFSET ??_C@_0BC@DDAJIPKB@sprites?1smoke?4spr?$AA@
	call	DWORD PTR ?g_engfuncs@@3Uenginefuncs_s@@A
	add	esp, 4
	mov	ecx, DWORD PTR _this$[ebp]
	mov	DWORD PTR [ecx+2516], eax

; 674  : 	PRECACHE_SOUND ("weapons/rocket1.wav");

	push	OFFSET ??_C@_0BE@OFLJKELP@weapons?1rocket1?4wav?$AA@
	call	DWORD PTR ?g_engfuncs@@3Uenginefuncs_s@@A+4
	add	esp, 4

; 675  : }

	pop	edi
	pop	esi
	pop	ebx
	mov	esp, ebp
	pop	ebp
	ret	0
?Precache@CRoboRocket2@@UAEXXZ ENDP			; CRoboRocket2::Precache
_TEXT	ENDS
; Function compile flags: /Odtp /ZI
; File d:\!diffusion 2020\source code 2022\client-server\server\weapons\weapon_rpg.cpp
;	COMDAT ?Spawn@CRoboRocket2@@UAEXXZ
_TEXT	SEGMENT
tv263 = -120						; size = 4
$T1 = -116						; size = 12
$T2 = -104						; size = 12
$T3 = -92						; size = 12
_angles$ = -16						; size = 12
_this$ = -4						; size = 4
?Spawn@CRoboRocket2@@UAEXXZ PROC			; CRoboRocket2::Spawn, COMDAT
; _this$ = ecx

; 513  : {

	push	ebp
	mov	ebp, esp
	sub	esp, 120				; 00000078H
	push	ebx
	push	esi
	push	edi
	mov	DWORD PTR _this$[ebp], ecx

; 514  : 	Precache( );

	mov	eax, DWORD PTR _this$[ebp]
	mov	edx, DWORD PTR [eax]
	mov	ecx, DWORD PTR _this$[ebp]
	mov	eax, DWORD PTR [edx+8]
	call	eax

; 515  : 	// motor
; 516  : 	pev->movetype = MOVETYPE_BOUNCE;

	mov	eax, DWORD PTR _this$[ebp]
	mov	ecx, DWORD PTR [eax+4]
	mov	DWORD PTR [ecx+264], 10			; 0000000aH

; 517  : 	pev->solid = SOLID_BBOX;

	mov	eax, DWORD PTR _this$[ebp]
	mov	ecx, DWORD PTR [eax+4]
	mov	DWORD PTR [ecx+268], 2

; 518  : 	SetFlag(F_NOBACKCULL);

	push	262144					; 00040000H
	mov	eax, DWORD PTR _this$[ebp]
	mov	edx, DWORD PTR [eax]
	mov	ecx, DWORD PTR _this$[ebp]
	mov	eax, DWORD PTR [edx+276]
	call	eax

; 519  : 
; 520  : 	SET_MODEL(ENT(pev), "models/rpgrocket.mdl");

	push	OFFSET ??_C@_0BF@JALHEJDN@models?1rpgrocket?4mdl?$AA@
	mov	eax, DWORD PTR _this$[ebp]
	mov	ecx, DWORD PTR [eax+4]
	push	ecx
	call	?ENT@@YAPAUedict_s@@PBUentvars_s@@@Z	; ENT
	add	esp, 4
	push	eax
	call	DWORD PTR ?g_engfuncs@@3Uenginefuncs_s@@A+8
	add	esp, 8

; 521  : 	UTIL_SetSize(pev, Vector( 0, 0, 0), Vector(0, 0, 0));

	push	ecx
	xorps	xmm0, xmm0
	movss	DWORD PTR [esp], xmm0
	push	ecx
	xorps	xmm0, xmm0
	movss	DWORD PTR [esp], xmm0
	push	ecx
	xorps	xmm0, xmm0
	movss	DWORD PTR [esp], xmm0
	lea	ecx, DWORD PTR $T3[ebp]
	call	??0Vector@@QAE@MMM@Z			; Vector::Vector
	push	eax
	push	ecx
	xorps	xmm0, xmm0
	movss	DWORD PTR [esp], xmm0
	push	ecx
	xorps	xmm0, xmm0
	movss	DWORD PTR [esp], xmm0
	push	ecx
	xorps	xmm0, xmm0
	movss	DWORD PTR [esp], xmm0
	lea	ecx, DWORD PTR $T2[ebp]
	call	??0Vector@@QAE@MMM@Z			; Vector::Vector
	push	eax
	mov	eax, DWORD PTR _this$[ebp]
	mov	ecx, DWORD PTR [eax+4]
	push	ecx
	call	?UTIL_SetSize@@YAXPAUentvars_s@@ABVVector@@1@Z ; UTIL_SetSize
	add	esp, 12					; 0000000cH

; 522  : 	RelinkEntity( TRUE );

	push	0
	push	0
	push	1
	mov	ecx, DWORD PTR _this$[ebp]
	call	?RelinkEntity@CBaseEntity@@QAEXHPBVVector@@H@Z ; CBaseEntity::RelinkEntity

; 523  : 
; 524  : //	pev->classname = MAKE_STRING("rpg_rocket");
; 525  : 
; 526  : 	SetThink( &CRoboRocket2::IgniteThink );

	push	OFFSET ??_C@_0BL@DPADIFNC@?$CGCRoboRocket2?3?3IgniteThink?$AA@
	push	OFFSET ?IgniteThink@CRoboRocket2@@QAEXXZ ; CRoboRocket2::IgniteThink
	mov	ecx, DWORD PTR _this$[ebp]
	call	?ThinkSet@CBaseEntity@@QAEP81@AEXXZP81@AEXXZPAD@Z ; CBaseEntity::ThinkSet

; 527  : 	SetTouch(&CRoboRocket2::RocketTouch );

	push	OFFSET ??_C@_0BL@NJOANMDL@?$CGCRoboRocket2?3?3RocketTouch?$AA@
	push	OFFSET ?RocketTouch@CRoboRocket2@@QAEXPAVCBaseEntity@@@Z ; CRoboRocket2::RocketTouch
	mov	ecx, DWORD PTR _this$[ebp]
	call	?TouchSet@CBaseEntity@@QAEP81@AEXPAV1@@ZP81@AEX0@ZPAD@Z ; CBaseEntity::TouchSet

; 528  : 
; 529  : 	Vector angles = GetLocalAngles();

	mov	ecx, DWORD PTR _this$[ebp]
	call	?GetLocalAngles@CBaseEntity@@QBEABVVector@@XZ ; CBaseEntity::GetLocalAngles
	push	eax
	lea	ecx, DWORD PTR _angles$[ebp]
	call	??0Vector@@QAE@ABV0@@Z			; Vector::Vector

; 530  : 
; 531  : 	angles.x -= 30;

	movss	xmm0, DWORD PTR _angles$[ebp]
	subss	xmm0, DWORD PTR __real@41f00000
	movss	DWORD PTR _angles$[ebp], xmm0

; 532  : 	UTIL_MakeVectors( angles );

	lea	eax, DWORD PTR _angles$[ebp]
	push	eax
	call	?UTIL_MakeVectors@@YAXABVVector@@@Z	; UTIL_MakeVectors
	add	esp, 4

; 533  : 
; 534  : 	SetLocalVelocity( gpGlobals->v_forward * 250 );

	push	ecx
	movss	xmm0, DWORD PTR __real@437a0000
	movss	DWORD PTR [esp], xmm0
	lea	eax, DWORD PTR $T1[ebp]
	push	eax
	mov	ecx, DWORD PTR ?gpGlobals@@3PAUglobalvars_t@@A ; gpGlobals
	add	ecx, 40					; 00000028H
	call	??DVector@@QBE?AV0@M@Z			; Vector::operator*
	push	eax
	mov	ecx, DWORD PTR _this$[ebp]
	call	?SetLocalVelocity@CBaseEntity@@QAEXABVVector@@@Z ; CBaseEntity::SetLocalVelocity

; 535  : 	pev->gravity = 0.5;

	mov	eax, DWORD PTR _this$[ebp]
	mov	ecx, DWORD PTR [eax+4]
	movss	xmm0, DWORD PTR __real@3f000000
	movss	DWORD PTR [ecx+284], xmm0

; 536  : 
; 537  : 	SetNextThink( 0.4 );

	push	ecx
	movss	xmm0, DWORD PTR __real@3ecccccd
	movss	DWORD PTR [esp], xmm0
	mov	eax, DWORD PTR _this$[ebp]
	mov	edx, DWORD PTR [eax]
	mov	ecx, DWORD PTR _this$[ebp]
	mov	eax, DWORD PTR [edx+80]
	call	eax

; 538  : 
; 539  : 	if( g_iSkillLevel == SKILL_EASY )

	cmp	DWORD PTR ?g_iSkillLevel@@3HA, 1	; g_iSkillLevel
	jne	SHORT $LN2@Spawn

; 540  : 		pev->dmg = 25;

	mov	eax, DWORD PTR _this$[ebp]
	mov	ecx, DWORD PTR [eax+4]
	movss	xmm0, DWORD PTR __real@41c80000
	movss	DWORD PTR [ecx+480], xmm0
	jmp	SHORT $LN6@Spawn
$LN2@Spawn:

; 541  : 	else if( g_iSkillLevel == SKILL_MEDIUM )

	cmp	DWORD PTR ?g_iSkillLevel@@3HA, 2	; g_iSkillLevel
	jne	SHORT $LN4@Spawn

; 542  : 		pev->dmg = 40;

	mov	eax, DWORD PTR _this$[ebp]
	mov	ecx, DWORD PTR [eax+4]
	movss	xmm0, DWORD PTR __real@42200000
	movss	DWORD PTR [ecx+480], xmm0
	jmp	SHORT $LN6@Spawn
$LN4@Spawn:

; 543  : 	else if( g_iSkillLevel == SKILL_HARD )

	cmp	DWORD PTR ?g_iSkillLevel@@3HA, 3	; g_iSkillLevel
	jne	SHORT $LN6@Spawn

; 544  : 		pev->dmg = 50;

	mov	eax, DWORD PTR _this$[ebp]
	mov	ecx, DWORD PTR [eax+4]
	movss	xmm0, DWORD PTR __real@42480000
	movss	DWORD PTR [ecx+480], xmm0
$LN6@Spawn:

; 545  : 
; 546  : 	if( pev->owner )

	mov	eax, DWORD PTR _this$[ebp]
	mov	ecx, DWORD PTR [eax+4]
	cmp	DWORD PTR [ecx+408], 0
	je	SHORT $LN7@Spawn

; 547  : 	{
; 548  : 		m_hOwner = Instance( pev->owner );

	mov	eax, DWORD PTR _this$[ebp]
	mov	ecx, DWORD PTR [eax+4]
	mov	edx, DWORD PTR [ecx+408]
	push	edx
	call	?Instance@CBaseEntity@@SAPAV1@PAUedict_s@@@Z ; CBaseEntity::Instance
	add	esp, 4
	push	eax
	mov	ecx, DWORD PTR _this$[ebp]
	add	ecx, 1796				; 00000704H
	call	??4EHANDLE@@QAEPAVCBaseEntity@@PAV1@@Z	; EHANDLE::operator=

; 549  : 		m_iClass = m_hOwner->Classify();

	mov	ecx, DWORD PTR _this$[ebp]
	add	ecx, 1796				; 00000704H
	call	??CEHANDLE@@QAEPAVCBaseEntity@@XZ	; EHANDLE::operator->
	mov	DWORD PTR tv263[ebp], eax
	mov	eax, DWORD PTR tv263[ebp]
	mov	edx, DWORD PTR [eax]
	mov	ecx, DWORD PTR tv263[ebp]
	mov	eax, DWORD PTR [edx+68]
	call	eax
	mov	ecx, DWORD PTR _this$[ebp]
	mov	DWORD PTR [ecx+2464], eax
$LN7@Spawn:

; 550  : 	}
; 551  : }

	pop	edi
	pop	esi
	pop	ebx
	mov	esp, ebp
	pop	ebp
	ret	0
?Spawn@CRoboRocket2@@UAEXXZ ENDP			; CRoboRocket2::Spawn
_TEXT	ENDS
; Function compile flags: /Odtp /ZI
; File d:\!diffusion 2020\source code 2022\client-server\server\cbase.h
;	COMDAT ??$GetClassPtr@VCRpgRocket@@@@YAPAVCRpgRocket@@PAV0@@Z
_TEXT	SEGMENT
tv85 = -92						; size = 4
$T2 = -88						; size = 4
$T3 = -84						; size = 4
_pev$ = -16						; size = 4
__$EHRec$ = -12						; size = 12
_a$ = 8							; size = 4
??$GetClassPtr@VCRpgRocket@@@@YAPAVCRpgRocket@@PAV0@@Z PROC ; GetClassPtr<CRpgRocket>, COMDAT

; 1126 : {

	push	ebp
	mov	ebp, esp
	push	-1
	push	__ehhandler$??$GetClassPtr@VCRpgRocket@@@@YAPAVCRpgRocket@@PAV0@@Z
	mov	eax, DWORD PTR fs:0
	push	eax
	sub	esp, 80					; 00000050H
	push	ebx
	push	esi
	push	edi
	mov	eax, DWORD PTR ___security_cookie
	xor	eax, ebp
	push	eax
	lea	eax, DWORD PTR __$EHRec$[ebp]
	mov	DWORD PTR fs:0, eax

; 1127 : 	entvars_t *pev = (entvars_t *)a;

	mov	eax, DWORD PTR _a$[ebp]
	mov	DWORD PTR _pev$[ebp], eax

; 1128 : 
; 1129 : 	// allocate entity if necessary
; 1130 : 	if (pev == NULL)

	cmp	DWORD PTR _pev$[ebp], 0
	jne	SHORT $LN2@GetClassPt

; 1131 : 		pev = VARS(CREATE_ENTITY());

	call	DWORD PTR ?g_engfuncs@@3Uenginefuncs_s@@A+84
	push	eax
	call	?VARS@@YAPAUentvars_s@@PAUedict_s@@@Z	; VARS
	add	esp, 4
	mov	DWORD PTR _pev$[ebp], eax
$LN2@GetClassPt:

; 1132 : 
; 1133 : 	// get the private data
; 1134 : 	a = (T *)GET_PRIVATE(ENT(pev));

	mov	eax, DWORD PTR _pev$[ebp]
	push	eax
	call	?ENT@@YAPAUedict_s@@PBUentvars_s@@@Z	; ENT
	add	esp, 4
	push	eax
	call	?GET_PRIVATE@@YAPAXPAUedict_s@@@Z	; GET_PRIVATE
	add	esp, 4
	mov	DWORD PTR _a$[ebp], eax

; 1135 : 
; 1136 : 	if (a == NULL) 

	cmp	DWORD PTR _a$[ebp], 0
	jne	SHORT $LN3@GetClassPt

; 1137 : 	{
; 1138 : 		// allocate private data 
; 1139 : 		a = new(pev) T;

	mov	eax, DWORD PTR _pev$[ebp]
	push	eax
	push	2536					; 000009e8H
	call	??2CBaseEntity@@SAPAXIPAUentvars_s@@@Z	; CBaseEntity::operator new
	add	esp, 8
	mov	DWORD PTR $T2[ebp], eax
	mov	DWORD PTR __$EHRec$[ebp+8], 0
	cmp	DWORD PTR $T2[ebp], 0
	je	SHORT $LN5@GetClassPt
	mov	ecx, DWORD PTR $T2[ebp]
	call	??0CRpgRocket@@QAE@XZ
	mov	DWORD PTR tv85[ebp], eax
	jmp	SHORT $LN6@GetClassPt
$LN5@GetClassPt:
	mov	DWORD PTR tv85[ebp], 0
$LN6@GetClassPt:
	mov	ecx, DWORD PTR tv85[ebp]
	mov	DWORD PTR $T3[ebp], ecx
	mov	DWORD PTR __$EHRec$[ebp+8], -1
	mov	edx, DWORD PTR $T3[ebp]
	mov	DWORD PTR _a$[ebp], edx

; 1140 : 		a->pev = pev;

	mov	eax, DWORD PTR _a$[ebp]
	mov	ecx, DWORD PTR _pev$[ebp]
	mov	DWORD PTR [eax+4], ecx
$LN3@GetClassPt:

; 1141 : 	}
; 1142 : 	return a;

	mov	eax, DWORD PTR _a$[ebp]

; 1143 : }

	mov	ecx, DWORD PTR __$EHRec$[ebp]
	mov	DWORD PTR fs:0, ecx
	pop	ecx
	pop	edi
	pop	esi
	pop	ebx
	mov	esp, ebp
	pop	ebp
	ret	0
_TEXT	ENDS
;	COMDAT text$x
text$x	SEGMENT
__unwindfunclet$??$GetClassPtr@VCRpgRocket@@@@YAPAVCRpgRocket@@PAV0@@Z$0:
	mov	eax, DWORD PTR _pev$[ebp]
	push	eax
	mov	eax, DWORD PTR $T2[ebp]
	push	eax
	call	??3CBaseEntity@@SAXPAXPAUentvars_s@@@Z	; CBaseEntity::operator delete
	add	esp, 8
	ret	0
__ehhandler$??$GetClassPtr@VCRpgRocket@@@@YAPAVCRpgRocket@@PAV0@@Z:
	mov	edx, DWORD PTR [esp+8]
	lea	eax, DWORD PTR [edx+12]
	mov	ecx, DWORD PTR [edx-96]
	xor	ecx, eax
	call	@__security_check_cookie@4
	mov	eax, OFFSET __ehfuncinfo$??$GetClassPtr@VCRpgRocket@@@@YAPAVCRpgRocket@@PAV0@@Z
	jmp	___CxxFrameHandler3
text$x	ENDS
??$GetClassPtr@VCRpgRocket@@@@YAPAVCRpgRocket@@PAV0@@Z ENDP ; GetClassPtr<CRpgRocket>
; Function compile flags: /Odtp /ZI
;	COMDAT ??__FnameHolder@?1???$DataMapInit@VCRpgRocket@@@@YAPAUdatamap_s@@PAVCRpgRocket@@@Z@YAXXZ
text$yd	SEGMENT
??__FnameHolder@?1???$DataMapInit@VCRpgRocket@@@@YAPAUdatamap_s@@PAVCRpgRocket@@@Z@YAXXZ PROC ; `DataMapInit<CRpgRocket>'::`2'::`dynamic atexit destructor for 'nameHolder'', COMDAT
	push	ebp
	mov	ebp, esp
	sub	esp, 64					; 00000040H
	push	ebx
	push	esi
	push	edi
	mov	ecx, OFFSET ?nameHolder@?1???$DataMapInit@VCRpgRocket@@@@YAPAUdatamap_s@@PAVCRpgRocket@@@Z@4VCDatadescGeneratedNameHolder@@A
	call	??1CDatadescGeneratedNameHolder@@QAE@XZ	; CDatadescGeneratedNameHolder::~CDatadescGeneratedNameHolder
	pop	edi
	pop	esi
	pop	ebx
	mov	esp, ebp
	pop	ebp
	ret	0
??__FnameHolder@?1???$DataMapInit@VCRpgRocket@@@@YAPAUdatamap_s@@PAVCRpgRocket@@@Z@YAXXZ ENDP ; `DataMapInit<CRpgRocket>'::`2'::`dynamic atexit destructor for 'nameHolder''
text$yd	ENDS
; Function compile flags: /Odtp /ZI
; File d:\!diffusion 2020\source code 2022\client-server\server\weapons\weapon_rpg.cpp
;	COMDAT ??__Eg_DataMapHolder@CRpgRocket_DataDescInit@@YAXXZ
text$di	SEGMENT
??__Eg_DataMapHolder@CRpgRocket_DataDescInit@@YAXXZ PROC ; CRpgRocket_DataDescInit::`dynamic initializer for 'g_DataMapHolder'', COMDAT

; 116  : BEGIN_DATADESC( CRpgRocket )

	push	ebp
	mov	ebp, esp
	sub	esp, 64					; 00000040H
	push	ebx
	push	esi
	push	edi
	push	0
	call	??$DataMapInit@VCRpgRocket@@@@YAPAUdatamap_s@@PAVCRpgRocket@@@Z ; DataMapInit<CRpgRocket>
	add	esp, 4
	mov	DWORD PTR ?g_DataMapHolder@CRpgRocket_DataDescInit@@3PAUdatamap_s@@A, eax ; CRpgRocket_DataDescInit::g_DataMapHolder
	pop	edi
	pop	esi
	pop	ebx
	mov	esp, ebp
	pop	ebp
	ret	0
??__Eg_DataMapHolder@CRpgRocket_DataDescInit@@YAXXZ ENDP ; CRpgRocket_DataDescInit::`dynamic initializer for 'g_DataMapHolder''
text$di	ENDS
; Function compile flags: /Odtp /ZI
; File d:\!diffusion 2020\source code 2022\client-server\server\weapons\weapon_rpg.cpp
;	COMDAT ??$DataMapInit@VCRpgRocket@@@@YAPAUdatamap_s@@PAVCRpgRocket@@@Z
_TEXT	SEGMENT
__$EHRec$ = -12						; size = 12
___formal$ = 8						; size = 4
??$DataMapInit@VCRpgRocket@@@@YAPAUdatamap_s@@PAVCRpgRocket@@@Z PROC ; DataMapInit<CRpgRocket>, COMDAT

; 116  : BEGIN_DATADESC( CRpgRocket )

	push	ebp
	mov	ebp, esp
	push	-1
	push	__ehhandler$??$DataMapInit@VCRpgRocket@@@@YAPAUdatamap_s@@PAVCRpgRocket@@@Z
	mov	eax, DWORD PTR fs:0
	push	eax
	sub	esp, 64					; 00000040H
	push	ebx
	push	esi
	push	edi
	mov	eax, DWORD PTR ___security_cookie
	xor	eax, ebp
	push	eax
	lea	eax, DWORD PTR __$EHRec$[ebp]
	mov	DWORD PTR fs:0, eax
	mov	eax, DWORD PTR __tls_index
	mov	ecx, DWORD PTR fs:__tls_array
	mov	edx, DWORD PTR [ecx+eax*4]
	mov	eax, DWORD PTR ?$TSS0@?1???$DataMapInit@VCRpgRocket@@@@YAPAUdatamap_s@@PAVCRpgRocket@@@Z@4HA
	cmp	eax, DWORD PTR __Init_thread_epoch[edx]
	jle	SHORT $LN2@DataMapIni
	push	OFFSET ?$TSS0@?1???$DataMapInit@VCRpgRocket@@@@YAPAUdatamap_s@@PAVCRpgRocket@@@Z@4HA
	call	__Init_thread_header
	add	esp, 4
	cmp	DWORD PTR ?$TSS0@?1???$DataMapInit@VCRpgRocket@@@@YAPAUdatamap_s@@PAVCRpgRocket@@@Z@4HA, -1
	jne	SHORT $LN2@DataMapIni
	mov	DWORD PTR __$EHRec$[ebp+8], 0
	push	OFFSET ??_C@_0L@DGKMIAEI@CRpgRocket?$AA@
	mov	ecx, OFFSET ?nameHolder@?1???$DataMapInit@VCRpgRocket@@@@YAPAUdatamap_s@@PAVCRpgRocket@@@Z@4VCDatadescGeneratedNameHolder@@A
	call	??0CDatadescGeneratedNameHolder@@QAE@PBD@Z ; CDatadescGeneratedNameHolder::CDatadescGeneratedNameHolder
	push	OFFSET ??__FnameHolder@?1???$DataMapInit@VCRpgRocket@@@@YAPAUdatamap_s@@PAVCRpgRocket@@@Z@YAXXZ ; `DataMapInit<CRpgRocket>'::`2'::`dynamic atexit destructor for 'nameHolder''
	call	_atexit
	add	esp, 4
	mov	DWORD PTR __$EHRec$[ebp+8], -1
	push	OFFSET ?$TSS0@?1???$DataMapInit@VCRpgRocket@@@@YAPAUdatamap_s@@PAVCRpgRocket@@@Z@4HA
	call	__Init_thread_footer
	add	esp, 4
$LN2@DataMapIni:

; 125  : END_DATADESC()

	call	?GetBaseMap@CRpgRocket@@SAPAUdatamap_s@@XZ ; CRpgRocket::GetBaseMap
	mov	DWORD PTR ?m_DataMap@CRpgRocket@@2Udatamap_s@@A+12, eax

; 116  : BEGIN_DATADESC( CRpgRocket )

	mov	eax, DWORD PTR __tls_index
	mov	ecx, DWORD PTR fs:__tls_array
	mov	edx, DWORD PTR [ecx+eax*4]
	mov	eax, DWORD PTR ?$TSS1@?1???$DataMapInit@VCRpgRocket@@@@YAPAUdatamap_s@@PAVCRpgRocket@@@Z@4HA
	cmp	eax, DWORD PTR __Init_thread_epoch[edx]
	jle	$LN3@DataMapIni
	push	OFFSET ?$TSS1@?1???$DataMapInit@VCRpgRocket@@@@YAPAUdatamap_s@@PAVCRpgRocket@@@Z@4HA
	call	__Init_thread_header
	add	esp, 4
	cmp	DWORD PTR ?$TSS1@?1???$DataMapInit@VCRpgRocket@@@@YAPAUdatamap_s@@PAVCRpgRocket@@@Z@4HA, -1
	jne	$LN3@DataMapIni
	mov	DWORD PTR __$EHRec$[ebp+8], 1

; 117  : 	DEFINE_FIELD( m_flIgniteTime, FIELD_TIME ),
; 118  : 	DEFINE_FIELD( m_pLauncher, FIELD_CLASSPTR ),
; 119  : 	DEFINE_FUNCTION( FollowThink ),

	push	OFFSET ??_C@_0M@HFODBJCA@FollowThink?$AA@
	mov	ecx, OFFSET ?nameHolder@?1???$DataMapInit@VCRpgRocket@@@@YAPAUdatamap_s@@PAVCRpgRocket@@@Z@4VCDatadescGeneratedNameHolder@@A
	call	?GenerateName@CDatadescGeneratedNameHolder@@QAEPBDPBD@Z ; CDatadescGeneratedNameHolder::GenerateName
	mov	DWORD PTR ?dataDesc@?1???$DataMapInit@VCRpgRocket@@@@YAPAUdatamap_s@@PAVCRpgRocket@@@Z@4PAUtypedescription_s@@A+76, eax
	mov	DWORD PTR ?dataDesc@?1???$DataMapInit@VCRpgRocket@@@@YAPAUdatamap_s@@PAVCRpgRocket@@@Z@4PAUtypedescription_s@@A+80, 0
	mov	eax, 1
	mov	WORD PTR ?dataDesc@?1???$DataMapInit@VCRpgRocket@@@@YAPAUdatamap_s@@PAVCRpgRocket@@@Z@4PAUtypedescription_s@@A+84, ax
	mov	eax, 8
	mov	WORD PTR ?dataDesc@?1???$DataMapInit@VCRpgRocket@@@@YAPAUdatamap_s@@PAVCRpgRocket@@@Z@4PAUtypedescription_s@@A+86, ax
	mov	DWORD PTR ?dataDesc@?1???$DataMapInit@VCRpgRocket@@@@YAPAUdatamap_s@@PAVCRpgRocket@@@Z@4PAUtypedescription_s@@A+88, 0
	mov	DWORD PTR ?dataDesc@?1???$DataMapInit@VCRpgRocket@@@@YAPAUdatamap_s@@PAVCRpgRocket@@@Z@4PAUtypedescription_s@@A+92, OFFSET ?FollowThink@CRpgRocket@@QAEXXZ ; CRpgRocket::FollowThink

; 120  : 	DEFINE_FUNCTION( IgniteThink ),

	mov	DWORD PTR ?dataDesc@?1???$DataMapInit@VCRpgRocket@@@@YAPAUdatamap_s@@PAVCRpgRocket@@@Z@4PAUtypedescription_s@@A+96, 18 ; 00000012H
	push	OFFSET ??_C@_0M@CCEGFCPM@IgniteThink?$AA@
	mov	ecx, OFFSET ?nameHolder@?1???$DataMapInit@VCRpgRocket@@@@YAPAUdatamap_s@@PAVCRpgRocket@@@Z@4VCDatadescGeneratedNameHolder@@A
	call	?GenerateName@CDatadescGeneratedNameHolder@@QAEPBDPBD@Z ; CDatadescGeneratedNameHolder::GenerateName
	mov	DWORD PTR ?dataDesc@?1???$DataMapInit@VCRpgRocket@@@@YAPAUdatamap_s@@PAVCRpgRocket@@@Z@4PAUtypedescription_s@@A+100, eax
	mov	DWORD PTR ?dataDesc@?1???$DataMapInit@VCRpgRocket@@@@YAPAUdatamap_s@@PAVCRpgRocket@@@Z@4PAUtypedescription_s@@A+104, 0
	mov	eax, 1
	mov	WORD PTR ?dataDesc@?1???$DataMapInit@VCRpgRocket@@@@YAPAUdatamap_s@@PAVCRpgRocket@@@Z@4PAUtypedescription_s@@A+108, ax
	mov	eax, 8
	mov	WORD PTR ?dataDesc@?1???$DataMapInit@VCRpgRocket@@@@YAPAUdatamap_s@@PAVCRpgRocket@@@Z@4PAUtypedescription_s@@A+110, ax
	mov	DWORD PTR ?dataDesc@?1???$DataMapInit@VCRpgRocket@@@@YAPAUdatamap_s@@PAVCRpgRocket@@@Z@4PAUtypedescription_s@@A+112, 0
	mov	DWORD PTR ?dataDesc@?1???$DataMapInit@VCRpgRocket@@@@YAPAUdatamap_s@@PAVCRpgRocket@@@Z@4PAUtypedescription_s@@A+116, OFFSET ?IgniteThink@CRpgRocket@@QAEXXZ ; CRpgRocket::IgniteThink

; 121  : 	DEFINE_FUNCTION( RocketTouch ),

	mov	DWORD PTR ?dataDesc@?1???$DataMapInit@VCRpgRocket@@@@YAPAUdatamap_s@@PAVCRpgRocket@@@Z@4PAUtypedescription_s@@A+120, 18 ; 00000012H
	push	OFFSET ??_C@_0M@MEKFALBF@RocketTouch?$AA@
	mov	ecx, OFFSET ?nameHolder@?1???$DataMapInit@VCRpgRocket@@@@YAPAUdatamap_s@@PAVCRpgRocket@@@Z@4VCDatadescGeneratedNameHolder@@A
	call	?GenerateName@CDatadescGeneratedNameHolder@@QAEPBDPBD@Z ; CDatadescGeneratedNameHolder::GenerateName
	mov	DWORD PTR ?dataDesc@?1???$DataMapInit@VCRpgRocket@@@@YAPAUdatamap_s@@PAVCRpgRocket@@@Z@4PAUtypedescription_s@@A+124, eax
	mov	DWORD PTR ?dataDesc@?1???$DataMapInit@VCRpgRocket@@@@YAPAUdatamap_s@@PAVCRpgRocket@@@Z@4PAUtypedescription_s@@A+128, 0
	mov	eax, 1
	mov	WORD PTR ?dataDesc@?1???$DataMapInit@VCRpgRocket@@@@YAPAUdatamap_s@@PAVCRpgRocket@@@Z@4PAUtypedescription_s@@A+132, ax
	mov	eax, 8
	mov	WORD PTR ?dataDesc@?1???$DataMapInit@VCRpgRocket@@@@YAPAUdatamap_s@@PAVCRpgRocket@@@Z@4PAUtypedescription_s@@A+134, ax
	mov	DWORD PTR ?dataDesc@?1???$DataMapInit@VCRpgRocket@@@@YAPAUdatamap_s@@PAVCRpgRocket@@@Z@4PAUtypedescription_s@@A+136, 0
	mov	DWORD PTR ?dataDesc@?1???$DataMapInit@VCRpgRocket@@@@YAPAUdatamap_s@@PAVCRpgRocket@@@Z@4PAUtypedescription_s@@A+140, OFFSET ?RocketTouch@CRpgRocket@@QAEXPAVCBaseEntity@@@Z ; CRpgRocket::RocketTouch

; 122  : 	DEFINE_FIELD( m_flAugerTime, FIELD_TIME ),

	mov	DWORD PTR ?dataDesc@?1???$DataMapInit@VCRpgRocket@@@@YAPAUdatamap_s@@PAVCRpgRocket@@@Z@4PAUtypedescription_s@@A+144, 15 ; 0000000fH
	mov	DWORD PTR ?dataDesc@?1???$DataMapInit@VCRpgRocket@@@@YAPAUdatamap_s@@PAVCRpgRocket@@@Z@4PAUtypedescription_s@@A+148, OFFSET ??_C@_0O@PLAGMMCE@m_flAugerTime?$AA@
	mov	DWORD PTR ?dataDesc@?1???$DataMapInit@VCRpgRocket@@@@YAPAUdatamap_s@@PAVCRpgRocket@@@Z@4PAUtypedescription_s@@A+152, 2528 ; 000009e0H
	mov	eax, 1
	mov	WORD PTR ?dataDesc@?1???$DataMapInit@VCRpgRocket@@@@YAPAUdatamap_s@@PAVCRpgRocket@@@Z@4PAUtypedescription_s@@A+156, ax
	mov	eax, 2
	mov	WORD PTR ?dataDesc@?1???$DataMapInit@VCRpgRocket@@@@YAPAUdatamap_s@@PAVCRpgRocket@@@Z@4PAUtypedescription_s@@A+158, ax
	mov	DWORD PTR ?dataDesc@?1???$DataMapInit@VCRpgRocket@@@@YAPAUdatamap_s@@PAVCRpgRocket@@@Z@4PAUtypedescription_s@@A+160, 0
	mov	DWORD PTR ?dataDesc@?1???$DataMapInit@VCRpgRocket@@@@YAPAUdatamap_s@@PAVCRpgRocket@@@Z@4PAUtypedescription_s@@A+164, 0

; 123  : 	DEFINE_FIELD( m_flMarkDeadTime, FIELD_TIME ),

	mov	DWORD PTR ?dataDesc@?1???$DataMapInit@VCRpgRocket@@@@YAPAUdatamap_s@@PAVCRpgRocket@@@Z@4PAUtypedescription_s@@A+168, 15 ; 0000000fH
	mov	DWORD PTR ?dataDesc@?1???$DataMapInit@VCRpgRocket@@@@YAPAUdatamap_s@@PAVCRpgRocket@@@Z@4PAUtypedescription_s@@A+172, OFFSET ??_C@_0BB@GHOCPPMI@m_flMarkDeadTime?$AA@
	mov	DWORD PTR ?dataDesc@?1???$DataMapInit@VCRpgRocket@@@@YAPAUdatamap_s@@PAVCRpgRocket@@@Z@4PAUtypedescription_s@@A+176, 2532 ; 000009e4H
	mov	eax, 1
	mov	WORD PTR ?dataDesc@?1???$DataMapInit@VCRpgRocket@@@@YAPAUdatamap_s@@PAVCRpgRocket@@@Z@4PAUtypedescription_s@@A+180, ax
	mov	eax, 2
	mov	WORD PTR ?dataDesc@?1???$DataMapInit@VCRpgRocket@@@@YAPAUdatamap_s@@PAVCRpgRocket@@@Z@4PAUtypedescription_s@@A+182, ax
	mov	DWORD PTR ?dataDesc@?1???$DataMapInit@VCRpgRocket@@@@YAPAUdatamap_s@@PAVCRpgRocket@@@Z@4PAUtypedescription_s@@A+184, 0
	mov	DWORD PTR ?dataDesc@?1???$DataMapInit@VCRpgRocket@@@@YAPAUdatamap_s@@PAVCRpgRocket@@@Z@4PAUtypedescription_s@@A+188, 0

; 124  : 	DEFINE_FUNCTION( AugerThink ),

	mov	DWORD PTR ?dataDesc@?1???$DataMapInit@VCRpgRocket@@@@YAPAUdatamap_s@@PAVCRpgRocket@@@Z@4PAUtypedescription_s@@A+192, 18 ; 00000012H
	push	OFFSET ??_C@_0L@PEBDNPPC@AugerThink?$AA@
	mov	ecx, OFFSET ?nameHolder@?1???$DataMapInit@VCRpgRocket@@@@YAPAUdatamap_s@@PAVCRpgRocket@@@Z@4VCDatadescGeneratedNameHolder@@A
	call	?GenerateName@CDatadescGeneratedNameHolder@@QAEPBDPBD@Z ; CDatadescGeneratedNameHolder::GenerateName
	mov	DWORD PTR ?dataDesc@?1???$DataMapInit@VCRpgRocket@@@@YAPAUdatamap_s@@PAVCRpgRocket@@@Z@4PAUtypedescription_s@@A+196, eax
	mov	DWORD PTR ?dataDesc@?1???$DataMapInit@VCRpgRocket@@@@YAPAUdatamap_s@@PAVCRpgRocket@@@Z@4PAUtypedescription_s@@A+200, 0
	mov	eax, 1
	mov	WORD PTR ?dataDesc@?1???$DataMapInit@VCRpgRocket@@@@YAPAUdatamap_s@@PAVCRpgRocket@@@Z@4PAUtypedescription_s@@A+204, ax
	mov	eax, 8
	mov	WORD PTR ?dataDesc@?1???$DataMapInit@VCRpgRocket@@@@YAPAUdatamap_s@@PAVCRpgRocket@@@Z@4PAUtypedescription_s@@A+206, ax
	mov	DWORD PTR ?dataDesc@?1???$DataMapInit@VCRpgRocket@@@@YAPAUdatamap_s@@PAVCRpgRocket@@@Z@4PAUtypedescription_s@@A+208, 0
	mov	DWORD PTR ?dataDesc@?1???$DataMapInit@VCRpgRocket@@@@YAPAUdatamap_s@@PAVCRpgRocket@@@Z@4PAUtypedescription_s@@A+212, OFFSET ?AugerThink@CRpgRocket@@QAEXXZ ; CRpgRocket::AugerThink
	mov	DWORD PTR __$EHRec$[ebp+8], -1
	push	OFFSET ?$TSS1@?1???$DataMapInit@VCRpgRocket@@@@YAPAUdatamap_s@@PAVCRpgRocket@@@Z@4HA
	call	__Init_thread_footer
	add	esp, 4
$LN3@DataMapIni:

; 125  : END_DATADESC()

	mov	eax, 1
	test	eax, eax
	je	SHORT $LN4@DataMapIni
	mov	DWORD PTR ?m_DataMap@CRpgRocket@@2Udatamap_s@@A+4, 8
	mov	eax, 24					; 00000018H
	shl	eax, 0
	add	eax, OFFSET ?dataDesc@?1???$DataMapInit@VCRpgRocket@@@@YAPAUdatamap_s@@PAVCRpgRocket@@@Z@4PAUtypedescription_s@@A
	mov	DWORD PTR ?m_DataMap@CRpgRocket@@2Udatamap_s@@A, eax
	jmp	SHORT $LN5@DataMapIni
$LN4@DataMapIni:
	mov	DWORD PTR ?m_DataMap@CRpgRocket@@2Udatamap_s@@A+4, 1
	mov	DWORD PTR ?m_DataMap@CRpgRocket@@2Udatamap_s@@A, OFFSET ?dataDesc@?1???$DataMapInit@VCRpgRocket@@@@YAPAUdatamap_s@@PAVCRpgRocket@@@Z@4PAUtypedescription_s@@A
$LN5@DataMapIni:
	mov	eax, OFFSET ?m_DataMap@CRpgRocket@@2Udatamap_s@@A ; CRpgRocket::m_DataMap
	mov	ecx, DWORD PTR __$EHRec$[ebp]
	mov	DWORD PTR fs:0, ecx
	pop	ecx
	pop	edi
	pop	esi
	pop	ebx
	mov	esp, ebp
	pop	ebp
	ret	0
_TEXT	ENDS
;	COMDAT text$x
text$x	SEGMENT
__unwindfunclet$??$DataMapInit@VCRpgRocket@@@@YAPAUdatamap_s@@PAVCRpgRocket@@@Z$0:
	push	OFFSET ?$TSS0@?1???$DataMapInit@VCRpgRocket@@@@YAPAUdatamap_s@@PAVCRpgRocket@@@Z@4HA
	call	__Init_thread_abort
	pop	ecx
	ret	0
__unwindfunclet$??$DataMapInit@VCRpgRocket@@@@YAPAUdatamap_s@@PAVCRpgRocket@@@Z$1:
	push	OFFSET ?$TSS1@?1???$DataMapInit@VCRpgRocket@@@@YAPAUdatamap_s@@PAVCRpgRocket@@@Z@4HA
	call	__Init_thread_abort
	pop	ecx
	ret	0
__ehhandler$??$DataMapInit@VCRpgRocket@@@@YAPAUdatamap_s@@PAVCRpgRocket@@@Z:
	mov	edx, DWORD PTR [esp+8]
	lea	eax, DWORD PTR [edx+12]
	mov	ecx, DWORD PTR [edx-80]
	xor	ecx, eax
	call	@__security_check_cookie@4
	mov	eax, OFFSET __ehfuncinfo$??$DataMapInit@VCRpgRocket@@@@YAPAUdatamap_s@@PAVCRpgRocket@@@Z
	jmp	___CxxFrameHandler3
text$x	ENDS
??$DataMapInit@VCRpgRocket@@@@YAPAUdatamap_s@@PAVCRpgRocket@@@Z ENDP ; DataMapInit<CRpgRocket>
; Function compile flags: /Odtp /ZI
; File d:\!diffusion 2020\source code 2022\client-server\common\datamap.h
;	COMDAT ??$DataMapAccess@VCGrenade@@@@YAXPAVCGrenade@@PAPAUdatamap_s@@@Z
_TEXT	SEGMENT
_ignored$ = 8						; size = 4
_p$ = 12						; size = 4
??$DataMapAccess@VCGrenade@@@@YAXPAVCGrenade@@PAPAUdatamap_s@@@Z PROC ; DataMapAccess<CGrenade>, COMDAT

; 184  : {

	push	ebp
	mov	ebp, esp
	sub	esp, 64					; 00000040H
	push	ebx
	push	esi
	push	edi

; 185  : 	*p = &T::m_DataMap;

	mov	eax, DWORD PTR _p$[ebp]
	mov	DWORD PTR [eax], OFFSET ?m_DataMap@CGrenade@@2Udatamap_s@@A ; CGrenade::m_DataMap

; 186  : }

	pop	edi
	pop	esi
	pop	ebx
	mov	esp, ebp
	pop	ebp
	ret	0
??$DataMapAccess@VCGrenade@@@@YAXPAVCGrenade@@PAPAUdatamap_s@@@Z ENDP ; DataMapAccess<CGrenade>
_TEXT	ENDS
; Function compile flags: /Odtp /ZI
; File d:\!diffusion 2020\source code 2022\client-server\server\weapons\weapon_rpg.cpp
;	COMDAT ??__Erpg_rocket@@YAXXZ
text$di	SEGMENT
??__Erpg_rocket@@YAXXZ PROC				; `dynamic initializer for 'rpg_rocket'', COMDAT

; 114  : LINK_ENTITY_TO_CLASS( rpg_rocket, CRpgRocket );

	push	ebp
	mov	ebp, esp
	sub	esp, 64					; 00000040H
	push	ebx
	push	esi
	push	edi
	push	OFFSET ??_C@_0L@MFNEJJJF@rpg_rocket?$AA@
	mov	ecx, OFFSET ?rpg_rocket@@3V?$CEntityFactory@VCRpgRocket@@@@A
	call	??0?$CEntityFactory@VCRpgRocket@@@@QAE@PBD@Z ; CEntityFactory<CRpgRocket>::CEntityFactory<CRpgRocket>
	pop	edi
	pop	esi
	pop	ebx
	mov	esp, ebp
	pop	ebp
	ret	0
??__Erpg_rocket@@YAXXZ ENDP				; `dynamic initializer for 'rpg_rocket''
text$di	ENDS
; Function compile flags: /Odtp /ZI
; File d:\!diffusion 2020\source code 2022\client-server\server\util.h
;	COMDAT ?GetEntitySize@?$CEntityFactory@VCRpgRocket@@@@UAEIXZ
_TEXT	SEGMENT
_this$ = -4						; size = 4
?GetEntitySize@?$CEntityFactory@VCRpgRocket@@@@UAEIXZ PROC ; CEntityFactory<CRpgRocket>::GetEntitySize, COMDAT
; _this$ = ecx

; 103  : 	{

	push	ebp
	mov	ebp, esp
	sub	esp, 68					; 00000044H
	push	ebx
	push	esi
	push	edi
	mov	DWORD PTR _this$[ebp], ecx

; 104  : 		return sizeof(T);

	mov	eax, 2536				; 000009e8H

; 105  : 	}

	pop	edi
	pop	esi
	pop	ebx
	mov	esp, ebp
	pop	ebp
	ret	0
?GetEntitySize@?$CEntityFactory@VCRpgRocket@@@@UAEIXZ ENDP ; CEntityFactory<CRpgRocket>::GetEntitySize
_TEXT	ENDS
; Function compile flags: /Odtp /ZI
; File d:\!diffusion 2020\source code 2022\client-server\server\util.h
;	COMDAT ?Destroy@?$CEntityFactory@VCRpgRocket@@@@UAEXPAVCBaseEntity@@@Z
_TEXT	SEGMENT
_this$ = -4						; size = 4
_pEntity$ = 8						; size = 4
?Destroy@?$CEntityFactory@VCRpgRocket@@@@UAEXPAVCBaseEntity@@@Z PROC ; CEntityFactory<CRpgRocket>::Destroy, COMDAT
; _this$ = ecx

; 98   : 	{

	push	ebp
	mov	ebp, esp
	sub	esp, 68					; 00000044H
	push	ebx
	push	esi
	push	edi
	mov	DWORD PTR _this$[ebp], ecx

; 99   : 		UTIL_Remove( pEntity );

	mov	eax, DWORD PTR _pEntity$[ebp]
	push	eax
	call	?UTIL_Remove@@YAXPAVCBaseEntity@@@Z	; UTIL_Remove
	add	esp, 4

; 100  : 	}

	pop	edi
	pop	esi
	pop	ebx
	mov	esp, ebp
	pop	ebp
	ret	4
?Destroy@?$CEntityFactory@VCRpgRocket@@@@UAEXPAVCBaseEntity@@@Z ENDP ; CEntityFactory<CRpgRocket>::Destroy
_TEXT	ENDS
; Function compile flags: /Odtp /ZI
; File d:\!diffusion 2020\source code 2022\client-server\server\util.h
;	COMDAT ?Create@?$CEntityFactory@VCRpgRocket@@@@UAEPAVCBaseEntity@@PBDPAUentvars_s@@@Z
_TEXT	SEGMENT
_pEnt$ = -8						; size = 4
_this$ = -4						; size = 4
_pClassName$ = 8					; size = 4
_pev$ = 12						; size = 4
?Create@?$CEntityFactory@VCRpgRocket@@@@UAEPAVCBaseEntity@@PBDPAUentvars_s@@@Z PROC ; CEntityFactory<CRpgRocket>::Create, COMDAT
; _this$ = ecx

; 92   : 	{

	push	ebp
	mov	ebp, esp
	sub	esp, 72					; 00000048H
	push	ebx
	push	esi
	push	edi
	mov	DWORD PTR _this$[ebp], ecx

; 93   : 		T* pEnt = GetClassPtr((T*)pev, pClassName);

	mov	eax, DWORD PTR _pClassName$[ebp]
	push	eax
	mov	ecx, DWORD PTR _pev$[ebp]
	push	ecx
	call	??$GetClassPtr@VCRpgRocket@@@@YAPAVCRpgRocket@@PAV0@PBD@Z ; GetClassPtr<CRpgRocket>
	add	esp, 8
	mov	DWORD PTR _pEnt$[ebp], eax

; 94   : 		return pEnt;

	mov	eax, DWORD PTR _pEnt$[ebp]

; 95   : 	}

	pop	edi
	pop	esi
	pop	ebx
	mov	esp, ebp
	pop	ebp
	ret	8
?Create@?$CEntityFactory@VCRpgRocket@@@@UAEPAVCBaseEntity@@PBDPAUentvars_s@@@Z ENDP ; CEntityFactory<CRpgRocket>::Create
_TEXT	ENDS
; Function compile flags: /Odtp /ZI
; File d:\!diffusion 2020\source code 2022\client-server\server\util.h
;	COMDAT ??0?$CEntityFactory@VCRpgRocket@@@@QAE@PBD@Z
_TEXT	SEGMENT
tv76 = -72						; size = 4
_this$ = -4						; size = 4
_pClassName$ = 8					; size = 4
??0?$CEntityFactory@VCRpgRocket@@@@QAE@PBD@Z PROC	; CEntityFactory<CRpgRocket>::CEntityFactory<CRpgRocket>, COMDAT
; _this$ = ecx

; 86   : 	CEntityFactory( const char *pClassName )

	push	ebp
	mov	ebp, esp
	sub	esp, 72					; 00000048H
	push	ebx
	push	esi
	push	edi
	mov	DWORD PTR _this$[ebp], ecx

; 87   : 	{

	mov	ecx, DWORD PTR _this$[ebp]
	call	??0IEntityFactory@@QAE@XZ
	mov	eax, DWORD PTR _this$[ebp]
	mov	DWORD PTR [eax], OFFSET ??_7?$CEntityFactory@VCRpgRocket@@@@6B@

; 88   : 		EntityFactoryDictionary()->InstallFactory( this, pClassName );

	call	?EntityFactoryDictionary@@YAPAVIEntityFactoryDictionary@@XZ ; EntityFactoryDictionary
	mov	DWORD PTR tv76[ebp], eax
	mov	eax, DWORD PTR _pClassName$[ebp]
	push	eax
	mov	ecx, DWORD PTR _this$[ebp]
	push	ecx
	mov	edx, DWORD PTR tv76[ebp]
	mov	eax, DWORD PTR [edx]
	mov	ecx, DWORD PTR tv76[ebp]
	mov	edx, DWORD PTR [eax]
	call	edx

; 89   : 	}

	mov	eax, DWORD PTR _this$[ebp]
	pop	edi
	pop	esi
	pop	ebx
	mov	esp, ebp
	pop	ebp
	ret	4
??0?$CEntityFactory@VCRpgRocket@@@@QAE@PBD@Z ENDP	; CEntityFactory<CRpgRocket>::CEntityFactory<CRpgRocket>
_TEXT	ENDS
; Function compile flags: /Odtp /ZI
;	COMDAT ??0CRpgRocket@@QAE@XZ
_TEXT	SEGMENT
_this$ = -4						; size = 4
??0CRpgRocket@@QAE@XZ PROC				; CRpgRocket::CRpgRocket, COMDAT
; _this$ = ecx
	push	ebp
	mov	ebp, esp
	sub	esp, 68					; 00000044H
	push	ebx
	push	esi
	push	edi
	mov	DWORD PTR _this$[ebp], ecx
	mov	ecx, DWORD PTR _this$[ebp]
	call	??0CGrenade@@QAE@XZ
	mov	eax, DWORD PTR _this$[ebp]
	mov	DWORD PTR [eax], OFFSET ??_7CRpgRocket@@6B@
	mov	eax, DWORD PTR _this$[ebp]
	pop	edi
	pop	esi
	pop	ebx
	mov	esp, ebp
	pop	ebp
	ret	0
??0CRpgRocket@@QAE@XZ ENDP				; CRpgRocket::CRpgRocket
_TEXT	ENDS
; Function compile flags: /Odtp /ZI
; File d:\!diffusion 2020\source code 2022\client-server\server\weapons\weapon_rpg.cpp
;	COMDAT ?AugerThink@CRpgRocket@@QAEXXZ
_TEXT	SEGMENT
tv220 = -120						; size = 4
tv211 = -120						; size = 4
$T1 = -116						; size = 12
_vecOrg$ = -40						; size = 12
_vecForward$ = -28					; size = 12
_angles$ = -16						; size = 12
_this$ = -4						; size = 4
?AugerThink@CRpgRocket@@QAEXXZ PROC			; CRpgRocket::AugerThink, COMDAT
; _this$ = ecx

; 240  : {

	push	ebp
	mov	ebp, esp
	sub	esp, 120				; 00000078H
	push	ebx
	push	esi
	push	edi
	mov	DWORD PTR _this$[ebp], ecx

; 241  : 	// If we've augered long enough, then just explode
; 242  : 	if( m_flAugerTime < gpGlobals->time )

	mov	eax, DWORD PTR ?gpGlobals@@3PAUglobalvars_t@@A ; gpGlobals
	mov	ecx, DWORD PTR _this$[ebp]
	movss	xmm0, DWORD PTR [eax]
	comiss	xmm0, DWORD PTR [ecx+2528]
	jbe	SHORT $LN2@AugerThink

; 243  : 	{
; 244  : 		Detonate();

	mov	ecx, DWORD PTR _this$[ebp]
	call	?Detonate@CGrenade@@QAEXXZ		; CGrenade::Detonate

; 245  : 		return;

	jmp	$LN1@AugerThink
$LN2@AugerThink:

; 246  : 	}
; 247  : 
; 248  : 	if( m_flMarkDeadTime < gpGlobals->time )

	mov	eax, DWORD PTR ?gpGlobals@@3PAUglobalvars_t@@A ; gpGlobals
	mov	ecx, DWORD PTR _this$[ebp]
	movss	xmm0, DWORD PTR [eax]
	comiss	xmm0, DWORD PTR [ecx+2532]
	jbe	SHORT $LN3@AugerThink

; 249  : 		pev->deadflag = DEAD_DYING;

	mov	eax, DWORD PTR _this$[ebp]
	mov	ecx, DWORD PTR [eax+4]
	mov	DWORD PTR [ecx+368], 1
$LN3@AugerThink:

; 250  : 
; 251  : 	Vector angles = GetLocalAngles();

	mov	ecx, DWORD PTR _this$[ebp]
	call	?GetLocalAngles@CBaseEntity@@QBEABVVector@@XZ ; CBaseEntity::GetLocalAngles
	push	eax
	lea	ecx, DWORD PTR _angles$[ebp]
	call	??0Vector@@QAE@ABV0@@Z			; Vector::Vector

; 252  : 
; 253  : 	angles.y += RANDOM_FLOAT( -AUGER_YDEVIANCE, AUGER_YDEVIANCE );

	push	ecx
	movss	xmm0, DWORD PTR __real@41a00000
	movss	DWORD PTR [esp], xmm0
	push	ecx
	movss	xmm0, DWORD PTR __real@c1a00000
	movss	DWORD PTR [esp], xmm0
	call	DWORD PTR ?g_engfuncs@@3Uenginefuncs_s@@A+364
	add	esp, 8
	fstp	DWORD PTR tv211[ebp]
	movss	xmm0, DWORD PTR tv211[ebp]
	addss	xmm0, DWORD PTR _angles$[ebp+4]
	movss	DWORD PTR _angles$[ebp+4], xmm0

; 254  : 	angles.x += RANDOM_FLOAT( -AUGER_XDEVIANCEDOWN, AUGER_XDEVIANCEUP );

	push	ecx
	movss	xmm0, DWORD PTR __real@41000000
	movss	DWORD PTR [esp], xmm0
	push	ecx
	movss	xmm0, DWORD PTR __real@bf800000
	movss	DWORD PTR [esp], xmm0
	call	DWORD PTR ?g_engfuncs@@3Uenginefuncs_s@@A+364
	add	esp, 8
	fstp	DWORD PTR tv220[ebp]
	movss	xmm0, DWORD PTR tv220[ebp]
	addss	xmm0, DWORD PTR _angles$[ebp]
	movss	DWORD PTR _angles$[ebp], xmm0

; 255  : 
; 256  : 	SetLocalAngles( angles );

	lea	eax, DWORD PTR _angles$[ebp]
	push	eax
	mov	ecx, DWORD PTR _this$[ebp]
	call	?SetLocalAngles@CBaseEntity@@QAEXABVVector@@@Z ; CBaseEntity::SetLocalAngles

; 257  : 
; 258  : 	Vector vecForward;

	lea	ecx, DWORD PTR _vecForward$[ebp]
	call	??0Vector@@QAE@XZ			; Vector::Vector

; 259  : 
; 260  : 	g_engfuncs.pfnAngleVectors( GetLocalAngles(), vecForward, NULL, NULL );

	push	0
	push	0
	lea	ecx, DWORD PTR _vecForward$[ebp]
	call	??BVector@@QAEPAMXZ			; Vector::operator float *
	push	eax
	mov	ecx, DWORD PTR _this$[ebp]
	call	?GetLocalAngles@CBaseEntity@@QBEABVVector@@XZ ; CBaseEntity::GetLocalAngles
	mov	ecx, eax
	call	??BVector@@QBEPBMXZ			; Vector::operator float const *
	push	eax
	call	DWORD PTR ?g_engfuncs@@3Uenginefuncs_s@@A+80
	add	esp, 16					; 00000010H

; 261  : 
; 262  : 	SetAbsVelocity( vecForward * 1000.0f );

	push	ecx
	movss	xmm0, DWORD PTR __real@447a0000
	movss	DWORD PTR [esp], xmm0
	lea	eax, DWORD PTR $T1[ebp]
	push	eax
	lea	ecx, DWORD PTR _vecForward$[ebp]
	call	??DVector@@QBE?AV0@M@Z			; Vector::operator*
	push	eax
	mov	ecx, DWORD PTR _this$[ebp]
	call	?SetAbsVelocity@CBaseEntity@@QAEXABVVector@@@Z ; CBaseEntity::SetAbsVelocity

; 263  : 
; 264  : 	Vector vecOrg = GetAbsOrigin();

	mov	ecx, DWORD PTR _this$[ebp]
	call	?GetAbsOrigin@CBaseEntity@@QBEABVVector@@XZ ; CBaseEntity::GetAbsOrigin
	push	eax
	lea	ecx, DWORD PTR _vecOrg$[ebp]
	call	??0Vector@@QAE@ABV0@@Z			; Vector::Vector

; 265  : 	MESSAGE_BEGIN( MSG_PVS, gmsgTempEnt, vecOrg );

	push	0
	lea	ecx, DWORD PTR _vecOrg$[ebp]
	call	??BVector@@QAEPAMXZ			; Vector::operator float *
	push	eax
	mov	eax, DWORD PTR ?gmsgTempEnt@@3HA	; gmsgTempEnt
	push	eax
	push	4
	call	?MESSAGE_BEGIN@@YAXHHPBMPAUedict_s@@@Z	; MESSAGE_BEGIN
	add	esp, 16					; 00000010H

; 266  : 		WRITE_BYTE( TE_SMOKE );

	push	5
	call	DWORD PTR ?g_engfuncs@@3Uenginefuncs_s@@A+192
	add	esp, 4

; 267  : 		WRITE_COORD( vecOrg.x );

	push	ecx
	movss	xmm0, DWORD PTR _vecOrg$[ebp]
	movss	DWORD PTR [esp], xmm0
	call	DWORD PTR ?g_engfuncs@@3Uenginefuncs_s@@A+212
	add	esp, 4

; 268  : 		WRITE_COORD( vecOrg.y );

	push	ecx
	movss	xmm0, DWORD PTR _vecOrg$[ebp+4]
	movss	DWORD PTR [esp], xmm0
	call	DWORD PTR ?g_engfuncs@@3Uenginefuncs_s@@A+212
	add	esp, 4

; 269  : 		WRITE_COORD( vecOrg.z );

	push	ecx
	movss	xmm0, DWORD PTR _vecOrg$[ebp+8]
	movss	DWORD PTR [esp], xmm0
	call	DWORD PTR ?g_engfuncs@@3Uenginefuncs_s@@A+212
	add	esp, 4

; 270  : 		WRITE_SHORT( g_sModelIndexSmoke );

	movsx	eax, WORD PTR ?g_sModelIndexSmoke@@3FA	; g_sModelIndexSmoke
	push	eax
	call	DWORD PTR ?g_engfuncs@@3Uenginefuncs_s@@A+200
	add	esp, 4

; 271  : 		WRITE_BYTE( RANDOM_LONG( 30, 40 ) ); // scale x1.0

	push	40					; 00000028H
	push	30					; 0000001eH
	call	DWORD PTR ?g_engfuncs@@3Uenginefuncs_s@@A+360
	add	esp, 8
	push	eax
	call	DWORD PTR ?g_engfuncs@@3Uenginefuncs_s@@A+192
	add	esp, 4

; 272  : 		WRITE_BYTE( 0 ); // framerate

	push	0
	call	DWORD PTR ?g_engfuncs@@3Uenginefuncs_s@@A+192
	add	esp, 4

; 273  : 	MESSAGE_END();

	call	DWORD PTR ?g_engfuncs@@3Uenginefuncs_s@@A+188

; 274  : 
; 275  : 	SetNextThink( 0.05f );

	push	ecx
	movss	xmm0, DWORD PTR __real@3d4ccccd
	movss	DWORD PTR [esp], xmm0
	mov	eax, DWORD PTR _this$[ebp]
	mov	edx, DWORD PTR [eax]
	mov	ecx, DWORD PTR _this$[ebp]
	mov	eax, DWORD PTR [edx+80]
	call	eax
$LN1@AugerThink:

; 276  : }

	pop	edi
	pop	esi
	pop	ebx
	mov	esp, ebp
	pop	ebp
	ret	0
?AugerThink@CRpgRocket@@QAEXXZ ENDP			; CRpgRocket::AugerThink
_TEXT	ENDS
; Function compile flags: /Odtp /ZI
; File d:\!diffusion 2020\source code 2022\client-server\server\weapons\weapon_rpg.cpp
;	COMDAT ?ShotDown@CRpgRocket@@QAEXXZ
_TEXT	SEGMENT
_this$ = -4						; size = 4
?ShotDown@CRpgRocket@@QAEXXZ PROC			; CRpgRocket::ShotDown, COMDAT
; _this$ = ecx

; 223  : {

	push	ebp
	mov	ebp, esp
	sub	esp, 68					; 00000044H
	push	ebx
	push	esi
	push	edi
	mov	DWORD PTR _this$[ebp], ecx

; 224  : 	SetThink( &CRpgRocket::AugerThink );

	push	OFFSET ??_C@_0BI@JDBICBFF@?$CGCRpgRocket?3?3AugerThink?$AA@
	push	OFFSET ?AugerThink@CRpgRocket@@QAEXXZ	; CRpgRocket::AugerThink
	mov	ecx, DWORD PTR _this$[ebp]
	call	?ThinkSet@CBaseEntity@@QAEP81@AEXXZP81@AEXXZPAD@Z ; CBaseEntity::ThinkSet

; 225  : 	SetNextThink( 0 );

	push	ecx
	xorps	xmm0, xmm0
	movss	DWORD PTR [esp], xmm0
	mov	eax, DWORD PTR _this$[ebp]
	mov	edx, DWORD PTR [eax]
	mov	ecx, DWORD PTR _this$[ebp]
	mov	eax, DWORD PTR [edx+80]
	call	eax

; 226  : 	m_flAugerTime = gpGlobals->time + 1.5f;

	mov	eax, DWORD PTR ?gpGlobals@@3PAUglobalvars_t@@A ; gpGlobals
	movss	xmm0, DWORD PTR [eax]
	addss	xmm0, DWORD PTR __real@3fc00000
	mov	ecx, DWORD PTR _this$[ebp]
	movss	DWORD PTR [ecx+2528], xmm0

; 227  : 	m_flMarkDeadTime = gpGlobals->time + 0.75;

	mov	eax, DWORD PTR ?gpGlobals@@3PAUglobalvars_t@@A ; gpGlobals
	cvtss2sd xmm0, DWORD PTR [eax]
	addsd	xmm0, QWORD PTR __real@3fe8000000000000
	cvtsd2ss xmm0, xmm0
	mov	ecx, DWORD PTR _this$[ebp]
	movss	DWORD PTR [ecx+2532], xmm0

; 228  : 
; 229  : 	// Let the RPG start reloading immediately
; 230  : 	// diffusion - FIXME sometimes m_cActiveRockets can become -1, likely because of this. So I put the check > 0 to m_cActiveRockets in needed places.
; 231  : 	if( m_pLauncher )

	mov	eax, DWORD PTR _this$[ebp]
	cmp	DWORD PTR [eax+2524], 0
	je	SHORT $LN2@ShotDown

; 232  : 		m_pLauncher->m_cActiveRockets--;

	mov	eax, DWORD PTR _this$[ebp]
	mov	ecx, DWORD PTR [eax+2524]
	mov	edx, DWORD PTR [ecx+1928]
	sub	edx, 1
	mov	eax, DWORD PTR _this$[ebp]
	mov	ecx, DWORD PTR [eax+2524]
	mov	DWORD PTR [ecx+1928], edx
$LN2@ShotDown:

; 233  : 
; 234  : 	m_hOwner = NULL;

	push	0
	mov	ecx, DWORD PTR _this$[ebp]
	add	ecx, 1796				; 00000704H
	call	??4EHANDLE@@QAEPAVCBaseEntity@@PAV1@@Z	; EHANDLE::operator=

; 235  : 
; 236  : 	EMIT_SOUND( edict(), CHAN_BODY, "weapons/rpg_shotdown.wav", 1, 0.25 );

	push	ecx
	movss	xmm0, DWORD PTR __real@3e800000
	movss	DWORD PTR [esp], xmm0
	push	ecx
	movss	xmm0, DWORD PTR __real@3f800000
	movss	DWORD PTR [esp], xmm0
	push	OFFSET ??_C@_0BJ@NMPKGCCP@weapons?1rpg_shotdown?4wav?$AA@
	push	4
	mov	ecx, DWORD PTR _this$[ebp]
	call	?edict@CBaseEntity@@QAEPAUedict_s@@XZ	; CBaseEntity::edict
	push	eax
	call	?EMIT_SOUND@@YAXPAUedict_s@@HPBDMM@Z	; EMIT_SOUND
	add	esp, 20					; 00000014H

; 237  : }

	pop	edi
	pop	esi
	pop	ebx
	mov	esp, ebp
	pop	ebp
	ret	0
?ShotDown@CRpgRocket@@QAEXXZ ENDP			; CRpgRocket::ShotDown
_TEXT	ENDS
; Function compile flags: /Odtp /ZI
; File d:\!diffusion 2020\source code 2022\client-server\server\weapons\weapon_rpg.cpp
;	COMDAT ?TakeDamage@CRpgRocket@@UAEHPAUentvars_s@@0MH@Z
_TEXT	SEGMENT
_this$ = -4						; size = 4
_pevInflictor$ = 8					; size = 4
_pevAttacker$ = 12					; size = 4
_flDamage$ = 16						; size = 4
_bitsDamageType$ = 20					; size = 4
?TakeDamage@CRpgRocket@@UAEHPAUentvars_s@@0MH@Z PROC	; CRpgRocket::TakeDamage, COMDAT
; _this$ = ecx

; 208  : {

	push	ebp
	mov	ebp, esp
	sub	esp, 68					; 00000044H
	push	ebx
	push	esi
	push	edi
	mov	DWORD PTR _this$[ebp], ecx

; 209  : 	if( pevAttacker && !FClassnameIs( pevAttacker, "monster_apache" ) )

	cmp	DWORD PTR _pevAttacker$[ebp], 0
	je	SHORT $LN2@TakeDamage
	push	OFFSET ??_C@_0P@DFJONIEE@monster_apache?$AA@
	mov	eax, DWORD PTR _pevAttacker$[ebp]
	push	eax
	call	?FClassnameIs@@YAHPAUentvars_s@@PBD@Z	; FClassnameIs
	add	esp, 8
	test	eax, eax
	jne	SHORT $LN2@TakeDamage

; 210  : 		return 0;

	xor	eax, eax
	jmp	SHORT $LN1@TakeDamage
$LN2@TakeDamage:

; 211  : 
; 212  : 	pev->takedamage = DAMAGE_NO;

	mov	eax, DWORD PTR _this$[ebp]
	mov	ecx, DWORD PTR [eax+4]
	xorps	xmm0, xmm0
	movss	DWORD PTR [ecx+364], xmm0

; 213  : 
; 214  : 	ShotDown();

	mov	ecx, DWORD PTR _this$[ebp]
	call	?ShotDown@CRpgRocket@@QAEXXZ		; CRpgRocket::ShotDown

; 215  : 
; 216  : 	return 0;

	xor	eax, eax
$LN1@TakeDamage:

; 217  : }

	pop	edi
	pop	esi
	pop	ebx
	mov	esp, ebp
	pop	ebp
	ret	16					; 00000010H
?TakeDamage@CRpgRocket@@UAEHPAUentvars_s@@0MH@Z ENDP	; CRpgRocket::TakeDamage
_TEXT	ENDS
; Function compile flags: /Odtp /ZI
; File d:\!diffusion 2020\source code 2022\client-server\server\weapons\weapon_rpg.cpp
;	COMDAT ?GetDataDescMap@CRpgRocket@@UAEPAUdatamap_s@@XZ
_TEXT	SEGMENT
_this$ = -4						; size = 4
?GetDataDescMap@CRpgRocket@@UAEPAUdatamap_s@@XZ PROC	; CRpgRocket::GetDataDescMap, COMDAT
; _this$ = ecx

; 116  : BEGIN_DATADESC( CRpgRocket )

	push	ebp
	mov	ebp, esp
	sub	esp, 68					; 00000044H
	push	ebx
	push	esi
	push	edi
	mov	DWORD PTR _this$[ebp], ecx
	mov	eax, OFFSET ?m_DataMap@CRpgRocket@@2Udatamap_s@@A ; CRpgRocket::m_DataMap
	pop	edi
	pop	esi
	pop	ebx
	mov	esp, ebp
	pop	ebp
	ret	0
?GetDataDescMap@CRpgRocket@@UAEPAUdatamap_s@@XZ ENDP	; CRpgRocket::GetDataDescMap
_TEXT	ENDS
; Function compile flags: /Odtp /ZI
; File d:\!diffusion 2020\source code 2022\client-server\server\weapons\weapon_rpg.cpp
;	COMDAT ?GetBaseMap@CRpgRocket@@SAPAUdatamap_s@@XZ
_TEXT	SEGMENT
_pResult$ = -4						; size = 4
?GetBaseMap@CRpgRocket@@SAPAUdatamap_s@@XZ PROC		; CRpgRocket::GetBaseMap, COMDAT

; 116  : BEGIN_DATADESC( CRpgRocket )

	push	ebp
	mov	ebp, esp
	sub	esp, 68					; 00000044H
	push	ebx
	push	esi
	push	edi
	lea	eax, DWORD PTR _pResult$[ebp]
	push	eax
	push	0
	call	??$DataMapAccess@VCGrenade@@@@YAXPAVCGrenade@@PAPAUdatamap_s@@@Z ; DataMapAccess<CGrenade>
	add	esp, 8
	mov	eax, DWORD PTR _pResult$[ebp]
	pop	edi
	pop	esi
	pop	ebx
	mov	esp, ebp
	pop	ebp
	ret	0
?GetBaseMap@CRpgRocket@@SAPAUdatamap_s@@XZ ENDP		; CRpgRocket::GetBaseMap
_TEXT	ENDS
; Function compile flags: /Odtp /ZI
; File d:\!diffusion 2020\source code 2022\client-server\server\weapons\weapon_rpg.cpp
;	COMDAT ?Classify@CRpgRocket@@UAEHXZ
_TEXT	SEGMENT
_this$ = -4						; size = 4
?Classify@CRpgRocket@@UAEHXZ PROC			; CRpgRocket::Classify, COMDAT
; _this$ = ecx

; 203  : {

	push	ebp
	mov	ebp, esp
	sub	esp, 68					; 00000044H
	push	ebx
	push	esi
	push	edi
	mov	DWORD PTR _this$[ebp], ecx

; 204  : 	return m_iClass;

	mov	eax, DWORD PTR _this$[ebp]
	mov	eax, DWORD PTR [eax+2464]

; 205  : }

	pop	edi
	pop	esi
	pop	ebx
	mov	esp, ebp
	pop	ebp
	ret	0
?Classify@CRpgRocket@@UAEHXZ ENDP			; CRpgRocket::Classify
_TEXT	ENDS
; Function compile flags: /Odtp /ZI
; File d:\!diffusion 2020\source code 2022\client-server\server\weapons\weapon_rpg.cpp
;	COMDAT ?ClearEffects@CRpgRocket@@UAEXXZ
_TEXT	SEGMENT
_this$ = -4						; size = 4
?ClearEffects@CRpgRocket@@UAEXXZ PROC			; CRpgRocket::ClearEffects, COMDAT
; _this$ = ecx

; 431  : {

	push	ebp
	mov	ebp, esp
	sub	esp, 68					; 00000044H
	push	ebx
	push	esi
	push	edi
	mov	DWORD PTR _this$[ebp], ecx

; 432  : 	if( pev->effects & EF_LIGHT )

	mov	eax, DWORD PTR _this$[ebp]
	mov	ecx, DWORD PTR [eax+4]
	mov	edx, DWORD PTR [ecx+280]
	and	edx, 64					; 00000040H
	je	SHORT $LN1@ClearEffec

; 433  : 	{
; 434  : 		pev->effects = 0;

	mov	eax, DWORD PTR _this$[ebp]
	mov	ecx, DWORD PTR [eax+4]
	mov	DWORD PTR [ecx+280], 0

; 435  : 		STOP_SOUND( ENT( pev ), CHAN_VOICE, "weapons/rocket1.wav" );

	push	OFFSET ??_C@_0BE@OFLJKELP@weapons?1rocket1?4wav?$AA@
	push	2
	mov	eax, DWORD PTR _this$[ebp]
	mov	ecx, DWORD PTR [eax+4]
	push	ecx
	call	?ENT@@YAPAUedict_s@@PBUentvars_s@@@Z	; ENT
	add	esp, 4
	push	eax
	call	?STOP_SOUND@@YAXPAUedict_s@@HPBD@Z	; STOP_SOUND
	add	esp, 12					; 0000000cH
$LN1@ClearEffec:

; 436  : 	}
; 437  : }

	pop	edi
	pop	esi
	pop	ebx
	mov	esp, ebp
	pop	ebp
	ret	0
?ClearEffects@CRpgRocket@@UAEXXZ ENDP			; CRpgRocket::ClearEffects
_TEXT	ENDS
; Function compile flags: /Odtp /ZI
; File d:\!diffusion 2020\source code 2022\client-server\server\weapons\weapon_rpg.cpp
;	COMDAT ?OnTeleport@CRpgRocket@@UAEXXZ
_TEXT	SEGMENT
$T1 = -80						; size = 12
_this$ = -4						; size = 4
?OnTeleport@CRpgRocket@@UAEXXZ PROC			; CRpgRocket::OnTeleport, COMDAT
; _this$ = ecx

; 330  : {

	push	ebp
	mov	ebp, esp
	sub	esp, 80					; 00000050H
	push	ebx
	push	esi
	push	edi
	mov	DWORD PTR _this$[ebp], ecx

; 331  : 	// re-aiming the projectile
; 332  : 	SetLocalAngles( UTIL_VecToAngles( GetLocalVelocity( ) ));

	mov	ecx, DWORD PTR _this$[ebp]
	call	?GetLocalVelocity@CBaseEntity@@QBEABVVector@@XZ ; CBaseEntity::GetLocalVelocity
	push	eax
	lea	eax, DWORD PTR $T1[ebp]
	push	eax
	call	?UTIL_VecToAngles@@YA?AVVector@@ABV1@@Z	; UTIL_VecToAngles
	add	esp, 8
	push	eax
	mov	ecx, DWORD PTR _this$[ebp]
	call	?SetLocalAngles@CBaseEntity@@QAEXABVVector@@@Z ; CBaseEntity::SetLocalAngles

; 333  : 
; 334  : 	MESSAGE_BEGIN( MSG_ALL, SVC_TEMPENTITY );

	push	0
	push	0
	push	23					; 00000017H
	push	2
	call	?MESSAGE_BEGIN@@YAXHHPBMPAUedict_s@@@Z	; MESSAGE_BEGIN
	add	esp, 16					; 00000010H

; 335  : 		WRITE_BYTE( TE_KILLBEAM );

	push	99					; 00000063H
	call	DWORD PTR ?g_engfuncs@@3Uenginefuncs_s@@A+192
	add	esp, 4

; 336  : 		WRITE_ENTITY( entindex() );

	mov	ecx, DWORD PTR _this$[ebp]
	call	?entindex@CBaseEntity@@QAEHXZ		; CBaseEntity::entindex
	push	eax
	call	DWORD PTR ?g_engfuncs@@3Uenginefuncs_s@@A+220
	add	esp, 4

; 337  : 	MESSAGE_END();

	call	DWORD PTR ?g_engfuncs@@3Uenginefuncs_s@@A+188

; 338  : 
; 339  : 	CreateTrail();

	mov	ecx, DWORD PTR _this$[ebp]
	call	?CreateTrail@CRpgRocket@@QAEXXZ		; CRpgRocket::CreateTrail

; 340  : }

	pop	edi
	pop	esi
	pop	ebx
	mov	esp, ebp
	pop	ebp
	ret	0
?OnTeleport@CRpgRocket@@UAEXXZ ENDP			; CRpgRocket::OnTeleport
_TEXT	ENDS
; Function compile flags: /Odtp /ZI
; File d:\!diffusion 2020\source code 2022\client-server\server\weapons\weapon_rpg.cpp
;	COMDAT ?CreateTrail@CRpgRocket@@QAEXXZ
_TEXT	SEGMENT
_this$ = -4						; size = 4
?CreateTrail@CRpgRocket@@QAEXXZ PROC			; CRpgRocket::CreateTrail, COMDAT
; _this$ = ecx

; 293  : {

	push	ebp
	mov	ebp, esp
	sub	esp, 68					; 00000044H
	push	ebx
	push	esi
	push	edi
	mov	DWORD PTR _this$[ebp], ecx

; 294  : 	// rocket trail
; 295  : 	MESSAGE_BEGIN( MSG_BROADCAST, SVC_TEMPENTITY );

	push	0
	push	0
	push	23					; 00000017H
	push	0
	call	?MESSAGE_BEGIN@@YAXHHPBMPAUedict_s@@@Z	; MESSAGE_BEGIN
	add	esp, 16					; 00000010H

; 296  : 
; 297  : 		WRITE_BYTE( TE_BEAMFOLLOW );

	push	22					; 00000016H
	call	DWORD PTR ?g_engfuncs@@3Uenginefuncs_s@@A+192
	add	esp, 4

; 298  : 		WRITE_SHORT(entindex());	// entity

	mov	ecx, DWORD PTR _this$[ebp]
	call	?entindex@CBaseEntity@@QAEHXZ		; CBaseEntity::entindex
	push	eax
	call	DWORD PTR ?g_engfuncs@@3Uenginefuncs_s@@A+200
	add	esp, 4

; 299  : 		WRITE_SHORT(m_iTrail );	// model

	mov	eax, DWORD PTR _this$[ebp]
	mov	ecx, DWORD PTR [eax+2516]
	push	ecx
	call	DWORD PTR ?g_engfuncs@@3Uenginefuncs_s@@A+200
	add	esp, 4

; 300  : 		WRITE_BYTE( 40 ); // life

	push	40					; 00000028H
	call	DWORD PTR ?g_engfuncs@@3Uenginefuncs_s@@A+192
	add	esp, 4

; 301  : 		WRITE_BYTE( 5 );  // width

	push	5
	call	DWORD PTR ?g_engfuncs@@3Uenginefuncs_s@@A+192
	add	esp, 4

; 302  : 		WRITE_BYTE( 224 );   // r, g, b

	push	224					; 000000e0H
	call	DWORD PTR ?g_engfuncs@@3Uenginefuncs_s@@A+192
	add	esp, 4

; 303  : 		WRITE_BYTE( 224 );   // r, g, b

	push	224					; 000000e0H
	call	DWORD PTR ?g_engfuncs@@3Uenginefuncs_s@@A+192
	add	esp, 4

; 304  : 		WRITE_BYTE( 255 );   // r, g, b

	push	255					; 000000ffH
	call	DWORD PTR ?g_engfuncs@@3Uenginefuncs_s@@A+192
	add	esp, 4

; 305  : 		WRITE_BYTE( 255 );	// brightness

	push	255					; 000000ffH
	call	DWORD PTR ?g_engfuncs@@3Uenginefuncs_s@@A+192
	add	esp, 4

; 306  : 
; 307  : 	MESSAGE_END();  // move PHS/PVS data sending into here (SEND_ALL, SEND_PVS, SEND_PHS)

	call	DWORD PTR ?g_engfuncs@@3Uenginefuncs_s@@A+188

; 308  : }

	pop	edi
	pop	esi
	pop	ebx
	mov	esp, ebp
	pop	ebp
	ret	0
?CreateTrail@CRpgRocket@@QAEXXZ ENDP			; CRpgRocket::CreateTrail
_TEXT	ENDS
; Function compile flags: /Odtp /ZI
; File d:\!diffusion 2020\source code 2022\client-server\server\weapons\weapon_rpg.cpp
;	COMDAT ?CreateRpgRocket@CRpgRocket@@SAPAV1@VVector@@0PAVCBaseEntity@@PAVCRpg@@@Z
_TEXT	SEGMENT
_pRocket$ = -4						; size = 4
_vecOrigin$ = 8						; size = 12
_vecAngles$ = 20					; size = 12
_pOwner$ = 32						; size = 4
_pLauncher$ = 36					; size = 4
?CreateRpgRocket@CRpgRocket@@SAPAV1@VVector@@0PAVCBaseEntity@@PAVCRpg@@@Z PROC ; CRpgRocket::CreateRpgRocket, COMDAT

; 130  : {

	push	ebp
	mov	ebp, esp
	sub	esp, 68					; 00000044H
	push	ebx
	push	esi
	push	edi

; 131  : 	CRpgRocket *pRocket = GetClassPtr( (CRpgRocket *)NULL );

	push	0
	call	??$GetClassPtr@VCRpgRocket@@@@YAPAVCRpgRocket@@PAV0@@Z ; GetClassPtr<CRpgRocket>
	add	esp, 4
	mov	DWORD PTR _pRocket$[ebp], eax

; 132  : 
; 133  : 	UTIL_SetOrigin( pRocket, vecOrigin );

	lea	eax, DWORD PTR _vecOrigin$[ebp]
	push	eax
	mov	ecx, DWORD PTR _pRocket$[ebp]
	push	ecx
	call	?UTIL_SetOrigin@@YAXPAVCBaseEntity@@ABVVector@@@Z ; UTIL_SetOrigin
	add	esp, 8

; 134  : 	pRocket->SetLocalAngles( vecAngles );

	lea	eax, DWORD PTR _vecAngles$[ebp]
	push	eax
	mov	ecx, DWORD PTR _pRocket$[ebp]
	call	?SetLocalAngles@CBaseEntity@@QAEXABVVector@@@Z ; CBaseEntity::SetLocalAngles

; 135  : 	pRocket->pev->owner = pOwner->edict();

	mov	ecx, DWORD PTR _pOwner$[ebp]
	call	?edict@CBaseEntity@@QAEPAUedict_s@@XZ	; CBaseEntity::edict
	mov	ecx, DWORD PTR _pRocket$[ebp]
	mov	edx, DWORD PTR [ecx+4]
	mov	DWORD PTR [edx+408], eax

; 136  : 	if( pOwner->pev->effects & EF_UPSIDEDOWN )

	mov	eax, DWORD PTR _pOwner$[ebp]
	mov	ecx, DWORD PTR [eax+4]
	mov	edx, DWORD PTR [ecx+280]
	and	edx, 4194304				; 00400000H
	je	SHORT $LN2@CreateRpgR

; 137  : 		pRocket->pev->effects |= EF_UPSIDEDOWN;

	mov	eax, DWORD PTR _pRocket$[ebp]
	mov	ecx, DWORD PTR [eax+4]
	mov	edx, DWORD PTR [ecx+280]
	or	edx, 4194304				; 00400000H
	mov	eax, DWORD PTR _pRocket$[ebp]
	mov	ecx, DWORD PTR [eax+4]
	mov	DWORD PTR [ecx+280], edx
$LN2@CreateRpgR:

; 138  : 	pRocket->Spawn();

	mov	eax, DWORD PTR _pRocket$[ebp]
	mov	edx, DWORD PTR [eax]
	mov	ecx, DWORD PTR _pRocket$[ebp]
	mov	eax, DWORD PTR [edx+4]
	call	eax

; 139  : 	pRocket->SetTouch( &CRpgRocket::RocketTouch );

	push	OFFSET ??_C@_0BJ@IMHADGKA@?$CGCRpgRocket?3?3RocketTouch?$AA@
	push	OFFSET ?RocketTouch@CRpgRocket@@QAEXPAVCBaseEntity@@@Z ; CRpgRocket::RocketTouch
	mov	ecx, DWORD PTR _pRocket$[ebp]
	call	?TouchSet@CBaseEntity@@QAEP81@AEXPAV1@@ZP81@AEX0@ZPAD@Z ; CBaseEntity::TouchSet

; 140  : 	pRocket->m_pLauncher = pLauncher;// remember what RPG fired me. 

	mov	eax, DWORD PTR _pRocket$[ebp]
	mov	ecx, DWORD PTR _pLauncher$[ebp]
	mov	DWORD PTR [eax+2524], ecx

; 141  : 	// diffusion - safety check...
; 142  : 	if( pRocket->m_pLauncher->m_cActiveRockets < 0 )

	mov	eax, DWORD PTR _pRocket$[ebp]
	mov	ecx, DWORD PTR [eax+2524]
	cmp	DWORD PTR [ecx+1928], 0
	jge	SHORT $LN3@CreateRpgR

; 143  : 		pRocket->m_pLauncher->m_cActiveRockets = 0;

	mov	eax, DWORD PTR _pRocket$[ebp]
	mov	ecx, DWORD PTR [eax+2524]
	mov	DWORD PTR [ecx+1928], 0
$LN3@CreateRpgR:

; 144  : 	pRocket->m_pLauncher->m_cActiveRockets++;// register this missile as active for the launcher

	mov	eax, DWORD PTR _pRocket$[ebp]
	mov	ecx, DWORD PTR [eax+2524]
	mov	edx, DWORD PTR [ecx+1928]
	add	edx, 1
	mov	eax, DWORD PTR _pRocket$[ebp]
	mov	ecx, DWORD PTR [eax+2524]
	mov	DWORD PTR [ecx+1928], edx

; 145  : 
; 146  : 	return pRocket;

	mov	eax, DWORD PTR _pRocket$[ebp]

; 147  : }

	pop	edi
	pop	esi
	pop	ebx
	mov	esp, ebp
	pop	ebp
	ret	0
?CreateRpgRocket@CRpgRocket@@SAPAV1@VVector@@0PAVCBaseEntity@@PAVCRpg@@@Z ENDP ; CRpgRocket::CreateRpgRocket
_TEXT	ENDS
; Function compile flags: /Odtp /ZI
; File d:\!diffusion 2020\source code 2022\client-server\server\weapons\weapon_rpg.cpp
;	COMDAT ?RocketTouch@CRpgRocket@@QAEXPAVCBaseEntity@@@Z
_TEXT	SEGMENT
_this$ = -4						; size = 4
_pOther$ = 8						; size = 4
?RocketTouch@CRpgRocket@@QAEXPAVCBaseEntity@@@Z PROC	; CRpgRocket::RocketTouch, COMDAT
; _this$ = ecx

; 281  : {

	push	ebp
	mov	ebp, esp
	sub	esp, 68					; 00000044H
	push	ebx
	push	esi
	push	edi
	mov	DWORD PTR _this$[ebp], ecx

; 282  : 	if ( m_pLauncher )

	mov	eax, DWORD PTR _this$[ebp]
	cmp	DWORD PTR [eax+2524], 0
	je	SHORT $LN2@RocketTouc

; 283  : 	{
; 284  : 		// my launcher is still around, tell it I'm dead.
; 285  : 		m_pLauncher->m_cActiveRockets--;

	mov	eax, DWORD PTR _this$[ebp]
	mov	ecx, DWORD PTR [eax+2524]
	mov	edx, DWORD PTR [ecx+1928]
	sub	edx, 1
	mov	eax, DWORD PTR _this$[ebp]
	mov	ecx, DWORD PTR [eax+2524]
	mov	DWORD PTR [ecx+1928], edx
$LN2@RocketTouc:

; 286  : 	}
; 287  : 
; 288  : 	STOP_SOUND( edict(), CHAN_VOICE, "weapons/rocket1.wav" );

	push	OFFSET ??_C@_0BE@OFLJKELP@weapons?1rocket1?4wav?$AA@
	push	2
	mov	ecx, DWORD PTR _this$[ebp]
	call	?edict@CBaseEntity@@QAEPAUedict_s@@XZ	; CBaseEntity::edict
	push	eax
	call	?STOP_SOUND@@YAXPAUedict_s@@HPBD@Z	; STOP_SOUND
	add	esp, 12					; 0000000cH

; 289  : 	ExplodeTouch( pOther );

	mov	eax, DWORD PTR _pOther$[ebp]
	push	eax
	mov	ecx, DWORD PTR _this$[ebp]
	call	?ExplodeTouch@CGrenade@@QAEXPAVCBaseEntity@@@Z ; CGrenade::ExplodeTouch

; 290  : }

	pop	edi
	pop	esi
	pop	ebx
	mov	esp, ebp
	pop	ebp
	ret	4
?RocketTouch@CRpgRocket@@QAEXPAVCBaseEntity@@@Z ENDP	; CRpgRocket::RocketTouch
_TEXT	ENDS
; Function compile flags: /Odtp /ZI
; File d:\!diffusion 2020\source code 2022\client-server\server\weapons\weapon_rpg.cpp
;	COMDAT ?IgniteThink@CRpgRocket@@QAEXXZ
_TEXT	SEGMENT
_this$ = -4						; size = 4
?IgniteThink@CRpgRocket@@QAEXXZ PROC			; CRpgRocket::IgniteThink, COMDAT
; _this$ = ecx

; 311  : {

	push	ebp
	mov	ebp, esp
	sub	esp, 68					; 00000044H
	push	ebx
	push	esi
	push	edi
	mov	DWORD PTR _this$[ebp], ecx

; 312  : 	// pev->movetype = MOVETYPE_TOSS;
; 313  : 
; 314  : 	pev->movetype = MOVETYPE_FLY;

	mov	eax, DWORD PTR _this$[ebp]
	mov	ecx, DWORD PTR [eax+4]
	mov	DWORD PTR [ecx+264], 5

; 315  : 	pev->effects |= EF_LIGHT;

	mov	eax, DWORD PTR _this$[ebp]
	mov	ecx, DWORD PTR [eax+4]
	mov	edx, DWORD PTR [ecx+280]
	or	edx, 64					; 00000040H
	mov	eax, DWORD PTR _this$[ebp]
	mov	ecx, DWORD PTR [eax+4]
	mov	DWORD PTR [ecx+280], edx

; 316  : 
; 317  : 	// make rocket sound
; 318  : 	EMIT_SOUND( edict(), CHAN_VOICE, "weapons/rocket1.wav", 1, 0.5 );

	push	ecx
	movss	xmm0, DWORD PTR __real@3f000000
	movss	DWORD PTR [esp], xmm0
	push	ecx
	movss	xmm0, DWORD PTR __real@3f800000
	movss	DWORD PTR [esp], xmm0
	push	OFFSET ??_C@_0BE@OFLJKELP@weapons?1rocket1?4wav?$AA@
	push	2
	mov	ecx, DWORD PTR _this$[ebp]
	call	?edict@CBaseEntity@@QAEPAUedict_s@@XZ	; CBaseEntity::edict
	push	eax
	call	?EMIT_SOUND@@YAXPAUedict_s@@HPBDMM@Z	; EMIT_SOUND
	add	esp, 20					; 00000014H

; 319  : 
; 320  : 	CreateTrail();

	mov	ecx, DWORD PTR _this$[ebp]
	call	?CreateTrail@CRpgRocket@@QAEXXZ		; CRpgRocket::CreateTrail

; 321  : 
; 322  : 	m_flIgniteTime = gpGlobals->time;

	mov	eax, DWORD PTR _this$[ebp]
	mov	ecx, DWORD PTR ?gpGlobals@@3PAUglobalvars_t@@A ; gpGlobals
	mov	edx, DWORD PTR [ecx]
	mov	DWORD PTR [eax+2520], edx

; 323  : 
; 324  : 	// set to follow laser spot
; 325  : 	SetThink(&CRpgRocket::FollowThink );

	push	OFFSET ??_C@_0BJ@DNDGCEJF@?$CGCRpgRocket?3?3FollowThink?$AA@
	push	OFFSET ?FollowThink@CRpgRocket@@QAEXXZ	; CRpgRocket::FollowThink
	mov	ecx, DWORD PTR _this$[ebp]
	call	?ThinkSet@CBaseEntity@@QAEP81@AEXXZP81@AEXXZPAD@Z ; CBaseEntity::ThinkSet

; 326  : 	SetNextThink( 0.1 );

	push	ecx
	movss	xmm0, DWORD PTR __real@3dcccccd
	movss	DWORD PTR [esp], xmm0
	mov	eax, DWORD PTR _this$[ebp]
	mov	edx, DWORD PTR [eax]
	mov	ecx, DWORD PTR _this$[ebp]
	mov	eax, DWORD PTR [edx+80]
	call	eax

; 327  : }

	pop	edi
	pop	esi
	pop	ebx
	mov	esp, ebp
	pop	ebp
	ret	0
?IgniteThink@CRpgRocket@@QAEXXZ ENDP			; CRpgRocket::IgniteThink
_TEXT	ENDS
; Function compile flags: /Odtp /ZI
; File d:\!diffusion 2020\source code 2022\client-server\server\weapons\weapon_rpg.cpp
;	COMDAT ?FollowThink@CRpgRocket@@QAEXXZ
_TEXT	SEGMENT
tv589 = -372						; size = 4
tv561 = -372						; size = 4
tv540 = -372						; size = 4
$T1 = -368						; size = 12
$T2 = -356						; size = 12
$T3 = -344						; size = 12
$T4 = -332						; size = 12
$T5 = -320						; size = 12
$T6 = -308						; size = 12
$T7 = -296						; size = 12
$T8 = -276						; size = 12
$T9 = -264						; size = 12
$T10 = -252						; size = 12
$T11 = -240						; size = 12
$T12 = -228						; size = 12
$T13 = -216						; size = 12
$T14 = -204						; size = 12
$T15 = -192						; size = 12
_flSpeed$ = -116					; size = 4
_angles$ = -112						; size = 12
_tr$ = -100						; size = 56
_flDot$ = -44						; size = 4
_flMax$ = -40						; size = 4
_flDist$ = -36						; size = 4
_vecDir$ = -32						; size = 12
_vecTarget$ = -20					; size = 12
_pOther$ = -8						; size = 4
_this$ = -4						; size = 4
?FollowThink@CRpgRocket@@QAEXXZ PROC			; CRpgRocket::FollowThink, COMDAT
; _this$ = ecx

; 343  : {

	push	ebp
	mov	ebp, esp
	sub	esp, 372				; 00000174H
	push	ebx
	push	esi
	push	edi
	mov	DWORD PTR _this$[ebp], ecx

; 344  : 	CBaseEntity *pOther = NULL;

	mov	DWORD PTR _pOther$[ebp], 0

; 345  : 	Vector vecTarget;

	lea	ecx, DWORD PTR _vecTarget$[ebp]
	call	??0Vector@@QAE@XZ			; Vector::Vector

; 346  : 	Vector vecDir;

	lea	ecx, DWORD PTR _vecDir$[ebp]
	call	??0Vector@@QAE@XZ			; Vector::Vector

; 347  : 	float flDist, flMax, flDot;
; 348  : 	TraceResult tr;

	lea	ecx, DWORD PTR _tr$[ebp]
	call	??0gametrace_s@@QAE@XZ

; 349  : 
; 350  : 	Vector angles = GetLocalAngles();

	mov	ecx, DWORD PTR _this$[ebp]
	call	?GetLocalAngles@CBaseEntity@@QBEABVVector@@XZ ; CBaseEntity::GetLocalAngles
	push	eax
	lea	ecx, DWORD PTR _angles$[ebp]
	call	??0Vector@@QAE@ABV0@@Z			; Vector::Vector

; 351  : 	UTIL_MakeVectors( angles );

	lea	eax, DWORD PTR _angles$[ebp]
	push	eax
	call	?UTIL_MakeVectors@@YAXABVVector@@@Z	; UTIL_MakeVectors
	add	esp, 4

; 352  : 
; 353  : 	vecTarget = gpGlobals->v_forward;

	mov	eax, DWORD PTR ?gpGlobals@@3PAUglobalvars_t@@A ; gpGlobals
	add	eax, 40					; 00000028H
	mov	ecx, DWORD PTR [eax]
	mov	DWORD PTR _vecTarget$[ebp], ecx
	mov	edx, DWORD PTR [eax+4]
	mov	DWORD PTR _vecTarget$[ebp+4], edx
	mov	eax, DWORD PTR [eax+8]
	mov	DWORD PTR _vecTarget$[ebp+8], eax

; 354  : 	flMax = 4096;

	movss	xmm0, DWORD PTR __real@45800000
	movss	DWORD PTR _flMax$[ebp], xmm0
$LN2@FollowThin:

; 355  : 	
; 356  : 	// Examine all entities within a reasonable radius
; 357  : 	while ((pOther = UTIL_FindEntityByClassname( pOther, "laser_spot" )) != NULL)

	push	OFFSET ??_C@_0L@PKAMAFCB@laser_spot?$AA@
	mov	eax, DWORD PTR _pOther$[ebp]
	push	eax
	call	?UTIL_FindEntityByClassname@@YAPAVCBaseEntity@@PAV1@PBD@Z ; UTIL_FindEntityByClassname
	add	esp, 8
	mov	DWORD PTR _pOther$[ebp], eax
	cmp	DWORD PTR _pOther$[ebp], 0
	je	$LN3@FollowThin

; 358  : 	{
; 359  : 		UTIL_TraceLine ( GetAbsOrigin(), pOther->GetAbsOrigin(), dont_ignore_monsters, ENT(pev), &tr );

	lea	eax, DWORD PTR _tr$[ebp]
	push	eax
	mov	ecx, DWORD PTR _this$[ebp]
	mov	edx, DWORD PTR [ecx+4]
	push	edx
	call	?ENT@@YAPAUedict_s@@PBUentvars_s@@@Z	; ENT
	add	esp, 4
	push	eax
	push	0
	mov	ecx, DWORD PTR _pOther$[ebp]
	call	?GetAbsOrigin@CBaseEntity@@QBEABVVector@@XZ ; CBaseEntity::GetAbsOrigin
	push	eax
	mov	ecx, DWORD PTR _this$[ebp]
	call	?GetAbsOrigin@CBaseEntity@@QBEABVVector@@XZ ; CBaseEntity::GetAbsOrigin
	push	eax
	call	?UTIL_TraceLine@@YAXABVVector@@0W4IGNORE_MONSTERS@@PAUedict_s@@PAUgametrace_s@@@Z ; UTIL_TraceLine
	add	esp, 20					; 00000014H

; 360  : 		// ALERT( at_console, "%f\n", tr.flFraction );
; 361  : 		if( tr.flFraction >= 0.90 )

	cvtss2sd xmm0, DWORD PTR _tr$[ebp+16]
	comisd	xmm0, QWORD PTR __real@3feccccccccccccd
	jb	$LN5@FollowThin

; 362  : 		{
; 363  : 			vecDir = pOther->GetAbsOrigin() - GetAbsOrigin();

	mov	ecx, DWORD PTR _this$[ebp]
	call	?GetAbsOrigin@CBaseEntity@@QBEABVVector@@XZ ; CBaseEntity::GetAbsOrigin
	push	eax
	lea	eax, DWORD PTR $T15[ebp]
	push	eax
	mov	ecx, DWORD PTR _pOther$[ebp]
	call	?GetAbsOrigin@CBaseEntity@@QBEABVVector@@XZ ; CBaseEntity::GetAbsOrigin
	mov	ecx, eax
	call	??GVector@@QBE?AV0@ABV0@@Z		; Vector::operator-
	mov	ecx, DWORD PTR [eax]
	mov	DWORD PTR _vecDir$[ebp], ecx
	mov	edx, DWORD PTR [eax+4]
	mov	DWORD PTR _vecDir$[ebp+4], edx
	mov	eax, DWORD PTR [eax+8]
	mov	DWORD PTR _vecDir$[ebp+8], eax

; 364  : 			flDist = vecDir.Length( );

	lea	ecx, DWORD PTR _vecDir$[ebp]
	call	?Length@Vector@@QBEMXZ			; Vector::Length
	fstp	DWORD PTR _flDist$[ebp]

; 365  : 			vecDir = vecDir.Normalize( );

	lea	eax, DWORD PTR $T14[ebp]
	push	eax
	lea	ecx, DWORD PTR _vecDir$[ebp]
	call	?Normalize@Vector@@QBE?AV1@XZ		; Vector::Normalize
	mov	ecx, DWORD PTR [eax]
	mov	DWORD PTR _vecDir$[ebp], ecx
	mov	edx, DWORD PTR [eax+4]
	mov	DWORD PTR _vecDir$[ebp+4], edx
	mov	eax, DWORD PTR [eax+8]
	mov	DWORD PTR _vecDir$[ebp+8], eax

; 366  : 			flDot = DotProduct( gpGlobals->v_forward, vecDir );

	lea	eax, DWORD PTR _vecDir$[ebp]
	push	eax
	mov	ecx, DWORD PTR ?gpGlobals@@3PAUglobalvars_t@@A ; gpGlobals
	add	ecx, 40					; 00000028H
	push	ecx
	call	?DotProduct@@YAMABVVector@@0@Z		; DotProduct
	add	esp, 8
	fstp	DWORD PTR _flDot$[ebp]

; 367  : 			if ((flDot > 0) && (flDist * (1 - flDot) < flMax))

	movss	xmm0, DWORD PTR _flDot$[ebp]
	comiss	xmm0, DWORD PTR __real@00000000
	jbe	SHORT $LN5@FollowThin
	movss	xmm0, DWORD PTR __real@3f800000
	subss	xmm0, DWORD PTR _flDot$[ebp]
	mulss	xmm0, DWORD PTR _flDist$[ebp]
	movss	xmm1, DWORD PTR _flMax$[ebp]
	comiss	xmm1, xmm0
	jbe	SHORT $LN5@FollowThin

; 368  : 			{
; 369  : 				flMax = flDist * (1 - flDot);

	movss	xmm0, DWORD PTR __real@3f800000
	subss	xmm0, DWORD PTR _flDot$[ebp]
	mulss	xmm0, DWORD PTR _flDist$[ebp]
	movss	DWORD PTR _flMax$[ebp], xmm0

; 370  : 				vecTarget = vecDir;

	mov	eax, DWORD PTR _vecDir$[ebp]
	mov	DWORD PTR _vecTarget$[ebp], eax
	mov	ecx, DWORD PTR _vecDir$[ebp+4]
	mov	DWORD PTR _vecTarget$[ebp+4], ecx
	mov	edx, DWORD PTR _vecDir$[ebp+8]
	mov	DWORD PTR _vecTarget$[ebp+8], edx
$LN5@FollowThin:

; 371  : 			}
; 372  : 		}
; 373  : 	}

	jmp	$LN2@FollowThin
$LN3@FollowThin:

; 374  : 
; 375  : 	SetLocalAngles( UTIL_VecToAngles( vecTarget ));

	lea	eax, DWORD PTR _vecTarget$[ebp]
	push	eax
	lea	ecx, DWORD PTR $T13[ebp]
	push	ecx
	call	?UTIL_VecToAngles@@YA?AVVector@@ABV1@@Z	; UTIL_VecToAngles
	add	esp, 8
	push	eax
	mov	ecx, DWORD PTR _this$[ebp]
	call	?SetLocalAngles@CBaseEntity@@QAEXABVVector@@@Z ; CBaseEntity::SetLocalAngles

; 376  : 
; 377  : 	// this acceleration and turning math is totally wrong, but it seems to respond well so don't change it.
; 378  : 	float flSpeed = GetLocalVelocity().Length();

	mov	ecx, DWORD PTR _this$[ebp]
	call	?GetLocalVelocity@CBaseEntity@@QBEABVVector@@XZ ; CBaseEntity::GetLocalVelocity
	mov	ecx, eax
	call	?Length@Vector@@QBEMXZ			; Vector::Length
	fstp	DWORD PTR _flSpeed$[ebp]

; 379  : 
; 380  : 	if( gpGlobals->time - m_flIgniteTime < 1.0 )

	mov	eax, DWORD PTR ?gpGlobals@@3PAUglobalvars_t@@A ; gpGlobals
	mov	ecx, DWORD PTR _this$[ebp]
	movss	xmm0, DWORD PTR [eax]
	subss	xmm0, DWORD PTR [ecx+2520]
	cvtss2sd xmm0, xmm0
	movsd	xmm1, QWORD PTR __real@3ff0000000000000
	comisd	xmm1, xmm0
	jbe	$LN6@FollowThin

; 381  : 	{
; 382  : 		SetLocalVelocity( GetLocalVelocity() * 0.2 + vecTarget * (flSpeed * 0.8 + 400));

	cvtss2sd xmm0, DWORD PTR _flSpeed$[ebp]
	mulsd	xmm0, QWORD PTR __real@3fe999999999999a
	addsd	xmm0, QWORD PTR __real@4079000000000000
	cvtsd2ss xmm0, xmm0
	push	ecx
	movss	DWORD PTR [esp], xmm0
	lea	eax, DWORD PTR $T11[ebp]
	push	eax
	lea	ecx, DWORD PTR _vecTarget$[ebp]
	call	??DVector@@QBE?AV0@M@Z			; Vector::operator*
	push	eax
	lea	ecx, DWORD PTR $T10[ebp]
	push	ecx
	push	ecx
	movss	xmm0, DWORD PTR __real@3e4ccccd
	movss	DWORD PTR [esp], xmm0
	lea	edx, DWORD PTR $T12[ebp]
	push	edx
	mov	ecx, DWORD PTR _this$[ebp]
	call	?GetLocalVelocity@CBaseEntity@@QBEABVVector@@XZ ; CBaseEntity::GetLocalVelocity
	mov	ecx, eax
	call	??DVector@@QBE?AV0@M@Z			; Vector::operator*
	mov	ecx, eax
	call	??HVector@@QBE?AV0@ABV0@@Z		; Vector::operator+
	push	eax
	mov	ecx, DWORD PTR _this$[ebp]
	call	?SetLocalVelocity@CBaseEntity@@QAEXABVVector@@@Z ; CBaseEntity::SetLocalVelocity

; 383  : 		if (pev->waterlevel == 3)

	mov	eax, DWORD PTR _this$[ebp]
	mov	ecx, DWORD PTR [eax+4]
	cmp	DWORD PTR [ecx+448], 3
	jne	$LN8@FollowThin

; 384  : 		{
; 385  : 			// go slow underwater
; 386  : 			if( GetLocalVelocity().Length() > 300 )

	mov	ecx, DWORD PTR _this$[ebp]
	call	?GetLocalVelocity@CBaseEntity@@QBEABVVector@@XZ ; CBaseEntity::GetLocalVelocity
	mov	ecx, eax
	call	?Length@Vector@@QBEMXZ			; Vector::Length
	fstp	DWORD PTR tv540[ebp]
	movss	xmm0, DWORD PTR tv540[ebp]
	comiss	xmm0, DWORD PTR __real@43960000
	jbe	SHORT $LN10@FollowThin

; 387  : 				SetLocalVelocity( GetLocalVelocity().Normalize() * 300 );

	push	ecx
	movss	xmm0, DWORD PTR __real@43960000
	movss	DWORD PTR [esp], xmm0
	lea	eax, DWORD PTR $T8[ebp]
	push	eax
	lea	ecx, DWORD PTR $T9[ebp]
	push	ecx
	mov	ecx, DWORD PTR _this$[ebp]
	call	?GetLocalVelocity@CBaseEntity@@QBEABVVector@@XZ ; CBaseEntity::GetLocalVelocity
	mov	ecx, eax
	call	?Normalize@Vector@@QBE?AV1@XZ		; Vector::Normalize
	mov	ecx, eax
	call	??DVector@@QBE?AV0@M@Z			; Vector::operator*
	push	eax
	mov	ecx, DWORD PTR _this$[ebp]
	call	?SetLocalVelocity@CBaseEntity@@QAEXABVVector@@@Z ; CBaseEntity::SetLocalVelocity
$LN10@FollowThin:

; 388  : 
; 389  : 			UTIL_BubbleTrail( GetAbsOrigin() - GetAbsVelocity() * 0.1, GetAbsOrigin(), 4 );

	push	4
	mov	ecx, DWORD PTR _this$[ebp]
	call	?GetAbsOrigin@CBaseEntity@@QBEABVVector@@XZ ; CBaseEntity::GetAbsOrigin
	sub	esp, 12					; 0000000cH
	mov	ecx, esp
	push	eax
	call	??0Vector@@QAE@ABV0@@Z			; Vector::Vector
	push	ecx
	movss	xmm0, DWORD PTR __real@3dcccccd
	movss	DWORD PTR [esp], xmm0
	lea	eax, DWORD PTR $T7[ebp]
	push	eax
	mov	ecx, DWORD PTR _this$[ebp]
	call	?GetAbsVelocity@CBaseEntity@@QBEABVVector@@XZ ; CBaseEntity::GetAbsVelocity
	mov	ecx, eax
	call	??DVector@@QBE?AV0@M@Z			; Vector::operator*
	sub	esp, 12					; 0000000cH
	mov	ecx, esp
	push	eax
	push	ecx
	mov	ecx, DWORD PTR _this$[ebp]
	call	?GetAbsOrigin@CBaseEntity@@QBEABVVector@@XZ ; CBaseEntity::GetAbsOrigin
	mov	ecx, eax
	call	??GVector@@QBE?AV0@ABV0@@Z		; Vector::operator-
	call	?UTIL_BubbleTrail@@YAXVVector@@0H@Z	; UTIL_BubbleTrail
	add	esp, 28					; 0000001cH

; 390  : 		} 
; 391  : 		else 

	jmp	SHORT $LN11@FollowThin
$LN8@FollowThin:

; 392  : 		{
; 393  : 			if( GetLocalVelocity().Length() > 2000 )

	mov	ecx, DWORD PTR _this$[ebp]
	call	?GetLocalVelocity@CBaseEntity@@QBEABVVector@@XZ ; CBaseEntity::GetLocalVelocity
	mov	ecx, eax
	call	?Length@Vector@@QBEMXZ			; Vector::Length
	fstp	DWORD PTR tv561[ebp]
	movss	xmm0, DWORD PTR tv561[ebp]
	comiss	xmm0, DWORD PTR __real@44fa0000
	jbe	SHORT $LN11@FollowThin

; 394  : 				SetLocalVelocity( GetLocalVelocity().Normalize() * 2000 );

	push	ecx
	movss	xmm0, DWORD PTR __real@44fa0000
	movss	DWORD PTR [esp], xmm0
	lea	eax, DWORD PTR $T5[ebp]
	push	eax
	lea	ecx, DWORD PTR $T6[ebp]
	push	ecx
	mov	ecx, DWORD PTR _this$[ebp]
	call	?GetLocalVelocity@CBaseEntity@@QBEABVVector@@XZ ; CBaseEntity::GetLocalVelocity
	mov	ecx, eax
	call	?Normalize@Vector@@QBE?AV1@XZ		; Vector::Normalize
	mov	ecx, eax
	call	??DVector@@QBE?AV0@M@Z			; Vector::operator*
	push	eax
	mov	ecx, DWORD PTR _this$[ebp]
	call	?SetLocalVelocity@CBaseEntity@@QAEXABVVector@@@Z ; CBaseEntity::SetLocalVelocity
$LN11@FollowThin:

; 395  : 		}
; 396  : 	}
; 397  : 	else

	jmp	$LN12@FollowThin
$LN6@FollowThin:

; 398  : 	{
; 399  : 		/* // diffusion - moved to ClearEffects
; 400  : 		if( pev->effects & EF_LIGHT )
; 401  : 		{
; 402  : 			pev->effects = 0;
; 403  : 			STOP_SOUND( ENT(pev), CHAN_VOICE, "weapons/rocket1.wav" );
; 404  : 		}
; 405  : 		*/
; 406  : 		SetLocalVelocity( GetLocalVelocity() * 0.2 + vecTarget * flSpeed * 0.798 );

	push	ecx
	movss	xmm0, DWORD PTR __real@3f4c49ba
	movss	DWORD PTR [esp], xmm0
	lea	eax, DWORD PTR $T2[ebp]
	push	eax
	push	ecx
	movss	xmm0, DWORD PTR _flSpeed$[ebp]
	movss	DWORD PTR [esp], xmm0
	lea	ecx, DWORD PTR $T3[ebp]
	push	ecx
	lea	ecx, DWORD PTR _vecTarget$[ebp]
	call	??DVector@@QBE?AV0@M@Z			; Vector::operator*
	mov	ecx, eax
	call	??DVector@@QBE?AV0@M@Z			; Vector::operator*
	push	eax
	lea	edx, DWORD PTR $T1[ebp]
	push	edx
	push	ecx
	movss	xmm0, DWORD PTR __real@3e4ccccd
	movss	DWORD PTR [esp], xmm0
	lea	eax, DWORD PTR $T4[ebp]
	push	eax
	mov	ecx, DWORD PTR _this$[ebp]
	call	?GetLocalVelocity@CBaseEntity@@QBEABVVector@@XZ ; CBaseEntity::GetLocalVelocity
	mov	ecx, eax
	call	??DVector@@QBE?AV0@M@Z			; Vector::operator*
	mov	ecx, eax
	call	??HVector@@QBE?AV0@ABV0@@Z		; Vector::operator+
	push	eax
	mov	ecx, DWORD PTR _this$[ebp]
	call	?SetLocalVelocity@CBaseEntity@@QAEXABVVector@@@Z ; CBaseEntity::SetLocalVelocity

; 407  : 
; 408  : 		if( pev->waterlevel == 0 && GetLocalVelocity().Length() < 1500 )

	mov	eax, DWORD PTR _this$[ebp]
	mov	ecx, DWORD PTR [eax+4]
	cmp	DWORD PTR [ecx+448], 0
	jne	$LN12@FollowThin
	mov	ecx, DWORD PTR _this$[ebp]
	call	?GetLocalVelocity@CBaseEntity@@QBEABVVector@@XZ ; CBaseEntity::GetLocalVelocity
	mov	ecx, eax
	call	?Length@Vector@@QBEMXZ			; Vector::Length
	fstp	DWORD PTR tv589[ebp]
	movss	xmm0, DWORD PTR __real@44bb8000
	comiss	xmm0, DWORD PTR tv589[ebp]
	jbe	SHORT $LN12@FollowThin

; 409  : 		{
; 410  : 			if (m_pLauncher) // diffusion - fix by Lev

	mov	eax, DWORD PTR _this$[ebp]
	cmp	DWORD PTR [eax+2524], 0
	je	SHORT $LN13@FollowThin

; 411  : 			{
; 412  : 				// my launcher is still around, tell it I'm dead.
; 413  : 				m_pLauncher->m_cActiveRockets--;

	mov	eax, DWORD PTR _this$[ebp]
	mov	ecx, DWORD PTR [eax+2524]
	mov	edx, DWORD PTR [ecx+1928]
	sub	edx, 1
	mov	eax, DWORD PTR _this$[ebp]
	mov	ecx, DWORD PTR [eax+2524]
	mov	DWORD PTR [ecx+1928], edx
$LN13@FollowThin:

; 414  : 			}
; 415  : 
; 416  : 			if( pev->effects & EF_LIGHT )

	mov	eax, DWORD PTR _this$[ebp]
	mov	ecx, DWORD PTR [eax+4]
	mov	edx, DWORD PTR [ecx+280]
	and	edx, 64					; 00000040H
	je	SHORT $LN14@FollowThin

; 417  : 			{
; 418  : 				pev->effects = 0;

	mov	eax, DWORD PTR _this$[ebp]
	mov	ecx, DWORD PTR [eax+4]
	mov	DWORD PTR [ecx+280], 0

; 419  : 				STOP_SOUND( ENT( pev ), CHAN_VOICE, "weapons/rocket1.wav" );

	push	OFFSET ??_C@_0BE@OFLJKELP@weapons?1rocket1?4wav?$AA@
	push	2
	mov	eax, DWORD PTR _this$[ebp]
	mov	ecx, DWORD PTR [eax+4]
	push	ecx
	call	?ENT@@YAPAUedict_s@@PBUentvars_s@@@Z	; ENT
	add	esp, 4
	push	eax
	call	?STOP_SOUND@@YAXPAUedict_s@@HPBD@Z	; STOP_SOUND
	add	esp, 12					; 0000000cH
$LN14@FollowThin:

; 420  : 			}
; 421  : 
; 422  : 			Detonate( );

	mov	ecx, DWORD PTR _this$[ebp]
	call	?Detonate@CGrenade@@QAEXXZ		; CGrenade::Detonate
$LN12@FollowThin:

; 423  : 		}
; 424  : 	}
; 425  : 	// ALERT( at_console, "%.0f\n", flSpeed );
; 426  : 
; 427  : 	SetNextThink( 0.1 );

	push	ecx
	movss	xmm0, DWORD PTR __real@3dcccccd
	movss	DWORD PTR [esp], xmm0
	mov	eax, DWORD PTR _this$[ebp]
	mov	edx, DWORD PTR [eax]
	mov	ecx, DWORD PTR _this$[ebp]
	mov	eax, DWORD PTR [edx+80]
	call	eax

; 428  : }

	pop	edi
	pop	esi
	pop	ebx
	mov	esp, ebp
	pop	ebp
	ret	0
?FollowThink@CRpgRocket@@QAEXXZ ENDP			; CRpgRocket::FollowThink
_TEXT	ENDS
; Function compile flags: /Odtp /ZI
; File d:\!diffusion 2020\source code 2022\client-server\server\weapons\weapon_rpg.cpp
;	COMDAT ?Precache@CRpgRocket@@UAEXXZ
_TEXT	SEGMENT
_this$ = -4						; size = 4
?Precache@CRpgRocket@@UAEXXZ PROC			; CRpgRocket::Precache, COMDAT
; _this$ = ecx

; 150  : {

	push	ebp
	mov	ebp, esp
	sub	esp, 68					; 00000044H
	push	ebx
	push	esi
	push	edi
	mov	DWORD PTR _this$[ebp], ecx

; 151  : 	PRECACHE_MODEL( "models/rpgrocket.mdl" );

	push	OFFSET ??_C@_0BF@JALHEJDN@models?1rpgrocket?4mdl?$AA@
	call	DWORD PTR ?g_engfuncs@@3Uenginefuncs_s@@A
	add	esp, 4

; 152  : 	m_iTrail = PRECACHE_MODEL( "sprites/smoke.spr" );

	push	OFFSET ??_C@_0BC@DDAJIPKB@sprites?1smoke?4spr?$AA@
	call	DWORD PTR ?g_engfuncs@@3Uenginefuncs_s@@A
	add	esp, 4
	mov	ecx, DWORD PTR _this$[ebp]
	mov	DWORD PTR [ecx+2516], eax

; 153  : 	PRECACHE_SOUND( "weapons/rocket1.wav" );

	push	OFFSET ??_C@_0BE@OFLJKELP@weapons?1rocket1?4wav?$AA@
	call	DWORD PTR ?g_engfuncs@@3Uenginefuncs_s@@A+4
	add	esp, 4

; 154  : 	PRECACHE_SOUND( "weapons/rpg_shotdown.wav" );

	push	OFFSET ??_C@_0BJ@NMPKGCCP@weapons?1rpg_shotdown?4wav?$AA@
	call	DWORD PTR ?g_engfuncs@@3Uenginefuncs_s@@A+4
	add	esp, 4

; 155  : }

	pop	edi
	pop	esi
	pop	ebx
	mov	esp, ebp
	pop	ebp
	ret	0
?Precache@CRpgRocket@@UAEXXZ ENDP			; CRpgRocket::Precache
_TEXT	ENDS
; Function compile flags: /Odtp /ZI
; File d:\!diffusion 2020\source code 2022\client-server\server\weapons\weapon_rpg.cpp
;	COMDAT ?Spawn@CRpgRocket@@UAEXXZ
_TEXT	SEGMENT
tv272 = -132						; size = 4
$T1 = -128						; size = 12
$T2 = -116						; size = 12
$T3 = -104						; size = 12
$T4 = -92						; size = 12
_angles$ = -16						; size = 12
_this$ = -4						; size = 4
?Spawn@CRpgRocket@@UAEXXZ PROC				; CRpgRocket::Spawn, COMDAT
; _this$ = ecx

; 158  : {

	push	ebp
	mov	ebp, esp
	sub	esp, 132				; 00000084H
	push	ebx
	push	esi
	push	edi
	mov	DWORD PTR _this$[ebp], ecx

; 159  : 	Precache( );

	mov	eax, DWORD PTR _this$[ebp]
	mov	edx, DWORD PTR [eax]
	mov	ecx, DWORD PTR _this$[ebp]
	mov	eax, DWORD PTR [edx+8]
	call	eax

; 160  : 	// motor
; 161  : 	pev->movetype = MOVETYPE_BOUNCE;

	mov	eax, DWORD PTR _this$[ebp]
	mov	ecx, DWORD PTR [eax+4]
	mov	DWORD PTR [ecx+264], 10			; 0000000aH

; 162  : 	pev->solid = SOLID_BBOX;

	mov	eax, DWORD PTR _this$[ebp]
	mov	ecx, DWORD PTR [eax+4]
	mov	DWORD PTR [ecx+268], 2

; 163  : 
; 164  : 	// diffusion - helicopter can take down this rocket now
; 165  : 	pev->takedamage = DAMAGE_AIM;

	mov	eax, DWORD PTR _this$[ebp]
	mov	ecx, DWORD PTR [eax+4]
	movss	xmm0, DWORD PTR __real@40000000
	movss	DWORD PTR [ecx+364], xmm0

; 166  : 
; 167  : 	SET_MODEL(ENT(pev), "models/rpgrocket.mdl");

	push	OFFSET ??_C@_0BF@JALHEJDN@models?1rpgrocket?4mdl?$AA@
	mov	eax, DWORD PTR _this$[ebp]
	mov	ecx, DWORD PTR [eax+4]
	push	ecx
	call	?ENT@@YAPAUedict_s@@PBUentvars_s@@@Z	; ENT
	add	esp, 4
	push	eax
	call	DWORD PTR ?g_engfuncs@@3Uenginefuncs_s@@A+8
	add	esp, 8

; 168  : //	UTIL_SetSize(pev, Vector( 0, 0, 0), Vector(0, 0, 0));
; 169  : 	UTIL_SetSize( this, -Vector( 4, 4, 4 ), Vector( 4, 4, 4 ) );

	push	ecx
	movss	xmm0, DWORD PTR __real@40800000
	movss	DWORD PTR [esp], xmm0
	push	ecx
	movss	xmm0, DWORD PTR __real@40800000
	movss	DWORD PTR [esp], xmm0
	push	ecx
	movss	xmm0, DWORD PTR __real@40800000
	movss	DWORD PTR [esp], xmm0
	lea	ecx, DWORD PTR $T4[ebp]
	call	??0Vector@@QAE@MMM@Z			; Vector::Vector
	push	eax
	lea	eax, DWORD PTR $T2[ebp]
	push	eax
	push	ecx
	movss	xmm0, DWORD PTR __real@40800000
	movss	DWORD PTR [esp], xmm0
	push	ecx
	movss	xmm0, DWORD PTR __real@40800000
	movss	DWORD PTR [esp], xmm0
	push	ecx
	movss	xmm0, DWORD PTR __real@40800000
	movss	DWORD PTR [esp], xmm0
	lea	ecx, DWORD PTR $T3[ebp]
	call	??0Vector@@QAE@MMM@Z			; Vector::Vector
	mov	ecx, eax
	call	??GVector@@QBE?AV0@XZ			; Vector::operator-
	push	eax
	mov	ecx, DWORD PTR _this$[ebp]
	push	ecx
	call	?UTIL_SetSize@@YAXPAVCBaseEntity@@ABVVector@@1@Z ; UTIL_SetSize
	add	esp, 12					; 0000000cH

; 170  : 	RelinkEntity( TRUE );

	push	0
	push	0
	push	1
	mov	ecx, DWORD PTR _this$[ebp]
	call	?RelinkEntity@CBaseEntity@@QAEXHPBVVector@@H@Z ; CBaseEntity::RelinkEntity

; 171  : 
; 172  : 	pev->classname = MAKE_STRING("rpg_rocket");

	push	OFFSET ??_C@_0L@MFNEJJJF@rpg_rocket?$AA@
	call	DWORD PTR ?g_engfuncs@@3Uenginefuncs_s@@A+268
	add	esp, 4
	mov	ecx, DWORD PTR _this$[ebp]
	mov	edx, DWORD PTR [ecx+4]
	mov	DWORD PTR [edx], eax

; 173  : 
; 174  : 	SetThink(&CRpgRocket::IgniteThink );

	push	OFFSET ??_C@_0BJ@GKJDGPEJ@?$CGCRpgRocket?3?3IgniteThink?$AA@
	push	OFFSET ?IgniteThink@CRpgRocket@@QAEXXZ	; CRpgRocket::IgniteThink
	mov	ecx, DWORD PTR _this$[ebp]
	call	?ThinkSet@CBaseEntity@@QAEP81@AEXXZP81@AEXXZPAD@Z ; CBaseEntity::ThinkSet

; 175  : 	SetTouch( &CGrenade::ExplodeTouch );

	push	OFFSET ??_C@_0BI@OOPPOBKK@?$CGCGrenade?3?3ExplodeTouch?$AA@
	push	OFFSET ?ExplodeTouch@CGrenade@@QAEXPAVCBaseEntity@@@Z ; CGrenade::ExplodeTouch
	mov	ecx, DWORD PTR _this$[ebp]
	call	?TouchSet@CBaseEntity@@QAEP81@AEXPAV1@@ZP81@AEX0@ZPAD@Z ; CBaseEntity::TouchSet

; 176  : 
; 177  : 	Vector angles = GetLocalAngles();

	mov	ecx, DWORD PTR _this$[ebp]
	call	?GetLocalAngles@CBaseEntity@@QBEABVVector@@XZ ; CBaseEntity::GetLocalAngles
	push	eax
	lea	ecx, DWORD PTR _angles$[ebp]
	call	??0Vector@@QAE@ABV0@@Z			; Vector::Vector

; 178  : 
; 179  : 	if( !(pev->effects & EF_UPSIDEDOWN) )

	mov	eax, DWORD PTR _this$[ebp]
	mov	ecx, DWORD PTR [eax+4]
	mov	edx, DWORD PTR [ecx+280]
	and	edx, 4194304				; 00400000H
	jne	SHORT $LN2@Spawn

; 180  : 		angles.x -= 30;

	movss	xmm0, DWORD PTR _angles$[ebp]
	subss	xmm0, DWORD PTR __real@41f00000
	movss	DWORD PTR _angles$[ebp], xmm0
$LN2@Spawn:

; 181  : 
; 182  : 	UTIL_MakeVectors( angles );

	lea	eax, DWORD PTR _angles$[ebp]
	push	eax
	call	?UTIL_MakeVectors@@YAXABVVector@@@Z	; UTIL_MakeVectors
	add	esp, 4

; 183  : 
; 184  : 	SetLocalVelocity( gpGlobals->v_forward * 250 );

	push	ecx
	movss	xmm0, DWORD PTR __real@437a0000
	movss	DWORD PTR [esp], xmm0
	lea	eax, DWORD PTR $T1[ebp]
	push	eax
	mov	ecx, DWORD PTR ?gpGlobals@@3PAUglobalvars_t@@A ; gpGlobals
	add	ecx, 40					; 00000028H
	call	??DVector@@QBE?AV0@M@Z			; Vector::operator*
	push	eax
	mov	ecx, DWORD PTR _this$[ebp]
	call	?SetLocalVelocity@CBaseEntity@@QAEXABVVector@@@Z ; CBaseEntity::SetLocalVelocity

; 185  : 	pev->gravity = 0.5;

	mov	eax, DWORD PTR _this$[ebp]
	mov	ecx, DWORD PTR [eax+4]
	movss	xmm0, DWORD PTR __real@3f000000
	movss	DWORD PTR [ecx+284], xmm0

; 186  : 
; 187  : 	SetFlag(F_NOBACKCULL);

	push	262144					; 00040000H
	mov	eax, DWORD PTR _this$[ebp]
	mov	edx, DWORD PTR [eax]
	mov	ecx, DWORD PTR _this$[ebp]
	mov	eax, DWORD PTR [edx+276]
	call	eax

; 188  : 
; 189  : 	SetNextThink( 0.4 );

	push	ecx
	movss	xmm0, DWORD PTR __real@3ecccccd
	movss	DWORD PTR [esp], xmm0
	mov	eax, DWORD PTR _this$[ebp]
	mov	edx, DWORD PTR [eax]
	mov	ecx, DWORD PTR _this$[ebp]
	mov	eax, DWORD PTR [edx+80]
	call	eax

; 190  : 
; 191  : 	pev->dmg = 135;

	mov	eax, DWORD PTR _this$[ebp]
	mov	ecx, DWORD PTR [eax+4]
	movss	xmm0, DWORD PTR __real@43070000
	movss	DWORD PTR [ecx+480], xmm0

; 192  : 	
; 193  : 	if( pev->owner )

	mov	eax, DWORD PTR _this$[ebp]
	mov	ecx, DWORD PTR [eax+4]
	cmp	DWORD PTR [ecx+408], 0
	je	SHORT $LN4@Spawn

; 194  : 	{
; 195  : 		m_hOwner = Instance( pev->owner );

	mov	eax, DWORD PTR _this$[ebp]
	mov	ecx, DWORD PTR [eax+4]
	mov	edx, DWORD PTR [ecx+408]
	push	edx
	call	?Instance@CBaseEntity@@SAPAV1@PAUedict_s@@@Z ; CBaseEntity::Instance
	add	esp, 4
	push	eax
	mov	ecx, DWORD PTR _this$[ebp]
	add	ecx, 1796				; 00000704H
	call	??4EHANDLE@@QAEPAVCBaseEntity@@PAV1@@Z	; EHANDLE::operator=

; 196  : 		m_iClass = m_hOwner->Classify();

	mov	ecx, DWORD PTR _this$[ebp]
	add	ecx, 1796				; 00000704H
	call	??CEHANDLE@@QAEPAVCBaseEntity@@XZ	; EHANDLE::operator->
	mov	DWORD PTR tv272[ebp], eax
	mov	eax, DWORD PTR tv272[ebp]
	mov	edx, DWORD PTR [eax]
	mov	ecx, DWORD PTR tv272[ebp]
	mov	eax, DWORD PTR [edx+68]
	call	eax
	mov	ecx, DWORD PTR _this$[ebp]
	mov	DWORD PTR [ecx+2464], eax

; 197  : 		if( m_iClass == CLASS_PLAYER )

	mov	eax, DWORD PTR _this$[ebp]
	cmp	DWORD PTR [eax+2464], 2
	jne	SHORT $LN4@Spawn

; 198  : 			m_iClass = CLASS_PLAYER_ALLY;

	mov	eax, DWORD PTR _this$[ebp]
	mov	DWORD PTR [eax+2464], 11		; 0000000bH
$LN4@Spawn:

; 199  : 	}
; 200  : }

	pop	edi
	pop	esi
	pop	ebx
	mov	esp, ebp
	pop	ebp
	ret	0
?Spawn@CRpgRocket@@UAEXXZ ENDP				; CRpgRocket::Spawn
_TEXT	ENDS
; Function compile flags: /Odtp /ZI
;	COMDAT ??__FnameHolder@?1???$DataMapInit@VCRpg@@@@YAPAUdatamap_s@@PAVCRpg@@@Z@YAXXZ
text$yd	SEGMENT
??__FnameHolder@?1???$DataMapInit@VCRpg@@@@YAPAUdatamap_s@@PAVCRpg@@@Z@YAXXZ PROC ; `DataMapInit<CRpg>'::`2'::`dynamic atexit destructor for 'nameHolder'', COMDAT
	push	ebp
	mov	ebp, esp
	sub	esp, 64					; 00000040H
	push	ebx
	push	esi
	push	edi
	mov	ecx, OFFSET ?nameHolder@?1???$DataMapInit@VCRpg@@@@YAPAUdatamap_s@@PAVCRpg@@@Z@4VCDatadescGeneratedNameHolder@@A
	call	??1CDatadescGeneratedNameHolder@@QAE@XZ	; CDatadescGeneratedNameHolder::~CDatadescGeneratedNameHolder
	pop	edi
	pop	esi
	pop	ebx
	mov	esp, ebp
	pop	ebp
	ret	0
??__FnameHolder@?1???$DataMapInit@VCRpg@@@@YAPAUdatamap_s@@PAVCRpg@@@Z@YAXXZ ENDP ; `DataMapInit<CRpg>'::`2'::`dynamic atexit destructor for 'nameHolder''
text$yd	ENDS
; Function compile flags: /Odtp /ZI
; File d:\!diffusion 2020\source code 2022\client-server\server\weapons\weapon_rpg.cpp
;	COMDAT ??__Eg_DataMapHolder@CRpg_DataDescInit@@YAXXZ
text$di	SEGMENT
??__Eg_DataMapHolder@CRpg_DataDescInit@@YAXXZ PROC	; CRpg_DataDescInit::`dynamic initializer for 'g_DataMapHolder'', COMDAT

; 72   : BEGIN_DATADESC( CRpg )

	push	ebp
	mov	ebp, esp
	sub	esp, 64					; 00000040H
	push	ebx
	push	esi
	push	edi
	push	0
	call	??$DataMapInit@VCRpg@@@@YAPAUdatamap_s@@PAVCRpg@@@Z ; DataMapInit<CRpg>
	add	esp, 4
	mov	DWORD PTR ?g_DataMapHolder@CRpg_DataDescInit@@3PAUdatamap_s@@A, eax ; CRpg_DataDescInit::g_DataMapHolder
	pop	edi
	pop	esi
	pop	ebx
	mov	esp, ebp
	pop	ebp
	ret	0
??__Eg_DataMapHolder@CRpg_DataDescInit@@YAXXZ ENDP	; CRpg_DataDescInit::`dynamic initializer for 'g_DataMapHolder''
text$di	ENDS
; Function compile flags: /Odtp /ZI
; File d:\!diffusion 2020\source code 2022\client-server\server\weapons\weapon_rpg.cpp
;	COMDAT ??$DataMapInit@VCRpg@@@@YAPAUdatamap_s@@PAVCRpg@@@Z
_TEXT	SEGMENT
__$EHRec$ = -12						; size = 12
___formal$ = 8						; size = 4
??$DataMapInit@VCRpg@@@@YAPAUdatamap_s@@PAVCRpg@@@Z PROC ; DataMapInit<CRpg>, COMDAT

; 72   : BEGIN_DATADESC( CRpg )

	push	ebp
	mov	ebp, esp
	push	-1
	push	__ehhandler$??$DataMapInit@VCRpg@@@@YAPAUdatamap_s@@PAVCRpg@@@Z
	mov	eax, DWORD PTR fs:0
	push	eax
	sub	esp, 64					; 00000040H
	push	ebx
	push	esi
	push	edi
	mov	eax, DWORD PTR ___security_cookie
	xor	eax, ebp
	push	eax
	lea	eax, DWORD PTR __$EHRec$[ebp]
	mov	DWORD PTR fs:0, eax
	mov	eax, DWORD PTR __tls_index
	mov	ecx, DWORD PTR fs:__tls_array
	mov	edx, DWORD PTR [ecx+eax*4]
	mov	eax, DWORD PTR ?$TSS0@?1???$DataMapInit@VCRpg@@@@YAPAUdatamap_s@@PAVCRpg@@@Z@4HA
	cmp	eax, DWORD PTR __Init_thread_epoch[edx]
	jle	SHORT $LN2@DataMapIni
	push	OFFSET ?$TSS0@?1???$DataMapInit@VCRpg@@@@YAPAUdatamap_s@@PAVCRpg@@@Z@4HA
	call	__Init_thread_header
	add	esp, 4
	cmp	DWORD PTR ?$TSS0@?1???$DataMapInit@VCRpg@@@@YAPAUdatamap_s@@PAVCRpg@@@Z@4HA, -1
	jne	SHORT $LN2@DataMapIni
	mov	DWORD PTR __$EHRec$[ebp+8], 0
	push	OFFSET ??_C@_04DJMHHIGC@CRpg?$AA@
	mov	ecx, OFFSET ?nameHolder@?1???$DataMapInit@VCRpg@@@@YAPAUdatamap_s@@PAVCRpg@@@Z@4VCDatadescGeneratedNameHolder@@A
	call	??0CDatadescGeneratedNameHolder@@QAE@PBD@Z ; CDatadescGeneratedNameHolder::CDatadescGeneratedNameHolder
	push	OFFSET ??__FnameHolder@?1???$DataMapInit@VCRpg@@@@YAPAUdatamap_s@@PAVCRpg@@@Z@YAXXZ ; `DataMapInit<CRpg>'::`2'::`dynamic atexit destructor for 'nameHolder''
	call	_atexit
	add	esp, 4
	mov	DWORD PTR __$EHRec$[ebp+8], -1
	push	OFFSET ?$TSS0@?1???$DataMapInit@VCRpg@@@@YAPAUdatamap_s@@PAVCRpg@@@Z@4HA
	call	__Init_thread_footer
	add	esp, 4
$LN2@DataMapIni:

; 73   : 	DEFINE_FIELD( m_fSpotActive, FIELD_INTEGER ),
; 74   : 	DEFINE_FIELD( m_cActiveRockets, FIELD_INTEGER ),
; 75   : END_DATADESC()

	call	?GetBaseMap@CRpg@@SAPAUdatamap_s@@XZ	; CRpg::GetBaseMap
	mov	DWORD PTR ?m_DataMap@CRpg@@2Udatamap_s@@A+12, eax
	mov	eax, 1
	test	eax, eax
	je	SHORT $LN3@DataMapIni
	mov	DWORD PTR ?m_DataMap@CRpg@@2Udatamap_s@@A+4, 2
	mov	eax, 24					; 00000018H
	shl	eax, 0
	add	eax, OFFSET ?dataDesc@?1???$DataMapInit@VCRpg@@@@YAPAUdatamap_s@@PAVCRpg@@@Z@4PAUtypedescription_s@@A
	mov	DWORD PTR ?m_DataMap@CRpg@@2Udatamap_s@@A, eax
	jmp	SHORT $LN4@DataMapIni
$LN3@DataMapIni:
	mov	DWORD PTR ?m_DataMap@CRpg@@2Udatamap_s@@A+4, 1
	mov	DWORD PTR ?m_DataMap@CRpg@@2Udatamap_s@@A, OFFSET ?dataDesc@?1???$DataMapInit@VCRpg@@@@YAPAUdatamap_s@@PAVCRpg@@@Z@4PAUtypedescription_s@@A
$LN4@DataMapIni:
	mov	eax, OFFSET ?m_DataMap@CRpg@@2Udatamap_s@@A ; CRpg::m_DataMap
	mov	ecx, DWORD PTR __$EHRec$[ebp]
	mov	DWORD PTR fs:0, ecx
	pop	ecx
	pop	edi
	pop	esi
	pop	ebx
	mov	esp, ebp
	pop	ebp
	ret	0
_TEXT	ENDS
;	COMDAT text$x
text$x	SEGMENT
__unwindfunclet$??$DataMapInit@VCRpg@@@@YAPAUdatamap_s@@PAVCRpg@@@Z$0:
	push	OFFSET ?$TSS0@?1???$DataMapInit@VCRpg@@@@YAPAUdatamap_s@@PAVCRpg@@@Z@4HA
	call	__Init_thread_abort
	pop	ecx
	ret	0
__ehhandler$??$DataMapInit@VCRpg@@@@YAPAUdatamap_s@@PAVCRpg@@@Z:
	mov	edx, DWORD PTR [esp+8]
	lea	eax, DWORD PTR [edx+12]
	mov	ecx, DWORD PTR [edx-80]
	xor	ecx, eax
	call	@__security_check_cookie@4
	mov	eax, OFFSET __ehfuncinfo$??$DataMapInit@VCRpg@@@@YAPAUdatamap_s@@PAVCRpg@@@Z
	jmp	___CxxFrameHandler3
text$x	ENDS
??$DataMapInit@VCRpg@@@@YAPAUdatamap_s@@PAVCRpg@@@Z ENDP ; DataMapInit<CRpg>
; Function compile flags: /Odtp /ZI
; File d:\!diffusion 2020\source code 2022\client-server\common\datamap.h
;	COMDAT ??$DataMapAccess@VCBasePlayerWeapon@@@@YAXPAVCBasePlayerWeapon@@PAPAUdatamap_s@@@Z
_TEXT	SEGMENT
_ignored$ = 8						; size = 4
_p$ = 12						; size = 4
??$DataMapAccess@VCBasePlayerWeapon@@@@YAXPAVCBasePlayerWeapon@@PAPAUdatamap_s@@@Z PROC ; DataMapAccess<CBasePlayerWeapon>, COMDAT

; 184  : {

	push	ebp
	mov	ebp, esp
	sub	esp, 64					; 00000040H
	push	ebx
	push	esi
	push	edi

; 185  : 	*p = &T::m_DataMap;

	mov	eax, DWORD PTR _p$[ebp]
	mov	DWORD PTR [eax], OFFSET ?m_DataMap@CBasePlayerWeapon@@2Udatamap_s@@A ; CBasePlayerWeapon::m_DataMap

; 186  : }

	pop	edi
	pop	esi
	pop	ebx
	mov	esp, ebp
	pop	ebp
	ret	0
??$DataMapAccess@VCBasePlayerWeapon@@@@YAXPAVCBasePlayerWeapon@@PAPAUdatamap_s@@@Z ENDP ; DataMapAccess<CBasePlayerWeapon>
_TEXT	ENDS
; Function compile flags: /Odtp /ZI
; File d:\!diffusion 2020\source code 2022\client-server\server\weapons\weapon_rpg.cpp
;	COMDAT ??__Eweapon_rpg@@YAXXZ
text$di	SEGMENT
??__Eweapon_rpg@@YAXXZ PROC				; `dynamic initializer for 'weapon_rpg'', COMDAT

; 70   : LINK_ENTITY_TO_CLASS( weapon_rpg, CRpg );

	push	ebp
	mov	ebp, esp
	sub	esp, 64					; 00000040H
	push	ebx
	push	esi
	push	edi
	push	OFFSET ??_C@_0L@NJNPDFDL@weapon_rpg?$AA@
	mov	ecx, OFFSET ?weapon_rpg@@3V?$CEntityFactory@VCRpg@@@@A
	call	??0?$CEntityFactory@VCRpg@@@@QAE@PBD@Z	; CEntityFactory<CRpg>::CEntityFactory<CRpg>
	pop	edi
	pop	esi
	pop	ebx
	mov	esp, ebp
	pop	ebp
	ret	0
??__Eweapon_rpg@@YAXXZ ENDP				; `dynamic initializer for 'weapon_rpg''
text$di	ENDS
; Function compile flags: /Odtp /ZI
; File d:\!diffusion 2020\source code 2022\client-server\server\util.h
;	COMDAT ?GetEntitySize@?$CEntityFactory@VCRpg@@@@UAEIXZ
_TEXT	SEGMENT
_this$ = -4						; size = 4
?GetEntitySize@?$CEntityFactory@VCRpg@@@@UAEIXZ PROC	; CEntityFactory<CRpg>::GetEntitySize, COMDAT
; _this$ = ecx

; 103  : 	{

	push	ebp
	mov	ebp, esp
	sub	esp, 68					; 00000044H
	push	ebx
	push	esi
	push	edi
	mov	DWORD PTR _this$[ebp], ecx

; 104  : 		return sizeof(T);

	mov	eax, 1936				; 00000790H

; 105  : 	}

	pop	edi
	pop	esi
	pop	ebx
	mov	esp, ebp
	pop	ebp
	ret	0
?GetEntitySize@?$CEntityFactory@VCRpg@@@@UAEIXZ ENDP	; CEntityFactory<CRpg>::GetEntitySize
_TEXT	ENDS
; Function compile flags: /Odtp /ZI
; File d:\!diffusion 2020\source code 2022\client-server\server\util.h
;	COMDAT ?Destroy@?$CEntityFactory@VCRpg@@@@UAEXPAVCBaseEntity@@@Z
_TEXT	SEGMENT
_this$ = -4						; size = 4
_pEntity$ = 8						; size = 4
?Destroy@?$CEntityFactory@VCRpg@@@@UAEXPAVCBaseEntity@@@Z PROC ; CEntityFactory<CRpg>::Destroy, COMDAT
; _this$ = ecx

; 98   : 	{

	push	ebp
	mov	ebp, esp
	sub	esp, 68					; 00000044H
	push	ebx
	push	esi
	push	edi
	mov	DWORD PTR _this$[ebp], ecx

; 99   : 		UTIL_Remove( pEntity );

	mov	eax, DWORD PTR _pEntity$[ebp]
	push	eax
	call	?UTIL_Remove@@YAXPAVCBaseEntity@@@Z	; UTIL_Remove
	add	esp, 4

; 100  : 	}

	pop	edi
	pop	esi
	pop	ebx
	mov	esp, ebp
	pop	ebp
	ret	4
?Destroy@?$CEntityFactory@VCRpg@@@@UAEXPAVCBaseEntity@@@Z ENDP ; CEntityFactory<CRpg>::Destroy
_TEXT	ENDS
; Function compile flags: /Odtp /ZI
; File d:\!diffusion 2020\source code 2022\client-server\server\util.h
;	COMDAT ?Create@?$CEntityFactory@VCRpg@@@@UAEPAVCBaseEntity@@PBDPAUentvars_s@@@Z
_TEXT	SEGMENT
_pEnt$ = -8						; size = 4
_this$ = -4						; size = 4
_pClassName$ = 8					; size = 4
_pev$ = 12						; size = 4
?Create@?$CEntityFactory@VCRpg@@@@UAEPAVCBaseEntity@@PBDPAUentvars_s@@@Z PROC ; CEntityFactory<CRpg>::Create, COMDAT
; _this$ = ecx

; 92   : 	{

	push	ebp
	mov	ebp, esp
	sub	esp, 72					; 00000048H
	push	ebx
	push	esi
	push	edi
	mov	DWORD PTR _this$[ebp], ecx

; 93   : 		T* pEnt = GetClassPtr((T*)pev, pClassName);

	mov	eax, DWORD PTR _pClassName$[ebp]
	push	eax
	mov	ecx, DWORD PTR _pev$[ebp]
	push	ecx
	call	??$GetClassPtr@VCRpg@@@@YAPAVCRpg@@PAV0@PBD@Z ; GetClassPtr<CRpg>
	add	esp, 8
	mov	DWORD PTR _pEnt$[ebp], eax

; 94   : 		return pEnt;

	mov	eax, DWORD PTR _pEnt$[ebp]

; 95   : 	}

	pop	edi
	pop	esi
	pop	ebx
	mov	esp, ebp
	pop	ebp
	ret	8
?Create@?$CEntityFactory@VCRpg@@@@UAEPAVCBaseEntity@@PBDPAUentvars_s@@@Z ENDP ; CEntityFactory<CRpg>::Create
_TEXT	ENDS
; Function compile flags: /Odtp /ZI
; File d:\!diffusion 2020\source code 2022\client-server\server\util.h
;	COMDAT ??0?$CEntityFactory@VCRpg@@@@QAE@PBD@Z
_TEXT	SEGMENT
tv76 = -72						; size = 4
_this$ = -4						; size = 4
_pClassName$ = 8					; size = 4
??0?$CEntityFactory@VCRpg@@@@QAE@PBD@Z PROC		; CEntityFactory<CRpg>::CEntityFactory<CRpg>, COMDAT
; _this$ = ecx

; 86   : 	CEntityFactory( const char *pClassName )

	push	ebp
	mov	ebp, esp
	sub	esp, 72					; 00000048H
	push	ebx
	push	esi
	push	edi
	mov	DWORD PTR _this$[ebp], ecx

; 87   : 	{

	mov	ecx, DWORD PTR _this$[ebp]
	call	??0IEntityFactory@@QAE@XZ
	mov	eax, DWORD PTR _this$[ebp]
	mov	DWORD PTR [eax], OFFSET ??_7?$CEntityFactory@VCRpg@@@@6B@

; 88   : 		EntityFactoryDictionary()->InstallFactory( this, pClassName );

	call	?EntityFactoryDictionary@@YAPAVIEntityFactoryDictionary@@XZ ; EntityFactoryDictionary
	mov	DWORD PTR tv76[ebp], eax
	mov	eax, DWORD PTR _pClassName$[ebp]
	push	eax
	mov	ecx, DWORD PTR _this$[ebp]
	push	ecx
	mov	edx, DWORD PTR tv76[ebp]
	mov	eax, DWORD PTR [edx]
	mov	ecx, DWORD PTR tv76[ebp]
	mov	edx, DWORD PTR [eax]
	call	edx

; 89   : 	}

	mov	eax, DWORD PTR _this$[ebp]
	pop	edi
	pop	esi
	pop	ebx
	mov	esp, ebp
	pop	ebp
	ret	4
??0?$CEntityFactory@VCRpg@@@@QAE@PBD@Z ENDP		; CEntityFactory<CRpg>::CEntityFactory<CRpg>
_TEXT	ENDS
; Function compile flags: /Odtp /ZI
;	COMDAT ??0CRpg@@QAE@XZ
_TEXT	SEGMENT
_this$ = -4						; size = 4
??0CRpg@@QAE@XZ PROC					; CRpg::CRpg, COMDAT
; _this$ = ecx
	push	ebp
	mov	ebp, esp
	sub	esp, 68					; 00000044H
	push	ebx
	push	esi
	push	edi
	mov	DWORD PTR _this$[ebp], ecx
	mov	ecx, DWORD PTR _this$[ebp]
	call	??0CBasePlayerWeapon@@QAE@XZ
	mov	eax, DWORD PTR _this$[ebp]
	mov	DWORD PTR [eax], OFFSET ??_7CRpg@@6B@
	mov	eax, DWORD PTR _this$[ebp]
	pop	edi
	pop	esi
	pop	ebx
	mov	esp, ebp
	pop	ebp
	ret	0
??0CRpg@@QAE@XZ ENDP					; CRpg::CRpg
_TEXT	ENDS
; Function compile flags: /Odtp /ZI
; File d:\!diffusion 2020\source code 2022\client-server\server\weapons\weapon_rpg.cpp
;	COMDAT ?ShouldWeaponIdle@CRpg@@UAEHXZ
_TEXT	SEGMENT
_this$ = -4						; size = 4
?ShouldWeaponIdle@CRpg@@UAEHXZ PROC			; CRpg::ShouldWeaponIdle, COMDAT
; _this$ = ecx

; 63   : 	BOOL ShouldWeaponIdle( void ) { return TRUE; };	// laser spot give updates from WeaponIdle

	push	ebp
	mov	ebp, esp
	sub	esp, 68					; 00000044H
	push	ebx
	push	esi
	push	edi
	mov	DWORD PTR _this$[ebp], ecx
	mov	eax, 1
	pop	edi
	pop	esi
	pop	ebx
	mov	esp, ebp
	pop	ebp
	ret	0
?ShouldWeaponIdle@CRpg@@UAEHXZ ENDP			; CRpg::ShouldWeaponIdle
_TEXT	ENDS
; Function compile flags: /Odtp /ZI
; File d:\!diffusion 2020\source code 2022\client-server\server\weapons\weapon_rpg.cpp
;	COMDAT ?UpdateSpot@CRpg@@QAEXXZ
_TEXT	SEGMENT
$T1 = -172						; size = 12
$T2 = -160						; size = 12
_tr$3 = -84						; size = 56
_vecAiming$4 = -28					; size = 12
_vecSrc$5 = -16						; size = 12
_this$ = -4						; size = 4
?UpdateSpot@CRpg@@QAEXXZ PROC				; CRpg::UpdateSpot, COMDAT
; _this$ = ecx

; 1071 : {

	push	ebp
	mov	ebp, esp
	sub	esp, 172				; 000000acH
	push	ebx
	push	esi
	push	edi
	mov	DWORD PTR _this$[ebp], ecx

; 1072 : 	if (m_fSpotActive)

	mov	eax, DWORD PTR _this$[ebp]
	cmp	DWORD PTR [eax+1932], 0
	je	$LN2@UpdateSpot

; 1073 : 	{
; 1074 : 		if (!m_pSpot)

	mov	eax, DWORD PTR _this$[ebp]
	cmp	DWORD PTR [eax+1924], 0
	jne	SHORT $LN4@UpdateSpot

; 1075 : 		{
; 1076 : 			m_pSpot = CLaserSpot::CreateSpot();

	call	?CreateSpot@CLaserSpot@@SAPAV1@XZ	; CLaserSpot::CreateSpot
	mov	ecx, DWORD PTR _this$[ebp]
	mov	DWORD PTR [ecx+1924], eax

; 1077 : 
; 1078 : 			if(m_pSpot) // diffusion - I need this to filter the spot in Addtofullpack

	mov	eax, DWORD PTR _this$[ebp]
	cmp	DWORD PTR [eax+1924], 0
	je	SHORT $LN4@UpdateSpot

; 1079 : 				m_pSpot->pev->owner = m_pPlayer->edict();

	mov	eax, DWORD PTR _this$[ebp]
	mov	ecx, DWORD PTR [eax+1856]
	call	?edict@CBaseEntity@@QAEPAUedict_s@@XZ	; CBaseEntity::edict
	mov	ecx, DWORD PTR _this$[ebp]
	mov	edx, DWORD PTR [ecx+1924]
	mov	ecx, DWORD PTR [edx+4]
	mov	DWORD PTR [ecx+408], eax
$LN4@UpdateSpot:

; 1080 : 		}
; 1081 : 
; 1082 : 		UTIL_MakeVectors( m_pPlayer->pev->v_angle );

	mov	eax, DWORD PTR _this$[ebp]
	mov	ecx, DWORD PTR [eax+1856]
	mov	edx, DWORD PTR [ecx+4]
	add	edx, 116				; 00000074H
	push	edx
	call	?UTIL_MakeVectors@@YAXABVVector@@@Z	; UTIL_MakeVectors
	add	esp, 4

; 1083 : 		Vector vecSrc = m_pPlayer->GetGunPosition( );

	lea	eax, DWORD PTR _vecSrc$5[ebp]
	push	eax
	mov	ecx, DWORD PTR _this$[ebp]
	mov	edx, DWORD PTR [ecx+1856]
	mov	eax, DWORD PTR _this$[ebp]
	mov	edx, DWORD PTR [edx]
	mov	ecx, DWORD PTR [eax+1856]
	mov	eax, DWORD PTR [edx+628]
	call	eax

; 1084 : 		Vector vecAiming = gpGlobals->v_forward;

	mov	eax, DWORD PTR ?gpGlobals@@3PAUglobalvars_t@@A ; gpGlobals
	add	eax, 40					; 00000028H
	push	eax
	lea	ecx, DWORD PTR _vecAiming$4[ebp]
	call	??0Vector@@QAE@ABV0@@Z			; Vector::Vector

; 1085 : 
; 1086 : 		TraceResult tr;

	lea	ecx, DWORD PTR _tr$3[ebp]
	call	??0gametrace_s@@QAE@XZ

; 1087 : 		UTIL_TraceLine ( vecSrc, vecSrc + vecAiming * 8192, dont_ignore_monsters, ENT(m_pPlayer->pev), &tr );

	lea	eax, DWORD PTR _tr$3[ebp]
	push	eax
	mov	ecx, DWORD PTR _this$[ebp]
	mov	edx, DWORD PTR [ecx+1856]
	mov	eax, DWORD PTR [edx+4]
	push	eax
	call	?ENT@@YAPAUedict_s@@PBUentvars_s@@@Z	; ENT
	add	esp, 4
	push	eax
	push	0
	push	ecx
	movss	xmm0, DWORD PTR __real@46000000
	movss	DWORD PTR [esp], xmm0
	lea	ecx, DWORD PTR $T2[ebp]
	push	ecx
	lea	ecx, DWORD PTR _vecAiming$4[ebp]
	call	??DVector@@QBE?AV0@M@Z			; Vector::operator*
	push	eax
	lea	edx, DWORD PTR $T1[ebp]
	push	edx
	lea	ecx, DWORD PTR _vecSrc$5[ebp]
	call	??HVector@@QBE?AV0@ABV0@@Z		; Vector::operator+
	push	eax
	lea	eax, DWORD PTR _vecSrc$5[ebp]
	push	eax
	call	?UTIL_TraceLine@@YAXABVVector@@0W4IGNORE_MONSTERS@@PAUedict_s@@PAUgametrace_s@@@Z ; UTIL_TraceLine
	add	esp, 20					; 00000014H

; 1088 : 		UTIL_SetOrigin( m_pSpot, tr.vecEndPos );

	lea	eax, DWORD PTR _tr$3[ebp+20]
	push	eax
	mov	ecx, DWORD PTR _this$[ebp]
	mov	edx, DWORD PTR [ecx+1924]
	push	edx
	call	?UTIL_SetOrigin@@YAXPAVCBaseEntity@@ABVVector@@@Z ; UTIL_SetOrigin
	add	esp, 8
$LN2@UpdateSpot:

; 1089 : 	}
; 1090 : }

	pop	edi
	pop	esi
	pop	ebx
	mov	esp, ebp
	pop	ebp
	ret	0
?UpdateSpot@CRpg@@QAEXXZ ENDP				; CRpg::UpdateSpot
_TEXT	ENDS
; Function compile flags: /Odtp /ZI
; File d:\!diffusion 2020\source code 2022\client-server\server\weapons\weapon_rpg.cpp
;	COMDAT ?WeaponIdle@CRpg@@UAEXXZ
_TEXT	SEGMENT
_flRand$1 = -12						; size = 4
_iAnim$2 = -8						; size = 4
_this$ = -4						; size = 4
?WeaponIdle@CRpg@@UAEXXZ PROC				; CRpg::WeaponIdle, COMDAT
; _this$ = ecx

; 1031 : {

	push	ebp
	mov	ebp, esp
	sub	esp, 76					; 0000004cH
	push	ebx
	push	esi
	push	edi
	mov	DWORD PTR _this$[ebp], ecx

; 1032 : 	UpdateSpot( );

	mov	ecx, DWORD PTR _this$[ebp]
	call	?UpdateSpot@CRpg@@QAEXXZ		; CRpg::UpdateSpot

; 1033 : 
; 1034 : 	ResetEmptySound( );

	mov	eax, DWORD PTR _this$[ebp]
	mov	edx, DWORD PTR [eax]
	mov	ecx, DWORD PTR _this$[ebp]
	mov	eax, DWORD PTR [edx+468]
	call	eax

; 1035 : 
; 1036 : 	if (m_flTimeWeaponIdle > gpGlobals->time)

	mov	eax, DWORD PTR _this$[ebp]
	mov	ecx, DWORD PTR ?gpGlobals@@3PAUglobalvars_t@@A ; gpGlobals
	movss	xmm0, DWORD PTR [eax+1892]
	comiss	xmm0, DWORD PTR [ecx]
	jbe	SHORT $LN2@WeaponIdle

; 1037 : 		return;

	jmp	$LN1@WeaponIdle
$LN2@WeaponIdle:

; 1038 : 
; 1039 : 	if (m_pPlayer->m_rgAmmo[m_iPrimaryAmmoType])

	mov	eax, DWORD PTR _this$[ebp]
	mov	ecx, DWORD PTR [eax+1856]
	mov	edx, DWORD PTR _this$[ebp]
	mov	eax, DWORD PTR [edx+1896]
	cmp	DWORD PTR [ecx+eax*4+3628], 0
	je	$LN3@WeaponIdle

; 1040 : 	{
; 1041 : 		int iAnim;
; 1042 : 		float flRand = RANDOM_FLOAT(0, 1);

	push	ecx
	movss	xmm0, DWORD PTR __real@3f800000
	movss	DWORD PTR [esp], xmm0
	push	ecx
	xorps	xmm0, xmm0
	movss	DWORD PTR [esp], xmm0
	call	DWORD PTR ?g_engfuncs@@3Uenginefuncs_s@@A+364
	add	esp, 8
	fstp	DWORD PTR _flRand$1[ebp]

; 1043 : 		if (flRand <= 0.75 || m_fSpotActive)

	cvtss2sd xmm0, DWORD PTR _flRand$1[ebp]
	movsd	xmm1, QWORD PTR __real@3fe8000000000000
	comisd	xmm1, xmm0
	jae	SHORT $LN7@WeaponIdle
	mov	eax, DWORD PTR _this$[ebp]
	cmp	DWORD PTR [eax+1932], 0
	je	SHORT $LN5@WeaponIdle
$LN7@WeaponIdle:

; 1044 : 		{
; 1045 : 			if ( m_iClip == 0 )

	mov	eax, DWORD PTR _this$[ebp]
	cmp	DWORD PTR [eax+1904], 0
	jne	SHORT $LN8@WeaponIdle

; 1046 : 				iAnim = RPG_IDLE_UL;

	mov	DWORD PTR _iAnim$2[ebp], 8

; 1047 : 			else

	jmp	SHORT $LN9@WeaponIdle
$LN8@WeaponIdle:

; 1048 : 				iAnim = RPG_IDLE;

	mov	DWORD PTR _iAnim$2[ebp], 0
$LN9@WeaponIdle:

; 1049 : 
; 1050 : 			m_flTimeWeaponIdle = gpGlobals->time + 90.0 / 15.0;

	mov	eax, DWORD PTR ?gpGlobals@@3PAUglobalvars_t@@A ; gpGlobals
	cvtss2sd xmm0, DWORD PTR [eax]
	addsd	xmm0, QWORD PTR __real@4018000000000000
	cvtsd2ss xmm0, xmm0
	mov	ecx, DWORD PTR _this$[ebp]
	movss	DWORD PTR [ecx+1892], xmm0

; 1051 : 		}
; 1052 : 		else

	jmp	SHORT $LN6@WeaponIdle
$LN5@WeaponIdle:

; 1053 : 		{
; 1054 : 			if ( m_iClip == 0 )

	mov	eax, DWORD PTR _this$[ebp]
	cmp	DWORD PTR [eax+1904], 0
	jne	SHORT $LN10@WeaponIdle

; 1055 : 				iAnim = RPG_FIDGET_UL;

	mov	DWORD PTR _iAnim$2[ebp], 9

; 1056 : 			else

	jmp	SHORT $LN11@WeaponIdle
$LN10@WeaponIdle:

; 1057 : 				iAnim = RPG_FIDGET;

	mov	DWORD PTR _iAnim$2[ebp], 1
$LN11@WeaponIdle:

; 1058 : 
; 1059 : 			m_flTimeWeaponIdle = gpGlobals->time + 3.0;

	mov	eax, DWORD PTR ?gpGlobals@@3PAUglobalvars_t@@A ; gpGlobals
	cvtss2sd xmm0, DWORD PTR [eax]
	addsd	xmm0, QWORD PTR __real@4008000000000000
	cvtsd2ss xmm0, xmm0
	mov	ecx, DWORD PTR _this$[ebp]
	movss	DWORD PTR [ecx+1892], xmm0
$LN6@WeaponIdle:

; 1060 : 		}
; 1061 : 
; 1062 : 		SendWeaponAnim( iAnim );

	push	0
	push	0
	mov	eax, DWORD PTR _iAnim$2[ebp]
	push	eax
	mov	ecx, DWORD PTR _this$[ebp]
	mov	edx, DWORD PTR [ecx]
	mov	ecx, DWORD PTR _this$[ebp]
	mov	eax, DWORD PTR [edx+472]
	call	eax

; 1063 : 	}
; 1064 : 	else

	jmp	SHORT $LN4@WeaponIdle
$LN3@WeaponIdle:

; 1065 : 	{
; 1066 : 		m_flTimeWeaponIdle = gpGlobals->time + 1;

	mov	eax, DWORD PTR ?gpGlobals@@3PAUglobalvars_t@@A ; gpGlobals
	movss	xmm0, DWORD PTR [eax]
	addss	xmm0, DWORD PTR __real@3f800000
	mov	ecx, DWORD PTR _this$[ebp]
	movss	DWORD PTR [ecx+1892], xmm0
$LN4@WeaponIdle:
$LN1@WeaponIdle:

; 1067 : 	}
; 1068 : }

	pop	edi
	pop	esi
	pop	ebx
	mov	esp, ebp
	pop	ebp
	ret	0
?WeaponIdle@CRpg@@UAEXXZ ENDP				; CRpg::WeaponIdle
_TEXT	ENDS
; Function compile flags: /Odtp /ZI
; File d:\!diffusion 2020\source code 2022\client-server\server\weapons\weapon_rpg.cpp
;	COMDAT ?SecondaryAttack@CRpg@@UAEXXZ
_TEXT	SEGMENT
tv67 = -72						; size = 4
_this$ = -4						; size = 4
?SecondaryAttack@CRpg@@UAEXXZ PROC			; CRpg::SecondaryAttack, COMDAT
; _this$ = ecx

; 972  : {

	push	ebp
	mov	ebp, esp
	sub	esp, 72					; 00000048H
	push	ebx
	push	esi
	push	edi
	mov	DWORD PTR _this$[ebp], ecx

; 973  : 	m_fSpotActive = ! m_fSpotActive;

	mov	eax, DWORD PTR _this$[ebp]
	cmp	DWORD PTR [eax+1932], 0
	jne	SHORT $LN4@SecondaryA
	mov	DWORD PTR tv67[ebp], 1
	jmp	SHORT $LN5@SecondaryA
$LN4@SecondaryA:
	mov	DWORD PTR tv67[ebp], 0
$LN5@SecondaryA:
	mov	ecx, DWORD PTR _this$[ebp]
	mov	edx, DWORD PTR tv67[ebp]
	mov	DWORD PTR [ecx+1932], edx

; 974  : 
; 975  : 	if (!m_fSpotActive && m_pSpot)

	mov	eax, DWORD PTR _this$[ebp]
	cmp	DWORD PTR [eax+1932], 0
	jne	SHORT $LN2@SecondaryA
	mov	eax, DWORD PTR _this$[ebp]
	cmp	DWORD PTR [eax+1924], 0
	je	SHORT $LN2@SecondaryA

; 976  : 	{
; 977  : 		m_pSpot->Killed( NULL, GIB_NORMAL );

	push	0
	push	0
	mov	eax, DWORD PTR _this$[ebp]
	mov	ecx, DWORD PTR [eax+1924]
	mov	edx, DWORD PTR _this$[ebp]
	mov	eax, DWORD PTR [ecx]
	mov	ecx, DWORD PTR [edx+1924]
	mov	edx, DWORD PTR [eax+108]
	call	edx

; 978  : 		m_pSpot = NULL;

	mov	eax, DWORD PTR _this$[ebp]
	mov	DWORD PTR [eax+1924], 0
$LN2@SecondaryA:

; 979  : 	}
; 980  : 
; 981  : 	m_flNextSecondaryAttack = gpGlobals->time + 0.2;

	mov	eax, DWORD PTR ?gpGlobals@@3PAUglobalvars_t@@A ; gpGlobals
	cvtss2sd xmm0, DWORD PTR [eax]
	addsd	xmm0, QWORD PTR __real@3fc999999999999a
	cvtsd2ss xmm0, xmm0
	mov	ecx, DWORD PTR _this$[ebp]
	movss	DWORD PTR [ecx+1888], xmm0

; 982  : }

	pop	edi
	pop	esi
	pop	ebx
	mov	esp, ebp
	pop	ebp
	ret	0
?SecondaryAttack@CRpg@@UAEXXZ ENDP			; CRpg::SecondaryAttack
_TEXT	ENDS
; Function compile flags: /Odtp /ZI
; File d:\!diffusion 2020\source code 2022\client-server\server\weapons\weapon_rpg.cpp
;	COMDAT ?PrimaryAttack@CRpg@@UAEXXZ
_TEXT	SEGMENT
$T1 = -188						; size = 12
$T2 = -176						; size = 12
$T3 = -156						; size = 12
$T4 = -144						; size = 12
$T5 = -132						; size = 12
$T6 = -120						; size = 12
$T7 = -108						; size = 12
$T8 = -96						; size = 12
_pRocket$9 = -20					; size = 4
_vecSrc$10 = -16					; size = 12
_this$ = -4						; size = 4
?PrimaryAttack@CRpg@@UAEXXZ PROC			; CRpg::PrimaryAttack, COMDAT
; _this$ = ecx

; 925  : {

	push	ebp
	mov	ebp, esp
	sub	esp, 192				; 000000c0H
	push	ebx
	push	esi
	push	edi
	mov	DWORD PTR _this$[ebp], ecx

; 926  : 	if (m_iClip)

	mov	eax, DWORD PTR _this$[ebp]
	cmp	DWORD PTR [eax+1904], 0
	je	$LN2@PrimaryAtt

; 927  : 	{
; 928  : 		m_pPlayer->m_iWeaponVolume = LOUD_GUN_VOLUME;

	mov	eax, DWORD PTR _this$[ebp]
	mov	ecx, DWORD PTR [eax+1856]
	mov	DWORD PTR [ecx+2504], 1000		; 000003e8H

; 929  : 		m_pPlayer->m_iWeaponFlash = BRIGHT_GUN_FLASH;

	mov	eax, DWORD PTR _this$[ebp]
	mov	ecx, DWORD PTR [eax+1856]
	mov	DWORD PTR [ecx+2512], 512		; 00000200H

; 930  : 
; 931  : 		SendWeaponAnim( RPG_FIRE2 );

	push	0
	push	0
	push	3
	mov	eax, DWORD PTR _this$[ebp]
	mov	edx, DWORD PTR [eax]
	mov	ecx, DWORD PTR _this$[ebp]
	mov	eax, DWORD PTR [edx+472]
	call	eax

; 932  : 
; 933  : 		// player "shoot" animation
; 934  : 		m_pPlayer->SetAnimation( PLAYER_ATTACK1 );

	push	5
	mov	eax, DWORD PTR _this$[ebp]
	mov	ecx, DWORD PTR [eax+1856]
	call	?SetAnimation@CBasePlayer@@QAEXW4PLAYER_ANIM@@@Z ; CBasePlayer::SetAnimation

; 935  : 
; 936  : 		UTIL_MakeVectors( m_pPlayer->pev->v_angle );

	mov	eax, DWORD PTR _this$[ebp]
	mov	ecx, DWORD PTR [eax+1856]
	mov	edx, DWORD PTR [ecx+4]
	add	edx, 116				; 00000074H
	push	edx
	call	?UTIL_MakeVectors@@YAXABVVector@@@Z	; UTIL_MakeVectors
	add	esp, 4

; 937  : 		Vector vecSrc = m_pPlayer->GetGunPosition( ) + gpGlobals->v_forward * 16 + gpGlobals->v_right * 8 + gpGlobals->v_up * -8;

	push	ecx
	movss	xmm0, DWORD PTR __real@c1000000
	movss	DWORD PTR [esp], xmm0
	lea	eax, DWORD PTR $T3[ebp]
	push	eax
	mov	ecx, DWORD PTR ?gpGlobals@@3PAUglobalvars_t@@A ; gpGlobals
	add	ecx, 52					; 00000034H
	call	??DVector@@QBE?AV0@M@Z			; Vector::operator*
	push	eax
	lea	ecx, DWORD PTR _vecSrc$10[ebp]
	push	ecx
	push	ecx
	movss	xmm0, DWORD PTR __real@41000000
	movss	DWORD PTR [esp], xmm0
	lea	edx, DWORD PTR $T5[ebp]
	push	edx
	mov	ecx, DWORD PTR ?gpGlobals@@3PAUglobalvars_t@@A ; gpGlobals
	add	ecx, 64					; 00000040H
	call	??DVector@@QBE?AV0@M@Z			; Vector::operator*
	push	eax
	lea	eax, DWORD PTR $T4[ebp]
	push	eax
	push	ecx
	movss	xmm0, DWORD PTR __real@41800000
	movss	DWORD PTR [esp], xmm0
	lea	ecx, DWORD PTR $T7[ebp]
	push	ecx
	mov	ecx, DWORD PTR ?gpGlobals@@3PAUglobalvars_t@@A ; gpGlobals
	add	ecx, 40					; 00000028H
	call	??DVector@@QBE?AV0@M@Z			; Vector::operator*
	push	eax
	lea	edx, DWORD PTR $T6[ebp]
	push	edx
	lea	eax, DWORD PTR $T8[ebp]
	push	eax
	mov	ecx, DWORD PTR _this$[ebp]
	mov	edx, DWORD PTR [ecx+1856]
	mov	eax, DWORD PTR _this$[ebp]
	mov	edx, DWORD PTR [edx]
	mov	ecx, DWORD PTR [eax+1856]
	mov	eax, DWORD PTR [edx+628]
	call	eax
	mov	ecx, eax
	call	??HVector@@QBE?AV0@ABV0@@Z		; Vector::operator+
	mov	ecx, eax
	call	??HVector@@QBE?AV0@ABV0@@Z		; Vector::operator+
	mov	ecx, eax
	call	??HVector@@QBE?AV0@ABV0@@Z		; Vector::operator+

; 938  : 		
; 939  : 		CRpgRocket *pRocket = CRpgRocket::CreateRpgRocket( vecSrc, m_pPlayer->pev->v_angle, m_pPlayer, this );

	mov	eax, DWORD PTR _this$[ebp]
	push	eax
	mov	ecx, DWORD PTR _this$[ebp]
	mov	edx, DWORD PTR [ecx+1856]
	push	edx
	mov	eax, DWORD PTR _this$[ebp]
	mov	ecx, DWORD PTR [eax+1856]
	mov	edx, DWORD PTR [ecx+4]
	add	edx, 116				; 00000074H
	sub	esp, 12					; 0000000cH
	mov	ecx, esp
	push	edx
	call	??0Vector@@QAE@ABV0@@Z			; Vector::Vector
	sub	esp, 12					; 0000000cH
	mov	ecx, esp
	lea	eax, DWORD PTR _vecSrc$10[ebp]
	push	eax
	call	??0Vector@@QAE@ABV0@@Z			; Vector::Vector
	call	?CreateRpgRocket@CRpgRocket@@SAPAV1@VVector@@0PAVCBaseEntity@@PAVCRpg@@@Z ; CRpgRocket::CreateRpgRocket
	add	esp, 32					; 00000020H
	mov	DWORD PTR _pRocket$9[ebp], eax

; 940  : 
; 941  : 		UTIL_MakeVectors( m_pPlayer->pev->v_angle );// RpgRocket::Create stomps on globals, so remake.

	mov	eax, DWORD PTR _this$[ebp]
	mov	ecx, DWORD PTR [eax+1856]
	mov	edx, DWORD PTR [ecx+4]
	add	edx, 116				; 00000074H
	push	edx
	call	?UTIL_MakeVectors@@YAXABVVector@@@Z	; UTIL_MakeVectors
	add	esp, 4

; 942  : 		if( pRocket ) // diffusion - safety check

	cmp	DWORD PTR _pRocket$9[ebp], 0
	je	$LN4@PrimaryAtt

; 943  : 		{
; 944  : 			pRocket->SetLocalVelocity( pRocket->GetLocalVelocity() + gpGlobals->v_forward * DotProduct( m_pPlayer->GetAbsVelocity(), gpGlobals->v_forward ) );

	mov	eax, DWORD PTR ?gpGlobals@@3PAUglobalvars_t@@A ; gpGlobals
	add	eax, 40					; 00000028H
	push	eax
	mov	ecx, DWORD PTR _this$[ebp]
	mov	ecx, DWORD PTR [ecx+1856]
	call	?GetAbsVelocity@CBaseEntity@@QBEABVVector@@XZ ; CBaseEntity::GetAbsVelocity
	push	eax
	call	?DotProduct@@YAMABVVector@@0@Z		; DotProduct
	add	esp, 4
	fstp	DWORD PTR [esp]
	lea	edx, DWORD PTR $T2[ebp]
	push	edx
	mov	ecx, DWORD PTR ?gpGlobals@@3PAUglobalvars_t@@A ; gpGlobals
	add	ecx, 40					; 00000028H
	call	??DVector@@QBE?AV0@M@Z			; Vector::operator*
	push	eax
	lea	eax, DWORD PTR $T1[ebp]
	push	eax
	mov	ecx, DWORD PTR _pRocket$9[ebp]
	call	?GetLocalVelocity@CBaseEntity@@QBEABVVector@@XZ ; CBaseEntity::GetLocalVelocity
	mov	ecx, eax
	call	??HVector@@QBE?AV0@ABV0@@Z		; Vector::operator+
	push	eax
	mov	ecx, DWORD PTR _pRocket$9[ebp]
	call	?SetLocalVelocity@CBaseEntity@@QAEXABVVector@@@Z ; CBaseEntity::SetLocalVelocity

; 945  : 
; 946  : 			// firing RPG no longer turns on the designator. ALT fire is a toggle switch for the LTD.
; 947  : 			// Ken signed up for this as a global change (sjb)
; 948  : 		//	EMIT_SOUND( m_pPlayer->edict(), CHAN_WEAPON, "weapons/rocketfire1.wav", 0.9, ATTN_NORM );
; 949  : 		//	EMIT_SOUND( m_pPlayer->edict(), CHAN_ITEM, "weapons/glauncher.wav", 0.7, ATTN_NORM );
; 950  : 			PlayClientSound( m_pPlayer, WEAPON_RPG );

	sub	esp, 12					; 0000000cH
	mov	ecx, esp
	push	OFFSET ?g_vecZero@@3VVector@@B		; g_vecZero
	call	??0Vector@@QAE@ABV0@@Z			; Vector::Vector
	push	0
	push	0
	push	8
	mov	eax, DWORD PTR _this$[ebp]
	mov	ecx, DWORD PTR [eax+1856]
	push	ecx
	call	?PlayClientSound@@YAXPAVCBaseEntity@@HHHVVector@@@Z ; PlayClientSound
	add	esp, 28					; 0000001cH

; 951  : 
; 952  : 			if( m_pPlayer->LoudWeaponsRestricted )

	mov	eax, DWORD PTR _this$[ebp]
	mov	ecx, DWORD PTR [eax+1856]
	movzx	edx, BYTE PTR [ecx+5004]
	test	edx, edx
	je	SHORT $LN5@PrimaryAtt

; 953  : 				m_pPlayer->FireLoudWeaponRestrictionEntity();

	mov	eax, DWORD PTR _this$[ebp]
	mov	ecx, DWORD PTR [eax+1856]
	call	?FireLoudWeaponRestrictionEntity@CBasePlayer@@QAEXXZ ; CBasePlayer::FireLoudWeaponRestrictionEntity
$LN5@PrimaryAtt:

; 954  : 
; 955  : 			m_iClip--;

	mov	eax, DWORD PTR _this$[ebp]
	mov	ecx, DWORD PTR [eax+1904]
	sub	ecx, 1
	mov	edx, DWORD PTR _this$[ebp]
	mov	DWORD PTR [edx+1904], ecx

; 956  : 
; 957  : 			m_flNextPrimaryAttack = gpGlobals->time + 1.5;

	mov	eax, DWORD PTR ?gpGlobals@@3PAUglobalvars_t@@A ; gpGlobals
	cvtss2sd xmm0, DWORD PTR [eax]
	addsd	xmm0, QWORD PTR __real@3ff8000000000000
	cvtsd2ss xmm0, xmm0
	mov	ecx, DWORD PTR _this$[ebp]
	movss	DWORD PTR [ecx+1884], xmm0

; 958  : 			m_flTimeWeaponIdle = gpGlobals->time + 1.5;

	mov	eax, DWORD PTR ?gpGlobals@@3PAUglobalvars_t@@A ; gpGlobals
	cvtss2sd xmm0, DWORD PTR [eax]
	addsd	xmm0, QWORD PTR __real@3ff8000000000000
	cvtsd2ss xmm0, xmm0
	mov	ecx, DWORD PTR _this$[ebp]
	movss	DWORD PTR [ecx+1892], xmm0

; 959  : 			m_pPlayer->pev->punchangle.x -= 5;

	mov	eax, DWORD PTR _this$[ebp]
	mov	ecx, DWORD PTR [eax+1856]
	mov	edx, DWORD PTR [ecx+4]
	movss	xmm0, DWORD PTR [edx+104]
	subss	xmm0, DWORD PTR __real@40a00000
	mov	eax, DWORD PTR _this$[ebp]
	mov	ecx, DWORD PTR [eax+1856]
	mov	edx, DWORD PTR [ecx+4]
	movss	DWORD PTR [edx+104], xmm0
$LN4@PrimaryAtt:

; 960  : 		}
; 961  : 	}
; 962  : 	else

	jmp	SHORT $LN3@PrimaryAtt
$LN2@PrimaryAtt:

; 963  : 	{
; 964  : 		CLIENT_COMMAND(m_pPlayer->edict(), "-attack\n");

	push	OFFSET ??_C@_08MNDBFPDE@?9attack?6?$AA@
	mov	eax, DWORD PTR _this$[ebp]
	mov	ecx, DWORD PTR [eax+1856]
	call	?edict@CBaseEntity@@QAEPAUedict_s@@XZ	; CBaseEntity::edict
	push	eax
	call	DWORD PTR ?g_engfuncs@@3Uenginefuncs_s@@A+164
	add	esp, 8

; 965  : 		PlayEmptySound( );

	mov	eax, DWORD PTR _this$[ebp]
	mov	edx, DWORD PTR [eax]
	mov	ecx, DWORD PTR _this$[ebp]
	mov	eax, DWORD PTR [edx+464]
	call	eax

; 966  : 		m_flNextPrimaryAttack = gpGlobals->time + 0.2;

	mov	eax, DWORD PTR ?gpGlobals@@3PAUglobalvars_t@@A ; gpGlobals
	cvtss2sd xmm0, DWORD PTR [eax]
	addsd	xmm0, QWORD PTR __real@3fc999999999999a
	cvtsd2ss xmm0, xmm0
	mov	ecx, DWORD PTR _this$[ebp]
	movss	DWORD PTR [ecx+1884], xmm0
$LN3@PrimaryAtt:

; 967  : 	}
; 968  : 	UpdateSpot( );

	mov	ecx, DWORD PTR _this$[ebp]
	call	?UpdateSpot@CRpg@@QAEXXZ		; CRpg::UpdateSpot

; 969  : }

	pop	edi
	pop	esi
	pop	ebx
	mov	esp, ebp
	pop	ebp
	ret	0
?PrimaryAttack@CRpg@@UAEXXZ ENDP			; CRpg::PrimaryAttack
_TEXT	ENDS
; Function compile flags: /Odtp /ZI
; File d:\!diffusion 2020\source code 2022\client-server\server\weapons\weapon_rpg.cpp
;	COMDAT ?Holster@CRpg@@UAEXXZ
_TEXT	SEGMENT
_this$ = -4						; size = 4
?Holster@CRpg@@UAEXXZ PROC				; CRpg::Holster, COMDAT
; _this$ = ecx

; 911  : {

	push	ebp
	mov	ebp, esp
	sub	esp, 68					; 00000044H
	push	ebx
	push	esi
	push	edi
	mov	DWORD PTR _this$[ebp], ecx

; 912  : 	m_pPlayer->m_flNextAttack = gpGlobals->time + 0.5;

	mov	eax, DWORD PTR ?gpGlobals@@3PAUglobalvars_t@@A ; gpGlobals
	cvtss2sd xmm0, DWORD PTR [eax]
	addsd	xmm0, QWORD PTR __real@3fe0000000000000
	cvtsd2ss xmm0, xmm0
	mov	ecx, DWORD PTR _this$[ebp]
	mov	edx, DWORD PTR [ecx+1856]
	movss	DWORD PTR [edx+2348], xmm0

; 913  : 	// m_flTimeWeaponIdle = gpGlobals->time + RANDOM_FLOAT ( 10, 15 );
; 914  : 	SendWeaponAnim( RPG_HOLSTER1 );

	push	0
	push	0
	push	4
	mov	eax, DWORD PTR _this$[ebp]
	mov	edx, DWORD PTR [eax]
	mov	ecx, DWORD PTR _this$[ebp]
	mov	eax, DWORD PTR [edx+472]
	call	eax

; 915  : 	if (m_pSpot)

	mov	eax, DWORD PTR _this$[ebp]
	cmp	DWORD PTR [eax+1924], 0
	je	SHORT $LN2@Holster

; 916  : 	{
; 917  : 		m_pSpot->Killed( NULL, GIB_NEVER );

	push	1
	push	0
	mov	eax, DWORD PTR _this$[ebp]
	mov	ecx, DWORD PTR [eax+1924]
	mov	edx, DWORD PTR _this$[ebp]
	mov	eax, DWORD PTR [ecx]
	mov	ecx, DWORD PTR [edx+1924]
	mov	edx, DWORD PTR [eax+108]
	call	edx

; 918  : 		m_pSpot = NULL;

	mov	eax, DWORD PTR _this$[ebp]
	mov	DWORD PTR [eax+1924], 0
$LN2@Holster:

; 919  : 	}
; 920  : 
; 921  : 	BaseClass::Holster();

	mov	ecx, DWORD PTR _this$[ebp]
	call	?Holster@CBasePlayerWeapon@@UAEXXZ	; CBasePlayerWeapon::Holster

; 922  : }

	pop	edi
	pop	esi
	pop	ebx
	mov	esp, ebp
	pop	ebp
	ret	0
?Holster@CRpg@@UAEXXZ ENDP				; CRpg::Holster
_TEXT	ENDS
; Function compile flags: /Odtp /ZI
; File d:\!diffusion 2020\source code 2022\client-server\server\weapons\weapon_rpg.cpp
;	COMDAT ?CanHolster@CRpg@@UAEHXZ
_TEXT	SEGMENT
_this$ = -4						; size = 4
?CanHolster@CRpg@@UAEHXZ PROC				; CRpg::CanHolster, COMDAT
; _this$ = ecx

; 900  : {

	push	ebp
	mov	ebp, esp
	sub	esp, 68					; 00000044H
	push	ebx
	push	esi
	push	edi
	mov	DWORD PTR _this$[ebp], ecx

; 901  : 	if ( m_fSpotActive && m_cActiveRockets > 0 )

	mov	eax, DWORD PTR _this$[ebp]
	cmp	DWORD PTR [eax+1932], 0
	je	SHORT $LN2@CanHolster
	mov	eax, DWORD PTR _this$[ebp]
	cmp	DWORD PTR [eax+1928], 0
	jle	SHORT $LN2@CanHolster

; 902  : 	{
; 903  : 		// can't put away while guiding a missile.
; 904  : 		return FALSE;

	xor	eax, eax
	jmp	SHORT $LN1@CanHolster
$LN2@CanHolster:

; 905  : 	}
; 906  : 
; 907  : 	return TRUE;

	mov	eax, 1
$LN1@CanHolster:

; 908  : }

	pop	edi
	pop	esi
	pop	ebx
	mov	esp, ebp
	pop	ebp
	ret	0
?CanHolster@CRpg@@UAEHXZ ENDP				; CRpg::CanHolster
_TEXT	ENDS
; Function compile flags: /Odtp /ZI
; File d:\!diffusion 2020\source code 2022\client-server\server\weapons\weapon_rpg.cpp
;	COMDAT ?Deploy@CRpg@@UAEHXZ
_TEXT	SEGMENT
_this$ = -4						; size = 4
?Deploy@CRpg@@UAEHXZ PROC				; CRpg::Deploy, COMDAT
; _this$ = ecx

; 889  : {

	push	ebp
	mov	ebp, esp
	sub	esp, 68					; 00000044H
	push	ebx
	push	esi
	push	edi
	mov	DWORD PTR _this$[ebp], ecx

; 890  : 	m_flTimeWeaponIdle = gpGlobals->time + 5.0;

	mov	eax, DWORD PTR ?gpGlobals@@3PAUglobalvars_t@@A ; gpGlobals
	cvtss2sd xmm0, DWORD PTR [eax]
	addsd	xmm0, QWORD PTR __real@4014000000000000
	cvtsd2ss xmm0, xmm0
	mov	ecx, DWORD PTR _this$[ebp]
	movss	DWORD PTR [ecx+1892], xmm0

; 891  : 
; 892  : 	if ( m_iClip == 0 )

	mov	eax, DWORD PTR _this$[ebp]
	cmp	DWORD PTR [eax+1904], 0
	jne	SHORT $LN2@Deploy

; 893  : 		return DefaultDeploy( "models/v_rpg.mdl", "models/p_rpg.mdl", RPG_DRAW_UL, "rpg" );

	push	0
	push	0
	push	OFFSET ??_C@_03GBMANNME@rpg?$AA@
	push	7
	push	OFFSET ??_C@_0BB@IPEABBGA@models?1p_rpg?4mdl?$AA@
	push	OFFSET ??_C@_0BB@ICFOGBCH@models?1v_rpg?4mdl?$AA@
	mov	ecx, DWORD PTR _this$[ebp]
	call	?DefaultDeploy@CBasePlayerWeapon@@QAEHPAD0H0HH@Z ; CBasePlayerWeapon::DefaultDeploy
	jmp	SHORT $LN1@Deploy
$LN2@Deploy:

; 894  : 
; 895  : 	return DefaultDeploy( "models/v_rpg.mdl", "models/p_rpg.mdl", RPG_DRAW1, "rpg" );

	push	0
	push	0
	push	OFFSET ??_C@_03GBMANNME@rpg?$AA@
	push	5
	push	OFFSET ??_C@_0BB@IPEABBGA@models?1p_rpg?4mdl?$AA@
	push	OFFSET ??_C@_0BB@ICFOGBCH@models?1v_rpg?4mdl?$AA@
	mov	ecx, DWORD PTR _this$[ebp]
	call	?DefaultDeploy@CBasePlayerWeapon@@QAEHPAD0H0HH@Z ; CBasePlayerWeapon::DefaultDeploy
$LN1@Deploy:

; 896  : }

	pop	edi
	pop	esi
	pop	ebx
	mov	esp, ebp
	pop	ebp
	ret	0
?Deploy@CRpg@@UAEHXZ ENDP				; CRpg::Deploy
_TEXT	ENDS
; Function compile flags: /Odtp /ZI
; File d:\!diffusion 2020\source code 2022\client-server\server\weapons\weapon_rpg.cpp
;	COMDAT ?GetDataDescMap@CRpg@@UAEPAUdatamap_s@@XZ
_TEXT	SEGMENT
_this$ = -4						; size = 4
?GetDataDescMap@CRpg@@UAEPAUdatamap_s@@XZ PROC		; CRpg::GetDataDescMap, COMDAT
; _this$ = ecx

; 72   : BEGIN_DATADESC( CRpg )

	push	ebp
	mov	ebp, esp
	sub	esp, 68					; 00000044H
	push	ebx
	push	esi
	push	edi
	mov	DWORD PTR _this$[ebp], ecx
	mov	eax, OFFSET ?m_DataMap@CRpg@@2Udatamap_s@@A ; CRpg::m_DataMap
	pop	edi
	pop	esi
	pop	ebx
	mov	esp, ebp
	pop	ebp
	ret	0
?GetDataDescMap@CRpg@@UAEPAUdatamap_s@@XZ ENDP		; CRpg::GetDataDescMap
_TEXT	ENDS
; Function compile flags: /Odtp /ZI
; File d:\!diffusion 2020\source code 2022\client-server\server\weapons\weapon_rpg.cpp
;	COMDAT ?GetBaseMap@CRpg@@SAPAUdatamap_s@@XZ
_TEXT	SEGMENT
_pResult$ = -4						; size = 4
?GetBaseMap@CRpg@@SAPAUdatamap_s@@XZ PROC		; CRpg::GetBaseMap, COMDAT

; 72   : BEGIN_DATADESC( CRpg )

	push	ebp
	mov	ebp, esp
	sub	esp, 68					; 00000044H
	push	ebx
	push	esi
	push	edi
	lea	eax, DWORD PTR _pResult$[ebp]
	push	eax
	push	0
	call	??$DataMapAccess@VCBasePlayerWeapon@@@@YAXPAVCBasePlayerWeapon@@PAPAUdatamap_s@@@Z ; DataMapAccess<CBasePlayerWeapon>
	add	esp, 8
	mov	eax, DWORD PTR _pResult$[ebp]
	pop	edi
	pop	esi
	pop	ebx
	mov	esp, ebp
	pop	ebp
	ret	0
?GetBaseMap@CRpg@@SAPAUdatamap_s@@XZ ENDP		; CRpg::GetBaseMap
_TEXT	ENDS
; Function compile flags: /Odtp /ZI
; File d:\!diffusion 2020\source code 2022\client-server\server\weapons\weapon_rpg.cpp
;	COMDAT ?AddToPlayer@CRpg@@UAEHPAVCBasePlayer@@@Z
_TEXT	SEGMENT
_this$ = -4						; size = 4
_pPlayer$ = 8						; size = 4
?AddToPlayer@CRpg@@UAEHPAVCBasePlayer@@@Z PROC		; CRpg::AddToPlayer, COMDAT
; _this$ = ecx

; 877  : {

	push	ebp
	mov	ebp, esp
	sub	esp, 68					; 00000044H
	push	ebx
	push	esi
	push	edi
	mov	DWORD PTR _this$[ebp], ecx

; 878  : 	if ( CBasePlayerWeapon::AddToPlayer( pPlayer ) )

	mov	eax, DWORD PTR _pPlayer$[ebp]
	push	eax
	mov	ecx, DWORD PTR _this$[ebp]
	call	?AddToPlayer@CBasePlayerWeapon@@UAEHPAVCBasePlayer@@@Z ; CBasePlayerWeapon::AddToPlayer
	test	eax, eax
	je	SHORT $LN2@AddToPlaye

; 879  : 	{
; 880  : 		MESSAGE_BEGIN( MSG_ONE, gmsgWeapPickup, NULL, pPlayer->pev );

	mov	eax, DWORD PTR _pPlayer$[ebp]
	mov	ecx, DWORD PTR [eax+4]
	push	ecx
	push	0
	mov	edx, DWORD PTR ?gmsgWeapPickup@@3HA	; gmsgWeapPickup
	push	edx
	push	1
	call	?MESSAGE_BEGIN@@YAXHHPBMPAUentvars_s@@@Z ; MESSAGE_BEGIN
	add	esp, 16					; 00000010H

; 881  : 			WRITE_BYTE( m_iId );

	mov	eax, DWORD PTR _this$[ebp]
	mov	ecx, DWORD PTR [eax+1864]
	push	ecx
	call	DWORD PTR ?g_engfuncs@@3Uenginefuncs_s@@A+192
	add	esp, 4

; 882  : 		MESSAGE_END();

	call	DWORD PTR ?g_engfuncs@@3Uenginefuncs_s@@A+188

; 883  : 		return TRUE;

	mov	eax, 1
	jmp	SHORT $LN1@AddToPlaye
$LN2@AddToPlaye:

; 884  : 	}
; 885  : 	return FALSE;

	xor	eax, eax
$LN1@AddToPlaye:

; 886  : }

	pop	edi
	pop	esi
	pop	ebx
	mov	esp, ebp
	pop	ebp
	ret	4
?AddToPlayer@CRpg@@UAEHPAVCBasePlayer@@@Z ENDP		; CRpg::AddToPlayer
_TEXT	ENDS
; Function compile flags: /Odtp /ZI
; File d:\!diffusion 2020\source code 2022\client-server\server\weapons\weapon_rpg.cpp
;	COMDAT ?GetItemInfo@CRpg@@UAEHPAUItemInfo@@@Z
_TEXT	SEGMENT
_this$ = -4						; size = 4
_p$ = 8							; size = 4
?GetItemInfo@CRpg@@UAEHPAUItemInfo@@@Z PROC		; CRpg::GetItemInfo, COMDAT
; _this$ = ecx

; 860  : {

	push	ebp
	mov	ebp, esp
	sub	esp, 68					; 00000044H
	push	ebx
	push	esi
	push	edi
	mov	DWORD PTR _this$[ebp], ecx

; 861  : 	p->pszName = STRING(pev->classname);

	mov	eax, DWORD PTR _this$[ebp]
	mov	ecx, DWORD PTR [eax+4]
	mov	edx, DWORD PTR [ecx]
	push	edx
	call	DWORD PTR ?g_engfuncs@@3Uenginefuncs_s@@A+264
	add	esp, 4
	mov	ecx, DWORD PTR _p$[ebp]
	mov	DWORD PTR [ecx+24], eax

; 862  : 	p->pszAmmo1 = "rockets";

	mov	eax, DWORD PTR _p$[ebp]
	mov	DWORD PTR [eax+8], OFFSET ??_C@_07DCMGFMFH@rockets?$AA@

; 863  : 	p->iMaxAmmo1 = ROCKET_MAX_CARRY;

	mov	eax, DWORD PTR _p$[ebp]
	mov	DWORD PTR [eax+12], 5

; 864  : 	p->pszAmmo2 = NULL;

	mov	eax, DWORD PTR _p$[ebp]
	mov	DWORD PTR [eax+16], 0

; 865  : 	p->iMaxAmmo2 = -1;

	mov	eax, DWORD PTR _p$[ebp]
	mov	DWORD PTR [eax+20], -1

; 866  : 	p->iMaxClip = RPG_MAX_CLIP;

	mov	eax, DWORD PTR _p$[ebp]
	mov	DWORD PTR [eax+28], 1

; 867  : 	p->iSlot = 3;

	mov	eax, DWORD PTR _p$[ebp]
	mov	DWORD PTR [eax], 3

; 868  : 	p->iPosition = 0;

	mov	eax, DWORD PTR _p$[ebp]
	mov	DWORD PTR [eax+4], 0

; 869  : 	p->iId = m_iId = WEAPON_RPG;

	mov	eax, DWORD PTR _this$[ebp]
	mov	DWORD PTR [eax+1864], 8
	mov	ecx, DWORD PTR _p$[ebp]
	mov	DWORD PTR [ecx+32], 8

; 870  : 	p->iFlags = 0;

	mov	eax, DWORD PTR _p$[ebp]
	mov	DWORD PTR [eax+36], 0

; 871  : 	p->iWeight = RPG_WEIGHT;

	mov	eax, DWORD PTR _p$[ebp]
	mov	DWORD PTR [eax+40], 20			; 00000014H

; 872  : 
; 873  : 	return 1;

	mov	eax, 1

; 874  : }

	pop	edi
	pop	esi
	pop	ebx
	mov	esp, ebp
	pop	ebp
	ret	4
?GetItemInfo@CRpg@@UAEHPAUItemInfo@@@Z ENDP		; CRpg::GetItemInfo
_TEXT	ENDS
; Function compile flags: /Odtp /ZI
; File d:\!diffusion 2020\source code 2022\client-server\server\weapons\weapon_rpg.cpp
;	COMDAT ?iItemSlot@CRpg@@UAEHXZ
_TEXT	SEGMENT
_this$ = -4						; size = 4
?iItemSlot@CRpg@@UAEHXZ PROC				; CRpg::iItemSlot, COMDAT
; _this$ = ecx

; 48   : 	int iItemSlot( void ) { return 4; }

	push	ebp
	mov	ebp, esp
	sub	esp, 68					; 00000044H
	push	ebx
	push	esi
	push	edi
	mov	DWORD PTR _this$[ebp], ecx
	mov	eax, 4
	pop	edi
	pop	esi
	pop	ebx
	mov	esp, ebp
	pop	ebp
	ret	0
?iItemSlot@CRpg@@UAEHXZ ENDP				; CRpg::iItemSlot
_TEXT	ENDS
; Function compile flags: /Odtp /ZI
; File d:\!diffusion 2020\source code 2022\client-server\server\weapons\weapon_rpg.cpp
;	COMDAT ?Reload@CRpg@@UAEXXZ
_TEXT	SEGMENT
tv181 = -76						; size = 4
_iResult$ = -8						; size = 4
_this$ = -4						; size = 4
?Reload@CRpg@@UAEXXZ PROC				; CRpg::Reload, COMDAT
; _this$ = ecx

; 985  : {

	push	ebp
	mov	ebp, esp
	sub	esp, 76					; 0000004cH
	push	ebx
	push	esi
	push	edi
	mov	DWORD PTR _this$[ebp], ecx

; 986  : 	int iResult;
; 987  : 
; 988  : 	if ( m_iClip == 1 )

	mov	eax, DWORD PTR _this$[ebp]
	cmp	DWORD PTR [eax+1904], 1
	jne	SHORT $LN2@Reload

; 989  : 	{
; 990  : 		// don't bother with any of this if don't need to reload.
; 991  : 		return;

	jmp	$LN1@Reload
$LN2@Reload:

; 992  : 	}
; 993  : 
; 994  : 	// because the RPG waits to autoreload when no missiles are active while  the LTD is on, the
; 995  : 	// weapons code is constantly calling into this function, but is often denied because 
; 996  : 	// a) missiles are in flight, but the LTD is on
; 997  : 	// or
; 998  : 	// b) player is totally out of ammo and has nothing to switch to, and should be allowed to
; 999  : 	//    shine the designator around
; 1000 : 	//
; 1001 : 	// Set the next attack time into the future so that WeaponIdle will get called more often
; 1002 : 	// than reload, allowing the RPG LTD to be updated
; 1003 : 	
; 1004 : 	m_flNextPrimaryAttack = gpGlobals->time + 0.5;

	mov	eax, DWORD PTR ?gpGlobals@@3PAUglobalvars_t@@A ; gpGlobals
	cvtss2sd xmm0, DWORD PTR [eax]
	addsd	xmm0, QWORD PTR __real@3fe0000000000000
	cvtsd2ss xmm0, xmm0
	mov	ecx, DWORD PTR _this$[ebp]
	movss	DWORD PTR [ecx+1884], xmm0

; 1005 : 
; 1006 : 	if ( m_cActiveRockets > 0 && m_fSpotActive )

	mov	eax, DWORD PTR _this$[ebp]
	cmp	DWORD PTR [eax+1928], 0
	jle	SHORT $LN3@Reload
	mov	eax, DWORD PTR _this$[ebp]
	cmp	DWORD PTR [eax+1932], 0
	je	SHORT $LN3@Reload

; 1007 : 	{
; 1008 : 		// no reloading when there are active missiles tracking the designator.
; 1009 : 		// ward off future autoreload attempts by setting next attack time into the future for a bit. 
; 1010 : 		return;

	jmp	$LN1@Reload
$LN3@Reload:

; 1011 : 	}
; 1012 : 
; 1013 : 	if (m_pSpot && m_fSpotActive)

	mov	eax, DWORD PTR _this$[ebp]
	cmp	DWORD PTR [eax+1924], 0
	je	SHORT $LN4@Reload
	mov	eax, DWORD PTR _this$[ebp]
	cmp	DWORD PTR [eax+1932], 0
	je	SHORT $LN4@Reload

; 1014 : 	{
; 1015 : 		m_pSpot->Suspend( 2.1 );

	push	ecx
	movss	xmm0, DWORD PTR __real@40066666
	movss	DWORD PTR [esp], xmm0
	mov	eax, DWORD PTR _this$[ebp]
	mov	ecx, DWORD PTR [eax+1924]
	call	?Suspend@CLaserSpot@@QAEXM@Z		; CLaserSpot::Suspend

; 1016 : 		m_flNextSecondaryAttack = gpGlobals->time + 2.1;

	mov	eax, DWORD PTR ?gpGlobals@@3PAUglobalvars_t@@A ; gpGlobals
	cvtss2sd xmm0, DWORD PTR [eax]
	addsd	xmm0, QWORD PTR __real@4000cccccccccccd
	cvtsd2ss xmm0, xmm0
	mov	ecx, DWORD PTR _this$[ebp]
	movss	DWORD PTR [ecx+1888], xmm0
$LN4@Reload:

; 1017 : 	}
; 1018 : 
; 1019 : 	if (m_iClip == 0)

	mov	eax, DWORD PTR _this$[ebp]
	cmp	DWORD PTR [eax+1904], 0
	jne	SHORT $LN5@Reload

; 1020 : 	{
; 1021 : 		iResult = DefaultReload( RPG_MAX_CLIP, RPG_RELOAD, 2 );

	push	0
	push	ecx
	movss	xmm0, DWORD PTR __real@40000000
	movss	DWORD PTR [esp], xmm0
	push	2
	push	1
	mov	ecx, DWORD PTR _this$[ebp]
	call	?DefaultReload@CBasePlayerWeapon@@QAEHHHMH@Z ; CBasePlayerWeapon::DefaultReload
	mov	DWORD PTR _iResult$[ebp], eax
$LN5@Reload:

; 1022 : 	}
; 1023 : 
; 1024 : 	if (iResult)

	cmp	DWORD PTR _iResult$[ebp], 0
	je	SHORT $LN6@Reload

; 1025 : 	{
; 1026 : 		m_flTimeWeaponIdle = gpGlobals->time + RANDOM_FLOAT ( 10, 15 );

	push	ecx
	movss	xmm0, DWORD PTR __real@41700000
	movss	DWORD PTR [esp], xmm0
	push	ecx
	movss	xmm0, DWORD PTR __real@41200000
	movss	DWORD PTR [esp], xmm0
	call	DWORD PTR ?g_engfuncs@@3Uenginefuncs_s@@A+364
	add	esp, 8
	fstp	DWORD PTR tv181[ebp]
	mov	eax, DWORD PTR ?gpGlobals@@3PAUglobalvars_t@@A ; gpGlobals
	movss	xmm0, DWORD PTR tv181[ebp]
	addss	xmm0, DWORD PTR [eax]
	mov	ecx, DWORD PTR _this$[ebp]
	movss	DWORD PTR [ecx+1892], xmm0
$LN6@Reload:
$LN1@Reload:

; 1027 : 	}
; 1028 : }

	pop	edi
	pop	esi
	pop	ebx
	mov	esp, ebp
	pop	ebp
	ret	0
?Reload@CRpg@@UAEXXZ ENDP				; CRpg::Reload
_TEXT	ENDS
; Function compile flags: /Odtp /ZI
; File d:\!diffusion 2020\source code 2022\client-server\server\weapons\weapon_rpg.cpp
;	COMDAT ?Precache@CRpg@@UAEXXZ
_TEXT	SEGMENT
_this$ = -4						; size = 4
?Precache@CRpg@@UAEXXZ PROC				; CRpg::Precache, COMDAT
; _this$ = ecx

; 845  : {

	push	ebp
	mov	ebp, esp
	sub	esp, 68					; 00000044H
	push	ebx
	push	esi
	push	edi
	mov	DWORD PTR _this$[ebp], ecx

; 846  : 	PRECACHE_MODEL("models/w_rpg.mdl");

	push	OFFSET ??_C@_0BB@GNJMAKBJ@models?1w_rpg?4mdl?$AA@
	call	DWORD PTR ?g_engfuncs@@3Uenginefuncs_s@@A
	add	esp, 4

; 847  : 	PRECACHE_MODEL("models/v_rpg.mdl");

	push	OFFSET ??_C@_0BB@ICFOGBCH@models?1v_rpg?4mdl?$AA@
	call	DWORD PTR ?g_engfuncs@@3Uenginefuncs_s@@A
	add	esp, 4

; 848  : 	PRECACHE_MODEL("models/p_rpg.mdl");

	push	OFFSET ??_C@_0BB@IPEABBGA@models?1p_rpg?4mdl?$AA@
	call	DWORD PTR ?g_engfuncs@@3Uenginefuncs_s@@A
	add	esp, 4

; 849  : 
; 850  : 	PRECACHE_SOUND("items/9mmclip1.wav");

	push	OFFSET ??_C@_0BD@BADMCPNB@items?19mmclip1?4wav?$AA@
	call	DWORD PTR ?g_engfuncs@@3Uenginefuncs_s@@A+4
	add	esp, 4

; 851  : 
; 852  : 	UTIL_PrecacheOther( "laser_spot" );

	push	OFFSET ??_C@_0L@PKAMAFCB@laser_spot?$AA@
	call	?UTIL_PrecacheOther@@YAXPBD@Z		; UTIL_PrecacheOther
	add	esp, 4

; 853  : 	UTIL_PrecacheOther( "rpg_rocket" );

	push	OFFSET ??_C@_0L@MFNEJJJF@rpg_rocket?$AA@
	call	?UTIL_PrecacheOther@@YAXPBD@Z		; UTIL_PrecacheOther
	add	esp, 4

; 854  : 
; 855  : 	PRECACHE_SOUND("weapons/rocketfire1.wav");

	push	OFFSET ??_C@_0BI@IJKHDNAN@weapons?1rocketfire1?4wav?$AA@
	call	DWORD PTR ?g_engfuncs@@3Uenginefuncs_s@@A+4
	add	esp, 4

; 856  : 	PRECACHE_SOUND("weapons/glauncher.wav"); // alternative fire sound

	push	OFFSET ??_C@_0BG@MDAACEKK@weapons?1glauncher?4wav?$AA@
	call	DWORD PTR ?g_engfuncs@@3Uenginefuncs_s@@A+4
	add	esp, 4

; 857  : }

	pop	edi
	pop	esi
	pop	ebx
	mov	esp, ebp
	pop	ebp
	ret	0
?Precache@CRpg@@UAEXXZ ENDP				; CRpg::Precache
_TEXT	ENDS
; Function compile flags: /Odtp /ZI
; File d:\!diffusion 2020\source code 2022\client-server\server\weapons\weapon_rpg.cpp
;	COMDAT ?Spawn@CRpg@@UAEXXZ
_TEXT	SEGMENT
_this$ = -4						; size = 4
?Spawn@CRpg@@UAEXXZ PROC				; CRpg::Spawn, COMDAT
; _this$ = ecx

; 824  : {

	push	ebp
	mov	ebp, esp
	sub	esp, 68					; 00000044H
	push	ebx
	push	esi
	push	edi
	mov	DWORD PTR _this$[ebp], ecx

; 825  : 	Precache( );

	mov	eax, DWORD PTR _this$[ebp]
	mov	edx, DWORD PTR [eax]
	mov	ecx, DWORD PTR _this$[ebp]
	mov	eax, DWORD PTR [edx+8]
	call	eax

; 826  : 	m_iId = WEAPON_RPG;

	mov	eax, DWORD PTR _this$[ebp]
	mov	DWORD PTR [eax+1864], 8

; 827  : 
; 828  : 	SET_MODEL(ENT(pev), "models/w_rpg.mdl");

	push	OFFSET ??_C@_0BB@GNJMAKBJ@models?1w_rpg?4mdl?$AA@
	mov	eax, DWORD PTR _this$[ebp]
	mov	ecx, DWORD PTR [eax+4]
	push	ecx
	call	?ENT@@YAPAUedict_s@@PBUentvars_s@@@Z	; ENT
	add	esp, 4
	push	eax
	call	DWORD PTR ?g_engfuncs@@3Uenginefuncs_s@@A+8
	add	esp, 8

; 829  : 	m_fSpotActive = 1;

	mov	eax, DWORD PTR _this$[ebp]
	mov	DWORD PTR [eax+1932], 1

; 830  : 
; 831  : 	if ( g_pGameRules->IsMultiplayer() )

	mov	eax, DWORD PTR ?g_pGameRules@@3PAVCGameRules@@A ; g_pGameRules
	mov	edx, DWORD PTR [eax]
	mov	ecx, DWORD PTR ?g_pGameRules@@3PAVCGameRules@@A ; g_pGameRules
	mov	eax, DWORD PTR [edx+24]
	call	eax
	test	eax, eax
	je	SHORT $LN2@Spawn

; 832  : 	{
; 833  : 		// more default ammo in multiplay. 
; 834  : 		m_iDefaultAmmo = RPG_DEFAULT_GIVE * 2;

	mov	eax, DWORD PTR _this$[ebp]
	mov	DWORD PTR [eax+1920], 2

; 835  : 	}
; 836  : 	else

	jmp	SHORT $LN3@Spawn
$LN2@Spawn:

; 837  : 	{
; 838  : 		m_iDefaultAmmo = RPG_DEFAULT_GIVE;

	mov	eax, DWORD PTR _this$[ebp]
	mov	DWORD PTR [eax+1920], 1
$LN3@Spawn:

; 839  : 	}
; 840  : 
; 841  : 	FallInit();// get ready to fall down.

	mov	ecx, DWORD PTR _this$[ebp]
	call	?FallInit@CBasePlayerItem@@QAEXXZ	; CBasePlayerItem::FallInit

; 842  : }

	pop	edi
	pop	esi
	pop	ebx
	mov	esp, ebp
	pop	ebp
	ret	0
?Spawn@CRpg@@UAEXXZ ENDP				; CRpg::Spawn
_TEXT	ENDS
; Function compile flags: /Odtp /ZI
;	COMDAT ??0CBasePlayerAmmo@@QAE@XZ
_TEXT	SEGMENT
_this$ = -4						; size = 4
??0CBasePlayerAmmo@@QAE@XZ PROC				; CBasePlayerAmmo::CBasePlayerAmmo, COMDAT
; _this$ = ecx
	push	ebp
	mov	ebp, esp
	sub	esp, 68					; 00000044H
	push	ebx
	push	esi
	push	edi
	mov	DWORD PTR _this$[ebp], ecx
	mov	ecx, DWORD PTR _this$[ebp]
	call	??0CBaseEntity@@QAE@XZ
	mov	eax, DWORD PTR _this$[ebp]
	mov	DWORD PTR [eax], OFFSET ??_7CBasePlayerAmmo@@6B@
	mov	eax, DWORD PTR _this$[ebp]
	pop	edi
	pop	esi
	pop	ebx
	mov	esp, ebp
	pop	ebp
	ret	0
??0CBasePlayerAmmo@@QAE@XZ ENDP				; CBasePlayerAmmo::CBasePlayerAmmo
_TEXT	ENDS
; Function compile flags: /Odtp /ZI
; File d:\!diffusion 2020\source code 2022\client-server\server\weapons\weapons.h
;	COMDAT ?AddAmmo@CBasePlayerAmmo@@UAEHPAVCBaseEntity@@@Z
_TEXT	SEGMENT
_this$ = -4						; size = 4
_pOther$ = 8						; size = 4
?AddAmmo@CBasePlayerAmmo@@UAEHPAVCBaseEntity@@@Z PROC	; CBasePlayerAmmo::AddAmmo, COMDAT
; _this$ = ecx

; 407  : 	virtual BOOL AddAmmo( CBaseEntity *pOther ) { return TRUE; };

	push	ebp
	mov	ebp, esp
	sub	esp, 68					; 00000044H
	push	ebx
	push	esi
	push	edi
	mov	DWORD PTR _this$[ebp], ecx
	mov	eax, 1
	pop	edi
	pop	esi
	pop	ebx
	mov	esp, ebp
	pop	ebp
	ret	4
?AddAmmo@CBasePlayerAmmo@@UAEHPAVCBaseEntity@@@Z ENDP	; CBasePlayerAmmo::AddAmmo
_TEXT	ENDS
; Function compile flags: /Odtp /ZI
;	COMDAT ??0CBasePlayerWeapon@@QAE@XZ
_TEXT	SEGMENT
_this$ = -4						; size = 4
??0CBasePlayerWeapon@@QAE@XZ PROC			; CBasePlayerWeapon::CBasePlayerWeapon, COMDAT
; _this$ = ecx
	push	ebp
	mov	ebp, esp
	sub	esp, 68					; 00000044H
	push	ebx
	push	esi
	push	edi
	mov	DWORD PTR _this$[ebp], ecx
	mov	ecx, DWORD PTR _this$[ebp]
	call	??0CBasePlayerItem@@QAE@XZ
	mov	eax, DWORD PTR _this$[ebp]
	mov	DWORD PTR [eax], OFFSET ??_7CBasePlayerWeapon@@6B@
	mov	eax, DWORD PTR _this$[ebp]
	pop	edi
	pop	esi
	pop	ebx
	mov	esp, ebp
	pop	ebp
	ret	0
??0CBasePlayerWeapon@@QAE@XZ ENDP			; CBasePlayerWeapon::CBasePlayerWeapon
_TEXT	ENDS
; Function compile flags: /Odtp /ZI
; File d:\!diffusion 2020\source code 2022\client-server\server\weapons\weapons.h
;	COMDAT ?GetWeaponPtr@CBasePlayerWeapon@@UAEPAVCBasePlayerItem@@XZ
_TEXT	SEGMENT
_this$ = -4						; size = 4
?GetWeaponPtr@CBasePlayerWeapon@@UAEPAVCBasePlayerItem@@XZ PROC ; CBasePlayerWeapon::GetWeaponPtr, COMDAT
; _this$ = ecx

; 383  : 	virtual CBasePlayerItem *GetWeaponPtr( void ) { return (CBasePlayerItem *)this; };

	push	ebp
	mov	ebp, esp
	sub	esp, 68					; 00000044H
	push	ebx
	push	esi
	push	edi
	mov	DWORD PTR _this$[ebp], ecx
	mov	eax, DWORD PTR _this$[ebp]
	pop	edi
	pop	esi
	pop	ebx
	mov	esp, ebp
	pop	ebp
	ret	0
?GetWeaponPtr@CBasePlayerWeapon@@UAEPAVCBasePlayerItem@@XZ ENDP ; CBasePlayerWeapon::GetWeaponPtr
_TEXT	ENDS
; Function compile flags: /Odtp /ZI
; File d:\!diffusion 2020\source code 2022\client-server\server\weapons\weapons.h
;	COMDAT ?UseDecrement@CBasePlayerWeapon@@UAEHXZ
_TEXT	SEGMENT
_this$ = -4						; size = 4
?UseDecrement@CBasePlayerWeapon@@UAEHXZ PROC		; CBasePlayerWeapon::UseDecrement, COMDAT
; _this$ = ecx

; 375  : 	virtual BOOL UseDecrement( void ) { return FALSE; };

	push	ebp
	mov	ebp, esp
	sub	esp, 68					; 00000044H
	push	ebx
	push	esi
	push	edi
	mov	DWORD PTR _this$[ebp], ecx
	xor	eax, eax
	pop	edi
	pop	esi
	pop	ebx
	mov	esp, ebp
	pop	ebp
	ret	0
?UseDecrement@CBasePlayerWeapon@@UAEHXZ ENDP		; CBasePlayerWeapon::UseDecrement
_TEXT	ENDS
; Function compile flags: /Odtp /ZI
; File d:\!diffusion 2020\source code 2022\client-server\server\weapons\weapons.h
;	COMDAT ?ShouldWeaponIdle@CBasePlayerWeapon@@UAEHXZ
_TEXT	SEGMENT
_this$ = -4						; size = 4
?ShouldWeaponIdle@CBasePlayerWeapon@@UAEHXZ PROC	; CBasePlayerWeapon::ShouldWeaponIdle, COMDAT
; _this$ = ecx

; 373  : 	virtual BOOL ShouldWeaponIdle( void ) {return FALSE; };

	push	ebp
	mov	ebp, esp
	sub	esp, 68					; 00000044H
	push	ebx
	push	esi
	push	edi
	mov	DWORD PTR _this$[ebp], ecx
	xor	eax, eax
	pop	edi
	pop	esi
	pop	ebx
	mov	esp, ebp
	pop	ebp
	ret	0
?ShouldWeaponIdle@CBasePlayerWeapon@@UAEHXZ ENDP	; CBasePlayerWeapon::ShouldWeaponIdle
_TEXT	ENDS
; Function compile flags: /Odtp /ZI
; File d:\!diffusion 2020\source code 2022\client-server\server\weapons\weapons.h
;	COMDAT ?WeaponIdle@CBasePlayerWeapon@@UAEXXZ
_TEXT	SEGMENT
_this$ = -4						; size = 4
?WeaponIdle@CBasePlayerWeapon@@UAEXXZ PROC		; CBasePlayerWeapon::WeaponIdle, COMDAT
; _this$ = ecx

; 370  : 	virtual void WeaponIdle( void ) { return; }					// called when no buttons pressed

	push	ebp
	mov	ebp, esp
	sub	esp, 68					; 00000044H
	push	ebx
	push	esi
	push	edi
	mov	DWORD PTR _this$[ebp], ecx
	pop	edi
	pop	esi
	pop	ebx
	mov	esp, ebp
	pop	ebp
	ret	0
?WeaponIdle@CBasePlayerWeapon@@UAEXXZ ENDP		; CBasePlayerWeapon::WeaponIdle
_TEXT	ENDS
; Function compile flags: /Odtp /ZI
; File d:\!diffusion 2020\source code 2022\client-server\server\weapons\weapons.h
;	COMDAT ?Reload@CBasePlayerWeapon@@UAEXXZ
_TEXT	SEGMENT
_this$ = -4						; size = 4
?Reload@CBasePlayerWeapon@@UAEXXZ PROC			; CBasePlayerWeapon::Reload, COMDAT
; _this$ = ecx

; 369  : 	virtual void Reload( void ) { return; }						// do "+RELOAD"

	push	ebp
	mov	ebp, esp
	sub	esp, 68					; 00000044H
	push	ebx
	push	esi
	push	edi
	mov	DWORD PTR _this$[ebp], ecx
	pop	edi
	pop	esi
	pop	ebx
	mov	esp, ebp
	pop	ebp
	ret	0
?Reload@CBasePlayerWeapon@@UAEXXZ ENDP			; CBasePlayerWeapon::Reload
_TEXT	ENDS
; Function compile flags: /Odtp /ZI
; File d:\!diffusion 2020\source code 2022\client-server\server\weapons\weapons.h
;	COMDAT ?SecondaryAttack@CBasePlayerWeapon@@UAEXXZ
_TEXT	SEGMENT
_this$ = -4						; size = 4
?SecondaryAttack@CBasePlayerWeapon@@UAEXXZ PROC		; CBasePlayerWeapon::SecondaryAttack, COMDAT
; _this$ = ecx

; 368  : 	virtual void SecondaryAttack( void ) { return; }			// do "+ATTACK2"

	push	ebp
	mov	ebp, esp
	sub	esp, 68					; 00000044H
	push	ebx
	push	esi
	push	edi
	mov	DWORD PTR _this$[ebp], ecx
	pop	edi
	pop	esi
	pop	ebx
	mov	esp, ebp
	pop	ebp
	ret	0
?SecondaryAttack@CBasePlayerWeapon@@UAEXXZ ENDP		; CBasePlayerWeapon::SecondaryAttack
_TEXT	ENDS
; Function compile flags: /Odtp /ZI
; File d:\!diffusion 2020\source code 2022\client-server\server\weapons\weapons.h
;	COMDAT ?PrimaryAttack@CBasePlayerWeapon@@UAEXXZ
_TEXT	SEGMENT
_this$ = -4						; size = 4
?PrimaryAttack@CBasePlayerWeapon@@UAEXXZ PROC		; CBasePlayerWeapon::PrimaryAttack, COMDAT
; _this$ = ecx

; 367  : 	virtual void PrimaryAttack( void ) { return; }				// do "+ATTACK"

	push	ebp
	mov	ebp, esp
	sub	esp, 68					; 00000044H
	push	ebx
	push	esi
	push	edi
	mov	DWORD PTR _this$[ebp], ecx
	pop	edi
	pop	esi
	pop	ebx
	mov	esp, ebp
	pop	ebp
	ret	0
?PrimaryAttack@CBasePlayerWeapon@@UAEXXZ ENDP		; CBasePlayerWeapon::PrimaryAttack
_TEXT	ENDS
; Function compile flags: /Odtp /ZI
; File d:\!diffusion 2020\source code 2022\client-server\server\weapons\weapons.h
;	COMDAT ?UpdateItemInfo@CBasePlayerWeapon@@UAEXXZ
_TEXT	SEGMENT
_this$ = -4						; size = 4
?UpdateItemInfo@CBasePlayerWeapon@@UAEXXZ PROC		; CBasePlayerWeapon::UpdateItemInfo, COMDAT
; _this$ = ecx

; 350  : 	virtual void UpdateItemInfo( void ) {};	// updates HUD state

	push	ebp
	mov	ebp, esp
	sub	esp, 68					; 00000044H
	push	ebx
	push	esi
	push	edi
	mov	DWORD PTR _this$[ebp], ecx
	pop	edi
	pop	esi
	pop	ebx
	mov	esp, ebp
	pop	ebp
	ret	0
?UpdateItemInfo@CBasePlayerWeapon@@UAEXXZ ENDP		; CBasePlayerWeapon::UpdateItemInfo
_TEXT	ENDS
; Function compile flags: /Odtp /ZI
; File d:\!diffusion 2020\source code 2022\client-server\server\weapons\weapons.h
;	COMDAT ?AddWeapon@CBasePlayerWeapon@@UAEHXZ
_TEXT	SEGMENT
_this$ = -4						; size = 4
?AddWeapon@CBasePlayerWeapon@@UAEHXZ PROC		; CBasePlayerWeapon::AddWeapon, COMDAT
; _this$ = ecx

; 344  : 	virtual int AddWeapon( void ) { ExtractAmmo( this ); return TRUE; };	// Return TRUE if you want to add yourself to the player

	push	ebp
	mov	ebp, esp
	sub	esp, 68					; 00000044H
	push	ebx
	push	esi
	push	edi
	mov	DWORD PTR _this$[ebp], ecx
	mov	eax, DWORD PTR _this$[ebp]
	push	eax
	mov	ecx, DWORD PTR _this$[ebp]
	mov	edx, DWORD PTR [ecx]
	mov	ecx, DWORD PTR _this$[ebp]
	mov	eax, DWORD PTR [edx+452]
	call	eax
	mov	eax, 1
	pop	edi
	pop	esi
	pop	ebx
	mov	esp, ebp
	pop	ebp
	ret	0
?AddWeapon@CBasePlayerWeapon@@UAEHXZ ENDP		; CBasePlayerWeapon::AddWeapon
_TEXT	ENDS
; Function compile flags: /Odtp /ZI
;	COMDAT ??0CBasePlayerItem@@QAE@XZ
_TEXT	SEGMENT
_this$ = -4						; size = 4
??0CBasePlayerItem@@QAE@XZ PROC				; CBasePlayerItem::CBasePlayerItem, COMDAT
; _this$ = ecx
	push	ebp
	mov	ebp, esp
	sub	esp, 68					; 00000044H
	push	ebx
	push	esi
	push	edi
	mov	DWORD PTR _this$[ebp], ecx
	mov	ecx, DWORD PTR _this$[ebp]
	call	??0CBaseAnimating@@QAE@XZ
	mov	eax, DWORD PTR _this$[ebp]
	mov	DWORD PTR [eax], OFFSET ??_7CBasePlayerItem@@6B@
	mov	eax, DWORD PTR _this$[ebp]
	pop	edi
	pop	esi
	pop	ebx
	mov	esp, ebp
	pop	ebp
	ret	0
??0CBasePlayerItem@@QAE@XZ ENDP				; CBasePlayerItem::CBasePlayerItem
_TEXT	ENDS
; Function compile flags: /Odtp /ZI
; File d:\!diffusion 2020\source code 2022\client-server\server\weapons\weapons.h
;	COMDAT ?iItemSlot@CBasePlayerItem@@UAEHXZ
_TEXT	SEGMENT
_this$ = -4						; size = 4
?iItemSlot@CBasePlayerItem@@UAEHXZ PROC			; CBasePlayerItem::iItemSlot, COMDAT
; _this$ = ecx

; 317  : 	virtual int iItemSlot( void ) { return 0; }		// return 0 to MAX_ITEMS_SLOTS, used in hud

	push	ebp
	mov	ebp, esp
	sub	esp, 68					; 00000044H
	push	ebx
	push	esi
	push	edi
	mov	DWORD PTR _this$[ebp], ecx
	xor	eax, eax
	pop	edi
	pop	esi
	pop	ebx
	mov	esp, ebp
	pop	ebp
	ret	0
?iItemSlot@CBasePlayerItem@@UAEHXZ ENDP			; CBasePlayerItem::iItemSlot
_TEXT	ENDS
; Function compile flags: /Odtp /ZI
; File d:\!diffusion 2020\source code 2022\client-server\server\weapons\weapons.h
;	COMDAT ?GetWeaponPtr@CBasePlayerItem@@UAEPAV1@XZ
_TEXT	SEGMENT
_this$ = -4						; size = 4
?GetWeaponPtr@CBasePlayerItem@@UAEPAV1@XZ PROC		; CBasePlayerItem::GetWeaponPtr, COMDAT
; _this$ = ecx

; 308  : 	virtual CBasePlayerItem *GetWeaponPtr( void ) { return NULL; };

	push	ebp
	mov	ebp, esp
	sub	esp, 68					; 00000044H
	push	ebx
	push	esi
	push	edi
	mov	DWORD PTR _this$[ebp], ecx
	xor	eax, eax
	pop	edi
	pop	esi
	pop	ebx
	mov	esp, ebp
	pop	ebp
	ret	0
?GetWeaponPtr@CBasePlayerItem@@UAEPAV1@XZ ENDP		; CBasePlayerItem::GetWeaponPtr
_TEXT	ENDS
; Function compile flags: /Odtp /ZI
; File d:\!diffusion 2020\source code 2022\client-server\server\weapons\weapons.h
;	COMDAT ?UpdateClientData@CBasePlayerItem@@UAEHPAVCBasePlayer@@@Z
_TEXT	SEGMENT
_this$ = -4						; size = 4
_pPlayer$ = 8						; size = 4
?UpdateClientData@CBasePlayerItem@@UAEHPAVCBasePlayer@@@Z PROC ; CBasePlayerItem::UpdateClientData, COMDAT
; _this$ = ecx

; 306  : 	virtual int UpdateClientData( CBasePlayer *pPlayer ) { return 0; }

	push	ebp
	mov	ebp, esp
	sub	esp, 68					; 00000044H
	push	ebx
	push	esi
	push	edi
	mov	DWORD PTR _this$[ebp], ecx
	xor	eax, eax
	pop	edi
	pop	esi
	pop	ebx
	mov	esp, ebp
	pop	ebp
	ret	4
?UpdateClientData@CBasePlayerItem@@UAEHPAVCBasePlayer@@@Z ENDP ; CBasePlayerItem::UpdateClientData
_TEXT	ENDS
; Function compile flags: /Odtp /ZI
; File d:\!diffusion 2020\source code 2022\client-server\server\weapons\weapons.h
;	COMDAT ?SecondaryAmmoIndex@CBasePlayerItem@@UAEHXZ
_TEXT	SEGMENT
_this$ = -4						; size = 4
?SecondaryAmmoIndex@CBasePlayerItem@@UAEHXZ PROC	; CBasePlayerItem::SecondaryAmmoIndex, COMDAT
; _this$ = ecx

; 304  : 	virtual int SecondaryAmmoIndex() { return -1; };

	push	ebp
	mov	ebp, esp
	sub	esp, 68					; 00000044H
	push	ebx
	push	esi
	push	edi
	mov	DWORD PTR _this$[ebp], ecx
	or	eax, -1
	pop	edi
	pop	esi
	pop	ebx
	mov	esp, ebp
	pop	ebp
	ret	0
?SecondaryAmmoIndex@CBasePlayerItem@@UAEHXZ ENDP	; CBasePlayerItem::SecondaryAmmoIndex
_TEXT	ENDS
; Function compile flags: /Odtp /ZI
; File d:\!diffusion 2020\source code 2022\client-server\server\weapons\weapons.h
;	COMDAT ?PrimaryAmmoIndex@CBasePlayerItem@@UAEHXZ
_TEXT	SEGMENT
_this$ = -4						; size = 4
?PrimaryAmmoIndex@CBasePlayerItem@@UAEHXZ PROC		; CBasePlayerItem::PrimaryAmmoIndex, COMDAT
; _this$ = ecx

; 303  : 	virtual int PrimaryAmmoIndex() { return -1; };

	push	ebp
	mov	ebp, esp
	sub	esp, 68					; 00000044H
	push	ebx
	push	esi
	push	edi
	mov	DWORD PTR _this$[ebp], ecx
	or	eax, -1
	pop	edi
	pop	esi
	pop	ebx
	mov	esp, ebp
	pop	ebp
	ret	0
?PrimaryAmmoIndex@CBasePlayerItem@@UAEHXZ ENDP		; CBasePlayerItem::PrimaryAmmoIndex
_TEXT	ENDS
; Function compile flags: /Odtp /ZI
; File d:\!diffusion 2020\source code 2022\client-server\server\weapons\weapons.h
;	COMDAT ?ItemPostFrame@CBasePlayerItem@@UAEXXZ
_TEXT	SEGMENT
_this$ = -4						; size = 4
?ItemPostFrame@CBasePlayerItem@@UAEXXZ PROC		; CBasePlayerItem::ItemPostFrame, COMDAT
; _this$ = ecx

; 297  : 	virtual void ItemPostFrame( void ) { return; }		// called each frame by the player PostThink

	push	ebp
	mov	ebp, esp
	sub	esp, 68					; 00000044H
	push	ebx
	push	esi
	push	edi
	mov	DWORD PTR _this$[ebp], ecx
	pop	edi
	pop	esi
	pop	ebx
	mov	esp, ebp
	pop	ebp
	ret	0
?ItemPostFrame@CBasePlayerItem@@UAEXXZ ENDP		; CBasePlayerItem::ItemPostFrame
_TEXT	ENDS
; Function compile flags: /Odtp /ZI
; File d:\!diffusion 2020\source code 2022\client-server\server\weapons\weapons.h
;	COMDAT ?ItemPreFrame@CBasePlayerItem@@UAEXXZ
_TEXT	SEGMENT
_this$ = -4						; size = 4
?ItemPreFrame@CBasePlayerItem@@UAEXXZ PROC		; CBasePlayerItem::ItemPreFrame, COMDAT
; _this$ = ecx

; 296  : 	virtual void ItemPreFrame( void ) { return; }		// called each frame by the player PreThink

	push	ebp
	mov	ebp, esp
	sub	esp, 68					; 00000044H
	push	ebx
	push	esi
	push	edi
	mov	DWORD PTR _this$[ebp], ecx
	pop	edi
	pop	esi
	pop	ebx
	mov	esp, ebp
	pop	ebp
	ret	0
?ItemPreFrame@CBasePlayerItem@@UAEXXZ ENDP		; CBasePlayerItem::ItemPreFrame
_TEXT	ENDS
; Function compile flags: /Odtp /ZI
; File d:\!diffusion 2020\source code 2022\client-server\server\weapons\weapons.h
;	COMDAT ?UpdateItemInfo@CBasePlayerItem@@UAEXXZ
_TEXT	SEGMENT
_this$ = -4						; size = 4
?UpdateItemInfo@CBasePlayerItem@@UAEXXZ PROC		; CBasePlayerItem::UpdateItemInfo, COMDAT
; _this$ = ecx

; 294  : 	virtual void UpdateItemInfo( void ) { return; };

	push	ebp
	mov	ebp, esp
	sub	esp, 68					; 00000044H
	push	ebx
	push	esi
	push	edi
	mov	DWORD PTR _this$[ebp], ecx
	pop	edi
	pop	esi
	pop	ebx
	mov	esp, ebp
	pop	ebp
	ret	0
?UpdateItemInfo@CBasePlayerItem@@UAEXXZ ENDP		; CBasePlayerItem::UpdateItemInfo
_TEXT	ENDS
; Function compile flags: /Odtp /ZI
; File d:\!diffusion 2020\source code 2022\client-server\server\weapons\weapons.h
;	COMDAT ?CanHolster@CBasePlayerItem@@UAEHXZ
_TEXT	SEGMENT
_this$ = -4						; size = 4
?CanHolster@CBasePlayerItem@@UAEHXZ PROC		; CBasePlayerItem::CanHolster, COMDAT
; _this$ = ecx

; 292  : 	virtual BOOL CanHolster( void ) { return TRUE; };		// can this weapon be put away right now?

	push	ebp
	mov	ebp, esp
	sub	esp, 68					; 00000044H
	push	ebx
	push	esi
	push	edi
	mov	DWORD PTR _this$[ebp], ecx
	mov	eax, 1
	pop	edi
	pop	esi
	pop	ebx
	mov	esp, ebp
	pop	ebp
	ret	0
?CanHolster@CBasePlayerItem@@UAEHXZ ENDP		; CBasePlayerItem::CanHolster
_TEXT	ENDS
; Function compile flags: /Odtp /ZI
; File d:\!diffusion 2020\source code 2022\client-server\server\weapons\weapons.h
;	COMDAT ?Deploy@CBasePlayerItem@@UAEHXZ
_TEXT	SEGMENT
_this$ = -4						; size = 4
?Deploy@CBasePlayerItem@@UAEHXZ PROC			; CBasePlayerItem::Deploy, COMDAT
; _this$ = ecx

; 289  : 	virtual BOOL Deploy( ) { return TRUE; };		// returns is deploy was successful

	push	ebp
	mov	ebp, esp
	sub	esp, 68					; 00000044H
	push	ebx
	push	esi
	push	edi
	mov	DWORD PTR _this$[ebp], ecx
	mov	eax, 1
	pop	edi
	pop	esi
	pop	ebx
	mov	esp, ebp
	pop	ebp
	ret	0
?Deploy@CBasePlayerItem@@UAEHXZ ENDP			; CBasePlayerItem::Deploy
_TEXT	ENDS
; Function compile flags: /Odtp /ZI
; File d:\!diffusion 2020\source code 2022\client-server\server\weapons\weapons.h
;	COMDAT ?CanDeploy@CBasePlayerItem@@UAEHXZ
_TEXT	SEGMENT
_this$ = -4						; size = 4
?CanDeploy@CBasePlayerItem@@UAEHXZ PROC			; CBasePlayerItem::CanDeploy, COMDAT
; _this$ = ecx

; 288  : 	virtual BOOL CanDeploy( void ) { return TRUE; };

	push	ebp
	mov	ebp, esp
	sub	esp, 68					; 00000044H
	push	ebx
	push	esi
	push	edi
	mov	DWORD PTR _this$[ebp], ecx
	mov	eax, 1
	pop	edi
	pop	esi
	pop	ebx
	mov	esp, ebp
	pop	ebp
	ret	0
?CanDeploy@CBasePlayerItem@@UAEHXZ ENDP			; CBasePlayerItem::CanDeploy
_TEXT	ENDS
; Function compile flags: /Odtp /ZI
; File d:\!diffusion 2020\source code 2022\client-server\server\weapons\weapons.h
;	COMDAT ?GetItemInfo@CBasePlayerItem@@UAEHPAUItemInfo@@@Z
_TEXT	SEGMENT
_this$ = -4						; size = 4
_p$ = 8							; size = 4
?GetItemInfo@CBasePlayerItem@@UAEHPAUItemInfo@@@Z PROC	; CBasePlayerItem::GetItemInfo, COMDAT
; _this$ = ecx

; 287  : 	virtual int GetItemInfo(ItemInfo *p) { return 0; };	// returns 0 if struct not filled out

	push	ebp
	mov	ebp, esp
	sub	esp, 68					; 00000044H
	push	ebx
	push	esi
	push	edi
	mov	DWORD PTR _this$[ebp], ecx
	xor	eax, eax
	pop	edi
	pop	esi
	pop	ebx
	mov	esp, ebp
	pop	ebp
	ret	4
?GetItemInfo@CBasePlayerItem@@UAEHPAUItemInfo@@@Z ENDP	; CBasePlayerItem::GetItemInfo
_TEXT	ENDS
; Function compile flags: /Odtp /ZI
; File d:\!diffusion 2020\source code 2022\client-server\server\weapons\weapons.h
;	COMDAT ?AddDuplicate@CBasePlayerItem@@UAEHPAV1@@Z
_TEXT	SEGMENT
_this$ = -4						; size = 4
_pItem$ = 8						; size = 4
?AddDuplicate@CBasePlayerItem@@UAEHPAV1@@Z PROC		; CBasePlayerItem::AddDuplicate, COMDAT
; _this$ = ecx

; 278  : 	virtual int AddDuplicate( CBasePlayerItem *pItem ) { return FALSE; }	// return TRUE if you want your duplicate removed from world

	push	ebp
	mov	ebp, esp
	sub	esp, 68					; 00000044H
	push	ebx
	push	esi
	push	edi
	mov	DWORD PTR _this$[ebp], ecx
	xor	eax, eax
	pop	edi
	pop	esi
	pop	ebx
	mov	esp, ebp
	pop	ebp
	ret	4
?AddDuplicate@CBasePlayerItem@@UAEHPAV1@@Z ENDP		; CBasePlayerItem::AddDuplicate
_TEXT	ENDS
; Function compile flags: /Odtp /ZI
;	COMDAT ??0CGrenade@@QAE@XZ
_TEXT	SEGMENT
_this$ = -16						; size = 4
__$EHRec$ = -12						; size = 12
??0CGrenade@@QAE@XZ PROC				; CGrenade::CGrenade, COMDAT
; _this$ = ecx
	push	ebp
	mov	ebp, esp
	push	-1
	push	__ehhandler$??0CGrenade@@QAE@XZ
	mov	eax, DWORD PTR fs:0
	push	eax
	sub	esp, 68					; 00000044H
	push	ebx
	push	esi
	push	edi
	mov	eax, DWORD PTR ___security_cookie
	xor	eax, ebp
	push	eax
	lea	eax, DWORD PTR __$EHRec$[ebp]
	mov	DWORD PTR fs:0, eax
	mov	DWORD PTR _this$[ebp], ecx
	mov	ecx, DWORD PTR _this$[ebp]
	call	??0CBaseMonster@@QAE@XZ
	mov	DWORD PTR __$EHRec$[ebp+8], 0
	mov	eax, DWORD PTR _this$[ebp]
	mov	DWORD PTR [eax], OFFSET ??_7CGrenade@@6B@
	mov	ecx, DWORD PTR _this$[ebp]
	add	ecx, 2504				; 000009c8H
	call	??0Vector@@QAE@XZ			; Vector::Vector
	mov	DWORD PTR __$EHRec$[ebp+8], -1
	mov	eax, DWORD PTR _this$[ebp]
	mov	ecx, DWORD PTR __$EHRec$[ebp]
	mov	DWORD PTR fs:0, ecx
	pop	ecx
	pop	edi
	pop	esi
	pop	ebx
	mov	esp, ebp
	pop	ebp
	ret	0
_TEXT	ENDS
;	COMDAT text$x
text$x	SEGMENT
__unwindfunclet$??0CGrenade@@QAE@XZ$0:
	mov	ecx, DWORD PTR _this$[ebp]
	jmp	??1CBaseMonster@@QAE@XZ
__ehhandler$??0CGrenade@@QAE@XZ:
	mov	edx, DWORD PTR [esp+8]
	lea	eax, DWORD PTR [edx+12]
	mov	ecx, DWORD PTR [edx-84]
	xor	ecx, eax
	call	@__security_check_cookie@4
	mov	eax, OFFSET __ehfuncinfo$??0CGrenade@@QAE@XZ
	jmp	___CxxFrameHandler3
text$x	ENDS
??0CGrenade@@QAE@XZ ENDP				; CGrenade::CGrenade
; Function compile flags: /Odtp /ZI
; File d:\!diffusion 2020\source code 2022\client-server\server\weapons\weapons.h
;	COMDAT ?IsProjectile@CGrenade@@UAEHXZ
_TEXT	SEGMENT
_this$ = -4						; size = 4
?IsProjectile@CGrenade@@UAEHXZ PROC			; CGrenade::IsProjectile, COMDAT
; _this$ = ecx

; 64   : 	virtual BOOL IsProjectile( void ) { return TRUE; }

	push	ebp
	mov	ebp, esp
	sub	esp, 68					; 00000044H
	push	ebx
	push	esi
	push	edi
	mov	DWORD PTR _this$[ebp], ecx
	mov	eax, 1
	pop	edi
	pop	esi
	pop	ebx
	mov	esp, ebp
	pop	ebp
	ret	0
?IsProjectile@CGrenade@@UAEHXZ ENDP			; CGrenade::IsProjectile
_TEXT	ENDS
; Function compile flags: /Odtp /ZI
; File d:\!diffusion 2020\source code 2022\client-server\server\weapons\weapons.h
;	COMDAT ?BloodColor@CGrenade@@UAEHXZ
_TEXT	SEGMENT
_this$ = -4						; size = 4
?BloodColor@CGrenade@@UAEHXZ PROC			; CGrenade::BloodColor, COMDAT
; _this$ = ecx

; 62   : 	virtual int BloodColor( void ) { return DONT_BLEED; }

	push	ebp
	mov	ebp, esp
	sub	esp, 68					; 00000044H
	push	ebx
	push	esi
	push	edi
	mov	DWORD PTR _this$[ebp], ecx
	or	eax, -1
	pop	edi
	pop	esi
	pop	ebx
	mov	esp, ebp
	pop	ebp
	ret	0
?BloodColor@CGrenade@@UAEHXZ ENDP			; CGrenade::BloodColor
_TEXT	ENDS
; Function compile flags: /Odtp /ZI
;	COMDAT ??1CBaseMonster@@QAE@XZ
_TEXT	SEGMENT
_this$ = -4						; size = 4
??1CBaseMonster@@QAE@XZ PROC				; CBaseMonster::~CBaseMonster, COMDAT
; _this$ = ecx
	push	ebp
	mov	ebp, esp
	sub	esp, 68					; 00000044H
	push	ebx
	push	esi
	push	edi
	mov	DWORD PTR _this$[ebp], ecx
	mov	ecx, DWORD PTR _this$[ebp]
	call	??1CBaseToggle@@QAE@XZ
	pop	edi
	pop	esi
	pop	ebx
	mov	esp, ebp
	pop	ebp
	ret	0
??1CBaseMonster@@QAE@XZ ENDP				; CBaseMonster::~CBaseMonster
_TEXT	ENDS
; Function compile flags: /Odtp /ZI
;	COMDAT ??0CBaseMonster@@QAE@XZ
_TEXT	SEGMENT
_this$ = -16						; size = 4
__$EHRec$ = -12						; size = 12
??0CBaseMonster@@QAE@XZ PROC				; CBaseMonster::CBaseMonster, COMDAT
; _this$ = ecx
	push	ebp
	mov	ebp, esp
	push	-1
	push	__ehhandler$??0CBaseMonster@@QAE@XZ
	mov	eax, DWORD PTR fs:0
	push	eax
	sub	esp, 68					; 00000044H
	push	ebx
	push	esi
	push	edi
	mov	eax, DWORD PTR ___security_cookie
	xor	eax, ebp
	push	eax
	lea	eax, DWORD PTR __$EHRec$[ebp]
	mov	DWORD PTR fs:0, eax
	mov	DWORD PTR _this$[ebp], ecx
	mov	ecx, DWORD PTR _this$[ebp]
	call	??0CBaseToggle@@QAE@XZ
	mov	DWORD PTR __$EHRec$[ebp+8], 0
	mov	eax, DWORD PTR _this$[ebp]
	mov	DWORD PTR [eax], OFFSET ??_7CBaseMonster@@6B@
	push	OFFSET ??0Vector@@QAE@XZ		; Vector::Vector
	push	4
	push	12					; 0000000cH
	mov	eax, DWORD PTR _this$[ebp]
	add	eax, 2048				; 00000800H
	push	eax
	call	??_H@YGXPAXIIP6EPAX0@Z@Z
	push	OFFSET ??0WayPoint_t@@QAE@XZ
	push	8
	push	16					; 00000010H
	mov	eax, DWORD PTR _this$[ebp]
	add	eax, 2140				; 0000085cH
	push	eax
	call	??_H@YGXPAXIIP6EPAX0@Z@Z
	mov	ecx, DWORD PTR _this$[ebp]
	add	ecx, 2280				; 000008e8H
	call	??0Vector@@QAE@XZ			; Vector::Vector
	mov	ecx, DWORD PTR _this$[ebp]
	add	ecx, 2304				; 00000900H
	call	??0Vector@@QAE@XZ			; Vector::Vector
	mov	ecx, DWORD PTR _this$[ebp]
	add	ecx, 2328				; 00000918H
	call	??0Vector@@QAE@XZ			; Vector::Vector
	mov	ecx, DWORD PTR _this$[ebp]
	add	ecx, 2424				; 00000978H
	call	??0Vector@@QAE@XZ			; Vector::Vector
	mov	DWORD PTR __$EHRec$[ebp+8], -1
	mov	eax, DWORD PTR _this$[ebp]
	mov	ecx, DWORD PTR __$EHRec$[ebp]
	mov	DWORD PTR fs:0, ecx
	pop	ecx
	pop	edi
	pop	esi
	pop	ebx
	mov	esp, ebp
	pop	ebp
	ret	0
_TEXT	ENDS
;	COMDAT text$x
text$x	SEGMENT
__unwindfunclet$??0CBaseMonster@@QAE@XZ$0:
	mov	ecx, DWORD PTR _this$[ebp]
	jmp	??1CBaseToggle@@QAE@XZ
__ehhandler$??0CBaseMonster@@QAE@XZ:
	mov	edx, DWORD PTR [esp+8]
	lea	eax, DWORD PTR [edx+12]
	mov	ecx, DWORD PTR [edx-84]
	xor	ecx, eax
	call	@__security_check_cookie@4
	mov	eax, OFFSET __ehfuncinfo$??0CBaseMonster@@QAE@XZ
	jmp	___CxxFrameHandler3
text$x	ENDS
??0CBaseMonster@@QAE@XZ ENDP				; CBaseMonster::CBaseMonster
; Function compile flags: /Odtp /ZI
; File d:\!diffusion 2020\source code 2022\client-server\server\monsters\basemonster.h
;	COMDAT ?StopFollowing@CBaseMonster@@UAEXH@Z
_TEXT	SEGMENT
_this$ = -4						; size = 4
_clearSchedule$ = 8					; size = 4
?StopFollowing@CBaseMonster@@UAEXH@Z PROC		; CBaseMonster::StopFollowing, COMDAT
; _this$ = ecx

; 358  : 	virtual void StopFollowing( BOOL clearSchedule ) {}

	push	ebp
	mov	ebp, esp
	sub	esp, 68					; 00000044H
	push	ebx
	push	esi
	push	edi
	mov	DWORD PTR _this$[ebp], ecx
	pop	edi
	pop	esi
	pop	ebx
	mov	esp, ebp
	pop	ebp
	ret	4
?StopFollowing@CBaseMonster@@UAEXH@Z ENDP		; CBaseMonster::StopFollowing
_TEXT	ENDS
; Function compile flags: /Odtp /ZI
; File d:\!diffusion 2020\source code 2022\client-server\server\monsters\basemonster.h
;	COMDAT ?PainSound@CBaseMonster@@UAEXXZ
_TEXT	SEGMENT
_this$ = -4						; size = 4
?PainSound@CBaseMonster@@UAEXXZ PROC			; CBaseMonster::PainSound, COMDAT
; _this$ = ecx

; 355  : 	virtual void PainSound ( void ) { return; };

	push	ebp
	mov	ebp, esp
	sub	esp, 68					; 00000044H
	push	ebx
	push	esi
	push	edi
	mov	DWORD PTR _this$[ebp], ecx
	pop	edi
	pop	esi
	pop	ebx
	mov	esp, ebp
	pop	ebp
	ret	0
?PainSound@CBaseMonster@@UAEXXZ ENDP			; CBaseMonster::PainSound
_TEXT	ENDS
; Function compile flags: /Odtp /ZI
; File d:\!diffusion 2020\source code 2022\client-server\server\monsters\basemonster.h
;	COMDAT ?IdleSound@CBaseMonster@@UAEXXZ
_TEXT	SEGMENT
_this$ = -4						; size = 4
?IdleSound@CBaseMonster@@UAEXXZ PROC			; CBaseMonster::IdleSound, COMDAT
; _this$ = ecx

; 354  : 	virtual void IdleSound ( void ) { return; };

	push	ebp
	mov	ebp, esp
	sub	esp, 68					; 00000044H
	push	ebx
	push	esi
	push	edi
	mov	DWORD PTR _this$[ebp], ecx
	pop	edi
	pop	esi
	pop	ebx
	mov	esp, ebp
	pop	ebp
	ret	0
?IdleSound@CBaseMonster@@UAEXXZ ENDP			; CBaseMonster::IdleSound
_TEXT	ENDS
; Function compile flags: /Odtp /ZI
; File d:\!diffusion 2020\source code 2022\client-server\server\monsters\basemonster.h
;	COMDAT ?AlertSound@CBaseMonster@@UAEXXZ
_TEXT	SEGMENT
_this$ = -4						; size = 4
?AlertSound@CBaseMonster@@UAEXXZ PROC			; CBaseMonster::AlertSound, COMDAT
; _this$ = ecx

; 353  : 	virtual void AlertSound ( void ) { return; };

	push	ebp
	mov	ebp, esp
	sub	esp, 68					; 00000044H
	push	ebx
	push	esi
	push	edi
	mov	DWORD PTR _this$[ebp], ecx
	pop	edi
	pop	esi
	pop	ebx
	mov	esp, ebp
	pop	ebp
	ret	0
?AlertSound@CBaseMonster@@UAEXXZ ENDP			; CBaseMonster::AlertSound
_TEXT	ENDS
; Function compile flags: /Odtp /ZI
; File d:\!diffusion 2020\source code 2022\client-server\server\monsters\basemonster.h
;	COMDAT ?DeathSound@CBaseMonster@@UAEXXZ
_TEXT	SEGMENT
_this$ = -4						; size = 4
?DeathSound@CBaseMonster@@UAEXXZ PROC			; CBaseMonster::DeathSound, COMDAT
; _this$ = ecx

; 352  : 	virtual void DeathSound ( void ) { return; };

	push	ebp
	mov	ebp, esp
	sub	esp, 68					; 00000044H
	push	ebx
	push	esi
	push	edi
	mov	DWORD PTR _this$[ebp], ecx
	pop	edi
	pop	esi
	pop	ebx
	mov	esp, ebp
	pop	ebp
	ret	0
?DeathSound@CBaseMonster@@UAEXXZ ENDP			; CBaseMonster::DeathSound
_TEXT	ENDS
; Function compile flags: /Odtp /ZI
; File d:\!diffusion 2020\source code 2022\client-server\server\monsters\basemonster.h
;	COMDAT ?IsMoving@CBaseMonster@@UAEHXZ
_TEXT	SEGMENT
tv66 = -72						; size = 4
_this$ = -4						; size = 4
?IsMoving@CBaseMonster@@UAEHXZ PROC			; CBaseMonster::IsMoving, COMDAT
; _this$ = ecx

; 343  : 	virtual int		IsMoving( void ) { return m_movementGoal != MOVEGOAL_NONE; }

	push	ebp
	mov	ebp, esp
	sub	esp, 72					; 00000048H
	push	ebx
	push	esi
	push	edi
	mov	DWORD PTR _this$[ebp], ecx
	mov	eax, DWORD PTR _this$[ebp]
	cmp	DWORD PTR [eax+2268], 0
	je	SHORT $LN3@IsMoving
	mov	DWORD PTR tv66[ebp], 1
	jmp	SHORT $LN4@IsMoving
$LN3@IsMoving:
	mov	DWORD PTR tv66[ebp], 0
$LN4@IsMoving:
	mov	eax, DWORD PTR tv66[ebp]
	pop	edi
	pop	esi
	pop	ebx
	mov	esp, ebp
	pop	ebp
	ret	0
?IsMoving@CBaseMonster@@UAEHXZ ENDP			; CBaseMonster::IsMoving
_TEXT	ENDS
; Function compile flags: /Odtp /ZI
; File d:\!diffusion 2020\source code 2022\client-server\server\monsters\basemonster.h
;	COMDAT ?BodyTarget@CBaseMonster@@UAE?AVVector@@ABV2@@Z
_TEXT	SEGMENT
$T1 = -116						; size = 12
$T2 = -104						; size = 12
$T3 = -92						; size = 12
$T4 = -80						; size = 12
_this$ = -4						; size = 4
___$ReturnUdt$ = 8					; size = 4
_posSrc$ = 12						; size = 4
?BodyTarget@CBaseMonster@@UAE?AVVector@@ABV2@@Z PROC	; CBaseMonster::BodyTarget, COMDAT
; _this$ = ecx

; 333  : 	virtual Vector BodyTarget( const Vector &posSrc ) { return Center( ) * 0.75 + EyePosition() * 0.25; };		// position to shoot at

	push	ebp
	mov	ebp, esp
	sub	esp, 116				; 00000074H
	push	ebx
	push	esi
	push	edi
	mov	DWORD PTR _this$[ebp], ecx
	push	ecx
	movss	xmm0, DWORD PTR __real@3e800000
	movss	DWORD PTR [esp], xmm0
	lea	eax, DWORD PTR $T1[ebp]
	push	eax
	lea	ecx, DWORD PTR $T2[ebp]
	push	ecx
	mov	edx, DWORD PTR _this$[ebp]
	mov	eax, DWORD PTR [edx]
	mov	ecx, DWORD PTR _this$[ebp]
	mov	edx, DWORD PTR [eax+340]
	call	edx
	mov	ecx, eax
	call	??DVector@@QBE?AV0@M@Z			; Vector::operator*
	push	eax
	mov	eax, DWORD PTR ___$ReturnUdt$[ebp]
	push	eax
	push	ecx
	movss	xmm0, DWORD PTR __real@3f400000
	movss	DWORD PTR [esp], xmm0
	lea	ecx, DWORD PTR $T3[ebp]
	push	ecx
	lea	edx, DWORD PTR $T4[ebp]
	push	edx
	mov	eax, DWORD PTR _this$[ebp]
	mov	edx, DWORD PTR [eax]
	mov	ecx, DWORD PTR _this$[ebp]
	mov	eax, DWORD PTR [edx+336]
	call	eax
	mov	ecx, eax
	call	??DVector@@QBE?AV0@M@Z			; Vector::operator*
	mov	ecx, eax
	call	??HVector@@QBE?AV0@ABV0@@Z		; Vector::operator+
	mov	eax, DWORD PTR ___$ReturnUdt$[ebp]
	pop	edi
	pop	esi
	pop	ebx
	mov	esp, ebp
	pop	ebp
	ret	8
?BodyTarget@CBaseMonster@@UAE?AVVector@@ABV2@@Z ENDP	; CBaseMonster::BodyTarget
_TEXT	ENDS
; Function compile flags: /Odtp /ZI
; File d:\!diffusion 2020\source code 2022\client-server\server\monsters\basemonster.h
;	COMDAT ?PrescheduleThink@CBaseMonster@@UAEXXZ
_TEXT	SEGMENT
_this$ = -4						; size = 4
?PrescheduleThink@CBaseMonster@@UAEXXZ PROC		; CBaseMonster::PrescheduleThink, COMDAT
; _this$ = ecx

; 313  : 		virtual void PrescheduleThink( void ) { return; };

	push	ebp
	mov	ebp, esp
	sub	esp, 68					; 00000044H
	push	ebx
	push	esi
	push	edi
	mov	DWORD PTR _this$[ebp], ecx
	pop	edi
	pop	esi
	pop	ebx
	mov	esp, ebp
	pop	ebp
	ret	0
?PrescheduleThink@CBaseMonster@@UAEXXZ ENDP		; CBaseMonster::PrescheduleThink
_TEXT	ENDS
; Function compile flags: /Odtp /ZI
; File d:\!diffusion 2020\source code 2022\client-server\server\monsters\basemonster.h
;	COMDAT ?HearingSensitivity@CBaseMonster@@UAEMXZ
_TEXT	SEGMENT
_this$ = -4						; size = 4
?HearingSensitivity@CBaseMonster@@UAEMXZ PROC		; CBaseMonster::HearingSensitivity, COMDAT
; _this$ = ecx

; 293  : 		virtual float HearingSensitivity( void ) { return 1.0; };

	push	ebp
	mov	ebp, esp
	sub	esp, 68					; 00000044H
	push	ebx
	push	esi
	push	edi
	mov	DWORD PTR _this$[ebp], ecx
	fld1
	pop	edi
	pop	esi
	pop	ebx
	mov	esp, ebp
	pop	ebp
	ret	0
?HearingSensitivity@CBaseMonster@@UAEMXZ ENDP		; CBaseMonster::HearingSensitivity
_TEXT	ENDS
; Function compile flags: /Odtp /ZI
; File d:\!diffusion 2020\source code 2022\client-server\server\monsters\basemonster.h
;	COMDAT ?CheckAmmo@CBaseMonster@@UAEXXZ
_TEXT	SEGMENT
_this$ = -4						; size = 4
?CheckAmmo@CBaseMonster@@UAEXXZ PROC			; CBaseMonster::CheckAmmo, COMDAT
; _this$ = ecx

; 268  : 		virtual void CheckAmmo( void ) { return; };

	push	ebp
	mov	ebp, esp
	sub	esp, 68					; 00000044H
	push	ebx
	push	esi
	push	edi
	mov	DWORD PTR _this$[ebp], ecx
	pop	edi
	pop	esi
	pop	ebx
	mov	esp, ebp
	pop	ebp
	ret	0
?CheckAmmo@CBaseMonster@@UAEXXZ ENDP			; CBaseMonster::CheckAmmo
_TEXT	ENDS
; Function compile flags: /Odtp /ZI
; File d:\!diffusion 2020\source code 2022\client-server\server\monsters\basemonster.h
;	COMDAT ?CoverRadius@CBaseMonster@@UAEMXZ
_TEXT	SEGMENT
_this$ = -4						; size = 4
?CoverRadius@CBaseMonster@@UAEMXZ PROC			; CBaseMonster::CoverRadius, COMDAT
; _this$ = ecx

; 265  : 		virtual float CoverRadius( void ) { return 784; } // Default cover radius

	push	ebp
	mov	ebp, esp
	sub	esp, 68					; 00000044H
	push	ebx
	push	esi
	push	edi
	mov	DWORD PTR _this$[ebp], ecx
	fld	DWORD PTR __real@44440000
	pop	edi
	pop	esi
	pop	ebx
	mov	esp, ebp
	pop	ebp
	ret	0
?CoverRadius@CBaseMonster@@UAEMXZ ENDP			; CBaseMonster::CoverRadius
_TEXT	ENDS
; Function compile flags: /Odtp /ZI
; File d:\!diffusion 2020\source code 2022\client-server\server\monsters\basemonster.h
;	COMDAT ?FValidateCover@CBaseMonster@@UAEHABVVector@@@Z
_TEXT	SEGMENT
_this$ = -4						; size = 4
_vecCoverLocation$ = 8					; size = 4
?FValidateCover@CBaseMonster@@UAEHABVVector@@@Z PROC	; CBaseMonster::FValidateCover, COMDAT
; _this$ = ecx

; 264  : 		virtual BOOL FValidateCover ( const Vector &vecCoverLocation ) { return TRUE; };

	push	ebp
	mov	ebp, esp
	sub	esp, 68					; 00000044H
	push	ebx
	push	esi
	push	edi
	mov	DWORD PTR _this$[ebp], ecx
	mov	eax, 1
	pop	edi
	pop	esi
	pop	ebx
	mov	esp, ebp
	pop	ebp
	ret	4
?FValidateCover@CBaseMonster@@UAEHABVVector@@@Z ENDP	; CBaseMonster::FValidateCover
_TEXT	ENDS
; Function compile flags: /Odtp /ZI
; File d:\!diffusion 2020\source code 2022\client-server\server\monsters\basemonster.h
;	COMDAT ?SetYawSpeed@CBaseMonster@@UAEXXZ
_TEXT	SEGMENT
_this$ = -4						; size = 4
?SetYawSpeed@CBaseMonster@@UAEXXZ PROC			; CBaseMonster::SetYawSpeed, COMDAT
; _this$ = ecx

; 255  : 		virtual void SetYawSpeed ( void ) { return; };// allows different yaw_speeds for each activity

	push	ebp
	mov	ebp, esp
	sub	esp, 68					; 00000044H
	push	ebx
	push	esi
	push	edi
	mov	DWORD PTR _this$[ebp], ecx
	pop	edi
	pop	esi
	pop	ebx
	mov	esp, ebp
	pop	ebp
	ret	0
?SetYawSpeed@CBaseMonster@@UAEXXZ ENDP			; CBaseMonster::SetYawSpeed
_TEXT	ENDS
; Function compile flags: /Odtp /ZI
; File d:\!diffusion 2020\source code 2022\client-server\server\monsters\basemonster.h
;	COMDAT ?CanPlaySentence@CBaseMonster@@UAEHH@Z
_TEXT	SEGMENT
_this$ = -4						; size = 4
_fDisregardState$ = 8					; size = 4
?CanPlaySentence@CBaseMonster@@UAEHH@Z PROC		; CBaseMonster::CanPlaySentence, COMDAT
; _this$ = ecx

; 219  : 		virtual int CanPlaySentence( BOOL fDisregardState ) { return IsAlive(); }

	push	ebp
	mov	ebp, esp
	sub	esp, 68					; 00000044H
	push	ebx
	push	esi
	push	edi
	mov	DWORD PTR _this$[ebp], ecx
	mov	eax, DWORD PTR _this$[ebp]
	mov	edx, DWORD PTR [eax]
	mov	ecx, DWORD PTR _this$[ebp]
	mov	eax, DWORD PTR [edx+196]
	call	eax
	pop	edi
	pop	esi
	pop	ebx
	mov	esp, ebp
	pop	ebp
	ret	4
?CanPlaySentence@CBaseMonster@@UAEHH@Z ENDP		; CBaseMonster::CanPlaySentence
_TEXT	ENDS
; Function compile flags: /Odtp /ZI
; File d:\!diffusion 2020\source code 2022\client-server\server\monsters\basemonster.h
;	COMDAT ?ScheduleChange@CBaseMonster@@UAEXXZ
_TEXT	SEGMENT
_this$ = -4						; size = 4
?ScheduleChange@CBaseMonster@@UAEXXZ PROC		; CBaseMonster::ScheduleChange, COMDAT
; _this$ = ecx

; 216  : 		virtual void ScheduleChange( void ) {}

	push	ebp
	mov	ebp, esp
	sub	esp, 68					; 00000044H
	push	ebx
	push	esi
	push	edi
	mov	DWORD PTR _this$[ebp], ecx
	pop	edi
	pop	esi
	pop	ebx
	mov	esp, ebp
	pop	ebp
	ret	0
?ScheduleChange@CBaseMonster@@UAEXXZ ENDP		; CBaseMonster::ScheduleChange
_TEXT	ENDS
; Function compile flags: /Odtp /ZI
; File d:\!diffusion 2020\source code 2022\client-server\server\monsters\basemonster.h
;	COMDAT ?Stop@CBaseMonster@@UAEXXZ
_TEXT	SEGMENT
_this$ = -4						; size = 4
?Stop@CBaseMonster@@UAEXXZ PROC				; CBaseMonster::Stop, COMDAT
; _this$ = ecx

; 189  : 		virtual void Stop( void ) { m_IdealActivity = GetStoppedActivity(); }

	push	ebp
	mov	ebp, esp
	sub	esp, 68					; 00000044H
	push	ebx
	push	esi
	push	edi
	mov	DWORD PTR _this$[ebp], ecx
	mov	eax, DWORD PTR _this$[ebp]
	mov	edx, DWORD PTR [eax]
	mov	ecx, DWORD PTR _this$[ebp]
	mov	eax, DWORD PTR [edx+448]
	call	eax
	mov	ecx, DWORD PTR _this$[ebp]
	mov	DWORD PTR [ecx+2112], eax
	pop	edi
	pop	esi
	pop	ebx
	mov	esp, ebp
	pop	ebp
	ret	0
?Stop@CBaseMonster@@UAEXXZ ENDP				; CBaseMonster::Stop
_TEXT	ENDS
; Function compile flags: /Odtp /ZI
; File d:\!diffusion 2020\source code 2022\client-server\server\monsters\basemonster.h
;	COMDAT ?GetStoppedActivity@CBaseMonster@@UAE?AW4Activity@@XZ
_TEXT	SEGMENT
_this$ = -4						; size = 4
?GetStoppedActivity@CBaseMonster@@UAE?AW4Activity@@XZ PROC ; CBaseMonster::GetStoppedActivity, COMDAT
; _this$ = ecx

; 188  : 		virtual Activity GetStoppedActivity( void ) { return ACT_IDLE; }

	push	ebp
	mov	ebp, esp
	sub	esp, 68					; 00000044H
	push	ebx
	push	esi
	push	edi
	mov	DWORD PTR _this$[ebp], ecx
	mov	eax, 1
	pop	edi
	pop	esi
	pop	ebx
	mov	esp, ebp
	pop	ebp
	ret	0
?GetStoppedActivity@CBaseMonster@@UAE?AW4Activity@@XZ ENDP ; CBaseMonster::GetStoppedActivity
_TEXT	ENDS
; Function compile flags: /Odtp /ZI
; File d:\!diffusion 2020\source code 2022\client-server\server\monsters\basemonster.h
;	COMDAT ?IsAlive@CBaseMonster@@UAEHXZ
_TEXT	SEGMENT
tv71 = -72						; size = 4
_this$ = -4						; size = 4
?IsAlive@CBaseMonster@@UAEHXZ PROC			; CBaseMonster::IsAlive, COMDAT
; _this$ = ecx

; 150  : 	virtual BOOL	IsAlive( void ) { return (pev->deadflag != DEAD_DEAD); }

	push	ebp
	mov	ebp, esp
	sub	esp, 72					; 00000048H
	push	ebx
	push	esi
	push	edi
	mov	DWORD PTR _this$[ebp], ecx
	mov	eax, DWORD PTR _this$[ebp]
	mov	ecx, DWORD PTR [eax+4]
	cmp	DWORD PTR [ecx+368], 2
	je	SHORT $LN3@IsAlive
	mov	DWORD PTR tv71[ebp], 1
	jmp	SHORT $LN4@IsAlive
$LN3@IsAlive:
	mov	DWORD PTR tv71[ebp], 0
$LN4@IsAlive:
	mov	eax, DWORD PTR tv71[ebp]
	pop	edi
	pop	esi
	pop	ebx
	mov	esp, ebp
	pop	ebp
	ret	0
?IsAlive@CBaseMonster@@UAEHXZ ENDP			; CBaseMonster::IsAlive
_TEXT	ENDS
; Function compile flags: /Odtp /ZI
; File d:\!diffusion 2020\source code 2022\client-server\server\monsters\basemonster.h
;	COMDAT ?MyMonsterPointer@CBaseMonster@@UAEPAV1@XZ
_TEXT	SEGMENT
_this$ = -4						; size = 4
?MyMonsterPointer@CBaseMonster@@UAEPAV1@XZ PROC		; CBaseMonster::MyMonsterPointer, COMDAT
; _this$ = ecx

; 145  : 	virtual CBaseMonster *MyMonsterPointer( void ) { return this; }

	push	ebp
	mov	ebp, esp
	sub	esp, 68					; 00000044H
	push	ebx
	push	esi
	push	edi
	mov	DWORD PTR _this$[ebp], ecx
	mov	eax, DWORD PTR _this$[ebp]
	pop	edi
	pop	esi
	pop	ebx
	mov	esp, ebp
	pop	ebp
	ret	0
?MyMonsterPointer@CBaseMonster@@UAEPAV1@XZ ENDP		; CBaseMonster::MyMonsterPointer
_TEXT	ENDS
; Function compile flags: /Odtp /ZI
; File d:\!diffusion 2020\source code 2022\client-server\server\monsters\basemonster.h
;	COMDAT ?BloodColor@CBaseMonster@@UAEHXZ
_TEXT	SEGMENT
_this$ = -4						; size = 4
?BloodColor@CBaseMonster@@UAEHXZ PROC			; CBaseMonster::BloodColor, COMDAT
; _this$ = ecx

; 143  : 	virtual int	 BloodColor( void ) { return m_bloodColor; }

	push	ebp
	mov	ebp, esp
	sub	esp, 68					; 00000044H
	push	ebx
	push	esi
	push	edi
	mov	DWORD PTR _this$[ebp], ecx
	mov	eax, DWORD PTR _this$[ebp]
	mov	eax, DWORD PTR [eax+2368]
	pop	edi
	pop	esi
	pop	ebx
	mov	esp, ebp
	pop	ebp
	ret	0
?BloodColor@CBaseMonster@@UAEHXZ ENDP			; CBaseMonster::BloodColor
_TEXT	ENDS
; Function compile flags: /Odtp /ZI
; File d:\!diffusion 2020\source code 2022\client-server\server\monsters\basemonster.h
;	COMDAT ?Classify@CBaseMonster@@UAEHXZ
_TEXT	SEGMENT
tv67 = -72						; size = 4
_this$ = -4						; size = 4
?Classify@CBaseMonster@@UAEHXZ PROC			; CBaseMonster::Classify, COMDAT
; _this$ = ecx

; 141  : 	virtual int	Classify( void ) { return m_iClass ? m_iClass : CLASS_NONE; }

	push	ebp
	mov	ebp, esp
	sub	esp, 72					; 00000048H
	push	ebx
	push	esi
	push	edi
	mov	DWORD PTR _this$[ebp], ecx
	mov	eax, DWORD PTR _this$[ebp]
	cmp	DWORD PTR [eax+2464], 0
	je	SHORT $LN3@Classify
	mov	ecx, DWORD PTR _this$[ebp]
	mov	edx, DWORD PTR [ecx+2464]
	mov	DWORD PTR tv67[ebp], edx
	jmp	SHORT $LN4@Classify
$LN3@Classify:
	mov	DWORD PTR tv67[ebp], 0
$LN4@Classify:
	mov	eax, DWORD PTR tv67[ebp]
	pop	edi
	pop	esi
	pop	ebx
	mov	esp, ebp
	pop	ebp
	ret	0
?Classify@CBaseMonster@@UAEHXZ ENDP			; CBaseMonster::Classify
_TEXT	ENDS
; Function compile flags: /Odtp /ZI
;	COMDAT ??1CBaseToggle@@QAE@XZ
_TEXT	SEGMENT
_this$ = -4						; size = 4
??1CBaseToggle@@QAE@XZ PROC				; CBaseToggle::~CBaseToggle, COMDAT
; _this$ = ecx
	push	ebp
	mov	ebp, esp
	sub	esp, 68					; 00000044H
	push	ebx
	push	esi
	push	edi
	mov	DWORD PTR _this$[ebp], ecx
	mov	ecx, DWORD PTR _this$[ebp]
	call	??1CBaseAnimating@@QAE@XZ
	pop	edi
	pop	esi
	pop	ebx
	mov	esp, ebp
	pop	ebp
	ret	0
??1CBaseToggle@@QAE@XZ ENDP				; CBaseToggle::~CBaseToggle
_TEXT	ENDS
; Function compile flags: /Odtp /ZI
;	COMDAT ??0CBaseToggle@@QAE@XZ
_TEXT	SEGMENT
_this$ = -16						; size = 4
__$EHRec$ = -12						; size = 12
??0CBaseToggle@@QAE@XZ PROC				; CBaseToggle::CBaseToggle, COMDAT
; _this$ = ecx
	push	ebp
	mov	ebp, esp
	push	-1
	push	__ehhandler$??0CBaseToggle@@QAE@XZ
	mov	eax, DWORD PTR fs:0
	push	eax
	sub	esp, 68					; 00000044H
	push	ebx
	push	esi
	push	edi
	mov	eax, DWORD PTR ___security_cookie
	xor	eax, ebp
	push	eax
	lea	eax, DWORD PTR __$EHRec$[ebp]
	mov	DWORD PTR fs:0, eax
	mov	DWORD PTR _this$[ebp], ecx
	mov	ecx, DWORD PTR _this$[ebp]
	call	??0CBaseAnimating@@QAE@XZ
	mov	DWORD PTR __$EHRec$[ebp+8], 0
	mov	eax, DWORD PTR _this$[ebp]
	mov	DWORD PTR [eax], OFFSET ??_7CBaseToggle@@6B@
	mov	ecx, DWORD PTR _this$[ebp]
	add	ecx, 1880				; 00000758H
	call	??0Vector@@QAE@XZ			; Vector::Vector
	mov	ecx, DWORD PTR _this$[ebp]
	add	ecx, 1892				; 00000764H
	call	??0Vector@@QAE@XZ			; Vector::Vector
	mov	ecx, DWORD PTR _this$[ebp]
	add	ecx, 1904				; 00000770H
	call	??0Vector@@QAE@XZ			; Vector::Vector
	mov	ecx, DWORD PTR _this$[ebp]
	add	ecx, 1916				; 0000077cH
	call	??0Vector@@QAE@XZ			; Vector::Vector
	mov	ecx, DWORD PTR _this$[ebp]
	add	ecx, 1928				; 00000788H
	call	??0Vector@@QAE@XZ			; Vector::Vector
	mov	ecx, DWORD PTR _this$[ebp]
	add	ecx, 1952				; 000007a0H
	call	??0Vector@@QAE@XZ			; Vector::Vector
	mov	ecx, DWORD PTR _this$[ebp]
	add	ecx, 1964				; 000007acH
	call	??0Vector@@QAE@XZ			; Vector::Vector
	mov	ecx, DWORD PTR _this$[ebp]
	add	ecx, 1976				; 000007b8H
	call	??0Vector@@QAE@XZ			; Vector::Vector
	mov	DWORD PTR __$EHRec$[ebp+8], -1
	mov	eax, DWORD PTR _this$[ebp]
	mov	ecx, DWORD PTR __$EHRec$[ebp]
	mov	DWORD PTR fs:0, ecx
	pop	ecx
	pop	edi
	pop	esi
	pop	ebx
	mov	esp, ebp
	pop	ebp
	ret	0
_TEXT	ENDS
;	COMDAT text$x
text$x	SEGMENT
__unwindfunclet$??0CBaseToggle@@QAE@XZ$0:
	mov	ecx, DWORD PTR _this$[ebp]
	jmp	??1CBaseAnimating@@QAE@XZ
__ehhandler$??0CBaseToggle@@QAE@XZ:
	mov	edx, DWORD PTR [esp+8]
	lea	eax, DWORD PTR [edx+12]
	mov	ecx, DWORD PTR [edx-84]
	xor	ecx, eax
	call	@__security_check_cookie@4
	mov	eax, OFFSET __ehfuncinfo$??0CBaseToggle@@QAE@XZ
	jmp	___CxxFrameHandler3
text$x	ENDS
??0CBaseToggle@@QAE@XZ ENDP				; CBaseToggle::CBaseToggle
; Function compile flags: /Odtp /ZI
; File d:\!diffusion 2020\source code 2022\client-server\server\cbase.h
;	COMDAT ?GetDelay@CBaseToggle@@UAEMXZ
_TEXT	SEGMENT
_this$ = -4						; size = 4
?GetDelay@CBaseToggle@@UAEMXZ PROC			; CBaseToggle::GetDelay, COMDAT
; _this$ = ecx

; 1031 : 	virtual float GetDelay( void ) { return m_flWait; }

	push	ebp
	mov	ebp, esp
	sub	esp, 68					; 00000044H
	push	ebx
	push	esi
	push	edi
	mov	DWORD PTR _this$[ebp], ecx
	mov	eax, DWORD PTR _this$[ebp]
	fld	DWORD PTR [eax+1804]
	pop	edi
	pop	esi
	pop	ebx
	mov	esp, ebp
	pop	ebp
	ret	0
?GetDelay@CBaseToggle@@UAEMXZ ENDP			; CBaseToggle::GetDelay
_TEXT	ENDS
; Function compile flags: /Odtp /ZI
; File d:\!diffusion 2020\source code 2022\client-server\server\cbase.h
;	COMDAT ?GetToggleState@CBaseToggle@@UAEHXZ
_TEXT	SEGMENT
_this$ = -4						; size = 4
?GetToggleState@CBaseToggle@@UAEHXZ PROC		; CBaseToggle::GetToggleState, COMDAT
; _this$ = ecx

; 1030 : 	virtual int GetToggleState( void ) { return m_toggle_state; }

	push	ebp
	mov	ebp, esp
	sub	esp, 68					; 00000044H
	push	ebx
	push	esi
	push	edi
	mov	DWORD PTR _this$[ebp], ecx
	mov	eax, DWORD PTR _this$[ebp]
	mov	eax, DWORD PTR [eax+1856]
	pop	edi
	pop	esi
	pop	ebx
	mov	esp, ebp
	pop	ebp
	ret	0
?GetToggleState@CBaseToggle@@UAEHXZ ENDP		; CBaseToggle::GetToggleState
_TEXT	ENDS
; Function compile flags: /Odtp /ZI
;	COMDAT ??1CBaseAnimating@@QAE@XZ
_TEXT	SEGMENT
_this$ = -4						; size = 4
??1CBaseAnimating@@QAE@XZ PROC				; CBaseAnimating::~CBaseAnimating, COMDAT
; _this$ = ecx
	push	ebp
	mov	ebp, esp
	sub	esp, 68					; 00000044H
	push	ebx
	push	esi
	push	edi
	mov	DWORD PTR _this$[ebp], ecx
	mov	ecx, DWORD PTR _this$[ebp]
	call	??1CBaseDelay@@QAE@XZ
	pop	edi
	pop	esi
	pop	ebx
	mov	esp, ebp
	pop	ebp
	ret	0
??1CBaseAnimating@@QAE@XZ ENDP				; CBaseAnimating::~CBaseAnimating
_TEXT	ENDS
; Function compile flags: /Odtp /ZI
;	COMDAT ??0CBaseAnimating@@QAE@XZ
_TEXT	SEGMENT
_this$ = -4						; size = 4
??0CBaseAnimating@@QAE@XZ PROC				; CBaseAnimating::CBaseAnimating, COMDAT
; _this$ = ecx
	push	ebp
	mov	ebp, esp
	sub	esp, 68					; 00000044H
	push	ebx
	push	esi
	push	edi
	mov	DWORD PTR _this$[ebp], ecx
	mov	ecx, DWORD PTR _this$[ebp]
	call	??0CBaseDelay@@QAE@XZ
	mov	eax, DWORD PTR _this$[ebp]
	mov	DWORD PTR [eax], OFFSET ??_7CBaseAnimating@@6B@
	mov	eax, DWORD PTR _this$[ebp]
	pop	edi
	pop	esi
	pop	ebx
	mov	esp, ebp
	pop	ebp
	ret	0
??0CBaseAnimating@@QAE@XZ ENDP				; CBaseAnimating::CBaseAnimating
_TEXT	ENDS
; Function compile flags: /Odtp /ZI
; File d:\!diffusion 2020\source code 2022\client-server\server\cbase.h
;	COMDAT ?HandleAnimEvent@CBaseAnimating@@UAEXPAUMonsterEvent_t@@@Z
_TEXT	SEGMENT
_this$ = -4						; size = 4
_pEvent$ = 8						; size = 4
?HandleAnimEvent@CBaseAnimating@@UAEXPAUMonsterEvent_t@@@Z PROC ; CBaseAnimating::HandleAnimEvent, COMDAT
; _this$ = ecx

; 961  : 	virtual void HandleAnimEvent( MonsterEvent_t *pEvent ) { return; };

	push	ebp
	mov	ebp, esp
	sub	esp, 68					; 00000044H
	push	ebx
	push	esi
	push	edi
	mov	DWORD PTR _this$[ebp], ecx
	pop	edi
	pop	esi
	pop	ebx
	mov	esp, ebp
	pop	ebp
	ret	4
?HandleAnimEvent@CBaseAnimating@@UAEXPAUMonsterEvent_t@@@Z ENDP ; CBaseAnimating::HandleAnimEvent
_TEXT	ENDS
; Function compile flags: /Odtp /ZI
;	COMDAT ??1CBaseDelay@@QAE@XZ
_TEXT	SEGMENT
_this$ = -4						; size = 4
??1CBaseDelay@@QAE@XZ PROC				; CBaseDelay::~CBaseDelay, COMDAT
; _this$ = ecx
	push	ebp
	mov	ebp, esp
	sub	esp, 68					; 00000044H
	push	ebx
	push	esi
	push	edi
	mov	DWORD PTR _this$[ebp], ecx
	mov	ecx, DWORD PTR _this$[ebp]
	call	??1CBaseEntity@@QAE@XZ
	pop	edi
	pop	esi
	pop	ebx
	mov	esp, ebp
	pop	ebp
	ret	0
??1CBaseDelay@@QAE@XZ ENDP				; CBaseDelay::~CBaseDelay
_TEXT	ENDS
; Function compile flags: /Odtp /ZI
;	COMDAT ??0CBaseDelay@@QAE@XZ
_TEXT	SEGMENT
_this$ = -4						; size = 4
??0CBaseDelay@@QAE@XZ PROC				; CBaseDelay::CBaseDelay, COMDAT
; _this$ = ecx
	push	ebp
	mov	ebp, esp
	sub	esp, 68					; 00000044H
	push	ebx
	push	esi
	push	edi
	mov	DWORD PTR _this$[ebp], ecx
	mov	ecx, DWORD PTR _this$[ebp]
	call	??0CBaseEntity@@QAE@XZ
	mov	eax, DWORD PTR _this$[ebp]
	mov	DWORD PTR [eax], OFFSET ??_7CBaseDelay@@6B@
	mov	eax, DWORD PTR _this$[ebp]
	pop	edi
	pop	esi
	pop	ebx
	mov	esp, ebp
	pop	ebp
	ret	0
??0CBaseDelay@@QAE@XZ ENDP				; CBaseDelay::CBaseDelay
_TEXT	ENDS
; Function compile flags: /Odtp /ZI
; File d:\!diffusion 2020\source code 2022\client-server\server\cbase.h
;	COMDAT ?GetState@CBaseDelay@@UAE?AW4STATE@@XZ
_TEXT	SEGMENT
_this$ = -4						; size = 4
?GetState@CBaseDelay@@UAE?AW4STATE@@XZ PROC		; CBaseDelay::GetState, COMDAT
; _this$ = ecx

; 933  : 	virtual STATE GetState( void ) { return m_iState; };

	push	ebp
	mov	ebp, esp
	sub	esp, 68					; 00000044H
	push	ebx
	push	esi
	push	edi
	mov	DWORD PTR _this$[ebp], ecx
	mov	eax, DWORD PTR _this$[ebp]
	mov	eax, DWORD PTR [eax+1828]
	pop	edi
	pop	esi
	pop	ebx
	mov	esp, ebp
	pop	ebp
	ret	0
?GetState@CBaseDelay@@UAE?AW4STATE@@XZ ENDP		; CBaseDelay::GetState
_TEXT	ENDS
; Function compile flags: /Odtp /ZI
;	COMDAT ??1CBaseEntity@@QAE@XZ
_TEXT	SEGMENT
_this$ = -4						; size = 4
??1CBaseEntity@@QAE@XZ PROC				; CBaseEntity::~CBaseEntity, COMDAT
; _this$ = ecx
	push	ebp
	mov	ebp, esp
	sub	esp, 68					; 00000044H
	push	ebx
	push	esi
	push	edi
	mov	DWORD PTR _this$[ebp], ecx
	mov	ecx, DWORD PTR _this$[ebp]
	add	ecx, 260				; 00000104H
	call	??1CMeshDesc@@QAE@XZ			; CMeshDesc::~CMeshDesc
	pop	edi
	pop	esi
	pop	ebx
	mov	esp, ebp
	pop	ebp
	ret	0
??1CBaseEntity@@QAE@XZ ENDP				; CBaseEntity::~CBaseEntity
_TEXT	ENDS
; Function compile flags: /Odtp /ZI
;	COMDAT ??0CBaseEntity@@QAE@XZ
_TEXT	SEGMENT
_this$ = -16						; size = 4
__$EHRec$ = -12						; size = 12
??0CBaseEntity@@QAE@XZ PROC				; CBaseEntity::CBaseEntity, COMDAT
; _this$ = ecx
	push	ebp
	mov	ebp, esp
	push	-1
	push	__ehhandler$??0CBaseEntity@@QAE@XZ
	mov	eax, DWORD PTR fs:0
	push	eax
	sub	esp, 68					; 00000044H
	push	ebx
	push	esi
	push	edi
	mov	eax, DWORD PTR ___security_cookie
	xor	eax, ebp
	push	eax
	lea	eax, DWORD PTR __$EHRec$[ebp]
	mov	DWORD PTR fs:0, eax
	mov	DWORD PTR _this$[ebp], ecx
	mov	eax, DWORD PTR _this$[ebp]
	mov	DWORD PTR [eax], OFFSET ??_7CBaseEntity@@6B@
	mov	ecx, DWORD PTR _this$[ebp]
	add	ecx, 84					; 00000054H
	call	??0Vector@@QAE@XZ			; Vector::Vector
	mov	ecx, DWORD PTR _this$[ebp]
	add	ecx, 96					; 00000060H
	call	??0Vector@@QAE@XZ			; Vector::Vector
	mov	ecx, DWORD PTR _this$[ebp]
	add	ecx, 108				; 0000006cH
	call	??0Vector@@QAE@XZ			; Vector::Vector
	mov	ecx, DWORD PTR _this$[ebp]
	add	ecx, 120				; 00000078H
	call	??0Vector@@QAE@XZ			; Vector::Vector
	mov	ecx, DWORD PTR _this$[ebp]
	add	ecx, 132				; 00000084H
	call	??0Vector@@QAE@XZ			; Vector::Vector
	mov	ecx, DWORD PTR _this$[ebp]
	add	ecx, 144				; 00000090H
	call	??0Vector@@QAE@XZ			; Vector::Vector
	mov	ecx, DWORD PTR _this$[ebp]
	add	ecx, 192				; 000000c0H
	call	??0matrix4x4@@QAE@XZ			; matrix4x4::matrix4x4
	mov	ecx, DWORD PTR _this$[ebp]
	add	ecx, 260				; 00000104H
	call	??0CMeshDesc@@QAE@XZ			; CMeshDesc::CMeshDesc
	mov	DWORD PTR __$EHRec$[ebp+8], 0
	mov	ecx, DWORD PTR _this$[ebp]
	add	ecx, 1644				; 0000066cH
	call	??0Vector@@QAE@XZ			; Vector::Vector
	mov	DWORD PTR __$EHRec$[ebp+8], -1
	mov	eax, DWORD PTR _this$[ebp]
	mov	ecx, DWORD PTR __$EHRec$[ebp]
	mov	DWORD PTR fs:0, ecx
	pop	ecx
	pop	edi
	pop	esi
	pop	ebx
	mov	esp, ebp
	pop	ebp
	ret	0
_TEXT	ENDS
;	COMDAT text$x
text$x	SEGMENT
__unwindfunclet$??0CBaseEntity@@QAE@XZ$0:
	mov	ecx, DWORD PTR _this$[ebp]
	add	ecx, 260				; 00000104H
	jmp	??1CMeshDesc@@QAE@XZ			; CMeshDesc::~CMeshDesc
__ehhandler$??0CBaseEntity@@QAE@XZ:
	mov	edx, DWORD PTR [esp+8]
	lea	eax, DWORD PTR [edx+12]
	mov	ecx, DWORD PTR [edx-84]
	xor	ecx, eax
	call	@__security_check_cookie@4
	mov	eax, OFFSET __ehfuncinfo$??0CBaseEntity@@QAE@XZ
	jmp	___CxxFrameHandler3
text$x	ENDS
??0CBaseEntity@@QAE@XZ ENDP				; CBaseEntity::CBaseEntity
; Function compile flags: /Odtp /ZI
; File d:\!diffusion 2020\source code 2022\client-server\server\cbase.h
;	COMDAT ?Illumination@CBaseEntity@@UAEHXZ
_TEXT	SEGMENT
_this$ = -4						; size = 4
?Illumination@CBaseEntity@@UAEHXZ PROC			; CBaseEntity::Illumination, COMDAT
; _this$ = ecx

; 757  : 	virtual int Illumination( ) { return GETENTITYILLUM( ENT( pev ) ); };

	push	ebp
	mov	ebp, esp
	sub	esp, 68					; 00000044H
	push	ebx
	push	esi
	push	edi
	mov	DWORD PTR _this$[ebp], ecx
	mov	eax, DWORD PTR _this$[ebp]
	mov	ecx, DWORD PTR [eax+4]
	push	ecx
	call	?ENT@@YAPAUedict_s@@PBUentvars_s@@@Z	; ENT
	add	esp, 4
	push	eax
	call	DWORD PTR ?g_engfuncs@@3Uenginefuncs_s@@A+60
	add	esp, 4
	pop	edi
	pop	esi
	pop	ebx
	mov	esp, ebp
	pop	ebp
	ret	0
?Illumination@CBaseEntity@@UAEHXZ ENDP			; CBaseEntity::Illumination
_TEXT	ENDS
; Function compile flags: /Odtp /ZI
; File d:\!diffusion 2020\source code 2022\client-server\server\cbase.h
;	COMDAT ?IsPointSized@CBaseEntity@@UBEHXZ
_TEXT	SEGMENT
tv70 = -69						; size = 1
_this$ = -4						; size = 4
?IsPointSized@CBaseEntity@@UBEHXZ PROC			; CBaseEntity::IsPointSized, COMDAT
; _this$ = ecx

; 755  : 	virtual BOOL IsPointSized() const { return (pev->size == g_vecZero) ? true : false; }

	push	ebp
	mov	ebp, esp
	sub	esp, 72					; 00000048H
	push	ebx
	push	esi
	push	edi
	mov	DWORD PTR _this$[ebp], ecx
	push	OFFSET ?g_vecZero@@3VVector@@B		; g_vecZero
	mov	eax, DWORD PTR _this$[ebp]
	mov	ecx, DWORD PTR [eax+4]
	add	ecx, 244				; 000000f4H
	call	??8Vector@@QBEHABV0@@Z			; Vector::operator==
	test	eax, eax
	je	SHORT $LN3@IsPointSiz
	mov	BYTE PTR tv70[ebp], 1
	jmp	SHORT $LN4@IsPointSiz
$LN3@IsPointSiz:
	mov	BYTE PTR tv70[ebp], 0
$LN4@IsPointSiz:
	movzx	eax, BYTE PTR tv70[ebp]
	pop	edi
	pop	esi
	pop	ebx
	mov	esp, ebp
	pop	ebp
	ret	0
?IsPointSized@CBaseEntity@@UBEHXZ ENDP			; CBaseEntity::IsPointSized
_TEXT	ENDS
; Function compile flags: /Odtp /ZI
; File d:\!diffusion 2020\source code 2022\client-server\server\cbase.h
;	COMDAT ?BodyTarget@CBaseEntity@@UAE?AVVector@@ABV2@@Z
_TEXT	SEGMENT
_this$ = -4						; size = 4
___$ReturnUdt$ = 8					; size = 4
_posSrc$ = 12						; size = 4
?BodyTarget@CBaseEntity@@UAE?AVVector@@ABV2@@Z PROC	; CBaseEntity::BodyTarget, COMDAT
; _this$ = ecx

; 754  : 	virtual Vector BodyTarget( const Vector &posSrc ) { return Center( ); };		// position to shoot at

	push	ebp
	mov	ebp, esp
	sub	esp, 68					; 00000044H
	push	ebx
	push	esi
	push	edi
	mov	DWORD PTR _this$[ebp], ecx
	mov	eax, DWORD PTR ___$ReturnUdt$[ebp]
	push	eax
	mov	ecx, DWORD PTR _this$[ebp]
	mov	edx, DWORD PTR [ecx]
	mov	ecx, DWORD PTR _this$[ebp]
	mov	eax, DWORD PTR [edx+336]
	call	eax
	mov	eax, DWORD PTR ___$ReturnUdt$[ebp]
	pop	edi
	pop	esi
	pop	ebx
	mov	esp, ebp
	pop	ebp
	ret	8
?BodyTarget@CBaseEntity@@UAE?AVVector@@ABV2@@Z ENDP	; CBaseEntity::BodyTarget
_TEXT	ENDS
; Function compile flags: /Odtp /ZI
; File d:\!diffusion 2020\source code 2022\client-server\server\cbase.h
;	COMDAT ?EarPosition@CBaseEntity@@UAE?AVVector@@XZ
_TEXT	SEGMENT
_this$ = -4						; size = 4
___$ReturnUdt$ = 8					; size = 4
?EarPosition@CBaseEntity@@UAE?AVVector@@XZ PROC		; CBaseEntity::EarPosition, COMDAT
; _this$ = ecx

; 751  : 	{ 

	push	ebp
	mov	ebp, esp
	sub	esp, 68					; 00000044H
	push	ebx
	push	esi
	push	edi
	mov	DWORD PTR _this$[ebp], ecx

; 752  : 		return GetAbsOrigin() + pev->view_ofs; 

	mov	eax, DWORD PTR _this$[ebp]
	mov	ecx, DWORD PTR [eax+4]
	add	ecx, 372				; 00000174H
	push	ecx
	mov	edx, DWORD PTR ___$ReturnUdt$[ebp]
	push	edx
	mov	ecx, DWORD PTR _this$[ebp]
	call	?GetAbsOrigin@CBaseEntity@@QBEABVVector@@XZ ; CBaseEntity::GetAbsOrigin
	mov	ecx, eax
	call	??HVector@@QBE?AV0@ABV0@@Z		; Vector::operator+
	mov	eax, DWORD PTR ___$ReturnUdt$[ebp]

; 753  : 	};			// position of ears

	pop	edi
	pop	esi
	pop	ebx
	mov	esp, ebp
	pop	ebp
	ret	4
?EarPosition@CBaseEntity@@UAE?AVVector@@XZ ENDP		; CBaseEntity::EarPosition
_TEXT	ENDS
; Function compile flags: /Odtp /ZI
; File d:\!diffusion 2020\source code 2022\client-server\server\cbase.h
;	COMDAT ?EyePosition@CBaseEntity@@UAE?AVVector@@XZ
_TEXT	SEGMENT
_this$ = -4						; size = 4
___$ReturnUdt$ = 8					; size = 4
?EyePosition@CBaseEntity@@UAE?AVVector@@XZ PROC		; CBaseEntity::EyePosition, COMDAT
; _this$ = ecx

; 747  : 	{

	push	ebp
	mov	ebp, esp
	sub	esp, 68					; 00000044H
	push	ebx
	push	esi
	push	edi
	mov	DWORD PTR _this$[ebp], ecx

; 748  : 		return GetAbsOrigin() + pev->view_ofs;

	mov	eax, DWORD PTR _this$[ebp]
	mov	ecx, DWORD PTR [eax+4]
	add	ecx, 372				; 00000174H
	push	ecx
	mov	edx, DWORD PTR ___$ReturnUdt$[ebp]
	push	edx
	mov	ecx, DWORD PTR _this$[ebp]
	call	?GetAbsOrigin@CBaseEntity@@QBEABVVector@@XZ ; CBaseEntity::GetAbsOrigin
	mov	ecx, eax
	call	??HVector@@QBE?AV0@ABV0@@Z		; Vector::operator+
	mov	eax, DWORD PTR ___$ReturnUdt$[ebp]

; 749  : 	};			// position of eyes

	pop	edi
	pop	esi
	pop	ebx
	mov	esp, ebp
	pop	ebp
	ret	4
?EyePosition@CBaseEntity@@UAE?AVVector@@XZ ENDP		; CBaseEntity::EyePosition
_TEXT	ENDS
; Function compile flags: /Odtp /ZI
; File d:\!diffusion 2020\source code 2022\client-server\server\cbase.h
;	COMDAT ?Center@CBaseEntity@@UAE?AVVector@@XZ
_TEXT	SEGMENT
$T1 = -80						; size = 12
_this$ = -4						; size = 4
___$ReturnUdt$ = 8					; size = 4
?Center@CBaseEntity@@UAE?AVVector@@XZ PROC		; CBaseEntity::Center, COMDAT
; _this$ = ecx

; 745  : 	virtual Vector Center( ) { return (pev->absmax + pev->absmin) * 0.5; }; // center point of entity

	push	ebp
	mov	ebp, esp
	sub	esp, 80					; 00000050H
	push	ebx
	push	esi
	push	edi
	mov	DWORD PTR _this$[ebp], ecx
	push	ecx
	movss	xmm0, DWORD PTR __real@3f000000
	movss	DWORD PTR [esp], xmm0
	mov	eax, DWORD PTR ___$ReturnUdt$[ebp]
	push	eax
	mov	ecx, DWORD PTR _this$[ebp]
	mov	edx, DWORD PTR [ecx+4]
	add	edx, 196				; 000000c4H
	push	edx
	lea	eax, DWORD PTR $T1[ebp]
	push	eax
	mov	ecx, DWORD PTR _this$[ebp]
	mov	ecx, DWORD PTR [ecx+4]
	add	ecx, 208				; 000000d0H
	call	??HVector@@QBE?AV0@ABV0@@Z		; Vector::operator+
	mov	ecx, eax
	call	??DVector@@QBE?AV0@M@Z			; Vector::operator*
	mov	eax, DWORD PTR ___$ReturnUdt$[ebp]
	pop	edi
	pop	esi
	pop	ebx
	mov	esp, ebp
	pop	ebp
	ret	4
?Center@CBaseEntity@@UAE?AVVector@@XZ ENDP		; CBaseEntity::Center
_TEXT	ENDS
; Function compile flags: /Odtp /ZI
; File d:\!diffusion 2020\source code 2022\client-server\server\cbase.h
;	COMDAT ?entindex@CBaseEntity@@QAEHXZ
_TEXT	SEGMENT
_this$ = -4						; size = 4
?entindex@CBaseEntity@@QAEHXZ PROC			; CBaseEntity::entindex, COMDAT
; _this$ = ecx

; 743  : 	int entindex( ) { return ENTINDEX( edict() ); };

	push	ebp
	mov	ebp, esp
	sub	esp, 68					; 00000044H
	push	ebx
	push	esi
	push	edi
	mov	DWORD PTR _this$[ebp], ecx
	mov	ecx, DWORD PTR _this$[ebp]
	call	?edict@CBaseEntity@@QAEPAUedict_s@@XZ	; CBaseEntity::edict
	push	eax
	call	?ENTINDEX@@YAHPAUedict_s@@@Z		; ENTINDEX
	add	esp, 4
	pop	edi
	pop	esi
	pop	ebx
	mov	esp, ebp
	pop	ebp
	ret	0
?entindex@CBaseEntity@@QAEHXZ ENDP			; CBaseEntity::entindex
_TEXT	ENDS
; Function compile flags: /Odtp /ZI
; File d:\!diffusion 2020\source code 2022\client-server\server\cbase.h
;	COMDAT ?edict@CBaseEntity@@QAEPAUedict_s@@XZ
_TEXT	SEGMENT
_this$ = -4						; size = 4
?edict@CBaseEntity@@QAEPAUedict_s@@XZ PROC		; CBaseEntity::edict, COMDAT
; _this$ = ecx

; 741  : 	edict_t *edict() { return ENT( pev ); };

	push	ebp
	mov	ebp, esp
	sub	esp, 68					; 00000044H
	push	ebx
	push	esi
	push	edi
	mov	DWORD PTR _this$[ebp], ecx
	mov	eax, DWORD PTR _this$[ebp]
	mov	ecx, DWORD PTR [eax+4]
	push	ecx
	call	?ENT@@YAPAUedict_s@@PBUentvars_s@@@Z	; ENT
	add	esp, 4
	pop	edi
	pop	esi
	pop	ebx
	mov	esp, ebp
	pop	ebp
	ret	0
?edict@CBaseEntity@@QAEPAUedict_s@@XZ ENDP		; CBaseEntity::edict
_TEXT	ENDS
; Function compile flags: /Odtp /ZI
; File d:\!diffusion 2020\source code 2022\client-server\server\cbase.h
;	COMDAT ?FBecomeProne@CBaseEntity@@UAEHXZ
_TEXT	SEGMENT
_this$ = -4						; size = 4
?FBecomeProne@CBaseEntity@@UAEHXZ PROC			; CBaseEntity::FBecomeProne, COMDAT
; _this$ = ecx

; 740  : 	virtual BOOL FBecomeProne( void ) {return FALSE;};

	push	ebp
	mov	ebp, esp
	sub	esp, 68					; 00000044H
	push	ebx
	push	esi
	push	edi
	mov	DWORD PTR _this$[ebp], ecx
	xor	eax, eax
	pop	edi
	pop	esi
	pop	ebx
	mov	esp, ebp
	pop	ebp
	ret	0
?FBecomeProne@CBaseEntity@@UAEHXZ ENDP			; CBaseEntity::FBecomeProne
_TEXT	ENDS
; Function compile flags: /Odtp /ZI
; File d:\!diffusion 2020\source code 2022\client-server\server\cbase.h
;	COMDAT ?UpdateOwner@CBaseEntity@@UAEXXZ
_TEXT	SEGMENT
_this$ = -4						; size = 4
?UpdateOwner@CBaseEntity@@UAEXXZ PROC			; CBaseEntity::UpdateOwner, COMDAT
; _this$ = ecx

; 736  : 	virtual	void UpdateOwner( void ) { return; };

	push	ebp
	mov	ebp, esp
	sub	esp, 68					; 00000044H
	push	ebx
	push	esi
	push	edi
	mov	DWORD PTR _this$[ebp], ecx
	pop	edi
	pop	esi
	pop	ebx
	mov	esp, ebp
	pop	ebp
	ret	0
?UpdateOwner@CBaseEntity@@UAEXXZ ENDP			; CBaseEntity::UpdateOwner
_TEXT	ENDS
; Function compile flags: /Odtp /ZI
; File d:\!diffusion 2020\source code 2022\client-server\server\cbase.h
;	COMDAT ?TouchSet@CBaseEntity@@QAEP81@AEXPAV1@@ZP81@AEX0@ZPAD@Z
_TEXT	SEGMENT
_this$ = -4						; size = 4
_func$ = 8						; size = 4
_name$ = 12						; size = 4
?TouchSet@CBaseEntity@@QAEP81@AEXPAV1@@ZP81@AEX0@ZPAD@Z PROC ; CBaseEntity::TouchSet, COMDAT
; _this$ = ecx

; 598  : 	{ 

	push	ebp
	mov	ebp, esp
	sub	esp, 68					; 00000044H
	push	ebx
	push	esi
	push	edi
	mov	DWORD PTR _this$[ebp], ecx

; 599  : 		m_pfnTouch = func; 

	mov	eax, DWORD PTR _this$[ebp]
	mov	ecx, DWORD PTR _func$[ebp]
	mov	DWORD PTR [eax+1760], ecx

; 600  : 		FunctionCheck( *(reinterpret_cast<void **>(&m_pfnTouch)), name ); 

	mov	eax, DWORD PTR _name$[ebp]
	push	eax
	mov	ecx, DWORD PTR _this$[ebp]
	mov	edx, DWORD PTR [ecx+1760]
	push	edx
	mov	ecx, DWORD PTR _this$[ebp]
	call	?FunctionCheck@CBaseEntity@@QAEXPAXPAD@Z ; CBaseEntity::FunctionCheck

; 601  : 		return func;

	mov	eax, DWORD PTR _func$[ebp]

; 602  : 	}

	pop	edi
	pop	esi
	pop	ebx
	mov	esp, ebp
	pop	ebp
	ret	8
?TouchSet@CBaseEntity@@QAEP81@AEXPAV1@@ZP81@AEX0@ZPAD@Z ENDP ; CBaseEntity::TouchSet
_TEXT	ENDS
; Function compile flags: /Odtp /ZI
; File d:\!diffusion 2020\source code 2022\client-server\server\cbase.h
;	COMDAT ?ThinkSet@CBaseEntity@@QAEP81@AEXXZP81@AEXXZPAD@Z
_TEXT	SEGMENT
_this$ = -4						; size = 4
_func$ = 8						; size = 4
_name$ = 12						; size = 4
?ThinkSet@CBaseEntity@@QAEP81@AEXXZP81@AEXXZPAD@Z PROC	; CBaseEntity::ThinkSet, COMDAT
; _this$ = ecx

; 591  : 	{ 

	push	ebp
	mov	ebp, esp
	sub	esp, 68					; 00000044H
	push	ebx
	push	esi
	push	edi
	mov	DWORD PTR _this$[ebp], ecx

; 592  : 		m_pfnThink = func; 

	mov	eax, DWORD PTR _this$[ebp]
	mov	ecx, DWORD PTR _func$[ebp]
	mov	DWORD PTR [eax+1756], ecx

; 593  : 		FunctionCheck( *(reinterpret_cast<void **>(&m_pfnThink)), name ); 

	mov	eax, DWORD PTR _name$[ebp]
	push	eax
	mov	ecx, DWORD PTR _this$[ebp]
	mov	edx, DWORD PTR [ecx+1756]
	push	edx
	mov	ecx, DWORD PTR _this$[ebp]
	call	?FunctionCheck@CBaseEntity@@QAEXPAXPAD@Z ; CBaseEntity::FunctionCheck

; 594  : 		return func;

	mov	eax, DWORD PTR _func$[ebp]

; 595  : 	}

	pop	edi
	pop	esi
	pop	ebx
	mov	esp, ebp
	pop	ebp
	ret	8
?ThinkSet@CBaseEntity@@QAEP81@AEXXZP81@AEXXZPAD@Z ENDP	; CBaseEntity::ThinkSet
_TEXT	ENDS
; Function compile flags: /Odtp /ZI
; File d:\!diffusion 2020\source code 2022\client-server\server\cbase.h
;	COMDAT ?FunctionCheck@CBaseEntity@@QAEXPAXPAD@Z
_TEXT	SEGMENT
_this$ = -4						; size = 4
_pFunction$ = 8						; size = 4
_name$ = 12						; size = 4
?FunctionCheck@CBaseEntity@@QAEXPAXPAD@Z PROC		; CBaseEntity::FunctionCheck, COMDAT
; _this$ = ecx

; 585  : 	{ 

	push	ebp
	mov	ebp, esp
	sub	esp, 68					; 00000044H
	push	ebx
	push	esi
	push	edi
	mov	DWORD PTR _this$[ebp], ecx

; 586  : 		if (pFunction && !UTIL_FunctionToName( GetDataDescMap(), pFunction ) )

	cmp	DWORD PTR _pFunction$[ebp], 0
	je	SHORT $LN1@FunctionCh
	mov	eax, DWORD PTR _pFunction$[ebp]
	push	eax
	mov	ecx, DWORD PTR _this$[ebp]
	mov	edx, DWORD PTR [ecx]
	mov	ecx, DWORD PTR _this$[ebp]
	mov	eax, DWORD PTR [edx]
	call	eax
	push	eax
	call	?UTIL_FunctionToName@@YAPBDPAUdatamap_s@@PAX@Z ; UTIL_FunctionToName
	add	esp, 8
	test	eax, eax
	jne	SHORT $LN1@FunctionCh

; 587  : 			ALERT( at_warning, "FUNCTION NOT IN TABLE!: %s:%s (%08lx)\n", GetClassname(), name, (unsigned long)pFunction );

	mov	eax, DWORD PTR _pFunction$[ebp]
	push	eax
	mov	ecx, DWORD PTR _name$[ebp]
	push	ecx
	mov	ecx, DWORD PTR _this$[ebp]
	call	?GetClassname@CBaseEntity@@QAEPBDXZ	; CBaseEntity::GetClassname
	push	eax
	push	OFFSET ??_C@_0CH@HELFJPDL@FUNCTION?5NOT?5IN?5TABLE?$CB?3?5?$CFs?3?$CFs?5?$CI?$CF@
	push	3
	call	DWORD PTR ?g_engfuncs@@3Uenginefuncs_s@@A+244
	add	esp, 20					; 00000014H
$LN1@FunctionCh:

; 588  : 	}

	pop	edi
	pop	esi
	pop	ebx
	mov	esp, ebp
	pop	ebp
	ret	8
?FunctionCheck@CBaseEntity@@QAEXPAXPAD@Z ENDP		; CBaseEntity::FunctionCheck
_TEXT	ENDS
; Function compile flags: /Odtp /ZI
; File d:\!diffusion 2020\source code 2022\client-server\server\cbase.h
;	COMDAT ?Instance@CBaseEntity@@SAPAV1@PAUedict_s@@@Z
_TEXT	SEGMENT
_pEnt$ = -4						; size = 4
_pent$ = 8						; size = 4
?Instance@CBaseEntity@@SAPAV1@PAUedict_s@@@Z PROC	; CBaseEntity::Instance, COMDAT

; 557  : 	{ 

	push	ebp
	mov	ebp, esp
	sub	esp, 68					; 00000044H
	push	ebx
	push	esi
	push	edi

; 558  : 		if ( !pent )

	cmp	DWORD PTR _pent$[ebp], 0
	jne	SHORT $LN2@Instance

; 559  : 			pent = ENT(0);

	push	0
	call	?ENT@@YAPAUedict_s@@H@Z			; ENT
	add	esp, 4
	mov	DWORD PTR _pent$[ebp], eax
$LN2@Instance:

; 560  : 		CBaseEntity *pEnt = (CBaseEntity *)GET_PRIVATE(pent); 

	mov	eax, DWORD PTR _pent$[ebp]
	push	eax
	call	?GET_PRIVATE@@YAPAXPAUedict_s@@@Z	; GET_PRIVATE
	add	esp, 4
	mov	DWORD PTR _pEnt$[ebp], eax

; 561  : 		return pEnt; 

	mov	eax, DWORD PTR _pEnt$[ebp]

; 562  : 	}

	pop	edi
	pop	esi
	pop	ebx
	mov	esp, ebp
	pop	ebp
	ret	0
?Instance@CBaseEntity@@SAPAV1@PAUedict_s@@@Z ENDP	; CBaseEntity::Instance
_TEXT	ENDS
; Function compile flags: /Odtp /ZI
; File d:\!diffusion 2020\source code 2022\client-server\server\cbase.h
;	COMDAT ?Respawn@CBaseEntity@@UAEPAV1@XZ
_TEXT	SEGMENT
_this$ = -4						; size = 4
?Respawn@CBaseEntity@@UAEPAV1@XZ PROC			; CBaseEntity::Respawn, COMDAT
; _this$ = ecx

; 544  : 	virtual CBaseEntity *Respawn( void ) { return NULL; }

	push	ebp
	mov	ebp, esp
	sub	esp, 68					; 00000044H
	push	ebx
	push	esi
	push	edi
	mov	DWORD PTR _this$[ebp], ecx
	xor	eax, eax
	pop	edi
	pop	esi
	pop	ebx
	mov	esp, ebp
	pop	ebp
	ret	0
?Respawn@CBaseEntity@@UAEPAV1@XZ ENDP			; CBaseEntity::Respawn
_TEXT	ENDS
; Function compile flags: /Odtp /ZI
; File d:\!diffusion 2020\source code 2022\client-server\server\cbase.h
;	COMDAT ??3CBaseEntity@@SAXPAXPAUentvars_s@@@Z
_TEXT	SEGMENT
_pMem$ = 8						; size = 4
_pev$ = 12						; size = 4
??3CBaseEntity@@SAXPAXPAUentvars_s@@@Z PROC		; CBaseEntity::operator delete, COMDAT

; 527  : 	{

	push	ebp
	mov	ebp, esp
	sub	esp, 64					; 00000040H
	push	ebx
	push	esi
	push	edi

; 528  : 		pev->flags |= FL_KILLME;

	mov	eax, DWORD PTR _pev$[ebp]
	mov	ecx, DWORD PTR [eax+420]
	or	ecx, 1073741824				; 40000000H
	mov	edx, DWORD PTR _pev$[ebp]
	mov	DWORD PTR [edx+420], ecx

; 529  : 	};

	pop	edi
	pop	esi
	pop	ebx
	mov	esp, ebp
	pop	ebp
	ret	0
??3CBaseEntity@@SAXPAXPAUentvars_s@@@Z ENDP		; CBaseEntity::operator delete
_TEXT	ENDS
; Function compile flags: /Odtp /ZI
; File d:\!diffusion 2020\source code 2022\client-server\server\cbase.h
;	COMDAT ??2CBaseEntity@@SAPAXIPAUentvars_s@@@Z
_TEXT	SEGMENT
_stAllocateBlock$ = 8					; size = 4
_pev$ = 12						; size = 4
??2CBaseEntity@@SAPAXIPAUentvars_s@@@Z PROC		; CBaseEntity::operator new, COMDAT

; 520  : 	{

	push	ebp
	mov	ebp, esp
	sub	esp, 64					; 00000040H
	push	ebx
	push	esi
	push	edi

; 521  : 		return (void *)ALLOC_PRIVATE(ENT(pev), stAllocateBlock);

	mov	eax, DWORD PTR _stAllocateBlock$[ebp]
	push	eax
	mov	ecx, DWORD PTR _pev$[ebp]
	push	ecx
	call	?ENT@@YAPAUedict_s@@PBUentvars_s@@@Z	; ENT
	add	esp, 4
	push	eax
	call	DWORD PTR ?g_engfuncs@@3Uenginefuncs_s@@A+252
	add	esp, 8

; 522  : 	};

	pop	edi
	pop	esi
	pop	ebx
	mov	esp, ebp
	pop	ebp
	ret	0
??2CBaseEntity@@SAPAXIPAUentvars_s@@@Z ENDP		; CBaseEntity::operator new
_TEXT	ENDS
; Function compile flags: /Odtp /ZI
; File d:\!diffusion 2020\source code 2022\client-server\server\cbase.h
;	COMDAT ?MoveDone@CBaseEntity@@UAEXXZ
_TEXT	SEGMENT
_this$ = -4						; size = 4
?MoveDone@CBaseEntity@@UAEXXZ PROC			; CBaseEntity::MoveDone, COMDAT
; _this$ = ecx

; 516  : 	virtual void MoveDone( void ) { if( m_pfnMoveDone )(this->*m_pfnMoveDone)(); };

	push	ebp
	mov	ebp, esp
	sub	esp, 68					; 00000044H
	push	ebx
	push	esi
	push	edi
	mov	DWORD PTR _this$[ebp], ecx
	mov	eax, DWORD PTR _this$[ebp]
	cmp	DWORD PTR [eax+1772], 0
	je	SHORT $LN1@MoveDone
	mov	eax, DWORD PTR _this$[ebp]
	mov	ecx, DWORD PTR _this$[ebp]
	mov	edx, DWORD PTR [eax+1772]
	call	edx
$LN1@MoveDone:
	pop	edi
	pop	esi
	pop	ebx
	mov	esp, ebp
	pop	ebp
	ret	0
?MoveDone@CBaseEntity@@UAEXXZ ENDP			; CBaseEntity::MoveDone
_TEXT	ENDS
; Function compile flags: /Odtp /ZI
; File d:\!diffusion 2020\source code 2022\client-server\server\cbase.h
;	COMDAT ?Blocked@CBaseEntity@@UAEXPAV1@@Z
_TEXT	SEGMENT
tv77 = -72						; size = 4
_this$ = -4						; size = 4
_pOther$ = 8						; size = 4
?Blocked@CBaseEntity@@UAEXPAV1@@Z PROC			; CBaseEntity::Blocked, COMDAT
; _this$ = ecx

; 507  : 	{

	push	ebp
	mov	ebp, esp
	sub	esp, 72					; 00000048H
	push	ebx
	push	esi
	push	edi
	mov	DWORD PTR _this$[ebp], ecx

; 508  : 		if( m_pfnBlocked )

	mov	eax, DWORD PTR _this$[ebp]
	cmp	DWORD PTR [eax+1768], 0
	je	SHORT $LN2@Blocked

; 509  : 			(this->*m_pfnBlocked)( pOther );

	mov	eax, DWORD PTR _pOther$[ebp]
	push	eax
	mov	edx, DWORD PTR _this$[ebp]
	mov	ecx, DWORD PTR _this$[ebp]
	mov	eax, DWORD PTR [edx+1768]
	call	eax
$LN2@Blocked:

; 510  : 
; 511  : 		// forward the blocked event to our parent, if any.
; 512  : 		if( m_hParent != NULL )

	mov	ecx, DWORD PTR _this$[ebp]
	add	ecx, 160				; 000000a0H
	call	??BEHANDLE@@QAEHXZ			; EHANDLE::operator int
	test	eax, eax
	je	SHORT $LN1@Blocked

; 513  : 			m_hParent->Blocked( pOther );

	mov	ecx, DWORD PTR _this$[ebp]
	add	ecx, 160				; 000000a0H
	call	??CEHANDLE@@QAEPAVCBaseEntity@@XZ	; EHANDLE::operator->
	mov	DWORD PTR tv77[ebp], eax
	mov	eax, DWORD PTR _pOther$[ebp]
	push	eax
	mov	ecx, DWORD PTR tv77[ebp]
	mov	edx, DWORD PTR [ecx]
	mov	ecx, DWORD PTR tv77[ebp]
	mov	eax, DWORD PTR [edx+316]
	call	eax
$LN1@Blocked:

; 514  : 	}

	pop	edi
	pop	esi
	pop	ebx
	mov	esp, ebp
	pop	ebp
	ret	4
?Blocked@CBaseEntity@@UAEXPAV1@@Z ENDP			; CBaseEntity::Blocked
_TEXT	ENDS
; Function compile flags: /Odtp /ZI
; File d:\!diffusion 2020\source code 2022\client-server\server\cbase.h
;	COMDAT ?Touch@CBaseEntity@@UAEXPAV1@@Z
_TEXT	SEGMENT
tv80 = -72						; size = 4
_this$ = -4						; size = 4
_pOther$ = 8						; size = 4
?Touch@CBaseEntity@@UAEXPAV1@@Z PROC			; CBaseEntity::Touch, COMDAT
; _this$ = ecx

; 497  : 	{

	push	ebp
	mov	ebp, esp
	sub	esp, 72					; 00000048H
	push	ebx
	push	esi
	push	edi
	mov	DWORD PTR _this$[ebp], ecx

; 498  : 		if( m_pfnTouch )

	mov	eax, DWORD PTR _this$[ebp]
	cmp	DWORD PTR [eax+1760], 0
	je	SHORT $LN2@Touch

; 499  : 			(this->*m_pfnTouch)( pOther );

	mov	eax, DWORD PTR _pOther$[ebp]
	push	eax
	mov	edx, DWORD PTR _this$[ebp]
	mov	ecx, DWORD PTR _this$[ebp]
	mov	eax, DWORD PTR [edx+1760]
	call	eax
$LN2@Touch:

; 500  : 
; 501  : 		// forward the blocked event to our parent, if any.
; 502  : 		if( m_hParent != NULL && !m_isChaining )

	mov	ecx, DWORD PTR _this$[ebp]
	add	ecx, 160				; 000000a0H
	call	??BEHANDLE@@QAEHXZ			; EHANDLE::operator int
	test	eax, eax
	je	SHORT $LN1@Touch
	mov	eax, DWORD PTR _this$[ebp]
	movzx	ecx, BYTE PTR [eax+1640]
	test	ecx, ecx
	jne	SHORT $LN1@Touch

; 503  : 			m_hParent->Touch( pOther );

	mov	ecx, DWORD PTR _this$[ebp]
	add	ecx, 160				; 000000a0H
	call	??CEHANDLE@@QAEPAVCBaseEntity@@XZ	; EHANDLE::operator->
	mov	DWORD PTR tv80[ebp], eax
	mov	eax, DWORD PTR _pOther$[ebp]
	push	eax
	mov	ecx, DWORD PTR tv80[ebp]
	mov	edx, DWORD PTR [ecx]
	mov	ecx, DWORD PTR tv80[ebp]
	mov	eax, DWORD PTR [edx+312]
	call	eax
$LN1@Touch:

; 504  : 	}

	pop	edi
	pop	esi
	pop	ebx
	mov	esp, ebp
	pop	ebp
	ret	4
?Touch@CBaseEntity@@UAEXPAV1@@Z ENDP			; CBaseEntity::Touch
_TEXT	ENDS
; Function compile flags: /Odtp /ZI
; File d:\!diffusion 2020\source code 2022\client-server\server\cbase.h
;	COMDAT ?Use@CBaseEntity@@UAEXPAV1@0W4USE_TYPE@@M@Z
_TEXT	SEGMENT
_this$ = -4						; size = 4
_pActivator$ = 8					; size = 4
_pCaller$ = 12						; size = 4
_useType$ = 16						; size = 4
_value$ = 20						; size = 4
?Use@CBaseEntity@@UAEXPAV1@0W4USE_TYPE@@M@Z PROC	; CBaseEntity::Use, COMDAT
; _this$ = ecx

; 492  : 	{

	push	ebp
	mov	ebp, esp
	sub	esp, 68					; 00000044H
	push	ebx
	push	esi
	push	edi
	mov	DWORD PTR _this$[ebp], ecx

; 493  : 		if (m_pfnUse) (this->*m_pfnUse)( pActivator, pCaller, useType, value );

	mov	eax, DWORD PTR _this$[ebp]
	cmp	DWORD PTR [eax+1764], 0
	je	SHORT $LN2@Use
	push	ecx
	movss	xmm0, DWORD PTR _value$[ebp]
	movss	DWORD PTR [esp], xmm0
	mov	eax, DWORD PTR _useType$[ebp]
	push	eax
	mov	ecx, DWORD PTR _pCaller$[ebp]
	push	ecx
	mov	edx, DWORD PTR _pActivator$[ebp]
	push	edx
	mov	eax, DWORD PTR _this$[ebp]
	mov	ecx, DWORD PTR _this$[ebp]
	mov	edx, DWORD PTR [eax+1764]
	call	edx
$LN2@Use:

; 494  : 	}

	pop	edi
	pop	esi
	pop	ebx
	mov	esp, ebp
	pop	ebp
	ret	16					; 00000010H
?Use@CBaseEntity@@UAEXPAV1@0W4USE_TYPE@@M@Z ENDP	; CBaseEntity::Use
_TEXT	ENDS
; Function compile flags: /Odtp /ZI
; File d:\!diffusion 2020\source code 2022\client-server\server\cbase.h
;	COMDAT ?Think@CBaseEntity@@UAEXXZ
_TEXT	SEGMENT
_this$ = -4						; size = 4
?Think@CBaseEntity@@UAEXXZ PROC				; CBaseEntity::Think, COMDAT
; _this$ = ecx

; 489  : 	virtual void Think( void ) { if (m_pfnThink) (this->*m_pfnThink)(); };

	push	ebp
	mov	ebp, esp
	sub	esp, 68					; 00000044H
	push	ebx
	push	esi
	push	edi
	mov	DWORD PTR _this$[ebp], ecx
	mov	eax, DWORD PTR _this$[ebp]
	cmp	DWORD PTR [eax+1756], 0
	je	SHORT $LN1@Think
	mov	eax, DWORD PTR _this$[ebp]
	mov	ecx, DWORD PTR _this$[ebp]
	mov	edx, DWORD PTR [eax+1756]
	call	edx
$LN1@Think:
	pop	edi
	pop	esi
	pop	ebx
	mov	esp, ebp
	pop	ebp
	ret	0
?Think@CBaseEntity@@UAEXXZ ENDP				; CBaseEntity::Think
_TEXT	ENDS
; Function compile flags: /Odtp /ZI
; File d:\!diffusion 2020\source code 2022\client-server\server\cbase.h
;	COMDAT ?OnDropObject@CBaseEntity@@UAEXXZ
_TEXT	SEGMENT
_this$ = -4						; size = 4
?OnDropObject@CBaseEntity@@UAEXXZ PROC			; CBaseEntity::OnDropObject, COMDAT
; _this$ = ecx

; 478  : 	virtual void OnDropObject( void ){ };

	push	ebp
	mov	ebp, esp
	sub	esp, 68					; 00000044H
	push	ebx
	push	esi
	push	edi
	mov	DWORD PTR _this$[ebp], ecx
	pop	edi
	pop	esi
	pop	ebx
	mov	esp, ebp
	pop	ebp
	ret	0
?OnDropObject@CBaseEntity@@UAEXXZ ENDP			; CBaseEntity::OnDropObject
_TEXT	ENDS
; Function compile flags: /Odtp /ZI
; File d:\!diffusion 2020\source code 2022\client-server\server\cbase.h
;	COMDAT ?OnPickupObject@CBaseEntity@@UAEXXZ
_TEXT	SEGMENT
_this$ = -4						; size = 4
?OnPickupObject@CBaseEntity@@UAEXXZ PROC		; CBaseEntity::OnPickupObject, COMDAT
; _this$ = ecx

; 477  : 	virtual void OnPickupObject( void ) { };

	push	ebp
	mov	ebp, esp
	sub	esp, 68					; 00000044H
	push	ebx
	push	esi
	push	edi
	mov	DWORD PTR _this$[ebp], ecx
	pop	edi
	pop	esi
	pop	ebx
	mov	esp, ebp
	pop	ebp
	ret	0
?OnPickupObject@CBaseEntity@@UAEXXZ ENDP		; CBaseEntity::OnPickupObject
_TEXT	ENDS
; Function compile flags: /Odtp /ZI
; File d:\!diffusion 2020\source code 2022\client-server\server\cbase.h
;	COMDAT ?SetNullModel@CBaseEntity@@UAEXXZ
_TEXT	SEGMENT
_this$ = -4						; size = 4
?SetNullModel@CBaseEntity@@UAEXXZ PROC			; CBaseEntity::SetNullModel, COMDAT
; _this$ = ecx

; 1228 : {

	push	ebp
	mov	ebp, esp
	sub	esp, 68					; 00000044H
	push	ebx
	push	esi
	push	edi
	mov	DWORD PTR _this$[ebp], ecx

; 1229 : 	SET_MODEL( edict(), "sprites/null.spr" );

	push	OFFSET ??_C@_0BB@EMJBJDBM@sprites?1null?4spr?$AA@
	mov	ecx, DWORD PTR _this$[ebp]
	call	?edict@CBaseEntity@@QAEPAUedict_s@@XZ	; CBaseEntity::edict
	push	eax
	call	DWORD PTR ?g_engfuncs@@3Uenginefuncs_s@@A+8
	add	esp, 8

; 1230 : }

	pop	edi
	pop	esi
	pop	ebx
	mov	esp, ebp
	pop	ebp
	ret	0
?SetNullModel@CBaseEntity@@UAEXXZ ENDP			; CBaseEntity::SetNullModel
_TEXT	ENDS
; Function compile flags: /Odtp /ZI
; File d:\!diffusion 2020\source code 2022\client-server\server\cbase.h
;	COMDAT ?RemoveFlag@CBaseEntity@@UAEXH@Z
_TEXT	SEGMENT
_this$ = -4						; size = 4
_Flag$ = 8						; size = 4
?RemoveFlag@CBaseEntity@@UAEXH@Z PROC			; CBaseEntity::RemoveFlag, COMDAT
; _this$ = ecx

; 1223 : {

	push	ebp
	mov	ebp, esp
	sub	esp, 68					; 00000044H
	push	ebx
	push	esi
	push	edi
	mov	DWORD PTR _this$[ebp], ecx

; 1224 : 	m_iFlags2 &= ~Flag;

	mov	eax, DWORD PTR _Flag$[ebp]
	not	eax
	mov	ecx, DWORD PTR _this$[ebp]
	and	eax, DWORD PTR [ecx+28]
	mov	edx, DWORD PTR _this$[ebp]
	mov	DWORD PTR [edx+28], eax

; 1225 : }

	pop	edi
	pop	esi
	pop	ebx
	mov	esp, ebp
	pop	ebp
	ret	4
?RemoveFlag@CBaseEntity@@UAEXH@Z ENDP			; CBaseEntity::RemoveFlag
_TEXT	ENDS
; Function compile flags: /Odtp /ZI
; File d:\!diffusion 2020\source code 2022\client-server\server\cbase.h
;	COMDAT ?HasFlag@CBaseEntity@@UBE_NH@Z
_TEXT	SEGMENT
tv67 = -72						; size = 4
_this$ = -4						; size = 4
_Flag$ = 8						; size = 4
?HasFlag@CBaseEntity@@UBE_NH@Z PROC			; CBaseEntity::HasFlag, COMDAT
; _this$ = ecx

; 1213 : {

	push	ebp
	mov	ebp, esp
	sub	esp, 72					; 00000048H
	push	ebx
	push	esi
	push	edi
	mov	DWORD PTR _this$[ebp], ecx

; 1214 : 	return (m_iFlags2 & Flag) != 0;

	mov	eax, DWORD PTR _this$[ebp]
	mov	ecx, DWORD PTR [eax+28]
	and	ecx, DWORD PTR _Flag$[ebp]
	je	SHORT $LN3@HasFlag
	mov	DWORD PTR tv67[ebp], 1
	jmp	SHORT $LN4@HasFlag
$LN3@HasFlag:
	mov	DWORD PTR tv67[ebp], 0
$LN4@HasFlag:
	mov	al, BYTE PTR tv67[ebp]

; 1215 : }

	pop	edi
	pop	esi
	pop	ebx
	mov	esp, ebp
	pop	ebp
	ret	4
?HasFlag@CBaseEntity@@UBE_NH@Z ENDP			; CBaseEntity::HasFlag
_TEXT	ENDS
; Function compile flags: /Odtp /ZI
; File d:\!diffusion 2020\source code 2022\client-server\server\cbase.h
;	COMDAT ?SetFlag@CBaseEntity@@UAEXH@Z
_TEXT	SEGMENT
_this$ = -4						; size = 4
_Flag$ = 8						; size = 4
?SetFlag@CBaseEntity@@UAEXH@Z PROC			; CBaseEntity::SetFlag, COMDAT
; _this$ = ecx

; 1218 : {

	push	ebp
	mov	ebp, esp
	sub	esp, 68					; 00000044H
	push	ebx
	push	esi
	push	edi
	mov	DWORD PTR _this$[ebp], ecx

; 1219 : 	m_iFlags2 |= Flag;

	mov	eax, DWORD PTR _this$[ebp]
	mov	ecx, DWORD PTR [eax+28]
	or	ecx, DWORD PTR _Flag$[ebp]
	mov	edx, DWORD PTR _this$[ebp]
	mov	DWORD PTR [edx+28], ecx

; 1220 : }

	pop	edi
	pop	esi
	pop	ebx
	mov	esp, ebp
	pop	ebp
	ret	4
?SetFlag@CBaseEntity@@UAEXH@Z ENDP			; CBaseEntity::SetFlag
_TEXT	ENDS
; Function compile flags: /Odtp /ZI
; File d:\!diffusion 2020\source code 2022\client-server\server\cbase.h
;	COMDAT ?SetFadeDistance@CBaseEntity@@UAEXH@Z
_TEXT	SEGMENT
_this$ = -4						; size = 4
_Distance$ = 8						; size = 4
?SetFadeDistance@CBaseEntity@@UAEXH@Z PROC		; CBaseEntity::SetFadeDistance, COMDAT
; _this$ = ecx

; 1208 : {

	push	ebp
	mov	ebp, esp
	sub	esp, 68					; 00000044H
	push	ebx
	push	esi
	push	edi
	mov	DWORD PTR _this$[ebp], ecx

; 1209 : 	pev->iuser4 = Distance;

	mov	eax, DWORD PTR _this$[ebp]
	mov	ecx, DWORD PTR [eax+4]
	mov	edx, DWORD PTR _Distance$[ebp]
	mov	DWORD PTR [ecx+592], edx

; 1210 : }

	pop	edi
	pop	esi
	pop	ebx
	mov	esp, ebp
	pop	ebp
	ret	4
?SetFadeDistance@CBaseEntity@@UAEXH@Z ENDP		; CBaseEntity::SetFadeDistance
_TEXT	ENDS
; Function compile flags: /Odtp /ZI
; File d:\!diffusion 2020\source code 2022\client-server\server\cbase.h
;	COMDAT ?HasSpawnFlags@CBaseEntity@@UBE_NH@Z
_TEXT	SEGMENT
tv68 = -72						; size = 4
_this$ = -4						; size = 4
_nFlags$ = 8						; size = 4
?HasSpawnFlags@CBaseEntity@@UBE_NH@Z PROC		; CBaseEntity::HasSpawnFlags, COMDAT
; _this$ = ecx

; 1202 : {

	push	ebp
	mov	ebp, esp
	sub	esp, 72					; 00000048H
	push	ebx
	push	esi
	push	edi
	mov	DWORD PTR _this$[ebp], ecx

; 1203 : 	return (pev->spawnflags & nFlags) != 0;

	mov	eax, DWORD PTR _this$[ebp]
	mov	ecx, DWORD PTR [eax+4]
	mov	edx, DWORD PTR [ecx+416]
	and	edx, DWORD PTR _nFlags$[ebp]
	je	SHORT $LN3@HasSpawnFl
	mov	DWORD PTR tv68[ebp], 1
	jmp	SHORT $LN4@HasSpawnFl
$LN3@HasSpawnFl:
	mov	DWORD PTR tv68[ebp], 0
$LN4@HasSpawnFl:
	mov	al, BYTE PTR tv68[ebp]

; 1204 : }

	pop	edi
	pop	esi
	pop	ebx
	mov	esp, ebp
	pop	ebp
	ret	4
?HasSpawnFlags@CBaseEntity@@UBE_NH@Z ENDP		; CBaseEntity::HasSpawnFlags
_TEXT	ENDS
; Function compile flags: /Odtp /ZI
; File d:\!diffusion 2020\source code 2022\client-server\server\cbase.h
;	COMDAT ?AddSpawnFlags@CBaseEntity@@UAEXH@Z
_TEXT	SEGMENT
_this$ = -4						; size = 4
_nFlags$ = 8						; size = 4
?AddSpawnFlags@CBaseEntity@@UAEXH@Z PROC		; CBaseEntity::AddSpawnFlags, COMDAT
; _this$ = ecx

; 1197 : {

	push	ebp
	mov	ebp, esp
	sub	esp, 68					; 00000044H
	push	ebx
	push	esi
	push	edi
	mov	DWORD PTR _this$[ebp], ecx

; 1198 : 	pev->spawnflags |= nFlags;

	mov	eax, DWORD PTR _this$[ebp]
	mov	ecx, DWORD PTR [eax+4]
	mov	edx, DWORD PTR [ecx+416]
	or	edx, DWORD PTR _nFlags$[ebp]
	mov	eax, DWORD PTR _this$[ebp]
	mov	ecx, DWORD PTR [eax+4]
	mov	DWORD PTR [ecx+416], edx

; 1199 : }

	pop	edi
	pop	esi
	pop	ebx
	mov	esp, ebp
	pop	ebp
	ret	4
?AddSpawnFlags@CBaseEntity@@UAEXH@Z ENDP		; CBaseEntity::AddSpawnFlags
_TEXT	ENDS
; Function compile flags: /Odtp /ZI
; File d:\!diffusion 2020\source code 2022\client-server\server\cbase.h
;	COMDAT ?TeamID@CBaseEntity@@UAEPBDXZ
_TEXT	SEGMENT
_this$ = -4						; size = 4
?TeamID@CBaseEntity@@UAEPBDXZ PROC			; CBaseEntity::TeamID, COMDAT
; _this$ = ecx

; 466  : 	virtual const char	*TeamID( void ) { return ""; }

	push	ebp
	mov	ebp, esp
	sub	esp, 68					; 00000044H
	push	ebx
	push	esi
	push	edi
	mov	DWORD PTR _this$[ebp], ecx
	mov	eax, OFFSET ??_C@_00CNPNBAHC@?$AA@
	pop	edi
	pop	esi
	pop	ebx
	mov	esp, ebp
	pop	ebp
	ret	0
?TeamID@CBaseEntity@@UAEPBDXZ ENDP			; CBaseEntity::TeamID
_TEXT	ENDS
; Function compile flags: /Odtp /ZI
; File d:\!diffusion 2020\source code 2022\client-server\server\cbase.h
;	COMDAT ?IsBreakable@CBaseEntity@@UAEHXZ
_TEXT	SEGMENT
_this$ = -4						; size = 4
?IsBreakable@CBaseEntity@@UAEHXZ PROC			; CBaseEntity::IsBreakable, COMDAT
; _this$ = ecx

; 465  : 	virtual BOOL	IsBreakable( void ) { return FALSE; }

	push	ebp
	mov	ebp, esp
	sub	esp, 68					; 00000044H
	push	ebx
	push	esi
	push	edi
	mov	DWORD PTR _this$[ebp], ecx
	xor	eax, eax
	pop	edi
	pop	esi
	pop	ebx
	mov	esp, ebp
	pop	ebp
	ret	0
?IsBreakable@CBaseEntity@@UAEHXZ ENDP			; CBaseEntity::IsBreakable
_TEXT	ENDS
; Function compile flags: /Odtp /ZI
; File d:\!diffusion 2020\source code 2022\client-server\server\cbase.h
;	COMDAT ?IsMover@CBaseEntity@@UAEHXZ
_TEXT	SEGMENT
_this$ = -4						; size = 4
?IsMover@CBaseEntity@@UAEHXZ PROC			; CBaseEntity::IsMover, COMDAT
; _this$ = ecx

; 464  : 	virtual BOOL	IsMover( void ) { return FALSE; }

	push	ebp
	mov	ebp, esp
	sub	esp, 68					; 00000044H
	push	ebx
	push	esi
	push	edi
	mov	DWORD PTR _this$[ebp], ecx
	xor	eax, eax
	pop	edi
	pop	esi
	pop	ebx
	mov	esp, ebp
	pop	ebp
	ret	0
?IsMover@CBaseEntity@@UAEHXZ ENDP			; CBaseEntity::IsMover
_TEXT	ENDS
; Function compile flags: /Odtp /ZI
; File d:\!diffusion 2020\source code 2022\client-server\server\cbase.h
;	COMDAT ?IsTank@CBaseEntity@@UAEHXZ
_TEXT	SEGMENT
_this$ = -4						; size = 4
?IsTank@CBaseEntity@@UAEHXZ PROC			; CBaseEntity::IsTank, COMDAT
; _this$ = ecx

; 463  : 	virtual BOOL	IsTank( void ) { return FALSE; }

	push	ebp
	mov	ebp, esp
	sub	esp, 68					; 00000044H
	push	ebx
	push	esi
	push	edi
	mov	DWORD PTR _this$[ebp], ecx
	xor	eax, eax
	pop	edi
	pop	esi
	pop	ebx
	mov	esp, ebp
	pop	ebp
	ret	0
?IsTank@CBaseEntity@@UAEHXZ ENDP			; CBaseEntity::IsTank
_TEXT	ENDS
; Function compile flags: /Odtp /ZI
; File d:\!diffusion 2020\source code 2022\client-server\server\cbase.h
;	COMDAT ?IsPortal@CBaseEntity@@UAEHXZ
_TEXT	SEGMENT
_this$ = -4						; size = 4
?IsPortal@CBaseEntity@@UAEHXZ PROC			; CBaseEntity::IsPortal, COMDAT
; _this$ = ecx

; 462  : 	virtual BOOL	IsPortal( void ) { return FALSE; }

	push	ebp
	mov	ebp, esp
	sub	esp, 68					; 00000044H
	push	ebx
	push	esi
	push	edi
	mov	DWORD PTR _this$[ebp], ecx
	xor	eax, eax
	pop	edi
	pop	esi
	pop	ebx
	mov	esp, ebp
	pop	ebp
	ret	0
?IsPortal@CBaseEntity@@UAEHXZ ENDP			; CBaseEntity::IsPortal
_TEXT	ENDS
; Function compile flags: /Odtp /ZI
; File d:\!diffusion 2020\source code 2022\client-server\server\cbase.h
;	COMDAT ?IsFuncScreen@CBaseEntity@@UAEHXZ
_TEXT	SEGMENT
_this$ = -4						; size = 4
?IsFuncScreen@CBaseEntity@@UAEHXZ PROC			; CBaseEntity::IsFuncScreen, COMDAT
; _this$ = ecx

; 461  : 	virtual BOOL	IsFuncScreen( void ) { return FALSE; }

	push	ebp
	mov	ebp, esp
	sub	esp, 68					; 00000044H
	push	ebx
	push	esi
	push	edi
	mov	DWORD PTR _this$[ebp], ecx
	xor	eax, eax
	pop	edi
	pop	esi
	pop	ebx
	mov	esp, ebp
	pop	ebp
	ret	0
?IsFuncScreen@CBaseEntity@@UAEHXZ ENDP			; CBaseEntity::IsFuncScreen
_TEXT	ENDS
; Function compile flags: /Odtp /ZI
; File d:\!diffusion 2020\source code 2022\client-server\server\cbase.h
;	COMDAT ?IsProjectile@CBaseEntity@@UAEHXZ
_TEXT	SEGMENT
_this$ = -4						; size = 4
?IsProjectile@CBaseEntity@@UAEHXZ PROC			; CBaseEntity::IsProjectile, COMDAT
; _this$ = ecx

; 460  : 	virtual BOOL	IsProjectile( void ) { return FALSE; }

	push	ebp
	mov	ebp, esp
	sub	esp, 68					; 00000044H
	push	ebx
	push	esi
	push	edi
	mov	DWORD PTR _this$[ebp], ecx
	xor	eax, eax
	pop	edi
	pop	esi
	pop	ebx
	mov	esp, ebp
	pop	ebp
	ret	0
?IsProjectile@CBaseEntity@@UAEHXZ ENDP			; CBaseEntity::IsProjectile
_TEXT	ENDS
; Function compile flags: /Odtp /ZI
; File d:\!diffusion 2020\source code 2022\client-server\server\cbase.h
;	COMDAT ?IsPushable@CBaseEntity@@UAEHXZ
_TEXT	SEGMENT
_this$ = -4						; size = 4
?IsPushable@CBaseEntity@@UAEHXZ PROC			; CBaseEntity::IsPushable, COMDAT
; _this$ = ecx

; 459  : 	virtual BOOL	IsPushable( void ) { return FALSE; }

	push	ebp
	mov	ebp, esp
	sub	esp, 68					; 00000044H
	push	ebx
	push	esi
	push	edi
	mov	DWORD PTR _this$[ebp], ecx
	xor	eax, eax
	pop	edi
	pop	esi
	pop	ebx
	mov	esp, ebp
	pop	ebp
	ret	0
?IsPushable@CBaseEntity@@UAEHXZ ENDP			; CBaseEntity::IsPushable
_TEXT	ENDS
; Function compile flags: /Odtp /ZI
; File d:\!diffusion 2020\source code 2022\client-server\server\cbase.h
;	COMDAT ?IsMonster@CBaseEntity@@UAEHXZ
_TEXT	SEGMENT
tv68 = -72						; size = 4
_this$ = -4						; size = 4
?IsMonster@CBaseEntity@@UAEHXZ PROC			; CBaseEntity::IsMonster, COMDAT
; _this$ = ecx

; 458  : 	virtual BOOL	IsMonster( void ) { return (pev->flags & FL_MONSTER ? TRUE : FALSE); }

	push	ebp
	mov	ebp, esp
	sub	esp, 72					; 00000048H
	push	ebx
	push	esi
	push	edi
	mov	DWORD PTR _this$[ebp], ecx
	mov	eax, DWORD PTR _this$[ebp]
	mov	ecx, DWORD PTR [eax+4]
	mov	edx, DWORD PTR [ecx+420]
	and	edx, 32					; 00000020H
	je	SHORT $LN3@IsMonster
	mov	DWORD PTR tv68[ebp], 1
	jmp	SHORT $LN4@IsMonster
$LN3@IsMonster:
	mov	DWORD PTR tv68[ebp], 0
$LN4@IsMonster:
	mov	eax, DWORD PTR tv68[ebp]
	pop	edi
	pop	esi
	pop	ebx
	mov	esp, ebp
	pop	ebp
	ret	0
?IsMonster@CBaseEntity@@UAEHXZ ENDP			; CBaseEntity::IsMonster
_TEXT	ENDS
; Function compile flags: /Odtp /ZI
; File d:\!diffusion 2020\source code 2022\client-server\server\cbase.h
;	COMDAT ?IsNetClient@CBaseEntity@@UAEHXZ
_TEXT	SEGMENT
_this$ = -4						; size = 4
?IsNetClient@CBaseEntity@@UAEHXZ PROC			; CBaseEntity::IsNetClient, COMDAT
; _this$ = ecx

; 457  : 	virtual BOOL	IsNetClient( void ) { return FALSE; }

	push	ebp
	mov	ebp, esp
	sub	esp, 68					; 00000044H
	push	ebx
	push	esi
	push	edi
	mov	DWORD PTR _this$[ebp], ecx
	xor	eax, eax
	pop	edi
	pop	esi
	pop	ebx
	mov	esp, ebp
	pop	ebp
	ret	0
?IsNetClient@CBaseEntity@@UAEHXZ ENDP			; CBaseEntity::IsNetClient
_TEXT	ENDS
; Function compile flags: /Odtp /ZI
; File d:\!diffusion 2020\source code 2022\client-server\server\cbase.h
;	COMDAT ?IsPlayer@CBaseEntity@@UAEHXZ
_TEXT	SEGMENT
_this$ = -4						; size = 4
?IsPlayer@CBaseEntity@@UAEHXZ PROC			; CBaseEntity::IsPlayer, COMDAT
; _this$ = ecx

; 456  : 	virtual BOOL	IsPlayer( void ) { return FALSE; }

	push	ebp
	mov	ebp, esp
	sub	esp, 68					; 00000044H
	push	ebx
	push	esi
	push	edi
	mov	DWORD PTR _this$[ebp], ecx
	xor	eax, eax
	pop	edi
	pop	esi
	pop	ebx
	mov	esp, ebp
	pop	ebp
	ret	0
?IsPlayer@CBaseEntity@@UAEHXZ ENDP			; CBaseEntity::IsPlayer
_TEXT	ENDS
; Function compile flags: /Odtp /ZI
; File d:\!diffusion 2020\source code 2022\client-server\server\cbase.h
;	COMDAT ?HasTarget@CBaseEntity@@UAEHH@Z
_TEXT	SEGMENT
_this$ = -4						; size = 4
_targetname$ = 8					; size = 4
?HasTarget@CBaseEntity@@UAEHH@Z PROC			; CBaseEntity::HasTarget, COMDAT
; _this$ = ecx

; 454  : 	virtual BOOL	HasTarget( string_t targetname ) { return FStrEq(STRING(targetname), STRING(pev->target) ); }

	push	ebp
	mov	ebp, esp
	sub	esp, 68					; 00000044H
	push	ebx
	push	esi
	push	edi
	mov	DWORD PTR _this$[ebp], ecx
	mov	eax, DWORD PTR _this$[ebp]
	mov	ecx, DWORD PTR [eax+4]
	mov	edx, DWORD PTR [ecx+456]
	push	edx
	call	DWORD PTR ?g_engfuncs@@3Uenginefuncs_s@@A+264
	add	esp, 4
	push	eax
	mov	eax, DWORD PTR _targetname$[ebp]
	push	eax
	call	DWORD PTR ?g_engfuncs@@3Uenginefuncs_s@@A+264
	add	esp, 4
	push	eax
	call	?FStrEq@@YAHPBD0@Z			; FStrEq
	add	esp, 8
	pop	edi
	pop	esi
	pop	ebx
	mov	esp, ebp
	pop	ebp
	ret	4
?HasTarget@CBaseEntity@@UAEHH@Z ENDP			; CBaseEntity::HasTarget
_TEXT	ENDS
; Function compile flags: /Odtp /ZI
; File d:\!diffusion 2020\source code 2022\client-server\server\cbase.h
;	COMDAT ?ReflectGauss@CBaseEntity@@UAEHXZ
_TEXT	SEGMENT
tv77 = -72						; size = 4
_this$ = -4						; size = 4
?ReflectGauss@CBaseEntity@@UAEHXZ PROC			; CBaseEntity::ReflectGauss, COMDAT
; _this$ = ecx

; 453  : 	virtual BOOL	ReflectGauss( void ) { return (( IsBSPModel() || IsCustomModel()) && !pev->takedamage ); }

	push	ebp
	mov	ebp, esp
	sub	esp, 72					; 00000048H
	push	ebx
	push	esi
	push	edi
	mov	DWORD PTR _this$[ebp], ecx
	mov	eax, DWORD PTR _this$[ebp]
	mov	edx, DWORD PTR [eax]
	mov	ecx, DWORD PTR _this$[ebp]
	mov	eax, DWORD PTR [edx+200]
	call	eax
	test	eax, eax
	jne	SHORT $LN3@ReflectGau
	mov	ecx, DWORD PTR _this$[ebp]
	mov	edx, DWORD PTR [ecx]
	mov	ecx, DWORD PTR _this$[ebp]
	mov	eax, DWORD PTR [edx+204]
	call	eax
	test	eax, eax
	je	SHORT $LN4@ReflectGau
$LN3@ReflectGau:
	mov	ecx, DWORD PTR _this$[ebp]
	mov	edx, DWORD PTR [ecx+4]
	movss	xmm0, DWORD PTR [edx+364]
	ucomiss	xmm0, DWORD PTR __real@00000000
	lahf
	test	ah, 68					; 00000044H
	jp	SHORT $LN4@ReflectGau
	mov	DWORD PTR tv77[ebp], 1
	jmp	SHORT $LN5@ReflectGau
$LN4@ReflectGau:
	mov	DWORD PTR tv77[ebp], 0
$LN5@ReflectGau:
	mov	eax, DWORD PTR tv77[ebp]
	pop	edi
	pop	esi
	pop	ebx
	mov	esp, ebp
	pop	ebp
	ret	0
?ReflectGauss@CBaseEntity@@UAEHXZ ENDP			; CBaseEntity::ReflectGauss
_TEXT	ENDS
; Function compile flags: /Odtp /ZI
; File d:\!diffusion 2020\source code 2022\client-server\server\cbase.h
;	COMDAT ?IsCustomModel@CBaseEntity@@UAEHXZ
_TEXT	SEGMENT
tv67 = -72						; size = 4
_this$ = -4						; size = 4
?IsCustomModel@CBaseEntity@@UAEHXZ PROC			; CBaseEntity::IsCustomModel, COMDAT
; _this$ = ecx

; 452  : 	virtual BOOL	IsCustomModel( void ) { return pev->solid == SOLID_CUSTOM; }

	push	ebp
	mov	ebp, esp
	sub	esp, 72					; 00000048H
	push	ebx
	push	esi
	push	edi
	mov	DWORD PTR _this$[ebp], ecx
	mov	eax, DWORD PTR _this$[ebp]
	mov	ecx, DWORD PTR [eax+4]
	cmp	DWORD PTR [ecx+268], 5
	jne	SHORT $LN3@IsCustomMo
	mov	DWORD PTR tv67[ebp], 1
	jmp	SHORT $LN4@IsCustomMo
$LN3@IsCustomMo:
	mov	DWORD PTR tv67[ebp], 0
$LN4@IsCustomMo:
	mov	eax, DWORD PTR tv67[ebp]
	pop	edi
	pop	esi
	pop	ebx
	mov	esp, ebp
	pop	ebp
	ret	0
?IsCustomModel@CBaseEntity@@UAEHXZ ENDP			; CBaseEntity::IsCustomModel
_TEXT	ENDS
; Function compile flags: /Odtp /ZI
; File d:\!diffusion 2020\source code 2022\client-server\server\cbase.h
;	COMDAT ?IsBSPModel@CBaseEntity@@UAEHXZ
_TEXT	SEGMENT
tv69 = -72						; size = 4
_this$ = -4						; size = 4
?IsBSPModel@CBaseEntity@@UAEHXZ PROC			; CBaseEntity::IsBSPModel, COMDAT
; _this$ = ecx

; 451  : 	virtual BOOL	IsBSPModel( void ) { return UTIL_GetModelType( pev->modelindex ) == mod_brush; }

	push	ebp
	mov	ebp, esp
	sub	esp, 72					; 00000048H
	push	ebx
	push	esi
	push	edi
	mov	DWORD PTR _this$[ebp], ecx
	mov	eax, DWORD PTR _this$[ebp]
	mov	ecx, DWORD PTR [eax+4]
	mov	edx, DWORD PTR [ecx+180]
	push	edx
	call	?UTIL_GetModelType@@YA?AW4modtype_t@@H@Z ; UTIL_GetModelType
	add	esp, 4
	test	eax, eax
	jne	SHORT $LN3@IsBSPModel
	mov	DWORD PTR tv69[ebp], 1
	jmp	SHORT $LN4@IsBSPModel
$LN3@IsBSPModel:
	mov	DWORD PTR tv69[ebp], 0
$LN4@IsBSPModel:
	mov	eax, DWORD PTR tv69[ebp]
	pop	edi
	pop	esi
	pop	ebx
	mov	esp, ebp
	pop	ebp
	ret	0
?IsBSPModel@CBaseEntity@@UAEHXZ ENDP			; CBaseEntity::IsBSPModel
_TEXT	ENDS
; Function compile flags: /Odtp /ZI
; File d:\!diffusion 2020\source code 2022\client-server\server\cbase.h
;	COMDAT ?IsAlive@CBaseEntity@@UAEHXZ
_TEXT	SEGMENT
tv70 = -72						; size = 4
_this$ = -4						; size = 4
?IsAlive@CBaseEntity@@UAEHXZ PROC			; CBaseEntity::IsAlive, COMDAT
; _this$ = ecx

; 450  : 	virtual BOOL	IsAlive( void ) { return (pev->deadflag == DEAD_NO) && pev->health > 0; }

	push	ebp
	mov	ebp, esp
	sub	esp, 72					; 00000048H
	push	ebx
	push	esi
	push	edi
	mov	DWORD PTR _this$[ebp], ecx
	mov	eax, DWORD PTR _this$[ebp]
	mov	ecx, DWORD PTR [eax+4]
	cmp	DWORD PTR [ecx+368], 0
	jne	SHORT $LN3@IsAlive
	mov	edx, DWORD PTR _this$[ebp]
	mov	eax, DWORD PTR [edx+4]
	movss	xmm0, DWORD PTR [eax+352]
	comiss	xmm0, DWORD PTR __real@00000000
	jbe	SHORT $LN3@IsAlive
	mov	DWORD PTR tv70[ebp], 1
	jmp	SHORT $LN4@IsAlive
$LN3@IsAlive:
	mov	DWORD PTR tv70[ebp], 0
$LN4@IsAlive:
	mov	eax, DWORD PTR tv70[ebp]
	pop	edi
	pop	esi
	pop	ebx
	mov	esp, ebp
	pop	ebp
	ret	0
?IsAlive@CBaseEntity@@UAEHXZ ENDP			; CBaseEntity::IsAlive
_TEXT	ENDS
; Function compile flags: /Odtp /ZI
; File d:\!diffusion 2020\source code 2022\client-server\server\cbase.h
;	COMDAT ?IsSneaking@CBaseEntity@@UAEHXZ
_TEXT	SEGMENT
_this$ = -4						; size = 4
?IsSneaking@CBaseEntity@@UAEHXZ PROC			; CBaseEntity::IsSneaking, COMDAT
; _this$ = ecx

; 449  : 	virtual BOOL	IsSneaking( void ) { return FALSE; }

	push	ebp
	mov	ebp, esp
	sub	esp, 68					; 00000044H
	push	ebx
	push	esi
	push	edi
	mov	DWORD PTR _this$[ebp], ecx
	xor	eax, eax
	pop	edi
	pop	esi
	pop	ebx
	mov	esp, ebp
	pop	ebp
	ret	0
?IsSneaking@CBaseEntity@@UAEHXZ ENDP			; CBaseEntity::IsSneaking
_TEXT	ENDS
; Function compile flags: /Odtp /ZI
; File d:\!diffusion 2020\source code 2022\client-server\server\cbase.h
;	COMDAT ?OnControls@CBaseEntity@@UAEHPAV1@@Z
_TEXT	SEGMENT
_this$ = -4						; size = 4
_pTest$ = 8						; size = 4
?OnControls@CBaseEntity@@UAEHPAV1@@Z PROC		; CBaseEntity::OnControls, COMDAT
; _this$ = ecx

; 448  : 	virtual BOOL	OnControls( CBaseEntity *pTest ) { return FALSE; }

	push	ebp
	mov	ebp, esp
	sub	esp, 68					; 00000044H
	push	ebx
	push	esi
	push	edi
	mov	DWORD PTR _this$[ebp], ecx
	xor	eax, eax
	pop	edi
	pop	esi
	pop	ebx
	mov	esp, ebp
	pop	ebp
	ret	4
?OnControls@CBaseEntity@@UAEHPAV1@@Z ENDP		; CBaseEntity::OnControls
_TEXT	ENDS
; Function compile flags: /Odtp /ZI
; File d:\!diffusion 2020\source code 2022\client-server\server\cbase.h
;	COMDAT ?StopSneaking@CBaseEntity@@UAEXXZ
_TEXT	SEGMENT
_this$ = -4						; size = 4
?StopSneaking@CBaseEntity@@UAEXXZ PROC			; CBaseEntity::StopSneaking, COMDAT
; _this$ = ecx

; 447  : 	virtual void	StopSneaking( void ) {}

	push	ebp
	mov	ebp, esp
	sub	esp, 68					; 00000044H
	push	ebx
	push	esi
	push	edi
	mov	DWORD PTR _this$[ebp], ecx
	pop	edi
	pop	esi
	pop	ebx
	mov	esp, ebp
	pop	ebp
	ret	0
?StopSneaking@CBaseEntity@@UAEXXZ ENDP			; CBaseEntity::StopSneaking
_TEXT	ENDS
; Function compile flags: /Odtp /ZI
; File d:\!diffusion 2020\source code 2022\client-server\server\cbase.h
;	COMDAT ?StartSneaking@CBaseEntity@@UAEXXZ
_TEXT	SEGMENT
_this$ = -4						; size = 4
?StartSneaking@CBaseEntity@@UAEXXZ PROC			; CBaseEntity::StartSneaking, COMDAT
; _this$ = ecx

; 446  : 	virtual void	StartSneaking( void ) {}

	push	ebp
	mov	ebp, esp
	sub	esp, 68					; 00000044H
	push	ebx
	push	esi
	push	edi
	mov	DWORD PTR _this$[ebp], ecx
	pop	edi
	pop	esi
	pop	ebx
	mov	esp, ebp
	pop	ebp
	ret	0
?StartSneaking@CBaseEntity@@UAEXXZ ENDP			; CBaseEntity::StartSneaking
_TEXT	ENDS
; Function compile flags: /Odtp /ZI
; File d:\!diffusion 2020\source code 2022\client-server\server\cbase.h
;	COMDAT ?SetToggleState@CBaseEntity@@UAEXH@Z
_TEXT	SEGMENT
_this$ = -4						; size = 4
_state$ = 8						; size = 4
?SetToggleState@CBaseEntity@@UAEXH@Z PROC		; CBaseEntity::SetToggleState, COMDAT
; _this$ = ecx

; 445  : 	virtual void	SetToggleState( int state ) {}

	push	ebp
	mov	ebp, esp
	sub	esp, 68					; 00000044H
	push	ebx
	push	esi
	push	edi
	mov	DWORD PTR _this$[ebp], ecx
	pop	edi
	pop	esi
	pop	ebx
	mov	esp, ebp
	pop	ebp
	ret	4
?SetToggleState@CBaseEntity@@UAEXH@Z ENDP		; CBaseEntity::SetToggleState
_TEXT	ENDS
; Function compile flags: /Odtp /ZI
; File d:\!diffusion 2020\source code 2022\client-server\server\cbase.h
;	COMDAT ?TransferReset@CBaseEntity@@UAEXXZ
_TEXT	SEGMENT
_this$ = -4						; size = 4
?TransferReset@CBaseEntity@@UAEXXZ PROC			; CBaseEntity::TransferReset, COMDAT
; _this$ = ecx

; 442  : 	virtual void	TransferReset( void ) {}

	push	ebp
	mov	ebp, esp
	sub	esp, 68					; 00000044H
	push	ebx
	push	esi
	push	edi
	mov	DWORD PTR _this$[ebp], ecx
	pop	edi
	pop	esi
	pop	ebx
	mov	esp, ebp
	pop	ebp
	ret	0
?TransferReset@CBaseEntity@@UAEXXZ ENDP			; CBaseEntity::TransferReset
_TEXT	ENDS
; Function compile flags: /Odtp /ZI
; File d:\!diffusion 2020\source code 2022\client-server\server\cbase.h
;	COMDAT ?OverrideReset@CBaseEntity@@UAEXXZ
_TEXT	SEGMENT
_this$ = -4						; size = 4
?OverrideReset@CBaseEntity@@UAEXXZ PROC			; CBaseEntity::OverrideReset, COMDAT
; _this$ = ecx

; 441  : 	virtual void	OverrideReset( void ) {}

	push	ebp
	mov	ebp, esp
	sub	esp, 68					; 00000044H
	push	ebx
	push	esi
	push	edi
	mov	DWORD PTR _this$[ebp], ecx
	pop	edi
	pop	esi
	pop	ebx
	mov	esp, ebp
	pop	ebp
	ret	0
?OverrideReset@CBaseEntity@@UAEXXZ ENDP			; CBaseEntity::OverrideReset
_TEXT	ENDS
; Function compile flags: /Odtp /ZI
; File d:\!diffusion 2020\source code 2022\client-server\server\cbase.h
;	COMDAT ?IsMoving@CBaseEntity@@UAEHXZ
_TEXT	SEGMENT
_this$ = -4						; size = 4
?IsMoving@CBaseEntity@@UAEHXZ PROC			; CBaseEntity::IsMoving, COMDAT
; _this$ = ecx

; 440  : 	virtual int	IsMoving( void ) { return GetAbsVelocity() != g_vecZero; }

	push	ebp
	mov	ebp, esp
	sub	esp, 68					; 00000044H
	push	ebx
	push	esi
	push	edi
	mov	DWORD PTR _this$[ebp], ecx
	push	OFFSET ?g_vecZero@@3VVector@@B		; g_vecZero
	mov	ecx, DWORD PTR _this$[ebp]
	call	?GetAbsVelocity@CBaseEntity@@QBEABVVector@@XZ ; CBaseEntity::GetAbsVelocity
	mov	ecx, eax
	call	??9Vector@@QBEHABV0@@Z			; Vector::operator!=
	pop	edi
	pop	esi
	pop	ebx
	mov	esp, ebp
	pop	ebp
	ret	0
?IsMoving@CBaseEntity@@UAEHXZ ENDP			; CBaseEntity::IsMoving
_TEXT	ENDS
; Function compile flags: /Odtp /ZI
; File d:\!diffusion 2020\source code 2022\client-server\server\cbase.h
;	COMDAT ?GetDelay@CBaseEntity@@UAEMXZ
_TEXT	SEGMENT
_this$ = -4						; size = 4
?GetDelay@CBaseEntity@@UAEMXZ PROC			; CBaseEntity::GetDelay, COMDAT
; _this$ = ecx

; 439  : 	virtual float	GetDelay( void ) { return 0; }

	push	ebp
	mov	ebp, esp
	sub	esp, 68					; 00000044H
	push	ebx
	push	esi
	push	edi
	mov	DWORD PTR _this$[ebp], ecx
	fldz
	pop	edi
	pop	esi
	pop	ebx
	mov	esp, ebp
	pop	ebp
	ret	0
?GetDelay@CBaseEntity@@UAEMXZ ENDP			; CBaseEntity::GetDelay
_TEXT	ENDS
; Function compile flags: /Odtp /ZI
; File d:\!diffusion 2020\source code 2022\client-server\server\cbase.h
;	COMDAT ?GiveAmmo@CBaseEntity@@UAEHHPADH@Z
_TEXT	SEGMENT
_this$ = -4						; size = 4
_iAmount$ = 8						; size = 4
_szName$ = 12						; size = 4
_iMax$ = 16						; size = 4
?GiveAmmo@CBaseEntity@@UAEHHPADH@Z PROC			; CBaseEntity::GiveAmmo, COMDAT
; _this$ = ecx

; 438  : 	virtual int 	GiveAmmo( int iAmount, char *szName, int iMax ) { return -1; };

	push	ebp
	mov	ebp, esp
	sub	esp, 68					; 00000044H
	push	ebx
	push	esi
	push	edi
	mov	DWORD PTR _this$[ebp], ecx
	or	eax, -1
	pop	edi
	pop	esi
	pop	ebx
	mov	esp, ebp
	pop	ebp
	ret	12					; 0000000cH
?GiveAmmo@CBaseEntity@@UAEHHPADH@Z ENDP			; CBaseEntity::GiveAmmo
_TEXT	ENDS
; Function compile flags: /Odtp /ZI
; File d:\!diffusion 2020\source code 2022\client-server\server\cbase.h
;	COMDAT ?RemovePlayerItem@CBaseEntity@@UAEHPAVCBasePlayerItem@@@Z
_TEXT	SEGMENT
_this$ = -4						; size = 4
_pItem$ = 8						; size = 4
?RemovePlayerItem@CBaseEntity@@UAEHPAVCBasePlayerItem@@@Z PROC ; CBaseEntity::RemovePlayerItem, COMDAT
; _this$ = ecx

; 437  : 	virtual BOOL	RemovePlayerItem( CBasePlayerItem *pItem ) { return 0; }

	push	ebp
	mov	ebp, esp
	sub	esp, 68					; 00000044H
	push	ebx
	push	esi
	push	edi
	mov	DWORD PTR _this$[ebp], ecx
	xor	eax, eax
	pop	edi
	pop	esi
	pop	ebx
	mov	esp, ebp
	pop	ebp
	ret	4
?RemovePlayerItem@CBaseEntity@@UAEHPAVCBasePlayerItem@@@Z ENDP ; CBaseEntity::RemovePlayerItem
_TEXT	ENDS
; Function compile flags: /Odtp /ZI
; File d:\!diffusion 2020\source code 2022\client-server\server\cbase.h
;	COMDAT ?AddPlayerItem@CBaseEntity@@UAEHPAVCBasePlayerItem@@@Z
_TEXT	SEGMENT
_this$ = -4						; size = 4
_pItem$ = 8						; size = 4
?AddPlayerItem@CBaseEntity@@UAEHPAVCBasePlayerItem@@@Z PROC ; CBaseEntity::AddPlayerItem, COMDAT
; _this$ = ecx

; 436  : 	virtual BOOL	AddPlayerItem( CBasePlayerItem *pItem ) { return 0; }

	push	ebp
	mov	ebp, esp
	sub	esp, 68					; 00000044H
	push	ebx
	push	esi
	push	edi
	mov	DWORD PTR _this$[ebp], ecx
	xor	eax, eax
	pop	edi
	pop	esi
	pop	ebx
	mov	esp, ebp
	pop	ebp
	ret	4
?AddPlayerItem@CBaseEntity@@UAEHPAVCBasePlayerItem@@@Z ENDP ; CBaseEntity::AddPlayerItem
_TEXT	ENDS
; Function compile flags: /Odtp /ZI
; File d:\!diffusion 2020\source code 2022\client-server\server\cbase.h
;	COMDAT ?AddPointsToTeam@CBaseEntity@@UAEXHH@Z
_TEXT	SEGMENT
_this$ = -4						; size = 4
_score$ = 8						; size = 4
_bAllowNegativeScore$ = 12				; size = 4
?AddPointsToTeam@CBaseEntity@@UAEXHH@Z PROC		; CBaseEntity::AddPointsToTeam, COMDAT
; _this$ = ecx

; 435  : 	virtual void	AddPointsToTeam( int score, BOOL bAllowNegativeScore ) {}

	push	ebp
	mov	ebp, esp
	sub	esp, 68					; 00000044H
	push	ebx
	push	esi
	push	edi
	mov	DWORD PTR _this$[ebp], ecx
	pop	edi
	pop	esi
	pop	ebx
	mov	esp, ebp
	pop	ebp
	ret	8
?AddPointsToTeam@CBaseEntity@@UAEXHH@Z ENDP		; CBaseEntity::AddPointsToTeam
_TEXT	ENDS
; Function compile flags: /Odtp /ZI
; File d:\!diffusion 2020\source code 2022\client-server\server\cbase.h
;	COMDAT ?AddPoints@CBaseEntity@@UAEXHH@Z
_TEXT	SEGMENT
_this$ = -4						; size = 4
_score$ = 8						; size = 4
_bAllowNegativeScore$ = 12				; size = 4
?AddPoints@CBaseEntity@@UAEXHH@Z PROC			; CBaseEntity::AddPoints, COMDAT
; _this$ = ecx

; 434  : 	virtual void	AddPoints( int score, BOOL bAllowNegativeScore ) {}

	push	ebp
	mov	ebp, esp
	sub	esp, 68					; 00000044H
	push	ebx
	push	esi
	push	edi
	mov	DWORD PTR _this$[ebp], ecx
	pop	edi
	pop	esi
	pop	ebx
	mov	esp, ebp
	pop	ebp
	ret	8
?AddPoints@CBaseEntity@@UAEXHH@Z ENDP			; CBaseEntity::AddPoints
_TEXT	ENDS
; Function compile flags: /Odtp /ZI
; File d:\!diffusion 2020\source code 2022\client-server\server\cbase.h
;	COMDAT ?GetToggleState@CBaseEntity@@UAEHXZ
_TEXT	SEGMENT
_this$ = -4						; size = 4
?GetToggleState@CBaseEntity@@UAEHXZ PROC		; CBaseEntity::GetToggleState, COMDAT
; _this$ = ecx

; 433  : 	virtual int	GetToggleState( void ) { return TS_AT_TOP; }

	push	ebp
	mov	ebp, esp
	sub	esp, 68					; 00000044H
	push	ebx
	push	esi
	push	edi
	mov	DWORD PTR _this$[ebp], ecx
	xor	eax, eax
	pop	edi
	pop	esi
	pop	ebx
	mov	esp, ebp
	pop	ebp
	ret	0
?GetToggleState@CBaseEntity@@UAEHXZ ENDP		; CBaseEntity::GetToggleState
_TEXT	ENDS
; Function compile flags: /Odtp /ZI
; File d:\!diffusion 2020\source code 2022\client-server\server\cbase.h
;	COMDAT ?MySquadMonsterPointer@CBaseEntity@@UAEPAVCSquadMonster@@XZ
_TEXT	SEGMENT
_this$ = -4						; size = 4
?MySquadMonsterPointer@CBaseEntity@@UAEPAVCSquadMonster@@XZ PROC ; CBaseEntity::MySquadMonsterPointer, COMDAT
; _this$ = ecx

; 432  : 	virtual CSquadMonster *MySquadMonsterPointer( void ) { return NULL;}

	push	ebp
	mov	ebp, esp
	sub	esp, 68					; 00000044H
	push	ebx
	push	esi
	push	edi
	mov	DWORD PTR _this$[ebp], ecx
	xor	eax, eax
	pop	edi
	pop	esi
	pop	ebx
	mov	esp, ebp
	pop	ebp
	ret	0
?MySquadMonsterPointer@CBaseEntity@@UAEPAVCSquadMonster@@XZ ENDP ; CBaseEntity::MySquadMonsterPointer
_TEXT	ENDS
; Function compile flags: /Odtp /ZI
; File d:\!diffusion 2020\source code 2022\client-server\server\cbase.h
;	COMDAT ?MyMonsterPointer@CBaseEntity@@UAEPAVCBaseMonster@@XZ
_TEXT	SEGMENT
_this$ = -4						; size = 4
?MyMonsterPointer@CBaseEntity@@UAEPAVCBaseMonster@@XZ PROC ; CBaseEntity::MyMonsterPointer, COMDAT
; _this$ = ecx

; 431  : 	virtual CBaseMonster *MyMonsterPointer( void ) { return NULL;}

	push	ebp
	mov	ebp, esp
	sub	esp, 68					; 00000044H
	push	ebx
	push	esi
	push	edi
	mov	DWORD PTR _this$[ebp], ecx
	xor	eax, eax
	pop	edi
	pop	esi
	pop	ebx
	mov	esp, ebp
	pop	ebp
	ret	0
?MyMonsterPointer@CBaseEntity@@UAEPAVCBaseMonster@@XZ ENDP ; CBaseEntity::MyMonsterPointer
_TEXT	ENDS
; Function compile flags: /Odtp /ZI
; File d:\!diffusion 2020\source code 2022\client-server\server\cbase.h
;	COMDAT ?IsTriggered@CBaseEntity@@UAEHPAV1@@Z
_TEXT	SEGMENT
_this$ = -4						; size = 4
_pActivator$ = 8					; size = 4
?IsTriggered@CBaseEntity@@UAEHPAV1@@Z PROC		; CBaseEntity::IsTriggered, COMDAT
; _this$ = ecx

; 430  : 	virtual BOOL	IsTriggered( CBaseEntity *pActivator ) {return TRUE;}

	push	ebp
	mov	ebp, esp
	sub	esp, 68					; 00000044H
	push	ebx
	push	esi
	push	edi
	mov	DWORD PTR _this$[ebp], ecx
	mov	eax, 1
	pop	edi
	pop	esi
	pop	ebx
	mov	esp, ebp
	pop	ebp
	ret	4
?IsTriggered@CBaseEntity@@UAEHPAV1@@Z ENDP		; CBaseEntity::IsTriggered
_TEXT	ENDS
; Function compile flags: /Odtp /ZI
; File d:\!diffusion 2020\source code 2022\client-server\server\cbase.h
;	COMDAT ?BloodColor@CBaseEntity@@UAEHXZ
_TEXT	SEGMENT
_this$ = -4						; size = 4
?BloodColor@CBaseEntity@@UAEHXZ PROC			; CBaseEntity::BloodColor, COMDAT
; _this$ = ecx

; 428  : 	virtual int	BloodColor( void ) { return DONT_BLEED; }

	push	ebp
	mov	ebp, esp
	sub	esp, 68					; 00000044H
	push	ebx
	push	esi
	push	edi
	mov	DWORD PTR _this$[ebp], ecx
	or	eax, -1
	pop	edi
	pop	esi
	pop	ebx
	mov	esp, ebp
	pop	ebp
	ret	0
?BloodColor@CBaseEntity@@UAEHXZ ENDP			; CBaseEntity::BloodColor
_TEXT	ENDS
; Function compile flags: /Odtp /ZI
; File d:\!diffusion 2020\source code 2022\client-server\server\cbase.h
;	COMDAT ?GetState@CBaseEntity@@UAE?AW4STATE@@PAV1@@Z
_TEXT	SEGMENT
_this$ = -4						; size = 4
_pEnt$ = 8						; size = 4
?GetState@CBaseEntity@@UAE?AW4STATE@@PAV1@@Z PROC	; CBaseEntity::GetState, COMDAT
; _this$ = ecx

; 421  : 	virtual STATE GetState ( CBaseEntity* pEnt ) { return GetState(); };

	push	ebp
	mov	ebp, esp
	sub	esp, 68					; 00000044H
	push	ebx
	push	esi
	push	edi
	mov	DWORD PTR _this$[ebp], ecx
	mov	eax, DWORD PTR _this$[ebp]
	mov	edx, DWORD PTR [eax]
	mov	ecx, DWORD PTR _this$[ebp]
	mov	eax, DWORD PTR [edx+88]
	call	eax
	pop	edi
	pop	esi
	pop	ebx
	mov	esp, ebp
	pop	ebp
	ret	4
?GetState@CBaseEntity@@UAE?AW4STATE@@PAV1@@Z ENDP	; CBaseEntity::GetState
_TEXT	ENDS
; Function compile flags: /Odtp /ZI
; File d:\!diffusion 2020\source code 2022\client-server\server\cbase.h
;	COMDAT ?GetState@CBaseEntity@@UAE?AW4STATE@@XZ
_TEXT	SEGMENT
_this$ = -4						; size = 4
?GetState@CBaseEntity@@UAE?AW4STATE@@XZ PROC		; CBaseEntity::GetState, COMDAT
; _this$ = ecx

; 418  : 	virtual STATE GetState ( void ) { return STATE_OFF; };

	push	ebp
	mov	ebp, esp
	sub	esp, 68					; 00000044H
	push	ebx
	push	esi
	push	edi
	mov	DWORD PTR _this$[ebp], ecx
	xor	eax, eax
	pop	edi
	pop	esi
	pop	ebx
	mov	esp, ebp
	pop	ebp
	ret	0
?GetState@CBaseEntity@@UAE?AW4STATE@@XZ ENDP		; CBaseEntity::GetState
_TEXT	ENDS
; Function compile flags: /Odtp /ZI
; File d:\!diffusion 2020\source code 2022\client-server\server\cbase.h
;	COMDAT ?IsRigidBody@CBaseEntity@@UAEHXZ
_TEXT	SEGMENT
tv67 = -72						; size = 4
_this$ = -4						; size = 4
?IsRigidBody@CBaseEntity@@UAEHXZ PROC			; CBaseEntity::IsRigidBody, COMDAT
; _this$ = ecx

; 407  : 	virtual BOOL IsRigidBody( void ) { return (m_iActorType == ACTOR_DYNAMIC); } 

	push	ebp
	mov	ebp, esp
	sub	esp, 72					; 00000048H
	push	ebx
	push	esi
	push	edi
	mov	DWORD PTR _this$[ebp], ecx
	mov	eax, DWORD PTR _this$[ebp]
	movzx	ecx, BYTE PTR [eax+1616]
	cmp	ecx, 1
	jne	SHORT $LN3@IsRigidBod
	mov	DWORD PTR tv67[ebp], 1
	jmp	SHORT $LN4@IsRigidBod
$LN3@IsRigidBod:
	mov	DWORD PTR tv67[ebp], 0
$LN4@IsRigidBod:
	mov	eax, DWORD PTR tv67[ebp]
	pop	edi
	pop	esi
	pop	ebx
	mov	esp, ebp
	pop	ebp
	ret	0
?IsRigidBody@CBaseEntity@@UAEHXZ ENDP			; CBaseEntity::IsRigidBody
_TEXT	ENDS
; Function compile flags: /Odtp /ZI
; File d:\!diffusion 2020\source code 2022\client-server\server\cbase.h
;	COMDAT ?DeathNotice@CBaseEntity@@UAEXPAUentvars_s@@@Z
_TEXT	SEGMENT
_this$ = -4						; size = 4
_pevChild$ = 8						; size = 4
?DeathNotice@CBaseEntity@@UAEXPAUentvars_s@@@Z PROC	; CBaseEntity::DeathNotice, COMDAT
; _this$ = ecx

; 406  : 	virtual void DeathNotice ( entvars_t *pevChild ) { } // monster maker children use this to tell the monster maker that they have died.

	push	ebp
	mov	ebp, esp
	sub	esp, 68					; 00000044H
	push	ebx
	push	esi
	push	edi
	mov	DWORD PTR _this$[ebp], ecx
	pop	edi
	pop	esi
	pop	ebx
	mov	esp, ebp
	pop	ebp
	ret	4
?DeathNotice@CBaseEntity@@UAEXPAUentvars_s@@@Z ENDP	; CBaseEntity::DeathNotice
_TEXT	ENDS
; Function compile flags: /Odtp /ZI
; File d:\!diffusion 2020\source code 2022\client-server\server\cbase.h
;	COMDAT ?Classify@CBaseEntity@@UAEHXZ
_TEXT	SEGMENT
_this$ = -4						; size = 4
?Classify@CBaseEntity@@UAEHXZ PROC			; CBaseEntity::Classify, COMDAT
; _this$ = ecx

; 405  : 	virtual int Classify ( void ) { return CLASS_NONE; };

	push	ebp
	mov	ebp, esp
	sub	esp, 68					; 00000044H
	push	ebx
	push	esi
	push	edi
	mov	DWORD PTR _this$[ebp], ecx
	xor	eax, eax
	pop	edi
	pop	esi
	pop	ebx
	mov	esp, ebp
	pop	ebp
	ret	0
?Classify@CBaseEntity@@UAEHXZ ENDP			; CBaseEntity::Classify
_TEXT	ENDS
; Function compile flags: /Odtp /ZI
; File d:\!diffusion 2020\source code 2022\client-server\server\cbase.h
;	COMDAT ?OnRemove@CBaseEntity@@UAEXXZ
_TEXT	SEGMENT
_this$ = -4						; size = 4
?OnRemove@CBaseEntity@@UAEXXZ PROC			; CBaseEntity::OnRemove, COMDAT
; _this$ = ecx

; 393  : 	virtual void	OnRemove( void ) {}

	push	ebp
	mov	ebp, esp
	sub	esp, 68					; 00000044H
	push	ebx
	push	esi
	push	edi
	mov	DWORD PTR _this$[ebp], ecx
	pop	edi
	pop	esi
	pop	ebx
	mov	esp, ebp
	pop	ebp
	ret	0
?OnRemove@CBaseEntity@@UAEXXZ ENDP			; CBaseEntity::OnRemove
_TEXT	ENDS
; Function compile flags: /Odtp /ZI
; File d:\!diffusion 2020\source code 2022\client-server\server\cbase.h
;	COMDAT ?OnClearParent@CBaseEntity@@UAEXXZ
_TEXT	SEGMENT
_this$ = -4						; size = 4
?OnClearParent@CBaseEntity@@UAEXXZ PROC			; CBaseEntity::OnClearParent, COMDAT
; _this$ = ecx

; 392  : 	virtual void	OnClearParent( void ) {}

	push	ebp
	mov	ebp, esp
	sub	esp, 68					; 00000044H
	push	ebx
	push	esi
	push	edi
	mov	DWORD PTR _this$[ebp], ecx
	pop	edi
	pop	esi
	pop	ebx
	mov	esp, ebp
	pop	ebp
	ret	0
?OnClearParent@CBaseEntity@@UAEXXZ ENDP			; CBaseEntity::OnClearParent
_TEXT	ENDS
; Function compile flags: /Odtp /ZI
; File d:\!diffusion 2020\source code 2022\client-server\server\cbase.h
;	COMDAT ?OnChangeParent@CBaseEntity@@UAEXXZ
_TEXT	SEGMENT
_this$ = -4						; size = 4
?OnChangeParent@CBaseEntity@@UAEXXZ PROC		; CBaseEntity::OnChangeParent, COMDAT
; _this$ = ecx

; 391  : 	virtual void	OnChangeParent( void ) {}

	push	ebp
	mov	ebp, esp
	sub	esp, 68					; 00000044H
	push	ebx
	push	esi
	push	edi
	mov	DWORD PTR _this$[ebp], ecx
	pop	edi
	pop	esi
	pop	ebx
	mov	esp, ebp
	pop	ebp
	ret	0
?OnChangeParent@CBaseEntity@@UAEXXZ ENDP		; CBaseEntity::OnChangeParent
_TEXT	ENDS
; Function compile flags: /Odtp /ZI
; File d:\!diffusion 2020\source code 2022\client-server\server\cbase.h
;	COMDAT ?GetPosition@CBaseEntity@@UAEMXZ
_TEXT	SEGMENT
_this$ = -4						; size = 4
?GetPosition@CBaseEntity@@UAEMXZ PROC			; CBaseEntity::GetPosition, COMDAT
; _this$ = ecx

; 390  : 	virtual float	GetPosition( void ) { return 0.0f; }

	push	ebp
	mov	ebp, esp
	sub	esp, 68					; 00000044H
	push	ebx
	push	esi
	push	edi
	mov	DWORD PTR _this$[ebp], ecx
	fldz
	pop	edi
	pop	esi
	pop	ebx
	mov	esp, ebp
	pop	ebp
	ret	0
?GetPosition@CBaseEntity@@UAEMXZ ENDP			; CBaseEntity::GetPosition
_TEXT	ENDS
; Function compile flags: /Odtp /ZI
; File d:\!diffusion 2020\source code 2022\client-server\server\cbase.h
;	COMDAT ?StartMessage@CBaseEntity@@UAEXPAVCBasePlayer@@@Z
_TEXT	SEGMENT
_this$ = -4						; size = 4
_pPlayer$ = 8						; size = 4
?StartMessage@CBaseEntity@@UAEXPAVCBasePlayer@@@Z PROC	; CBaseEntity::StartMessage, COMDAT
; _this$ = ecx

; 389  :           virtual void	StartMessage( CBasePlayer *pPlayer ) {}

	push	ebp
	mov	ebp, esp
	sub	esp, 68					; 00000044H
	push	ebx
	push	esi
	push	edi
	mov	DWORD PTR _this$[ebp], ecx
	pop	edi
	pop	esi
	pop	ebx
	mov	esp, ebp
	pop	ebp
	ret	4
?StartMessage@CBaseEntity@@UAEXPAVCBasePlayer@@@Z ENDP	; CBaseEntity::StartMessage
_TEXT	ENDS
; Function compile flags: /Odtp /ZI
; File d:\!diffusion 2020\source code 2022\client-server\server\cbase.h
;	COMDAT ?PortalSleep@CBaseEntity@@UAEXM@Z
_TEXT	SEGMENT
_this$ = -4						; size = 4
_seconds$ = 8						; size = 4
?PortalSleep@CBaseEntity@@UAEXM@Z PROC			; CBaseEntity::PortalSleep, COMDAT
; _this$ = ecx

; 388  : 	virtual void	PortalSleep( float seconds ) {}

	push	ebp
	mov	ebp, esp
	sub	esp, 68					; 00000044H
	push	ebx
	push	esi
	push	edi
	mov	DWORD PTR _this$[ebp], ecx
	pop	edi
	pop	esi
	pop	ebx
	mov	esp, ebp
	pop	ebp
	ret	4
?PortalSleep@CBaseEntity@@UAEXM@Z ENDP			; CBaseEntity::PortalSleep
_TEXT	ENDS
; Function compile flags: /Odtp /ZI
; File d:\!diffusion 2020\source code 2022\client-server\server\cbase.h
;	COMDAT ?OnTeleport@CBaseEntity@@UAEXXZ
_TEXT	SEGMENT
_this$ = -4						; size = 4
?OnTeleport@CBaseEntity@@UAEXXZ PROC			; CBaseEntity::OnTeleport, COMDAT
; _this$ = ecx

; 387  : 	virtual void	OnTeleport( void ) {}

	push	ebp
	mov	ebp, esp
	sub	esp, 68					; 00000044H
	push	ebx
	push	esi
	push	edi
	mov	DWORD PTR _this$[ebp], ecx
	pop	edi
	pop	esi
	pop	ebx
	mov	esp, ebp
	pop	ebp
	ret	0
?OnTeleport@CBaseEntity@@UAEXXZ ENDP			; CBaseEntity::OnTeleport
_TEXT	ENDS
; Function compile flags: /Odtp /ZI
; File d:\!diffusion 2020\source code 2022\client-server\server\cbase.h
;	COMDAT ?OnChangeLevel@CBaseEntity@@UAEXXZ
_TEXT	SEGMENT
_this$ = -4						; size = 4
?OnChangeLevel@CBaseEntity@@UAEXXZ PROC			; CBaseEntity::OnChangeLevel, COMDAT
; _this$ = ecx

; 386  : 	virtual void	OnChangeLevel( void ) {}

	push	ebp
	mov	ebp, esp
	sub	esp, 68					; 00000044H
	push	ebx
	push	esi
	push	edi
	mov	DWORD PTR _this$[ebp], ecx
	pop	edi
	pop	esi
	pop	ebx
	mov	esp, ebp
	pop	ebp
	ret	0
?OnChangeLevel@CBaseEntity@@UAEXXZ ENDP			; CBaseEntity::OnChangeLevel
_TEXT	ENDS
; Function compile flags: /Odtp /ZI
; File d:\!diffusion 2020\source code 2022\client-server\server\cbase.h
;	COMDAT ?Activate@CBaseEntity@@UAEXXZ
_TEXT	SEGMENT
_this$ = -4						; size = 4
?Activate@CBaseEntity@@UAEXXZ PROC			; CBaseEntity::Activate, COMDAT
; _this$ = ecx

; 385  : 	virtual void	Activate( void ) {}

	push	ebp
	mov	ebp, esp
	sub	esp, 68					; 00000044H
	push	ebx
	push	esi
	push	edi
	mov	DWORD PTR _this$[ebp], ecx
	pop	edi
	pop	esi
	pop	ebx
	mov	esp, ebp
	pop	ebp
	ret	0
?Activate@CBaseEntity@@UAEXXZ ENDP			; CBaseEntity::Activate
_TEXT	ENDS
; Function compile flags: /Odtp /ZI
; File d:\!diffusion 2020\source code 2022\client-server\server\cbase.h
;	COMDAT ?ObjectCaps@CBaseEntity@@UAEHXZ
_TEXT	SEGMENT
_this$ = -4						; size = 4
?ObjectCaps@CBaseEntity@@UAEHXZ PROC			; CBaseEntity::ObjectCaps, COMDAT
; _this$ = ecx

; 384  : 	virtual int	ObjectCaps( void ) { return FCAP_ACROSS_TRANSITION; }

	push	ebp
	mov	ebp, esp
	sub	esp, 68					; 00000044H
	push	ebx
	push	esi
	push	edi
	mov	DWORD PTR _this$[ebp], ecx
	mov	eax, 2
	pop	edi
	pop	esi
	pop	ebx
	mov	esp, ebp
	pop	ebp
	ret	0
?ObjectCaps@CBaseEntity@@UAEHXZ ENDP			; CBaseEntity::ObjectCaps
_TEXT	ENDS
; Function compile flags: /Odtp /ZI
; File d:\!diffusion 2020\source code 2022\client-server\server\cbase.h
;	COMDAT ?KeyValue@CBaseEntity@@UAEXPAUKeyValueData_s@@@Z
_TEXT	SEGMENT
tv139 = -72						; size = 4
_this$ = -4						; size = 4
_pkvd$ = 8						; size = 4
?KeyValue@CBaseEntity@@UAEXPAUKeyValueData_s@@@Z PROC	; CBaseEntity::KeyValue, COMDAT
; _this$ = ecx

; 343  : 	{

	push	ebp
	mov	ebp, esp
	sub	esp, 72					; 00000048H
	push	ebx
	push	esi
	push	edi
	mov	DWORD PTR _this$[ebp], ecx

; 344  : 		// get support for spirit field too
; 345  : 		if( FStrEq( pkvd->szKeyName, "parent" ) || FStrEq( pkvd->szKeyName, "movewith" ))

	push	OFFSET ??_C@_06MLKDMCBD@parent?$AA@
	mov	eax, DWORD PTR _pkvd$[ebp]
	mov	ecx, DWORD PTR [eax+4]
	push	ecx
	call	?FStrEq@@YAHPBD0@Z			; FStrEq
	add	esp, 8
	test	eax, eax
	jne	SHORT $LN6@KeyValue
	push	OFFSET ??_C@_08JJJAOBDI@movewith?$AA@
	mov	eax, DWORD PTR _pkvd$[ebp]
	mov	ecx, DWORD PTR [eax+4]
	push	ecx
	call	?FStrEq@@YAHPBD0@Z			; FStrEq
	add	esp, 8
	test	eax, eax
	je	SHORT $LN4@KeyValue
$LN6@KeyValue:

; 346  : 		{
; 347  : 			m_iParent = ALLOC_STRING(pkvd->szValue);

	mov	eax, DWORD PTR _pkvd$[ebp]
	mov	ecx, DWORD PTR [eax+8]
	push	ecx
	call	DWORD PTR ?g_engfuncs@@3Uenginefuncs_s@@A+268
	add	esp, 4
	mov	edx, DWORD PTR _this$[ebp]
	mov	DWORD PTR [edx+184], eax

; 348  : 			pkvd->fHandled = TRUE;

	mov	eax, DWORD PTR _pkvd$[ebp]
	mov	DWORD PTR [eax+12], 1
	jmp	$LN1@KeyValue
$LN4@KeyValue:

; 349  : 		}
; 350  : 		else if( FStrEq( pkvd->szKeyName, "parentflags" ))

	push	OFFSET ??_C@_0M@EAELDHJO@parentflags?$AA@
	mov	eax, DWORD PTR _pkvd$[ebp]
	mov	ecx, DWORD PTR [eax+4]
	push	ecx
	call	?FStrEq@@YAHPBD0@Z			; FStrEq
	add	esp, 8
	test	eax, eax
	je	SHORT $LN7@KeyValue

; 351  : 		{
; 352  : 			m_iParentFlags = Q_atoi( pkvd->szValue );

	mov	eax, DWORD PTR _pkvd$[ebp]
	mov	ecx, DWORD PTR [eax+8]
	push	ecx
	call	?Q_atoi@@YAHPBD@Z			; Q_atoi
	add	esp, 4
	mov	edx, DWORD PTR _this$[ebp]
	mov	DWORD PTR [edx+188], eax

; 353  : 			pkvd->fHandled = TRUE;

	mov	eax, DWORD PTR _pkvd$[ebp]
	mov	DWORD PTR [eax+12], 1
	jmp	$LN1@KeyValue
$LN7@KeyValue:

; 354  : 		}
; 355  : 		else if( FStrEq( pkvd->szKeyName, "style" ))

	push	OFFSET ??_C@_05IAKJCFIM@style?$AA@
	mov	eax, DWORD PTR _pkvd$[ebp]
	mov	ecx, DWORD PTR [eax+4]
	push	ecx
	call	?FStrEq@@YAHPBD0@Z			; FStrEq
	add	esp, 8
	test	eax, eax
	je	SHORT $LN9@KeyValue

; 356  : 		{
; 357  : 			m_iStyle = Q_atoi( pkvd->szValue );

	mov	eax, DWORD PTR _pkvd$[ebp]
	mov	ecx, DWORD PTR [eax+8]
	push	ecx
	call	?Q_atoi@@YAHPBD@Z			; Q_atoi
	add	esp, 4
	mov	edx, DWORD PTR _this$[ebp]
	mov	DWORD PTR [edx+72], eax

; 358  : 			pkvd->fHandled = TRUE;

	mov	eax, DWORD PTR _pkvd$[ebp]
	mov	DWORD PTR [eax+12], 1
	jmp	$LN1@KeyValue
$LN9@KeyValue:

; 359  : 		}
; 360  : 		else if( FStrEq( pkvd->szKeyName, "reflection" ))

	push	OFFSET ??_C@_0L@IKCANML@reflection?$AA@
	mov	eax, DWORD PTR _pkvd$[ebp]
	mov	ecx, DWORD PTR [eax+4]
	push	ecx
	call	?FStrEq@@YAHPBD0@Z			; FStrEq
	add	esp, 8
	test	eax, eax
	je	SHORT $LN11@KeyValue

; 361  : 		{
; 362  : 			switch( Q_atoi( pkvd->szValue ))

	mov	eax, DWORD PTR _pkvd$[ebp]
	mov	ecx, DWORD PTR [eax+8]
	push	ecx
	call	?Q_atoi@@YAHPBD@Z			; Q_atoi
	add	esp, 4
	mov	DWORD PTR tv139[ebp], eax
	cmp	DWORD PTR tv139[ebp], 1
	je	SHORT $LN13@KeyValue
	cmp	DWORD PTR tv139[ebp], 2
	je	SHORT $LN14@KeyValue
	jmp	SHORT $LN2@KeyValue
$LN13@KeyValue:

; 363  : 			{
; 364  : 			case 1: pev->effects |= EF_NOREFLECT; break;

	mov	eax, DWORD PTR _this$[ebp]
	mov	ecx, DWORD PTR [eax+4]
	mov	edx, DWORD PTR [ecx+280]
	or	edx, 16777216				; 01000000H
	mov	eax, DWORD PTR _this$[ebp]
	mov	ecx, DWORD PTR [eax+4]
	mov	DWORD PTR [ecx+280], edx
	jmp	SHORT $LN2@KeyValue
$LN14@KeyValue:

; 365  : 			case 2: pev->effects |= EF_REFLECTONLY; break;

	mov	eax, DWORD PTR _this$[ebp]
	mov	ecx, DWORD PTR [eax+4]
	mov	edx, DWORD PTR [ecx+280]
	or	edx, 33554432				; 02000000H
	mov	eax, DWORD PTR _this$[ebp]
	mov	ecx, DWORD PTR [eax+4]
	mov	DWORD PTR [ecx+280], edx
$LN2@KeyValue:

; 366  : 			}
; 367  : 			pkvd->fHandled = TRUE;

	mov	eax, DWORD PTR _pkvd$[ebp]
	mov	DWORD PTR [eax+12], 1
	jmp	$LN1@KeyValue
$LN11@KeyValue:

; 368  : 		}
; 369  : 		else if( FStrEq(pkvd->szKeyName, "vlight_cache"))

	push	OFFSET ??_C@_0N@JILDNHAP@vlight_cache?$AA@
	mov	eax, DWORD PTR _pkvd$[ebp]
	mov	ecx, DWORD PTR [eax+4]
	push	ecx
	call	?FStrEq@@YAHPBD0@Z			; FStrEq
	add	esp, 8
	test	eax, eax
	je	SHORT $LN15@KeyValue

; 370  : 		{
; 371  : 			pev->iuser3 = atoi( pkvd->szValue );

	mov	eax, DWORD PTR _pkvd$[ebp]
	mov	ecx, DWORD PTR [eax+8]
	push	ecx
	call	_atoi
	add	esp, 4
	mov	edx, DWORD PTR _this$[ebp]
	mov	ecx, DWORD PTR [edx+4]
	mov	DWORD PTR [ecx+588], eax

; 372  : 			pkvd->fHandled = TRUE;

	mov	eax, DWORD PTR _pkvd$[ebp]
	mov	DWORD PTR [eax+12], 1
	jmp	SHORT $LN1@KeyValue
$LN15@KeyValue:

; 373  : 		}
; 374  : 		else if( FStrEq( pkvd->szKeyName, "customname" ) )

	push	OFFSET ??_C@_0L@JIJDCONP@customname?$AA@
	mov	eax, DWORD PTR _pkvd$[ebp]
	mov	ecx, DWORD PTR [eax+4]
	push	ecx
	call	?FStrEq@@YAHPBD0@Z			; FStrEq
	add	esp, 8
	test	eax, eax
	je	SHORT $LN17@KeyValue

; 375  : 		{
; 376  : 			CustomNameString = ALLOC_STRING( pkvd->szValue );

	mov	eax, DWORD PTR _pkvd$[ebp]
	mov	ecx, DWORD PTR [eax+8]
	push	ecx
	call	DWORD PTR ?g_engfuncs@@3Uenginefuncs_s@@A+268
	add	esp, 4
	mov	edx, DWORD PTR _this$[ebp]
	mov	DWORD PTR [edx+156], eax

; 377  : 			pkvd->fHandled = TRUE;

	mov	eax, DWORD PTR _pkvd$[ebp]
	mov	DWORD PTR [eax+12], 1
	jmp	SHORT $LN1@KeyValue
$LN17@KeyValue:

; 378  : 		}
; 379  : 		else pkvd->fHandled = FALSE;

	mov	eax, DWORD PTR _pkvd$[ebp]
	mov	DWORD PTR [eax+12], 0
$LN1@KeyValue:

; 380  : 	}

	pop	edi
	pop	esi
	pop	ebx
	mov	esp, ebp
	pop	ebp
	ret	4
?KeyValue@CBaseEntity@@UAEXPAUKeyValueData_s@@@Z ENDP	; CBaseEntity::KeyValue
_TEXT	ENDS
; Function compile flags: /Odtp /ZI
; File d:\!diffusion 2020\source code 2022\client-server\server\cbase.h
;	COMDAT ?Precache@CBaseEntity@@UAEXXZ
_TEXT	SEGMENT
_this$ = -4						; size = 4
?Precache@CBaseEntity@@UAEXXZ PROC			; CBaseEntity::Precache, COMDAT
; _this$ = ecx

; 341  : 	virtual void	Precache( void ) { }

	push	ebp
	mov	ebp, esp
	sub	esp, 68					; 00000044H
	push	ebx
	push	esi
	push	edi
	mov	DWORD PTR _this$[ebp], ecx
	pop	edi
	pop	esi
	pop	ebx
	mov	esp, ebp
	pop	ebp
	ret	0
?Precache@CBaseEntity@@UAEXXZ ENDP			; CBaseEntity::Precache
_TEXT	ENDS
; Function compile flags: /Odtp /ZI
; File d:\!diffusion 2020\source code 2022\client-server\server\cbase.h
;	COMDAT ?Spawn@CBaseEntity@@UAEXXZ
_TEXT	SEGMENT
_this$ = -4						; size = 4
?Spawn@CBaseEntity@@UAEXXZ PROC				; CBaseEntity::Spawn, COMDAT
; _this$ = ecx

; 340  : 	virtual void	Spawn( void ) { }

	push	ebp
	mov	ebp, esp
	sub	esp, 68					; 00000044H
	push	ebx
	push	esi
	push	edi
	mov	DWORD PTR _this$[ebp], ecx
	pop	edi
	pop	esi
	pop	ebx
	mov	esp, ebp
	pop	ebp
	ret	0
?Spawn@CBaseEntity@@UAEXXZ ENDP				; CBaseEntity::Spawn
_TEXT	ENDS
; Function compile flags: /Odtp /ZI
; File d:\!diffusion 2020\source code 2022\client-server\server\cbase.h
;	COMDAT ?SetClassname@CBaseEntity@@QAEXPBD@Z
_TEXT	SEGMENT
_this$ = -4						; size = 4
_pszClassName$ = 8					; size = 4
?SetClassname@CBaseEntity@@QAEXPBD@Z PROC		; CBaseEntity::SetClassname, COMDAT
; _this$ = ecx

; 317  : 	void		SetClassname( const char *pszClassName ) { pev->classname = MAKE_STRING( pszClassName ); }

	push	ebp
	mov	ebp, esp
	sub	esp, 68					; 00000044H
	push	ebx
	push	esi
	push	edi
	mov	DWORD PTR _this$[ebp], ecx
	mov	eax, DWORD PTR _pszClassName$[ebp]
	push	eax
	call	DWORD PTR ?g_engfuncs@@3Uenginefuncs_s@@A+268
	add	esp, 4
	mov	ecx, DWORD PTR _this$[ebp]
	mov	edx, DWORD PTR [ecx+4]
	mov	DWORD PTR [edx], eax
	pop	edi
	pop	esi
	pop	ebx
	mov	esp, ebp
	pop	ebp
	ret	4
?SetClassname@CBaseEntity@@QAEXPBD@Z ENDP		; CBaseEntity::SetClassname
_TEXT	ENDS
; Function compile flags: /Odtp /ZI
; File d:\!diffusion 2020\source code 2022\client-server\server\cbase.h
;	COMDAT ?GetClassname@CBaseEntity@@QAEPBDXZ
_TEXT	SEGMENT
_this$ = -4						; size = 4
?GetClassname@CBaseEntity@@QAEPBDXZ PROC		; CBaseEntity::GetClassname, COMDAT
; _this$ = ecx

; 297  : 	const char*	GetClassname() { return STRING( pev->classname ); }

	push	ebp
	mov	ebp, esp
	sub	esp, 68					; 00000044H
	push	ebx
	push	esi
	push	edi
	mov	DWORD PTR _this$[ebp], ecx
	mov	eax, DWORD PTR _this$[ebp]
	mov	ecx, DWORD PTR [eax+4]
	mov	edx, DWORD PTR [ecx]
	push	edx
	call	DWORD PTR ?g_engfuncs@@3Uenginefuncs_s@@A+264
	add	esp, 4
	pop	edi
	pop	esi
	pop	ebx
	mov	esp, ebp
	pop	ebp
	ret	0
?GetClassname@CBaseEntity@@QAEPBDXZ ENDP		; CBaseEntity::GetClassname
_TEXT	ENDS
; Function compile flags: /Odtp /ZI
; File d:\!diffusion 2020\source code 2022\client-server\server\ehandle.h
;	COMDAT ??CEHANDLE@@QAEPAVCBaseEntity@@XZ
_TEXT	SEGMENT
_this$ = -4						; size = 4
??CEHANDLE@@QAEPAVCBaseEntity@@XZ PROC			; EHANDLE::operator->, COMDAT
; _this$ = ecx

; 90   : {

	push	ebp
	mov	ebp, esp
	sub	esp, 68					; 00000044H
	push	ebx
	push	esi
	push	edi
	mov	DWORD PTR _this$[ebp], ecx

; 91   : 	return (CBaseEntity *)GET_PRIVATE( Get( ) ); 

	mov	ecx, DWORD PTR _this$[ebp]
	call	?Get@EHANDLE@@QAEPAUedict_s@@XZ		; EHANDLE::Get
	push	eax
	call	?GET_PRIVATE@@YAPAXPAUedict_s@@@Z	; GET_PRIVATE
	add	esp, 4

; 92   : }

	pop	edi
	pop	esi
	pop	ebx
	mov	esp, ebp
	pop	ebp
	ret	0
??CEHANDLE@@QAEPAVCBaseEntity@@XZ ENDP			; EHANDLE::operator->
_TEXT	ENDS
; Function compile flags: /Odtp /ZI
; File d:\!diffusion 2020\source code 2022\client-server\server\ehandle.h
;	COMDAT ??4EHANDLE@@QAEPAVCBaseEntity@@PAV1@@Z
_TEXT	SEGMENT
_this$ = -4						; size = 4
_pEntity$ = 8						; size = 4
??4EHANDLE@@QAEPAVCBaseEntity@@PAV1@@Z PROC		; EHANDLE::operator=, COMDAT
; _this$ = ecx

; 69   : {

	push	ebp
	mov	ebp, esp
	sub	esp, 68					; 00000044H
	push	ebx
	push	esi
	push	edi
	mov	DWORD PTR _this$[ebp], ecx

; 70   : 	if (pEntity)

	cmp	DWORD PTR _pEntity$[ebp], 0
	je	SHORT $LN2@operator

; 71   : 	{
; 72   : 		m_pent = ENT( pEntity );

	mov	eax, DWORD PTR _pEntity$[ebp]
	push	eax
	call	?ENT@@YAPAUedict_s@@PAVCBaseEntity@@@Z	; ENT
	add	esp, 4
	mov	ecx, DWORD PTR _this$[ebp]
	mov	DWORD PTR [ecx], eax

; 73   : 		if (m_pent)

	mov	eax, DWORD PTR _this$[ebp]
	cmp	DWORD PTR [eax], 0
	je	SHORT $LN4@operator

; 74   : 			m_serialnumber = m_pent->serialnumber;

	mov	eax, DWORD PTR _this$[ebp]
	mov	ecx, DWORD PTR [eax]
	mov	edx, DWORD PTR _this$[ebp]
	mov	eax, DWORD PTR [ecx+4]
	mov	DWORD PTR [edx+4], eax
$LN4@operator:

; 75   : 	}
; 76   : 	else

	jmp	SHORT $LN3@operator
$LN2@operator:

; 77   : 	{
; 78   : 		m_pent = NULL;

	mov	eax, DWORD PTR _this$[ebp]
	mov	DWORD PTR [eax], 0

; 79   : 		m_serialnumber = 0;

	mov	eax, DWORD PTR _this$[ebp]
	mov	DWORD PTR [eax+4], 0
$LN3@operator:

; 80   : 	}
; 81   : 	return pEntity;

	mov	eax, DWORD PTR _pEntity$[ebp]

; 82   : }

	pop	edi
	pop	esi
	pop	ebx
	mov	esp, ebp
	pop	ebp
	ret	4
??4EHANDLE@@QAEPAVCBaseEntity@@PAV1@@Z ENDP		; EHANDLE::operator=
_TEXT	ENDS
; Function compile flags: /Odtp /ZI
; File d:\!diffusion 2020\source code 2022\client-server\server\ehandle.h
;	COMDAT ??BEHANDLE@@QAEHXZ
_TEXT	SEGMENT
tv67 = -72						; size = 4
_this$ = -4						; size = 4
??BEHANDLE@@QAEHXZ PROC					; EHANDLE::operator int, COMDAT
; _this$ = ecx

; 85   : {

	push	ebp
	mov	ebp, esp
	sub	esp, 72					; 00000048H
	push	ebx
	push	esi
	push	edi
	mov	DWORD PTR _this$[ebp], ecx

; 86   : 	return Get() != NULL;

	mov	ecx, DWORD PTR _this$[ebp]
	call	?Get@EHANDLE@@QAEPAUedict_s@@XZ		; EHANDLE::Get
	test	eax, eax
	je	SHORT $LN3@operator
	mov	DWORD PTR tv67[ebp], 1
	jmp	SHORT $LN4@operator
$LN3@operator:
	mov	DWORD PTR tv67[ebp], 0
$LN4@operator:
	mov	eax, DWORD PTR tv67[ebp]

; 87   : }

	pop	edi
	pop	esi
	pop	ebx
	mov	esp, ebp
	pop	ebp
	ret	0
??BEHANDLE@@QAEHXZ ENDP					; EHANDLE::operator int
_TEXT	ENDS
; Function compile flags: /Odtp /ZI
; File d:\!diffusion 2020\source code 2022\client-server\server\ehandle.h
;	COMDAT ?Get@EHANDLE@@QAEPAUedict_s@@XZ
_TEXT	SEGMENT
_this$ = -4						; size = 4
?Get@EHANDLE@@QAEPAUedict_s@@XZ PROC			; EHANDLE::Get, COMDAT
; _this$ = ecx

; 40   : { 

	push	ebp
	mov	ebp, esp
	sub	esp, 68					; 00000044H
	push	ebx
	push	esi
	push	edi
	mov	DWORD PTR _this$[ebp], ecx

; 41   : 	if( m_pent )

	mov	eax, DWORD PTR _this$[ebp]
	cmp	DWORD PTR [eax], 0
	je	SHORT $LN2@Get

; 42   : 	{
; 43   : #if 0
; 44   : 		// keep client entity always in actual state
; 45   : 		if( ENTINDEX( m_pent ) == 1 )
; 46   : 			m_serialnumber = m_pent->serialnumber;
; 47   : #endif
; 48   : 		if( m_pent->serialnumber == m_serialnumber ) 

	mov	eax, DWORD PTR _this$[ebp]
	mov	ecx, DWORD PTR [eax]
	mov	edx, DWORD PTR _this$[ebp]
	mov	eax, DWORD PTR [ecx+4]
	cmp	eax, DWORD PTR [edx+4]
	jne	SHORT $LN2@Get

; 49   : 			return m_pent; 

	mov	eax, DWORD PTR _this$[ebp]
	mov	eax, DWORD PTR [eax]
	jmp	SHORT $LN1@Get
$LN2@Get:

; 50   : 	}
; 51   : 
; 52   : 	return NULL; 

	xor	eax, eax
$LN1@Get:

; 53   : }

	pop	edi
	pop	esi
	pop	ebx
	mov	esp, ebp
	pop	ebp
	ret	0
?Get@EHANDLE@@QAEPAUedict_s@@XZ ENDP			; EHANDLE::Get
_TEXT	ENDS
; Function compile flags: /Odtp /ZI
;	COMDAT ??0WayPoint_t@@QAE@XZ
_TEXT	SEGMENT
_this$ = -4						; size = 4
??0WayPoint_t@@QAE@XZ PROC				; WayPoint_t::WayPoint_t, COMDAT
; _this$ = ecx
	push	ebp
	mov	ebp, esp
	sub	esp, 68					; 00000044H
	push	ebx
	push	esi
	push	edi
	mov	DWORD PTR _this$[ebp], ecx
	mov	ecx, DWORD PTR _this$[ebp]
	call	??0Vector@@QAE@XZ			; Vector::Vector
	mov	eax, DWORD PTR _this$[ebp]
	pop	edi
	pop	esi
	pop	ebx
	mov	esp, ebp
	pop	ebp
	ret	0
??0WayPoint_t@@QAE@XZ ENDP				; WayPoint_t::WayPoint_t
_TEXT	ENDS
; Function compile flags: /Odtp /ZI
; File d:\!diffusion 2020\source code 2022\client-server\server\util.h
;	COMDAT ?STOP_SOUND@@YAXPAUedict_s@@HPBD@Z
_TEXT	SEGMENT
_entity$ = 8						; size = 4
_channel$ = 12						; size = 4
_sample$ = 16						; size = 4
?STOP_SOUND@@YAXPAUedict_s@@HPBD@Z PROC			; STOP_SOUND, COMDAT

; 627  : {

	push	ebp
	mov	ebp, esp
	sub	esp, 64					; 00000040H
	push	ebx
	push	esi
	push	edi

; 628  : 	EMIT_SOUND_DYN( entity, channel, sample, 0, 0, SND_STOP, PITCH_NORM );

	push	100					; 00000064H
	push	32					; 00000020H
	push	ecx
	xorps	xmm0, xmm0
	movss	DWORD PTR [esp], xmm0
	push	ecx
	xorps	xmm0, xmm0
	movss	DWORD PTR [esp], xmm0
	mov	eax, DWORD PTR _sample$[ebp]
	push	eax
	mov	ecx, DWORD PTR _channel$[ebp]
	push	ecx
	mov	edx, DWORD PTR _entity$[ebp]
	push	edx
	call	?EMIT_SOUND_DYN@@YAXPAUedict_s@@HPBDMMHH@Z ; EMIT_SOUND_DYN
	add	esp, 28					; 0000001cH

; 629  : }

	pop	edi
	pop	esi
	pop	ebx
	mov	esp, ebp
	pop	ebp
	ret	0
?STOP_SOUND@@YAXPAUedict_s@@HPBD@Z ENDP			; STOP_SOUND
_TEXT	ENDS
; Function compile flags: /Odtp /ZI
; File d:\!diffusion 2020\source code 2022\client-server\server\util.h
;	COMDAT ?EMIT_SOUND@@YAXPAUedict_s@@HPBDMM@Z
_TEXT	SEGMENT
_entity$ = 8						; size = 4
_channel$ = 12						; size = 4
_sample$ = 16						; size = 4
_volume$ = 20						; size = 4
_attenuation$ = 24					; size = 4
?EMIT_SOUND@@YAXPAUedict_s@@HPBDMM@Z PROC		; EMIT_SOUND, COMDAT

; 622  : {

	push	ebp
	mov	ebp, esp
	sub	esp, 64					; 00000040H
	push	ebx
	push	esi
	push	edi

; 623  : 	EMIT_SOUND_DYN( entity, channel, sample, volume, attenuation, 0, PITCH_NORM );

	push	100					; 00000064H
	push	0
	push	ecx
	movss	xmm0, DWORD PTR _attenuation$[ebp]
	movss	DWORD PTR [esp], xmm0
	push	ecx
	movss	xmm0, DWORD PTR _volume$[ebp]
	movss	DWORD PTR [esp], xmm0
	mov	eax, DWORD PTR _sample$[ebp]
	push	eax
	mov	ecx, DWORD PTR _channel$[ebp]
	push	ecx
	mov	edx, DWORD PTR _entity$[ebp]
	push	edx
	call	?EMIT_SOUND_DYN@@YAXPAUedict_s@@HPBDMMHH@Z ; EMIT_SOUND_DYN
	add	esp, 28					; 0000001cH

; 624  : }

	pop	edi
	pop	esi
	pop	ebx
	mov	esp, ebp
	pop	ebp
	ret	0
?EMIT_SOUND@@YAXPAUedict_s@@HPBDMM@Z ENDP		; EMIT_SOUND
_TEXT	ENDS
; Function compile flags: /Odtp /ZI
; File d:\!diffusion 2020\source code 2022\client-server\server\util.h
;	COMDAT ?FClassnameIs@@YAHPAUentvars_s@@PBD@Z
_TEXT	SEGMENT
_pev$ = 8						; size = 4
_szClassname$ = 12					; size = 4
?FClassnameIs@@YAHPAUentvars_s@@PBD@Z PROC		; FClassnameIs, COMDAT

; 304  : {

	push	ebp
	mov	ebp, esp
	sub	esp, 64					; 00000040H
	push	ebx
	push	esi
	push	edi

; 305  : 	if( FNullEnt( pev )) return FALSE;

	mov	eax, DWORD PTR _pev$[ebp]
	push	eax
	call	?FNullEnt@@YAHPAUentvars_s@@@Z		; FNullEnt
	add	esp, 4
	test	eax, eax
	je	SHORT $LN2@FClassname
	xor	eax, eax
	jmp	SHORT $LN1@FClassname
$LN2@FClassname:

; 306  : 	return FStrEq( STRING( pev->classname ), szClassname );

	mov	eax, DWORD PTR _szClassname$[ebp]
	push	eax
	mov	ecx, DWORD PTR _pev$[ebp]
	mov	edx, DWORD PTR [ecx]
	push	edx
	call	DWORD PTR ?g_engfuncs@@3Uenginefuncs_s@@A+264
	add	esp, 4
	push	eax
	call	?FStrEq@@YAHPBD0@Z			; FStrEq
	add	esp, 8
$LN1@FClassname:

; 307  : }

	pop	edi
	pop	esi
	pop	ebx
	mov	esp, ebp
	pop	ebp
	ret	0
?FClassnameIs@@YAHPAUentvars_s@@PBD@Z ENDP		; FClassnameIs
_TEXT	ENDS
; Function compile flags: /Odtp /ZI
; File d:\!diffusion 2020\source code 2022\client-server\server\util.h
;	COMDAT ?FStrEq@@YAHPBD0@Z
_TEXT	SEGMENT
tv69 = -68						; size = 4
_sz1$ = 8						; size = 4
_sz2$ = 12						; size = 4
?FStrEq@@YAHPBD0@Z PROC					; FStrEq, COMDAT

; 287  : {

	push	ebp
	mov	ebp, esp
	sub	esp, 68					; 00000044H
	push	ebx
	push	esi
	push	edi

; 288  : 	return (Q_strcmp( sz1, sz2 ) == 0);

	push	99999					; 0001869fH
	mov	eax, DWORD PTR _sz2$[ebp]
	push	eax
	mov	ecx, DWORD PTR _sz1$[ebp]
	push	ecx
	call	?Q_strncmp@@YAHPBD0H@Z			; Q_strncmp
	add	esp, 12					; 0000000cH
	test	eax, eax
	jne	SHORT $LN3@FStrEq
	mov	DWORD PTR tv69[ebp], 1
	jmp	SHORT $LN4@FStrEq
$LN3@FStrEq:
	mov	DWORD PTR tv69[ebp], 0
$LN4@FStrEq:
	mov	eax, DWORD PTR tv69[ebp]

; 289  : }

	pop	edi
	pop	esi
	pop	ebx
	mov	esp, ebp
	pop	ebp
	ret	0
?FStrEq@@YAHPBD0@Z ENDP					; FStrEq
_TEXT	ENDS
; Function compile flags: /Odtp /ZI
; File d:\!diffusion 2020\source code 2022\client-server\server\util.h
;	COMDAT ?FNullEnt@@YAHPAUentvars_s@@@Z
_TEXT	SEGMENT
tv70 = -68						; size = 4
_pev$ = 8						; size = 4
?FNullEnt@@YAHPAUentvars_s@@@Z PROC			; FNullEnt, COMDAT

; 197  : inline BOOL FNullEnt(entvars_t* pev)				{ return pev == NULL || FNullEnt(OFFSET(pev)); }

	push	ebp
	mov	ebp, esp
	sub	esp, 68					; 00000044H
	push	ebx
	push	esi
	push	edi
	cmp	DWORD PTR _pev$[ebp], 0
	je	SHORT $LN3@FNullEnt
	mov	eax, DWORD PTR _pev$[ebp]
	push	eax
	call	?OFFSET@@YAHPAUentvars_s@@@Z		; OFFSET
	add	esp, 4
	push	eax
	call	?FNullEnt@@YAHH@Z			; FNullEnt
	add	esp, 4
	test	eax, eax
	jne	SHORT $LN3@FNullEnt
	mov	DWORD PTR tv70[ebp], 0
	jmp	SHORT $LN4@FNullEnt
$LN3@FNullEnt:
	mov	DWORD PTR tv70[ebp], 1
$LN4@FNullEnt:
	mov	eax, DWORD PTR tv70[ebp]
	pop	edi
	pop	esi
	pop	ebx
	mov	esp, ebp
	pop	ebp
	ret	0
?FNullEnt@@YAHPAUentvars_s@@@Z ENDP			; FNullEnt
_TEXT	ENDS
; Function compile flags: /Odtp /ZI
; File d:\!diffusion 2020\source code 2022\client-server\server\util.h
;	COMDAT ?FNullEnt@@YAHH@Z
_TEXT	SEGMENT
tv65 = -68						; size = 4
_eoffset$ = 8						; size = 4
?FNullEnt@@YAHH@Z PROC					; FNullEnt, COMDAT

; 195  : inline BOOL FNullEnt(EOFFSET eoffset)			{ return eoffset == 0; }

	push	ebp
	mov	ebp, esp
	sub	esp, 68					; 00000044H
	push	ebx
	push	esi
	push	edi
	cmp	DWORD PTR _eoffset$[ebp], 0
	jne	SHORT $LN3@FNullEnt
	mov	DWORD PTR tv65[ebp], 1
	jmp	SHORT $LN4@FNullEnt
$LN3@FNullEnt:
	mov	DWORD PTR tv65[ebp], 0
$LN4@FNullEnt:
	mov	eax, DWORD PTR tv65[ebp]
	pop	edi
	pop	esi
	pop	ebx
	mov	esp, ebp
	pop	ebp
	ret	0
?FNullEnt@@YAHH@Z ENDP					; FNullEnt
_TEXT	ENDS
; Function compile flags: /Odtp /ZI
; File d:\!diffusion 2020\source code 2022\client-server\server\util.h
;	COMDAT ?ENTINDEX@@YAHPAUedict_s@@@Z
_TEXT	SEGMENT
_pEdict$ = 8						; size = 4
?ENTINDEX@@YAHPAUedict_s@@@Z PROC			; ENTINDEX, COMDAT

; 186  : inline int	  ENTINDEX(edict_t *pEdict)			{ return (*g_engfuncs.pfnIndexOfEdict)(pEdict); }

	push	ebp
	mov	ebp, esp
	sub	esp, 64					; 00000040H
	push	ebx
	push	esi
	push	edi
	mov	eax, DWORD PTR _pEdict$[ebp]
	push	eax
	call	DWORD PTR ?g_engfuncs@@3Uenginefuncs_s@@A+284
	add	esp, 4
	pop	edi
	pop	esi
	pop	ebx
	mov	esp, ebp
	pop	ebp
	ret	0
?ENTINDEX@@YAHPAUedict_s@@@Z ENDP			; ENTINDEX
_TEXT	ENDS
; Function compile flags: /Odtp /ZI
; File d:\!diffusion 2020\source code 2022\client-server\server\util.h
;	COMDAT ?VARS@@YAPAUentvars_s@@PAUedict_s@@@Z
_TEXT	SEGMENT
_pent$ = 8						; size = 4
?VARS@@YAPAUentvars_s@@PAUedict_s@@@Z PROC		; VARS, COMDAT

; 178  : { 

	push	ebp
	mov	ebp, esp
	sub	esp, 64					; 00000040H
	push	ebx
	push	esi
	push	edi

; 179  : 	if ( !pent )

	cmp	DWORD PTR _pent$[ebp], 0
	jne	SHORT $LN2@VARS

; 180  : 		return NULL;

	xor	eax, eax
	jmp	SHORT $LN1@VARS
$LN2@VARS:

; 181  : 
; 182  : 	return &pent->v; 

	mov	eax, DWORD PTR _pent$[ebp]
	add	eax, 128				; 00000080H
$LN1@VARS:

; 183  : }

	pop	edi
	pop	esi
	pop	ebx
	mov	esp, ebp
	pop	ebp
	ret	0
?VARS@@YAPAUentvars_s@@PAUedict_s@@@Z ENDP		; VARS
_TEXT	ENDS
; Function compile flags: /Odtp /ZI
; File d:\!diffusion 2020\source code 2022\client-server\server\util.h
;	COMDAT ?OFFSET@@YAHPAUentvars_s@@@Z
_TEXT	SEGMENT
_pev$ = 8						; size = 4
?OFFSET@@YAHPAUentvars_s@@@Z PROC			; OFFSET, COMDAT

; 168  : { 

	push	ebp
	mov	ebp, esp
	sub	esp, 64					; 00000040H
	push	ebx
	push	esi
	push	edi

; 169  : #if _DEBUG
; 170  : 	if ( !pev )

	cmp	DWORD PTR _pev$[ebp], 0
	jne	SHORT $LN2@OFFSET

; 171  : 		ALERT( at_error, "Bad pev in OFFSET()\n" );

	push	OFFSET ??_C@_0BF@DOONGEFO@Bad?5pev?5in?5OFFSET?$CI?$CJ?6?$AA@
	push	4
	call	DWORD PTR ?g_engfuncs@@3Uenginefuncs_s@@A+244
	add	esp, 8
$LN2@OFFSET:

; 172  : #endif
; 173  : 	return OFFSET(ENT(pev)); 

	mov	eax, DWORD PTR _pev$[ebp]
	push	eax
	call	?ENT@@YAPAUedict_s@@PBUentvars_s@@@Z	; ENT
	add	esp, 4
	push	eax
	call	?OFFSET@@YAHPBUedict_s@@@Z		; OFFSET
	add	esp, 4

; 174  : }

	pop	edi
	pop	esi
	pop	ebx
	mov	esp, ebp
	pop	ebp
	ret	0
?OFFSET@@YAHPAUentvars_s@@@Z ENDP			; OFFSET
_TEXT	ENDS
; Function compile flags: /Odtp /ZI
; File d:\!diffusion 2020\source code 2022\client-server\server\util.h
;	COMDAT ?OFFSET@@YAHPBUedict_s@@@Z
_TEXT	SEGMENT
_pent$ = 8						; size = 4
?OFFSET@@YAHPBUedict_s@@@Z PROC				; OFFSET, COMDAT

; 160  : { 

	push	ebp
	mov	ebp, esp
	sub	esp, 64					; 00000040H
	push	ebx
	push	esi
	push	edi

; 161  : #if _DEBUG
; 162  : 	if ( !pent )

	cmp	DWORD PTR _pent$[ebp], 0
	jne	SHORT $LN2@OFFSET

; 163  : 		ALERT( at_error, "Bad ent in OFFSET()\n" );

	push	OFFSET ??_C@_0BF@CPEPILID@Bad?5ent?5in?5OFFSET?$CI?$CJ?6?$AA@
	push	4
	call	DWORD PTR ?g_engfuncs@@3Uenginefuncs_s@@A+244
	add	esp, 8
$LN2@OFFSET:

; 164  : #endif
; 165  : 	return (*g_engfuncs.pfnEntOffsetOfPEntity)(pent); 

	mov	eax, DWORD PTR _pent$[ebp]
	push	eax
	call	DWORD PTR ?g_engfuncs@@3Uenginefuncs_s@@A+280
	add	esp, 4

; 166  : }

	pop	edi
	pop	esi
	pop	ebx
	mov	esp, ebp
	pop	ebp
	ret	0
?OFFSET@@YAHPBUedict_s@@@Z ENDP				; OFFSET
_TEXT	ENDS
; Function compile flags: /Odtp /ZI
; File d:\!diffusion 2020\source code 2022\client-server\server\util.h
;	COMDAT ?ENT@@YAPAUedict_s@@H@Z
_TEXT	SEGMENT
_eoffset$ = 8						; size = 4
?ENT@@YAPAUedict_s@@H@Z PROC				; ENT, COMDAT

; 157  : inline edict_t *ENT(EOFFSET eoffset)			{ return (*g_engfuncs.pfnPEntityOfEntOffset)(eoffset); }

	push	ebp
	mov	ebp, esp
	sub	esp, 64					; 00000040H
	push	ebx
	push	esi
	push	edi
	mov	eax, DWORD PTR _eoffset$[ebp]
	push	eax
	call	DWORD PTR ?g_engfuncs@@3Uenginefuncs_s@@A+276
	add	esp, 4
	pop	edi
	pop	esi
	pop	ebx
	mov	esp, ebp
	pop	ebp
	ret	0
?ENT@@YAPAUedict_s@@H@Z ENDP				; ENT
_TEXT	ENDS
; Function compile flags: /Odtp /ZI
; File d:\!diffusion 2020\source code 2022\client-server\server\util.h
;	COMDAT ?ENT@@YAPAUedict_s@@PBUentvars_s@@@Z
_TEXT	SEGMENT
_pev$ = 8						; size = 4
?ENT@@YAPAUedict_s@@PBUentvars_s@@@Z PROC		; ENT, COMDAT

; 151  : 	inline edict_t *ENT(const entvars_t *pev)	{ return DBG_EntOfVars(pev); }

	push	ebp
	mov	ebp, esp
	sub	esp, 64					; 00000040H
	push	ebx
	push	esi
	push	edi
	mov	eax, DWORD PTR _pev$[ebp]
	push	eax
	call	?DBG_EntOfVars@@YAPAUedict_s@@PBUentvars_s@@@Z ; DBG_EntOfVars
	add	esp, 4
	pop	edi
	pop	esi
	pop	ebx
	mov	esp, ebp
	pop	ebp
	ret	0
?ENT@@YAPAUedict_s@@PBUentvars_s@@@Z ENDP		; ENT
_TEXT	ENDS
; Function compile flags: /Odtp /ZI
;	COMDAT ??0IEntityFactory@@QAE@XZ
_TEXT	SEGMENT
_this$ = -4						; size = 4
??0IEntityFactory@@QAE@XZ PROC				; IEntityFactory::IEntityFactory, COMDAT
; _this$ = ecx
	push	ebp
	mov	ebp, esp
	sub	esp, 68					; 00000044H
	push	ebx
	push	esi
	push	edi
	mov	DWORD PTR _this$[ebp], ecx
	mov	eax, DWORD PTR _this$[ebp]
	mov	DWORD PTR [eax], OFFSET ??_7IEntityFactory@@6B@
	mov	eax, DWORD PTR _this$[ebp]
	pop	edi
	pop	esi
	pop	ebx
	mov	esp, ebp
	pop	ebp
	ret	0
??0IEntityFactory@@QAE@XZ ENDP				; IEntityFactory::IEntityFactory
_TEXT	ENDS
; Function compile flags: /Odtp /ZI
; File d:\!diffusion 2020\source code 2022\client-server\server\util.h
;	COMDAT ?MESSAGE_BEGIN@@YAXHHPBMPAUentvars_s@@@Z
_TEXT	SEGMENT
_msg_dest$ = 8						; size = 4
_msg_type$ = 12						; size = 4
_pOrigin$ = 16						; size = 4
_ent$ = 20						; size = 4
?MESSAGE_BEGIN@@YAXHHPBMPAUentvars_s@@@Z PROC		; MESSAGE_BEGIN, COMDAT

; 189  : inline void MESSAGE_BEGIN( int msg_dest, int msg_type, const float *pOrigin, entvars_t *ent ) {

	push	ebp
	mov	ebp, esp
	sub	esp, 64					; 00000040H
	push	ebx
	push	esi
	push	edi

; 190  : 	(*g_engfuncs.pfnMessageBegin)(msg_dest, msg_type, pOrigin, ENT(ent));

	mov	eax, DWORD PTR _ent$[ebp]
	push	eax
	call	?ENT@@YAPAUedict_s@@PBUentvars_s@@@Z	; ENT
	add	esp, 4
	push	eax
	mov	ecx, DWORD PTR _pOrigin$[ebp]
	push	ecx
	mov	edx, DWORD PTR _msg_type$[ebp]
	push	edx
	mov	eax, DWORD PTR _msg_dest$[ebp]
	push	eax
	call	DWORD PTR ?g_engfuncs@@3Uenginefuncs_s@@A+184
	add	esp, 16					; 00000010H

; 191  : }

	pop	edi
	pop	esi
	pop	ebx
	mov	esp, ebp
	pop	ebp
	ret	0
?MESSAGE_BEGIN@@YAXHHPBMPAUentvars_s@@@Z ENDP		; MESSAGE_BEGIN
_TEXT	ENDS
; Function compile flags: /Odtp /ZI
; File d:\!diffusion 2020\source code 2022\client-server\game_shared\utlarray.h
;	COMDAT ?ResetDbgInfo@?$CUtlArray@PADV?$CUtlMemory@PADH@@@@IAEXXZ
_TEXT	SEGMENT
_this$ = -4						; size = 4
?ResetDbgInfo@?$CUtlArray@PADV?$CUtlMemory@PADH@@@@IAEXXZ PROC ; CUtlArray<char *,CUtlMemory<char *,int> >::ResetDbgInfo, COMDAT
; _this$ = ecx

; 160  : 	{

	push	ebp
	mov	ebp, esp
	sub	esp, 68					; 00000044H
	push	ebx
	push	esi
	push	edi
	mov	DWORD PTR _this$[ebp], ecx

; 161  : 		m_pElements = Base();

	mov	ecx, DWORD PTR _this$[ebp]
	call	?Base@?$CUtlArray@PADV?$CUtlMemory@PADH@@@@QAEPAPADXZ ; CUtlArray<char *,CUtlMemory<char *,int> >::Base
	mov	ecx, DWORD PTR _this$[ebp]
	mov	DWORD PTR [ecx+16], eax

; 162  : 	}

	pop	edi
	pop	esi
	pop	ebx
	mov	esp, ebp
	pop	ebp
	ret	0
?ResetDbgInfo@?$CUtlArray@PADV?$CUtlMemory@PADH@@@@IAEXXZ ENDP ; CUtlArray<char *,CUtlMemory<char *,int> >::ResetDbgInfo
_TEXT	ENDS
; Function compile flags: /Odtp /ZI
; File d:\!diffusion 2020\source code 2022\client-server\game_shared\utlmemory.h
;	COMDAT ?ValidateGrowSize@?$CUtlMemory@PADH@@IAEXXZ
_TEXT	SEGMENT
_this$ = -4						; size = 4
?ValidateGrowSize@?$CUtlMemory@PADH@@IAEXXZ PROC	; CUtlMemory<char *,int>::ValidateGrowSize, COMDAT
; _this$ = ecx

; 148  : 	{

	push	ebp
	mov	ebp, esp
	sub	esp, 68					; 00000044H
	push	ebx
	push	esi
	push	edi
	mov	DWORD PTR _this$[ebp], ecx

; 149  : #ifdef _X360
; 150  : 		if ( m_nGrowSize && m_nGrowSize != EXTERNAL_BUFFER_MARKER )
; 151  : 		{
; 152  : 			// Max grow size at 128 bytes on XBOX
; 153  : 			const int MAX_GROW = 128;
; 154  : 			if ( m_nGrowSize * sizeof(T) > MAX_GROW )
; 155  : 			{
; 156  : 				m_nGrowSize = max( 1, MAX_GROW / sizeof(T) );
; 157  : 			}
; 158  : 		}
; 159  : #endif
; 160  : 	}

	pop	edi
	pop	esi
	pop	ebx
	mov	esp, ebp
	pop	ebp
	ret	0
?ValidateGrowSize@?$CUtlMemory@PADH@@IAEXXZ ENDP	; CUtlMemory<char *,int>::ValidateGrowSize
_TEXT	ENDS
; Function compile flags: /Odtp /ZI
; File d:\!diffusion 2020\source code 2022\client-server\game_shared\utlmemory.h
;	COMDAT ?IsReadOnly@?$CUtlMemory@PADH@@QBE_NXZ
_TEXT	SEGMENT
tv66 = -72						; size = 4
_this$ = -4						; size = 4
?IsReadOnly@?$CUtlMemory@PADH@@QBE_NXZ PROC		; CUtlMemory<char *,int>::IsReadOnly, COMDAT
; _this$ = ecx

; 467  : {

	push	ebp
	mov	ebp, esp
	sub	esp, 72					; 00000048H
	push	ebx
	push	esi
	push	edi
	mov	DWORD PTR _this$[ebp], ecx

; 468  : 	return (m_nGrowSize == EXTERNAL_CONST_BUFFER_MARKER);

	mov	eax, DWORD PTR _this$[ebp]
	cmp	DWORD PTR [eax+8], -2			; fffffffeH
	jne	SHORT $LN3@IsReadOnly
	mov	DWORD PTR tv66[ebp], 1
	jmp	SHORT $LN4@IsReadOnly
$LN3@IsReadOnly:
	mov	DWORD PTR tv66[ebp], 0
$LN4@IsReadOnly:
	mov	al, BYTE PTR tv66[ebp]

; 469  : }

	pop	edi
	pop	esi
	pop	ebx
	mov	esp, ebp
	pop	ebp
	ret	0
?IsReadOnly@?$CUtlMemory@PADH@@QBE_NXZ ENDP		; CUtlMemory<char *,int>::IsReadOnly
_TEXT	ENDS
; Function compile flags: /Odtp /ZI
; File d:\!diffusion 2020\source code 2022\client-server\game_shared\utlmemory.h
;	COMDAT ?IsExternallyAllocated@?$CUtlMemory@PADH@@QBE_NXZ
_TEXT	SEGMENT
tv66 = -72						; size = 4
_this$ = -4						; size = 4
?IsExternallyAllocated@?$CUtlMemory@PADH@@QBE_NXZ PROC	; CUtlMemory<char *,int>::IsExternallyAllocated, COMDAT
; _this$ = ecx

; 457  : {

	push	ebp
	mov	ebp, esp
	sub	esp, 72					; 00000048H
	push	ebx
	push	esi
	push	edi
	mov	DWORD PTR _this$[ebp], ecx

; 458  : 	return (m_nGrowSize < 0);

	mov	eax, DWORD PTR _this$[ebp]
	cmp	DWORD PTR [eax+8], 0
	jge	SHORT $LN3@IsExternal
	mov	DWORD PTR tv66[ebp], 1
	jmp	SHORT $LN4@IsExternal
$LN3@IsExternal:
	mov	DWORD PTR tv66[ebp], 0
$LN4@IsExternal:
	mov	al, BYTE PTR tv66[ebp]

; 459  : }

	pop	edi
	pop	esi
	pop	ebx
	mov	esp, ebp
	pop	ebp
	ret	0
?IsExternallyAllocated@?$CUtlMemory@PADH@@QBE_NXZ ENDP	; CUtlMemory<char *,int>::IsExternallyAllocated
_TEXT	ENDS
; Function compile flags: /Odtp /ZI
; File d:\!diffusion 2020\source code 2022\client-server\game_shared\utlmemory.h
;	COMDAT ?Purge@?$CUtlMemory@PADH@@QAEXXZ
_TEXT	SEGMENT
_this$ = -4						; size = 4
?Purge@?$CUtlMemory@PADH@@QAEXXZ PROC			; CUtlMemory<char *,int>::Purge, COMDAT
; _this$ = ecx

; 645  : {

	push	ebp
	mov	ebp, esp
	sub	esp, 68					; 00000044H
	push	ebx
	push	esi
	push	edi
	mov	DWORD PTR _this$[ebp], ecx

; 646  : 	if ( !IsExternallyAllocated() )

	mov	ecx, DWORD PTR _this$[ebp]
	call	?IsExternallyAllocated@?$CUtlMemory@PADH@@QBE_NXZ ; CUtlMemory<char *,int>::IsExternallyAllocated
	movzx	eax, al
	test	eax, eax
	jne	SHORT $LN1@Purge

; 647  : 	{
; 648  : 		if (m_pMemory)

	mov	eax, DWORD PTR _this$[ebp]
	cmp	DWORD PTR [eax], 0
	je	SHORT $LN3@Purge

; 649  : 		{
; 650  : 			free( (void*)m_pMemory );

	mov	eax, DWORD PTR _this$[ebp]
	mov	ecx, DWORD PTR [eax]
	push	ecx
	call	_free
	add	esp, 4

; 651  : 			m_pMemory = 0;

	mov	eax, DWORD PTR _this$[ebp]
	mov	DWORD PTR [eax], 0
$LN3@Purge:

; 652  : 		}
; 653  : 		m_nAllocationCount = 0;

	mov	eax, DWORD PTR _this$[ebp]
	mov	DWORD PTR [eax+4], 0
$LN1@Purge:

; 654  : 	}
; 655  : }

	pop	edi
	pop	esi
	pop	ebx
	mov	esp, ebp
	pop	ebp
	ret	0
?Purge@?$CUtlMemory@PADH@@QAEXXZ ENDP			; CUtlMemory<char *,int>::Purge
_TEXT	ENDS
; Function compile flags: /Odtp /ZI
; File d:\!diffusion 2020\source code 2022\client-server\game_shared\utlmemory.h
;	COMDAT ?Grow@?$CUtlMemory@PADH@@QAEXH@Z
_TEXT	SEGMENT
_nAllocationRequested$ = -8				; size = 4
_this$ = -4						; size = 4
_num$ = 8						; size = 4
?Grow@?$CUtlMemory@PADH@@QAEXH@Z PROC			; CUtlMemory<char *,int>::Grow, COMDAT
; _this$ = ecx

; 560  : {

	push	ebp
	mov	ebp, esp
	sub	esp, 72					; 00000048H
	push	ebx
	push	esi
	push	edi
	mov	DWORD PTR _this$[ebp], ecx

; 561  : 	assert( num > 0 );

	cmp	DWORD PTR _num$[ebp], 0
	jg	SHORT $LN12@Grow
	push	561					; 00000231H
	push	OFFSET ??_C@_1JE@CIIIAKCN@?$AAd?$AA?3?$AA?2?$AA?$CB?$AAd?$AAi?$AAf?$AAf?$AAu?$AAs?$AAi?$AAo?$AAn?$AA?5?$AA2?$AA0?$AA2?$AA0?$AA?2?$AAs?$AAo?$AAu?$AAr?$AAc?$AAe?$AA?5?$AAc?$AAo?$AAd?$AAe?$AA?5?$AA2@
	push	OFFSET ??_C@_1BA@PKCLMAEA@?$AAn?$AAu?$AAm?$AA?5?$AA?$DO?$AA?5?$AA0?$AA?$AA@
	call	__wassert
	add	esp, 12					; 0000000cH
$LN12@Grow:

; 562  : 
; 563  : 	if ( IsExternallyAllocated() )

	mov	ecx, DWORD PTR _this$[ebp]
	call	?IsExternallyAllocated@?$CUtlMemory@PADH@@QBE_NXZ ; CUtlMemory<char *,int>::IsExternallyAllocated
	movzx	eax, al
	test	eax, eax
	je	SHORT $LN4@Grow

; 564  : 	{
; 565  : 		// Can't grow a buffer whose memory was externally allocated 
; 566  : 		assert(0);

	xor	eax, eax
	jne	SHORT $LN13@Grow
	push	566					; 00000236H
	push	OFFSET ??_C@_1JE@CIIIAKCN@?$AAd?$AA?3?$AA?2?$AA?$CB?$AAd?$AAi?$AAf?$AAf?$AAu?$AAs?$AAi?$AAo?$AAn?$AA?5?$AA2?$AA0?$AA2?$AA0?$AA?2?$AAs?$AAo?$AAu?$AAr?$AAc?$AAe?$AA?5?$AAc?$AAo?$AAd?$AAe?$AA?5?$AA2@
	push	OFFSET ??_C@_13COJANIEC@?$AA0?$AA?$AA@
	call	__wassert
	add	esp, 12					; 0000000cH
$LN13@Grow:

; 567  : 		return;

	jmp	$LN1@Grow
$LN4@Grow:

; 568  : 	}
; 569  : 
; 570  : 	// Make sure we have at least numallocated + num allocations.
; 571  : 	// Use the grow rules specified for this memory (in m_nGrowSize)
; 572  : 	int nAllocationRequested = m_nAllocationCount + num;

	mov	eax, DWORD PTR _this$[ebp]
	mov	ecx, DWORD PTR [eax+4]
	add	ecx, DWORD PTR _num$[ebp]
	mov	DWORD PTR _nAllocationRequested$[ebp], ecx

; 573  : 
; 574  : 	m_nAllocationCount = UtlMemory_CalcNewAllocationCount( m_nAllocationCount, m_nGrowSize, nAllocationRequested, sizeof(T) );

	push	4
	mov	eax, DWORD PTR _nAllocationRequested$[ebp]
	push	eax
	mov	ecx, DWORD PTR _this$[ebp]
	mov	edx, DWORD PTR [ecx+8]
	push	edx
	mov	eax, DWORD PTR _this$[ebp]
	mov	ecx, DWORD PTR [eax+4]
	push	ecx
	call	?UtlMemory_CalcNewAllocationCount@@YAHHHHH@Z ; UtlMemory_CalcNewAllocationCount
	add	esp, 16					; 00000010H
	mov	edx, DWORD PTR _this$[ebp]
	mov	DWORD PTR [edx+4], eax

; 575  : 
; 576  : 	// if m_nAllocationRequested wraps index type I, recalculate
; 577  : 	if ( ( int )( I )m_nAllocationCount < nAllocationRequested )

	mov	eax, DWORD PTR _this$[ebp]
	mov	ecx, DWORD PTR [eax+4]
	cmp	ecx, DWORD PTR _nAllocationRequested$[ebp]
	jge	SHORT $LN5@Grow

; 578  : 	{
; 579  : 		if ( ( int )( I )m_nAllocationCount == 0 && ( int )( I )( m_nAllocationCount - 1 ) >= nAllocationRequested )

	mov	eax, DWORD PTR _this$[ebp]
	cmp	DWORD PTR [eax+4], 0
	jne	SHORT $LN6@Grow
	mov	eax, DWORD PTR _this$[ebp]
	mov	ecx, DWORD PTR [eax+4]
	sub	ecx, 1
	cmp	ecx, DWORD PTR _nAllocationRequested$[ebp]
	jl	SHORT $LN6@Grow

; 580  : 		{
; 581  : 			--m_nAllocationCount; // deal w/ the common case of m_nAllocationCount == MAX_USHORT + 1

	mov	eax, DWORD PTR _this$[ebp]
	mov	ecx, DWORD PTR [eax+4]
	sub	ecx, 1
	mov	edx, DWORD PTR _this$[ebp]
	mov	DWORD PTR [edx+4], ecx

; 582  : 		}
; 583  : 		else

	jmp	SHORT $LN5@Grow
$LN6@Grow:

; 584  : 		{
; 585  : 			if ( ( int )( I )nAllocationRequested != nAllocationRequested )

	mov	eax, DWORD PTR _nAllocationRequested$[ebp]
	cmp	eax, DWORD PTR _nAllocationRequested$[ebp]
	je	SHORT $LN2@Grow

; 586  : 			{
; 587  : 				// we've been asked to grow memory to a size s.t. the index type can't address the requested amount of memory
; 588  : 				assert( 0 );

	xor	eax, eax
	jne	SHORT $LN14@Grow
	push	588					; 0000024cH
	push	OFFSET ??_C@_1JE@CIIIAKCN@?$AAd?$AA?3?$AA?2?$AA?$CB?$AAd?$AAi?$AAf?$AAf?$AAu?$AAs?$AAi?$AAo?$AAn?$AA?5?$AA2?$AA0?$AA2?$AA0?$AA?2?$AAs?$AAo?$AAu?$AAr?$AAc?$AAe?$AA?5?$AAc?$AAo?$AAd?$AAe?$AA?5?$AA2@
	push	OFFSET ??_C@_13COJANIEC@?$AA0?$AA?$AA@
	call	__wassert
	add	esp, 12					; 0000000cH
$LN14@Grow:

; 589  : 				return;

	jmp	$LN1@Grow
$LN2@Grow:

; 590  : 			}
; 591  : 			while ( ( int )( I )m_nAllocationCount < nAllocationRequested )

	mov	eax, DWORD PTR _this$[ebp]
	mov	ecx, DWORD PTR [eax+4]
	cmp	ecx, DWORD PTR _nAllocationRequested$[ebp]
	jge	SHORT $LN5@Grow

; 592  : 			{
; 593  : 				m_nAllocationCount = ( m_nAllocationCount + nAllocationRequested ) / 2;

	mov	eax, DWORD PTR _this$[ebp]
	mov	eax, DWORD PTR [eax+4]
	add	eax, DWORD PTR _nAllocationRequested$[ebp]
	cdq
	sub	eax, edx
	sar	eax, 1
	mov	ecx, DWORD PTR _this$[ebp]
	mov	DWORD PTR [ecx+4], eax

; 594  : 			}

	jmp	SHORT $LN2@Grow
$LN5@Grow:

; 595  : 		}
; 596  : 	}
; 597  : 
; 598  : 	if (m_pMemory)

	mov	eax, DWORD PTR _this$[ebp]
	cmp	DWORD PTR [eax], 0
	je	SHORT $LN9@Grow

; 599  : 	{
; 600  : 		m_pMemory = (T*)realloc( m_pMemory, m_nAllocationCount * sizeof(T) );

	mov	eax, DWORD PTR _this$[ebp]
	mov	ecx, DWORD PTR [eax+4]
	shl	ecx, 2
	push	ecx
	mov	edx, DWORD PTR _this$[ebp]
	mov	eax, DWORD PTR [edx]
	push	eax
	call	_realloc
	add	esp, 8
	mov	ecx, DWORD PTR _this$[ebp]
	mov	DWORD PTR [ecx], eax

; 601  : 		assert( m_pMemory );

	mov	eax, DWORD PTR _this$[ebp]
	cmp	DWORD PTR [eax], 0
	jne	SHORT $LN15@Grow
	push	601					; 00000259H
	push	OFFSET ??_C@_1JE@CIIIAKCN@?$AAd?$AA?3?$AA?2?$AA?$CB?$AAd?$AAi?$AAf?$AAf?$AAu?$AAs?$AAi?$AAo?$AAn?$AA?5?$AA2?$AA0?$AA2?$AA0?$AA?2?$AAs?$AAo?$AAu?$AAr?$AAc?$AAe?$AA?5?$AAc?$AAo?$AAd?$AAe?$AA?5?$AA2@
	push	OFFSET ??_C@_1BE@OPPFELHC@?$AAm?$AA_?$AAp?$AAM?$AAe?$AAm?$AAo?$AAr?$AAy?$AA?$AA@
	call	__wassert
	add	esp, 12					; 0000000cH
$LN15@Grow:

; 602  : 	}
; 603  : 	else

	jmp	SHORT $LN1@Grow
$LN9@Grow:

; 604  : 	{
; 605  : 		m_pMemory = (T*)malloc( m_nAllocationCount * sizeof(T) );

	mov	eax, DWORD PTR _this$[ebp]
	mov	ecx, DWORD PTR [eax+4]
	shl	ecx, 2
	push	ecx
	call	_malloc
	add	esp, 4
	mov	edx, DWORD PTR _this$[ebp]
	mov	DWORD PTR [edx], eax

; 606  : 		assert( m_pMemory );

	mov	eax, DWORD PTR _this$[ebp]
	cmp	DWORD PTR [eax], 0
	jne	SHORT $LN1@Grow
	push	606					; 0000025eH
	push	OFFSET ??_C@_1JE@CIIIAKCN@?$AAd?$AA?3?$AA?2?$AA?$CB?$AAd?$AAi?$AAf?$AAf?$AAu?$AAs?$AAi?$AAo?$AAn?$AA?5?$AA2?$AA0?$AA2?$AA0?$AA?2?$AAs?$AAo?$AAu?$AAr?$AAc?$AAe?$AA?5?$AAc?$AAo?$AAd?$AAe?$AA?5?$AA2@
	push	OFFSET ??_C@_1BE@OPPFELHC@?$AAm?$AA_?$AAp?$AAM?$AAe?$AAm?$AAo?$AAr?$AAy?$AA?$AA@
	call	__wassert
	add	esp, 12					; 0000000cH
$LN1@Grow:

; 607  : 	}
; 608  : }

	pop	edi
	pop	esi
	pop	ebx
	mov	esp, ebp
	pop	ebp
	ret	4
?Grow@?$CUtlMemory@PADH@@QAEXH@Z ENDP			; CUtlMemory<char *,int>::Grow
_TEXT	ENDS
; Function compile flags: /Odtp /ZI
; File d:\!diffusion 2020\source code 2022\client-server\game_shared\utlmemory.h
;	COMDAT ?NumAllocated@?$CUtlMemory@PADH@@QBEHXZ
_TEXT	SEGMENT
_this$ = -4						; size = 4
?NumAllocated@?$CUtlMemory@PADH@@QBEHXZ PROC		; CUtlMemory<char *,int>::NumAllocated, COMDAT
; _this$ = ecx

; 504  : {

	push	ebp
	mov	ebp, esp
	sub	esp, 68					; 00000044H
	push	ebx
	push	esi
	push	edi
	mov	DWORD PTR _this$[ebp], ecx

; 505  : 	return m_nAllocationCount;

	mov	eax, DWORD PTR _this$[ebp]
	mov	eax, DWORD PTR [eax+4]

; 506  : }

	pop	edi
	pop	esi
	pop	ebx
	mov	esp, ebp
	pop	ebp
	ret	0
?NumAllocated@?$CUtlMemory@PADH@@QBEHXZ ENDP		; CUtlMemory<char *,int>::NumAllocated
_TEXT	ENDS
; Function compile flags: /Odtp /ZI
; File d:\!diffusion 2020\source code 2022\client-server\game_shared\utlmemory.h
;	COMDAT ?Base@?$CUtlMemory@PADH@@QAEPAPADXZ
_TEXT	SEGMENT
_this$ = -4						; size = 4
?Base@?$CUtlMemory@PADH@@QAEPAPADXZ PROC		; CUtlMemory<char *,int>::Base, COMDAT
; _this$ = ecx

; 487  : {

	push	ebp
	mov	ebp, esp
	sub	esp, 68					; 00000044H
	push	ebx
	push	esi
	push	edi
	mov	DWORD PTR _this$[ebp], ecx

; 488  : 	assert( !IsReadOnly() );

	mov	ecx, DWORD PTR _this$[ebp]
	call	?IsReadOnly@?$CUtlMemory@PADH@@QBE_NXZ	; CUtlMemory<char *,int>::IsReadOnly
	movzx	eax, al
	test	eax, eax
	je	SHORT $LN3@Base
	push	488					; 000001e8H
	push	OFFSET ??_C@_1JE@CIIIAKCN@?$AAd?$AA?3?$AA?2?$AA?$CB?$AAd?$AAi?$AAf?$AAf?$AAu?$AAs?$AAi?$AAo?$AAn?$AA?5?$AA2?$AA0?$AA2?$AA0?$AA?2?$AAs?$AAo?$AAu?$AAr?$AAc?$AAe?$AA?5?$AAc?$AAo?$AAd?$AAe?$AA?5?$AA2@
	push	OFFSET ??_C@_1BM@PFNFCCHH@?$AA?$CB?$AAI?$AAs?$AAR?$AAe?$AAa?$AAd?$AAO?$AAn?$AAl?$AAy?$AA?$CI?$AA?$CJ?$AA?$AA@
	call	__wassert
	add	esp, 12					; 0000000cH
$LN3@Base:

; 489  : 	return m_pMemory;

	mov	eax, DWORD PTR _this$[ebp]
	mov	eax, DWORD PTR [eax]

; 490  : }

	pop	edi
	pop	esi
	pop	ebx
	mov	esp, ebp
	pop	ebp
	ret	0
?Base@?$CUtlMemory@PADH@@QAEPAPADXZ ENDP		; CUtlMemory<char *,int>::Base
_TEXT	ENDS
; Function compile flags: /Odtp /ZI
; File d:\!diffusion 2020\source code 2022\client-server\game_shared\utlmemory.h
;	COMDAT ?IsIdxValid@?$CUtlMemory@PADH@@QBE_NH@Z
_TEXT	SEGMENT
tv67 = -72						; size = 4
_this$ = -4						; size = 4
_i$ = 8							; size = 4
?IsIdxValid@?$CUtlMemory@PADH@@QBE_NH@Z PROC		; CUtlMemory<char *,int>::IsIdxValid, COMDAT
; _this$ = ecx

; 520  : {

	push	ebp
	mov	ebp, esp
	sub	esp, 72					; 00000048H
	push	ebx
	push	esi
	push	edi
	mov	DWORD PTR _this$[ebp], ecx

; 521  : 	return ( ((int) i) >= 0 ) && ( ((int) i) < m_nAllocationCount );

	cmp	DWORD PTR _i$[ebp], 0
	jl	SHORT $LN3@IsIdxValid
	mov	eax, DWORD PTR _this$[ebp]
	mov	ecx, DWORD PTR _i$[ebp]
	cmp	ecx, DWORD PTR [eax+4]
	jge	SHORT $LN3@IsIdxValid
	mov	DWORD PTR tv67[ebp], 1
	jmp	SHORT $LN4@IsIdxValid
$LN3@IsIdxValid:
	mov	DWORD PTR tv67[ebp], 0
$LN4@IsIdxValid:
	mov	al, BYTE PTR tv67[ebp]

; 522  : }

	pop	edi
	pop	esi
	pop	ebx
	mov	esp, ebp
	pop	ebp
	ret	4
?IsIdxValid@?$CUtlMemory@PADH@@QBE_NH@Z ENDP		; CUtlMemory<char *,int>::IsIdxValid
_TEXT	ENDS
; Function compile flags: /Odtp /ZI
; File d:\!diffusion 2020\source code 2022\client-server\game_shared\utlmemory.h
;	COMDAT ??A?$CUtlMemory@PADH@@QAEAAPADH@Z
_TEXT	SEGMENT
_this$ = -4						; size = 4
_i$ = 8							; size = 4
??A?$CUtlMemory@PADH@@QAEAAPADH@Z PROC			; CUtlMemory<char *,int>::operator[], COMDAT
; _this$ = ecx

; 423  : {

	push	ebp
	mov	ebp, esp
	sub	esp, 68					; 00000044H
	push	ebx
	push	esi
	push	edi
	mov	DWORD PTR _this$[ebp], ecx

; 424  : 	assert( !IsReadOnly() );

	mov	ecx, DWORD PTR _this$[ebp]
	call	?IsReadOnly@?$CUtlMemory@PADH@@QBE_NXZ	; CUtlMemory<char *,int>::IsReadOnly
	movzx	eax, al
	test	eax, eax
	je	SHORT $LN3@operator
	push	424					; 000001a8H
	push	OFFSET ??_C@_1JE@CIIIAKCN@?$AAd?$AA?3?$AA?2?$AA?$CB?$AAd?$AAi?$AAf?$AAf?$AAu?$AAs?$AAi?$AAo?$AAn?$AA?5?$AA2?$AA0?$AA2?$AA0?$AA?2?$AAs?$AAo?$AAu?$AAr?$AAc?$AAe?$AA?5?$AAc?$AAo?$AAd?$AAe?$AA?5?$AA2@
	push	OFFSET ??_C@_1BM@PFNFCCHH@?$AA?$CB?$AAI?$AAs?$AAR?$AAe?$AAa?$AAd?$AAO?$AAn?$AAl?$AAy?$AA?$CI?$AA?$CJ?$AA?$AA@
	call	__wassert
	add	esp, 12					; 0000000cH
$LN3@operator:

; 425  : 	assert( IsIdxValid(i) );

	mov	eax, DWORD PTR _i$[ebp]
	push	eax
	mov	ecx, DWORD PTR _this$[ebp]
	call	?IsIdxValid@?$CUtlMemory@PADH@@QBE_NH@Z	; CUtlMemory<char *,int>::IsIdxValid
	movzx	ecx, al
	test	ecx, ecx
	jne	SHORT $LN4@operator
	push	425					; 000001a9H
	push	OFFSET ??_C@_1JE@CIIIAKCN@?$AAd?$AA?3?$AA?2?$AA?$CB?$AAd?$AAi?$AAf?$AAf?$AAu?$AAs?$AAi?$AAo?$AAn?$AA?5?$AA2?$AA0?$AA2?$AA0?$AA?2?$AAs?$AAo?$AAu?$AAr?$AAc?$AAe?$AA?5?$AAc?$AAo?$AAd?$AAe?$AA?5?$AA2@
	push	OFFSET ??_C@_1BM@CKILBAKK@?$AAI?$AAs?$AAI?$AAd?$AAx?$AAV?$AAa?$AAl?$AAi?$AAd?$AA?$CI?$AAi?$AA?$CJ?$AA?$AA@
	call	__wassert
	add	esp, 12					; 0000000cH
$LN4@operator:

; 426  : 	return m_pMemory[i];

	mov	eax, DWORD PTR _this$[ebp]
	mov	ecx, DWORD PTR [eax]
	mov	edx, DWORD PTR _i$[ebp]
	lea	eax, DWORD PTR [ecx+edx*4]

; 427  : }

	pop	edi
	pop	esi
	pop	ebx
	mov	esp, ebp
	pop	ebp
	ret	4
??A?$CUtlMemory@PADH@@QAEAAPADH@Z ENDP			; CUtlMemory<char *,int>::operator[]
_TEXT	ENDS
; Function compile flags: /Odtp /ZI
; File d:\!diffusion 2020\source code 2022\client-server\game_shared\utlmemory.h
;	COMDAT ??1?$CUtlMemory@PADH@@QAE@XZ
_TEXT	SEGMENT
_this$ = -16						; size = 4
__$EHRec$ = -12						; size = 12
??1?$CUtlMemory@PADH@@QAE@XZ PROC			; CUtlMemory<char *,int>::~CUtlMemory<char *,int>, COMDAT
; _this$ = ecx

; 322  : {

	push	ebp
	mov	ebp, esp
	push	-1
	push	__ehhandler$??1?$CUtlMemory@PADH@@QAE@XZ
	mov	eax, DWORD PTR fs:0
	push	eax
	sub	esp, 68					; 00000044H
	push	ebx
	push	esi
	push	edi
	mov	eax, DWORD PTR ___security_cookie
	xor	eax, ebp
	push	eax
	lea	eax, DWORD PTR __$EHRec$[ebp]
	mov	DWORD PTR fs:0, eax
	mov	DWORD PTR _this$[ebp], ecx

; 323  : 	Purge();

	mov	ecx, DWORD PTR _this$[ebp]
	call	?Purge@?$CUtlMemory@PADH@@QAEXXZ	; CUtlMemory<char *,int>::Purge

; 324  : }

	mov	ecx, DWORD PTR __$EHRec$[ebp]
	mov	DWORD PTR fs:0, ecx
	pop	ecx
	pop	edi
	pop	esi
	pop	ebx
	mov	esp, ebp
	pop	ebp
	ret	0
_TEXT	ENDS
;	COMDAT text$x
text$x	SEGMENT
__ehhandler$??1?$CUtlMemory@PADH@@QAE@XZ:
	mov	edx, DWORD PTR [esp+8]
	lea	eax, DWORD PTR [edx+12]
	mov	ecx, DWORD PTR [edx-84]
	xor	ecx, eax
	call	@__security_check_cookie@4
	mov	eax, OFFSET __ehfuncinfo$??1?$CUtlMemory@PADH@@QAE@XZ
	jmp	___CxxFrameHandler3
text$x	ENDS
??1?$CUtlMemory@PADH@@QAE@XZ ENDP			; CUtlMemory<char *,int>::~CUtlMemory<char *,int>
; Function compile flags: /Odtp /ZI
; File d:\!diffusion 2020\source code 2022\client-server\game_shared\utlmemory.h
;	COMDAT ??0?$CUtlMemory@PADH@@QAE@HH@Z
_TEXT	SEGMENT
_this$ = -4						; size = 4
_nGrowSize$ = 8						; size = 4
_nInitAllocationCount$ = 12				; size = 4
??0?$CUtlMemory@PADH@@QAE@HH@Z PROC			; CUtlMemory<char *,int>::CUtlMemory<char *,int>, COMDAT
; _this$ = ecx

; 295  : {

	push	ebp
	mov	ebp, esp
	sub	esp, 68					; 00000044H
	push	ebx
	push	esi
	push	edi
	mov	DWORD PTR _this$[ebp], ecx

; 293  : CUtlMemory<T,I>::CUtlMemory( int nGrowSize, int nInitAllocationCount ) : m_pMemory(0), 

	mov	eax, DWORD PTR _this$[ebp]
	mov	DWORD PTR [eax], 0

; 294  : 	m_nAllocationCount( nInitAllocationCount ), m_nGrowSize( nGrowSize )

	mov	eax, DWORD PTR _this$[ebp]
	mov	ecx, DWORD PTR _nInitAllocationCount$[ebp]
	mov	DWORD PTR [eax+4], ecx
	mov	eax, DWORD PTR _this$[ebp]
	mov	ecx, DWORD PTR _nGrowSize$[ebp]
	mov	DWORD PTR [eax+8], ecx

; 296  : 	ValidateGrowSize();

	mov	ecx, DWORD PTR _this$[ebp]
	call	?ValidateGrowSize@?$CUtlMemory@PADH@@IAEXXZ ; CUtlMemory<char *,int>::ValidateGrowSize

; 297  : 	assert( nGrowSize >= 0 );

	cmp	DWORD PTR _nGrowSize$[ebp], 0
	jge	SHORT $LN4@CUtlMemory
	push	297					; 00000129H
	push	OFFSET ??_C@_1JE@CIIIAKCN@?$AAd?$AA?3?$AA?2?$AA?$CB?$AAd?$AAi?$AAf?$AAf?$AAu?$AAs?$AAi?$AAo?$AAn?$AA?5?$AA2?$AA0?$AA2?$AA0?$AA?2?$AAs?$AAo?$AAu?$AAr?$AAc?$AAe?$AA?5?$AAc?$AAo?$AAd?$AAe?$AA?5?$AA2@
	push	OFFSET ??_C@_1BO@FOOHAONO@?$AAn?$AAG?$AAr?$AAo?$AAw?$AAS?$AAi?$AAz?$AAe?$AA?5?$AA?$DO?$AA?$DN?$AA?5?$AA0?$AA?$AA@
	call	__wassert
	add	esp, 12					; 0000000cH
$LN4@CUtlMemory:

; 298  : 	if (m_nAllocationCount)

	mov	eax, DWORD PTR _this$[ebp]
	cmp	DWORD PTR [eax+4], 0
	je	SHORT $LN1@CUtlMemory

; 299  : 	{
; 300  : 		m_pMemory = (T*)malloc( m_nAllocationCount * sizeof(T) );

	mov	eax, DWORD PTR _this$[ebp]
	mov	ecx, DWORD PTR [eax+4]
	shl	ecx, 2
	push	ecx
	call	_malloc
	add	esp, 4
	mov	edx, DWORD PTR _this$[ebp]
	mov	DWORD PTR [edx], eax
$LN1@CUtlMemory:

; 301  : 	}
; 302  : }

	mov	eax, DWORD PTR _this$[ebp]
	pop	edi
	pop	esi
	pop	ebx
	mov	esp, ebp
	pop	ebp
	ret	8
??0?$CUtlMemory@PADH@@QAE@HH@Z ENDP			; CUtlMemory<char *,int>::CUtlMemory<char *,int>
_TEXT	ENDS
; Function compile flags: /Odtp /ZI
; File d:\!diffusion 2020\source code 2022\client-server\game_shared\utlarray.h
;	COMDAT ?ShiftElementsRight@?$CUtlArray@PADV?$CUtlMemory@PADH@@@@IAEXHH@Z
_TEXT	SEGMENT
_numToMove$ = -8					; size = 4
_this$ = -4						; size = 4
_elem$ = 8						; size = 4
_num$ = 12						; size = 4
?ShiftElementsRight@?$CUtlArray@PADV?$CUtlMemory@PADH@@@@IAEXHH@Z PROC ; CUtlArray<char *,CUtlMemory<char *,int> >::ShiftElementsRight, COMDAT
; _this$ = ecx

; 447  : {

	push	ebp
	mov	ebp, esp
	sub	esp, 72					; 00000048H
	push	ebx
	push	esi
	push	edi
	mov	DWORD PTR _this$[ebp], ecx

; 448  : 	assert( IsValidIndex(elem) || ( m_Size == 0 ) || ( num == 0 ));

	mov	eax, DWORD PTR _elem$[ebp]
	push	eax
	mov	ecx, DWORD PTR _this$[ebp]
	call	?IsValidIndex@?$CUtlArray@PADV?$CUtlMemory@PADH@@@@QBE_NH@Z ; CUtlArray<char *,CUtlMemory<char *,int> >::IsValidIndex
	movzx	ecx, al
	test	ecx, ecx
	jne	SHORT $LN4@ShiftEleme
	mov	edx, DWORD PTR _this$[ebp]
	cmp	DWORD PTR [edx+12], 0
	je	SHORT $LN4@ShiftEleme
	cmp	DWORD PTR _num$[ebp], 0
	je	SHORT $LN4@ShiftEleme
	push	448					; 000001c0H
	push	OFFSET ??_C@_1JC@EMNIBBBG@?$AAd?$AA?3?$AA?2?$AA?$CB?$AAd?$AAi?$AAf?$AAf?$AAu?$AAs?$AAi?$AAo?$AAn?$AA?5?$AA2?$AA0?$AA2?$AA0?$AA?2?$AAs?$AAo?$AAu?$AAr?$AAc?$AAe?$AA?5?$AAc?$AAo?$AAd?$AAe?$AA?5?$AA2@
	push	OFFSET ??_C@_1GM@CDMJDFPA@?$AAI?$AAs?$AAV?$AAa?$AAl?$AAi?$AAd?$AAI?$AAn?$AAd?$AAe?$AAx?$AA?$CI?$AAe?$AAl?$AAe?$AAm?$AA?$CJ?$AA?5?$AA?$HM?$AA?$HM?$AA?5?$AA?$CI?$AA?5?$AAm?$AA_?$AAS?$AAi?$AAz?$AAe?$AA?5?$AA?$DN@
	call	__wassert
	add	esp, 12					; 0000000cH
$LN4@ShiftEleme:

; 449  : 	int numToMove = m_Size - elem - num;

	mov	eax, DWORD PTR _this$[ebp]
	mov	ecx, DWORD PTR [eax+12]
	sub	ecx, DWORD PTR _elem$[ebp]
	sub	ecx, DWORD PTR _num$[ebp]
	mov	DWORD PTR _numToMove$[ebp], ecx

; 450  : 	if ((numToMove > 0) && (num > 0))

	cmp	DWORD PTR _numToMove$[ebp], 0
	jle	SHORT $LN1@ShiftEleme
	cmp	DWORD PTR _num$[ebp], 0
	jle	SHORT $LN1@ShiftEleme

; 451  : 		memmove( &Element(elem+num), &Element(elem), numToMove * sizeof(T) );

	mov	eax, DWORD PTR _numToMove$[ebp]
	shl	eax, 2
	push	eax
	mov	ecx, DWORD PTR _elem$[ebp]
	push	ecx
	mov	ecx, DWORD PTR _this$[ebp]
	call	?Element@?$CUtlArray@PADV?$CUtlMemory@PADH@@@@QAEAAPADH@Z ; CUtlArray<char *,CUtlMemory<char *,int> >::Element
	push	eax
	mov	edx, DWORD PTR _elem$[ebp]
	add	edx, DWORD PTR _num$[ebp]
	push	edx
	mov	ecx, DWORD PTR _this$[ebp]
	call	?Element@?$CUtlArray@PADV?$CUtlMemory@PADH@@@@QAEAAPADH@Z ; CUtlArray<char *,CUtlMemory<char *,int> >::Element
	push	eax
	call	_memmove
	add	esp, 12					; 0000000cH
$LN1@ShiftEleme:

; 452  : }

	pop	edi
	pop	esi
	pop	ebx
	mov	esp, ebp
	pop	ebp
	ret	8
?ShiftElementsRight@?$CUtlArray@PADV?$CUtlMemory@PADH@@@@IAEXHH@Z ENDP ; CUtlArray<char *,CUtlMemory<char *,int> >::ShiftElementsRight
_TEXT	ENDS
; Function compile flags: /Odtp /ZI
; File d:\!diffusion 2020\source code 2022\client-server\game_shared\utlarray.h
;	COMDAT ?GrowVector@?$CUtlArray@PADV?$CUtlMemory@PADH@@@@IAEXH@Z
_TEXT	SEGMENT
_this$ = -4						; size = 4
_num$ = 8						; size = 4
?GrowVector@?$CUtlArray@PADV?$CUtlMemory@PADH@@@@IAEXH@Z PROC ; CUtlArray<char *,CUtlMemory<char *,int> >::GrowVector, COMDAT
; _this$ = ecx

; 374  : {

	push	ebp
	mov	ebp, esp
	sub	esp, 68					; 00000044H
	push	ebx
	push	esi
	push	edi
	mov	DWORD PTR _this$[ebp], ecx

; 375  : 	if (m_Size + num > m_Memory.NumAllocated())

	mov	eax, DWORD PTR _this$[ebp]
	mov	esi, DWORD PTR [eax+12]
	add	esi, DWORD PTR _num$[ebp]
	mov	ecx, DWORD PTR _this$[ebp]
	call	?NumAllocated@?$CUtlMemory@PADH@@QBEHXZ	; CUtlMemory<char *,int>::NumAllocated
	cmp	esi, eax
	jle	SHORT $LN2@GrowVector

; 376  : 	{
; 377  : 		m_Memory.Grow( m_Size + num - m_Memory.NumAllocated() );

	mov	eax, DWORD PTR _this$[ebp]
	mov	esi, DWORD PTR [eax+12]
	add	esi, DWORD PTR _num$[ebp]
	mov	ecx, DWORD PTR _this$[ebp]
	call	?NumAllocated@?$CUtlMemory@PADH@@QBEHXZ	; CUtlMemory<char *,int>::NumAllocated
	sub	esi, eax
	push	esi
	mov	ecx, DWORD PTR _this$[ebp]
	call	?Grow@?$CUtlMemory@PADH@@QAEXH@Z	; CUtlMemory<char *,int>::Grow
$LN2@GrowVector:

; 378  : 	}
; 379  : 
; 380  : 	m_Size += num;

	mov	eax, DWORD PTR _this$[ebp]
	mov	ecx, DWORD PTR [eax+12]
	add	ecx, DWORD PTR _num$[ebp]
	mov	edx, DWORD PTR _this$[ebp]
	mov	DWORD PTR [edx+12], ecx

; 381  : 	ResetDbgInfo();

	mov	ecx, DWORD PTR _this$[ebp]
	call	?ResetDbgInfo@?$CUtlArray@PADV?$CUtlMemory@PADH@@@@IAEXXZ ; CUtlArray<char *,CUtlMemory<char *,int> >::ResetDbgInfo

; 382  : }

	pop	edi
	pop	esi
	pop	ebx
	mov	esp, ebp
	pop	ebp
	ret	4
?GrowVector@?$CUtlArray@PADV?$CUtlMemory@PADH@@@@IAEXH@Z ENDP ; CUtlArray<char *,CUtlMemory<char *,int> >::GrowVector
_TEXT	ENDS
; Function compile flags: /Odtp /ZI
; File d:\!diffusion 2020\source code 2022\client-server\game_shared\utlarray.h
;	COMDAT ?Purge@?$CUtlArray@PADV?$CUtlMemory@PADH@@@@QAEXXZ
_TEXT	SEGMENT
_this$ = -4						; size = 4
?Purge@?$CUtlArray@PADV?$CUtlMemory@PADH@@@@QAEXXZ PROC	; CUtlArray<char *,CUtlMemory<char *,int> >::Purge, COMDAT
; _this$ = ecx

; 742  : {

	push	ebp
	mov	ebp, esp
	sub	esp, 68					; 00000044H
	push	ebx
	push	esi
	push	edi
	mov	DWORD PTR _this$[ebp], ecx

; 743  : 	RemoveAll();

	mov	ecx, DWORD PTR _this$[ebp]
	call	?RemoveAll@?$CUtlArray@PADV?$CUtlMemory@PADH@@@@QAEXXZ ; CUtlArray<char *,CUtlMemory<char *,int> >::RemoveAll

; 744  : 	m_Memory.Purge();

	mov	ecx, DWORD PTR _this$[ebp]
	call	?Purge@?$CUtlMemory@PADH@@QAEXXZ	; CUtlMemory<char *,int>::Purge

; 745  : 	ResetDbgInfo();

	mov	ecx, DWORD PTR _this$[ebp]
	call	?ResetDbgInfo@?$CUtlArray@PADV?$CUtlMemory@PADH@@@@IAEXXZ ; CUtlArray<char *,CUtlMemory<char *,int> >::ResetDbgInfo

; 746  : }

	pop	edi
	pop	esi
	pop	ebx
	mov	esp, ebp
	pop	ebp
	ret	0
?Purge@?$CUtlArray@PADV?$CUtlMemory@PADH@@@@QAEXXZ ENDP	; CUtlArray<char *,CUtlMemory<char *,int> >::Purge
_TEXT	ENDS
; Function compile flags: /Odtp /ZI
; File d:\!diffusion 2020\source code 2022\client-server\game_shared\utlarray.h
;	COMDAT ?RemoveAll@?$CUtlArray@PADV?$CUtlMemory@PADH@@@@QAEXXZ
_TEXT	SEGMENT
_i$1 = -8						; size = 4
_this$ = -4						; size = 4
?RemoveAll@?$CUtlArray@PADV?$CUtlMemory@PADH@@@@QAEXXZ PROC ; CUtlArray<char *,CUtlMemory<char *,int> >::RemoveAll, COMDAT
; _this$ = ecx

; 726  : {

	push	ebp
	mov	ebp, esp
	sub	esp, 72					; 00000048H
	push	ebx
	push	esi
	push	edi
	mov	DWORD PTR _this$[ebp], ecx

; 727  : 	for (int i = m_Size; --i >= 0; )

	mov	eax, DWORD PTR _this$[ebp]
	mov	ecx, DWORD PTR [eax+12]
	mov	DWORD PTR _i$1[ebp], ecx
$LN4@RemoveAll:
	mov	eax, DWORD PTR _i$1[ebp]
	sub	eax, 1
	mov	DWORD PTR _i$1[ebp], eax
	js	SHORT $LN3@RemoveAll

; 728  : 	{
; 729  : 		Destruct(&Element(i));

	mov	eax, DWORD PTR _i$1[ebp]
	push	eax
	mov	ecx, DWORD PTR _this$[ebp]
	call	?Element@?$CUtlArray@PADV?$CUtlMemory@PADH@@@@QAEAAPADH@Z ; CUtlArray<char *,CUtlMemory<char *,int> >::Element
	push	eax
	call	??$Destruct@PAD@@YAXPAPAD@Z		; Destruct<char *>
	add	esp, 4

; 730  : 	}

	jmp	SHORT $LN4@RemoveAll
$LN3@RemoveAll:

; 731  : 
; 732  : 	m_Size = 0;

	mov	eax, DWORD PTR _this$[ebp]
	mov	DWORD PTR [eax+12], 0

; 733  : }

	pop	edi
	pop	esi
	pop	ebx
	mov	esp, ebp
	pop	ebp
	ret	0
?RemoveAll@?$CUtlArray@PADV?$CUtlMemory@PADH@@@@QAEXXZ ENDP ; CUtlArray<char *,CUtlMemory<char *,int> >::RemoveAll
_TEXT	ENDS
; Function compile flags: /Odtp /ZI
; File d:\!diffusion 2020\source code 2022\client-server\game_shared\utlarray.h
;	COMDAT ?InsertBefore@?$CUtlArray@PADV?$CUtlMemory@PADH@@@@QAEHHABQAD@Z
_TEXT	SEGMENT
_this$ = -4						; size = 4
_elem$ = 8						; size = 4
_src$ = 12						; size = 4
?InsertBefore@?$CUtlArray@PADV?$CUtlMemory@PADH@@@@QAEHHABQAD@Z PROC ; CUtlArray<char *,CUtlMemory<char *,int> >::InsertBefore, COMDAT
; _this$ = ecx

; 533  : {

	push	ebp
	mov	ebp, esp
	sub	esp, 68					; 00000044H
	push	ebx
	push	esi
	push	edi
	mov	DWORD PTR _this$[ebp], ecx

; 534  : 	// Can't insert something that's in the list... reallocation may hose us
; 535  : 	assert( (Base() == NULL) || (&src < Base()) || (&src >= (Base() + Count()) ) ); 

	mov	ecx, DWORD PTR _this$[ebp]
	call	?Base@?$CUtlArray@PADV?$CUtlMemory@PADH@@@@QAEPAPADXZ ; CUtlArray<char *,CUtlMemory<char *,int> >::Base
	test	eax, eax
	je	SHORT $LN3@InsertBefo
	mov	ecx, DWORD PTR _this$[ebp]
	call	?Base@?$CUtlArray@PADV?$CUtlMemory@PADH@@@@QAEPAPADXZ ; CUtlArray<char *,CUtlMemory<char *,int> >::Base
	cmp	DWORD PTR _src$[ebp], eax
	jb	SHORT $LN3@InsertBefo
	mov	ecx, DWORD PTR _this$[ebp]
	call	?Base@?$CUtlArray@PADV?$CUtlMemory@PADH@@@@QAEPAPADXZ ; CUtlArray<char *,CUtlMemory<char *,int> >::Base
	mov	esi, eax
	mov	ecx, DWORD PTR _this$[ebp]
	call	?Count@?$CUtlArray@PADV?$CUtlMemory@PADH@@@@QBEHXZ ; CUtlArray<char *,CUtlMemory<char *,int> >::Count
	lea	eax, DWORD PTR [esi+eax*4]
	cmp	DWORD PTR _src$[ebp], eax
	jae	SHORT $LN3@InsertBefo
	push	535					; 00000217H
	push	OFFSET ??_C@_1JC@EMNIBBBG@?$AAd?$AA?3?$AA?2?$AA?$CB?$AAd?$AAi?$AAf?$AAf?$AAu?$AAs?$AAi?$AAo?$AAn?$AA?5?$AA2?$AA0?$AA2?$AA0?$AA?2?$AAs?$AAo?$AAu?$AAr?$AAc?$AAe?$AA?5?$AAc?$AAo?$AAd?$AAe?$AA?5?$AA2@
	push	OFFSET ??_C@_1IK@DGJDJNN@?$AA?$CI?$AAB?$AAa?$AAs?$AAe?$AA?$CI?$AA?$CJ?$AA?5?$AA?$DN?$AA?$DN?$AA?5?$AAN?$AAU?$AAL?$AAL?$AA?$CJ?$AA?5?$AA?$HM?$AA?$HM?$AA?5?$AA?$CI?$AA?$CG?$AAs?$AAr?$AAc?$AA?5?$AA?$DM?$AA?5?$AAB?$AAa?$AAs?$AAe@
	call	__wassert
	add	esp, 12					; 0000000cH
$LN3@InsertBefo:

; 536  : 
; 537  : 	// Can insert at the end
; 538  : 	assert( (elem == Count()) || IsValidIndex(elem) );

	mov	ecx, DWORD PTR _this$[ebp]
	call	?Count@?$CUtlArray@PADV?$CUtlMemory@PADH@@@@QBEHXZ ; CUtlArray<char *,CUtlMemory<char *,int> >::Count
	cmp	DWORD PTR _elem$[ebp], eax
	je	SHORT $LN4@InsertBefo
	mov	eax, DWORD PTR _elem$[ebp]
	push	eax
	mov	ecx, DWORD PTR _this$[ebp]
	call	?IsValidIndex@?$CUtlArray@PADV?$CUtlMemory@PADH@@@@QBE_NH@Z ; CUtlArray<char *,CUtlMemory<char *,int> >::IsValidIndex
	movzx	ecx, al
	test	ecx, ecx
	jne	SHORT $LN4@InsertBefo
	push	538					; 0000021aH
	push	OFFSET ??_C@_1JC@EMNIBBBG@?$AAd?$AA?3?$AA?2?$AA?$CB?$AAd?$AAi?$AAf?$AAf?$AAu?$AAs?$AAi?$AAo?$AAn?$AA?5?$AA2?$AA0?$AA2?$AA0?$AA?2?$AAs?$AAo?$AAu?$AAr?$AAc?$AAe?$AA?5?$AAc?$AAo?$AAd?$AAe?$AA?5?$AA2@
	push	OFFSET ??_C@_1FA@BPFBJKPF@?$AA?$CI?$AAe?$AAl?$AAe?$AAm?$AA?5?$AA?$DN?$AA?$DN?$AA?5?$AAC?$AAo?$AAu?$AAn?$AAt?$AA?$CI?$AA?$CJ?$AA?$CJ?$AA?5?$AA?$HM?$AA?$HM?$AA?5?$AAI?$AAs?$AAV?$AAa?$AAl?$AAi?$AAd?$AAI?$AAn?$AAd?$AAe@
	call	__wassert
	add	esp, 12					; 0000000cH
$LN4@InsertBefo:

; 539  : 
; 540  : 	GrowVector();

	push	1
	mov	ecx, DWORD PTR _this$[ebp]
	call	?GrowVector@?$CUtlArray@PADV?$CUtlMemory@PADH@@@@IAEXH@Z ; CUtlArray<char *,CUtlMemory<char *,int> >::GrowVector

; 541  : 	ShiftElementsRight(elem);

	push	1
	mov	eax, DWORD PTR _elem$[ebp]
	push	eax
	mov	ecx, DWORD PTR _this$[ebp]
	call	?ShiftElementsRight@?$CUtlArray@PADV?$CUtlMemory@PADH@@@@IAEXHH@Z ; CUtlArray<char *,CUtlMemory<char *,int> >::ShiftElementsRight

; 542  : 	CopyConstruct( &Element(elem), src );

	mov	eax, DWORD PTR _src$[ebp]
	push	eax
	mov	ecx, DWORD PTR _elem$[ebp]
	push	ecx
	mov	ecx, DWORD PTR _this$[ebp]
	call	?Element@?$CUtlArray@PADV?$CUtlMemory@PADH@@@@QAEAAPADH@Z ; CUtlArray<char *,CUtlMemory<char *,int> >::Element
	push	eax
	call	??$CopyConstruct@PAD@@YAXPAPADABQAD@Z	; CopyConstruct<char *>
	add	esp, 8

; 543  : 	return elem;

	mov	eax, DWORD PTR _elem$[ebp]

; 544  : }

	pop	edi
	pop	esi
	pop	ebx
	mov	esp, ebp
	pop	ebp
	ret	8
?InsertBefore@?$CUtlArray@PADV?$CUtlMemory@PADH@@@@QAEHHABQAD@Z ENDP ; CUtlArray<char *,CUtlMemory<char *,int> >::InsertBefore
_TEXT	ENDS
; Function compile flags: /Odtp /ZI
; File d:\!diffusion 2020\source code 2022\client-server\game_shared\utlarray.h
;	COMDAT ?AddToTail@?$CUtlArray@PADV?$CUtlMemory@PADH@@@@QAEHABQAD@Z
_TEXT	SEGMENT
_this$ = -4						; size = 4
_src$ = 8						; size = 4
?AddToTail@?$CUtlArray@PADV?$CUtlMemory@PADH@@@@QAEHABQAD@Z PROC ; CUtlArray<char *,CUtlMemory<char *,int> >::AddToTail, COMDAT
; _this$ = ecx

; 517  : {

	push	ebp
	mov	ebp, esp
	sub	esp, 68					; 00000044H
	push	ebx
	push	esi
	push	edi
	mov	DWORD PTR _this$[ebp], ecx

; 518  : 	// Can't insert something that's in the list... reallocation may hose us
; 519  : 	assert( (Base() == NULL) || (&src < Base()) || (&src >= (Base() + Count()) ) ); 

	mov	ecx, DWORD PTR _this$[ebp]
	call	?Base@?$CUtlArray@PADV?$CUtlMemory@PADH@@@@QAEPAPADXZ ; CUtlArray<char *,CUtlMemory<char *,int> >::Base
	test	eax, eax
	je	SHORT $LN3@AddToTail
	mov	ecx, DWORD PTR _this$[ebp]
	call	?Base@?$CUtlArray@PADV?$CUtlMemory@PADH@@@@QAEPAPADXZ ; CUtlArray<char *,CUtlMemory<char *,int> >::Base
	cmp	DWORD PTR _src$[ebp], eax
	jb	SHORT $LN3@AddToTail
	mov	ecx, DWORD PTR _this$[ebp]
	call	?Base@?$CUtlArray@PADV?$CUtlMemory@PADH@@@@QAEPAPADXZ ; CUtlArray<char *,CUtlMemory<char *,int> >::Base
	mov	esi, eax
	mov	ecx, DWORD PTR _this$[ebp]
	call	?Count@?$CUtlArray@PADV?$CUtlMemory@PADH@@@@QBEHXZ ; CUtlArray<char *,CUtlMemory<char *,int> >::Count
	lea	eax, DWORD PTR [esi+eax*4]
	cmp	DWORD PTR _src$[ebp], eax
	jae	SHORT $LN3@AddToTail
	push	519					; 00000207H
	push	OFFSET ??_C@_1JC@EMNIBBBG@?$AAd?$AA?3?$AA?2?$AA?$CB?$AAd?$AAi?$AAf?$AAf?$AAu?$AAs?$AAi?$AAo?$AAn?$AA?5?$AA2?$AA0?$AA2?$AA0?$AA?2?$AAs?$AAo?$AAu?$AAr?$AAc?$AAe?$AA?5?$AAc?$AAo?$AAd?$AAe?$AA?5?$AA2@
	push	OFFSET ??_C@_1IK@DGJDJNN@?$AA?$CI?$AAB?$AAa?$AAs?$AAe?$AA?$CI?$AA?$CJ?$AA?5?$AA?$DN?$AA?$DN?$AA?5?$AAN?$AAU?$AAL?$AAL?$AA?$CJ?$AA?5?$AA?$HM?$AA?$HM?$AA?5?$AA?$CI?$AA?$CG?$AAs?$AAr?$AAc?$AA?5?$AA?$DM?$AA?5?$AAB?$AAa?$AAs?$AAe@
	call	__wassert
	add	esp, 12					; 0000000cH
$LN3@AddToTail:

; 520  : 	return InsertBefore( m_Size, src );

	mov	eax, DWORD PTR _src$[ebp]
	push	eax
	mov	ecx, DWORD PTR _this$[ebp]
	mov	edx, DWORD PTR [ecx+12]
	push	edx
	mov	ecx, DWORD PTR _this$[ebp]
	call	?InsertBefore@?$CUtlArray@PADV?$CUtlMemory@PADH@@@@QAEHHABQAD@Z ; CUtlArray<char *,CUtlMemory<char *,int> >::InsertBefore

; 521  : }

	pop	edi
	pop	esi
	pop	ebx
	mov	esp, ebp
	pop	ebp
	ret	4
?AddToTail@?$CUtlArray@PADV?$CUtlMemory@PADH@@@@QAEHABQAD@Z ENDP ; CUtlArray<char *,CUtlMemory<char *,int> >::AddToTail
_TEXT	ENDS
; Function compile flags: /Odtp /ZI
; File d:\!diffusion 2020\source code 2022\client-server\game_shared\utlarray.h
;	COMDAT ?IsValidIndex@?$CUtlArray@PADV?$CUtlMemory@PADH@@@@QBE_NH@Z
_TEXT	SEGMENT
tv67 = -72						; size = 4
_this$ = -4						; size = 4
_i$ = 8							; size = 4
?IsValidIndex@?$CUtlArray@PADV?$CUtlMemory@PADH@@@@QBE_NH@Z PROC ; CUtlArray<char *,CUtlMemory<char *,int> >::IsValidIndex, COMDAT
; _this$ = ecx

; 354  : {

	push	ebp
	mov	ebp, esp
	sub	esp, 72					; 00000048H
	push	ebx
	push	esi
	push	edi
	mov	DWORD PTR _this$[ebp], ecx

; 355  : 	return (i >= 0) && (i < m_Size);

	cmp	DWORD PTR _i$[ebp], 0
	jl	SHORT $LN3@IsValidInd
	mov	eax, DWORD PTR _this$[ebp]
	mov	ecx, DWORD PTR _i$[ebp]
	cmp	ecx, DWORD PTR [eax+12]
	jge	SHORT $LN3@IsValidInd
	mov	DWORD PTR tv67[ebp], 1
	jmp	SHORT $LN4@IsValidInd
$LN3@IsValidInd:
	mov	DWORD PTR tv67[ebp], 0
$LN4@IsValidInd:
	mov	al, BYTE PTR tv67[ebp]

; 356  : }

	pop	edi
	pop	esi
	pop	ebx
	mov	esp, ebp
	pop	ebp
	ret	4
?IsValidIndex@?$CUtlArray@PADV?$CUtlMemory@PADH@@@@QBE_NH@Z ENDP ; CUtlArray<char *,CUtlMemory<char *,int> >::IsValidIndex
_TEXT	ENDS
; Function compile flags: /Odtp /ZI
; File d:\!diffusion 2020\source code 2022\client-server\game_shared\utlarray.h
;	COMDAT ?Count@?$CUtlArray@PADV?$CUtlMemory@PADH@@@@QBEHXZ
_TEXT	SEGMENT
_this$ = -4						; size = 4
?Count@?$CUtlArray@PADV?$CUtlMemory@PADH@@@@QBEHXZ PROC	; CUtlArray<char *,CUtlMemory<char *,int> >::Count, COMDAT
; _this$ = ecx

; 344  : {

	push	ebp
	mov	ebp, esp
	sub	esp, 68					; 00000044H
	push	ebx
	push	esi
	push	edi
	mov	DWORD PTR _this$[ebp], ecx

; 345  : 	return m_Size;

	mov	eax, DWORD PTR _this$[ebp]
	mov	eax, DWORD PTR [eax+12]

; 346  : }

	pop	edi
	pop	esi
	pop	ebx
	mov	esp, ebp
	pop	ebp
	ret	0
?Count@?$CUtlArray@PADV?$CUtlMemory@PADH@@@@QBEHXZ ENDP	; CUtlArray<char *,CUtlMemory<char *,int> >::Count
_TEXT	ENDS
; Function compile flags: /Odtp /ZI
; File d:\!diffusion 2020\source code 2022\client-server\game_shared\utlarray.h
;	COMDAT ?Base@?$CUtlArray@PADV?$CUtlMemory@PADH@@@@QAEPAPADXZ
_TEXT	SEGMENT
_this$ = -4						; size = 4
?Base@?$CUtlArray@PADV?$CUtlMemory@PADH@@@@QAEPAPADXZ PROC ; CUtlArray<char *,CUtlMemory<char *,int> >::Base, COMDAT
; _this$ = ecx

; 60   : 	T* Base()								{ return m_Memory.Base(); }

	push	ebp
	mov	ebp, esp
	sub	esp, 68					; 00000044H
	push	ebx
	push	esi
	push	edi
	mov	DWORD PTR _this$[ebp], ecx
	mov	ecx, DWORD PTR _this$[ebp]
	call	?Base@?$CUtlMemory@PADH@@QAEPAPADXZ	; CUtlMemory<char *,int>::Base
	pop	edi
	pop	esi
	pop	ebx
	mov	esp, ebp
	pop	ebp
	ret	0
?Base@?$CUtlArray@PADV?$CUtlMemory@PADH@@@@QAEPAPADXZ ENDP ; CUtlArray<char *,CUtlMemory<char *,int> >::Base
_TEXT	ENDS
; Function compile flags: /Odtp /ZI
; File d:\!diffusion 2020\source code 2022\client-server\game_shared\utlarray.h
;	COMDAT ?Element@?$CUtlArray@PADV?$CUtlMemory@PADH@@@@QAEAAPADH@Z
_TEXT	SEGMENT
_this$ = -4						; size = 4
_i$ = 8							; size = 4
?Element@?$CUtlArray@PADV?$CUtlMemory@PADH@@@@QAEAAPADH@Z PROC ; CUtlArray<char *,CUtlMemory<char *,int> >::Element, COMDAT
; _this$ = ecx

; 294  : {

	push	ebp
	mov	ebp, esp
	sub	esp, 68					; 00000044H
	push	ebx
	push	esi
	push	edi
	mov	DWORD PTR _this$[ebp], ecx

; 295  : 	return m_Memory[ i ];

	mov	eax, DWORD PTR _i$[ebp]
	push	eax
	mov	ecx, DWORD PTR _this$[ebp]
	call	??A?$CUtlMemory@PADH@@QAEAAPADH@Z	; CUtlMemory<char *,int>::operator[]

; 296  : }

	pop	edi
	pop	esi
	pop	ebx
	mov	esp, ebp
	pop	ebp
	ret	4
?Element@?$CUtlArray@PADV?$CUtlMemory@PADH@@@@QAEAAPADH@Z ENDP ; CUtlArray<char *,CUtlMemory<char *,int> >::Element
_TEXT	ENDS
; Function compile flags: /Odtp /ZI
; File d:\!diffusion 2020\source code 2022\client-server\game_shared\utlarray.h
;	COMDAT ??A?$CUtlArray@PADV?$CUtlMemory@PADH@@@@QAEAAPADH@Z
_TEXT	SEGMENT
_this$ = -4						; size = 4
_i$ = 8							; size = 4
??A?$CUtlArray@PADV?$CUtlMemory@PADH@@@@QAEAAPADH@Z PROC ; CUtlArray<char *,CUtlMemory<char *,int> >::operator[], COMDAT
; _this$ = ecx

; 282  : {

	push	ebp
	mov	ebp, esp
	sub	esp, 68					; 00000044H
	push	ebx
	push	esi
	push	edi
	mov	DWORD PTR _this$[ebp], ecx

; 283  : 	return m_Memory[ i ];

	mov	eax, DWORD PTR _i$[ebp]
	push	eax
	mov	ecx, DWORD PTR _this$[ebp]
	call	??A?$CUtlMemory@PADH@@QAEAAPADH@Z	; CUtlMemory<char *,int>::operator[]

; 284  : }

	pop	edi
	pop	esi
	pop	ebx
	mov	esp, ebp
	pop	ebp
	ret	4
??A?$CUtlArray@PADV?$CUtlMemory@PADH@@@@QAEAAPADH@Z ENDP ; CUtlArray<char *,CUtlMemory<char *,int> >::operator[]
_TEXT	ENDS
; Function compile flags: /Odtp /ZI
; File d:\!diffusion 2020\source code 2022\client-server\game_shared\utlarray.h
;	COMDAT ??1?$CUtlArray@PADV?$CUtlMemory@PADH@@@@QAE@XZ
_TEXT	SEGMENT
_this$ = -16						; size = 4
__$EHRec$ = -12						; size = 12
??1?$CUtlArray@PADV?$CUtlMemory@PADH@@@@QAE@XZ PROC	; CUtlArray<char *,CUtlMemory<char *,int> >::~CUtlArray<char *,CUtlMemory<char *,int> >, COMDAT
; _this$ = ecx

; 260  : {

	push	ebp
	mov	ebp, esp
	push	-1
	push	__ehhandler$??1?$CUtlArray@PADV?$CUtlMemory@PADH@@@@QAE@XZ
	mov	eax, DWORD PTR fs:0
	push	eax
	sub	esp, 68					; 00000044H
	push	ebx
	push	esi
	push	edi
	mov	eax, DWORD PTR ___security_cookie
	xor	eax, ebp
	push	eax
	lea	eax, DWORD PTR __$EHRec$[ebp]
	mov	DWORD PTR fs:0, eax
	mov	DWORD PTR _this$[ebp], ecx

; 261  : 	Purge();

	mov	ecx, DWORD PTR _this$[ebp]
	call	?Purge@?$CUtlArray@PADV?$CUtlMemory@PADH@@@@QAEXXZ ; CUtlArray<char *,CUtlMemory<char *,int> >::Purge

; 262  : }

	mov	ecx, DWORD PTR _this$[ebp]
	call	??1?$CUtlMemory@PADH@@QAE@XZ		; CUtlMemory<char *,int>::~CUtlMemory<char *,int>
	mov	ecx, DWORD PTR __$EHRec$[ebp]
	mov	DWORD PTR fs:0, ecx
	pop	ecx
	pop	edi
	pop	esi
	pop	ebx
	mov	esp, ebp
	pop	ebp
	ret	0
_TEXT	ENDS
;	COMDAT text$x
text$x	SEGMENT
__ehhandler$??1?$CUtlArray@PADV?$CUtlMemory@PADH@@@@QAE@XZ:
	mov	edx, DWORD PTR [esp+8]
	lea	eax, DWORD PTR [edx+12]
	mov	ecx, DWORD PTR [edx-84]
	xor	ecx, eax
	call	@__security_check_cookie@4
	mov	eax, OFFSET __ehfuncinfo$??1?$CUtlArray@PADV?$CUtlMemory@PADH@@@@QAE@XZ
	jmp	___CxxFrameHandler3
text$x	ENDS
??1?$CUtlArray@PADV?$CUtlMemory@PADH@@@@QAE@XZ ENDP	; CUtlArray<char *,CUtlMemory<char *,int> >::~CUtlArray<char *,CUtlMemory<char *,int> >
; Function compile flags: /Odtp /ZI
; File d:\!diffusion 2020\source code 2022\client-server\game_shared\utlarray.h
;	COMDAT ??0?$CUtlArray@PADV?$CUtlMemory@PADH@@@@QAE@HH@Z
_TEXT	SEGMENT
_this$ = -16						; size = 4
__$EHRec$ = -12						; size = 12
_growSize$ = 8						; size = 4
_initSize$ = 12						; size = 4
??0?$CUtlArray@PADV?$CUtlMemory@PADH@@@@QAE@HH@Z PROC	; CUtlArray<char *,CUtlMemory<char *,int> >::CUtlArray<char *,CUtlMemory<char *,int> >, COMDAT
; _this$ = ecx

; 247  : {

	push	ebp
	mov	ebp, esp
	push	-1
	push	__ehhandler$??0?$CUtlArray@PADV?$CUtlMemory@PADH@@@@QAE@HH@Z
	mov	eax, DWORD PTR fs:0
	push	eax
	sub	esp, 68					; 00000044H
	push	ebx
	push	esi
	push	edi
	mov	eax, DWORD PTR ___security_cookie
	xor	eax, ebp
	push	eax
	lea	eax, DWORD PTR __$EHRec$[ebp]
	mov	DWORD PTR fs:0, eax
	mov	DWORD PTR _this$[ebp], ecx

; 246  : 	m_Memory(growSize, initSize), m_Size(0)

	mov	eax, DWORD PTR _initSize$[ebp]
	push	eax
	mov	ecx, DWORD PTR _growSize$[ebp]
	push	ecx
	mov	ecx, DWORD PTR _this$[ebp]
	call	??0?$CUtlMemory@PADH@@QAE@HH@Z		; CUtlMemory<char *,int>::CUtlMemory<char *,int>
	mov	DWORD PTR __$EHRec$[ebp+8], 0
	mov	eax, DWORD PTR _this$[ebp]
	mov	DWORD PTR [eax+12], 0

; 248  : 	ResetDbgInfo();

	mov	ecx, DWORD PTR _this$[ebp]
	call	?ResetDbgInfo@?$CUtlArray@PADV?$CUtlMemory@PADH@@@@IAEXXZ ; CUtlArray<char *,CUtlMemory<char *,int> >::ResetDbgInfo

; 249  : }

	mov	DWORD PTR __$EHRec$[ebp+8], -1
	mov	eax, DWORD PTR _this$[ebp]
	mov	ecx, DWORD PTR __$EHRec$[ebp]
	mov	DWORD PTR fs:0, ecx
	pop	ecx
	pop	edi
	pop	esi
	pop	ebx
	mov	esp, ebp
	pop	ebp
	ret	8
_TEXT	ENDS
;	COMDAT text$x
text$x	SEGMENT
__unwindfunclet$??0?$CUtlArray@PADV?$CUtlMemory@PADH@@@@QAE@HH@Z$0:
	mov	ecx, DWORD PTR _this$[ebp]
	jmp	??1?$CUtlMemory@PADH@@QAE@XZ		; CUtlMemory<char *,int>::~CUtlMemory<char *,int>
__ehhandler$??0?$CUtlArray@PADV?$CUtlMemory@PADH@@@@QAE@HH@Z:
	mov	edx, DWORD PTR [esp+8]
	lea	eax, DWORD PTR [edx+12]
	mov	ecx, DWORD PTR [edx-84]
	xor	ecx, eax
	call	@__security_check_cookie@4
	mov	eax, OFFSET __ehfuncinfo$??0?$CUtlArray@PADV?$CUtlMemory@PADH@@@@QAE@HH@Z
	jmp	___CxxFrameHandler3
text$x	ENDS
??0?$CUtlArray@PADV?$CUtlMemory@PADH@@@@QAE@HH@Z ENDP	; CUtlArray<char *,CUtlMemory<char *,int> >::CUtlArray<char *,CUtlMemory<char *,int> >
; Function compile flags: /Odtp /ZI
; File d:\!diffusion 2020\source code 2022\client-server\common\datamap.h
;	COMDAT ?GenerateName@CDatadescGeneratedNameHolder@@QAEPBDPBD@Z
_TEXT	SEGMENT
$T1 = -76						; size = 4
_pBuf$ = -8						; size = 4
_this$ = -4						; size = 4
_pszIdentifier$ = 8					; size = 4
?GenerateName@CDatadescGeneratedNameHolder@@QAEPBDPBD@Z PROC ; CDatadescGeneratedNameHolder::GenerateName, COMDAT
; _this$ = ecx

; 207  : 	{

	push	ebp
	mov	ebp, esp
	sub	esp, 76					; 0000004cH
	push	ebx
	push	esi
	push	edi
	mov	DWORD PTR _this$[ebp], ecx

; 208  : 		char *pBuf = new char[m_nLenBase + strlen(pszIdentifier) + 1];

	mov	eax, DWORD PTR _pszIdentifier$[ebp]
	push	eax
	call	_strlen
	add	esp, 4
	mov	ecx, DWORD PTR _this$[ebp]
	mov	edx, DWORD PTR [ecx+4]
	lea	eax, DWORD PTR [edx+eax+1]
	push	eax
	call	??_U@YAPAXI@Z				; operator new[]
	add	esp, 4
	mov	DWORD PTR $T1[ebp], eax
	mov	ecx, DWORD PTR $T1[ebp]
	mov	DWORD PTR _pBuf$[ebp], ecx

; 209  : 		sprintf( pBuf, "%s::", m_pszBase );

	mov	eax, DWORD PTR _this$[ebp]
	mov	ecx, DWORD PTR [eax]
	push	ecx
	push	OFFSET ??_C@_04EFCDBJNL@?$CFs?3?3?$AA@
	mov	edx, DWORD PTR _pBuf$[ebp]
	push	edx
	call	_sprintf
	add	esp, 12					; 0000000cH

; 210  : 		strcat( pBuf, pszIdentifier );

	mov	eax, DWORD PTR _pszIdentifier$[ebp]
	push	eax
	mov	ecx, DWORD PTR _pBuf$[ebp]
	push	ecx
	call	_strcat
	add	esp, 8

; 211  : 		m_Names.AddToTail( pBuf );

	lea	eax, DWORD PTR _pBuf$[ebp]
	push	eax
	mov	ecx, DWORD PTR _this$[ebp]
	add	ecx, 8
	call	?AddToTail@?$CUtlArray@PADV?$CUtlMemory@PADH@@@@QAEHABQAD@Z ; CUtlArray<char *,CUtlMemory<char *,int> >::AddToTail

; 212  : 		return pBuf;

	mov	eax, DWORD PTR _pBuf$[ebp]

; 213  : 	}

	pop	edi
	pop	esi
	pop	ebx
	mov	esp, ebp
	pop	ebp
	ret	4
?GenerateName@CDatadescGeneratedNameHolder@@QAEPBDPBD@Z ENDP ; CDatadescGeneratedNameHolder::GenerateName
_TEXT	ENDS
; Function compile flags: /Odtp /ZI
; File d:\!diffusion 2020\source code 2022\client-server\common\datamap.h
;	COMDAT ??1CDatadescGeneratedNameHolder@@QAE@XZ
_TEXT	SEGMENT
$T2 = -88						; size = 4
_i$3 = -20						; size = 4
_this$ = -16						; size = 4
__$EHRec$ = -12						; size = 12
??1CDatadescGeneratedNameHolder@@QAE@XZ PROC		; CDatadescGeneratedNameHolder::~CDatadescGeneratedNameHolder, COMDAT
; _this$ = ecx

; 199  : 	{

	push	ebp
	mov	ebp, esp
	push	-1
	push	__ehhandler$??1CDatadescGeneratedNameHolder@@QAE@XZ
	mov	eax, DWORD PTR fs:0
	push	eax
	sub	esp, 76					; 0000004cH
	push	ebx
	push	esi
	push	edi
	mov	eax, DWORD PTR ___security_cookie
	xor	eax, ebp
	push	eax
	lea	eax, DWORD PTR __$EHRec$[ebp]
	mov	DWORD PTR fs:0, eax
	mov	DWORD PTR _this$[ebp], ecx

; 200  : 		for( int i = 0; i < m_Names.Count(); i++ )

	mov	DWORD PTR _i$3[ebp], 0
	jmp	SHORT $LN4@CDatadescG
$LN2@CDatadescG:
	mov	eax, DWORD PTR _i$3[ebp]
	add	eax, 1
	mov	DWORD PTR _i$3[ebp], eax
$LN4@CDatadescG:
	mov	ecx, DWORD PTR _this$[ebp]
	add	ecx, 8
	call	?Count@?$CUtlArray@PADV?$CUtlMemory@PADH@@@@QBEHXZ ; CUtlArray<char *,CUtlMemory<char *,int> >::Count
	cmp	DWORD PTR _i$3[ebp], eax
	jge	SHORT $LN1@CDatadescG

; 201  : 		{
; 202  : 			delete m_Names[i];

	mov	eax, DWORD PTR _i$3[ebp]
	push	eax
	mov	ecx, DWORD PTR _this$[ebp]
	add	ecx, 8
	call	??A?$CUtlArray@PADV?$CUtlMemory@PADH@@@@QAEAAPADH@Z ; CUtlArray<char *,CUtlMemory<char *,int> >::operator[]
	mov	ecx, DWORD PTR [eax]
	mov	DWORD PTR $T2[ebp], ecx
	push	1
	mov	edx, DWORD PTR $T2[ebp]
	push	edx
	call	??3@YAXPAXI@Z				; operator delete
	add	esp, 8

; 203  : 		}

	jmp	SHORT $LN2@CDatadescG
$LN1@CDatadescG:

; 204  : 	}

	mov	ecx, DWORD PTR _this$[ebp]
	add	ecx, 8
	call	??1?$CUtlArray@PADV?$CUtlMemory@PADH@@@@QAE@XZ ; CUtlArray<char *,CUtlMemory<char *,int> >::~CUtlArray<char *,CUtlMemory<char *,int> >
	mov	ecx, DWORD PTR __$EHRec$[ebp]
	mov	DWORD PTR fs:0, ecx
	pop	ecx
	pop	edi
	pop	esi
	pop	ebx
	mov	esp, ebp
	pop	ebp
	ret	0
_TEXT	ENDS
;	COMDAT text$x
text$x	SEGMENT
__ehhandler$??1CDatadescGeneratedNameHolder@@QAE@XZ:
	mov	edx, DWORD PTR [esp+8]
	lea	eax, DWORD PTR [edx+12]
	mov	ecx, DWORD PTR [edx-92]
	xor	ecx, eax
	call	@__security_check_cookie@4
	mov	eax, OFFSET __ehfuncinfo$??1CDatadescGeneratedNameHolder@@QAE@XZ
	jmp	___CxxFrameHandler3
text$x	ENDS
??1CDatadescGeneratedNameHolder@@QAE@XZ ENDP		; CDatadescGeneratedNameHolder::~CDatadescGeneratedNameHolder
; Function compile flags: /Odtp /ZI
; File d:\!diffusion 2020\source code 2022\client-server\common\datamap.h
;	COMDAT ??0CDatadescGeneratedNameHolder@@QAE@PBD@Z
_TEXT	SEGMENT
_this$ = -4						; size = 4
_pszBase$ = 8						; size = 4
??0CDatadescGeneratedNameHolder@@QAE@PBD@Z PROC		; CDatadescGeneratedNameHolder::CDatadescGeneratedNameHolder, COMDAT
; _this$ = ecx

; 194  : 	{

	push	ebp
	mov	ebp, esp
	sub	esp, 68					; 00000044H
	push	ebx
	push	esi
	push	edi
	mov	DWORD PTR _this$[ebp], ecx

; 193  : 	CDatadescGeneratedNameHolder( const char *pszBase ) : m_pszBase(pszBase)

	mov	eax, DWORD PTR _this$[ebp]
	mov	ecx, DWORD PTR _pszBase$[ebp]
	mov	DWORD PTR [eax], ecx

; 194  : 	{

	push	0
	push	0
	mov	ecx, DWORD PTR _this$[ebp]
	add	ecx, 8
	call	??0?$CUtlArray@PADV?$CUtlMemory@PADH@@@@QAE@HH@Z ; CUtlArray<char *,CUtlMemory<char *,int> >::CUtlArray<char *,CUtlMemory<char *,int> >

; 195  : 		m_nLenBase = strlen( m_pszBase ) + 2;

	mov	eax, DWORD PTR _this$[ebp]
	mov	ecx, DWORD PTR [eax]
	push	ecx
	call	_strlen
	add	esp, 4
	add	eax, 2
	mov	edx, DWORD PTR _this$[ebp]
	mov	DWORD PTR [edx+4], eax

; 196  : 	}

	mov	eax, DWORD PTR _this$[ebp]
	pop	edi
	pop	esi
	pop	ebx
	mov	esp, ebp
	pop	ebp
	ret	4
??0CDatadescGeneratedNameHolder@@QAE@PBD@Z ENDP		; CDatadescGeneratedNameHolder::CDatadescGeneratedNameHolder
_TEXT	ENDS
; Function compile flags: /Odtp /ZI
; File d:\!diffusion 2020\source code 2022\client-server\game_shared\utlmemory.h
;	COMDAT ?UtlMemory_CalcNewAllocationCount@@YAHHHHH@Z
_TEXT	SEGMENT
_nAllocationCount$ = 8					; size = 4
_nGrowSize$ = 12					; size = 4
_nNewSize$ = 16						; size = 4
_nBytesItem$ = 20					; size = 4
?UtlMemory_CalcNewAllocationCount@@YAHHHHH@Z PROC	; UtlMemory_CalcNewAllocationCount, COMDAT

; 528  : {

	push	ebp
	mov	ebp, esp
	sub	esp, 64					; 00000040H
	push	ebx
	push	esi
	push	edi

; 529  : 	if ( nGrowSize )

	cmp	DWORD PTR _nGrowSize$[ebp], 0
	je	SHORT $LN4@UtlMemory_

; 530  : 	{ 
; 531  : 		nAllocationCount = ((1 + ((nNewSize - 1) / nGrowSize)) * nGrowSize);

	mov	eax, DWORD PTR _nNewSize$[ebp]
	sub	eax, 1
	cdq
	idiv	DWORD PTR _nGrowSize$[ebp]
	add	eax, 1
	imul	eax, DWORD PTR _nGrowSize$[ebp]
	mov	DWORD PTR _nAllocationCount$[ebp], eax

; 532  : 	}
; 533  : 	else 

	jmp	SHORT $LN5@UtlMemory_
$LN4@UtlMemory_:

; 534  : 	{
; 535  : 		if ( !nAllocationCount )

	cmp	DWORD PTR _nAllocationCount$[ebp], 0
	jne	SHORT $LN2@UtlMemory_

; 536  : 		{
; 537  : 			// Compute an allocation which is at least as big as a cache line...
; 538  : 			nAllocationCount = (31 + nBytesItem) / nBytesItem;

	mov	eax, DWORD PTR _nBytesItem$[ebp]
	add	eax, 31					; 0000001fH
	cdq
	idiv	DWORD PTR _nBytesItem$[ebp]
	mov	DWORD PTR _nAllocationCount$[ebp], eax
$LN2@UtlMemory_:

; 539  : 		}
; 540  : 
; 541  : 		while (nAllocationCount < nNewSize)

	mov	eax, DWORD PTR _nAllocationCount$[ebp]
	cmp	eax, DWORD PTR _nNewSize$[ebp]
	jge	SHORT $LN5@UtlMemory_

; 542  : 		{
; 543  : #ifndef _X360
; 544  : 			nAllocationCount *= 2;

	mov	eax, DWORD PTR _nAllocationCount$[ebp]
	shl	eax, 1
	mov	DWORD PTR _nAllocationCount$[ebp], eax

; 545  : #else
; 546  : 			int nNewAllocationCount = ( nAllocationCount * 9) / 8; // 12.5 %
; 547  : 			if ( nNewAllocationCount > nAllocationCount )
; 548  : 				nAllocationCount = nNewAllocationCount;
; 549  : 			else
; 550  : 				nAllocationCount *= 2;
; 551  : #endif
; 552  : 		}

	jmp	SHORT $LN2@UtlMemory_
$LN5@UtlMemory_:

; 553  : 	}
; 554  : 
; 555  : 	return nAllocationCount;

	mov	eax, DWORD PTR _nAllocationCount$[ebp]

; 556  : }

	pop	edi
	pop	esi
	pop	ebx
	mov	esp, ebp
	pop	ebp
	ret	0
?UtlMemory_CalcNewAllocationCount@@YAHHHHH@Z ENDP	; UtlMemory_CalcNewAllocationCount
_TEXT	ENDS
; Function compile flags: /Odtp /ZI
; File c:\program files (x86)\microsoft visual studio 14.0\vc\include\vcruntime_new.h
;	COMDAT ??2@YAPAXIPAX@Z
_TEXT	SEGMENT
__Size$ = 8						; size = 4
__Where$ = 12						; size = 4
??2@YAPAXIPAX@Z PROC					; operator new, COMDAT

; 87   :     {

	push	ebp
	mov	ebp, esp
	sub	esp, 64					; 00000040H
	push	ebx
	push	esi
	push	edi

; 88   :         (void)_Size;
; 89   :         return _Where;

	mov	eax, DWORD PTR __Where$[ebp]

; 90   :     }

	pop	edi
	pop	esi
	pop	ebx
	mov	esp, ebp
	pop	ebp
	ret	0
??2@YAPAXIPAX@Z ENDP					; operator new
_TEXT	ENDS
; Function compile flags: /Odtp /ZI
; File d:\!diffusion 2020\source code 2022\client-server\server\enginecallback.h
;	COMDAT ?GET_PRIVATE@@YAPAXPAUedict_s@@@Z
_TEXT	SEGMENT
_pent$ = 8						; size = 4
?GET_PRIVATE@@YAPAXPAUedict_s@@@Z PROC			; GET_PRIVATE, COMDAT

; 106  : {

	push	ebp
	mov	ebp, esp
	sub	esp, 64					; 00000040H
	push	ebx
	push	esi
	push	edi

; 107  : 	if ( pent )

	cmp	DWORD PTR _pent$[ebp], 0
	je	SHORT $LN2@GET_PRIVAT

; 108  : 		return pent->pvPrivateData;

	mov	eax, DWORD PTR _pent$[ebp]
	mov	eax, DWORD PTR [eax+124]
	jmp	SHORT $LN1@GET_PRIVAT
$LN2@GET_PRIVAT:

; 109  : 	return NULL;

	xor	eax, eax
$LN1@GET_PRIVAT:

; 110  : }

	pop	edi
	pop	esi
	pop	ebx
	mov	esp, ebp
	pop	ebp
	ret	0
?GET_PRIVATE@@YAPAXPAUedict_s@@@Z ENDP			; GET_PRIVATE
_TEXT	ENDS
; Function compile flags: /Odtp /ZI
; File d:\!diffusion 2020\source code 2022\client-server\server\enginecallback.h
;	COMDAT ?MESSAGE_BEGIN@@YAXHHPBMPAUedict_s@@@Z
_TEXT	SEGMENT
_msg_dest$ = 8						; size = 4
_msg_type$ = 12						; size = 4
_pOrigin$ = 16						; size = 4
_ed$ = 20						; size = 4
?MESSAGE_BEGIN@@YAXHHPBMPAUedict_s@@@Z PROC		; MESSAGE_BEGIN, COMDAT

; 72   : inline void MESSAGE_BEGIN( int msg_dest, int msg_type, const float *pOrigin = NULL, edict_t *ed = NULL ) {

	push	ebp
	mov	ebp, esp
	sub	esp, 64					; 00000040H
	push	ebx
	push	esi
	push	edi

; 73   : 	(*g_engfuncs.pfnMessageBegin)(msg_dest, msg_type, pOrigin, ed);

	mov	eax, DWORD PTR _ed$[ebp]
	push	eax
	mov	ecx, DWORD PTR _pOrigin$[ebp]
	push	ecx
	mov	edx, DWORD PTR _msg_type$[ebp]
	push	edx
	mov	eax, DWORD PTR _msg_dest$[ebp]
	push	eax
	call	DWORD PTR ?g_engfuncs@@3Uenginefuncs_s@@A+184
	add	esp, 16					; 00000010H

; 74   : }

	pop	edi
	pop	esi
	pop	ebx
	mov	esp, ebp
	pop	ebp
	ret	0
?MESSAGE_BEGIN@@YAXHHPBMPAUedict_s@@@Z ENDP		; MESSAGE_BEGIN
_TEXT	ENDS
; Function compile flags: /Odtp /ZI
;	COMDAT ??0gametrace_s@@QAE@XZ
_TEXT	SEGMENT
_this$ = -4						; size = 4
??0gametrace_s@@QAE@XZ PROC				; gametrace_s::gametrace_s, COMDAT
; _this$ = ecx
	push	ebp
	mov	ebp, esp
	sub	esp, 68					; 00000044H
	push	ebx
	push	esi
	push	edi
	mov	DWORD PTR _this$[ebp], ecx
	mov	ecx, DWORD PTR _this$[ebp]
	add	ecx, 20					; 00000014H
	call	??0Vector@@QAE@XZ			; Vector::Vector
	mov	ecx, DWORD PTR _this$[ebp]
	add	ecx, 36					; 00000024H
	call	??0Vector@@QAE@XZ			; Vector::Vector
	mov	eax, DWORD PTR _this$[ebp]
	pop	edi
	pop	esi
	pop	ebx
	mov	esp, ebp
	pop	ebp
	ret	0
??0gametrace_s@@QAE@XZ ENDP				; gametrace_s::gametrace_s
_TEXT	ENDS
; Function compile flags: /Odtp /ZI
; File d:\!diffusion 2020\source code 2022\client-server\game_shared\vector.h
;	COMDAT ?DotProduct@@YAMABVVector@@0@Z
_TEXT	SEGMENT
tv86 = -68						; size = 4
_a$ = 8							; size = 4
_b$ = 12						; size = 4
?DotProduct@@YAMABVVector@@0@Z PROC			; DotProduct, COMDAT

; 308  : inline float DotProduct(const Vector& a, const Vector& b ) { return( a.x * b.x + a.y * b.y + a.z * b.z ); }

	push	ebp
	mov	ebp, esp
	sub	esp, 68					; 00000044H
	push	ebx
	push	esi
	push	edi
	mov	eax, DWORD PTR _a$[ebp]
	mov	ecx, DWORD PTR _b$[ebp]
	movss	xmm0, DWORD PTR [eax]
	mulss	xmm0, DWORD PTR [ecx]
	mov	edx, DWORD PTR _a$[ebp]
	mov	eax, DWORD PTR _b$[ebp]
	movss	xmm1, DWORD PTR [edx+4]
	mulss	xmm1, DWORD PTR [eax+4]
	addss	xmm0, xmm1
	mov	ecx, DWORD PTR _a$[ebp]
	mov	edx, DWORD PTR _b$[ebp]
	movss	xmm1, DWORD PTR [ecx+8]
	mulss	xmm1, DWORD PTR [edx+8]
	addss	xmm0, xmm1
	movss	DWORD PTR tv86[ebp], xmm0
	fld	DWORD PTR tv86[ebp]
	pop	edi
	pop	esi
	pop	ebx
	mov	esp, ebp
	pop	ebp
	ret	0
?DotProduct@@YAMABVVector@@0@Z ENDP			; DotProduct
_TEXT	ENDS
; Function compile flags: /Odtp /ZI
; File d:\!diffusion 2020\source code 2022\client-server\game_shared\vector.h
;	COMDAT ?Normalize@Vector@@QBE?AV1@XZ
_TEXT	SEGMENT
_flLen$ = -8						; size = 4
_this$ = -4						; size = 4
___$ReturnUdt$ = 8					; size = 4
?Normalize@Vector@@QBE?AV1@XZ PROC			; Vector::Normalize, COMDAT
; _this$ = ecx

; 251  : 	{

	push	ebp
	mov	ebp, esp
	sub	esp, 72					; 00000048H
	push	ebx
	push	esi
	push	edi
	mov	DWORD PTR _this$[ebp], ecx

; 252  : 		float flLen = Length();

	mov	ecx, DWORD PTR _this$[ebp]
	call	?Length@Vector@@QBEMXZ			; Vector::Length
	fstp	DWORD PTR _flLen$[ebp]

; 253  : 
; 254  : 		if( flLen )

	movss	xmm0, DWORD PTR _flLen$[ebp]
	ucomiss	xmm0, DWORD PTR __real@00000000
	lahf
	test	ah, 68					; 00000044H
	jnp	SHORT $LN2@Normalize

; 255  : 		{
; 256  : 			flLen = 1.0f / flLen;

	movss	xmm0, DWORD PTR __real@3f800000
	divss	xmm0, DWORD PTR _flLen$[ebp]
	movss	DWORD PTR _flLen$[ebp], xmm0

; 257  : 			return Vector( x * flLen, y * flLen, z * flLen );

	mov	eax, DWORD PTR _this$[ebp]
	movss	xmm0, DWORD PTR [eax+8]
	mulss	xmm0, DWORD PTR _flLen$[ebp]
	push	ecx
	movss	DWORD PTR [esp], xmm0
	mov	ecx, DWORD PTR _this$[ebp]
	movss	xmm0, DWORD PTR [ecx+4]
	mulss	xmm0, DWORD PTR _flLen$[ebp]
	push	ecx
	movss	DWORD PTR [esp], xmm0
	mov	edx, DWORD PTR _this$[ebp]
	movss	xmm0, DWORD PTR [edx]
	mulss	xmm0, DWORD PTR _flLen$[ebp]
	push	ecx
	movss	DWORD PTR [esp], xmm0
	mov	ecx, DWORD PTR ___$ReturnUdt$[ebp]
	call	??0Vector@@QAE@MMM@Z			; Vector::Vector
	mov	eax, DWORD PTR ___$ReturnUdt$[ebp]
	jmp	SHORT $LN1@Normalize
$LN2@Normalize:

; 258  : 		}
; 259  : 
; 260  : 		return *this; // can't normalize

	mov	eax, DWORD PTR _this$[ebp]
	push	eax
	mov	ecx, DWORD PTR ___$ReturnUdt$[ebp]
	call	??0Vector@@QAE@ABV0@@Z			; Vector::Vector
	mov	eax, DWORD PTR ___$ReturnUdt$[ebp]
$LN1@Normalize:

; 261  : 	}

	pop	edi
	pop	esi
	pop	ebx
	mov	esp, ebp
	pop	ebp
	ret	4
?Normalize@Vector@@QBE?AV1@XZ ENDP			; Vector::Normalize
_TEXT	ENDS
; Function compile flags: /Odtp /ZI
; File d:\!diffusion 2020\source code 2022\client-server\game_shared\vector.h
;	COMDAT ??BVector@@QBEPBMXZ
_TEXT	SEGMENT
_this$ = -4						; size = 4
??BVector@@QBEPBMXZ PROC				; Vector::operator float const *, COMDAT
; _this$ = ecx

; 248  : 	operator const float *() const		{ return &x; } 

	push	ebp
	mov	ebp, esp
	sub	esp, 68					; 00000044H
	push	ebx
	push	esi
	push	edi
	mov	DWORD PTR _this$[ebp], ecx
	mov	eax, DWORD PTR _this$[ebp]
	pop	edi
	pop	esi
	pop	ebx
	mov	esp, ebp
	pop	ebp
	ret	0
??BVector@@QBEPBMXZ ENDP				; Vector::operator float const *
_TEXT	ENDS
; Function compile flags: /Odtp /ZI
; File d:\!diffusion 2020\source code 2022\client-server\game_shared\vector.h
;	COMDAT ??BVector@@QAEPAMXZ
_TEXT	SEGMENT
_this$ = -4						; size = 4
??BVector@@QAEPAMXZ PROC				; Vector::operator float *, COMDAT
; _this$ = ecx

; 247  : 	operator float *()				{ return &x; } // Vectors will now automatically convert to float * when needed

	push	ebp
	mov	ebp, esp
	sub	esp, 68					; 00000044H
	push	ebx
	push	esi
	push	edi
	mov	DWORD PTR _this$[ebp], ecx
	mov	eax, DWORD PTR _this$[ebp]
	pop	edi
	pop	esi
	pop	ebx
	mov	esp, ebp
	pop	ebp
	ret	0
??BVector@@QAEPAMXZ ENDP				; Vector::operator float *
_TEXT	ENDS
; Function compile flags: /Odtp /ZI
; File d:\!diffusion 2020\source code 2022\client-server\game_shared\vector.h
;	COMDAT ?Length@Vector@@QBEMXZ
_TEXT	SEGMENT
tv91 = -72						; size = 4
_this$ = -4						; size = 4
?Length@Vector@@QBEMXZ PROC				; Vector::Length, COMDAT
; _this$ = ecx

; 245  : 	inline float Length(void) const		{ return sqrt( x*x + y*y + z*z ); }

	push	ebp
	mov	ebp, esp
	sub	esp, 72					; 00000048H
	push	ebx
	push	esi
	push	edi
	mov	DWORD PTR _this$[ebp], ecx
	mov	eax, DWORD PTR _this$[ebp]
	mov	ecx, DWORD PTR _this$[ebp]
	movss	xmm0, DWORD PTR [eax]
	mulss	xmm0, DWORD PTR [ecx]
	mov	edx, DWORD PTR _this$[ebp]
	mov	eax, DWORD PTR _this$[ebp]
	movss	xmm1, DWORD PTR [edx+4]
	mulss	xmm1, DWORD PTR [eax+4]
	addss	xmm0, xmm1
	mov	ecx, DWORD PTR _this$[ebp]
	mov	edx, DWORD PTR _this$[ebp]
	movss	xmm1, DWORD PTR [ecx+8]
	mulss	xmm1, DWORD PTR [edx+8]
	addss	xmm0, xmm1
	cvtss2sd xmm0, xmm0
	sub	esp, 8
	movsd	QWORD PTR [esp], xmm0
	call	_sqrt
	add	esp, 8
	fstp	DWORD PTR tv91[ebp]
	fld	DWORD PTR tv91[ebp]
	pop	edi
	pop	esi
	pop	ebx
	mov	esp, ebp
	pop	ebp
	ret	0
?Length@Vector@@QBEMXZ ENDP				; Vector::Length
_TEXT	ENDS
; Function compile flags: /Odtp /ZI
; File d:\!diffusion 2020\source code 2022\client-server\game_shared\vector.h
;	COMDAT ??DVector@@QBE?AV0@M@Z
_TEXT	SEGMENT
_this$ = -4						; size = 4
___$ReturnUdt$ = 8					; size = 4
_fl$ = 12						; size = 4
??DVector@@QBE?AV0@M@Z PROC				; Vector::operator*, COMDAT
; _this$ = ecx

; 162  : 	inline Vector operator*(float fl) const		{ return Vector(x*fl, y*fl, z*fl);	   }

	push	ebp
	mov	ebp, esp
	sub	esp, 68					; 00000044H
	push	ebx
	push	esi
	push	edi
	mov	DWORD PTR _this$[ebp], ecx
	mov	eax, DWORD PTR _this$[ebp]
	movss	xmm0, DWORD PTR [eax+8]
	mulss	xmm0, DWORD PTR _fl$[ebp]
	push	ecx
	movss	DWORD PTR [esp], xmm0
	mov	ecx, DWORD PTR _this$[ebp]
	movss	xmm0, DWORD PTR [ecx+4]
	mulss	xmm0, DWORD PTR _fl$[ebp]
	push	ecx
	movss	DWORD PTR [esp], xmm0
	mov	edx, DWORD PTR _this$[ebp]
	movss	xmm0, DWORD PTR [edx]
	mulss	xmm0, DWORD PTR _fl$[ebp]
	push	ecx
	movss	DWORD PTR [esp], xmm0
	mov	ecx, DWORD PTR ___$ReturnUdt$[ebp]
	call	??0Vector@@QAE@MMM@Z			; Vector::Vector
	mov	eax, DWORD PTR ___$ReturnUdt$[ebp]
	pop	edi
	pop	esi
	pop	ebx
	mov	esp, ebp
	pop	ebp
	ret	8
??DVector@@QBE?AV0@M@Z ENDP				; Vector::operator*
_TEXT	ENDS
; Function compile flags: /Odtp /ZI
; File d:\!diffusion 2020\source code 2022\client-server\game_shared\vector.h
;	COMDAT ??GVector@@QBE?AV0@ABV0@@Z
_TEXT	SEGMENT
_this$ = -4						; size = 4
___$ReturnUdt$ = 8					; size = 4
_v$ = 12						; size = 4
??GVector@@QBE?AV0@ABV0@@Z PROC				; Vector::operator-, COMDAT
; _this$ = ecx

; 159  : 	inline Vector operator-(const Vector& v) const	{ return Vector(x-v.x, y-v.y, z-v.z);	   }

	push	ebp
	mov	ebp, esp
	sub	esp, 68					; 00000044H
	push	ebx
	push	esi
	push	edi
	mov	DWORD PTR _this$[ebp], ecx
	mov	eax, DWORD PTR _this$[ebp]
	mov	ecx, DWORD PTR _v$[ebp]
	movss	xmm0, DWORD PTR [eax+8]
	subss	xmm0, DWORD PTR [ecx+8]
	push	ecx
	movss	DWORD PTR [esp], xmm0
	mov	edx, DWORD PTR _this$[ebp]
	mov	eax, DWORD PTR _v$[ebp]
	movss	xmm0, DWORD PTR [edx+4]
	subss	xmm0, DWORD PTR [eax+4]
	push	ecx
	movss	DWORD PTR [esp], xmm0
	mov	ecx, DWORD PTR _this$[ebp]
	mov	edx, DWORD PTR _v$[ebp]
	movss	xmm0, DWORD PTR [ecx]
	subss	xmm0, DWORD PTR [edx]
	push	ecx
	movss	DWORD PTR [esp], xmm0
	mov	ecx, DWORD PTR ___$ReturnUdt$[ebp]
	call	??0Vector@@QAE@MMM@Z			; Vector::Vector
	mov	eax, DWORD PTR ___$ReturnUdt$[ebp]
	pop	edi
	pop	esi
	pop	ebx
	mov	esp, ebp
	pop	ebp
	ret	8
??GVector@@QBE?AV0@ABV0@@Z ENDP				; Vector::operator-
_TEXT	ENDS
; Function compile flags: /Odtp /ZI
; File d:\!diffusion 2020\source code 2022\client-server\game_shared\vector.h
;	COMDAT ??HVector@@QBE?AV0@ABV0@@Z
_TEXT	SEGMENT
_this$ = -4						; size = 4
___$ReturnUdt$ = 8					; size = 4
_v$ = 12						; size = 4
??HVector@@QBE?AV0@ABV0@@Z PROC				; Vector::operator+, COMDAT
; _this$ = ecx

; 158  : 	inline Vector operator+(const Vector& v) const	{ return Vector(x+v.x, y+v.y, z+v.z);	   }

	push	ebp
	mov	ebp, esp
	sub	esp, 68					; 00000044H
	push	ebx
	push	esi
	push	edi
	mov	DWORD PTR _this$[ebp], ecx
	mov	eax, DWORD PTR _this$[ebp]
	mov	ecx, DWORD PTR _v$[ebp]
	movss	xmm0, DWORD PTR [eax+8]
	addss	xmm0, DWORD PTR [ecx+8]
	push	ecx
	movss	DWORD PTR [esp], xmm0
	mov	edx, DWORD PTR _this$[ebp]
	mov	eax, DWORD PTR _v$[ebp]
	movss	xmm0, DWORD PTR [edx+4]
	addss	xmm0, DWORD PTR [eax+4]
	push	ecx
	movss	DWORD PTR [esp], xmm0
	mov	ecx, DWORD PTR _this$[ebp]
	mov	edx, DWORD PTR _v$[ebp]
	movss	xmm0, DWORD PTR [ecx]
	addss	xmm0, DWORD PTR [edx]
	push	ecx
	movss	DWORD PTR [esp], xmm0
	mov	ecx, DWORD PTR ___$ReturnUdt$[ebp]
	call	??0Vector@@QAE@MMM@Z			; Vector::Vector
	mov	eax, DWORD PTR ___$ReturnUdt$[ebp]
	pop	edi
	pop	esi
	pop	ebx
	mov	esp, ebp
	pop	ebp
	ret	8
??HVector@@QBE?AV0@ABV0@@Z ENDP				; Vector::operator+
_TEXT	ENDS
; Function compile flags: /Odtp /ZI
; File d:\!diffusion 2020\source code 2022\client-server\game_shared\vector.h
;	COMDAT ??9Vector@@QBEHABV0@@Z
_TEXT	SEGMENT
tv68 = -72						; size = 4
_this$ = -4						; size = 4
_v$ = 8							; size = 4
??9Vector@@QBEHABV0@@Z PROC				; Vector::operator!=, COMDAT
; _this$ = ecx

; 157  : 	inline int operator!=(const Vector& v) const	{ return !(*this==v);		   }

	push	ebp
	mov	ebp, esp
	sub	esp, 72					; 00000048H
	push	ebx
	push	esi
	push	edi
	mov	DWORD PTR _this$[ebp], ecx
	mov	eax, DWORD PTR _v$[ebp]
	push	eax
	mov	ecx, DWORD PTR _this$[ebp]
	call	??8Vector@@QBEHABV0@@Z			; Vector::operator==
	test	eax, eax
	jne	SHORT $LN3@operator
	mov	DWORD PTR tv68[ebp], 1
	jmp	SHORT $LN4@operator
$LN3@operator:
	mov	DWORD PTR tv68[ebp], 0
$LN4@operator:
	mov	eax, DWORD PTR tv68[ebp]
	pop	edi
	pop	esi
	pop	ebx
	mov	esp, ebp
	pop	ebp
	ret	4
??9Vector@@QBEHABV0@@Z ENDP				; Vector::operator!=
_TEXT	ENDS
; Function compile flags: /Odtp /ZI
; File d:\!diffusion 2020\source code 2022\client-server\game_shared\vector.h
;	COMDAT ??8Vector@@QBEHABV0@@Z
_TEXT	SEGMENT
tv73 = -72						; size = 4
_this$ = -4						; size = 4
_v$ = 8							; size = 4
??8Vector@@QBEHABV0@@Z PROC				; Vector::operator==, COMDAT
; _this$ = ecx

; 156  : 	inline int operator==(const Vector& v) const	{ return x==v.x && y==v.y && z==v.z;	   }

	push	ebp
	mov	ebp, esp
	sub	esp, 72					; 00000048H
	push	ebx
	push	esi
	push	edi
	mov	DWORD PTR _this$[ebp], ecx
	mov	eax, DWORD PTR _this$[ebp]
	mov	ecx, DWORD PTR _v$[ebp]
	movss	xmm0, DWORD PTR [eax]
	ucomiss	xmm0, DWORD PTR [ecx]
	lahf
	test	ah, 68					; 00000044H
	jp	SHORT $LN3@operator
	mov	edx, DWORD PTR _this$[ebp]
	mov	eax, DWORD PTR _v$[ebp]
	movss	xmm0, DWORD PTR [edx+4]
	ucomiss	xmm0, DWORD PTR [eax+4]
	lahf
	test	ah, 68					; 00000044H
	jp	SHORT $LN3@operator
	mov	ecx, DWORD PTR _this$[ebp]
	mov	edx, DWORD PTR _v$[ebp]
	movss	xmm0, DWORD PTR [ecx+8]
	ucomiss	xmm0, DWORD PTR [edx+8]
	lahf
	test	ah, 68					; 00000044H
	jp	SHORT $LN3@operator
	mov	DWORD PTR tv73[ebp], 1
	jmp	SHORT $LN4@operator
$LN3@operator:
	mov	DWORD PTR tv73[ebp], 0
$LN4@operator:
	mov	eax, DWORD PTR tv73[ebp]
	pop	edi
	pop	esi
	pop	ebx
	mov	esp, ebp
	pop	ebp
	ret	4
??8Vector@@QBEHABV0@@Z ENDP				; Vector::operator==
_TEXT	ENDS
; Function compile flags: /Odtp /ZI
; File d:\!diffusion 2020\source code 2022\client-server\game_shared\vector.h
;	COMDAT ??GVector@@QBE?AV0@XZ
_TEXT	SEGMENT
_this$ = -4						; size = 4
___$ReturnUdt$ = 8					; size = 4
??GVector@@QBE?AV0@XZ PROC				; Vector::operator-, COMDAT
; _this$ = ecx

; 155  : 	inline Vector operator-(void) const		{ return Vector(-x,-y,-z);		   }

	push	ebp
	mov	ebp, esp
	sub	esp, 68					; 00000044H
	push	ebx
	push	esi
	push	edi
	mov	DWORD PTR _this$[ebp], ecx
	mov	eax, DWORD PTR _this$[ebp]
	movss	xmm0, DWORD PTR [eax+8]
	xorps	xmm0, DWORD PTR __xmm@80000000800000008000000080000000
	push	ecx
	movss	DWORD PTR [esp], xmm0
	mov	ecx, DWORD PTR _this$[ebp]
	movss	xmm0, DWORD PTR [ecx+4]
	xorps	xmm0, DWORD PTR __xmm@80000000800000008000000080000000
	push	ecx
	movss	DWORD PTR [esp], xmm0
	mov	edx, DWORD PTR _this$[ebp]
	movss	xmm0, DWORD PTR [edx]
	xorps	xmm0, DWORD PTR __xmm@80000000800000008000000080000000
	push	ecx
	movss	DWORD PTR [esp], xmm0
	mov	ecx, DWORD PTR ___$ReturnUdt$[ebp]
	call	??0Vector@@QAE@MMM@Z			; Vector::Vector
	mov	eax, DWORD PTR ___$ReturnUdt$[ebp]
	pop	edi
	pop	esi
	pop	ebx
	mov	esp, ebp
	pop	ebp
	ret	4
??GVector@@QBE?AV0@XZ ENDP				; Vector::operator-
_TEXT	ENDS
; Function compile flags: /Odtp /ZI
; File d:\!diffusion 2020\source code 2022\client-server\game_shared\vector.h
;	COMDAT ??0Vector@@QAE@ABV0@@Z
_TEXT	SEGMENT
_this$ = -4						; size = 4
_v$ = 8							; size = 4
??0Vector@@QAE@ABV0@@Z PROC				; Vector::Vector, COMDAT
; _this$ = ecx

; 145  : 	inline Vector(const Vector& v)		{ x = v.x; y = v.y; z = v.z;		   }

	push	ebp
	mov	ebp, esp
	sub	esp, 68					; 00000044H
	push	ebx
	push	esi
	push	edi
	mov	DWORD PTR _this$[ebp], ecx
	mov	eax, DWORD PTR _this$[ebp]
	mov	ecx, DWORD PTR _v$[ebp]
	mov	edx, DWORD PTR [ecx]
	mov	DWORD PTR [eax], edx
	mov	eax, DWORD PTR _this$[ebp]
	mov	ecx, DWORD PTR _v$[ebp]
	mov	edx, DWORD PTR [ecx+4]
	mov	DWORD PTR [eax+4], edx
	mov	eax, DWORD PTR _this$[ebp]
	mov	ecx, DWORD PTR _v$[ebp]
	mov	edx, DWORD PTR [ecx+8]
	mov	DWORD PTR [eax+8], edx
	mov	eax, DWORD PTR _this$[ebp]
	pop	edi
	pop	esi
	pop	ebx
	mov	esp, ebp
	pop	ebp
	ret	4
??0Vector@@QAE@ABV0@@Z ENDP				; Vector::Vector
_TEXT	ENDS
; Function compile flags: /Odtp /ZI
; File d:\!diffusion 2020\source code 2022\client-server\game_shared\vector.h
;	COMDAT ??0Vector@@QAE@MMM@Z
_TEXT	SEGMENT
_this$ = -4						; size = 4
_X$ = 8							; size = 4
_Y$ = 12						; size = 4
_Z$ = 16						; size = 4
??0Vector@@QAE@MMM@Z PROC				; Vector::Vector, COMDAT
; _this$ = ecx

; 144  : 	inline Vector(float X, float Y, float Z)	{ x = X; y = Y; z = Z;                     }

	push	ebp
	mov	ebp, esp
	sub	esp, 68					; 00000044H
	push	ebx
	push	esi
	push	edi
	mov	DWORD PTR _this$[ebp], ecx
	mov	eax, DWORD PTR _this$[ebp]
	movss	xmm0, DWORD PTR _X$[ebp]
	movss	DWORD PTR [eax], xmm0
	mov	eax, DWORD PTR _this$[ebp]
	movss	xmm0, DWORD PTR _Y$[ebp]
	movss	DWORD PTR [eax+4], xmm0
	mov	eax, DWORD PTR _this$[ebp]
	movss	xmm0, DWORD PTR _Z$[ebp]
	movss	DWORD PTR [eax+8], xmm0
	mov	eax, DWORD PTR _this$[ebp]
	pop	edi
	pop	esi
	pop	ebx
	mov	esp, ebp
	pop	ebp
	ret	12					; 0000000cH
??0Vector@@QAE@MMM@Z ENDP				; Vector::Vector
_TEXT	ENDS
; Function compile flags: /Odtp /ZI
; File d:\!diffusion 2020\source code 2022\client-server\game_shared\vector.h
;	COMDAT ??0Vector@@QAE@XZ
_TEXT	SEGMENT
_this$ = -4						; size = 4
??0Vector@@QAE@XZ PROC					; Vector::Vector, COMDAT
; _this$ = ecx

; 143  : 	inline Vector(void)				{ }

	push	ebp
	mov	ebp, esp
	sub	esp, 68					; 00000044H
	push	ebx
	push	esi
	push	edi
	mov	DWORD PTR _this$[ebp], ecx
	mov	eax, DWORD PTR _this$[ebp]
	pop	edi
	pop	esi
	pop	ebx
	mov	esp, ebp
	pop	ebp
	ret	0
??0Vector@@QAE@XZ ENDP					; Vector::Vector
_TEXT	ENDS
; Function compile flags: /Odtp /ZI
; File c:\program files (x86)\windows kits\10\include\10.0.10240.0\ucrt\stdio.h
;	COMDAT _sprintf
_TEXT	SEGMENT
__ArgList$ = -8						; size = 4
__Result$ = -4						; size = 4
__Buffer$ = 8						; size = 4
__Format$ = 12						; size = 4
_sprintf PROC						; COMDAT

; 1776 : {

	push	ebp
	mov	ebp, esp
	sub	esp, 72					; 00000048H
	push	ebx
	push	esi
	push	edi

; 1777 :     int _Result;
; 1778 :     va_list _ArgList;
; 1779 :     __crt_va_start(_ArgList, _Format);

	call	??$__vcrt_va_start_verify_argument_type@QBD@@YAXXZ ; __vcrt_va_start_verify_argument_type<char const * const>
	lea	eax, DWORD PTR __Format$[ebp+4]
	mov	DWORD PTR __ArgList$[ebp], eax

; 1780 : 
; 1781 :     #pragma warning(push)
; 1782 :     #pragma warning(disable: 4996) // Deprecation
; 1783 :     _Result = _vsprintf_l(_Buffer, _Format, NULL, _ArgList);

	mov	eax, DWORD PTR __ArgList$[ebp]
	push	eax
	push	0
	mov	ecx, DWORD PTR __Format$[ebp]
	push	ecx
	mov	edx, DWORD PTR __Buffer$[ebp]
	push	edx
	call	__vsprintf_l
	add	esp, 16					; 00000010H
	mov	DWORD PTR __Result$[ebp], eax

; 1784 :     #pragma warning(pop)
; 1785 : 
; 1786 :     __crt_va_end(_ArgList);

	mov	DWORD PTR __ArgList$[ebp], 0

; 1787 :     return _Result;

	mov	eax, DWORD PTR __Result$[ebp]

; 1788 : }

	pop	edi
	pop	esi
	pop	ebx
	mov	esp, ebp
	pop	ebp
	ret	0
_sprintf ENDP
_TEXT	ENDS
; Function compile flags: /Odtp /ZI
; File c:\program files (x86)\windows kits\10\include\10.0.10240.0\ucrt\stdio.h
;	COMDAT __vsprintf_l
_TEXT	SEGMENT
__Buffer$ = 8						; size = 4
__Format$ = 12						; size = 4
__Locale$ = 16						; size = 4
__ArgList$ = 20						; size = 4
__vsprintf_l PROC					; COMDAT

; 1455 : {

	push	ebp
	mov	ebp, esp
	sub	esp, 64					; 00000040H
	push	ebx
	push	esi
	push	edi

; 1456 :     #pragma warning(push)
; 1457 :     #pragma warning(disable: 4996) // Deprecation
; 1458 :     return _vsnprintf_l(_Buffer, (size_t)-1, _Format, _Locale, _ArgList);

	mov	eax, DWORD PTR __ArgList$[ebp]
	push	eax
	mov	ecx, DWORD PTR __Locale$[ebp]
	push	ecx
	mov	edx, DWORD PTR __Format$[ebp]
	push	edx
	push	-1
	mov	eax, DWORD PTR __Buffer$[ebp]
	push	eax
	call	__vsnprintf_l
	add	esp, 20					; 00000014H

; 1459 :     #pragma warning(pop)
; 1460 : }

	pop	edi
	pop	esi
	pop	ebx
	mov	esp, ebp
	pop	ebp
	ret	0
__vsprintf_l ENDP
_TEXT	ENDS
; Function compile flags: /Odtp /ZI
; File c:\program files (x86)\windows kits\10\include\10.0.10240.0\ucrt\stdio.h
;	COMDAT __vsnprintf_l
_TEXT	SEGMENT
tv74 = -72						; size = 4
__Result$ = -4						; size = 4
__Buffer$ = 8						; size = 4
__BufferCount$ = 12					; size = 4
__Format$ = 16						; size = 4
__Locale$ = 20						; size = 4
__ArgList$ = 24						; size = 4
__vsnprintf_l PROC					; COMDAT

; 1385 : {

	push	ebp
	mov	ebp, esp
	sub	esp, 72					; 00000048H
	push	ebx
	push	esi
	push	edi

; 1386 :     int const _Result = __stdio_common_vsprintf(

	mov	eax, DWORD PTR __ArgList$[ebp]
	push	eax
	mov	ecx, DWORD PTR __Locale$[ebp]
	push	ecx
	mov	edx, DWORD PTR __Format$[ebp]
	push	edx
	mov	eax, DWORD PTR __BufferCount$[ebp]
	push	eax
	mov	ecx, DWORD PTR __Buffer$[ebp]
	push	ecx
	call	___local_stdio_printf_options
	mov	edx, DWORD PTR [eax]
	or	edx, 1
	mov	eax, DWORD PTR [eax+4]
	push	eax
	push	edx
	call	___stdio_common_vsprintf
	add	esp, 28					; 0000001cH
	mov	DWORD PTR __Result$[ebp], eax

; 1387 :         _CRT_INTERNAL_LOCAL_PRINTF_OPTIONS | _CRT_INTERNAL_PRINTF_LEGACY_VSPRINTF_NULL_TERMINATION,
; 1388 :         _Buffer, _BufferCount, _Format, _Locale, _ArgList);
; 1389 : 
; 1390 :     return _Result < 0 ? -1 : _Result;

	cmp	DWORD PTR __Result$[ebp], 0
	jge	SHORT $LN3@vsnprintf_
	mov	DWORD PTR tv74[ebp], -1
	jmp	SHORT $LN4@vsnprintf_
$LN3@vsnprintf_:
	mov	eax, DWORD PTR __Result$[ebp]
	mov	DWORD PTR tv74[ebp], eax
$LN4@vsnprintf_:
	mov	eax, DWORD PTR tv74[ebp]

; 1391 : }

	pop	edi
	pop	esi
	pop	ebx
	mov	esp, ebp
	pop	ebp
	ret	0
__vsnprintf_l ENDP
_TEXT	ENDS
; Function compile flags: /Odtp /ZI
; File c:\program files (x86)\microsoft visual studio 14.0\vc\include\vadefs.h
;	COMDAT ??$__vcrt_va_start_verify_argument_type@QBD@@YAXXZ
_TEXT	SEGMENT
??$__vcrt_va_start_verify_argument_type@QBD@@YAXXZ PROC	; __vcrt_va_start_verify_argument_type<char const * const>, COMDAT

; 144  :         {

	push	ebp
	mov	ebp, esp
	sub	esp, 64					; 00000040H
	push	ebx
	push	esi
	push	edi

; 145  :             static_assert(!__vcrt_va_list_is_reference<_Ty>::__the_value, "va_start argument must not have reference type and must not be parenthesized");
; 146  :         }

	pop	edi
	pop	esi
	pop	ebx
	mov	esp, ebp
	pop	ebp
	ret	0
??$__vcrt_va_start_verify_argument_type@QBD@@YAXXZ ENDP	; __vcrt_va_start_verify_argument_type<char const * const>
_TEXT	ENDS
; Function compile flags: /Odtp /ZI
; File c:\program files (x86)\windows kits\10\include\10.0.10240.0\ucrt\corecrt_stdio_config.h
;	COMDAT ___local_stdio_printf_options
_TEXT	SEGMENT
___local_stdio_printf_options PROC			; COMDAT

; 73   : {

	push	ebp
	mov	ebp, esp
	sub	esp, 64					; 00000040H
	push	ebx
	push	esi
	push	edi

; 74   :     static unsigned __int64 _OptionsStorage;
; 75   :     return &_OptionsStorage;

	mov	eax, OFFSET ?_OptionsStorage@?1??__local_stdio_printf_options@@9@4_KA ; `__local_stdio_printf_options'::`2'::_OptionsStorage

; 76   : }

	pop	edi
	pop	esi
	pop	ebx
	mov	esp, ebp
	pop	ebp
	ret	0
___local_stdio_printf_options ENDP
_TEXT	ENDS
; Function compile flags: /Odtp /ZI
; File d:\!diffusion 2020\source code 2022\client-server\server\weapons\weapon_rpg.cpp
;	COMDAT ?__empty_global_delete@@YAXPAXI@Z
_TEXT	SEGMENT
___formal$ = 8						; size = 4
___formal$ = 12						; size = 4
?__empty_global_delete@@YAXPAXI@Z PROC			; __empty_global_delete, COMDAT

; 1132 : LINK_ENTITY_TO_CLASS( ammo_rpgclip, CRpgAmmo );

	push	ebp
	mov	ebp, esp
	sub	esp, 64					; 00000040H
	push	ebx
	push	esi
	push	edi
	pop	edi
	pop	esi
	pop	ebx
	mov	esp, ebp
	pop	ebp
	ret	0
?__empty_global_delete@@YAXPAXI@Z ENDP			; __empty_global_delete
_TEXT	ENDS
; Function compile flags: /Odtp /ZI
; File d:\!diffusion 2020\source code 2022\client-server\server\weapons\weapon_rpg.cpp
;	COMDAT ?__empty_global_delete@@YAXPAX@Z
_TEXT	SEGMENT
___formal$ = 8						; size = 4
?__empty_global_delete@@YAXPAX@Z PROC			; __empty_global_delete, COMDAT

; 1132 : LINK_ENTITY_TO_CLASS( ammo_rpgclip, CRpgAmmo );

	push	ebp
	mov	ebp, esp
	sub	esp, 64					; 00000040H
	push	ebx
	push	esi
	push	edi
	pop	edi
	pop	esi
	pop	ebx
	mov	esp, ebp
	pop	ebp
	ret	0
?__empty_global_delete@@YAXPAX@Z ENDP			; __empty_global_delete
_TEXT	ENDS
; Function compile flags: /Odtp /ZI
;	COMDAT ??__G@YGXPAX0IIP6EPAX00@Z@Z
_TEXT	SEGMENT
tv66 = -68						; size = 4
___t$ = 8						; size = 4
___u$ = 12						; size = 4
___s$ = 16						; size = 4
___n$ = 20						; size = 4
___f$ = 24						; size = 4
??__G@YGXPAX0IIP6EPAX00@Z@Z PROC			; `vector copy constructor iterator', COMDAT
	push	ebp
	mov	ebp, esp
	sub	esp, 68					; 00000044H
	push	ebx
	push	esi
	push	edi
$LN2@vector:
	mov	eax, DWORD PTR ___n$[ebp]
	mov	DWORD PTR tv66[ebp], eax
	mov	ecx, DWORD PTR ___n$[ebp]
	sub	ecx, 1
	mov	DWORD PTR ___n$[ebp], ecx
	cmp	DWORD PTR tv66[ebp], 0
	jbe	SHORT $LN1@vector
	mov	eax, DWORD PTR ___u$[ebp]
	push	eax
	mov	ecx, DWORD PTR ___t$[ebp]
	call	DWORD PTR ___f$[ebp]
	mov	eax, DWORD PTR ___t$[ebp]
	add	eax, DWORD PTR ___s$[ebp]
	mov	DWORD PTR ___t$[ebp], eax
	mov	eax, DWORD PTR ___u$[ebp]
	add	eax, DWORD PTR ___s$[ebp]
	mov	DWORD PTR ___u$[ebp], eax
	jmp	SHORT $LN2@vector
$LN1@vector:
	pop	edi
	pop	esi
	pop	ebx
	mov	esp, ebp
	pop	ebp
	ret	20					; 00000014H
??__G@YGXPAX0IIP6EPAX00@Z@Z ENDP			; `vector copy constructor iterator'
_TEXT	ENDS
; Function compile flags: /Odtp /ZI
;	COMDAT ??_H@YGXPAXIIP6EPAX0@Z@Z
_TEXT	SEGMENT
tv66 = -68						; size = 4
___t$ = 8						; size = 4
___s$ = 12						; size = 4
___n$ = 16						; size = 4
___f$ = 20						; size = 4
??_H@YGXPAXIIP6EPAX0@Z@Z PROC				; `vector constructor iterator', COMDAT
	push	ebp
	mov	ebp, esp
	sub	esp, 68					; 00000044H
	push	ebx
	push	esi
	push	edi
$LN2@vector:
	mov	eax, DWORD PTR ___n$[ebp]
	mov	DWORD PTR tv66[ebp], eax
	mov	ecx, DWORD PTR ___n$[ebp]
	sub	ecx, 1
	mov	DWORD PTR ___n$[ebp], ecx
	cmp	DWORD PTR tv66[ebp], 0
	jbe	SHORT $LN1@vector
	mov	ecx, DWORD PTR ___t$[ebp]
	call	DWORD PTR ___f$[ebp]
	mov	eax, DWORD PTR ___t$[ebp]
	add	eax, DWORD PTR ___s$[ebp]
	mov	DWORD PTR ___t$[ebp], eax
	jmp	SHORT $LN2@vector
$LN1@vector:
	pop	edi
	pop	esi
	pop	ebx
	mov	esp, ebp
	pop	ebp
	ret	16					; 00000010H
??_H@YGXPAXIIP6EPAX0@Z@Z ENDP				; `vector constructor iterator'
_TEXT	ENDS
END
