; Listing generated by Microsoft (R) Optimizing Compiler Version 19.00.24247.2 

	TITLE	D:\!DIFFUSION 2020\source code 2022\client-server\server\weapons\weapon_rpg.cpp
	.686P
	.XMM
	include listing.inc
	.model	flat

INCLUDELIB LIBCMT
INCLUDELIB OLDNAMES

PUBLIC	?m_DataMap@CRpg@@2Udatamap_s@@A			; CRpg::m_DataMap
PUBLIC	??_C@_04DJMHHIGC@CRpg?$AA@			; `string'
PUBLIC	??_C@_0O@COLFMLPL@m_fSpotActive?$AA@		; `string'
PUBLIC	??_C@_0BB@JNCPOHBI@m_cActiveRockets?$AA@	; `string'
PUBLIC	?m_DataMap@CRpgRocket@@2Udatamap_s@@A		; CRpgRocket::m_DataMap
PUBLIC	??_C@_0L@DGKMIAEI@CRpgRocket?$AA@		; `string'
PUBLIC	??_C@_0P@DCNADFJB@m_flIgniteTime?$AA@		; `string'
PUBLIC	??_C@_0M@PEIEPJFC@m_pLauncher?$AA@		; `string'
PUBLIC	?m_DataMap@CRoboRocket2@@2Udatamap_s@@A		; CRoboRocket2::m_DataMap
PUBLIC	??_C@_0N@NGHBIJO@CRoboRocket2?$AA@		; `string'
;	COMDAT ??_C@_0N@NGHBIJO@CRoboRocket2?$AA@
CONST	SEGMENT
??_C@_0N@NGHBIJO@CRoboRocket2?$AA@ DB 'CRoboRocket2', 00H ; `string'
CONST	ENDS
;	COMDAT ??_C@_0M@PEIEPJFC@m_pLauncher?$AA@
CONST	SEGMENT
??_C@_0M@PEIEPJFC@m_pLauncher?$AA@ DB 'm_pLauncher', 00H ; `string'
CONST	ENDS
;	COMDAT ??_C@_0P@DCNADFJB@m_flIgniteTime?$AA@
CONST	SEGMENT
??_C@_0P@DCNADFJB@m_flIgniteTime?$AA@ DB 'm_flIgniteTime', 00H ; `string'
CONST	ENDS
;	COMDAT ??_C@_0L@DGKMIAEI@CRpgRocket?$AA@
CONST	SEGMENT
??_C@_0L@DGKMIAEI@CRpgRocket?$AA@ DB 'CRpgRocket', 00H	; `string'
CONST	ENDS
;	COMDAT ??_C@_0BB@JNCPOHBI@m_cActiveRockets?$AA@
CONST	SEGMENT
??_C@_0BB@JNCPOHBI@m_cActiveRockets?$AA@ DB 'm_cActiveRockets', 00H ; `string'
CONST	ENDS
;	COMDAT ??_C@_0O@COLFMLPL@m_fSpotActive?$AA@
CONST	SEGMENT
??_C@_0O@COLFMLPL@m_fSpotActive?$AA@ DB 'm_fSpotActive', 00H ; `string'
CONST	ENDS
;	COMDAT ??_C@_04DJMHHIGC@CRpg?$AA@
CONST	SEGMENT
??_C@_04DJMHHIGC@CRpg?$AA@ DB 'CRpg', 00H		; `string'
CONST	ENDS
_DATA	SEGMENT
?m_DataMap@CRpg@@2Udatamap_s@@A DD 00H			; CRpg::m_DataMap
	DD	00H
	DD	FLAT:??_C@_04DJMHHIGC@CRpg?$AA@
	DD	00H
?dataDesc@?1???$DataMapInit@VCRpg@@@@YAPAUdatamap_s@@PAVCRpg@@@Z@4PAUtypedescription_s@@A DD 012H ; `DataMapInit<CRpg>'::`2'::dataDesc
	DD	00H
	DD	00H
	DW	00H
	DW	00H
	DD	00H
	DD	00H
	DD	0aH
	DD	FLAT:??_C@_0O@COLFMLPL@m_fSpotActive?$AA@
	DD	078cH
	DW	01H
	DW	02H
	DD	00H
	DD	00H
	DD	0aH
	DD	FLAT:??_C@_0BB@JNCPOHBI@m_cActiveRockets?$AA@
	DD	0788H
	DW	01H
	DW	02H
	DD	00H
	DD	00H
?m_DataMap@CRpgRocket@@2Udatamap_s@@A DD 00H		; CRpgRocket::m_DataMap
	DD	00H
	DD	FLAT:??_C@_0L@DGKMIAEI@CRpgRocket?$AA@
	DD	00H
?dataDesc@?1???$DataMapInit@VCRpgRocket@@@@YAPAUdatamap_s@@PAVCRpgRocket@@@Z@4PAUtypedescription_s@@A DD 012H ; `DataMapInit<CRpgRocket>'::`2'::dataDesc
	DD	00H
	DD	00H
	DW	00H
	DW	00H
	DD	00H
	DD	00H
	DD	0fH
	DD	FLAT:??_C@_0P@DCNADFJB@m_flIgniteTime?$AA@
	DD	09d8H
	DW	01H
	DW	02H
	DD	00H
	DD	00H
	DD	03H
	DD	FLAT:??_C@_0M@PEIEPJFC@m_pLauncher?$AA@
	DD	09dcH
	DW	01H
	DW	02H
	DD	00H
	DD	00H
	DD	012H
	ORG $+140
?m_DataMap@CRoboRocket2@@2Udatamap_s@@A DD 00H		; CRoboRocket2::m_DataMap
	DD	00H
	DD	FLAT:??_C@_0N@NGHBIJO@CRoboRocket2?$AA@
	DD	00H
?dataDesc@?1???$DataMapInit@VCRoboRocket2@@@@YAPAUdatamap_s@@PAVCRoboRocket2@@@Z@4PAUtypedescription_s@@A DD 012H ; `DataMapInit<CRoboRocket2>'::`2'::dataDesc
	DD	00H
	DD	00H
	DW	00H
	DW	00H
	DD	00H
	DD	00H
	DD	0fH
	DD	FLAT:??_C@_0P@DCNADFJB@m_flIgniteTime?$AA@
	DD	09d8H
	DW	01H
	DW	02H
	DD	00H
	DD	00H
	DD	012H
	ORG $+92
_DATA	ENDS
PUBLIC	??_H@YGXPAXIIP6EPAX0@Z@Z			; `vector constructor iterator'
PUBLIC	??__G@YGXPAX0IIP6EPAX00@Z@Z			; `vector copy constructor iterator'
PUBLIC	?__empty_global_delete@@YAXPAX@Z		; __empty_global_delete
PUBLIC	?__empty_global_delete@@YAXPAXI@Z		; __empty_global_delete
PUBLIC	___local_stdio_printf_options
PUBLIC	??$__vcrt_va_start_verify_argument_type@QBD@@YAXXZ ; __vcrt_va_start_verify_argument_type<char const * const>
PUBLIC	__vsnprintf_l
PUBLIC	__vsprintf_l
PUBLIC	_sprintf
PUBLIC	??0Vector@@QAE@XZ				; Vector::Vector
PUBLIC	??0Vector@@QAE@MMM@Z				; Vector::Vector
PUBLIC	??0Vector@@QAE@ABV0@@Z				; Vector::Vector
PUBLIC	??GVector@@QBE?AV0@XZ				; Vector::operator-
PUBLIC	??8Vector@@QBEHABV0@@Z				; Vector::operator==
PUBLIC	??9Vector@@QBEHABV0@@Z				; Vector::operator!=
PUBLIC	??HVector@@QBE?AV0@ABV0@@Z			; Vector::operator+
PUBLIC	??GVector@@QBE?AV0@ABV0@@Z			; Vector::operator-
PUBLIC	??DVector@@QBE?AV0@M@Z				; Vector::operator*
PUBLIC	?Length@Vector@@QBEMXZ				; Vector::Length
PUBLIC	??BVector@@QAEPAMXZ				; Vector::operator float *
PUBLIC	??BVector@@QBEPBMXZ				; Vector::operator float const *
PUBLIC	?Normalize@Vector@@QBE?AV1@XZ			; Vector::Normalize
PUBLIC	?DotProduct@@YAMABVVector@@0@Z			; DotProduct
PUBLIC	??0gametrace_s@@QAE@XZ				; gametrace_s::gametrace_s
PUBLIC	?MESSAGE_BEGIN@@YAXHHPBMPAUedict_s@@@Z		; MESSAGE_BEGIN
PUBLIC	?GET_PRIVATE@@YAPAXPAUedict_s@@@Z		; GET_PRIVATE
PUBLIC	??2@YAPAXIPAX@Z					; operator new
PUBLIC	?UtlMemory_CalcNewAllocationCount@@YAHHHHH@Z	; UtlMemory_CalcNewAllocationCount
PUBLIC	??0CDatadescGeneratedNameHolder@@QAE@PBD@Z	; CDatadescGeneratedNameHolder::CDatadescGeneratedNameHolder
PUBLIC	??1CDatadescGeneratedNameHolder@@QAE@XZ		; CDatadescGeneratedNameHolder::~CDatadescGeneratedNameHolder
PUBLIC	?GenerateName@CDatadescGeneratedNameHolder@@QAEPBDPBD@Z ; CDatadescGeneratedNameHolder::GenerateName
PUBLIC	??0?$CUtlArray@PADV?$CUtlMemory@PADH@@@@QAE@HH@Z ; CUtlArray<char *,CUtlMemory<char *,int> >::CUtlArray<char *,CUtlMemory<char *,int> >
PUBLIC	??1?$CUtlArray@PADV?$CUtlMemory@PADH@@@@QAE@XZ	; CUtlArray<char *,CUtlMemory<char *,int> >::~CUtlArray<char *,CUtlMemory<char *,int> >
PUBLIC	??A?$CUtlArray@PADV?$CUtlMemory@PADH@@@@QAEAAPADH@Z ; CUtlArray<char *,CUtlMemory<char *,int> >::operator[]
PUBLIC	?Element@?$CUtlArray@PADV?$CUtlMemory@PADH@@@@QAEAAPADH@Z ; CUtlArray<char *,CUtlMemory<char *,int> >::Element
PUBLIC	?Base@?$CUtlArray@PADV?$CUtlMemory@PADH@@@@QAEPAPADXZ ; CUtlArray<char *,CUtlMemory<char *,int> >::Base
PUBLIC	?Count@?$CUtlArray@PADV?$CUtlMemory@PADH@@@@QBEHXZ ; CUtlArray<char *,CUtlMemory<char *,int> >::Count
PUBLIC	?IsValidIndex@?$CUtlArray@PADV?$CUtlMemory@PADH@@@@QBE_NH@Z ; CUtlArray<char *,CUtlMemory<char *,int> >::IsValidIndex
PUBLIC	?AddToTail@?$CUtlArray@PADV?$CUtlMemory@PADH@@@@QAEHABQAD@Z ; CUtlArray<char *,CUtlMemory<char *,int> >::AddToTail
PUBLIC	?InsertBefore@?$CUtlArray@PADV?$CUtlMemory@PADH@@@@QAEHHABQAD@Z ; CUtlArray<char *,CUtlMemory<char *,int> >::InsertBefore
PUBLIC	?RemoveAll@?$CUtlArray@PADV?$CUtlMemory@PADH@@@@QAEXXZ ; CUtlArray<char *,CUtlMemory<char *,int> >::RemoveAll
PUBLIC	?Purge@?$CUtlArray@PADV?$CUtlMemory@PADH@@@@QAEXXZ ; CUtlArray<char *,CUtlMemory<char *,int> >::Purge
PUBLIC	?GrowVector@?$CUtlArray@PADV?$CUtlMemory@PADH@@@@IAEXH@Z ; CUtlArray<char *,CUtlMemory<char *,int> >::GrowVector
PUBLIC	?ShiftElementsRight@?$CUtlArray@PADV?$CUtlMemory@PADH@@@@IAEXHH@Z ; CUtlArray<char *,CUtlMemory<char *,int> >::ShiftElementsRight
PUBLIC	??0?$CUtlMemory@PADH@@QAE@HH@Z			; CUtlMemory<char *,int>::CUtlMemory<char *,int>
PUBLIC	??1?$CUtlMemory@PADH@@QAE@XZ			; CUtlMemory<char *,int>::~CUtlMemory<char *,int>
PUBLIC	??A?$CUtlMemory@PADH@@QAEAAPADH@Z		; CUtlMemory<char *,int>::operator[]
PUBLIC	?IsIdxValid@?$CUtlMemory@PADH@@QBE_NH@Z		; CUtlMemory<char *,int>::IsIdxValid
PUBLIC	?Base@?$CUtlMemory@PADH@@QAEPAPADXZ		; CUtlMemory<char *,int>::Base
PUBLIC	?NumAllocated@?$CUtlMemory@PADH@@QBEHXZ		; CUtlMemory<char *,int>::NumAllocated
PUBLIC	?Grow@?$CUtlMemory@PADH@@QAEXH@Z		; CUtlMemory<char *,int>::Grow
PUBLIC	?Purge@?$CUtlMemory@PADH@@QAEXXZ		; CUtlMemory<char *,int>::Purge
PUBLIC	?IsExternallyAllocated@?$CUtlMemory@PADH@@QBE_NXZ ; CUtlMemory<char *,int>::IsExternallyAllocated
PUBLIC	?IsReadOnly@?$CUtlMemory@PADH@@QBE_NXZ		; CUtlMemory<char *,int>::IsReadOnly
PUBLIC	?ValidateGrowSize@?$CUtlMemory@PADH@@IAEXXZ	; CUtlMemory<char *,int>::ValidateGrowSize
PUBLIC	?ResetDbgInfo@?$CUtlArray@PADV?$CUtlMemory@PADH@@@@IAEXXZ ; CUtlArray<char *,CUtlMemory<char *,int> >::ResetDbgInfo
PUBLIC	?MESSAGE_BEGIN@@YAXHHPBMPAUentvars_s@@@Z	; MESSAGE_BEGIN
PUBLIC	??0IEntityFactory@@QAE@XZ			; IEntityFactory::IEntityFactory
PUBLIC	?ENT@@YAPAUedict_s@@PBUentvars_s@@@Z		; ENT
PUBLIC	?ENT@@YAPAUedict_s@@H@Z				; ENT
PUBLIC	?OFFSET@@YAHPBUedict_s@@@Z			; OFFSET
PUBLIC	?OFFSET@@YAHPAUentvars_s@@@Z			; OFFSET
PUBLIC	?VARS@@YAPAUentvars_s@@PAUedict_s@@@Z		; VARS
PUBLIC	?ENTINDEX@@YAHPAUedict_s@@@Z			; ENTINDEX
PUBLIC	?FNullEnt@@YAHH@Z				; FNullEnt
PUBLIC	?FNullEnt@@YAHPAUentvars_s@@@Z			; FNullEnt
PUBLIC	?FStrEq@@YAHPBD0@Z				; FStrEq
PUBLIC	?FClassnameIs@@YAHPAUentvars_s@@PBD@Z		; FClassnameIs
PUBLIC	?EMIT_SOUND@@YAXPAUedict_s@@HPBDMM@Z		; EMIT_SOUND
PUBLIC	?STOP_SOUND@@YAXPAUedict_s@@HPBD@Z		; STOP_SOUND
PUBLIC	??0WayPoint_t@@QAE@XZ				; WayPoint_t::WayPoint_t
PUBLIC	?Get@EHANDLE@@QAEPAUedict_s@@XZ			; EHANDLE::Get
PUBLIC	??BEHANDLE@@QAEHXZ				; EHANDLE::operator int
PUBLIC	??4EHANDLE@@QAEPAVCBaseEntity@@PAV1@@Z		; EHANDLE::operator=
PUBLIC	??CEHANDLE@@QAEPAVCBaseEntity@@XZ		; EHANDLE::operator->
PUBLIC	?GetClassname@CBaseEntity@@QAEPBDXZ		; CBaseEntity::GetClassname
PUBLIC	?SetClassname@CBaseEntity@@QAEXPBD@Z		; CBaseEntity::SetClassname
PUBLIC	?Spawn@CBaseEntity@@UAEXXZ			; CBaseEntity::Spawn
PUBLIC	?Precache@CBaseEntity@@UAEXXZ			; CBaseEntity::Precache
PUBLIC	?KeyValue@CBaseEntity@@UAEXPAUKeyValueData_s@@@Z ; CBaseEntity::KeyValue
PUBLIC	?ObjectCaps@CBaseEntity@@UAEHXZ			; CBaseEntity::ObjectCaps
PUBLIC	?Activate@CBaseEntity@@UAEXXZ			; CBaseEntity::Activate
PUBLIC	?OnChangeLevel@CBaseEntity@@UAEXXZ		; CBaseEntity::OnChangeLevel
PUBLIC	?OnTeleport@CBaseEntity@@UAEXXZ			; CBaseEntity::OnTeleport
PUBLIC	?PortalSleep@CBaseEntity@@UAEXM@Z		; CBaseEntity::PortalSleep
PUBLIC	?StartMessage@CBaseEntity@@UAEXPAVCBasePlayer@@@Z ; CBaseEntity::StartMessage
PUBLIC	?GetPosition@CBaseEntity@@UAEMXZ		; CBaseEntity::GetPosition
PUBLIC	?OnChangeParent@CBaseEntity@@UAEXXZ		; CBaseEntity::OnChangeParent
PUBLIC	?OnClearParent@CBaseEntity@@UAEXXZ		; CBaseEntity::OnClearParent
PUBLIC	?OnRemove@CBaseEntity@@UAEXXZ			; CBaseEntity::OnRemove
PUBLIC	?Classify@CBaseEntity@@UAEHXZ			; CBaseEntity::Classify
PUBLIC	?DeathNotice@CBaseEntity@@UAEXPAUentvars_s@@@Z	; CBaseEntity::DeathNotice
PUBLIC	?IsRigidBody@CBaseEntity@@UAEHXZ		; CBaseEntity::IsRigidBody
PUBLIC	?GetState@CBaseEntity@@UAE?AW4STATE@@XZ		; CBaseEntity::GetState
PUBLIC	?GetState@CBaseEntity@@UAE?AW4STATE@@PAV1@@Z	; CBaseEntity::GetState
PUBLIC	?BloodColor@CBaseEntity@@UAEHXZ			; CBaseEntity::BloodColor
PUBLIC	?IsTriggered@CBaseEntity@@UAEHPAV1@@Z		; CBaseEntity::IsTriggered
PUBLIC	?MyMonsterPointer@CBaseEntity@@UAEPAVCBaseMonster@@XZ ; CBaseEntity::MyMonsterPointer
PUBLIC	?MySquadMonsterPointer@CBaseEntity@@UAEPAVCSquadMonster@@XZ ; CBaseEntity::MySquadMonsterPointer
PUBLIC	?GetToggleState@CBaseEntity@@UAEHXZ		; CBaseEntity::GetToggleState
PUBLIC	?AddPoints@CBaseEntity@@UAEXHH@Z		; CBaseEntity::AddPoints
PUBLIC	?AddPointsToTeam@CBaseEntity@@UAEXHH@Z		; CBaseEntity::AddPointsToTeam
PUBLIC	?AddPlayerItem@CBaseEntity@@UAEHPAVCBasePlayerItem@@@Z ; CBaseEntity::AddPlayerItem
PUBLIC	?RemovePlayerItem@CBaseEntity@@UAEHPAVCBasePlayerItem@@@Z ; CBaseEntity::RemovePlayerItem
PUBLIC	?GiveAmmo@CBaseEntity@@UAEHHPADH@Z		; CBaseEntity::GiveAmmo
PUBLIC	?GetDelay@CBaseEntity@@UAEMXZ			; CBaseEntity::GetDelay
PUBLIC	?IsMoving@CBaseEntity@@UAEHXZ			; CBaseEntity::IsMoving
PUBLIC	?OverrideReset@CBaseEntity@@UAEXXZ		; CBaseEntity::OverrideReset
PUBLIC	?TransferReset@CBaseEntity@@UAEXXZ		; CBaseEntity::TransferReset
PUBLIC	?SetToggleState@CBaseEntity@@UAEXH@Z		; CBaseEntity::SetToggleState
PUBLIC	?StartSneaking@CBaseEntity@@UAEXXZ		; CBaseEntity::StartSneaking
PUBLIC	?StopSneaking@CBaseEntity@@UAEXXZ		; CBaseEntity::StopSneaking
PUBLIC	?OnControls@CBaseEntity@@UAEHPAV1@@Z		; CBaseEntity::OnControls
PUBLIC	?IsSneaking@CBaseEntity@@UAEHXZ			; CBaseEntity::IsSneaking
PUBLIC	?IsAlive@CBaseEntity@@UAEHXZ			; CBaseEntity::IsAlive
PUBLIC	?IsBSPModel@CBaseEntity@@UAEHXZ			; CBaseEntity::IsBSPModel
PUBLIC	?IsCustomModel@CBaseEntity@@UAEHXZ		; CBaseEntity::IsCustomModel
PUBLIC	?ReflectGauss@CBaseEntity@@UAEHXZ		; CBaseEntity::ReflectGauss
PUBLIC	?HasTarget@CBaseEntity@@UAEHH@Z			; CBaseEntity::HasTarget
PUBLIC	?IsPlayer@CBaseEntity@@UAEHXZ			; CBaseEntity::IsPlayer
PUBLIC	?IsNetClient@CBaseEntity@@UAEHXZ		; CBaseEntity::IsNetClient
PUBLIC	?IsMonster@CBaseEntity@@UAEHXZ			; CBaseEntity::IsMonster
PUBLIC	?IsPushable@CBaseEntity@@UAEHXZ			; CBaseEntity::IsPushable
PUBLIC	?IsProjectile@CBaseEntity@@UAEHXZ		; CBaseEntity::IsProjectile
PUBLIC	?IsFuncScreen@CBaseEntity@@UAEHXZ		; CBaseEntity::IsFuncScreen
PUBLIC	?IsPortal@CBaseEntity@@UAEHXZ			; CBaseEntity::IsPortal
PUBLIC	?IsTank@CBaseEntity@@UAEHXZ			; CBaseEntity::IsTank
PUBLIC	?IsMover@CBaseEntity@@UAEHXZ			; CBaseEntity::IsMover
PUBLIC	?IsBreakable@CBaseEntity@@UAEHXZ		; CBaseEntity::IsBreakable
PUBLIC	?TeamID@CBaseEntity@@UAEPBDXZ			; CBaseEntity::TeamID
PUBLIC	?AddSpawnFlags@CBaseEntity@@UAEXH@Z		; CBaseEntity::AddSpawnFlags
PUBLIC	?HasSpawnFlags@CBaseEntity@@UBE_NH@Z		; CBaseEntity::HasSpawnFlags
PUBLIC	?SetFadeDistance@CBaseEntity@@UAEXH@Z		; CBaseEntity::SetFadeDistance
PUBLIC	?SetFlag@CBaseEntity@@UAEXH@Z			; CBaseEntity::SetFlag
PUBLIC	?HasFlag@CBaseEntity@@UBE_NH@Z			; CBaseEntity::HasFlag
PUBLIC	?RemoveFlag@CBaseEntity@@UAEXH@Z		; CBaseEntity::RemoveFlag
PUBLIC	?SetNullModel@CBaseEntity@@UAEXXZ		; CBaseEntity::SetNullModel
PUBLIC	?OnPickupObject@CBaseEntity@@UAEXXZ		; CBaseEntity::OnPickupObject
PUBLIC	?OnDropObject@CBaseEntity@@UAEXXZ		; CBaseEntity::OnDropObject
PUBLIC	?Think@CBaseEntity@@UAEXXZ			; CBaseEntity::Think
PUBLIC	?Use@CBaseEntity@@UAEXPAV1@0W4USE_TYPE@@M@Z	; CBaseEntity::Use
PUBLIC	?Touch@CBaseEntity@@UAEXPAV1@@Z			; CBaseEntity::Touch
PUBLIC	?Blocked@CBaseEntity@@UAEXPAV1@@Z		; CBaseEntity::Blocked
PUBLIC	?MoveDone@CBaseEntity@@UAEXXZ			; CBaseEntity::MoveDone
PUBLIC	??2CBaseEntity@@SAPAXIPAUentvars_s@@@Z		; CBaseEntity::operator new
PUBLIC	??3CBaseEntity@@SAXPAXPAUentvars_s@@@Z		; CBaseEntity::operator delete
PUBLIC	?Respawn@CBaseEntity@@UAEPAV1@XZ		; CBaseEntity::Respawn
PUBLIC	?Instance@CBaseEntity@@SAPAV1@PAUedict_s@@@Z	; CBaseEntity::Instance
PUBLIC	?FunctionCheck@CBaseEntity@@QAEXPAXPAD@Z	; CBaseEntity::FunctionCheck
PUBLIC	?ThinkSet@CBaseEntity@@QAEP81@AEXXZP81@AEXXZPAD@Z ; CBaseEntity::ThinkSet
PUBLIC	?TouchSet@CBaseEntity@@QAEP81@AEXPAV1@@ZP81@AEX0@ZPAD@Z ; CBaseEntity::TouchSet
PUBLIC	?UpdateOwner@CBaseEntity@@UAEXXZ		; CBaseEntity::UpdateOwner
PUBLIC	?FBecomeProne@CBaseEntity@@UAEHXZ		; CBaseEntity::FBecomeProne
PUBLIC	?edict@CBaseEntity@@QAEPAUedict_s@@XZ		; CBaseEntity::edict
PUBLIC	?entindex@CBaseEntity@@QAEHXZ			; CBaseEntity::entindex
PUBLIC	?Center@CBaseEntity@@UAE?AVVector@@XZ		; CBaseEntity::Center
PUBLIC	?EyePosition@CBaseEntity@@UAE?AVVector@@XZ	; CBaseEntity::EyePosition
PUBLIC	?EarPosition@CBaseEntity@@UAE?AVVector@@XZ	; CBaseEntity::EarPosition
PUBLIC	?BodyTarget@CBaseEntity@@UAE?AVVector@@ABV2@@Z	; CBaseEntity::BodyTarget
PUBLIC	?IsPointSized@CBaseEntity@@UBEHXZ		; CBaseEntity::IsPointSized
PUBLIC	?Illumination@CBaseEntity@@UAEHXZ		; CBaseEntity::Illumination
PUBLIC	??0CBaseEntity@@QAE@XZ				; CBaseEntity::CBaseEntity
PUBLIC	??1CBaseEntity@@QAE@XZ				; CBaseEntity::~CBaseEntity
PUBLIC	?GetState@CBaseDelay@@UAE?AW4STATE@@XZ		; CBaseDelay::GetState
PUBLIC	??0CBaseDelay@@QAE@XZ				; CBaseDelay::CBaseDelay
PUBLIC	??1CBaseDelay@@QAE@XZ				; CBaseDelay::~CBaseDelay
PUBLIC	?HandleAnimEvent@CBaseAnimating@@UAEXPAUMonsterEvent_t@@@Z ; CBaseAnimating::HandleAnimEvent
PUBLIC	??0CBaseAnimating@@QAE@XZ			; CBaseAnimating::CBaseAnimating
PUBLIC	??1CBaseAnimating@@QAE@XZ			; CBaseAnimating::~CBaseAnimating
PUBLIC	?GetToggleState@CBaseToggle@@UAEHXZ		; CBaseToggle::GetToggleState
PUBLIC	?GetDelay@CBaseToggle@@UAEMXZ			; CBaseToggle::GetDelay
PUBLIC	??0CBaseToggle@@QAE@XZ				; CBaseToggle::CBaseToggle
PUBLIC	??1CBaseToggle@@QAE@XZ				; CBaseToggle::~CBaseToggle
PUBLIC	?Classify@CBaseMonster@@UAEHXZ			; CBaseMonster::Classify
PUBLIC	?BloodColor@CBaseMonster@@UAEHXZ		; CBaseMonster::BloodColor
PUBLIC	?MyMonsterPointer@CBaseMonster@@UAEPAV1@XZ	; CBaseMonster::MyMonsterPointer
PUBLIC	?IsAlive@CBaseMonster@@UAEHXZ			; CBaseMonster::IsAlive
PUBLIC	?GetStoppedActivity@CBaseMonster@@UAE?AW4Activity@@XZ ; CBaseMonster::GetStoppedActivity
PUBLIC	?Stop@CBaseMonster@@UAEXXZ			; CBaseMonster::Stop
PUBLIC	?ScheduleChange@CBaseMonster@@UAEXXZ		; CBaseMonster::ScheduleChange
PUBLIC	?CanPlaySentence@CBaseMonster@@UAEHH@Z		; CBaseMonster::CanPlaySentence
PUBLIC	?SetYawSpeed@CBaseMonster@@UAEXXZ		; CBaseMonster::SetYawSpeed
PUBLIC	?FValidateCover@CBaseMonster@@UAEHABVVector@@@Z	; CBaseMonster::FValidateCover
PUBLIC	?CoverRadius@CBaseMonster@@UAEMXZ		; CBaseMonster::CoverRadius
PUBLIC	?CheckAmmo@CBaseMonster@@UAEXXZ			; CBaseMonster::CheckAmmo
PUBLIC	?HearingSensitivity@CBaseMonster@@UAEMXZ	; CBaseMonster::HearingSensitivity
PUBLIC	?PrescheduleThink@CBaseMonster@@UAEXXZ		; CBaseMonster::PrescheduleThink
PUBLIC	?BodyTarget@CBaseMonster@@UAE?AVVector@@ABV2@@Z	; CBaseMonster::BodyTarget
PUBLIC	?IsMoving@CBaseMonster@@UAEHXZ			; CBaseMonster::IsMoving
PUBLIC	?DeathSound@CBaseMonster@@UAEXXZ		; CBaseMonster::DeathSound
PUBLIC	?AlertSound@CBaseMonster@@UAEXXZ		; CBaseMonster::AlertSound
PUBLIC	?IdleSound@CBaseMonster@@UAEXXZ			; CBaseMonster::IdleSound
PUBLIC	?PainSound@CBaseMonster@@UAEXXZ			; CBaseMonster::PainSound
PUBLIC	?StopFollowing@CBaseMonster@@UAEXH@Z		; CBaseMonster::StopFollowing
PUBLIC	??0CBaseMonster@@QAE@XZ				; CBaseMonster::CBaseMonster
PUBLIC	??1CBaseMonster@@QAE@XZ				; CBaseMonster::~CBaseMonster
PUBLIC	?BloodColor@CGrenade@@UAEHXZ			; CGrenade::BloodColor
PUBLIC	?IsProjectile@CGrenade@@UAEHXZ			; CGrenade::IsProjectile
PUBLIC	??0CGrenade@@QAE@XZ				; CGrenade::CGrenade
PUBLIC	?AddDuplicate@CBasePlayerItem@@UAEHPAV1@@Z	; CBasePlayerItem::AddDuplicate
PUBLIC	?GetItemInfo@CBasePlayerItem@@UAEHPAUItemInfo@@@Z ; CBasePlayerItem::GetItemInfo
PUBLIC	?CanDeploy@CBasePlayerItem@@UAEHXZ		; CBasePlayerItem::CanDeploy
PUBLIC	?Deploy@CBasePlayerItem@@UAEHXZ			; CBasePlayerItem::Deploy
PUBLIC	?CanHolster@CBasePlayerItem@@UAEHXZ		; CBasePlayerItem::CanHolster
PUBLIC	?UpdateItemInfo@CBasePlayerItem@@UAEXXZ		; CBasePlayerItem::UpdateItemInfo
PUBLIC	?ItemPreFrame@CBasePlayerItem@@UAEXXZ		; CBasePlayerItem::ItemPreFrame
PUBLIC	?ItemPostFrame@CBasePlayerItem@@UAEXXZ		; CBasePlayerItem::ItemPostFrame
PUBLIC	?PrimaryAmmoIndex@CBasePlayerItem@@UAEHXZ	; CBasePlayerItem::PrimaryAmmoIndex
PUBLIC	?SecondaryAmmoIndex@CBasePlayerItem@@UAEHXZ	; CBasePlayerItem::SecondaryAmmoIndex
PUBLIC	?UpdateClientData@CBasePlayerItem@@UAEHPAVCBasePlayer@@@Z ; CBasePlayerItem::UpdateClientData
PUBLIC	?GetWeaponPtr@CBasePlayerItem@@UAEPAV1@XZ	; CBasePlayerItem::GetWeaponPtr
PUBLIC	?iItemSlot@CBasePlayerItem@@UAEHXZ		; CBasePlayerItem::iItemSlot
PUBLIC	??0CBasePlayerItem@@QAE@XZ			; CBasePlayerItem::CBasePlayerItem
PUBLIC	?AddWeapon@CBasePlayerWeapon@@UAEHXZ		; CBasePlayerWeapon::AddWeapon
PUBLIC	?UpdateItemInfo@CBasePlayerWeapon@@UAEXXZ	; CBasePlayerWeapon::UpdateItemInfo
PUBLIC	?PrimaryAttack@CBasePlayerWeapon@@UAEXXZ	; CBasePlayerWeapon::PrimaryAttack
PUBLIC	?SecondaryAttack@CBasePlayerWeapon@@UAEXXZ	; CBasePlayerWeapon::SecondaryAttack
PUBLIC	?Reload@CBasePlayerWeapon@@UAEXXZ		; CBasePlayerWeapon::Reload
PUBLIC	?WeaponIdle@CBasePlayerWeapon@@UAEXXZ		; CBasePlayerWeapon::WeaponIdle
PUBLIC	?ShouldWeaponIdle@CBasePlayerWeapon@@UAEHXZ	; CBasePlayerWeapon::ShouldWeaponIdle
PUBLIC	?UseDecrement@CBasePlayerWeapon@@UAEHXZ		; CBasePlayerWeapon::UseDecrement
PUBLIC	?GetWeaponPtr@CBasePlayerWeapon@@UAEPAVCBasePlayerItem@@XZ ; CBasePlayerWeapon::GetWeaponPtr
PUBLIC	??0CBasePlayerWeapon@@QAE@XZ			; CBasePlayerWeapon::CBasePlayerWeapon
PUBLIC	?AddAmmo@CBasePlayerAmmo@@UAEHPAVCBaseEntity@@@Z ; CBasePlayerAmmo::AddAmmo
PUBLIC	??0CBasePlayerAmmo@@QAE@XZ			; CBasePlayerAmmo::CBasePlayerAmmo
PUBLIC	?Spawn@CRpg@@UAEXXZ				; CRpg::Spawn
PUBLIC	?Precache@CRpg@@UAEXXZ				; CRpg::Precache
PUBLIC	?Reload@CRpg@@UAEXXZ				; CRpg::Reload
PUBLIC	?iItemSlot@CRpg@@UAEHXZ				; CRpg::iItemSlot
PUBLIC	?GetItemInfo@CRpg@@UAEHPAUItemInfo@@@Z		; CRpg::GetItemInfo
PUBLIC	?AddToPlayer@CRpg@@UAEHPAVCBasePlayer@@@Z	; CRpg::AddToPlayer
PUBLIC	?GetBaseMap@CRpg@@SAPAUdatamap_s@@XZ		; CRpg::GetBaseMap
PUBLIC	?GetDataDescMap@CRpg@@UAEPAUdatamap_s@@XZ	; CRpg::GetDataDescMap
PUBLIC	?Deploy@CRpg@@UAEHXZ				; CRpg::Deploy
PUBLIC	?CanHolster@CRpg@@UAEHXZ			; CRpg::CanHolster
PUBLIC	?Holster@CRpg@@UAEXXZ				; CRpg::Holster
PUBLIC	?PrimaryAttack@CRpg@@UAEXXZ			; CRpg::PrimaryAttack
PUBLIC	?SecondaryAttack@CRpg@@UAEXXZ			; CRpg::SecondaryAttack
PUBLIC	?WeaponIdle@CRpg@@UAEXXZ			; CRpg::WeaponIdle
PUBLIC	?UpdateSpot@CRpg@@QAEXXZ			; CRpg::UpdateSpot
PUBLIC	?ShouldWeaponIdle@CRpg@@UAEHXZ			; CRpg::ShouldWeaponIdle
PUBLIC	??0CRpg@@QAE@XZ					; CRpg::CRpg
PUBLIC	??0?$CEntityFactory@VCRpg@@@@QAE@PBD@Z		; CEntityFactory<CRpg>::CEntityFactory<CRpg>
PUBLIC	?Create@?$CEntityFactory@VCRpg@@@@UAEPAVCBaseEntity@@PBDPAUentvars_s@@@Z ; CEntityFactory<CRpg>::Create
PUBLIC	?Destroy@?$CEntityFactory@VCRpg@@@@UAEXPAVCBaseEntity@@@Z ; CEntityFactory<CRpg>::Destroy
PUBLIC	?GetEntitySize@?$CEntityFactory@VCRpg@@@@UAEIXZ	; CEntityFactory<CRpg>::GetEntitySize
PUBLIC	??$DataMapAccess@VCBasePlayerWeapon@@@@YAXPAVCBasePlayerWeapon@@PAPAUdatamap_s@@@Z ; DataMapAccess<CBasePlayerWeapon>
PUBLIC	??$DataMapInit@VCRpg@@@@YAPAUdatamap_s@@PAVCRpg@@@Z ; DataMapInit<CRpg>
PUBLIC	?Spawn@CRpgRocket@@UAEXXZ			; CRpgRocket::Spawn
PUBLIC	?Precache@CRpgRocket@@UAEXXZ			; CRpgRocket::Precache
PUBLIC	?FollowThink@CRpgRocket@@QAEXXZ			; CRpgRocket::FollowThink
PUBLIC	?IgniteThink@CRpgRocket@@QAEXXZ			; CRpgRocket::IgniteThink
PUBLIC	?RocketTouch@CRpgRocket@@QAEXPAVCBaseEntity@@@Z	; CRpgRocket::RocketTouch
PUBLIC	?CreateRpgRocket@CRpgRocket@@SAPAV1@VVector@@0PAVCBaseEntity@@PAVCRpg@@@Z ; CRpgRocket::CreateRpgRocket
PUBLIC	?CreateTrail@CRpgRocket@@QAEXXZ			; CRpgRocket::CreateTrail
PUBLIC	?OnTeleport@CRpgRocket@@UAEXXZ			; CRpgRocket::OnTeleport
PUBLIC	?ClearEffects@CRpgRocket@@UAEXXZ		; CRpgRocket::ClearEffects
PUBLIC	?Classify@CRpgRocket@@UAEHXZ			; CRpgRocket::Classify
PUBLIC	?GetBaseMap@CRpgRocket@@SAPAUdatamap_s@@XZ	; CRpgRocket::GetBaseMap
PUBLIC	?GetDataDescMap@CRpgRocket@@UAEPAUdatamap_s@@XZ	; CRpgRocket::GetDataDescMap
PUBLIC	?TakeDamage@CRpgRocket@@UAEHPAUentvars_s@@0MH@Z	; CRpgRocket::TakeDamage
PUBLIC	?ShotDown@CRpgRocket@@QAEXXZ			; CRpgRocket::ShotDown
PUBLIC	?AugerThink@CRpgRocket@@QAEXXZ			; CRpgRocket::AugerThink
PUBLIC	??0CRpgRocket@@QAE@XZ				; CRpgRocket::CRpgRocket
PUBLIC	??0?$CEntityFactory@VCRpgRocket@@@@QAE@PBD@Z	; CEntityFactory<CRpgRocket>::CEntityFactory<CRpgRocket>
PUBLIC	?Create@?$CEntityFactory@VCRpgRocket@@@@UAEPAVCBaseEntity@@PBDPAUentvars_s@@@Z ; CEntityFactory<CRpgRocket>::Create
PUBLIC	?Destroy@?$CEntityFactory@VCRpgRocket@@@@UAEXPAVCBaseEntity@@@Z ; CEntityFactory<CRpgRocket>::Destroy
PUBLIC	?GetEntitySize@?$CEntityFactory@VCRpgRocket@@@@UAEIXZ ; CEntityFactory<CRpgRocket>::GetEntitySize
PUBLIC	??$DataMapAccess@VCGrenade@@@@YAXPAVCGrenade@@PAPAUdatamap_s@@@Z ; DataMapAccess<CGrenade>
PUBLIC	??$DataMapInit@VCRpgRocket@@@@YAPAUdatamap_s@@PAVCRpgRocket@@@Z ; DataMapInit<CRpgRocket>
PUBLIC	??$GetClassPtr@VCRpgRocket@@@@YAPAVCRpgRocket@@PAV0@@Z ; GetClassPtr<CRpgRocket>
PUBLIC	?Spawn@CRoboRocket2@@UAEXXZ			; CRoboRocket2::Spawn
PUBLIC	?Precache@CRoboRocket2@@UAEXXZ			; CRoboRocket2::Precache
PUBLIC	?FollowThink@CRoboRocket2@@QAEXXZ		; CRoboRocket2::FollowThink
PUBLIC	?IgniteThink@CRoboRocket2@@QAEXXZ		; CRoboRocket2::IgniteThink
PUBLIC	?RocketTouch@CRoboRocket2@@QAEXPAVCBaseEntity@@@Z ; CRoboRocket2::RocketTouch
PUBLIC	?RocketExplode@CRoboRocket2@@QAEXPAUgametrace_s@@H@Z ; CRoboRocket2::RocketExplode
PUBLIC	?CreateTrail@CRoboRocket2@@QAEXXZ		; CRoboRocket2::CreateTrail
PUBLIC	?OnTeleport@CRoboRocket2@@UAEXXZ		; CRoboRocket2::OnTeleport
PUBLIC	?GetBaseMap@CRoboRocket2@@SAPAUdatamap_s@@XZ	; CRoboRocket2::GetBaseMap
PUBLIC	?GetDataDescMap@CRoboRocket2@@UAEPAUdatamap_s@@XZ ; CRoboRocket2::GetDataDescMap
PUBLIC	??0CRoboRocket2@@QAE@XZ				; CRoboRocket2::CRoboRocket2
PUBLIC	??0?$CEntityFactory@VCRoboRocket2@@@@QAE@PBD@Z	; CEntityFactory<CRoboRocket2>::CEntityFactory<CRoboRocket2>
PUBLIC	?Create@?$CEntityFactory@VCRoboRocket2@@@@UAEPAVCBaseEntity@@PBDPAUentvars_s@@@Z ; CEntityFactory<CRoboRocket2>::Create
PUBLIC	?Destroy@?$CEntityFactory@VCRoboRocket2@@@@UAEXPAVCBaseEntity@@@Z ; CEntityFactory<CRoboRocket2>::Destroy
PUBLIC	?GetEntitySize@?$CEntityFactory@VCRoboRocket2@@@@UAEIXZ ; CEntityFactory<CRoboRocket2>::GetEntitySize
PUBLIC	??$DataMapInit@VCRoboRocket2@@@@YAPAUdatamap_s@@PAVCRoboRocket2@@@Z ; DataMapInit<CRoboRocket2>
PUBLIC	?Spawn@CRpgAmmo@@EAEXXZ				; CRpgAmmo::Spawn
PUBLIC	?Precache@CRpgAmmo@@EAEXXZ			; CRpgAmmo::Precache
PUBLIC	?AddAmmo@CRpgAmmo@@EAEHPAVCBaseEntity@@@Z	; CRpgAmmo::AddAmmo
PUBLIC	??0CRpgAmmo@@QAE@XZ				; CRpgAmmo::CRpgAmmo
PUBLIC	??0?$CEntityFactory@VCRpgAmmo@@@@QAE@PBD@Z	; CEntityFactory<CRpgAmmo>::CEntityFactory<CRpgAmmo>
PUBLIC	?Create@?$CEntityFactory@VCRpgAmmo@@@@UAEPAVCBaseEntity@@PBDPAUentvars_s@@@Z ; CEntityFactory<CRpgAmmo>::Create
PUBLIC	?Destroy@?$CEntityFactory@VCRpgAmmo@@@@UAEXPAVCBaseEntity@@@Z ; CEntityFactory<CRpgAmmo>::Destroy
PUBLIC	?GetEntitySize@?$CEntityFactory@VCRpgAmmo@@@@UAEIXZ ; CEntityFactory<CRpgAmmo>::GetEntitySize
PUBLIC	??$GetClassPtr@VCRpgAmmo@@@@YAPAVCRpgAmmo@@PAV0@PBD@Z ; GetClassPtr<CRpgAmmo>
PUBLIC	??$GetClassPtr@VCRoboRocket2@@@@YAPAVCRoboRocket2@@PAV0@PBD@Z ; GetClassPtr<CRoboRocket2>
PUBLIC	??$GetClassPtr@VCRpgRocket@@@@YAPAVCRpgRocket@@PAV0@PBD@Z ; GetClassPtr<CRpgRocket>
PUBLIC	??$GetClassPtr@VCRpg@@@@YAPAVCRpg@@PAV0@PBD@Z	; GetClassPtr<CRpg>
PUBLIC	??$CopyConstruct@PAD@@YAXPAPADABQAD@Z		; CopyConstruct<char *>
PUBLIC	??$Destruct@PAD@@YAXPAPAD@Z			; Destruct<char *>
PUBLIC	?_OptionsStorage@?1??__local_stdio_printf_options@@9@4_KA ; `__local_stdio_printf_options'::`2'::_OptionsStorage
PUBLIC	??_C@_00CNPNBAHC@?$AA@				; `string'
PUBLIC	??_C@_04EFCDBJNL@?$CFs?3?3?$AA@			; `string'
PUBLIC	??_7IEntityFactory@@6B@				; IEntityFactory::`vftable'
PUBLIC	??_C@_0BF@CPEPILID@Bad?5ent?5in?5OFFSET?$CI?$CJ?6?$AA@ ; `string'
PUBLIC	??_C@_0BF@DOONGEFO@Bad?5pev?5in?5OFFSET?$CI?$CJ?6?$AA@ ; `string'
PUBLIC	??_7CBaseEntity@@6B@				; CBaseEntity::`vftable'
PUBLIC	??_C@_06MLKDMCBD@parent?$AA@			; `string'
PUBLIC	??_C@_08JJJAOBDI@movewith?$AA@			; `string'
PUBLIC	??_C@_0M@EAELDHJO@parentflags?$AA@		; `string'
PUBLIC	??_C@_05IAKJCFIM@style?$AA@			; `string'
PUBLIC	??_C@_0L@IKCANML@reflection?$AA@		; `string'
PUBLIC	??_C@_0N@JILDNHAP@vlight_cache?$AA@		; `string'
PUBLIC	??_C@_0L@JIJDCONP@customname?$AA@		; `string'
PUBLIC	??_C@_0CH@HELFJPDL@FUNCTION?5NOT?5IN?5TABLE?$CB?3?5?$CFs?3?$CFs?5?$CI?$CF@ ; `string'
PUBLIC	??_7CBaseDelay@@6B@				; CBaseDelay::`vftable'
PUBLIC	??_7CBaseAnimating@@6B@				; CBaseAnimating::`vftable'
PUBLIC	??_7CBaseToggle@@6B@				; CBaseToggle::`vftable'
PUBLIC	??_7CBaseMonster@@6B@				; CBaseMonster::`vftable'
PUBLIC	??_C@_0BB@EMJBJDBM@sprites?1null?4spr?$AA@	; `string'
PUBLIC	??_7CGrenade@@6B@				; CGrenade::`vftable'
PUBLIC	??_7CBasePlayerItem@@6B@			; CBasePlayerItem::`vftable'
PUBLIC	??_7CBasePlayerWeapon@@6B@			; CBasePlayerWeapon::`vftable'
PUBLIC	??_7CBasePlayerAmmo@@6B@			; CBasePlayerAmmo::`vftable'
PUBLIC	??_7CRpg@@6B@					; CRpg::`vftable'
PUBLIC	??_7?$CEntityFactory@VCRpg@@@@6B@		; CEntityFactory<CRpg>::`vftable'
PUBLIC	??_C@_0L@NJNPDFDL@weapon_rpg?$AA@		; `string'
PUBLIC	?g_DataMapHolder@CRpg_DataDescInit@@3PAUdatamap_s@@A ; CRpg_DataDescInit::g_DataMapHolder
PUBLIC	??_7CRpgRocket@@6B@				; CRpgRocket::`vftable'
PUBLIC	??_7?$CEntityFactory@VCRpgRocket@@@@6B@		; CEntityFactory<CRpgRocket>::`vftable'
PUBLIC	??_C@_0L@MFNEJJJF@rpg_rocket?$AA@		; `string'
PUBLIC	?g_DataMapHolder@CRpgRocket_DataDescInit@@3PAUdatamap_s@@A ; CRpgRocket_DataDescInit::g_DataMapHolder
PUBLIC	??_C@_0M@HFODBJCA@FollowThink?$AA@		; `string'
PUBLIC	??_C@_0M@CCEGFCPM@IgniteThink?$AA@		; `string'
PUBLIC	??_C@_0M@MEKFALBF@RocketTouch?$AA@		; `string'
PUBLIC	??_C@_0O@PLAGMMCE@m_flAugerTime?$AA@		; `string'
PUBLIC	??_C@_0BB@GHOCPPMI@m_flMarkDeadTime?$AA@	; `string'
PUBLIC	??_C@_0L@PEBDNPPC@AugerThink?$AA@		; `string'
PUBLIC	??_C@_0BJ@IMHADGKA@?$CGCRpgRocket?3?3RocketTouch?$AA@ ; `string'
PUBLIC	??_C@_0BF@JALHEJDN@models?1rpgrocket?4mdl?$AA@	; `string'
PUBLIC	??_C@_0BC@DDAJIPKB@sprites?1smoke?4spr?$AA@	; `string'
PUBLIC	??_C@_0BE@OFLJKELP@weapons?1rocket1?4wav?$AA@	; `string'
PUBLIC	??_C@_0BJ@NMPKGCCP@weapons?1rpg_shotdown?4wav?$AA@ ; `string'
PUBLIC	??_C@_0BJ@GKJDGPEJ@?$CGCRpgRocket?3?3IgniteThink?$AA@ ; `string'
PUBLIC	??_C@_0BI@OOPPOBKK@?$CGCGrenade?3?3ExplodeTouch?$AA@ ; `string'
PUBLIC	??_C@_0P@DFJONIEE@monster_apache?$AA@		; `string'
PUBLIC	??_C@_0BI@JDBICBFF@?$CGCRpgRocket?3?3AugerThink?$AA@ ; `string'
PUBLIC	??_C@_0BJ@DNDGCEJF@?$CGCRpgRocket?3?3FollowThink?$AA@ ; `string'
PUBLIC	??_C@_0L@PKAMAFCB@laser_spot?$AA@		; `string'
PUBLIC	??_7CRoboRocket2@@6B@				; CRoboRocket2::`vftable'
PUBLIC	??_7?$CEntityFactory@VCRoboRocket2@@@@6B@	; CEntityFactory<CRoboRocket2>::`vftable'
PUBLIC	??_C@_0N@LECDHPON@robo_rocket2?$AA@		; `string'
PUBLIC	?g_DataMapHolder@CRoboRocket2_DataDescInit@@3PAUdatamap_s@@A ; CRoboRocket2_DataDescInit::g_DataMapHolder
PUBLIC	??_C@_0O@KKBBKKAJ@RocketExplode?$AA@		; `string'
PUBLIC	??_C@_0BL@DPADIFNC@?$CGCRoboRocket2?3?3IgniteThink?$AA@ ; `string'
PUBLIC	??_C@_0BL@NJOANMDL@?$CGCRoboRocket2?3?3RocketTouch?$AA@ ; `string'
PUBLIC	??_C@_0BE@JJJKAAPC@weapons?1debris1?4wav?$AA@	; `string'
PUBLIC	??_C@_0BE@BPAOHCFM@weapons?1debris2?4wav?$AA@	; `string'
PUBLIC	??_C@_0BE@NEFCKBPJ@weapons?1debris3?4wav?$AA@	; `string'
PUBLIC	??_C@_0BB@KDDMBFAP@?$CGCGrenade?3?3Smoke?$AA@	; `string'
PUBLIC	??_C@_0N@GFJBOHAK@spark_shower?$AA@		; `string'
PUBLIC	??_C@_0BL@GIKGMOAO@?$CGCRoboRocket2?3?3FollowThink?$AA@ ; `string'
PUBLIC	??_C@_0BB@GNJMAKBJ@models?1w_rpg?4mdl?$AA@	; `string'
PUBLIC	??_C@_0BB@ICFOGBCH@models?1v_rpg?4mdl?$AA@	; `string'
PUBLIC	??_C@_0BB@IPEABBGA@models?1p_rpg?4mdl?$AA@	; `string'
PUBLIC	??_C@_0BD@BADMCPNB@items?19mmclip1?4wav?$AA@	; `string'
PUBLIC	??_C@_0BI@IJKHDNAN@weapons?1rocketfire1?4wav?$AA@ ; `string'
PUBLIC	??_C@_0BG@MDAACEKK@weapons?1glauncher?4wav?$AA@	; `string'
PUBLIC	??_C@_07DCMGFMFH@rockets?$AA@			; `string'
PUBLIC	??_C@_03GBMANNME@rpg?$AA@			; `string'
PUBLIC	??_C@_08MNDBFPDE@?9attack?6?$AA@		; `string'
PUBLIC	??_7CRpgAmmo@@6B@				; CRpgAmmo::`vftable'
PUBLIC	??_C@_0BF@ONHNEHHH@models?1w_rpgammo?4mdl?$AA@	; `string'
PUBLIC	??_7?$CEntityFactory@VCRpgAmmo@@@@6B@		; CEntityFactory<CRpgAmmo>::`vftable'
PUBLIC	??_C@_0N@FDODGIHO@ammo_rpgclip?$AA@		; `string'
PUBLIC	??_C@_1JC@EMNIBBBG@?$AAd?$AA?3?$AA?2?$AA?$CB?$AAd?$AAi?$AAf?$AAf?$AAu?$AAs?$AAi?$AAo?$AAn?$AA?5?$AA2?$AA0?$AA2?$AA0?$AA?2?$AAs?$AAo?$AAu?$AAr?$AAc?$AAe?$AA?5?$AAc?$AAo?$AAd?$AAe?$AA?5?$AA2@ ; `string'
PUBLIC	??_C@_1IK@DGJDJNN@?$AA?$CI?$AAB?$AAa?$AAs?$AAe?$AA?$CI?$AA?$CJ?$AA?5?$AA?$DN?$AA?$DN?$AA?5?$AAN?$AAU?$AAL?$AAL?$AA?$CJ?$AA?5?$AA?$HM?$AA?$HM?$AA?5?$AA?$CI?$AA?$CG?$AAs?$AAr?$AAc?$AA?5?$AA?$DM?$AA?5?$AAB?$AAa?$AAs?$AAe@ ; `string'
PUBLIC	??_C@_1JE@CIIIAKCN@?$AAd?$AA?3?$AA?2?$AA?$CB?$AAd?$AAi?$AAf?$AAf?$AAu?$AAs?$AAi?$AAo?$AAn?$AA?5?$AA2?$AA0?$AA2?$AA0?$AA?2?$AAs?$AAo?$AAu?$AAr?$AAc?$AAe?$AA?5?$AAc?$AAo?$AAd?$AAe?$AA?5?$AA2@ ; `string'
PUBLIC	??_C@_1BO@FOOHAONO@?$AAn?$AAG?$AAr?$AAo?$AAw?$AAS?$AAi?$AAz?$AAe?$AA?5?$AA?$DO?$AA?$DN?$AA?5?$AA0?$AA?$AA@ ; `string'
PUBLIC	??_C@_1BM@PFNFCCHH@?$AA?$CB?$AAI?$AAs?$AAR?$AAe?$AAa?$AAd?$AAO?$AAn?$AAl?$AAy?$AA?$CI?$AA?$CJ?$AA?$AA@ ; `string'
PUBLIC	??_C@_1BM@CKILBAKK@?$AAI?$AAs?$AAI?$AAd?$AAx?$AAV?$AAa?$AAl?$AAi?$AAd?$AA?$CI?$AAi?$AA?$CJ?$AA?$AA@ ; `string'
PUBLIC	??_C@_1FA@BPFBJKPF@?$AA?$CI?$AAe?$AAl?$AAe?$AAm?$AA?5?$AA?$DN?$AA?$DN?$AA?5?$AAC?$AAo?$AAu?$AAn?$AAt?$AA?$CI?$AA?$CJ?$AA?$CJ?$AA?5?$AA?$HM?$AA?$HM?$AA?5?$AAI?$AAs?$AAV?$AAa?$AAl?$AAi?$AAd?$AAI?$AAn?$AAd?$AAe@ ; `string'
PUBLIC	??_C@_1GM@CDMJDFPA@?$AAI?$AAs?$AAV?$AAa?$AAl?$AAi?$AAd?$AAI?$AAn?$AAd?$AAe?$AAx?$AA?$CI?$AAe?$AAl?$AAe?$AAm?$AA?$CJ?$AA?5?$AA?$HM?$AA?$HM?$AA?5?$AA?$CI?$AA?5?$AAm?$AA_?$AAS?$AAi?$AAz?$AAe?$AA?5?$AA?$DN@ ; `string'
PUBLIC	??_C@_1BA@PKCLMAEA@?$AAn?$AAu?$AAm?$AA?5?$AA?$DO?$AA?5?$AA0?$AA?$AA@ ; `string'
PUBLIC	??_C@_13COJANIEC@?$AA0?$AA?$AA@			; `string'
PUBLIC	??_C@_1BE@OPPFELHC@?$AAm?$AA_?$AAp?$AAM?$AAe?$AAm?$AAo?$AAr?$AAy?$AA?$AA@ ; `string'
PUBLIC	??_R4CBaseEntity@@6B@				; CBaseEntity::`RTTI Complete Object Locator'
PUBLIC	??_R0?AVCBaseEntity@@@8				; CBaseEntity `RTTI Type Descriptor'
PUBLIC	??_R3CBaseEntity@@8				; CBaseEntity::`RTTI Class Hierarchy Descriptor'
PUBLIC	??_R2CBaseEntity@@8				; CBaseEntity::`RTTI Base Class Array'
PUBLIC	??_R1A@?0A@EA@CBaseEntity@@8			; CBaseEntity::`RTTI Base Class Descriptor at (0,-1,0,64)'
PUBLIC	??_R4IEntityFactory@@6B@			; IEntityFactory::`RTTI Complete Object Locator'
PUBLIC	??_R0?AVIEntityFactory@@@8			; IEntityFactory `RTTI Type Descriptor'
PUBLIC	??_R3IEntityFactory@@8				; IEntityFactory::`RTTI Class Hierarchy Descriptor'
PUBLIC	??_R2IEntityFactory@@8				; IEntityFactory::`RTTI Base Class Array'
PUBLIC	??_R1A@?0A@EA@IEntityFactory@@8			; IEntityFactory::`RTTI Base Class Descriptor at (0,-1,0,64)'
PUBLIC	??_R4CBasePlayerItem@@6B@			; CBasePlayerItem::`RTTI Complete Object Locator'
PUBLIC	??_R0?AVCBasePlayerItem@@@8			; CBasePlayerItem `RTTI Type Descriptor'
PUBLIC	??_R3CBasePlayerItem@@8				; CBasePlayerItem::`RTTI Class Hierarchy Descriptor'
PUBLIC	??_R2CBasePlayerItem@@8				; CBasePlayerItem::`RTTI Base Class Array'
PUBLIC	??_R1A@?0A@EA@CBasePlayerItem@@8		; CBasePlayerItem::`RTTI Base Class Descriptor at (0,-1,0,64)'
PUBLIC	??_R1A@?0A@EA@CBaseAnimating@@8			; CBaseAnimating::`RTTI Base Class Descriptor at (0,-1,0,64)'
PUBLIC	??_R0?AVCBaseAnimating@@@8			; CBaseAnimating `RTTI Type Descriptor'
PUBLIC	??_R3CBaseAnimating@@8				; CBaseAnimating::`RTTI Class Hierarchy Descriptor'
PUBLIC	??_R2CBaseAnimating@@8				; CBaseAnimating::`RTTI Base Class Array'
PUBLIC	??_R1A@?0A@EA@CBaseDelay@@8			; CBaseDelay::`RTTI Base Class Descriptor at (0,-1,0,64)'
PUBLIC	??_R0?AVCBaseDelay@@@8				; CBaseDelay `RTTI Type Descriptor'
PUBLIC	??_R3CBaseDelay@@8				; CBaseDelay::`RTTI Class Hierarchy Descriptor'
PUBLIC	??_R2CBaseDelay@@8				; CBaseDelay::`RTTI Base Class Array'
PUBLIC	??_R4CBaseMonster@@6B@				; CBaseMonster::`RTTI Complete Object Locator'
PUBLIC	??_R0?AVCBaseMonster@@@8			; CBaseMonster `RTTI Type Descriptor'
PUBLIC	??_R3CBaseMonster@@8				; CBaseMonster::`RTTI Class Hierarchy Descriptor'
PUBLIC	??_R2CBaseMonster@@8				; CBaseMonster::`RTTI Base Class Array'
PUBLIC	??_R1A@?0A@EA@CBaseMonster@@8			; CBaseMonster::`RTTI Base Class Descriptor at (0,-1,0,64)'
PUBLIC	??_R1A@?0A@EA@CBaseToggle@@8			; CBaseToggle::`RTTI Base Class Descriptor at (0,-1,0,64)'
PUBLIC	??_R0?AVCBaseToggle@@@8				; CBaseToggle `RTTI Type Descriptor'
PUBLIC	??_R3CBaseToggle@@8				; CBaseToggle::`RTTI Class Hierarchy Descriptor'
PUBLIC	??_R2CBaseToggle@@8				; CBaseToggle::`RTTI Base Class Array'
PUBLIC	??_R4CBaseDelay@@6B@				; CBaseDelay::`RTTI Complete Object Locator'
PUBLIC	??_R4CBaseAnimating@@6B@			; CBaseAnimating::`RTTI Complete Object Locator'
PUBLIC	??_R4CBaseToggle@@6B@				; CBaseToggle::`RTTI Complete Object Locator'
PUBLIC	??_R4CGrenade@@6B@				; CGrenade::`RTTI Complete Object Locator'
PUBLIC	??_R0?AVCGrenade@@@8				; CGrenade `RTTI Type Descriptor'
PUBLIC	??_R3CGrenade@@8				; CGrenade::`RTTI Class Hierarchy Descriptor'
PUBLIC	??_R2CGrenade@@8				; CGrenade::`RTTI Base Class Array'
PUBLIC	??_R1A@?0A@EA@CGrenade@@8			; CGrenade::`RTTI Base Class Descriptor at (0,-1,0,64)'
PUBLIC	??_R4CBasePlayerWeapon@@6B@			; CBasePlayerWeapon::`RTTI Complete Object Locator'
PUBLIC	??_R0?AVCBasePlayerWeapon@@@8			; CBasePlayerWeapon `RTTI Type Descriptor'
PUBLIC	??_R3CBasePlayerWeapon@@8			; CBasePlayerWeapon::`RTTI Class Hierarchy Descriptor'
PUBLIC	??_R2CBasePlayerWeapon@@8			; CBasePlayerWeapon::`RTTI Base Class Array'
PUBLIC	??_R1A@?0A@EA@CBasePlayerWeapon@@8		; CBasePlayerWeapon::`RTTI Base Class Descriptor at (0,-1,0,64)'
PUBLIC	??_R4CBasePlayerAmmo@@6B@			; CBasePlayerAmmo::`RTTI Complete Object Locator'
PUBLIC	??_R0?AVCBasePlayerAmmo@@@8			; CBasePlayerAmmo `RTTI Type Descriptor'
PUBLIC	??_R3CBasePlayerAmmo@@8				; CBasePlayerAmmo::`RTTI Class Hierarchy Descriptor'
PUBLIC	??_R2CBasePlayerAmmo@@8				; CBasePlayerAmmo::`RTTI Base Class Array'
PUBLIC	??_R1A@?0A@EA@CBasePlayerAmmo@@8		; CBasePlayerAmmo::`RTTI Base Class Descriptor at (0,-1,0,64)'
PUBLIC	??_R4CRpg@@6B@					; CRpg::`RTTI Complete Object Locator'
PUBLIC	??_R0?AVCRpg@@@8				; CRpg `RTTI Type Descriptor'
PUBLIC	??_R3CRpg@@8					; CRpg::`RTTI Class Hierarchy Descriptor'
PUBLIC	??_R2CRpg@@8					; CRpg::`RTTI Base Class Array'
PUBLIC	??_R1A@?0A@EA@CRpg@@8				; CRpg::`RTTI Base Class Descriptor at (0,-1,0,64)'
PUBLIC	??_R4?$CEntityFactory@VCRpg@@@@6B@		; CEntityFactory<CRpg>::`RTTI Complete Object Locator'
PUBLIC	??_R0?AV?$CEntityFactory@VCRpg@@@@@8		; CEntityFactory<CRpg> `RTTI Type Descriptor'
PUBLIC	??_R3?$CEntityFactory@VCRpg@@@@8		; CEntityFactory<CRpg>::`RTTI Class Hierarchy Descriptor'
PUBLIC	??_R2?$CEntityFactory@VCRpg@@@@8		; CEntityFactory<CRpg>::`RTTI Base Class Array'
PUBLIC	??_R1A@?0A@EA@?$CEntityFactory@VCRpg@@@@8	; CEntityFactory<CRpg>::`RTTI Base Class Descriptor at (0,-1,0,64)'
PUBLIC	??_R4CRpgRocket@@6B@				; CRpgRocket::`RTTI Complete Object Locator'
PUBLIC	??_R0?AVCRpgRocket@@@8				; CRpgRocket `RTTI Type Descriptor'
PUBLIC	??_R3CRpgRocket@@8				; CRpgRocket::`RTTI Class Hierarchy Descriptor'
PUBLIC	??_R2CRpgRocket@@8				; CRpgRocket::`RTTI Base Class Array'
PUBLIC	??_R1A@?0A@EA@CRpgRocket@@8			; CRpgRocket::`RTTI Base Class Descriptor at (0,-1,0,64)'
PUBLIC	??_R4?$CEntityFactory@VCRpgRocket@@@@6B@	; CEntityFactory<CRpgRocket>::`RTTI Complete Object Locator'
PUBLIC	??_R0?AV?$CEntityFactory@VCRpgRocket@@@@@8	; CEntityFactory<CRpgRocket> `RTTI Type Descriptor'
PUBLIC	??_R3?$CEntityFactory@VCRpgRocket@@@@8		; CEntityFactory<CRpgRocket>::`RTTI Class Hierarchy Descriptor'
PUBLIC	??_R2?$CEntityFactory@VCRpgRocket@@@@8		; CEntityFactory<CRpgRocket>::`RTTI Base Class Array'
PUBLIC	??_R1A@?0A@EA@?$CEntityFactory@VCRpgRocket@@@@8	; CEntityFactory<CRpgRocket>::`RTTI Base Class Descriptor at (0,-1,0,64)'
PUBLIC	??_R4CRoboRocket2@@6B@				; CRoboRocket2::`RTTI Complete Object Locator'
PUBLIC	??_R0?AVCRoboRocket2@@@8			; CRoboRocket2 `RTTI Type Descriptor'
PUBLIC	??_R3CRoboRocket2@@8				; CRoboRocket2::`RTTI Class Hierarchy Descriptor'
PUBLIC	??_R2CRoboRocket2@@8				; CRoboRocket2::`RTTI Base Class Array'
PUBLIC	??_R1A@?0A@EA@CRoboRocket2@@8			; CRoboRocket2::`RTTI Base Class Descriptor at (0,-1,0,64)'
PUBLIC	??_R4?$CEntityFactory@VCRoboRocket2@@@@6B@	; CEntityFactory<CRoboRocket2>::`RTTI Complete Object Locator'
PUBLIC	??_R0?AV?$CEntityFactory@VCRoboRocket2@@@@@8	; CEntityFactory<CRoboRocket2> `RTTI Type Descriptor'
PUBLIC	??_R3?$CEntityFactory@VCRoboRocket2@@@@8	; CEntityFactory<CRoboRocket2>::`RTTI Class Hierarchy Descriptor'
PUBLIC	??_R2?$CEntityFactory@VCRoboRocket2@@@@8	; CEntityFactory<CRoboRocket2>::`RTTI Base Class Array'
PUBLIC	??_R1A@?0A@EA@?$CEntityFactory@VCRoboRocket2@@@@8 ; CEntityFactory<CRoboRocket2>::`RTTI Base Class Descriptor at (0,-1,0,64)'
PUBLIC	??_R4CRpgAmmo@@6B@				; CRpgAmmo::`RTTI Complete Object Locator'
PUBLIC	??_R0?AVCRpgAmmo@@@8				; CRpgAmmo `RTTI Type Descriptor'
PUBLIC	??_R3CRpgAmmo@@8				; CRpgAmmo::`RTTI Class Hierarchy Descriptor'
PUBLIC	??_R2CRpgAmmo@@8				; CRpgAmmo::`RTTI Base Class Array'
PUBLIC	??_R1A@?0A@EA@CRpgAmmo@@8			; CRpgAmmo::`RTTI Base Class Descriptor at (0,-1,0,64)'
PUBLIC	??_R4?$CEntityFactory@VCRpgAmmo@@@@6B@		; CEntityFactory<CRpgAmmo>::`RTTI Complete Object Locator'
PUBLIC	??_R0?AV?$CEntityFactory@VCRpgAmmo@@@@@8	; CEntityFactory<CRpgAmmo> `RTTI Type Descriptor'
PUBLIC	??_R3?$CEntityFactory@VCRpgAmmo@@@@8		; CEntityFactory<CRpgAmmo>::`RTTI Class Hierarchy Descriptor'
PUBLIC	??_R2?$CEntityFactory@VCRpgAmmo@@@@8		; CEntityFactory<CRpgAmmo>::`RTTI Base Class Array'
PUBLIC	??_R1A@?0A@EA@?$CEntityFactory@VCRpgAmmo@@@@8	; CEntityFactory<CRpgAmmo>::`RTTI Base Class Descriptor at (0,-1,0,64)'
PUBLIC	__real@00000000
PUBLIC	__real@3d4ccccd
PUBLIC	__real@3dcccccd
PUBLIC	__real@3e4ccccd
PUBLIC	__real@3e800000
PUBLIC	__real@3ecccccd
PUBLIC	__real@3f000000
PUBLIC	__real@3f0ccccd
PUBLIC	__real@3f19999a
PUBLIC	__real@3f400000
PUBLIC	__real@3f4c49ba
PUBLIC	__real@3f4ccccd
PUBLIC	__real@3f800000
PUBLIC	__real@3fc00000
PUBLIC	__real@3fc999999999999a
PUBLIC	__real@3fd3333333333333
PUBLIC	__real@3fe0000000000000
PUBLIC	__real@3fe3333333333333
PUBLIC	__real@3fe8000000000000
PUBLIC	__real@3fe999999999999a
PUBLIC	__real@3feccccccccccccd
PUBLIC	__real@3ff0000000000000
PUBLIC	__real@3ff8000000000000
PUBLIC	__real@40000000
PUBLIC	__real@4000cccccccccccd
PUBLIC	__real@40066666
PUBLIC	__real@4008000000000000
PUBLIC	__real@4014000000000000
PUBLIC	__real@4018000000000000
PUBLIC	__real@40400000
PUBLIC	__real@4079000000000000
PUBLIC	__real@40800000
PUBLIC	__real@40a00000
PUBLIC	__real@41000000
PUBLIC	__real@41200000
PUBLIC	__real@41700000
PUBLIC	__real@41800000
PUBLIC	__real@41a00000
PUBLIC	__real@41c00000
PUBLIC	__real@41c80000
PUBLIC	__real@41f00000
PUBLIC	__real@42000000
PUBLIC	__real@42200000
PUBLIC	__real@42480000
PUBLIC	__real@42800000
PUBLIC	__real@43070000
PUBLIC	__real@437a0000
PUBLIC	__real@43960000
PUBLIC	__real@44440000
PUBLIC	__real@447a0000
PUBLIC	__real@44bb8000
PUBLIC	__real@44fa0000
PUBLIC	__real@45800000
PUBLIC	__real@46000000
PUBLIC	__real@bf800000
PUBLIC	__real@c1000000
PUBLIC	__real@c1a00000
PUBLIC	__xmm@80000000800000008000000080000000
EXTRN	__purecall:PROC
EXTRN	??3@YAXPAXI@Z:PROC				; operator delete
EXTRN	??_U@YAPAXI@Z:PROC				; operator new[]
EXTRN	_atexit:PROC
EXTRN	__Init_thread_header:PROC
EXTRN	__Init_thread_abort:PROC
EXTRN	__Init_thread_footer:PROC
EXTRN	_memmove:PROC
EXTRN	_memset:PROC
EXTRN	_strcat:PROC
EXTRN	_strlen:PROC
EXTRN	___stdio_common_vsprintf:PROC
EXTRN	_free:PROC
EXTRN	_malloc:PROC
EXTRN	_realloc:PROC
EXTRN	_atoi:PROC
EXTRN	_sqrt:PROC
EXTRN	??0matrix4x4@@QAE@XZ:PROC			; matrix4x4::matrix4x4
EXTRN	?Q_atoi@@YAHPBD@Z:PROC				; Q_atoi
EXTRN	?Q_strncmp@@YAHPBD0H@Z:PROC			; Q_strncmp
EXTRN	__wassert:PROC
EXTRN	?UTIL_Remove@@YAXPAVCBaseEntity@@@Z:PROC	; UTIL_Remove
EXTRN	?EntityFactoryDictionary@@YAPAVIEntityFactoryDictionary@@XZ:PROC ; EntityFactoryDictionary
EXTRN	?DBG_EntOfVars@@YAPAUedict_s@@PBUentvars_s@@@Z:PROC ; DBG_EntOfVars
EXTRN	?ENT@@YAPAUedict_s@@PAVCBaseEntity@@@Z:PROC	; ENT
EXTRN	?UTIL_SetSize@@YAXPAUentvars_s@@ABVVector@@1@Z:PROC ; UTIL_SetSize
EXTRN	?UTIL_VecToAngles@@YA?AVVector@@ABV1@@Z:PROC	; UTIL_VecToAngles
EXTRN	?UTIL_FindEntityByClassname@@YAPAVCBaseEntity@@PAV1@PBD@Z:PROC ; UTIL_FindEntityByClassname
EXTRN	?UTIL_MakeVectors@@YAXABVVector@@@Z:PROC	; UTIL_MakeVectors
EXTRN	?UTIL_SetOrigin@@YAXPAVCBaseEntity@@ABVVector@@@Z:PROC ; UTIL_SetOrigin
EXTRN	?UTIL_TraceLine@@YAXABVVector@@0W4IGNORE_MONSTERS@@PAUedict_s@@PAUgametrace_s@@@Z:PROC ; UTIL_TraceLine
EXTRN	?UTIL_PointContents@@YAHABVVector@@@Z:PROC	; UTIL_PointContents
EXTRN	?UTIL_DecalTrace@@YAXPAUgametrace_s@@H@Z:PROC	; UTIL_DecalTrace
EXTRN	?UTIL_StudioDecalTrace@@YAXPAUgametrace_s@@HH@Z:PROC ; UTIL_StudioDecalTrace
EXTRN	?UTIL_BubbleTrail@@YAXVVector@@0H@Z:PROC	; UTIL_BubbleTrail
EXTRN	?UTIL_PrecacheOther@@YAXPBD@Z:PROC		; UTIL_PrecacheOther
EXTRN	?EMIT_SOUND_DYN@@YAXPAUedict_s@@HPBDMMHH@Z:PROC	; EMIT_SOUND_DYN
EXTRN	?UTIL_GetModelType@@YA?AW4modtype_t@@H@Z:PROC	; UTIL_GetModelType
EXTRN	?UTIL_SetSize@@YAXPAVCBaseEntity@@ABVVector@@1@Z:PROC ; UTIL_SetSize
EXTRN	?UTIL_FunctionToName@@YAPBDPAUdatamap_s@@PAX@Z:PROC ; UTIL_FunctionToName
EXTRN	??0CMeshDesc@@QAE@XZ:PROC			; CMeshDesc::CMeshDesc
EXTRN	??1CMeshDesc@@QAE@XZ:PROC			; CMeshDesc::~CMeshDesc
EXTRN	?GetDataDescMap@CBaseEntity@@UAEPAUdatamap_s@@XZ:PROC ; CBaseEntity::GetDataDescMap
EXTRN	?SetAbsOrigin@CBaseEntity@@QAEXABVVector@@@Z:PROC ; CBaseEntity::SetAbsOrigin
EXTRN	?GetAbsOrigin@CBaseEntity@@QBEABVVector@@XZ:PROC ; CBaseEntity::GetAbsOrigin
EXTRN	?SetLocalAngles@CBaseEntity@@QAEXABVVector@@@Z:PROC ; CBaseEntity::SetLocalAngles
EXTRN	?GetLocalAngles@CBaseEntity@@QBEABVVector@@XZ:PROC ; CBaseEntity::GetLocalAngles
EXTRN	?SetLocalVelocity@CBaseEntity@@QAEXABVVector@@@Z:PROC ; CBaseEntity::SetLocalVelocity
EXTRN	?GetLocalVelocity@CBaseEntity@@QBEABVVector@@XZ:PROC ; CBaseEntity::GetLocalVelocity
EXTRN	?SetAbsVelocity@CBaseEntity@@QAEXABVVector@@@Z:PROC ; CBaseEntity::SetAbsVelocity
EXTRN	?GetAbsVelocity@CBaseEntity@@QBEABVVector@@XZ:PROC ; CBaseEntity::GetAbsVelocity
EXTRN	?Save@CBaseEntity@@UAEHAAVCSave@@@Z:PROC	; CBaseEntity::Save
EXTRN	?Restore@CBaseEntity@@UAEHAAVCRestore@@@Z:PROC	; CBaseEntity::Restore
EXTRN	?SetObjectCollisionBox@CBaseEntity@@UAEXXZ:PROC	; CBaseEntity::SetObjectCollisionBox
EXTRN	?SetNextThink@CBaseEntity@@UAEXM@Z:PROC		; CBaseEntity::SetNextThink
EXTRN	?TraceAttack@CBaseEntity@@UAEXPAUentvars_s@@MVVector@@PAUgametrace_s@@H@Z:PROC ; CBaseEntity::TraceAttack
EXTRN	?TakeDamage@CBaseEntity@@UAEHPAUentvars_s@@0MH@Z:PROC ; CBaseEntity::TakeDamage
EXTRN	?TakeHealth@CBaseEntity@@UAEHMH@Z:PROC		; CBaseEntity::TakeHealth
EXTRN	?TakeArmor@CBaseEntity@@UAEHMH@Z:PROC		; CBaseEntity::TakeArmor
EXTRN	?Killed@CBaseEntity@@UAEXPAUentvars_s@@H@Z:PROC	; CBaseEntity::Killed
EXTRN	?TraceBleed@CBaseEntity@@UAEXMVVector@@PAUgametrace_s@@H@Z:PROC ; CBaseEntity::TraceBleed
EXTRN	?DamageDecal@CBaseEntity@@UAEHH@Z:PROC		; CBaseEntity::DamageDecal
EXTRN	?IsInWorld@CBaseEntity@@UAEHH@Z:PROC		; CBaseEntity::IsInWorld
EXTRN	?GetNextTarget@CBaseEntity@@UAEPAV1@XZ:PROC	; CBaseEntity::GetNextTarget
EXTRN	?RelinkEntity@CBaseEntity@@QAEXHPBVVector@@H@Z:PROC ; CBaseEntity::RelinkEntity
EXTRN	?Create@CBaseEntity@@SAPAV1@PADABVVector@@1PAUedict_s@@@Z:PROC ; CBaseEntity::Create
EXTRN	?FVisible@CBaseEntity@@UAEHPAV1@@Z:PROC		; CBaseEntity::FVisible
EXTRN	?FVisible@CBaseEntity@@UAEHABVVector@@@Z:PROC	; CBaseEntity::FVisible
EXTRN	?ShouldCollide@CBaseEntity@@UAEHPAV1@@Z:PROC	; CBaseEntity::ShouldCollide
EXTRN	?ClearEffects@CBaseEntity@@UAEXXZ:PROC		; CBaseEntity::ClearEffects
EXTRN	?KeyValue@CBaseDelay@@UAEXPAUKeyValueData_s@@@Z:PROC ; CBaseDelay::KeyValue
EXTRN	?GetDataDescMap@CBaseDelay@@UAEPAUdatamap_s@@XZ:PROC ; CBaseDelay::GetDataDescMap
EXTRN	?GetDataDescMap@CBaseAnimating@@UAEPAUdatamap_s@@XZ:PROC ; CBaseAnimating::GetDataDescMap
EXTRN	?KeyValue@CBaseToggle@@UAEXPAUKeyValueData_s@@@Z:PROC ; CBaseToggle::KeyValue
EXTRN	?Restore@CBaseToggle@@UAEHAAVCRestore@@@Z:PROC	; CBaseToggle::Restore
EXTRN	?GetDataDescMap@CBaseToggle@@UAEPAUdatamap_s@@XZ:PROC ; CBaseToggle::GetDataDescMap
EXTRN	?GetState@CBaseToggle@@UAE?AW4STATE@@XZ:PROC	; CBaseToggle::GetState
EXTRN	?MoveDone@CBaseToggle@@UAEXXZ:PROC		; CBaseToggle::MoveDone
EXTRN	?GetDataDescMap@CBaseMonster@@UAEPAUdatamap_s@@XZ:PROC ; CBaseMonster::GetDataDescMap
EXTRN	?KeyValue@CBaseMonster@@UAEXPAUKeyValueData_s@@@Z:PROC ; CBaseMonster::KeyValue
EXTRN	?Restore@CBaseMonster@@UAEHAAVCRestore@@@Z:PROC	; CBaseMonster::Restore
EXTRN	?Look@CBaseMonster@@UAEXH@Z:PROC		; CBaseMonster::Look
EXTRN	?RunAI@CBaseMonster@@UAEXXZ:PROC		; CBaseMonster::RunAI
EXTRN	?ShouldFadeOnDeath@CBaseMonster@@UAEHXZ:PROC	; CBaseMonster::ShouldFadeOnDeath
EXTRN	?ChangeYaw@CBaseMonster@@UAEMH@Z:PROC		; CBaseMonster::ChangeYaw
EXTRN	?MonsterThink@CBaseMonster@@UAEXXZ:PROC		; CBaseMonster::MonsterThink
EXTRN	?IRelationship@CBaseMonster@@UAEHPAVCBaseEntity@@@Z:PROC ; CBaseMonster::IRelationship
EXTRN	?MonsterInit@CBaseMonster@@UAEXXZ:PROC		; CBaseMonster::MonsterInit
EXTRN	?MonsterInitDead@CBaseMonster@@UAEXXZ:PROC	; CBaseMonster::MonsterInitDead
EXTRN	?BecomeDead@CBaseMonster@@UAEXXZ:PROC		; CBaseMonster::BecomeDead
EXTRN	?StartMonster@CBaseMonster@@UAEXXZ:PROC		; CBaseMonster::StartMonster
EXTRN	?BestVisibleEnemy@CBaseMonster@@UAEPAVCBaseEntity@@XZ:PROC ; CBaseMonster::BestVisibleEnemy
EXTRN	?FInViewCone@CBaseMonster@@UAEHPAVCBaseEntity@@M@Z:PROC ; CBaseMonster::FInViewCone
EXTRN	?FInViewCone@CBaseMonster@@UAEHPAVVector@@@Z:PROC ; CBaseMonster::FInViewCone
EXTRN	?HandleAnimEvent@CBaseMonster@@UAEXPAUMonsterEvent_t@@@Z:PROC ; CBaseMonster::HandleAnimEvent
EXTRN	?CheckLocalMove@CBaseMonster@@UAEHABVVector@@0PAVCBaseEntity@@PAM@Z:PROC ; CBaseMonster::CheckLocalMove
EXTRN	?Move@CBaseMonster@@UAEXM@Z:PROC		; CBaseMonster::Move
EXTRN	?MoveExecute@CBaseMonster@@UAEXPAVCBaseEntity@@ABVVector@@M@Z:PROC ; CBaseMonster::MoveExecute
EXTRN	?ShouldAdvanceRoute@CBaseMonster@@UAEHM@Z:PROC	; CBaseMonster::ShouldAdvanceRoute
EXTRN	?CheckRangeAttack1@CBaseMonster@@UAEHMM@Z:PROC	; CBaseMonster::CheckRangeAttack1
EXTRN	?CheckRangeAttack2@CBaseMonster@@UAEHMM@Z:PROC	; CBaseMonster::CheckRangeAttack2
EXTRN	?CheckMeleeAttack1@CBaseMonster@@UAEHMM@Z:PROC	; CBaseMonster::CheckMeleeAttack1
EXTRN	?CheckMeleeAttack2@CBaseMonster@@UAEHMM@Z:PROC	; CBaseMonster::CheckMeleeAttack2
EXTRN	?ScheduleFromName@CBaseMonster@@UAEPAUSchedule_t@@PBD@Z:PROC ; CBaseMonster::ScheduleFromName
EXTRN	?StartTask@CBaseMonster@@UAEXPAUTask_t@@@Z:PROC	; CBaseMonster::StartTask
EXTRN	?RunTask@CBaseMonster@@UAEXPAUTask_t@@@Z:PROC	; CBaseMonster::RunTask
EXTRN	?GetScheduleOfType@CBaseMonster@@UAEPAUSchedule_t@@H@Z:PROC ; CBaseMonster::GetScheduleOfType
EXTRN	?GetSchedule@CBaseMonster@@UAEPAUSchedule_t@@XZ:PROC ; CBaseMonster::GetSchedule
EXTRN	?CanPlaySequence@CBaseMonster@@UAEHHH@Z:PROC	; CBaseMonster::CanPlaySequence
EXTRN	?PlaySentence@CBaseMonster@@UAEXPBDMMMH@Z:PROC	; CBaseMonster::PlaySentence
EXTRN	?PlayScriptedSentence@CBaseMonster@@UAEXPBDMMMHPAVCBaseEntity@@H@Z:PROC ; CBaseMonster::PlayScriptedSentence
EXTRN	?SentenceStop@CBaseMonster@@UAEXXZ:PROC		; CBaseMonster::SentenceStop
EXTRN	?GetIdealState@CBaseMonster@@UAE?AW4MONSTERSTATE@@XZ:PROC ; CBaseMonster::GetIdealState
EXTRN	?SetActivity@CBaseMonster@@UAEXW4Activity@@@Z:PROC ; CBaseMonster::SetActivity
EXTRN	?ReportAIState@CBaseMonster@@UAEXXZ:PROC	; CBaseMonster::ReportAIState
EXTRN	?CheckEnemy@CBaseMonster@@UAEHPAVCBaseEntity@@@Z:PROC ; CBaseMonster::CheckEnemy
EXTRN	?FTriangulate@CBaseMonster@@UAEHABVVector@@0MPAVCBaseEntity@@PAV2@@Z:PROC ; CBaseMonster::FTriangulate
EXTRN	?BuildNearestRoute@CBaseMonster@@UAEHVVector@@0MM@Z:PROC ; CBaseMonster::BuildNearestRoute
EXTRN	?FindCover@CBaseMonster@@UAEHVVector@@0MM@Z:PROC ; CBaseMonster::FindCover
EXTRN	?FindRunAway@CBaseMonster@@UAEHVVector@@MM@Z:PROC ; CBaseMonster::FindRunAway
EXTRN	?FCanCheckAttacks@CBaseMonster@@UAEHXZ:PROC	; CBaseMonster::FCanCheckAttacks
EXTRN	?IgnoreConditions@CBaseMonster@@UAEHXZ:PROC	; CBaseMonster::IgnoreConditions
EXTRN	?FValidateHintType@CBaseMonster@@UAEHF@Z:PROC	; CBaseMonster::FValidateHintType
EXTRN	?FCanActiveIdle@CBaseMonster@@UAEHXZ:PROC	; CBaseMonster::FCanActiveIdle
EXTRN	?ISoundMask@CBaseMonster@@UAEHXZ:PROC		; CBaseMonster::ISoundMask
EXTRN	?PBestSound@CBaseMonster@@UAEPAVCSound@@XZ:PROC	; CBaseMonster::PBestSound
EXTRN	?PBestScent@CBaseMonster@@UAEPAVCSound@@XZ:PROC	; CBaseMonster::PBestScent
EXTRN	?FBecomeProne@CBaseMonster@@UAEHXZ:PROC		; CBaseMonster::FBecomeProne
EXTRN	?BarnacleVictimBitten@CBaseMonster@@UAEXPAUentvars_s@@@Z:PROC ; CBaseMonster::BarnacleVictimBitten
EXTRN	?BarnacleVictimReleased@CBaseMonster@@UAEXXZ:PROC ; CBaseMonster::BarnacleVictimReleased
EXTRN	?TraceAttack@CBaseMonster@@UAEXPAUentvars_s@@MVVector@@PAUgametrace_s@@H@Z:PROC ; CBaseMonster::TraceAttack
EXTRN	?GetDeathActivity@CBaseMonster@@UAE?AW4Activity@@XZ:PROC ; CBaseMonster::GetDeathActivity
EXTRN	?Killed@CBaseMonster@@UAEXPAUentvars_s@@H@Z:PROC ; CBaseMonster::Killed
EXTRN	?GibMonster@CBaseMonster@@UAEXXZ:PROC		; CBaseMonster::GibMonster
EXTRN	?DamageDecal@CBaseMonster@@UAEHH@Z:PROC		; CBaseMonster::DamageDecal
EXTRN	?HasHumanGibs@CBaseMonster@@UAEHXZ:PROC		; CBaseMonster::HasHumanGibs
EXTRN	?HasAlienGibs@CBaseMonster@@UAEHXZ:PROC		; CBaseMonster::HasAlienGibs
EXTRN	?FadeMonster@CBaseMonster@@UAEXXZ:PROC		; CBaseMonster::FadeMonster
EXTRN	?GetGunPosition@CBaseMonster@@UAE?AVVector@@XZ:PROC ; CBaseMonster::GetGunPosition
EXTRN	?TakeHealth@CBaseMonster@@UAEHMH@Z:PROC		; CBaseMonster::TakeHealth
EXTRN	?TakeDamage@CBaseMonster@@UAEHPAUentvars_s@@0MH@Z:PROC ; CBaseMonster::TakeDamage
EXTRN	?RadiusDamage@CBaseMonster@@QAEXPAUentvars_s@@0MMHH@Z:PROC ; CBaseMonster::RadiusDamage
EXTRN	?StepSound@CBaseMonster@@UAEXXZ:PROC		; CBaseMonster::StepSound
EXTRN	?ClearEffects@CBaseMonster@@UAEXXZ:PROC		; CBaseMonster::ClearEffects
EXTRN	?PlayPickupSound@@YAXPAVCBaseEntity@@H@Z:PROC	; PlayPickupSound
EXTRN	?PlayClientSound@@YAXPAVCBaseEntity@@HHHVVector@@@Z:PROC ; PlayClientSound
EXTRN	?Spawn@CGrenade@@UAEXXZ:PROC			; CGrenade::Spawn
EXTRN	?Smoke@CGrenade@@QAEXXZ:PROC			; CGrenade::Smoke
EXTRN	?ExplodeTouch@CGrenade@@QAEXPAVCBaseEntity@@@Z:PROC ; CGrenade::ExplodeTouch
EXTRN	?Detonate@CGrenade@@QAEXXZ:PROC			; CGrenade::Detonate
EXTRN	?ClearEffects@CGrenade@@UAEXXZ:PROC		; CGrenade::ClearEffects
EXTRN	?GetDataDescMap@CGrenade@@UAEPAUdatamap_s@@XZ:PROC ; CGrenade::GetDataDescMap
EXTRN	?BounceSound@CGrenade@@UAEXXZ:PROC		; CGrenade::BounceSound
EXTRN	?Killed@CGrenade@@UAEXPAUentvars_s@@H@Z:PROC	; CGrenade::Killed
EXTRN	?SetObjectCollisionBox@CBasePlayerItem@@UAEXXZ:PROC ; CBasePlayerItem::SetObjectCollisionBox
EXTRN	?GetDataDescMap@CBasePlayerItem@@UAEPAUdatamap_s@@XZ:PROC ; CBasePlayerItem::GetDataDescMap
EXTRN	?AddToPlayer@CBasePlayerItem@@UAEHPAVCBasePlayer@@@Z:PROC ; CBasePlayerItem::AddToPlayer
EXTRN	?Respawn@CBasePlayerItem@@UAEPAVCBaseEntity@@XZ:PROC ; CBasePlayerItem::Respawn
EXTRN	?FallInit@CBasePlayerItem@@QAEXXZ:PROC		; CBasePlayerItem::FallInit
EXTRN	?Holster@CBasePlayerItem@@UAEXXZ:PROC		; CBasePlayerItem::Holster
EXTRN	?Drop@CBasePlayerItem@@UAEXXZ:PROC		; CBasePlayerItem::Drop
EXTRN	?Kill@CBasePlayerItem@@UAEXXZ:PROC		; CBasePlayerItem::Kill
EXTRN	?AttachToPlayer@CBasePlayerItem@@UAEXPAVCBasePlayer@@@Z:PROC ; CBasePlayerItem::AttachToPlayer
EXTRN	?GetDataDescMap@CBasePlayerWeapon@@UAEPAUdatamap_s@@XZ:PROC ; CBasePlayerWeapon::GetDataDescMap
EXTRN	?AddToPlayer@CBasePlayerWeapon@@UAEHPAVCBasePlayer@@@Z:PROC ; CBasePlayerWeapon::AddToPlayer
EXTRN	?AddDuplicate@CBasePlayerWeapon@@UAEHPAVCBasePlayerItem@@@Z:PROC ; CBasePlayerWeapon::AddDuplicate
EXTRN	?ExtractAmmo@CBasePlayerWeapon@@UAEHPAV1@@Z:PROC ; CBasePlayerWeapon::ExtractAmmo
EXTRN	?ExtractClipAmmo@CBasePlayerWeapon@@UAEHPAV1@@Z:PROC ; CBasePlayerWeapon::ExtractClipAmmo
EXTRN	?PlayEmptySound@CBasePlayerWeapon@@UAEHXZ:PROC	; CBasePlayerWeapon::PlayEmptySound
EXTRN	?ResetEmptySound@CBasePlayerWeapon@@UAEXXZ:PROC	; CBasePlayerWeapon::ResetEmptySound
EXTRN	?SendWeaponAnim@CBasePlayerWeapon@@UAEXHHH@Z:PROC ; CBasePlayerWeapon::SendWeaponAnim
EXTRN	?CanDeploy@CBasePlayerWeapon@@UAEHXZ:PROC	; CBasePlayerWeapon::CanDeploy
EXTRN	?IsUseable@CBasePlayerWeapon@@UAEHXZ:PROC	; CBasePlayerWeapon::IsUseable
EXTRN	?DefaultDeploy@CBasePlayerWeapon@@QAEHPAD0H0HH@Z:PROC ; CBasePlayerWeapon::DefaultDeploy
EXTRN	?DefaultReload@CBasePlayerWeapon@@QAEHHHMH@Z:PROC ; CBasePlayerWeapon::DefaultReload
EXTRN	?ItemPostFrame@CBasePlayerWeapon@@UAEXXZ:PROC	; CBasePlayerWeapon::ItemPostFrame
EXTRN	?UpdateClientData@CBasePlayerWeapon@@UAEHPAVCBasePlayer@@@Z:PROC ; CBasePlayerWeapon::UpdateClientData
EXTRN	?RetireWeapon@CBasePlayerWeapon@@UAEXXZ:PROC	; CBasePlayerWeapon::RetireWeapon
EXTRN	?Holster@CBasePlayerWeapon@@UAEXXZ:PROC		; CBasePlayerWeapon::Holster
EXTRN	?LowAmmoMsg@CBasePlayerWeapon@@UAEXPAVCBasePlayer@@@Z:PROC ; CBasePlayerWeapon::LowAmmoMsg
EXTRN	?PrimaryAmmoIndex@CBasePlayerWeapon@@UAEHXZ:PROC ; CBasePlayerWeapon::PrimaryAmmoIndex
EXTRN	?SecondaryAmmoIndex@CBasePlayerWeapon@@UAEHXZ:PROC ; CBasePlayerWeapon::SecondaryAmmoIndex
EXTRN	?Spawn@CBasePlayerAmmo@@UAEXXZ:PROC		; CBasePlayerAmmo::Spawn
EXTRN	?Respawn@CBasePlayerAmmo@@UAEPAVCBaseEntity@@XZ:PROC ; CBasePlayerAmmo::Respawn
EXTRN	?GetDataDescMap@CBasePlayerAmmo@@UAEPAUdatamap_s@@XZ:PROC ; CBasePlayerAmmo::GetDataDescMap
EXTRN	?Suspend@CLaserSpot@@QAEXM@Z:PROC		; CLaserSpot::Suspend
EXTRN	?CreateSpot@CLaserSpot@@SAPAV1@XZ:PROC		; CLaserSpot::CreateSpot
EXTRN	?SetAnimation@CBasePlayer@@QAEXW4PLAYER_ANIM@@@Z:PROC ; CBasePlayer::SetAnimation
EXTRN	?FireLoudWeaponRestrictionEntity@CBasePlayer@@QAEXXZ:PROC ; CBasePlayer::FireLoudWeaponRestrictionEntity
EXTRN	?InsertSound@CSoundEnt@@SAXHABVVector@@HMH@Z:PROC ; CSoundEnt::InsertSound
EXTRN	@__security_check_cookie@4:PROC
EXTRN	___CxxFrameHandler3:PROC
EXTRN	__Init_thread_epoch:DWORD
EXTRN	?g_vecZero@@3VVector@@B:BYTE			; g_vecZero
EXTRN	?g_engfuncs@@3Uenginefuncs_s@@A:BYTE		; g_engfuncs
EXTRN	??_7type_info@@6B@:QWORD			; type_info::`vftable'
EXTRN	?gpGlobals@@3PAUglobalvars_t@@A:DWORD		; gpGlobals
EXTRN	?gmsgTempEnt@@3HA:DWORD				; gmsgTempEnt
EXTRN	?g_iSkillLevel@@3HA:DWORD			; g_iSkillLevel
EXTRN	?gmsgWeapPickup@@3HA:DWORD			; gmsgWeapPickup
EXTRN	?m_DataMap@CGrenade@@2Udatamap_s@@A:BYTE	; CGrenade::m_DataMap
EXTRN	?m_DataMap@CBasePlayerWeapon@@2Udatamap_s@@A:BYTE ; CBasePlayerWeapon::m_DataMap
EXTRN	?g_sModelIndexFireball@@3FA:WORD		; g_sModelIndexFireball
EXTRN	?g_sModelIndexSmoke@@3FA:WORD			; g_sModelIndexSmoke
EXTRN	?g_sModelIndexWExplosion@@3FA:WORD		; g_sModelIndexWExplosion
EXTRN	?g_pGameRules@@3PAVCGameRules@@A:DWORD		; g_pGameRules
EXTRN	___security_cookie:DWORD
EXTRN	__fltused:DWORD
EXTRN	__tls_array:DWORD
EXTRN	__tls_index:DWORD
;	COMDAT ?_OptionsStorage@?1??__local_stdio_printf_options@@9@4_KA
_BSS	SEGMENT
?_OptionsStorage@?1??__local_stdio_printf_options@@9@4_KA DQ 01H DUP (?) ; `__local_stdio_printf_options'::`2'::_OptionsStorage
_BSS	ENDS
_BSS	SEGMENT
?weapon_rpg@@3V?$CEntityFactory@VCRpg@@@@A DD 01H DUP (?) ; weapon_rpg
?g_DataMapHolder@CRpg_DataDescInit@@3PAUdatamap_s@@A DD 01H DUP (?) ; CRpg_DataDescInit::g_DataMapHolder
?nameHolder@?1???$DataMapInit@VCRpg@@@@YAPAUdatamap_s@@PAVCRpg@@@Z@4VCDatadescGeneratedNameHolder@@A DB 01cH DUP (?) ; `DataMapInit<CRpg>'::`2'::nameHolder
?$TSS0@?1???$DataMapInit@VCRpg@@@@YAPAUdatamap_s@@PAVCRpg@@@Z@4HA DD 01H DUP (?) ; `DataMapInit<CRpg>'::`2'::$TSS0
?rpg_rocket@@3V?$CEntityFactory@VCRpgRocket@@@@A DD 01H DUP (?) ; rpg_rocket
?g_DataMapHolder@CRpgRocket_DataDescInit@@3PAUdatamap_s@@A DD 01H DUP (?) ; CRpgRocket_DataDescInit::g_DataMapHolder
?nameHolder@?1???$DataMapInit@VCRpgRocket@@@@YAPAUdatamap_s@@PAVCRpgRocket@@@Z@4VCDatadescGeneratedNameHolder@@A DB 01cH DUP (?) ; `DataMapInit<CRpgRocket>'::`2'::nameHolder
?$TSS0@?1???$DataMapInit@VCRpgRocket@@@@YAPAUdatamap_s@@PAVCRpgRocket@@@Z@4HA DD 01H DUP (?) ; `DataMapInit<CRpgRocket>'::`2'::$TSS0
?$TSS1@?1???$DataMapInit@VCRpgRocket@@@@YAPAUdatamap_s@@PAVCRpgRocket@@@Z@4HA DD 01H DUP (?) ; `DataMapInit<CRpgRocket>'::`2'::$TSS1
?robo_rocket2@@3V?$CEntityFactory@VCRoboRocket2@@@@A DD 01H DUP (?) ; robo_rocket2
?g_DataMapHolder@CRoboRocket2_DataDescInit@@3PAUdatamap_s@@A DD 01H DUP (?) ; CRoboRocket2_DataDescInit::g_DataMapHolder
?nameHolder@?1???$DataMapInit@VCRoboRocket2@@@@YAPAUdatamap_s@@PAVCRoboRocket2@@@Z@4VCDatadescGeneratedNameHolder@@A DB 01cH DUP (?) ; `DataMapInit<CRoboRocket2>'::`2'::nameHolder
?$TSS0@?1???$DataMapInit@VCRoboRocket2@@@@YAPAUdatamap_s@@PAVCRoboRocket2@@@Z@4HA DD 01H DUP (?) ; `DataMapInit<CRoboRocket2>'::`2'::$TSS0
?$TSS1@?1???$DataMapInit@VCRoboRocket2@@@@YAPAUdatamap_s@@PAVCRoboRocket2@@@Z@4HA DD 01H DUP (?) ; `DataMapInit<CRoboRocket2>'::`2'::$TSS1
?ammo_rpgclip@@3V?$CEntityFactory@VCRpgAmmo@@@@A DD 01H DUP (?) ; ammo_rpgclip
_BSS	ENDS
CRT$XCU	SEGMENT
?weapon_rpg$initializer$@@3P6AXXZA DD FLAT:??__Eweapon_rpg@@YAXXZ ; weapon_rpg$initializer$
CRT$XCU	ENDS
;	COMDAT __xmm@80000000800000008000000080000000
CONST	SEGMENT
__xmm@80000000800000008000000080000000 DB 00H, 00H, 00H, 080H, 00H, 00H, 00H
	DB	080H, 00H, 00H, 00H, 080H, 00H, 00H, 00H, 080H
CONST	ENDS
;	COMDAT __real@c1a00000
CONST	SEGMENT
__real@c1a00000 DD 0c1a00000r			; -20
CONST	ENDS
;	COMDAT __real@c1000000
CONST	SEGMENT
__real@c1000000 DD 0c1000000r			; -8
CONST	ENDS
;	COMDAT __real@bf800000
CONST	SEGMENT
__real@bf800000 DD 0bf800000r			; -1
CONST	ENDS
;	COMDAT __real@46000000
CONST	SEGMENT
__real@46000000 DD 046000000r			; 8192
CONST	ENDS
;	COMDAT __real@45800000
CONST	SEGMENT
__real@45800000 DD 045800000r			; 4096
CONST	ENDS
;	COMDAT __real@44fa0000
CONST	SEGMENT
__real@44fa0000 DD 044fa0000r			; 2000
CONST	ENDS
;	COMDAT __real@44bb8000
CONST	SEGMENT
__real@44bb8000 DD 044bb8000r			; 1500
CONST	ENDS
;	COMDAT __real@447a0000
CONST	SEGMENT
__real@447a0000 DD 0447a0000r			; 1000
CONST	ENDS
;	COMDAT __real@44440000
CONST	SEGMENT
__real@44440000 DD 044440000r			; 784
CONST	ENDS
;	COMDAT __real@43960000
CONST	SEGMENT
__real@43960000 DD 043960000r			; 300
CONST	ENDS
;	COMDAT __real@437a0000
CONST	SEGMENT
__real@437a0000 DD 0437a0000r			; 250
CONST	ENDS
;	COMDAT __real@43070000
CONST	SEGMENT
__real@43070000 DD 043070000r			; 135
CONST	ENDS
;	COMDAT __real@42800000
CONST	SEGMENT
__real@42800000 DD 042800000r			; 64
CONST	ENDS
;	COMDAT __real@42480000
CONST	SEGMENT
__real@42480000 DD 042480000r			; 50
CONST	ENDS
;	COMDAT __real@42200000
CONST	SEGMENT
__real@42200000 DD 042200000r			; 40
CONST	ENDS
;	COMDAT __real@42000000
CONST	SEGMENT
__real@42000000 DD 042000000r			; 32
CONST	ENDS
;	COMDAT __real@41f00000
CONST	SEGMENT
__real@41f00000 DD 041f00000r			; 30
CONST	ENDS
;	COMDAT __real@41c80000
CONST	SEGMENT
__real@41c80000 DD 041c80000r			; 25
CONST	ENDS
;	COMDAT __real@41c00000
CONST	SEGMENT
__real@41c00000 DD 041c00000r			; 24
CONST	ENDS
;	COMDAT __real@41a00000
CONST	SEGMENT
__real@41a00000 DD 041a00000r			; 20
CONST	ENDS
;	COMDAT __real@41800000
CONST	SEGMENT
__real@41800000 DD 041800000r			; 16
CONST	ENDS
;	COMDAT __real@41700000
CONST	SEGMENT
__real@41700000 DD 041700000r			; 15
CONST	ENDS
;	COMDAT __real@41200000
CONST	SEGMENT
__real@41200000 DD 041200000r			; 10
CONST	ENDS
;	COMDAT __real@41000000
CONST	SEGMENT
__real@41000000 DD 041000000r			; 8
CONST	ENDS
;	COMDAT __real@40a00000
CONST	SEGMENT
__real@40a00000 DD 040a00000r			; 5
CONST	ENDS
;	COMDAT __real@40800000
CONST	SEGMENT
__real@40800000 DD 040800000r			; 4
CONST	ENDS
;	COMDAT __real@4079000000000000
CONST	SEGMENT
__real@4079000000000000 DQ 04079000000000000r	; 400
CONST	ENDS
;	COMDAT __real@40400000
CONST	SEGMENT
__real@40400000 DD 040400000r			; 3
CONST	ENDS
;	COMDAT __real@4018000000000000
CONST	SEGMENT
__real@4018000000000000 DQ 04018000000000000r	; 6
CONST	ENDS
;	COMDAT __real@4014000000000000
CONST	SEGMENT
__real@4014000000000000 DQ 04014000000000000r	; 5
CONST	ENDS
;	COMDAT __real@4008000000000000
CONST	SEGMENT
__real@4008000000000000 DQ 04008000000000000r	; 3
CONST	ENDS
;	COMDAT __real@40066666
CONST	SEGMENT
__real@40066666 DD 040066666r			; 2.1
CONST	ENDS
;	COMDAT __real@4000cccccccccccd
CONST	SEGMENT
__real@4000cccccccccccd DQ 04000cccccccccccdr	; 2.1
CONST	ENDS
;	COMDAT __real@40000000
CONST	SEGMENT
__real@40000000 DD 040000000r			; 2
CONST	ENDS
;	COMDAT __real@3ff8000000000000
CONST	SEGMENT
__real@3ff8000000000000 DQ 03ff8000000000000r	; 1.5
CONST	ENDS
;	COMDAT __real@3ff0000000000000
CONST	SEGMENT
__real@3ff0000000000000 DQ 03ff0000000000000r	; 1
CONST	ENDS
;	COMDAT __real@3feccccccccccccd
CONST	SEGMENT
__real@3feccccccccccccd DQ 03feccccccccccccdr	; 0.9
CONST	ENDS
;	COMDAT __real@3fe999999999999a
CONST	SEGMENT
__real@3fe999999999999a DQ 03fe999999999999ar	; 0.8
CONST	ENDS
;	COMDAT __real@3fe8000000000000
CONST	SEGMENT
__real@3fe8000000000000 DQ 03fe8000000000000r	; 0.75
CONST	ENDS
;	COMDAT __real@3fe3333333333333
CONST	SEGMENT
__real@3fe3333333333333 DQ 03fe3333333333333r	; 0.6
CONST	ENDS
;	COMDAT __real@3fe0000000000000
CONST	SEGMENT
__real@3fe0000000000000 DQ 03fe0000000000000r	; 0.5
CONST	ENDS
;	COMDAT __real@3fd3333333333333
CONST	SEGMENT
__real@3fd3333333333333 DQ 03fd3333333333333r	; 0.3
CONST	ENDS
;	COMDAT __real@3fc999999999999a
CONST	SEGMENT
__real@3fc999999999999a DQ 03fc999999999999ar	; 0.2
CONST	ENDS
;	COMDAT __real@3fc00000
CONST	SEGMENT
__real@3fc00000 DD 03fc00000r			; 1.5
CONST	ENDS
;	COMDAT __real@3f800000
CONST	SEGMENT
__real@3f800000 DD 03f800000r			; 1
CONST	ENDS
;	COMDAT __real@3f4ccccd
CONST	SEGMENT
__real@3f4ccccd DD 03f4ccccdr			; 0.8
CONST	ENDS
;	COMDAT __real@3f4c49ba
CONST	SEGMENT
__real@3f4c49ba DD 03f4c49bar			; 0.798
CONST	ENDS
;	COMDAT __real@3f400000
CONST	SEGMENT
__real@3f400000 DD 03f400000r			; 0.75
CONST	ENDS
;	COMDAT __real@3f19999a
CONST	SEGMENT
__real@3f19999a DD 03f19999ar			; 0.6
CONST	ENDS
;	COMDAT __real@3f0ccccd
CONST	SEGMENT
__real@3f0ccccd DD 03f0ccccdr			; 0.55
CONST	ENDS
;	COMDAT __real@3f000000
CONST	SEGMENT
__real@3f000000 DD 03f000000r			; 0.5
CONST	ENDS
;	COMDAT __real@3ecccccd
CONST	SEGMENT
__real@3ecccccd DD 03ecccccdr			; 0.4
CONST	ENDS
;	COMDAT __real@3e800000
CONST	SEGMENT
__real@3e800000 DD 03e800000r			; 0.25
CONST	ENDS
;	COMDAT __real@3e4ccccd
CONST	SEGMENT
__real@3e4ccccd DD 03e4ccccdr			; 0.2
CONST	ENDS
;	COMDAT __real@3dcccccd
CONST	SEGMENT
__real@3dcccccd DD 03dcccccdr			; 0.1
CONST	ENDS
;	COMDAT __real@3d4ccccd
CONST	SEGMENT
__real@3d4ccccd DD 03d4ccccdr			; 0.05
CONST	ENDS
;	COMDAT __real@00000000
CONST	SEGMENT
__real@00000000 DD 000000000r			; 0
CONST	ENDS
;	COMDAT ??_R1A@?0A@EA@?$CEntityFactory@VCRpgAmmo@@@@8
rdata$r	SEGMENT
??_R1A@?0A@EA@?$CEntityFactory@VCRpgAmmo@@@@8 DD FLAT:??_R0?AV?$CEntityFactory@VCRpgAmmo@@@@@8 ; CEntityFactory<CRpgAmmo>::`RTTI Base Class Descriptor at (0,-1,0,64)'
	DD	01H
	DD	00H
	DD	0ffffffffH
	DD	00H
	DD	040H
	DD	FLAT:??_R3?$CEntityFactory@VCRpgAmmo@@@@8
rdata$r	ENDS
;	COMDAT ??_R2?$CEntityFactory@VCRpgAmmo@@@@8
rdata$r	SEGMENT
??_R2?$CEntityFactory@VCRpgAmmo@@@@8 DD FLAT:??_R1A@?0A@EA@?$CEntityFactory@VCRpgAmmo@@@@8 ; CEntityFactory<CRpgAmmo>::`RTTI Base Class Array'
	DD	FLAT:??_R1A@?0A@EA@IEntityFactory@@8
rdata$r	ENDS
;	COMDAT ??_R3?$CEntityFactory@VCRpgAmmo@@@@8
rdata$r	SEGMENT
??_R3?$CEntityFactory@VCRpgAmmo@@@@8 DD 00H		; CEntityFactory<CRpgAmmo>::`RTTI Class Hierarchy Descriptor'
	DD	00H
	DD	02H
	DD	FLAT:??_R2?$CEntityFactory@VCRpgAmmo@@@@8
rdata$r	ENDS
;	COMDAT ??_R0?AV?$CEntityFactory@VCRpgAmmo@@@@@8
data$r	SEGMENT
??_R0?AV?$CEntityFactory@VCRpgAmmo@@@@@8 DD FLAT:??_7type_info@@6B@ ; CEntityFactory<CRpgAmmo> `RTTI Type Descriptor'
	DD	00H
	DB	'.?AV?$CEntityFactory@VCRpgAmmo@@@@', 00H
data$r	ENDS
;	COMDAT ??_R4?$CEntityFactory@VCRpgAmmo@@@@6B@
rdata$r	SEGMENT
??_R4?$CEntityFactory@VCRpgAmmo@@@@6B@ DD 00H		; CEntityFactory<CRpgAmmo>::`RTTI Complete Object Locator'
	DD	00H
	DD	00H
	DD	FLAT:??_R0?AV?$CEntityFactory@VCRpgAmmo@@@@@8
	DD	FLAT:??_R3?$CEntityFactory@VCRpgAmmo@@@@8
rdata$r	ENDS
;	COMDAT ??_R1A@?0A@EA@CRpgAmmo@@8
rdata$r	SEGMENT
??_R1A@?0A@EA@CRpgAmmo@@8 DD FLAT:??_R0?AVCRpgAmmo@@@8	; CRpgAmmo::`RTTI Base Class Descriptor at (0,-1,0,64)'
	DD	02H
	DD	00H
	DD	0ffffffffH
	DD	00H
	DD	040H
	DD	FLAT:??_R3CRpgAmmo@@8
rdata$r	ENDS
;	COMDAT ??_R2CRpgAmmo@@8
rdata$r	SEGMENT
??_R2CRpgAmmo@@8 DD FLAT:??_R1A@?0A@EA@CRpgAmmo@@8	; CRpgAmmo::`RTTI Base Class Array'
	DD	FLAT:??_R1A@?0A@EA@CBasePlayerAmmo@@8
	DD	FLAT:??_R1A@?0A@EA@CBaseEntity@@8
rdata$r	ENDS
;	COMDAT ??_R3CRpgAmmo@@8
rdata$r	SEGMENT
??_R3CRpgAmmo@@8 DD 00H					; CRpgAmmo::`RTTI Class Hierarchy Descriptor'
	DD	00H
	DD	03H
	DD	FLAT:??_R2CRpgAmmo@@8
rdata$r	ENDS
;	COMDAT ??_R0?AVCRpgAmmo@@@8
data$r	SEGMENT
??_R0?AVCRpgAmmo@@@8 DD FLAT:??_7type_info@@6B@		; CRpgAmmo `RTTI Type Descriptor'
	DD	00H
	DB	'.?AVCRpgAmmo@@', 00H
data$r	ENDS
;	COMDAT ??_R4CRpgAmmo@@6B@
rdata$r	SEGMENT
??_R4CRpgAmmo@@6B@ DD 00H				; CRpgAmmo::`RTTI Complete Object Locator'
	DD	00H
	DD	00H
	DD	FLAT:??_R0?AVCRpgAmmo@@@8
	DD	FLAT:??_R3CRpgAmmo@@8
rdata$r	ENDS
;	COMDAT ??_R1A@?0A@EA@?$CEntityFactory@VCRoboRocket2@@@@8
rdata$r	SEGMENT
??_R1A@?0A@EA@?$CEntityFactory@VCRoboRocket2@@@@8 DD FLAT:??_R0?AV?$CEntityFactory@VCRoboRocket2@@@@@8 ; CEntityFactory<CRoboRocket2>::`RTTI Base Class Descriptor at (0,-1,0,64)'
	DD	01H
	DD	00H
	DD	0ffffffffH
	DD	00H
	DD	040H
	DD	FLAT:??_R3?$CEntityFactory@VCRoboRocket2@@@@8
rdata$r	ENDS
;	COMDAT ??_R2?$CEntityFactory@VCRoboRocket2@@@@8
rdata$r	SEGMENT
??_R2?$CEntityFactory@VCRoboRocket2@@@@8 DD FLAT:??_R1A@?0A@EA@?$CEntityFactory@VCRoboRocket2@@@@8 ; CEntityFactory<CRoboRocket2>::`RTTI Base Class Array'
	DD	FLAT:??_R1A@?0A@EA@IEntityFactory@@8
rdata$r	ENDS
;	COMDAT ??_R3?$CEntityFactory@VCRoboRocket2@@@@8
rdata$r	SEGMENT
??_R3?$CEntityFactory@VCRoboRocket2@@@@8 DD 00H		; CEntityFactory<CRoboRocket2>::`RTTI Class Hierarchy Descriptor'
	DD	00H
	DD	02H
	DD	FLAT:??_R2?$CEntityFactory@VCRoboRocket2@@@@8
rdata$r	ENDS
;	COMDAT ??_R0?AV?$CEntityFactory@VCRoboRocket2@@@@@8
data$r	SEGMENT
??_R0?AV?$CEntityFactory@VCRoboRocket2@@@@@8 DD FLAT:??_7type_info@@6B@ ; CEntityFactory<CRoboRocket2> `RTTI Type Descriptor'
	DD	00H
	DB	'.?AV?$CEntityFactory@VCRoboRocket2@@@@', 00H
data$r	ENDS
;	COMDAT ??_R4?$CEntityFactory@VCRoboRocket2@@@@6B@
rdata$r	SEGMENT
??_R4?$CEntityFactory@VCRoboRocket2@@@@6B@ DD 00H	; CEntityFactory<CRoboRocket2>::`RTTI Complete Object Locator'
	DD	00H
	DD	00H
	DD	FLAT:??_R0?AV?$CEntityFactory@VCRoboRocket2@@@@@8
	DD	FLAT:??_R3?$CEntityFactory@VCRoboRocket2@@@@8
rdata$r	ENDS
;	COMDAT ??_R1A@?0A@EA@CRoboRocket2@@8
rdata$r	SEGMENT
??_R1A@?0A@EA@CRoboRocket2@@8 DD FLAT:??_R0?AVCRoboRocket2@@@8 ; CRoboRocket2::`RTTI Base Class Descriptor at (0,-1,0,64)'
	DD	06H
	DD	00H
	DD	0ffffffffH
	DD	00H
	DD	040H
	DD	FLAT:??_R3CRoboRocket2@@8
rdata$r	ENDS
;	COMDAT ??_R2CRoboRocket2@@8
rdata$r	SEGMENT
??_R2CRoboRocket2@@8 DD FLAT:??_R1A@?0A@EA@CRoboRocket2@@8 ; CRoboRocket2::`RTTI Base Class Array'
	DD	FLAT:??_R1A@?0A@EA@CGrenade@@8
	DD	FLAT:??_R1A@?0A@EA@CBaseMonster@@8
	DD	FLAT:??_R1A@?0A@EA@CBaseToggle@@8
	DD	FLAT:??_R1A@?0A@EA@CBaseAnimating@@8
	DD	FLAT:??_R1A@?0A@EA@CBaseDelay@@8
	DD	FLAT:??_R1A@?0A@EA@CBaseEntity@@8
rdata$r	ENDS
;	COMDAT ??_R3CRoboRocket2@@8
rdata$r	SEGMENT
??_R3CRoboRocket2@@8 DD 00H				; CRoboRocket2::`RTTI Class Hierarchy Descriptor'
	DD	00H
	DD	07H
	DD	FLAT:??_R2CRoboRocket2@@8
rdata$r	ENDS
;	COMDAT ??_R0?AVCRoboRocket2@@@8
data$r	SEGMENT
??_R0?AVCRoboRocket2@@@8 DD FLAT:??_7type_info@@6B@	; CRoboRocket2 `RTTI Type Descriptor'
	DD	00H
	DB	'.?AVCRoboRocket2@@', 00H
data$r	ENDS
;	COMDAT ??_R4CRoboRocket2@@6B@
rdata$r	SEGMENT
??_R4CRoboRocket2@@6B@ DD 00H				; CRoboRocket2::`RTTI Complete Object Locator'
	DD	00H
	DD	00H
	DD	FLAT:??_R0?AVCRoboRocket2@@@8
	DD	FLAT:??_R3CRoboRocket2@@8
rdata$r	ENDS
;	COMDAT ??_R1A@?0A@EA@?$CEntityFactory@VCRpgRocket@@@@8
rdata$r	SEGMENT
??_R1A@?0A@EA@?$CEntityFactory@VCRpgRocket@@@@8 DD FLAT:??_R0?AV?$CEntityFactory@VCRpgRocket@@@@@8 ; CEntityFactory<CRpgRocket>::`RTTI Base Class Descriptor at (0,-1,0,64)'
	DD	01H
	DD	00H
	DD	0ffffffffH
	DD	00H
	DD	040H
	DD	FLAT:??_R3?$CEntityFactory@VCRpgRocket@@@@8
rdata$r	ENDS
;	COMDAT ??_R2?$CEntityFactory@VCRpgRocket@@@@8
rdata$r	SEGMENT
??_R2?$CEntityFactory@VCRpgRocket@@@@8 DD FLAT:??_R1A@?0A@EA@?$CEntityFactory@VCRpgRocket@@@@8 ; CEntityFactory<CRpgRocket>::`RTTI Base Class Array'
	DD	FLAT:??_R1A@?0A@EA@IEntityFactory@@8
rdata$r	ENDS
;	COMDAT ??_R3?$CEntityFactory@VCRpgRocket@@@@8
rdata$r	SEGMENT
??_R3?$CEntityFactory@VCRpgRocket@@@@8 DD 00H		; CEntityFactory<CRpgRocket>::`RTTI Class Hierarchy Descriptor'
	DD	00H
	DD	02H
	DD	FLAT:??_R2?$CEntityFactory@VCRpgRocket@@@@8
rdata$r	ENDS
;	COMDAT ??_R0?AV?$CEntityFactory@VCRpgRocket@@@@@8
data$r	SEGMENT
??_R0?AV?$CEntityFactory@VCRpgRocket@@@@@8 DD FLAT:??_7type_info@@6B@ ; CEntityFactory<CRpgRocket> `RTTI Type Descriptor'
	DD	00H
	DB	'.?AV?$CEntityFactory@VCRpgRocket@@@@', 00H
data$r	ENDS
;	COMDAT ??_R4?$CEntityFactory@VCRpgRocket@@@@6B@
rdata$r	SEGMENT
??_R4?$CEntityFactory@VCRpgRocket@@@@6B@ DD 00H		; CEntityFactory<CRpgRocket>::`RTTI Complete Object Locator'
	DD	00H
	DD	00H
	DD	FLAT:??_R0?AV?$CEntityFactory@VCRpgRocket@@@@@8
	DD	FLAT:??_R3?$CEntityFactory@VCRpgRocket@@@@8
rdata$r	ENDS
;	COMDAT ??_R1A@?0A@EA@CRpgRocket@@8
rdata$r	SEGMENT
??_R1A@?0A@EA@CRpgRocket@@8 DD FLAT:??_R0?AVCRpgRocket@@@8 ; CRpgRocket::`RTTI Base Class Descriptor at (0,-1,0,64)'
	DD	06H
	DD	00H
	DD	0ffffffffH
	DD	00H
	DD	040H
	DD	FLAT:??_R3CRpgRocket@@8
rdata$r	ENDS
;	COMDAT ??_R2CRpgRocket@@8
rdata$r	SEGMENT
??_R2CRpgRocket@@8 DD FLAT:??_R1A@?0A@EA@CRpgRocket@@8	; CRpgRocket::`RTTI Base Class Array'
	DD	FLAT:??_R1A@?0A@EA@CGrenade@@8
	DD	FLAT:??_R1A@?0A@EA@CBaseMonster@@8
	DD	FLAT:??_R1A@?0A@EA@CBaseToggle@@8
	DD	FLAT:??_R1A@?0A@EA@CBaseAnimating@@8
	DD	FLAT:??_R1A@?0A@EA@CBaseDelay@@8
	DD	FLAT:??_R1A@?0A@EA@CBaseEntity@@8
rdata$r	ENDS
;	COMDAT ??_R3CRpgRocket@@8
rdata$r	SEGMENT
??_R3CRpgRocket@@8 DD 00H				; CRpgRocket::`RTTI Class Hierarchy Descriptor'
	DD	00H
	DD	07H
	DD	FLAT:??_R2CRpgRocket@@8
rdata$r	ENDS
;	COMDAT ??_R0?AVCRpgRocket@@@8
data$r	SEGMENT
??_R0?AVCRpgRocket@@@8 DD FLAT:??_7type_info@@6B@	; CRpgRocket `RTTI Type Descriptor'
	DD	00H
	DB	'.?AVCRpgRocket@@', 00H
data$r	ENDS
;	COMDAT ??_R4CRpgRocket@@6B@
rdata$r	SEGMENT
??_R4CRpgRocket@@6B@ DD 00H				; CRpgRocket::`RTTI Complete Object Locator'
	DD	00H
	DD	00H
	DD	FLAT:??_R0?AVCRpgRocket@@@8
	DD	FLAT:??_R3CRpgRocket@@8
rdata$r	ENDS
;	COMDAT ??_R1A@?0A@EA@?$CEntityFactory@VCRpg@@@@8
rdata$r	SEGMENT
??_R1A@?0A@EA@?$CEntityFactory@VCRpg@@@@8 DD FLAT:??_R0?AV?$CEntityFactory@VCRpg@@@@@8 ; CEntityFactory<CRpg>::`RTTI Base Class Descriptor at (0,-1,0,64)'
	DD	01H
	DD	00H
	DD	0ffffffffH
	DD	00H
	DD	040H
	DD	FLAT:??_R3?$CEntityFactory@VCRpg@@@@8
rdata$r	ENDS
;	COMDAT ??_R2?$CEntityFactory@VCRpg@@@@8
rdata$r	SEGMENT
??_R2?$CEntityFactory@VCRpg@@@@8 DD FLAT:??_R1A@?0A@EA@?$CEntityFactory@VCRpg@@@@8 ; CEntityFactory<CRpg>::`RTTI Base Class Array'
	DD	FLAT:??_R1A@?0A@EA@IEntityFactory@@8
rdata$r	ENDS
;	COMDAT ??_R3?$CEntityFactory@VCRpg@@@@8
rdata$r	SEGMENT
??_R3?$CEntityFactory@VCRpg@@@@8 DD 00H			; CEntityFactory<CRpg>::`RTTI Class Hierarchy Descriptor'
	DD	00H
	DD	02H
	DD	FLAT:??_R2?$CEntityFactory@VCRpg@@@@8
rdata$r	ENDS
;	COMDAT ??_R0?AV?$CEntityFactory@VCRpg@@@@@8
data$r	SEGMENT
??_R0?AV?$CEntityFactory@VCRpg@@@@@8 DD FLAT:??_7type_info@@6B@ ; CEntityFactory<CRpg> `RTTI Type Descriptor'
	DD	00H
	DB	'.?AV?$CEntityFactory@VCRpg@@@@', 00H
data$r	ENDS
;	COMDAT ??_R4?$CEntityFactory@VCRpg@@@@6B@
rdata$r	SEGMENT
??_R4?$CEntityFactory@VCRpg@@@@6B@ DD 00H		; CEntityFactory<CRpg>::`RTTI Complete Object Locator'
	DD	00H
	DD	00H
	DD	FLAT:??_R0?AV?$CEntityFactory@VCRpg@@@@@8
	DD	FLAT:??_R3?$CEntityFactory@VCRpg@@@@8
rdata$r	ENDS
;	COMDAT ??_R1A@?0A@EA@CRpg@@8
rdata$r	SEGMENT
??_R1A@?0A@EA@CRpg@@8 DD FLAT:??_R0?AVCRpg@@@8		; CRpg::`RTTI Base Class Descriptor at (0,-1,0,64)'
	DD	05H
	DD	00H
	DD	0ffffffffH
	DD	00H
	DD	040H
	DD	FLAT:??_R3CRpg@@8
rdata$r	ENDS
;	COMDAT ??_R2CRpg@@8
rdata$r	SEGMENT
??_R2CRpg@@8 DD	FLAT:??_R1A@?0A@EA@CRpg@@8		; CRpg::`RTTI Base Class Array'
	DD	FLAT:??_R1A@?0A@EA@CBasePlayerWeapon@@8
	DD	FLAT:??_R1A@?0A@EA@CBasePlayerItem@@8
	DD	FLAT:??_R1A@?0A@EA@CBaseAnimating@@8
	DD	FLAT:??_R1A@?0A@EA@CBaseDelay@@8
	DD	FLAT:??_R1A@?0A@EA@CBaseEntity@@8
rdata$r	ENDS
;	COMDAT ??_R3CRpg@@8
rdata$r	SEGMENT
??_R3CRpg@@8 DD	00H					; CRpg::`RTTI Class Hierarchy Descriptor'
	DD	00H
	DD	06H
	DD	FLAT:??_R2CRpg@@8
rdata$r	ENDS
;	COMDAT ??_R0?AVCRpg@@@8
data$r	SEGMENT
??_R0?AVCRpg@@@8 DD FLAT:??_7type_info@@6B@		; CRpg `RTTI Type Descriptor'
	DD	00H
	DB	'.?AVCRpg@@', 00H
data$r	ENDS
;	COMDAT ??_R4CRpg@@6B@
rdata$r	SEGMENT
??_R4CRpg@@6B@ DD 00H					; CRpg::`RTTI Complete Object Locator'
	DD	00H
	DD	00H
	DD	FLAT:??_R0?AVCRpg@@@8
	DD	FLAT:??_R3CRpg@@8
rdata$r	ENDS
;	COMDAT ??_R1A@?0A@EA@CBasePlayerAmmo@@8
rdata$r	SEGMENT
??_R1A@?0A@EA@CBasePlayerAmmo@@8 DD FLAT:??_R0?AVCBasePlayerAmmo@@@8 ; CBasePlayerAmmo::`RTTI Base Class Descriptor at (0,-1,0,64)'
	DD	01H
	DD	00H
	DD	0ffffffffH
	DD	00H
	DD	040H
	DD	FLAT:??_R3CBasePlayerAmmo@@8
rdata$r	ENDS
;	COMDAT ??_R2CBasePlayerAmmo@@8
rdata$r	SEGMENT
??_R2CBasePlayerAmmo@@8 DD FLAT:??_R1A@?0A@EA@CBasePlayerAmmo@@8 ; CBasePlayerAmmo::`RTTI Base Class Array'
	DD	FLAT:??_R1A@?0A@EA@CBaseEntity@@8
rdata$r	ENDS
;	COMDAT ??_R3CBasePlayerAmmo@@8
rdata$r	SEGMENT
??_R3CBasePlayerAmmo@@8 DD 00H				; CBasePlayerAmmo::`RTTI Class Hierarchy Descriptor'
	DD	00H
	DD	02H
	DD	FLAT:??_R2CBasePlayerAmmo@@8
rdata$r	ENDS
;	COMDAT ??_R0?AVCBasePlayerAmmo@@@8
data$r	SEGMENT
??_R0?AVCBasePlayerAmmo@@@8 DD FLAT:??_7type_info@@6B@	; CBasePlayerAmmo `RTTI Type Descriptor'
	DD	00H
	DB	'.?AVCBasePlayerAmmo@@', 00H
data$r	ENDS
;	COMDAT ??_R4CBasePlayerAmmo@@6B@
rdata$r	SEGMENT
??_R4CBasePlayerAmmo@@6B@ DD 00H			; CBasePlayerAmmo::`RTTI Complete Object Locator'
	DD	00H
	DD	00H
	DD	FLAT:??_R0?AVCBasePlayerAmmo@@@8
	DD	FLAT:??_R3CBasePlayerAmmo@@8
rdata$r	ENDS
;	COMDAT ??_R1A@?0A@EA@CBasePlayerWeapon@@8
rdata$r	SEGMENT
??_R1A@?0A@EA@CBasePlayerWeapon@@8 DD FLAT:??_R0?AVCBasePlayerWeapon@@@8 ; CBasePlayerWeapon::`RTTI Base Class Descriptor at (0,-1,0,64)'
	DD	04H
	DD	00H
	DD	0ffffffffH
	DD	00H
	DD	040H
	DD	FLAT:??_R3CBasePlayerWeapon@@8
rdata$r	ENDS
;	COMDAT ??_R2CBasePlayerWeapon@@8
rdata$r	SEGMENT
??_R2CBasePlayerWeapon@@8 DD FLAT:??_R1A@?0A@EA@CBasePlayerWeapon@@8 ; CBasePlayerWeapon::`RTTI Base Class Array'
	DD	FLAT:??_R1A@?0A@EA@CBasePlayerItem@@8
	DD	FLAT:??_R1A@?0A@EA@CBaseAnimating@@8
	DD	FLAT:??_R1A@?0A@EA@CBaseDelay@@8
	DD	FLAT:??_R1A@?0A@EA@CBaseEntity@@8
rdata$r	ENDS
;	COMDAT ??_R3CBasePlayerWeapon@@8
rdata$r	SEGMENT
??_R3CBasePlayerWeapon@@8 DD 00H			; CBasePlayerWeapon::`RTTI Class Hierarchy Descriptor'
	DD	00H
	DD	05H
	DD	FLAT:??_R2CBasePlayerWeapon@@8
rdata$r	ENDS
;	COMDAT ??_R0?AVCBasePlayerWeapon@@@8
data$r	SEGMENT
??_R0?AVCBasePlayerWeapon@@@8 DD FLAT:??_7type_info@@6B@ ; CBasePlayerWeapon `RTTI Type Descriptor'
	DD	00H
	DB	'.?AVCBasePlayerWeapon@@', 00H
data$r	ENDS
;	COMDAT ??_R4CBasePlayerWeapon@@6B@
rdata$r	SEGMENT
??_R4CBasePlayerWeapon@@6B@ DD 00H			; CBasePlayerWeapon::`RTTI Complete Object Locator'
	DD	00H
	DD	00H
	DD	FLAT:??_R0?AVCBasePlayerWeapon@@@8
	DD	FLAT:??_R3CBasePlayerWeapon@@8
rdata$r	ENDS
;	COMDAT ??_R1A@?0A@EA@CGrenade@@8
rdata$r	SEGMENT
??_R1A@?0A@EA@CGrenade@@8 DD FLAT:??_R0?AVCGrenade@@@8	; CGrenade::`RTTI Base Class Descriptor at (0,-1,0,64)'
	DD	05H
	DD	00H
	DD	0ffffffffH
	DD	00H
	DD	040H
	DD	FLAT:??_R3CGrenade@@8
rdata$r	ENDS
;	COMDAT ??_R2CGrenade@@8
rdata$r	SEGMENT
??_R2CGrenade@@8 DD FLAT:??_R1A@?0A@EA@CGrenade@@8	; CGrenade::`RTTI Base Class Array'
	DD	FLAT:??_R1A@?0A@EA@CBaseMonster@@8
	DD	FLAT:??_R1A@?0A@EA@CBaseToggle@@8
	DD	FLAT:??_R1A@?0A@EA@CBaseAnimating@@8
	DD	FLAT:??_R1A@?0A@EA@CBaseDelay@@8
	DD	FLAT:??_R1A@?0A@EA@CBaseEntity@@8
rdata$r	ENDS
;	COMDAT ??_R3CGrenade@@8
rdata$r	SEGMENT
??_R3CGrenade@@8 DD 00H					; CGrenade::`RTTI Class Hierarchy Descriptor'
	DD	00H
	DD	06H
	DD	FLAT:??_R2CGrenade@@8
rdata$r	ENDS
;	COMDAT ??_R0?AVCGrenade@@@8
data$r	SEGMENT
??_R0?AVCGrenade@@@8 DD FLAT:??_7type_info@@6B@		; CGrenade `RTTI Type Descriptor'
	DD	00H
	DB	'.?AVCGrenade@@', 00H
data$r	ENDS
;	COMDAT ??_R4CGrenade@@6B@
rdata$r	SEGMENT
??_R4CGrenade@@6B@ DD 00H				; CGrenade::`RTTI Complete Object Locator'
	DD	00H
	DD	00H
	DD	FLAT:??_R0?AVCGrenade@@@8
	DD	FLAT:??_R3CGrenade@@8
rdata$r	ENDS
;	COMDAT ??_R4CBaseToggle@@6B@
rdata$r	SEGMENT
??_R4CBaseToggle@@6B@ DD 00H				; CBaseToggle::`RTTI Complete Object Locator'
	DD	00H
	DD	00H
	DD	FLAT:??_R0?AVCBaseToggle@@@8
	DD	FLAT:??_R3CBaseToggle@@8
rdata$r	ENDS
;	COMDAT ??_R4CBaseAnimating@@6B@
rdata$r	SEGMENT
??_R4CBaseAnimating@@6B@ DD 00H				; CBaseAnimating::`RTTI Complete Object Locator'
	DD	00H
	DD	00H
	DD	FLAT:??_R0?AVCBaseAnimating@@@8
	DD	FLAT:??_R3CBaseAnimating@@8
rdata$r	ENDS
;	COMDAT ??_R4CBaseDelay@@6B@
rdata$r	SEGMENT
??_R4CBaseDelay@@6B@ DD 00H				; CBaseDelay::`RTTI Complete Object Locator'
	DD	00H
	DD	00H
	DD	FLAT:??_R0?AVCBaseDelay@@@8
	DD	FLAT:??_R3CBaseDelay@@8
rdata$r	ENDS
;	COMDAT ??_R2CBaseToggle@@8
rdata$r	SEGMENT
??_R2CBaseToggle@@8 DD FLAT:??_R1A@?0A@EA@CBaseToggle@@8 ; CBaseToggle::`RTTI Base Class Array'
	DD	FLAT:??_R1A@?0A@EA@CBaseAnimating@@8
	DD	FLAT:??_R1A@?0A@EA@CBaseDelay@@8
	DD	FLAT:??_R1A@?0A@EA@CBaseEntity@@8
rdata$r	ENDS
;	COMDAT ??_R3CBaseToggle@@8
rdata$r	SEGMENT
??_R3CBaseToggle@@8 DD 00H				; CBaseToggle::`RTTI Class Hierarchy Descriptor'
	DD	00H
	DD	04H
	DD	FLAT:??_R2CBaseToggle@@8
rdata$r	ENDS
;	COMDAT ??_R0?AVCBaseToggle@@@8
data$r	SEGMENT
??_R0?AVCBaseToggle@@@8 DD FLAT:??_7type_info@@6B@	; CBaseToggle `RTTI Type Descriptor'
	DD	00H
	DB	'.?AVCBaseToggle@@', 00H
data$r	ENDS
;	COMDAT ??_R1A@?0A@EA@CBaseToggle@@8
rdata$r	SEGMENT
??_R1A@?0A@EA@CBaseToggle@@8 DD FLAT:??_R0?AVCBaseToggle@@@8 ; CBaseToggle::`RTTI Base Class Descriptor at (0,-1,0,64)'
	DD	03H
	DD	00H
	DD	0ffffffffH
	DD	00H
	DD	040H
	DD	FLAT:??_R3CBaseToggle@@8
rdata$r	ENDS
;	COMDAT ??_R1A@?0A@EA@CBaseMonster@@8
rdata$r	SEGMENT
??_R1A@?0A@EA@CBaseMonster@@8 DD FLAT:??_R0?AVCBaseMonster@@@8 ; CBaseMonster::`RTTI Base Class Descriptor at (0,-1,0,64)'
	DD	04H
	DD	00H
	DD	0ffffffffH
	DD	00H
	DD	040H
	DD	FLAT:??_R3CBaseMonster@@8
rdata$r	ENDS
;	COMDAT ??_R2CBaseMonster@@8
rdata$r	SEGMENT
??_R2CBaseMonster@@8 DD FLAT:??_R1A@?0A@EA@CBaseMonster@@8 ; CBaseMonster::`RTTI Base Class Array'
	DD	FLAT:??_R1A@?0A@EA@CBaseToggle@@8
	DD	FLAT:??_R1A@?0A@EA@CBaseAnimating@@8
	DD	FLAT:??_R1A@?0A@EA@CBaseDelay@@8
	DD	FLAT:??_R1A@?0A@EA@CBaseEntity@@8
rdata$r	ENDS
;	COMDAT ??_R3CBaseMonster@@8
rdata$r	SEGMENT
??_R3CBaseMonster@@8 DD 00H				; CBaseMonster::`RTTI Class Hierarchy Descriptor'
	DD	00H
	DD	05H
	DD	FLAT:??_R2CBaseMonster@@8
rdata$r	ENDS
;	COMDAT ??_R0?AVCBaseMonster@@@8
data$r	SEGMENT
??_R0?AVCBaseMonster@@@8 DD FLAT:??_7type_info@@6B@	; CBaseMonster `RTTI Type Descriptor'
	DD	00H
	DB	'.?AVCBaseMonster@@', 00H
data$r	ENDS
;	COMDAT ??_R4CBaseMonster@@6B@
rdata$r	SEGMENT
??_R4CBaseMonster@@6B@ DD 00H				; CBaseMonster::`RTTI Complete Object Locator'
	DD	00H
	DD	00H
	DD	FLAT:??_R0?AVCBaseMonster@@@8
	DD	FLAT:??_R3CBaseMonster@@8
rdata$r	ENDS
;	COMDAT ??_R2CBaseDelay@@8
rdata$r	SEGMENT
??_R2CBaseDelay@@8 DD FLAT:??_R1A@?0A@EA@CBaseDelay@@8	; CBaseDelay::`RTTI Base Class Array'
	DD	FLAT:??_R1A@?0A@EA@CBaseEntity@@8
rdata$r	ENDS
;	COMDAT ??_R3CBaseDelay@@8
rdata$r	SEGMENT
??_R3CBaseDelay@@8 DD 00H				; CBaseDelay::`RTTI Class Hierarchy Descriptor'
	DD	00H
	DD	02H
	DD	FLAT:??_R2CBaseDelay@@8
rdata$r	ENDS
;	COMDAT ??_R0?AVCBaseDelay@@@8
data$r	SEGMENT
??_R0?AVCBaseDelay@@@8 DD FLAT:??_7type_info@@6B@	; CBaseDelay `RTTI Type Descriptor'
	DD	00H
	DB	'.?AVCBaseDelay@@', 00H
data$r	ENDS
;	COMDAT ??_R1A@?0A@EA@CBaseDelay@@8
rdata$r	SEGMENT
??_R1A@?0A@EA@CBaseDelay@@8 DD FLAT:??_R0?AVCBaseDelay@@@8 ; CBaseDelay::`RTTI Base Class Descriptor at (0,-1,0,64)'
	DD	01H
	DD	00H
	DD	0ffffffffH
	DD	00H
	DD	040H
	DD	FLAT:??_R3CBaseDelay@@8
rdata$r	ENDS
;	COMDAT ??_R2CBaseAnimating@@8
rdata$r	SEGMENT
??_R2CBaseAnimating@@8 DD FLAT:??_R1A@?0A@EA@CBaseAnimating@@8 ; CBaseAnimating::`RTTI Base Class Array'
	DD	FLAT:??_R1A@?0A@EA@CBaseDelay@@8
	DD	FLAT:??_R1A@?0A@EA@CBaseEntity@@8
rdata$r	ENDS
;	COMDAT ??_R3CBaseAnimating@@8
rdata$r	SEGMENT
??_R3CBaseAnimating@@8 DD 00H				; CBaseAnimating::`RTTI Class Hierarchy Descriptor'
	DD	00H
	DD	03H
	DD	FLAT:??_R2CBaseAnimating@@8
rdata$r	ENDS
;	COMDAT ??_R0?AVCBaseAnimating@@@8
data$r	SEGMENT
??_R0?AVCBaseAnimating@@@8 DD FLAT:??_7type_info@@6B@	; CBaseAnimating `RTTI Type Descriptor'
	DD	00H
	DB	'.?AVCBaseAnimating@@', 00H
data$r	ENDS
;	COMDAT ??_R1A@?0A@EA@CBaseAnimating@@8
rdata$r	SEGMENT
??_R1A@?0A@EA@CBaseAnimating@@8 DD FLAT:??_R0?AVCBaseAnimating@@@8 ; CBaseAnimating::`RTTI Base Class Descriptor at (0,-1,0,64)'
	DD	02H
	DD	00H
	DD	0ffffffffH
	DD	00H
	DD	040H
	DD	FLAT:??_R3CBaseAnimating@@8
rdata$r	ENDS
;	COMDAT ??_R1A@?0A@EA@CBasePlayerItem@@8
rdata$r	SEGMENT
??_R1A@?0A@EA@CBasePlayerItem@@8 DD FLAT:??_R0?AVCBasePlayerItem@@@8 ; CBasePlayerItem::`RTTI Base Class Descriptor at (0,-1,0,64)'
	DD	03H
	DD	00H
	DD	0ffffffffH
	DD	00H
	DD	040H
	DD	FLAT:??_R3CBasePlayerItem@@8
rdata$r	ENDS
;	COMDAT ??_R2CBasePlayerItem@@8
rdata$r	SEGMENT
??_R2CBasePlayerItem@@8 DD FLAT:??_R1A@?0A@EA@CBasePlayerItem@@8 ; CBasePlayerItem::`RTTI Base Class Array'
	DD	FLAT:??_R1A@?0A@EA@CBaseAnimating@@8
	DD	FLAT:??_R1A@?0A@EA@CBaseDelay@@8
	DD	FLAT:??_R1A@?0A@EA@CBaseEntity@@8
rdata$r	ENDS
;	COMDAT ??_R3CBasePlayerItem@@8
rdata$r	SEGMENT
??_R3CBasePlayerItem@@8 DD 00H				; CBasePlayerItem::`RTTI Class Hierarchy Descriptor'
	DD	00H
	DD	04H
	DD	FLAT:??_R2CBasePlayerItem@@8
rdata$r	ENDS
;	COMDAT ??_R0?AVCBasePlayerItem@@@8
data$r	SEGMENT
??_R0?AVCBasePlayerItem@@@8 DD FLAT:??_7type_info@@6B@	; CBasePlayerItem `RTTI Type Descriptor'
	DD	00H
	DB	'.?AVCBasePlayerItem@@', 00H
data$r	ENDS
;	COMDAT ??_R4CBasePlayerItem@@6B@
rdata$r	SEGMENT
??_R4CBasePlayerItem@@6B@ DD 00H			; CBasePlayerItem::`RTTI Complete Object Locator'
	DD	00H
	DD	00H
	DD	FLAT:??_R0?AVCBasePlayerItem@@@8
	DD	FLAT:??_R3CBasePlayerItem@@8
rdata$r	ENDS
;	COMDAT ??_R1A@?0A@EA@IEntityFactory@@8
rdata$r	SEGMENT
??_R1A@?0A@EA@IEntityFactory@@8 DD FLAT:??_R0?AVIEntityFactory@@@8 ; IEntityFactory::`RTTI Base Class Descriptor at (0,-1,0,64)'
	DD	00H
	DD	00H
	DD	0ffffffffH
	DD	00H
	DD	040H
	DD	FLAT:??_R3IEntityFactory@@8
rdata$r	ENDS
;	COMDAT ??_R2IEntityFactory@@8
rdata$r	SEGMENT
??_R2IEntityFactory@@8 DD FLAT:??_R1A@?0A@EA@IEntityFactory@@8 ; IEntityFactory::`RTTI Base Class Array'
rdata$r	ENDS
;	COMDAT ??_R3IEntityFactory@@8
rdata$r	SEGMENT
??_R3IEntityFactory@@8 DD 00H				; IEntityFactory::`RTTI Class Hierarchy Descriptor'
	DD	00H
	DD	01H
	DD	FLAT:??_R2IEntityFactory@@8
rdata$r	ENDS
;	COMDAT ??_R0?AVIEntityFactory@@@8
data$r	SEGMENT
??_R0?AVIEntityFactory@@@8 DD FLAT:??_7type_info@@6B@	; IEntityFactory `RTTI Type Descriptor'
	DD	00H
	DB	'.?AVIEntityFactory@@', 00H
data$r	ENDS
;	COMDAT ??_R4IEntityFactory@@6B@
rdata$r	SEGMENT
??_R4IEntityFactory@@6B@ DD 00H				; IEntityFactory::`RTTI Complete Object Locator'
	DD	00H
	DD	00H
	DD	FLAT:??_R0?AVIEntityFactory@@@8
	DD	FLAT:??_R3IEntityFactory@@8
rdata$r	ENDS
;	COMDAT ??_R1A@?0A@EA@CBaseEntity@@8
rdata$r	SEGMENT
??_R1A@?0A@EA@CBaseEntity@@8 DD FLAT:??_R0?AVCBaseEntity@@@8 ; CBaseEntity::`RTTI Base Class Descriptor at (0,-1,0,64)'
	DD	00H
	DD	00H
	DD	0ffffffffH
	DD	00H
	DD	040H
	DD	FLAT:??_R3CBaseEntity@@8
rdata$r	ENDS
;	COMDAT ??_R2CBaseEntity@@8
rdata$r	SEGMENT
??_R2CBaseEntity@@8 DD FLAT:??_R1A@?0A@EA@CBaseEntity@@8 ; CBaseEntity::`RTTI Base Class Array'
rdata$r	ENDS
;	COMDAT ??_R3CBaseEntity@@8
rdata$r	SEGMENT
??_R3CBaseEntity@@8 DD 00H				; CBaseEntity::`RTTI Class Hierarchy Descriptor'
	DD	00H
	DD	01H
	DD	FLAT:??_R2CBaseEntity@@8
rdata$r	ENDS
;	COMDAT ??_R0?AVCBaseEntity@@@8
data$r	SEGMENT
??_R0?AVCBaseEntity@@@8 DD FLAT:??_7type_info@@6B@	; CBaseEntity `RTTI Type Descriptor'
	DD	00H
	DB	'.?AVCBaseEntity@@', 00H
data$r	ENDS
;	COMDAT ??_R4CBaseEntity@@6B@
rdata$r	SEGMENT
??_R4CBaseEntity@@6B@ DD 00H				; CBaseEntity::`RTTI Complete Object Locator'
	DD	00H
	DD	00H
	DD	FLAT:??_R0?AVCBaseEntity@@@8
	DD	FLAT:??_R3CBaseEntity@@8
rdata$r	ENDS
;	COMDAT ??_C@_1BE@OPPFELHC@?$AAm?$AA_?$AAp?$AAM?$AAe?$AAm?$AAo?$AAr?$AAy?$AA?$AA@
CONST	SEGMENT
??_C@_1BE@OPPFELHC@?$AAm?$AA_?$AAp?$AAM?$AAe?$AAm?$AAo?$AAr?$AAy?$AA?$AA@ DB 'm'
	DB	00H, '_', 00H, 'p', 00H, 'M', 00H, 'e', 00H, 'm', 00H, 'o', 00H
	DB	'r', 00H, 'y', 00H, 00H, 00H			; `string'
CONST	ENDS
;	COMDAT ??_C@_13COJANIEC@?$AA0?$AA?$AA@
CONST	SEGMENT
??_C@_13COJANIEC@?$AA0?$AA?$AA@ DB '0', 00H, 00H, 00H	; `string'
CONST	ENDS
;	COMDAT ??_C@_1BA@PKCLMAEA@?$AAn?$AAu?$AAm?$AA?5?$AA?$DO?$AA?5?$AA0?$AA?$AA@
CONST	SEGMENT
??_C@_1BA@PKCLMAEA@?$AAn?$AAu?$AAm?$AA?5?$AA?$DO?$AA?5?$AA0?$AA?$AA@ DB 'n'
	DB	00H, 'u', 00H, 'm', 00H, ' ', 00H, '>', 00H, ' ', 00H, '0', 00H
	DB	00H, 00H					; `string'
CONST	ENDS
;	COMDAT ??_C@_1GM@CDMJDFPA@?$AAI?$AAs?$AAV?$AAa?$AAl?$AAi?$AAd?$AAI?$AAn?$AAd?$AAe?$AAx?$AA?$CI?$AAe?$AAl?$AAe?$AAm?$AA?$CJ?$AA?5?$AA?$HM?$AA?$HM?$AA?5?$AA?$CI?$AA?5?$AAm?$AA_?$AAS?$AAi?$AAz?$AAe?$AA?5?$AA?$DN@
CONST	SEGMENT
??_C@_1GM@CDMJDFPA@?$AAI?$AAs?$AAV?$AAa?$AAl?$AAi?$AAd?$AAI?$AAn?$AAd?$AAe?$AAx?$AA?$CI?$AAe?$AAl?$AAe?$AAm?$AA?$CJ?$AA?5?$AA?$HM?$AA?$HM?$AA?5?$AA?$CI?$AA?5?$AAm?$AA_?$AAS?$AAi?$AAz?$AAe?$AA?5?$AA?$DN@ DB 'I'
	DB	00H, 's', 00H, 'V', 00H, 'a', 00H, 'l', 00H, 'i', 00H, 'd', 00H
	DB	'I', 00H, 'n', 00H, 'd', 00H, 'e', 00H, 'x', 00H, '(', 00H, 'e'
	DB	00H, 'l', 00H, 'e', 00H, 'm', 00H, ')', 00H, ' ', 00H, '|', 00H
	DB	'|', 00H, ' ', 00H, '(', 00H, ' ', 00H, 'm', 00H, '_', 00H, 'S'
	DB	00H, 'i', 00H, 'z', 00H, 'e', 00H, ' ', 00H, '=', 00H, '=', 00H
	DB	' ', 00H, '0', 00H, ' ', 00H, ')', 00H, ' ', 00H, '|', 00H, '|'
	DB	00H, ' ', 00H, '(', 00H, ' ', 00H, 'n', 00H, 'u', 00H, 'm', 00H
	DB	' ', 00H, '=', 00H, '=', 00H, ' ', 00H, '0', 00H, ' ', 00H, ')'
	DB	00H, 00H, 00H				; `string'
CONST	ENDS
;	COMDAT ??_C@_1FA@BPFBJKPF@?$AA?$CI?$AAe?$AAl?$AAe?$AAm?$AA?5?$AA?$DN?$AA?$DN?$AA?5?$AAC?$AAo?$AAu?$AAn?$AAt?$AA?$CI?$AA?$CJ?$AA?$CJ?$AA?5?$AA?$HM?$AA?$HM?$AA?5?$AAI?$AAs?$AAV?$AAa?$AAl?$AAi?$AAd?$AAI?$AAn?$AAd?$AAe@
CONST	SEGMENT
??_C@_1FA@BPFBJKPF@?$AA?$CI?$AAe?$AAl?$AAe?$AAm?$AA?5?$AA?$DN?$AA?$DN?$AA?5?$AAC?$AAo?$AAu?$AAn?$AAt?$AA?$CI?$AA?$CJ?$AA?$CJ?$AA?5?$AA?$HM?$AA?$HM?$AA?5?$AAI?$AAs?$AAV?$AAa?$AAl?$AAi?$AAd?$AAI?$AAn?$AAd?$AAe@ DB '('
	DB	00H, 'e', 00H, 'l', 00H, 'e', 00H, 'm', 00H, ' ', 00H, '=', 00H
	DB	'=', 00H, ' ', 00H, 'C', 00H, 'o', 00H, 'u', 00H, 'n', 00H, 't'
	DB	00H, '(', 00H, ')', 00H, ')', 00H, ' ', 00H, '|', 00H, '|', 00H
	DB	' ', 00H, 'I', 00H, 's', 00H, 'V', 00H, 'a', 00H, 'l', 00H, 'i'
	DB	00H, 'd', 00H, 'I', 00H, 'n', 00H, 'd', 00H, 'e', 00H, 'x', 00H
	DB	'(', 00H, 'e', 00H, 'l', 00H, 'e', 00H, 'm', 00H, ')', 00H, 00H
	DB	00H						; `string'
CONST	ENDS
;	COMDAT ??_C@_1BM@CKILBAKK@?$AAI?$AAs?$AAI?$AAd?$AAx?$AAV?$AAa?$AAl?$AAi?$AAd?$AA?$CI?$AAi?$AA?$CJ?$AA?$AA@
CONST	SEGMENT
??_C@_1BM@CKILBAKK@?$AAI?$AAs?$AAI?$AAd?$AAx?$AAV?$AAa?$AAl?$AAi?$AAd?$AA?$CI?$AAi?$AA?$CJ?$AA?$AA@ DB 'I'
	DB	00H, 's', 00H, 'I', 00H, 'd', 00H, 'x', 00H, 'V', 00H, 'a', 00H
	DB	'l', 00H, 'i', 00H, 'd', 00H, '(', 00H, 'i', 00H, ')', 00H, 00H
	DB	00H						; `string'
CONST	ENDS
;	COMDAT ??_C@_1BM@PFNFCCHH@?$AA?$CB?$AAI?$AAs?$AAR?$AAe?$AAa?$AAd?$AAO?$AAn?$AAl?$AAy?$AA?$CI?$AA?$CJ?$AA?$AA@
CONST	SEGMENT
??_C@_1BM@PFNFCCHH@?$AA?$CB?$AAI?$AAs?$AAR?$AAe?$AAa?$AAd?$AAO?$AAn?$AAl?$AAy?$AA?$CI?$AA?$CJ?$AA?$AA@ DB '!'
	DB	00H, 'I', 00H, 's', 00H, 'R', 00H, 'e', 00H, 'a', 00H, 'd', 00H
	DB	'O', 00H, 'n', 00H, 'l', 00H, 'y', 00H, '(', 00H, ')', 00H, 00H
	DB	00H						; `string'
CONST	ENDS
;	COMDAT ??_C@_1BO@FOOHAONO@?$AAn?$AAG?$AAr?$AAo?$AAw?$AAS?$AAi?$AAz?$AAe?$AA?5?$AA?$DO?$AA?$DN?$AA?5?$AA0?$AA?$AA@
CONST	SEGMENT
??_C@_1BO@FOOHAONO@?$AAn?$AAG?$AAr?$AAo?$AAw?$AAS?$AAi?$AAz?$AAe?$AA?5?$AA?$DO?$AA?$DN?$AA?5?$AA0?$AA?$AA@ DB 'n'
	DB	00H, 'G', 00H, 'r', 00H, 'o', 00H, 'w', 00H, 'S', 00H, 'i', 00H
	DB	'z', 00H, 'e', 00H, ' ', 00H, '>', 00H, '=', 00H, ' ', 00H, '0'
	DB	00H, 00H, 00H				; `string'
CONST	ENDS
;	COMDAT ??_C@_1JE@CIIIAKCN@?$AAd?$AA?3?$AA?2?$AA?$CB?$AAd?$AAi?$AAf?$AAf?$AAu?$AAs?$AAi?$AAo?$AAn?$AA?5?$AA2?$AA0?$AA2?$AA0?$AA?2?$AAs?$AAo?$AAu?$AAr?$AAc?$AAe?$AA?5?$AAc?$AAo?$AAd?$AAe?$AA?5?$AA2@
CONST	SEGMENT
??_C@_1JE@CIIIAKCN@?$AAd?$AA?3?$AA?2?$AA?$CB?$AAd?$AAi?$AAf?$AAf?$AAu?$AAs?$AAi?$AAo?$AAn?$AA?5?$AA2?$AA0?$AA2?$AA0?$AA?2?$AAs?$AAo?$AAu?$AAr?$AAc?$AAe?$AA?5?$AAc?$AAo?$AAd?$AAe?$AA?5?$AA2@ DB 'd'
	DB	00H, ':', 00H, '\', 00H, '!', 00H, 'd', 00H, 'i', 00H, 'f', 00H
	DB	'f', 00H, 'u', 00H, 's', 00H, 'i', 00H, 'o', 00H, 'n', 00H, ' '
	DB	00H, '2', 00H, '0', 00H, '2', 00H, '0', 00H, '\', 00H, 's', 00H
	DB	'o', 00H, 'u', 00H, 'r', 00H, 'c', 00H, 'e', 00H, ' ', 00H, 'c'
	DB	00H, 'o', 00H, 'd', 00H, 'e', 00H, ' ', 00H, '2', 00H, '0', 00H
	DB	'2', 00H, '2', 00H, '\', 00H, 'c', 00H, 'l', 00H, 'i', 00H, 'e'
	DB	00H, 'n', 00H, 't', 00H, '-', 00H, 's', 00H, 'e', 00H, 'r', 00H
	DB	'v', 00H, 'e', 00H, 'r', 00H, '\', 00H, 'g', 00H, 'a', 00H, 'm'
	DB	00H, 'e', 00H, '_', 00H, 's', 00H, 'h', 00H, 'a', 00H, 'r', 00H
	DB	'e', 00H, 'd', 00H, '\', 00H, 'u', 00H, 't', 00H, 'l', 00H, 'm'
	DB	00H, 'e', 00H, 'm', 00H, 'o', 00H, 'r', 00H, 'y', 00H, '.', 00H
	DB	'h', 00H, 00H, 00H				; `string'
CONST	ENDS
;	COMDAT ??_C@_1IK@DGJDJNN@?$AA?$CI?$AAB?$AAa?$AAs?$AAe?$AA?$CI?$AA?$CJ?$AA?5?$AA?$DN?$AA?$DN?$AA?5?$AAN?$AAU?$AAL?$AAL?$AA?$CJ?$AA?5?$AA?$HM?$AA?$HM?$AA?5?$AA?$CI?$AA?$CG?$AAs?$AAr?$AAc?$AA?5?$AA?$DM?$AA?5?$AAB?$AAa?$AAs?$AAe@
CONST	SEGMENT
??_C@_1IK@DGJDJNN@?$AA?$CI?$AAB?$AAa?$AAs?$AAe?$AA?$CI?$AA?$CJ?$AA?5?$AA?$DN?$AA?$DN?$AA?5?$AAN?$AAU?$AAL?$AAL?$AA?$CJ?$AA?5?$AA?$HM?$AA?$HM?$AA?5?$AA?$CI?$AA?$CG?$AAs?$AAr?$AAc?$AA?5?$AA?$DM?$AA?5?$AAB?$AAa?$AAs?$AAe@ DB '('
	DB	00H, 'B', 00H, 'a', 00H, 's', 00H, 'e', 00H, '(', 00H, ')', 00H
	DB	' ', 00H, '=', 00H, '=', 00H, ' ', 00H, 'N', 00H, 'U', 00H, 'L'
	DB	00H, 'L', 00H, ')', 00H, ' ', 00H, '|', 00H, '|', 00H, ' ', 00H
	DB	'(', 00H, '&', 00H, 's', 00H, 'r', 00H, 'c', 00H, ' ', 00H, '<'
	DB	00H, ' ', 00H, 'B', 00H, 'a', 00H, 's', 00H, 'e', 00H, '(', 00H
	DB	')', 00H, ')', 00H, ' ', 00H, '|', 00H, '|', 00H, ' ', 00H, '('
	DB	00H, '&', 00H, 's', 00H, 'r', 00H, 'c', 00H, ' ', 00H, '>', 00H
	DB	'=', 00H, ' ', 00H, '(', 00H, 'B', 00H, 'a', 00H, 's', 00H, 'e'
	DB	00H, '(', 00H, ')', 00H, ' ', 00H, '+', 00H, ' ', 00H, 'C', 00H
	DB	'o', 00H, 'u', 00H, 'n', 00H, 't', 00H, '(', 00H, ')', 00H, ')'
	DB	00H, ' ', 00H, ')', 00H, 00H, 00H		; `string'
CONST	ENDS
;	COMDAT ??_C@_1JC@EMNIBBBG@?$AAd?$AA?3?$AA?2?$AA?$CB?$AAd?$AAi?$AAf?$AAf?$AAu?$AAs?$AAi?$AAo?$AAn?$AA?5?$AA2?$AA0?$AA2?$AA0?$AA?2?$AAs?$AAo?$AAu?$AAr?$AAc?$AAe?$AA?5?$AAc?$AAo?$AAd?$AAe?$AA?5?$AA2@
CONST	SEGMENT
??_C@_1JC@EMNIBBBG@?$AAd?$AA?3?$AA?2?$AA?$CB?$AAd?$AAi?$AAf?$AAf?$AAu?$AAs?$AAi?$AAo?$AAn?$AA?5?$AA2?$AA0?$AA2?$AA0?$AA?2?$AAs?$AAo?$AAu?$AAr?$AAc?$AAe?$AA?5?$AAc?$AAo?$AAd?$AAe?$AA?5?$AA2@ DB 'd'
	DB	00H, ':', 00H, '\', 00H, '!', 00H, 'd', 00H, 'i', 00H, 'f', 00H
	DB	'f', 00H, 'u', 00H, 's', 00H, 'i', 00H, 'o', 00H, 'n', 00H, ' '
	DB	00H, '2', 00H, '0', 00H, '2', 00H, '0', 00H, '\', 00H, 's', 00H
	DB	'o', 00H, 'u', 00H, 'r', 00H, 'c', 00H, 'e', 00H, ' ', 00H, 'c'
	DB	00H, 'o', 00H, 'd', 00H, 'e', 00H, ' ', 00H, '2', 00H, '0', 00H
	DB	'2', 00H, '2', 00H, '\', 00H, 'c', 00H, 'l', 00H, 'i', 00H, 'e'
	DB	00H, 'n', 00H, 't', 00H, '-', 00H, 's', 00H, 'e', 00H, 'r', 00H
	DB	'v', 00H, 'e', 00H, 'r', 00H, '\', 00H, 'g', 00H, 'a', 00H, 'm'
	DB	00H, 'e', 00H, '_', 00H, 's', 00H, 'h', 00H, 'a', 00H, 'r', 00H
	DB	'e', 00H, 'd', 00H, '\', 00H, 'u', 00H, 't', 00H, 'l', 00H, 'a'
	DB	00H, 'r', 00H, 'r', 00H, 'a', 00H, 'y', 00H, '.', 00H, 'h', 00H
	DB	00H, 00H					; `string'
CONST	ENDS
;	COMDAT ??_C@_0N@FDODGIHO@ammo_rpgclip?$AA@
CONST	SEGMENT
??_C@_0N@FDODGIHO@ammo_rpgclip?$AA@ DB 'ammo_rpgclip', 00H ; `string'
CONST	ENDS
;	COMDAT ??_7?$CEntityFactory@VCRpgAmmo@@@@6B@
CONST	SEGMENT
??_7?$CEntityFactory@VCRpgAmmo@@@@6B@ DD FLAT:??_R4?$CEntityFactory@VCRpgAmmo@@@@6B@ ; CEntityFactory<CRpgAmmo>::`vftable'
	DD	FLAT:?Create@?$CEntityFactory@VCRpgAmmo@@@@UAEPAVCBaseEntity@@PBDPAUentvars_s@@@Z
	DD	FLAT:?Destroy@?$CEntityFactory@VCRpgAmmo@@@@UAEXPAVCBaseEntity@@@Z
	DD	FLAT:?GetEntitySize@?$CEntityFactory@VCRpgAmmo@@@@UAEIXZ
CONST	ENDS
;	COMDAT ??_C@_0BF@ONHNEHHH@models?1w_rpgammo?4mdl?$AA@
CONST	SEGMENT
??_C@_0BF@ONHNEHHH@models?1w_rpgammo?4mdl?$AA@ DB 'models/w_rpgammo.mdl', 00H ; `string'
CONST	ENDS
;	COMDAT ??_7CRpgAmmo@@6B@
CONST	SEGMENT
??_7CRpgAmmo@@6B@ DD FLAT:??_R4CRpgAmmo@@6B@		; CRpgAmmo::`vftable'
	DD	FLAT:?GetDataDescMap@CBasePlayerAmmo@@UAEPAUdatamap_s@@XZ
	DD	FLAT:?Spawn@CRpgAmmo@@EAEXXZ
	DD	FLAT:?Precache@CRpgAmmo@@EAEXXZ
	DD	FLAT:?KeyValue@CBaseEntity@@UAEXPAUKeyValueData_s@@@Z
	DD	FLAT:?Save@CBaseEntity@@UAEHAAVCSave@@@Z
	DD	FLAT:?Restore@CBaseEntity@@UAEHAAVCRestore@@@Z
	DD	FLAT:?ObjectCaps@CBaseEntity@@UAEHXZ
	DD	FLAT:?Activate@CBaseEntity@@UAEXXZ
	DD	FLAT:?OnChangeLevel@CBaseEntity@@UAEXXZ
	DD	FLAT:?OnTeleport@CBaseEntity@@UAEXXZ
	DD	FLAT:?PortalSleep@CBaseEntity@@UAEXM@Z
	DD	FLAT:?StartMessage@CBaseEntity@@UAEXPAVCBasePlayer@@@Z
	DD	FLAT:?GetPosition@CBaseEntity@@UAEMXZ
	DD	FLAT:?OnChangeParent@CBaseEntity@@UAEXXZ
	DD	FLAT:?OnClearParent@CBaseEntity@@UAEXXZ
	DD	FLAT:?OnRemove@CBaseEntity@@UAEXXZ
	DD	FLAT:?SetObjectCollisionBox@CBaseEntity@@UAEXXZ
	DD	FLAT:?Classify@CBaseEntity@@UAEHXZ
	DD	FLAT:?DeathNotice@CBaseEntity@@UAEXPAUentvars_s@@@Z
	DD	FLAT:?IsRigidBody@CBaseEntity@@UAEHXZ
	DD	FLAT:?SetNextThink@CBaseEntity@@UAEXM@Z
	DD	FLAT:?GetState@CBaseEntity@@UAE?AW4STATE@@PAV1@@Z
	DD	FLAT:?GetState@CBaseEntity@@UAE?AW4STATE@@XZ
	DD	FLAT:?TraceAttack@CBaseEntity@@UAEXPAUentvars_s@@MVVector@@PAUgametrace_s@@H@Z
	DD	FLAT:?TakeDamage@CBaseEntity@@UAEHPAUentvars_s@@0MH@Z
	DD	FLAT:?TakeHealth@CBaseEntity@@UAEHMH@Z
	DD	FLAT:?TakeArmor@CBaseEntity@@UAEHMH@Z
	DD	FLAT:?Killed@CBaseEntity@@UAEXPAUentvars_s@@H@Z
	DD	FLAT:?BloodColor@CBaseEntity@@UAEHXZ
	DD	FLAT:?TraceBleed@CBaseEntity@@UAEXMVVector@@PAUgametrace_s@@H@Z
	DD	FLAT:?IsTriggered@CBaseEntity@@UAEHPAV1@@Z
	DD	FLAT:?MyMonsterPointer@CBaseEntity@@UAEPAVCBaseMonster@@XZ
	DD	FLAT:?MySquadMonsterPointer@CBaseEntity@@UAEPAVCSquadMonster@@XZ
	DD	FLAT:?GetToggleState@CBaseEntity@@UAEHXZ
	DD	FLAT:?AddPoints@CBaseEntity@@UAEXHH@Z
	DD	FLAT:?AddPointsToTeam@CBaseEntity@@UAEXHH@Z
	DD	FLAT:?AddPlayerItem@CBaseEntity@@UAEHPAVCBasePlayerItem@@@Z
	DD	FLAT:?RemovePlayerItem@CBaseEntity@@UAEHPAVCBasePlayerItem@@@Z
	DD	FLAT:?GiveAmmo@CBaseEntity@@UAEHHPADH@Z
	DD	FLAT:?GetDelay@CBaseEntity@@UAEMXZ
	DD	FLAT:?IsMoving@CBaseEntity@@UAEHXZ
	DD	FLAT:?OverrideReset@CBaseEntity@@UAEXXZ
	DD	FLAT:?TransferReset@CBaseEntity@@UAEXXZ
	DD	FLAT:?DamageDecal@CBaseEntity@@UAEHH@Z
	DD	FLAT:?SetToggleState@CBaseEntity@@UAEXH@Z
	DD	FLAT:?StartSneaking@CBaseEntity@@UAEXXZ
	DD	FLAT:?StopSneaking@CBaseEntity@@UAEXXZ
	DD	FLAT:?OnControls@CBaseEntity@@UAEHPAV1@@Z
	DD	FLAT:?IsSneaking@CBaseEntity@@UAEHXZ
	DD	FLAT:?IsAlive@CBaseEntity@@UAEHXZ
	DD	FLAT:?IsBSPModel@CBaseEntity@@UAEHXZ
	DD	FLAT:?IsCustomModel@CBaseEntity@@UAEHXZ
	DD	FLAT:?ReflectGauss@CBaseEntity@@UAEHXZ
	DD	FLAT:?HasTarget@CBaseEntity@@UAEHH@Z
	DD	FLAT:?IsInWorld@CBaseEntity@@UAEHH@Z
	DD	FLAT:?IsPlayer@CBaseEntity@@UAEHXZ
	DD	FLAT:?IsNetClient@CBaseEntity@@UAEHXZ
	DD	FLAT:?IsMonster@CBaseEntity@@UAEHXZ
	DD	FLAT:?IsPushable@CBaseEntity@@UAEHXZ
	DD	FLAT:?IsProjectile@CBaseEntity@@UAEHXZ
	DD	FLAT:?IsFuncScreen@CBaseEntity@@UAEHXZ
	DD	FLAT:?IsPortal@CBaseEntity@@UAEHXZ
	DD	FLAT:?IsTank@CBaseEntity@@UAEHXZ
	DD	FLAT:?IsMover@CBaseEntity@@UAEHXZ
	DD	FLAT:?IsBreakable@CBaseEntity@@UAEHXZ
	DD	FLAT:?TeamID@CBaseEntity@@UAEPBDXZ
	DD	FLAT:?AddSpawnFlags@CBaseEntity@@UAEXH@Z
	DD	FLAT:?HasSpawnFlags@CBaseEntity@@UBE_NH@Z
	DD	FLAT:?SetFadeDistance@CBaseEntity@@UAEXH@Z
	DD	FLAT:?SetFlag@CBaseEntity@@UAEXH@Z
	DD	FLAT:?HasFlag@CBaseEntity@@UBE_NH@Z
	DD	FLAT:?RemoveFlag@CBaseEntity@@UAEXH@Z
	DD	FLAT:?SetNullModel@CBaseEntity@@UAEXXZ
	DD	FLAT:?OnPickupObject@CBaseEntity@@UAEXXZ
	DD	FLAT:?OnDropObject@CBaseEntity@@UAEXXZ
	DD	FLAT:?GetNextTarget@CBaseEntity@@UAEPAV1@XZ
	DD	FLAT:?Think@CBaseEntity@@UAEXXZ
	DD	FLAT:?Use@CBaseEntity@@UAEXPAV1@0W4USE_TYPE@@M@Z
	DD	FLAT:?Touch@CBaseEntity@@UAEXPAV1@@Z
	DD	FLAT:?Blocked@CBaseEntity@@UAEXPAV1@@Z
	DD	FLAT:?MoveDone@CBaseEntity@@UAEXXZ
	DD	FLAT:?Respawn@CBasePlayerAmmo@@UAEPAVCBaseEntity@@XZ
	DD	FLAT:?UpdateOwner@CBaseEntity@@UAEXXZ
	DD	FLAT:?FBecomeProne@CBaseEntity@@UAEHXZ
	DD	FLAT:?Center@CBaseEntity@@UAE?AVVector@@XZ
	DD	FLAT:?EyePosition@CBaseEntity@@UAE?AVVector@@XZ
	DD	FLAT:?EarPosition@CBaseEntity@@UAE?AVVector@@XZ
	DD	FLAT:?BodyTarget@CBaseEntity@@UAE?AVVector@@ABV2@@Z
	DD	FLAT:?IsPointSized@CBaseEntity@@UBEHXZ
	DD	FLAT:?Illumination@CBaseEntity@@UAEHXZ
	DD	FLAT:?FVisible@CBaseEntity@@UAEHABVVector@@@Z
	DD	FLAT:?FVisible@CBaseEntity@@UAEHPAV1@@Z
	DD	FLAT:?ShouldCollide@CBaseEntity@@UAEHPAV1@@Z
	DD	FLAT:?ClearEffects@CBaseEntity@@UAEXXZ
	DD	FLAT:?AddAmmo@CRpgAmmo@@EAEHPAVCBaseEntity@@@Z
CONST	ENDS
;	COMDAT ??_C@_08MNDBFPDE@?9attack?6?$AA@
CONST	SEGMENT
??_C@_08MNDBFPDE@?9attack?6?$AA@ DB '-attack', 0aH, 00H	; `string'
CONST	ENDS
;	COMDAT ??_C@_03GBMANNME@rpg?$AA@
CONST	SEGMENT
??_C@_03GBMANNME@rpg?$AA@ DB 'rpg', 00H			; `string'
CONST	ENDS
;	COMDAT ??_C@_07DCMGFMFH@rockets?$AA@
CONST	SEGMENT
??_C@_07DCMGFMFH@rockets?$AA@ DB 'rockets', 00H		; `string'
CONST	ENDS
;	COMDAT ??_C@_0BG@MDAACEKK@weapons?1glauncher?4wav?$AA@
CONST	SEGMENT
??_C@_0BG@MDAACEKK@weapons?1glauncher?4wav?$AA@ DB 'weapons/glauncher.wav'
	DB	00H						; `string'
CONST	ENDS
;	COMDAT ??_C@_0BI@IJKHDNAN@weapons?1rocketfire1?4wav?$AA@
CONST	SEGMENT
??_C@_0BI@IJKHDNAN@weapons?1rocketfire1?4wav?$AA@ DB 'weapons/rocketfire1'
	DB	'.wav', 00H					; `string'
CONST	ENDS
;	COMDAT ??_C@_0BD@BADMCPNB@items?19mmclip1?4wav?$AA@
CONST	SEGMENT
??_C@_0BD@BADMCPNB@items?19mmclip1?4wav?$AA@ DB 'items/9mmclip1.wav', 00H ; `string'
CONST	ENDS
;	COMDAT ??_C@_0BB@IPEABBGA@models?1p_rpg?4mdl?$AA@
CONST	SEGMENT
??_C@_0BB@IPEABBGA@models?1p_rpg?4mdl?$AA@ DB 'models/p_rpg.mdl', 00H ; `string'
CONST	ENDS
;	COMDAT ??_C@_0BB@ICFOGBCH@models?1v_rpg?4mdl?$AA@
CONST	SEGMENT
??_C@_0BB@ICFOGBCH@models?1v_rpg?4mdl?$AA@ DB 'models/v_rpg.mdl', 00H ; `string'
CONST	ENDS
;	COMDAT ??_C@_0BB@GNJMAKBJ@models?1w_rpg?4mdl?$AA@
CONST	SEGMENT
??_C@_0BB@GNJMAKBJ@models?1w_rpg?4mdl?$AA@ DB 'models/w_rpg.mdl', 00H ; `string'
CONST	ENDS
;	COMDAT ??_C@_0BL@GIKGMOAO@?$CGCRoboRocket2?3?3FollowThink?$AA@
CONST	SEGMENT
??_C@_0BL@GIKGMOAO@?$CGCRoboRocket2?3?3FollowThink?$AA@ DB '&CRoboRocket2'
	DB	'::FollowThink', 00H				; `string'
CONST	ENDS
;	COMDAT ??_C@_0N@GFJBOHAK@spark_shower?$AA@
CONST	SEGMENT
??_C@_0N@GFJBOHAK@spark_shower?$AA@ DB 'spark_shower', 00H ; `string'
CONST	ENDS
;	COMDAT ??_C@_0BB@KDDMBFAP@?$CGCGrenade?3?3Smoke?$AA@
CONST	SEGMENT
??_C@_0BB@KDDMBFAP@?$CGCGrenade?3?3Smoke?$AA@ DB '&CGrenade::Smoke', 00H ; `string'
CONST	ENDS
;	COMDAT ??_C@_0BE@NEFCKBPJ@weapons?1debris3?4wav?$AA@
CONST	SEGMENT
??_C@_0BE@NEFCKBPJ@weapons?1debris3?4wav?$AA@ DB 'weapons/debris3.wav', 00H ; `string'
CONST	ENDS
;	COMDAT ??_C@_0BE@BPAOHCFM@weapons?1debris2?4wav?$AA@
CONST	SEGMENT
??_C@_0BE@BPAOHCFM@weapons?1debris2?4wav?$AA@ DB 'weapons/debris2.wav', 00H ; `string'
CONST	ENDS
;	COMDAT ??_C@_0BE@JJJKAAPC@weapons?1debris1?4wav?$AA@
CONST	SEGMENT
??_C@_0BE@JJJKAAPC@weapons?1debris1?4wav?$AA@ DB 'weapons/debris1.wav', 00H ; `string'
CONST	ENDS
;	COMDAT ??_C@_0BL@NJOANMDL@?$CGCRoboRocket2?3?3RocketTouch?$AA@
CONST	SEGMENT
??_C@_0BL@NJOANMDL@?$CGCRoboRocket2?3?3RocketTouch?$AA@ DB '&CRoboRocket2'
	DB	'::RocketTouch', 00H				; `string'
CONST	ENDS
;	COMDAT ??_C@_0BL@DPADIFNC@?$CGCRoboRocket2?3?3IgniteThink?$AA@
CONST	SEGMENT
??_C@_0BL@DPADIFNC@?$CGCRoboRocket2?3?3IgniteThink?$AA@ DB '&CRoboRocket2'
	DB	'::IgniteThink', 00H				; `string'
CONST	ENDS
;	COMDAT ??_C@_0O@KKBBKKAJ@RocketExplode?$AA@
CONST	SEGMENT
??_C@_0O@KKBBKKAJ@RocketExplode?$AA@ DB 'RocketExplode', 00H ; `string'
CONST	ENDS
;	COMDAT ??_C@_0N@LECDHPON@robo_rocket2?$AA@
CONST	SEGMENT
??_C@_0N@LECDHPON@robo_rocket2?$AA@ DB 'robo_rocket2', 00H ; `string'
CONST	ENDS
;	COMDAT ??_7?$CEntityFactory@VCRoboRocket2@@@@6B@
CONST	SEGMENT
??_7?$CEntityFactory@VCRoboRocket2@@@@6B@ DD FLAT:??_R4?$CEntityFactory@VCRoboRocket2@@@@6B@ ; CEntityFactory<CRoboRocket2>::`vftable'
	DD	FLAT:?Create@?$CEntityFactory@VCRoboRocket2@@@@UAEPAVCBaseEntity@@PBDPAUentvars_s@@@Z
	DD	FLAT:?Destroy@?$CEntityFactory@VCRoboRocket2@@@@UAEXPAVCBaseEntity@@@Z
	DD	FLAT:?GetEntitySize@?$CEntityFactory@VCRoboRocket2@@@@UAEIXZ
CONST	ENDS
;	COMDAT ??_7CRoboRocket2@@6B@
CONST	SEGMENT
??_7CRoboRocket2@@6B@ DD FLAT:??_R4CRoboRocket2@@6B@	; CRoboRocket2::`vftable'
	DD	FLAT:?GetDataDescMap@CRoboRocket2@@UAEPAUdatamap_s@@XZ
	DD	FLAT:?Spawn@CRoboRocket2@@UAEXXZ
	DD	FLAT:?Precache@CRoboRocket2@@UAEXXZ
	DD	FLAT:?KeyValue@CBaseMonster@@UAEXPAUKeyValueData_s@@@Z
	DD	FLAT:?Save@CBaseEntity@@UAEHAAVCSave@@@Z
	DD	FLAT:?Restore@CBaseMonster@@UAEHAAVCRestore@@@Z
	DD	FLAT:?ObjectCaps@CBaseEntity@@UAEHXZ
	DD	FLAT:?Activate@CBaseEntity@@UAEXXZ
	DD	FLAT:?OnChangeLevel@CBaseEntity@@UAEXXZ
	DD	FLAT:?OnTeleport@CRoboRocket2@@UAEXXZ
	DD	FLAT:?PortalSleep@CBaseEntity@@UAEXM@Z
	DD	FLAT:?StartMessage@CBaseEntity@@UAEXPAVCBasePlayer@@@Z
	DD	FLAT:?GetPosition@CBaseEntity@@UAEMXZ
	DD	FLAT:?OnChangeParent@CBaseEntity@@UAEXXZ
	DD	FLAT:?OnClearParent@CBaseEntity@@UAEXXZ
	DD	FLAT:?OnRemove@CBaseEntity@@UAEXXZ
	DD	FLAT:?SetObjectCollisionBox@CBaseEntity@@UAEXXZ
	DD	FLAT:?Classify@CBaseMonster@@UAEHXZ
	DD	FLAT:?DeathNotice@CBaseEntity@@UAEXPAUentvars_s@@@Z
	DD	FLAT:?IsRigidBody@CBaseEntity@@UAEHXZ
	DD	FLAT:?SetNextThink@CBaseEntity@@UAEXM@Z
	DD	FLAT:?GetState@CBaseEntity@@UAE?AW4STATE@@PAV1@@Z
	DD	FLAT:?GetState@CBaseToggle@@UAE?AW4STATE@@XZ
	DD	FLAT:?TraceAttack@CBaseMonster@@UAEXPAUentvars_s@@MVVector@@PAUgametrace_s@@H@Z
	DD	FLAT:?TakeDamage@CBaseMonster@@UAEHPAUentvars_s@@0MH@Z
	DD	FLAT:?TakeHealth@CBaseMonster@@UAEHMH@Z
	DD	FLAT:?TakeArmor@CBaseEntity@@UAEHMH@Z
	DD	FLAT:?Killed@CGrenade@@UAEXPAUentvars_s@@H@Z
	DD	FLAT:?BloodColor@CGrenade@@UAEHXZ
	DD	FLAT:?TraceBleed@CBaseEntity@@UAEXMVVector@@PAUgametrace_s@@H@Z
	DD	FLAT:?IsTriggered@CBaseEntity@@UAEHPAV1@@Z
	DD	FLAT:?MyMonsterPointer@CBaseMonster@@UAEPAV1@XZ
	DD	FLAT:?MySquadMonsterPointer@CBaseEntity@@UAEPAVCSquadMonster@@XZ
	DD	FLAT:?GetToggleState@CBaseToggle@@UAEHXZ
	DD	FLAT:?AddPoints@CBaseEntity@@UAEXHH@Z
	DD	FLAT:?AddPointsToTeam@CBaseEntity@@UAEXHH@Z
	DD	FLAT:?AddPlayerItem@CBaseEntity@@UAEHPAVCBasePlayerItem@@@Z
	DD	FLAT:?RemovePlayerItem@CBaseEntity@@UAEHPAVCBasePlayerItem@@@Z
	DD	FLAT:?GiveAmmo@CBaseEntity@@UAEHHPADH@Z
	DD	FLAT:?GetDelay@CBaseToggle@@UAEMXZ
	DD	FLAT:?IsMoving@CBaseMonster@@UAEHXZ
	DD	FLAT:?OverrideReset@CBaseEntity@@UAEXXZ
	DD	FLAT:?TransferReset@CBaseEntity@@UAEXXZ
	DD	FLAT:?DamageDecal@CBaseMonster@@UAEHH@Z
	DD	FLAT:?SetToggleState@CBaseEntity@@UAEXH@Z
	DD	FLAT:?StartSneaking@CBaseEntity@@UAEXXZ
	DD	FLAT:?StopSneaking@CBaseEntity@@UAEXXZ
	DD	FLAT:?OnControls@CBaseEntity@@UAEHPAV1@@Z
	DD	FLAT:?IsSneaking@CBaseEntity@@UAEHXZ
	DD	FLAT:?IsAlive@CBaseMonster@@UAEHXZ
	DD	FLAT:?IsBSPModel@CBaseEntity@@UAEHXZ
	DD	FLAT:?IsCustomModel@CBaseEntity@@UAEHXZ
	DD	FLAT:?ReflectGauss@CBaseEntity@@UAEHXZ
	DD	FLAT:?HasTarget@CBaseEntity@@UAEHH@Z
	DD	FLAT:?IsInWorld@CBaseEntity@@UAEHH@Z
	DD	FLAT:?IsPlayer@CBaseEntity@@UAEHXZ
	DD	FLAT:?IsNetClient@CBaseEntity@@UAEHXZ
	DD	FLAT:?IsMonster@CBaseEntity@@UAEHXZ
	DD	FLAT:?IsPushable@CBaseEntity@@UAEHXZ
	DD	FLAT:?IsProjectile@CGrenade@@UAEHXZ
	DD	FLAT:?IsFuncScreen@CBaseEntity@@UAEHXZ
	DD	FLAT:?IsPortal@CBaseEntity@@UAEHXZ
	DD	FLAT:?IsTank@CBaseEntity@@UAEHXZ
	DD	FLAT:?IsMover@CBaseEntity@@UAEHXZ
	DD	FLAT:?IsBreakable@CBaseEntity@@UAEHXZ
	DD	FLAT:?TeamID@CBaseEntity@@UAEPBDXZ
	DD	FLAT:?AddSpawnFlags@CBaseEntity@@UAEXH@Z
	DD	FLAT:?HasSpawnFlags@CBaseEntity@@UBE_NH@Z
	DD	FLAT:?SetFadeDistance@CBaseEntity@@UAEXH@Z
	DD	FLAT:?SetFlag@CBaseEntity@@UAEXH@Z
	DD	FLAT:?HasFlag@CBaseEntity@@UBE_NH@Z
	DD	FLAT:?RemoveFlag@CBaseEntity@@UAEXH@Z
	DD	FLAT:?SetNullModel@CBaseEntity@@UAEXXZ
	DD	FLAT:?OnPickupObject@CBaseEntity@@UAEXXZ
	DD	FLAT:?OnDropObject@CBaseEntity@@UAEXXZ
	DD	FLAT:?GetNextTarget@CBaseEntity@@UAEPAV1@XZ
	DD	FLAT:?Think@CBaseEntity@@UAEXXZ
	DD	FLAT:?Use@CBaseEntity@@UAEXPAV1@0W4USE_TYPE@@M@Z
	DD	FLAT:?Touch@CBaseEntity@@UAEXPAV1@@Z
	DD	FLAT:?Blocked@CBaseEntity@@UAEXPAV1@@Z
	DD	FLAT:?MoveDone@CBaseToggle@@UAEXXZ
	DD	FLAT:?Respawn@CBaseEntity@@UAEPAV1@XZ
	DD	FLAT:?UpdateOwner@CBaseEntity@@UAEXXZ
	DD	FLAT:?FBecomeProne@CBaseMonster@@UAEHXZ
	DD	FLAT:?Center@CBaseEntity@@UAE?AVVector@@XZ
	DD	FLAT:?EyePosition@CBaseEntity@@UAE?AVVector@@XZ
	DD	FLAT:?EarPosition@CBaseEntity@@UAE?AVVector@@XZ
	DD	FLAT:?BodyTarget@CBaseMonster@@UAE?AVVector@@ABV2@@Z
	DD	FLAT:?IsPointSized@CBaseEntity@@UBEHXZ
	DD	FLAT:?Illumination@CBaseEntity@@UAEHXZ
	DD	FLAT:?FVisible@CBaseEntity@@UAEHABVVector@@@Z
	DD	FLAT:?FVisible@CBaseEntity@@UAEHPAV1@@Z
	DD	FLAT:?ShouldCollide@CBaseEntity@@UAEHPAV1@@Z
	DD	FLAT:?ClearEffects@CGrenade@@UAEXXZ
	DD	FLAT:?HandleAnimEvent@CBaseMonster@@UAEXPAUMonsterEvent_t@@@Z
	DD	FLAT:?Look@CBaseMonster@@UAEXH@Z
	DD	FLAT:?RunAI@CBaseMonster@@UAEXXZ
	DD	FLAT:?ShouldFadeOnDeath@CBaseMonster@@UAEHXZ
	DD	FLAT:?ChangeYaw@CBaseMonster@@UAEMH@Z
	DD	FLAT:?MonsterThink@CBaseMonster@@UAEXXZ
	DD	FLAT:?IRelationship@CBaseMonster@@UAEHPAVCBaseEntity@@@Z
	DD	FLAT:?MonsterInit@CBaseMonster@@UAEXXZ
	DD	FLAT:?MonsterInitDead@CBaseMonster@@UAEXXZ
	DD	FLAT:?BecomeDead@CBaseMonster@@UAEXXZ
	DD	FLAT:?StartMonster@CBaseMonster@@UAEXXZ
	DD	FLAT:?BestVisibleEnemy@CBaseMonster@@UAEPAVCBaseEntity@@XZ
	DD	FLAT:?FInViewCone@CBaseMonster@@UAEHPAVVector@@@Z
	DD	FLAT:?FInViewCone@CBaseMonster@@UAEHPAVCBaseEntity@@M@Z
	DD	FLAT:?CheckLocalMove@CBaseMonster@@UAEHABVVector@@0PAVCBaseEntity@@PAM@Z
	DD	FLAT:?Move@CBaseMonster@@UAEXM@Z
	DD	FLAT:?MoveExecute@CBaseMonster@@UAEXPAVCBaseEntity@@ABVVector@@M@Z
	DD	FLAT:?ShouldAdvanceRoute@CBaseMonster@@UAEHM@Z
	DD	FLAT:?GetStoppedActivity@CBaseMonster@@UAE?AW4Activity@@XZ
	DD	FLAT:?Stop@CBaseMonster@@UAEXXZ
	DD	FLAT:?CheckRangeAttack1@CBaseMonster@@UAEHMM@Z
	DD	FLAT:?CheckRangeAttack2@CBaseMonster@@UAEHMM@Z
	DD	FLAT:?CheckMeleeAttack1@CBaseMonster@@UAEHMM@Z
	DD	FLAT:?CheckMeleeAttack2@CBaseMonster@@UAEHMM@Z
	DD	FLAT:?ScheduleFromName@CBaseMonster@@UAEPAUSchedule_t@@PBD@Z
	DD	FLAT:?StartTask@CBaseMonster@@UAEXPAUTask_t@@@Z
	DD	FLAT:?RunTask@CBaseMonster@@UAEXPAUTask_t@@@Z
	DD	FLAT:?GetScheduleOfType@CBaseMonster@@UAEPAUSchedule_t@@H@Z
	DD	FLAT:?GetSchedule@CBaseMonster@@UAEPAUSchedule_t@@XZ
	DD	FLAT:?ScheduleChange@CBaseMonster@@UAEXXZ
	DD	FLAT:?CanPlaySequence@CBaseMonster@@UAEHHH@Z
	DD	FLAT:?CanPlaySentence@CBaseMonster@@UAEHH@Z
	DD	FLAT:?PlaySentence@CBaseMonster@@UAEXPBDMMMH@Z
	DD	FLAT:?PlayScriptedSentence@CBaseMonster@@UAEXPBDMMMHPAVCBaseEntity@@H@Z
	DD	FLAT:?SentenceStop@CBaseMonster@@UAEXXZ
	DD	FLAT:?GetIdealState@CBaseMonster@@UAE?AW4MONSTERSTATE@@XZ
	DD	FLAT:?SetActivity@CBaseMonster@@UAEXW4Activity@@@Z
	DD	FLAT:?ReportAIState@CBaseMonster@@UAEXXZ
	DD	FLAT:?CheckEnemy@CBaseMonster@@UAEHPAVCBaseEntity@@@Z
	DD	FLAT:?FTriangulate@CBaseMonster@@UAEHABVVector@@0MPAVCBaseEntity@@PAV2@@Z
	DD	FLAT:?SetYawSpeed@CBaseMonster@@UAEXXZ
	DD	FLAT:?BuildNearestRoute@CBaseMonster@@UAEHVVector@@0MM@Z
	DD	FLAT:?FindCover@CBaseMonster@@UAEHVVector@@0MM@Z
	DD	FLAT:?FindRunAway@CBaseMonster@@UAEHVVector@@MM@Z
	DD	FLAT:?FValidateCover@CBaseMonster@@UAEHABVVector@@@Z
	DD	FLAT:?CoverRadius@CBaseMonster@@UAEMXZ
	DD	FLAT:?FCanCheckAttacks@CBaseMonster@@UAEHXZ
	DD	FLAT:?CheckAmmo@CBaseMonster@@UAEXXZ
	DD	FLAT:?IgnoreConditions@CBaseMonster@@UAEHXZ
	DD	FLAT:?FValidateHintType@CBaseMonster@@UAEHF@Z
	DD	FLAT:?FCanActiveIdle@CBaseMonster@@UAEHXZ
	DD	FLAT:?ISoundMask@CBaseMonster@@UAEHXZ
	DD	FLAT:?PBestSound@CBaseMonster@@UAEPAVCSound@@XZ
	DD	FLAT:?PBestScent@CBaseMonster@@UAEPAVCSound@@XZ
	DD	FLAT:?HearingSensitivity@CBaseMonster@@UAEMXZ
	DD	FLAT:?BarnacleVictimBitten@CBaseMonster@@UAEXPAUentvars_s@@@Z
	DD	FLAT:?BarnacleVictimReleased@CBaseMonster@@UAEXXZ
	DD	FLAT:?PrescheduleThink@CBaseMonster@@UAEXXZ
	DD	FLAT:?GetDeathActivity@CBaseMonster@@UAE?AW4Activity@@XZ
	DD	FLAT:?GibMonster@CBaseMonster@@UAEXXZ
	DD	FLAT:?HasHumanGibs@CBaseMonster@@UAEHXZ
	DD	FLAT:?HasAlienGibs@CBaseMonster@@UAEHXZ
	DD	FLAT:?FadeMonster@CBaseMonster@@UAEXXZ
	DD	FLAT:?GetGunPosition@CBaseMonster@@UAE?AVVector@@XZ
	DD	FLAT:?DeathSound@CBaseMonster@@UAEXXZ
	DD	FLAT:?AlertSound@CBaseMonster@@UAEXXZ
	DD	FLAT:?IdleSound@CBaseMonster@@UAEXXZ
	DD	FLAT:?PainSound@CBaseMonster@@UAEXXZ
	DD	FLAT:?StepSound@CBaseMonster@@UAEXXZ
	DD	FLAT:?StopFollowing@CBaseMonster@@UAEXH@Z
	DD	FLAT:?BounceSound@CGrenade@@UAEXXZ
CONST	ENDS
;	COMDAT ??_C@_0L@PKAMAFCB@laser_spot?$AA@
CONST	SEGMENT
??_C@_0L@PKAMAFCB@laser_spot?$AA@ DB 'laser_spot', 00H	; `string'
CONST	ENDS
;	COMDAT ??_C@_0BJ@DNDGCEJF@?$CGCRpgRocket?3?3FollowThink?$AA@
CONST	SEGMENT
??_C@_0BJ@DNDGCEJF@?$CGCRpgRocket?3?3FollowThink?$AA@ DB '&CRpgRocket::Fo'
	DB	'llowThink', 00H				; `string'
CONST	ENDS
;	COMDAT ??_C@_0BI@JDBICBFF@?$CGCRpgRocket?3?3AugerThink?$AA@
CONST	SEGMENT
??_C@_0BI@JDBICBFF@?$CGCRpgRocket?3?3AugerThink?$AA@ DB '&CRpgRocket::Aug'
	DB	'erThink', 00H				; `string'
CONST	ENDS
;	COMDAT ??_C@_0P@DFJONIEE@monster_apache?$AA@
CONST	SEGMENT
??_C@_0P@DFJONIEE@monster_apache?$AA@ DB 'monster_apache', 00H ; `string'
CONST	ENDS
;	COMDAT ??_C@_0BI@OOPPOBKK@?$CGCGrenade?3?3ExplodeTouch?$AA@
CONST	SEGMENT
??_C@_0BI@OOPPOBKK@?$CGCGrenade?3?3ExplodeTouch?$AA@ DB '&CGrenade::Explo'
	DB	'deTouch', 00H				; `string'
CONST	ENDS
;	COMDAT ??_C@_0BJ@GKJDGPEJ@?$CGCRpgRocket?3?3IgniteThink?$AA@
CONST	SEGMENT
??_C@_0BJ@GKJDGPEJ@?$CGCRpgRocket?3?3IgniteThink?$AA@ DB '&CRpgRocket::Ig'
	DB	'niteThink', 00H				; `string'
CONST	ENDS
;	COMDAT ??_C@_0BJ@NMPKGCCP@weapons?1rpg_shotdown?4wav?$AA@
CONST	SEGMENT
??_C@_0BJ@NMPKGCCP@weapons?1rpg_shotdown?4wav?$AA@ DB 'weapons/rpg_shotdo'
	DB	'wn.wav', 00H				; `string'
CONST	ENDS
;	COMDAT ??_C@_0BE@OFLJKELP@weapons?1rocket1?4wav?$AA@
CONST	SEGMENT
??_C@_0BE@OFLJKELP@weapons?1rocket1?4wav?$AA@ DB 'weapons/rocket1.wav', 00H ; `string'
CONST	ENDS
;	COMDAT ??_C@_0BC@DDAJIPKB@sprites?1smoke?4spr?$AA@
CONST	SEGMENT
??_C@_0BC@DDAJIPKB@sprites?1smoke?4spr?$AA@ DB 'sprites/smoke.spr', 00H ; `string'
CONST	ENDS
;	COMDAT ??_C@_0BF@JALHEJDN@models?1rpgrocket?4mdl?$AA@
CONST	SEGMENT
??_C@_0BF@JALHEJDN@models?1rpgrocket?4mdl?$AA@ DB 'models/rpgrocket.mdl', 00H ; `string'
CONST	ENDS
;	COMDAT ??_C@_0BJ@IMHADGKA@?$CGCRpgRocket?3?3RocketTouch?$AA@
CONST	SEGMENT
??_C@_0BJ@IMHADGKA@?$CGCRpgRocket?3?3RocketTouch?$AA@ DB '&CRpgRocket::Ro'
	DB	'cketTouch', 00H				; `string'
CONST	ENDS
;	COMDAT ??_C@_0L@PEBDNPPC@AugerThink?$AA@
CONST	SEGMENT
??_C@_0L@PEBDNPPC@AugerThink?$AA@ DB 'AugerThink', 00H	; `string'
CONST	ENDS
;	COMDAT ??_C@_0BB@GHOCPPMI@m_flMarkDeadTime?$AA@
CONST	SEGMENT
??_C@_0BB@GHOCPPMI@m_flMarkDeadTime?$AA@ DB 'm_flMarkDeadTime', 00H ; `string'
CONST	ENDS
;	COMDAT ??_C@_0O@PLAGMMCE@m_flAugerTime?$AA@
CONST	SEGMENT
??_C@_0O@PLAGMMCE@m_flAugerTime?$AA@ DB 'm_flAugerTime', 00H ; `string'
CONST	ENDS
;	COMDAT ??_C@_0M@MEKFALBF@RocketTouch?$AA@
CONST	SEGMENT
??_C@_0M@MEKFALBF@RocketTouch?$AA@ DB 'RocketTouch', 00H ; `string'
CONST	ENDS
;	COMDAT ??_C@_0M@CCEGFCPM@IgniteThink?$AA@
CONST	SEGMENT
??_C@_0M@CCEGFCPM@IgniteThink?$AA@ DB 'IgniteThink', 00H ; `string'
CONST	ENDS
;	COMDAT ??_C@_0M@HFODBJCA@FollowThink?$AA@
CONST	SEGMENT
??_C@_0M@HFODBJCA@FollowThink?$AA@ DB 'FollowThink', 00H ; `string'
CONST	ENDS
;	COMDAT ??_C@_0L@MFNEJJJF@rpg_rocket?$AA@
CONST	SEGMENT
??_C@_0L@MFNEJJJF@rpg_rocket?$AA@ DB 'rpg_rocket', 00H	; `string'
CONST	ENDS
;	COMDAT ??_7?$CEntityFactory@VCRpgRocket@@@@6B@
CONST	SEGMENT
??_7?$CEntityFactory@VCRpgRocket@@@@6B@ DD FLAT:??_R4?$CEntityFactory@VCRpgRocket@@@@6B@ ; CEntityFactory<CRpgRocket>::`vftable'
	DD	FLAT:?Create@?$CEntityFactory@VCRpgRocket@@@@UAEPAVCBaseEntity@@PBDPAUentvars_s@@@Z
	DD	FLAT:?Destroy@?$CEntityFactory@VCRpgRocket@@@@UAEXPAVCBaseEntity@@@Z
	DD	FLAT:?GetEntitySize@?$CEntityFactory@VCRpgRocket@@@@UAEIXZ
CONST	ENDS
;	COMDAT ??_7CRpgRocket@@6B@
CONST	SEGMENT
??_7CRpgRocket@@6B@ DD FLAT:??_R4CRpgRocket@@6B@	; CRpgRocket::`vftable'
	DD	FLAT:?GetDataDescMap@CRpgRocket@@UAEPAUdatamap_s@@XZ
	DD	FLAT:?Spawn@CRpgRocket@@UAEXXZ
	DD	FLAT:?Precache@CRpgRocket@@UAEXXZ
	DD	FLAT:?KeyValue@CBaseMonster@@UAEXPAUKeyValueData_s@@@Z
	DD	FLAT:?Save@CBaseEntity@@UAEHAAVCSave@@@Z
	DD	FLAT:?Restore@CBaseMonster@@UAEHAAVCRestore@@@Z
	DD	FLAT:?ObjectCaps@CBaseEntity@@UAEHXZ
	DD	FLAT:?Activate@CBaseEntity@@UAEXXZ
	DD	FLAT:?OnChangeLevel@CBaseEntity@@UAEXXZ
	DD	FLAT:?OnTeleport@CRpgRocket@@UAEXXZ
	DD	FLAT:?PortalSleep@CBaseEntity@@UAEXM@Z
	DD	FLAT:?StartMessage@CBaseEntity@@UAEXPAVCBasePlayer@@@Z
	DD	FLAT:?GetPosition@CBaseEntity@@UAEMXZ
	DD	FLAT:?OnChangeParent@CBaseEntity@@UAEXXZ
	DD	FLAT:?OnClearParent@CBaseEntity@@UAEXXZ
	DD	FLAT:?OnRemove@CBaseEntity@@UAEXXZ
	DD	FLAT:?SetObjectCollisionBox@CBaseEntity@@UAEXXZ
	DD	FLAT:?Classify@CRpgRocket@@UAEHXZ
	DD	FLAT:?DeathNotice@CBaseEntity@@UAEXPAUentvars_s@@@Z
	DD	FLAT:?IsRigidBody@CBaseEntity@@UAEHXZ
	DD	FLAT:?SetNextThink@CBaseEntity@@UAEXM@Z
	DD	FLAT:?GetState@CBaseEntity@@UAE?AW4STATE@@PAV1@@Z
	DD	FLAT:?GetState@CBaseToggle@@UAE?AW4STATE@@XZ
	DD	FLAT:?TraceAttack@CBaseMonster@@UAEXPAUentvars_s@@MVVector@@PAUgametrace_s@@H@Z
	DD	FLAT:?TakeDamage@CRpgRocket@@UAEHPAUentvars_s@@0MH@Z
	DD	FLAT:?TakeHealth@CBaseMonster@@UAEHMH@Z
	DD	FLAT:?TakeArmor@CBaseEntity@@UAEHMH@Z
	DD	FLAT:?Killed@CGrenade@@UAEXPAUentvars_s@@H@Z
	DD	FLAT:?BloodColor@CGrenade@@UAEHXZ
	DD	FLAT:?TraceBleed@CBaseEntity@@UAEXMVVector@@PAUgametrace_s@@H@Z
	DD	FLAT:?IsTriggered@CBaseEntity@@UAEHPAV1@@Z
	DD	FLAT:?MyMonsterPointer@CBaseMonster@@UAEPAV1@XZ
	DD	FLAT:?MySquadMonsterPointer@CBaseEntity@@UAEPAVCSquadMonster@@XZ
	DD	FLAT:?GetToggleState@CBaseToggle@@UAEHXZ
	DD	FLAT:?AddPoints@CBaseEntity@@UAEXHH@Z
	DD	FLAT:?AddPointsToTeam@CBaseEntity@@UAEXHH@Z
	DD	FLAT:?AddPlayerItem@CBaseEntity@@UAEHPAVCBasePlayerItem@@@Z
	DD	FLAT:?RemovePlayerItem@CBaseEntity@@UAEHPAVCBasePlayerItem@@@Z
	DD	FLAT:?GiveAmmo@CBaseEntity@@UAEHHPADH@Z
	DD	FLAT:?GetDelay@CBaseToggle@@UAEMXZ
	DD	FLAT:?IsMoving@CBaseMonster@@UAEHXZ
	DD	FLAT:?OverrideReset@CBaseEntity@@UAEXXZ
	DD	FLAT:?TransferReset@CBaseEntity@@UAEXXZ
	DD	FLAT:?DamageDecal@CBaseMonster@@UAEHH@Z
	DD	FLAT:?SetToggleState@CBaseEntity@@UAEXH@Z
	DD	FLAT:?StartSneaking@CBaseEntity@@UAEXXZ
	DD	FLAT:?StopSneaking@CBaseEntity@@UAEXXZ
	DD	FLAT:?OnControls@CBaseEntity@@UAEHPAV1@@Z
	DD	FLAT:?IsSneaking@CBaseEntity@@UAEHXZ
	DD	FLAT:?IsAlive@CBaseMonster@@UAEHXZ
	DD	FLAT:?IsBSPModel@CBaseEntity@@UAEHXZ
	DD	FLAT:?IsCustomModel@CBaseEntity@@UAEHXZ
	DD	FLAT:?ReflectGauss@CBaseEntity@@UAEHXZ
	DD	FLAT:?HasTarget@CBaseEntity@@UAEHH@Z
	DD	FLAT:?IsInWorld@CBaseEntity@@UAEHH@Z
	DD	FLAT:?IsPlayer@CBaseEntity@@UAEHXZ
	DD	FLAT:?IsNetClient@CBaseEntity@@UAEHXZ
	DD	FLAT:?IsMonster@CBaseEntity@@UAEHXZ
	DD	FLAT:?IsPushable@CBaseEntity@@UAEHXZ
	DD	FLAT:?IsProjectile@CGrenade@@UAEHXZ
	DD	FLAT:?IsFuncScreen@CBaseEntity@@UAEHXZ
	DD	FLAT:?IsPortal@CBaseEntity@@UAEHXZ
	DD	FLAT:?IsTank@CBaseEntity@@UAEHXZ
	DD	FLAT:?IsMover@CBaseEntity@@UAEHXZ
	DD	FLAT:?IsBreakable@CBaseEntity@@UAEHXZ
	DD	FLAT:?TeamID@CBaseEntity@@UAEPBDXZ
	DD	FLAT:?AddSpawnFlags@CBaseEntity@@UAEXH@Z
	DD	FLAT:?HasSpawnFlags@CBaseEntity@@UBE_NH@Z
	DD	FLAT:?SetFadeDistance@CBaseEntity@@UAEXH@Z
	DD	FLAT:?SetFlag@CBaseEntity@@UAEXH@Z
	DD	FLAT:?HasFlag@CBaseEntity@@UBE_NH@Z
	DD	FLAT:?RemoveFlag@CBaseEntity@@UAEXH@Z
	DD	FLAT:?SetNullModel@CBaseEntity@@UAEXXZ
	DD	FLAT:?OnPickupObject@CBaseEntity@@UAEXXZ
	DD	FLAT:?OnDropObject@CBaseEntity@@UAEXXZ
	DD	FLAT:?GetNextTarget@CBaseEntity@@UAEPAV1@XZ
	DD	FLAT:?Think@CBaseEntity@@UAEXXZ
	DD	FLAT:?Use@CBaseEntity@@UAEXPAV1@0W4USE_TYPE@@M@Z
	DD	FLAT:?Touch@CBaseEntity@@UAEXPAV1@@Z
	DD	FLAT:?Blocked@CBaseEntity@@UAEXPAV1@@Z
	DD	FLAT:?MoveDone@CBaseToggle@@UAEXXZ
	DD	FLAT:?Respawn@CBaseEntity@@UAEPAV1@XZ
	DD	FLAT:?UpdateOwner@CBaseEntity@@UAEXXZ
	DD	FLAT:?FBecomeProne@CBaseMonster@@UAEHXZ
	DD	FLAT:?Center@CBaseEntity@@UAE?AVVector@@XZ
	DD	FLAT:?EyePosition@CBaseEntity@@UAE?AVVector@@XZ
	DD	FLAT:?EarPosition@CBaseEntity@@UAE?AVVector@@XZ
	DD	FLAT:?BodyTarget@CBaseMonster@@UAE?AVVector@@ABV2@@Z
	DD	FLAT:?IsPointSized@CBaseEntity@@UBEHXZ
	DD	FLAT:?Illumination@CBaseEntity@@UAEHXZ
	DD	FLAT:?FVisible@CBaseEntity@@UAEHABVVector@@@Z
	DD	FLAT:?FVisible@CBaseEntity@@UAEHPAV1@@Z
	DD	FLAT:?ShouldCollide@CBaseEntity@@UAEHPAV1@@Z
	DD	FLAT:?ClearEffects@CRpgRocket@@UAEXXZ
	DD	FLAT:?HandleAnimEvent@CBaseMonster@@UAEXPAUMonsterEvent_t@@@Z
	DD	FLAT:?Look@CBaseMonster@@UAEXH@Z
	DD	FLAT:?RunAI@CBaseMonster@@UAEXXZ
	DD	FLAT:?ShouldFadeOnDeath@CBaseMonster@@UAEHXZ
	DD	FLAT:?ChangeYaw@CBaseMonster@@UAEMH@Z
	DD	FLAT:?MonsterThink@CBaseMonster@@UAEXXZ
	DD	FLAT:?IRelationship@CBaseMonster@@UAEHPAVCBaseEntity@@@Z
	DD	FLAT:?MonsterInit@CBaseMonster@@UAEXXZ
	DD	FLAT:?MonsterInitDead@CBaseMonster@@UAEXXZ
	DD	FLAT:?BecomeDead@CBaseMonster@@UAEXXZ
	DD	FLAT:?StartMonster@CBaseMonster@@UAEXXZ
	DD	FLAT:?BestVisibleEnemy@CBaseMonster@@UAEPAVCBaseEntity@@XZ
	DD	FLAT:?FInViewCone@CBaseMonster@@UAEHPAVVector@@@Z
	DD	FLAT:?FInViewCone@CBaseMonster@@UAEHPAVCBaseEntity@@M@Z
	DD	FLAT:?CheckLocalMove@CBaseMonster@@UAEHABVVector@@0PAVCBaseEntity@@PAM@Z
	DD	FLAT:?Move@CBaseMonster@@UAEXM@Z
	DD	FLAT:?MoveExecute@CBaseMonster@@UAEXPAVCBaseEntity@@ABVVector@@M@Z
	DD	FLAT:?ShouldAdvanceRoute@CBaseMonster@@UAEHM@Z
	DD	FLAT:?GetStoppedActivity@CBaseMonster@@UAE?AW4Activity@@XZ
	DD	FLAT:?Stop@CBaseMonster@@UAEXXZ
	DD	FLAT:?CheckRangeAttack1@CBaseMonster@@UAEHMM@Z
	DD	FLAT:?CheckRangeAttack2@CBaseMonster@@UAEHMM@Z
	DD	FLAT:?CheckMeleeAttack1@CBaseMonster@@UAEHMM@Z
	DD	FLAT:?CheckMeleeAttack2@CBaseMonster@@UAEHMM@Z
	DD	FLAT:?ScheduleFromName@CBaseMonster@@UAEPAUSchedule_t@@PBD@Z
	DD	FLAT:?StartTask@CBaseMonster@@UAEXPAUTask_t@@@Z
	DD	FLAT:?RunTask@CBaseMonster@@UAEXPAUTask_t@@@Z
	DD	FLAT:?GetScheduleOfType@CBaseMonster@@UAEPAUSchedule_t@@H@Z
	DD	FLAT:?GetSchedule@CBaseMonster@@UAEPAUSchedule_t@@XZ
	DD	FLAT:?ScheduleChange@CBaseMonster@@UAEXXZ
	DD	FLAT:?CanPlaySequence@CBaseMonster@@UAEHHH@Z
	DD	FLAT:?CanPlaySentence@CBaseMonster@@UAEHH@Z
	DD	FLAT:?PlaySentence@CBaseMonster@@UAEXPBDMMMH@Z
	DD	FLAT:?PlayScriptedSentence@CBaseMonster@@UAEXPBDMMMHPAVCBaseEntity@@H@Z
	DD	FLAT:?SentenceStop@CBaseMonster@@UAEXXZ
	DD	FLAT:?GetIdealState@CBaseMonster@@UAE?AW4MONSTERSTATE@@XZ
	DD	FLAT:?SetActivity@CBaseMonster@@UAEXW4Activity@@@Z
	DD	FLAT:?ReportAIState@CBaseMonster@@UAEXXZ
	DD	FLAT:?CheckEnemy@CBaseMonster@@UAEHPAVCBaseEntity@@@Z
	DD	FLAT:?FTriangulate@CBaseMonster@@UAEHABVVector@@0MPAVCBaseEntity@@PAV2@@Z
	DD	FLAT:?SetYawSpeed@CBaseMonster@@UAEXXZ
	DD	FLAT:?BuildNearestRoute@CBaseMonster@@UAEHVVector@@0MM@Z
	DD	FLAT:?FindCover@CBaseMonster@@UAEHVVector@@0MM@Z
	DD	FLAT:?FindRunAway@CBaseMonster@@UAEHVVector@@MM@Z
	DD	FLAT:?FValidateCover@CBaseMonster@@UAEHABVVector@@@Z
	DD	FLAT:?CoverRadius@CBaseMonster@@UAEMXZ
	DD	FLAT:?FCanCheckAttacks@CBaseMonster@@UAEHXZ
	DD	FLAT:?CheckAmmo@CBaseMonster@@UAEXXZ
	DD	FLAT:?IgnoreConditions@CBaseMonster@@UAEHXZ
	DD	FLAT:?FValidateHintType@CBaseMonster@@UAEHF@Z
	DD	FLAT:?FCanActiveIdle@CBaseMonster@@UAEHXZ
	DD	FLAT:?ISoundMask@CBaseMonster@@UAEHXZ
	DD	FLAT:?PBestSound@CBaseMonster@@UAEPAVCSound@@XZ
	DD	FLAT:?PBestScent@CBaseMonster@@UAEPAVCSound@@XZ
	DD	FLAT:?HearingSensitivity@CBaseMonster@@UAEMXZ
	DD	FLAT:?BarnacleVictimBitten@CBaseMonster@@UAEXPAUentvars_s@@@Z
	DD	FLAT:?BarnacleVictimReleased@CBaseMonster@@UAEXXZ
	DD	FLAT:?PrescheduleThink@CBaseMonster@@UAEXXZ
	DD	FLAT:?GetDeathActivity@CBaseMonster@@UAE?AW4Activity@@XZ
	DD	FLAT:?GibMonster@CBaseMonster@@UAEXXZ
	DD	FLAT:?HasHumanGibs@CBaseMonster@@UAEHXZ
	DD	FLAT:?HasAlienGibs@CBaseMonster@@UAEHXZ
	DD	FLAT:?FadeMonster@CBaseMonster@@UAEXXZ
	DD	FLAT:?GetGunPosition@CBaseMonster@@UAE?AVVector@@XZ
	DD	FLAT:?DeathSound@CBaseMonster@@UAEXXZ
	DD	FLAT:?AlertSound@CBaseMonster@@UAEXXZ
	DD	FLAT:?IdleSound@CBaseMonster@@UAEXXZ
	DD	FLAT:?PainSound@CBaseMonster@@UAEXXZ
	DD	FLAT:?StepSound@CBaseMonster@@UAEXXZ
	DD	FLAT:?StopFollowing@CBaseMonster@@UAEXH@Z
	DD	FLAT:?BounceSound@CGrenade@@UAEXXZ
CONST	ENDS
;	COMDAT ??_C@_0L@NJNPDFDL@weapon_rpg?$AA@
CONST	SEGMENT
??_C@_0L@NJNPDFDL@weapon_rpg?$AA@ DB 'weapon_rpg', 00H	; `string'
CONST	ENDS
;	COMDAT ??_7?$CEntityFactory@VCRpg@@@@6B@
CONST	SEGMENT
??_7?$CEntityFactory@VCRpg@@@@6B@ DD FLAT:??_R4?$CEntityFactory@VCRpg@@@@6B@ ; CEntityFactory<CRpg>::`vftable'
	DD	FLAT:?Create@?$CEntityFactory@VCRpg@@@@UAEPAVCBaseEntity@@PBDPAUentvars_s@@@Z
	DD	FLAT:?Destroy@?$CEntityFactory@VCRpg@@@@UAEXPAVCBaseEntity@@@Z
	DD	FLAT:?GetEntitySize@?$CEntityFactory@VCRpg@@@@UAEIXZ
CONST	ENDS
;	COMDAT ??_7CRpg@@6B@
CONST	SEGMENT
??_7CRpg@@6B@ DD FLAT:??_R4CRpg@@6B@			; CRpg::`vftable'
	DD	FLAT:?GetDataDescMap@CRpg@@UAEPAUdatamap_s@@XZ
	DD	FLAT:?Spawn@CRpg@@UAEXXZ
	DD	FLAT:?Precache@CRpg@@UAEXXZ
	DD	FLAT:?KeyValue@CBaseDelay@@UAEXPAUKeyValueData_s@@@Z
	DD	FLAT:?Save@CBaseEntity@@UAEHAAVCSave@@@Z
	DD	FLAT:?Restore@CBaseEntity@@UAEHAAVCRestore@@@Z
	DD	FLAT:?ObjectCaps@CBaseEntity@@UAEHXZ
	DD	FLAT:?Activate@CBaseEntity@@UAEXXZ
	DD	FLAT:?OnChangeLevel@CBaseEntity@@UAEXXZ
	DD	FLAT:?OnTeleport@CBaseEntity@@UAEXXZ
	DD	FLAT:?PortalSleep@CBaseEntity@@UAEXM@Z
	DD	FLAT:?StartMessage@CBaseEntity@@UAEXPAVCBasePlayer@@@Z
	DD	FLAT:?GetPosition@CBaseEntity@@UAEMXZ
	DD	FLAT:?OnChangeParent@CBaseEntity@@UAEXXZ
	DD	FLAT:?OnClearParent@CBaseEntity@@UAEXXZ
	DD	FLAT:?OnRemove@CBaseEntity@@UAEXXZ
	DD	FLAT:?SetObjectCollisionBox@CBasePlayerItem@@UAEXXZ
	DD	FLAT:?Classify@CBaseEntity@@UAEHXZ
	DD	FLAT:?DeathNotice@CBaseEntity@@UAEXPAUentvars_s@@@Z
	DD	FLAT:?IsRigidBody@CBaseEntity@@UAEHXZ
	DD	FLAT:?SetNextThink@CBaseEntity@@UAEXM@Z
	DD	FLAT:?GetState@CBaseEntity@@UAE?AW4STATE@@PAV1@@Z
	DD	FLAT:?GetState@CBaseDelay@@UAE?AW4STATE@@XZ
	DD	FLAT:?TraceAttack@CBaseEntity@@UAEXPAUentvars_s@@MVVector@@PAUgametrace_s@@H@Z
	DD	FLAT:?TakeDamage@CBaseEntity@@UAEHPAUentvars_s@@0MH@Z
	DD	FLAT:?TakeHealth@CBaseEntity@@UAEHMH@Z
	DD	FLAT:?TakeArmor@CBaseEntity@@UAEHMH@Z
	DD	FLAT:?Killed@CBaseEntity@@UAEXPAUentvars_s@@H@Z
	DD	FLAT:?BloodColor@CBaseEntity@@UAEHXZ
	DD	FLAT:?TraceBleed@CBaseEntity@@UAEXMVVector@@PAUgametrace_s@@H@Z
	DD	FLAT:?IsTriggered@CBaseEntity@@UAEHPAV1@@Z
	DD	FLAT:?MyMonsterPointer@CBaseEntity@@UAEPAVCBaseMonster@@XZ
	DD	FLAT:?MySquadMonsterPointer@CBaseEntity@@UAEPAVCSquadMonster@@XZ
	DD	FLAT:?GetToggleState@CBaseEntity@@UAEHXZ
	DD	FLAT:?AddPoints@CBaseEntity@@UAEXHH@Z
	DD	FLAT:?AddPointsToTeam@CBaseEntity@@UAEXHH@Z
	DD	FLAT:?AddPlayerItem@CBaseEntity@@UAEHPAVCBasePlayerItem@@@Z
	DD	FLAT:?RemovePlayerItem@CBaseEntity@@UAEHPAVCBasePlayerItem@@@Z
	DD	FLAT:?GiveAmmo@CBaseEntity@@UAEHHPADH@Z
	DD	FLAT:?GetDelay@CBaseEntity@@UAEMXZ
	DD	FLAT:?IsMoving@CBaseEntity@@UAEHXZ
	DD	FLAT:?OverrideReset@CBaseEntity@@UAEXXZ
	DD	FLAT:?TransferReset@CBaseEntity@@UAEXXZ
	DD	FLAT:?DamageDecal@CBaseEntity@@UAEHH@Z
	DD	FLAT:?SetToggleState@CBaseEntity@@UAEXH@Z
	DD	FLAT:?StartSneaking@CBaseEntity@@UAEXXZ
	DD	FLAT:?StopSneaking@CBaseEntity@@UAEXXZ
	DD	FLAT:?OnControls@CBaseEntity@@UAEHPAV1@@Z
	DD	FLAT:?IsSneaking@CBaseEntity@@UAEHXZ
	DD	FLAT:?IsAlive@CBaseEntity@@UAEHXZ
	DD	FLAT:?IsBSPModel@CBaseEntity@@UAEHXZ
	DD	FLAT:?IsCustomModel@CBaseEntity@@UAEHXZ
	DD	FLAT:?ReflectGauss@CBaseEntity@@UAEHXZ
	DD	FLAT:?HasTarget@CBaseEntity@@UAEHH@Z
	DD	FLAT:?IsInWorld@CBaseEntity@@UAEHH@Z
	DD	FLAT:?IsPlayer@CBaseEntity@@UAEHXZ
	DD	FLAT:?IsNetClient@CBaseEntity@@UAEHXZ
	DD	FLAT:?IsMonster@CBaseEntity@@UAEHXZ
	DD	FLAT:?IsPushable@CBaseEntity@@UAEHXZ
	DD	FLAT:?IsProjectile@CBaseEntity@@UAEHXZ
	DD	FLAT:?IsFuncScreen@CBaseEntity@@UAEHXZ
	DD	FLAT:?IsPortal@CBaseEntity@@UAEHXZ
	DD	FLAT:?IsTank@CBaseEntity@@UAEHXZ
	DD	FLAT:?IsMover@CBaseEntity@@UAEHXZ
	DD	FLAT:?IsBreakable@CBaseEntity@@UAEHXZ
	DD	FLAT:?TeamID@CBaseEntity@@UAEPBDXZ
	DD	FLAT:?AddSpawnFlags@CBaseEntity@@UAEXH@Z
	DD	FLAT:?HasSpawnFlags@CBaseEntity@@UBE_NH@Z
	DD	FLAT:?SetFadeDistance@CBaseEntity@@UAEXH@Z
	DD	FLAT:?SetFlag@CBaseEntity@@UAEXH@Z
	DD	FLAT:?HasFlag@CBaseEntity@@UBE_NH@Z
	DD	FLAT:?RemoveFlag@CBaseEntity@@UAEXH@Z
	DD	FLAT:?SetNullModel@CBaseEntity@@UAEXXZ
	DD	FLAT:?OnPickupObject@CBaseEntity@@UAEXXZ
	DD	FLAT:?OnDropObject@CBaseEntity@@UAEXXZ
	DD	FLAT:?GetNextTarget@CBaseEntity@@UAEPAV1@XZ
	DD	FLAT:?Think@CBaseEntity@@UAEXXZ
	DD	FLAT:?Use@CBaseEntity@@UAEXPAV1@0W4USE_TYPE@@M@Z
	DD	FLAT:?Touch@CBaseEntity@@UAEXPAV1@@Z
	DD	FLAT:?Blocked@CBaseEntity@@UAEXPAV1@@Z
	DD	FLAT:?MoveDone@CBaseEntity@@UAEXXZ
	DD	FLAT:?Respawn@CBasePlayerItem@@UAEPAVCBaseEntity@@XZ
	DD	FLAT:?UpdateOwner@CBaseEntity@@UAEXXZ
	DD	FLAT:?FBecomeProne@CBaseEntity@@UAEHXZ
	DD	FLAT:?Center@CBaseEntity@@UAE?AVVector@@XZ
	DD	FLAT:?EyePosition@CBaseEntity@@UAE?AVVector@@XZ
	DD	FLAT:?EarPosition@CBaseEntity@@UAE?AVVector@@XZ
	DD	FLAT:?BodyTarget@CBaseEntity@@UAE?AVVector@@ABV2@@Z
	DD	FLAT:?IsPointSized@CBaseEntity@@UBEHXZ
	DD	FLAT:?Illumination@CBaseEntity@@UAEHXZ
	DD	FLAT:?FVisible@CBaseEntity@@UAEHABVVector@@@Z
	DD	FLAT:?FVisible@CBaseEntity@@UAEHPAV1@@Z
	DD	FLAT:?ShouldCollide@CBaseEntity@@UAEHPAV1@@Z
	DD	FLAT:?ClearEffects@CBaseEntity@@UAEXXZ
	DD	FLAT:?HandleAnimEvent@CBaseAnimating@@UAEXPAUMonsterEvent_t@@@Z
	DD	FLAT:?AddToPlayer@CRpg@@UAEHPAVCBasePlayer@@@Z
	DD	FLAT:?AddDuplicate@CBasePlayerWeapon@@UAEHPAVCBasePlayerItem@@@Z
	DD	FLAT:?GetItemInfo@CRpg@@UAEHPAUItemInfo@@@Z
	DD	FLAT:?CanDeploy@CBasePlayerWeapon@@UAEHXZ
	DD	FLAT:?Deploy@CRpg@@UAEHXZ
	DD	FLAT:?CanHolster@CRpg@@UAEHXZ
	DD	FLAT:?Holster@CRpg@@UAEXXZ
	DD	FLAT:?UpdateItemInfo@CBasePlayerWeapon@@UAEXXZ
	DD	FLAT:?ItemPreFrame@CBasePlayerItem@@UAEXXZ
	DD	FLAT:?ItemPostFrame@CBasePlayerWeapon@@UAEXXZ
	DD	FLAT:?Drop@CBasePlayerItem@@UAEXXZ
	DD	FLAT:?Kill@CBasePlayerItem@@UAEXXZ
	DD	FLAT:?AttachToPlayer@CBasePlayerItem@@UAEXPAVCBasePlayer@@@Z
	DD	FLAT:?PrimaryAmmoIndex@CBasePlayerWeapon@@UAEHXZ
	DD	FLAT:?SecondaryAmmoIndex@CBasePlayerWeapon@@UAEHXZ
	DD	FLAT:?UpdateClientData@CBasePlayerWeapon@@UAEHPAVCBasePlayer@@@Z
	DD	FLAT:?GetWeaponPtr@CBasePlayerWeapon@@UAEPAVCBasePlayerItem@@XZ
	DD	FLAT:?iItemSlot@CRpg@@UAEHXZ
	DD	FLAT:?ExtractAmmo@CBasePlayerWeapon@@UAEHPAV1@@Z
	DD	FLAT:?ExtractClipAmmo@CBasePlayerWeapon@@UAEHPAV1@@Z
	DD	FLAT:?AddWeapon@CBasePlayerWeapon@@UAEHXZ
	DD	FLAT:?PlayEmptySound@CBasePlayerWeapon@@UAEHXZ
	DD	FLAT:?ResetEmptySound@CBasePlayerWeapon@@UAEXXZ
	DD	FLAT:?SendWeaponAnim@CBasePlayerWeapon@@UAEXHHH@Z
	DD	FLAT:?IsUseable@CBasePlayerWeapon@@UAEHXZ
	DD	FLAT:?PrimaryAttack@CRpg@@UAEXXZ
	DD	FLAT:?SecondaryAttack@CRpg@@UAEXXZ
	DD	FLAT:?Reload@CRpg@@UAEXXZ
	DD	FLAT:?WeaponIdle@CRpg@@UAEXXZ
	DD	FLAT:?RetireWeapon@CBasePlayerWeapon@@UAEXXZ
	DD	FLAT:?ShouldWeaponIdle@CRpg@@UAEHXZ
	DD	FLAT:?UseDecrement@CBasePlayerWeapon@@UAEHXZ
	DD	FLAT:?LowAmmoMsg@CBasePlayerWeapon@@UAEXPAVCBasePlayer@@@Z
CONST	ENDS
;	COMDAT ??_7CBasePlayerAmmo@@6B@
CONST	SEGMENT
??_7CBasePlayerAmmo@@6B@ DD FLAT:??_R4CBasePlayerAmmo@@6B@ ; CBasePlayerAmmo::`vftable'
	DD	FLAT:?GetDataDescMap@CBasePlayerAmmo@@UAEPAUdatamap_s@@XZ
	DD	FLAT:?Spawn@CBasePlayerAmmo@@UAEXXZ
	DD	FLAT:?Precache@CBaseEntity@@UAEXXZ
	DD	FLAT:?KeyValue@CBaseEntity@@UAEXPAUKeyValueData_s@@@Z
	DD	FLAT:?Save@CBaseEntity@@UAEHAAVCSave@@@Z
	DD	FLAT:?Restore@CBaseEntity@@UAEHAAVCRestore@@@Z
	DD	FLAT:?ObjectCaps@CBaseEntity@@UAEHXZ
	DD	FLAT:?Activate@CBaseEntity@@UAEXXZ
	DD	FLAT:?OnChangeLevel@CBaseEntity@@UAEXXZ
	DD	FLAT:?OnTeleport@CBaseEntity@@UAEXXZ
	DD	FLAT:?PortalSleep@CBaseEntity@@UAEXM@Z
	DD	FLAT:?StartMessage@CBaseEntity@@UAEXPAVCBasePlayer@@@Z
	DD	FLAT:?GetPosition@CBaseEntity@@UAEMXZ
	DD	FLAT:?OnChangeParent@CBaseEntity@@UAEXXZ
	DD	FLAT:?OnClearParent@CBaseEntity@@UAEXXZ
	DD	FLAT:?OnRemove@CBaseEntity@@UAEXXZ
	DD	FLAT:?SetObjectCollisionBox@CBaseEntity@@UAEXXZ
	DD	FLAT:?Classify@CBaseEntity@@UAEHXZ
	DD	FLAT:?DeathNotice@CBaseEntity@@UAEXPAUentvars_s@@@Z
	DD	FLAT:?IsRigidBody@CBaseEntity@@UAEHXZ
	DD	FLAT:?SetNextThink@CBaseEntity@@UAEXM@Z
	DD	FLAT:?GetState@CBaseEntity@@UAE?AW4STATE@@PAV1@@Z
	DD	FLAT:?GetState@CBaseEntity@@UAE?AW4STATE@@XZ
	DD	FLAT:?TraceAttack@CBaseEntity@@UAEXPAUentvars_s@@MVVector@@PAUgametrace_s@@H@Z
	DD	FLAT:?TakeDamage@CBaseEntity@@UAEHPAUentvars_s@@0MH@Z
	DD	FLAT:?TakeHealth@CBaseEntity@@UAEHMH@Z
	DD	FLAT:?TakeArmor@CBaseEntity@@UAEHMH@Z
	DD	FLAT:?Killed@CBaseEntity@@UAEXPAUentvars_s@@H@Z
	DD	FLAT:?BloodColor@CBaseEntity@@UAEHXZ
	DD	FLAT:?TraceBleed@CBaseEntity@@UAEXMVVector@@PAUgametrace_s@@H@Z
	DD	FLAT:?IsTriggered@CBaseEntity@@UAEHPAV1@@Z
	DD	FLAT:?MyMonsterPointer@CBaseEntity@@UAEPAVCBaseMonster@@XZ
	DD	FLAT:?MySquadMonsterPointer@CBaseEntity@@UAEPAVCSquadMonster@@XZ
	DD	FLAT:?GetToggleState@CBaseEntity@@UAEHXZ
	DD	FLAT:?AddPoints@CBaseEntity@@UAEXHH@Z
	DD	FLAT:?AddPointsToTeam@CBaseEntity@@UAEXHH@Z
	DD	FLAT:?AddPlayerItem@CBaseEntity@@UAEHPAVCBasePlayerItem@@@Z
	DD	FLAT:?RemovePlayerItem@CBaseEntity@@UAEHPAVCBasePlayerItem@@@Z
	DD	FLAT:?GiveAmmo@CBaseEntity@@UAEHHPADH@Z
	DD	FLAT:?GetDelay@CBaseEntity@@UAEMXZ
	DD	FLAT:?IsMoving@CBaseEntity@@UAEHXZ
	DD	FLAT:?OverrideReset@CBaseEntity@@UAEXXZ
	DD	FLAT:?TransferReset@CBaseEntity@@UAEXXZ
	DD	FLAT:?DamageDecal@CBaseEntity@@UAEHH@Z
	DD	FLAT:?SetToggleState@CBaseEntity@@UAEXH@Z
	DD	FLAT:?StartSneaking@CBaseEntity@@UAEXXZ
	DD	FLAT:?StopSneaking@CBaseEntity@@UAEXXZ
	DD	FLAT:?OnControls@CBaseEntity@@UAEHPAV1@@Z
	DD	FLAT:?IsSneaking@CBaseEntity@@UAEHXZ
	DD	FLAT:?IsAlive@CBaseEntity@@UAEHXZ
	DD	FLAT:?IsBSPModel@CBaseEntity@@UAEHXZ
	DD	FLAT:?IsCustomModel@CBaseEntity@@UAEHXZ
	DD	FLAT:?ReflectGauss@CBaseEntity@@UAEHXZ
	DD	FLAT:?HasTarget@CBaseEntity@@UAEHH@Z
	DD	FLAT:?IsInWorld@CBaseEntity@@UAEHH@Z
	DD	FLAT:?IsPlayer@CBaseEntity@@UAEHXZ
	DD	FLAT:?IsNetClient@CBaseEntity@@UAEHXZ
	DD	FLAT:?IsMonster@CBaseEntity@@UAEHXZ
	DD	FLAT:?IsPushable@CBaseEntity@@UAEHXZ
	DD	FLAT:?IsProjectile@CBaseEntity@@UAEHXZ
	DD	FLAT:?IsFuncScreen@CBaseEntity@@UAEHXZ
	DD	FLAT:?IsPortal@CBaseEntity@@UAEHXZ
	DD	FLAT:?IsTank@CBaseEntity@@UAEHXZ
	DD	FLAT:?IsMover@CBaseEntity@@UAEHXZ
	DD	FLAT:?IsBreakable@CBaseEntity@@UAEHXZ
	DD	FLAT:?TeamID@CBaseEntity@@UAEPBDXZ
	DD	FLAT:?AddSpawnFlags@CBaseEntity@@UAEXH@Z
	DD	FLAT:?HasSpawnFlags@CBaseEntity@@UBE_NH@Z
	DD	FLAT:?SetFadeDistance@CBaseEntity@@UAEXH@Z
	DD	FLAT:?SetFlag@CBaseEntity@@UAEXH@Z
	DD	FLAT:?HasFlag@CBaseEntity@@UBE_NH@Z
	DD	FLAT:?RemoveFlag@CBaseEntity@@UAEXH@Z
	DD	FLAT:?SetNullModel@CBaseEntity@@UAEXXZ
	DD	FLAT:?OnPickupObject@CBaseEntity@@UAEXXZ
	DD	FLAT:?OnDropObject@CBaseEntity@@UAEXXZ
	DD	FLAT:?GetNextTarget@CBaseEntity@@UAEPAV1@XZ
	DD	FLAT:?Think@CBaseEntity@@UAEXXZ
	DD	FLAT:?Use@CBaseEntity@@UAEXPAV1@0W4USE_TYPE@@M@Z
	DD	FLAT:?Touch@CBaseEntity@@UAEXPAV1@@Z
	DD	FLAT:?Blocked@CBaseEntity@@UAEXPAV1@@Z
	DD	FLAT:?MoveDone@CBaseEntity@@UAEXXZ
	DD	FLAT:?Respawn@CBasePlayerAmmo@@UAEPAVCBaseEntity@@XZ
	DD	FLAT:?UpdateOwner@CBaseEntity@@UAEXXZ
	DD	FLAT:?FBecomeProne@CBaseEntity@@UAEHXZ
	DD	FLAT:?Center@CBaseEntity@@UAE?AVVector@@XZ
	DD	FLAT:?EyePosition@CBaseEntity@@UAE?AVVector@@XZ
	DD	FLAT:?EarPosition@CBaseEntity@@UAE?AVVector@@XZ
	DD	FLAT:?BodyTarget@CBaseEntity@@UAE?AVVector@@ABV2@@Z
	DD	FLAT:?IsPointSized@CBaseEntity@@UBEHXZ
	DD	FLAT:?Illumination@CBaseEntity@@UAEHXZ
	DD	FLAT:?FVisible@CBaseEntity@@UAEHABVVector@@@Z
	DD	FLAT:?FVisible@CBaseEntity@@UAEHPAV1@@Z
	DD	FLAT:?ShouldCollide@CBaseEntity@@UAEHPAV1@@Z
	DD	FLAT:?ClearEffects@CBaseEntity@@UAEXXZ
	DD	FLAT:?AddAmmo@CBasePlayerAmmo@@UAEHPAVCBaseEntity@@@Z
CONST	ENDS
;	COMDAT ??_7CBasePlayerWeapon@@6B@
CONST	SEGMENT
??_7CBasePlayerWeapon@@6B@ DD FLAT:??_R4CBasePlayerWeapon@@6B@ ; CBasePlayerWeapon::`vftable'
	DD	FLAT:?GetDataDescMap@CBasePlayerWeapon@@UAEPAUdatamap_s@@XZ
	DD	FLAT:?Spawn@CBaseEntity@@UAEXXZ
	DD	FLAT:?Precache@CBaseEntity@@UAEXXZ
	DD	FLAT:?KeyValue@CBaseDelay@@UAEXPAUKeyValueData_s@@@Z
	DD	FLAT:?Save@CBaseEntity@@UAEHAAVCSave@@@Z
	DD	FLAT:?Restore@CBaseEntity@@UAEHAAVCRestore@@@Z
	DD	FLAT:?ObjectCaps@CBaseEntity@@UAEHXZ
	DD	FLAT:?Activate@CBaseEntity@@UAEXXZ
	DD	FLAT:?OnChangeLevel@CBaseEntity@@UAEXXZ
	DD	FLAT:?OnTeleport@CBaseEntity@@UAEXXZ
	DD	FLAT:?PortalSleep@CBaseEntity@@UAEXM@Z
	DD	FLAT:?StartMessage@CBaseEntity@@UAEXPAVCBasePlayer@@@Z
	DD	FLAT:?GetPosition@CBaseEntity@@UAEMXZ
	DD	FLAT:?OnChangeParent@CBaseEntity@@UAEXXZ
	DD	FLAT:?OnClearParent@CBaseEntity@@UAEXXZ
	DD	FLAT:?OnRemove@CBaseEntity@@UAEXXZ
	DD	FLAT:?SetObjectCollisionBox@CBasePlayerItem@@UAEXXZ
	DD	FLAT:?Classify@CBaseEntity@@UAEHXZ
	DD	FLAT:?DeathNotice@CBaseEntity@@UAEXPAUentvars_s@@@Z
	DD	FLAT:?IsRigidBody@CBaseEntity@@UAEHXZ
	DD	FLAT:?SetNextThink@CBaseEntity@@UAEXM@Z
	DD	FLAT:?GetState@CBaseEntity@@UAE?AW4STATE@@PAV1@@Z
	DD	FLAT:?GetState@CBaseDelay@@UAE?AW4STATE@@XZ
	DD	FLAT:?TraceAttack@CBaseEntity@@UAEXPAUentvars_s@@MVVector@@PAUgametrace_s@@H@Z
	DD	FLAT:?TakeDamage@CBaseEntity@@UAEHPAUentvars_s@@0MH@Z
	DD	FLAT:?TakeHealth@CBaseEntity@@UAEHMH@Z
	DD	FLAT:?TakeArmor@CBaseEntity@@UAEHMH@Z
	DD	FLAT:?Killed@CBaseEntity@@UAEXPAUentvars_s@@H@Z
	DD	FLAT:?BloodColor@CBaseEntity@@UAEHXZ
	DD	FLAT:?TraceBleed@CBaseEntity@@UAEXMVVector@@PAUgametrace_s@@H@Z
	DD	FLAT:?IsTriggered@CBaseEntity@@UAEHPAV1@@Z
	DD	FLAT:?MyMonsterPointer@CBaseEntity@@UAEPAVCBaseMonster@@XZ
	DD	FLAT:?MySquadMonsterPointer@CBaseEntity@@UAEPAVCSquadMonster@@XZ
	DD	FLAT:?GetToggleState@CBaseEntity@@UAEHXZ
	DD	FLAT:?AddPoints@CBaseEntity@@UAEXHH@Z
	DD	FLAT:?AddPointsToTeam@CBaseEntity@@UAEXHH@Z
	DD	FLAT:?AddPlayerItem@CBaseEntity@@UAEHPAVCBasePlayerItem@@@Z
	DD	FLAT:?RemovePlayerItem@CBaseEntity@@UAEHPAVCBasePlayerItem@@@Z
	DD	FLAT:?GiveAmmo@CBaseEntity@@UAEHHPADH@Z
	DD	FLAT:?GetDelay@CBaseEntity@@UAEMXZ
	DD	FLAT:?IsMoving@CBaseEntity@@UAEHXZ
	DD	FLAT:?OverrideReset@CBaseEntity@@UAEXXZ
	DD	FLAT:?TransferReset@CBaseEntity@@UAEXXZ
	DD	FLAT:?DamageDecal@CBaseEntity@@UAEHH@Z
	DD	FLAT:?SetToggleState@CBaseEntity@@UAEXH@Z
	DD	FLAT:?StartSneaking@CBaseEntity@@UAEXXZ
	DD	FLAT:?StopSneaking@CBaseEntity@@UAEXXZ
	DD	FLAT:?OnControls@CBaseEntity@@UAEHPAV1@@Z
	DD	FLAT:?IsSneaking@CBaseEntity@@UAEHXZ
	DD	FLAT:?IsAlive@CBaseEntity@@UAEHXZ
	DD	FLAT:?IsBSPModel@CBaseEntity@@UAEHXZ
	DD	FLAT:?IsCustomModel@CBaseEntity@@UAEHXZ
	DD	FLAT:?ReflectGauss@CBaseEntity@@UAEHXZ
	DD	FLAT:?HasTarget@CBaseEntity@@UAEHH@Z
	DD	FLAT:?IsInWorld@CBaseEntity@@UAEHH@Z
	DD	FLAT:?IsPlayer@CBaseEntity@@UAEHXZ
	DD	FLAT:?IsNetClient@CBaseEntity@@UAEHXZ
	DD	FLAT:?IsMonster@CBaseEntity@@UAEHXZ
	DD	FLAT:?IsPushable@CBaseEntity@@UAEHXZ
	DD	FLAT:?IsProjectile@CBaseEntity@@UAEHXZ
	DD	FLAT:?IsFuncScreen@CBaseEntity@@UAEHXZ
	DD	FLAT:?IsPortal@CBaseEntity@@UAEHXZ
	DD	FLAT:?IsTank@CBaseEntity@@UAEHXZ
	DD	FLAT:?IsMover@CBaseEntity@@UAEHXZ
	DD	FLAT:?IsBreakable@CBaseEntity@@UAEHXZ
	DD	FLAT:?TeamID@CBaseEntity@@UAEPBDXZ
	DD	FLAT:?AddSpawnFlags@CBaseEntity@@UAEXH@Z
	DD	FLAT:?HasSpawnFlags@CBaseEntity@@UBE_NH@Z
	DD	FLAT:?SetFadeDistance@CBaseEntity@@UAEXH@Z
	DD	FLAT:?SetFlag@CBaseEntity@@UAEXH@Z
	DD	FLAT:?HasFlag@CBaseEntity@@UBE_NH@Z
	DD	FLAT:?RemoveFlag@CBaseEntity@@UAEXH@Z
	DD	FLAT:?SetNullModel@CBaseEntity@@UAEXXZ
	DD	FLAT:?OnPickupObject@CBaseEntity@@UAEXXZ
	DD	FLAT:?OnDropObject@CBaseEntity@@UAEXXZ
	DD	FLAT:?GetNextTarget@CBaseEntity@@UAEPAV1@XZ
	DD	FLAT:?Think@CBaseEntity@@UAEXXZ
	DD	FLAT:?Use@CBaseEntity@@UAEXPAV1@0W4USE_TYPE@@M@Z
	DD	FLAT:?Touch@CBaseEntity@@UAEXPAV1@@Z
	DD	FLAT:?Blocked@CBaseEntity@@UAEXPAV1@@Z
	DD	FLAT:?MoveDone@CBaseEntity@@UAEXXZ
	DD	FLAT:?Respawn@CBasePlayerItem@@UAEPAVCBaseEntity@@XZ
	DD	FLAT:?UpdateOwner@CBaseEntity@@UAEXXZ
	DD	FLAT:?FBecomeProne@CBaseEntity@@UAEHXZ
	DD	FLAT:?Center@CBaseEntity@@UAE?AVVector@@XZ
	DD	FLAT:?EyePosition@CBaseEntity@@UAE?AVVector@@XZ
	DD	FLAT:?EarPosition@CBaseEntity@@UAE?AVVector@@XZ
	DD	FLAT:?BodyTarget@CBaseEntity@@UAE?AVVector@@ABV2@@Z
	DD	FLAT:?IsPointSized@CBaseEntity@@UBEHXZ
	DD	FLAT:?Illumination@CBaseEntity@@UAEHXZ
	DD	FLAT:?FVisible@CBaseEntity@@UAEHABVVector@@@Z
	DD	FLAT:?FVisible@CBaseEntity@@UAEHPAV1@@Z
	DD	FLAT:?ShouldCollide@CBaseEntity@@UAEHPAV1@@Z
	DD	FLAT:?ClearEffects@CBaseEntity@@UAEXXZ
	DD	FLAT:?HandleAnimEvent@CBaseAnimating@@UAEXPAUMonsterEvent_t@@@Z
	DD	FLAT:?AddToPlayer@CBasePlayerWeapon@@UAEHPAVCBasePlayer@@@Z
	DD	FLAT:?AddDuplicate@CBasePlayerWeapon@@UAEHPAVCBasePlayerItem@@@Z
	DD	FLAT:?GetItemInfo@CBasePlayerItem@@UAEHPAUItemInfo@@@Z
	DD	FLAT:?CanDeploy@CBasePlayerWeapon@@UAEHXZ
	DD	FLAT:?Deploy@CBasePlayerItem@@UAEHXZ
	DD	FLAT:?CanHolster@CBasePlayerItem@@UAEHXZ
	DD	FLAT:?Holster@CBasePlayerWeapon@@UAEXXZ
	DD	FLAT:?UpdateItemInfo@CBasePlayerWeapon@@UAEXXZ
	DD	FLAT:?ItemPreFrame@CBasePlayerItem@@UAEXXZ
	DD	FLAT:?ItemPostFrame@CBasePlayerWeapon@@UAEXXZ
	DD	FLAT:?Drop@CBasePlayerItem@@UAEXXZ
	DD	FLAT:?Kill@CBasePlayerItem@@UAEXXZ
	DD	FLAT:?AttachToPlayer@CBasePlayerItem@@UAEXPAVCBasePlayer@@@Z
	DD	FLAT:?PrimaryAmmoIndex@CBasePlayerWeapon@@UAEHXZ
	DD	FLAT:?SecondaryAmmoIndex@CBasePlayerWeapon@@UAEHXZ
	DD	FLAT:?UpdateClientData@CBasePlayerWeapon@@UAEHPAVCBasePlayer@@@Z
	DD	FLAT:?GetWeaponPtr@CBasePlayerWeapon@@UAEPAVCBasePlayerItem@@XZ
	DD	FLAT:?iItemSlot@CBasePlayerItem@@UAEHXZ
	DD	FLAT:?ExtractAmmo@CBasePlayerWeapon@@UAEHPAV1@@Z
	DD	FLAT:?ExtractClipAmmo@CBasePlayerWeapon@@UAEHPAV1@@Z
	DD	FLAT:?AddWeapon@CBasePlayerWeapon@@UAEHXZ
	DD	FLAT:?PlayEmptySound@CBasePlayerWeapon@@UAEHXZ
	DD	FLAT:?ResetEmptySound@CBasePlayerWeapon@@UAEXXZ
	DD	FLAT:?SendWeaponAnim@CBasePlayerWeapon@@UAEXHHH@Z
	DD	FLAT:?IsUseable@CBasePlayerWeapon@@UAEHXZ
	DD	FLAT:?PrimaryAttack@CBasePlayerWeapon@@UAEXXZ
	DD	FLAT:?SecondaryAttack@CBasePlayerWeapon@@UAEXXZ
	DD	FLAT:?Reload@CBasePlayerWeapon@@UAEXXZ
	DD	FLAT:?WeaponIdle@CBasePlayerWeapon@@UAEXXZ
	DD	FLAT:?RetireWeapon@CBasePlayerWeapon@@UAEXXZ
	DD	FLAT:?ShouldWeaponIdle@CBasePlayerWeapon@@UAEHXZ
	DD	FLAT:?UseDecrement@CBasePlayerWeapon@@UAEHXZ
	DD	FLAT:?LowAmmoMsg@CBasePlayerWeapon@@UAEXPAVCBasePlayer@@@Z
CONST	ENDS
;	COMDAT ??_7CBasePlayerItem@@6B@
CONST	SEGMENT
??_7CBasePlayerItem@@6B@ DD FLAT:??_R4CBasePlayerItem@@6B@ ; CBasePlayerItem::`vftable'
	DD	FLAT:?GetDataDescMap@CBasePlayerItem@@UAEPAUdatamap_s@@XZ
	DD	FLAT:?Spawn@CBaseEntity@@UAEXXZ
	DD	FLAT:?Precache@CBaseEntity@@UAEXXZ
	DD	FLAT:?KeyValue@CBaseDelay@@UAEXPAUKeyValueData_s@@@Z
	DD	FLAT:?Save@CBaseEntity@@UAEHAAVCSave@@@Z
	DD	FLAT:?Restore@CBaseEntity@@UAEHAAVCRestore@@@Z
	DD	FLAT:?ObjectCaps@CBaseEntity@@UAEHXZ
	DD	FLAT:?Activate@CBaseEntity@@UAEXXZ
	DD	FLAT:?OnChangeLevel@CBaseEntity@@UAEXXZ
	DD	FLAT:?OnTeleport@CBaseEntity@@UAEXXZ
	DD	FLAT:?PortalSleep@CBaseEntity@@UAEXM@Z
	DD	FLAT:?StartMessage@CBaseEntity@@UAEXPAVCBasePlayer@@@Z
	DD	FLAT:?GetPosition@CBaseEntity@@UAEMXZ
	DD	FLAT:?OnChangeParent@CBaseEntity@@UAEXXZ
	DD	FLAT:?OnClearParent@CBaseEntity@@UAEXXZ
	DD	FLAT:?OnRemove@CBaseEntity@@UAEXXZ
	DD	FLAT:?SetObjectCollisionBox@CBasePlayerItem@@UAEXXZ
	DD	FLAT:?Classify@CBaseEntity@@UAEHXZ
	DD	FLAT:?DeathNotice@CBaseEntity@@UAEXPAUentvars_s@@@Z
	DD	FLAT:?IsRigidBody@CBaseEntity@@UAEHXZ
	DD	FLAT:?SetNextThink@CBaseEntity@@UAEXM@Z
	DD	FLAT:?GetState@CBaseEntity@@UAE?AW4STATE@@PAV1@@Z
	DD	FLAT:?GetState@CBaseDelay@@UAE?AW4STATE@@XZ
	DD	FLAT:?TraceAttack@CBaseEntity@@UAEXPAUentvars_s@@MVVector@@PAUgametrace_s@@H@Z
	DD	FLAT:?TakeDamage@CBaseEntity@@UAEHPAUentvars_s@@0MH@Z
	DD	FLAT:?TakeHealth@CBaseEntity@@UAEHMH@Z
	DD	FLAT:?TakeArmor@CBaseEntity@@UAEHMH@Z
	DD	FLAT:?Killed@CBaseEntity@@UAEXPAUentvars_s@@H@Z
	DD	FLAT:?BloodColor@CBaseEntity@@UAEHXZ
	DD	FLAT:?TraceBleed@CBaseEntity@@UAEXMVVector@@PAUgametrace_s@@H@Z
	DD	FLAT:?IsTriggered@CBaseEntity@@UAEHPAV1@@Z
	DD	FLAT:?MyMonsterPointer@CBaseEntity@@UAEPAVCBaseMonster@@XZ
	DD	FLAT:?MySquadMonsterPointer@CBaseEntity@@UAEPAVCSquadMonster@@XZ
	DD	FLAT:?GetToggleState@CBaseEntity@@UAEHXZ
	DD	FLAT:?AddPoints@CBaseEntity@@UAEXHH@Z
	DD	FLAT:?AddPointsToTeam@CBaseEntity@@UAEXHH@Z
	DD	FLAT:?AddPlayerItem@CBaseEntity@@UAEHPAVCBasePlayerItem@@@Z
	DD	FLAT:?RemovePlayerItem@CBaseEntity@@UAEHPAVCBasePlayerItem@@@Z
	DD	FLAT:?GiveAmmo@CBaseEntity@@UAEHHPADH@Z
	DD	FLAT:?GetDelay@CBaseEntity@@UAEMXZ
	DD	FLAT:?IsMoving@CBaseEntity@@UAEHXZ
	DD	FLAT:?OverrideReset@CBaseEntity@@UAEXXZ
	DD	FLAT:?TransferReset@CBaseEntity@@UAEXXZ
	DD	FLAT:?DamageDecal@CBaseEntity@@UAEHH@Z
	DD	FLAT:?SetToggleState@CBaseEntity@@UAEXH@Z
	DD	FLAT:?StartSneaking@CBaseEntity@@UAEXXZ
	DD	FLAT:?StopSneaking@CBaseEntity@@UAEXXZ
	DD	FLAT:?OnControls@CBaseEntity@@UAEHPAV1@@Z
	DD	FLAT:?IsSneaking@CBaseEntity@@UAEHXZ
	DD	FLAT:?IsAlive@CBaseEntity@@UAEHXZ
	DD	FLAT:?IsBSPModel@CBaseEntity@@UAEHXZ
	DD	FLAT:?IsCustomModel@CBaseEntity@@UAEHXZ
	DD	FLAT:?ReflectGauss@CBaseEntity@@UAEHXZ
	DD	FLAT:?HasTarget@CBaseEntity@@UAEHH@Z
	DD	FLAT:?IsInWorld@CBaseEntity@@UAEHH@Z
	DD	FLAT:?IsPlayer@CBaseEntity@@UAEHXZ
	DD	FLAT:?IsNetClient@CBaseEntity@@UAEHXZ
	DD	FLAT:?IsMonster@CBaseEntity@@UAEHXZ
	DD	FLAT:?IsPushable@CBaseEntity@@UAEHXZ
	DD	FLAT:?IsProjectile@CBaseEntity@@UAEHXZ
	DD	FLAT:?IsFuncScreen@CBaseEntity@@UAEHXZ
	DD	FLAT:?IsPortal@CBaseEntity@@UAEHXZ
	DD	FLAT:?IsTank@CBaseEntity@@UAEHXZ
	DD	FLAT:?IsMover@CBaseEntity@@UAEHXZ
	DD	FLAT:?IsBreakable@CBaseEntity@@UAEHXZ
	DD	FLAT:?TeamID@CBaseEntity@@UAEPBDXZ
	DD	FLAT:?AddSpawnFlags@CBaseEntity@@UAEXH@Z
	DD	FLAT:?HasSpawnFlags@CBaseEntity@@UBE_NH@Z
	DD	FLAT:?SetFadeDistance@CBaseEntity@@UAEXH@Z
	DD	FLAT:?SetFlag@CBaseEntity@@UAEXH@Z
	DD	FLAT:?HasFlag@CBaseEntity@@UBE_NH@Z
	DD	FLAT:?RemoveFlag@CBaseEntity@@UAEXH@Z
	DD	FLAT:?SetNullModel@CBaseEntity@@UAEXXZ
	DD	FLAT:?OnPickupObject@CBaseEntity@@UAEXXZ
	DD	FLAT:?OnDropObject@CBaseEntity@@UAEXXZ
	DD	FLAT:?GetNextTarget@CBaseEntity@@UAEPAV1@XZ
	DD	FLAT:?Think@CBaseEntity@@UAEXXZ
	DD	FLAT:?Use@CBaseEntity@@UAEXPAV1@0W4USE_TYPE@@M@Z
	DD	FLAT:?Touch@CBaseEntity@@UAEXPAV1@@Z
	DD	FLAT:?Blocked@CBaseEntity@@UAEXPAV1@@Z
	DD	FLAT:?MoveDone@CBaseEntity@@UAEXXZ
	DD	FLAT:?Respawn@CBasePlayerItem@@UAEPAVCBaseEntity@@XZ
	DD	FLAT:?UpdateOwner@CBaseEntity@@UAEXXZ
	DD	FLAT:?FBecomeProne@CBaseEntity@@UAEHXZ
	DD	FLAT:?Center@CBaseEntity@@UAE?AVVector@@XZ
	DD	FLAT:?EyePosition@CBaseEntity@@UAE?AVVector@@XZ
	DD	FLAT:?EarPosition@CBaseEntity@@UAE?AVVector@@XZ
	DD	FLAT:?BodyTarget@CBaseEntity@@UAE?AVVector@@ABV2@@Z
	DD	FLAT:?IsPointSized@CBaseEntity@@UBEHXZ
	DD	FLAT:?Illumination@CBaseEntity@@UAEHXZ
	DD	FLAT:?FVisible@CBaseEntity@@UAEHABVVector@@@Z
	DD	FLAT:?FVisible@CBaseEntity@@UAEHPAV1@@Z
	DD	FLAT:?ShouldCollide@CBaseEntity@@UAEHPAV1@@Z
	DD	FLAT:?ClearEffects@CBaseEntity@@UAEXXZ
	DD	FLAT:?HandleAnimEvent@CBaseAnimating@@UAEXPAUMonsterEvent_t@@@Z
	DD	FLAT:?AddToPlayer@CBasePlayerItem@@UAEHPAVCBasePlayer@@@Z
	DD	FLAT:?AddDuplicate@CBasePlayerItem@@UAEHPAV1@@Z
	DD	FLAT:?GetItemInfo@CBasePlayerItem@@UAEHPAUItemInfo@@@Z
	DD	FLAT:?CanDeploy@CBasePlayerItem@@UAEHXZ
	DD	FLAT:?Deploy@CBasePlayerItem@@UAEHXZ
	DD	FLAT:?CanHolster@CBasePlayerItem@@UAEHXZ
	DD	FLAT:?Holster@CBasePlayerItem@@UAEXXZ
	DD	FLAT:?UpdateItemInfo@CBasePlayerItem@@UAEXXZ
	DD	FLAT:?ItemPreFrame@CBasePlayerItem@@UAEXXZ
	DD	FLAT:?ItemPostFrame@CBasePlayerItem@@UAEXXZ
	DD	FLAT:?Drop@CBasePlayerItem@@UAEXXZ
	DD	FLAT:?Kill@CBasePlayerItem@@UAEXXZ
	DD	FLAT:?AttachToPlayer@CBasePlayerItem@@UAEXPAVCBasePlayer@@@Z
	DD	FLAT:?PrimaryAmmoIndex@CBasePlayerItem@@UAEHXZ
	DD	FLAT:?SecondaryAmmoIndex@CBasePlayerItem@@UAEHXZ
	DD	FLAT:?UpdateClientData@CBasePlayerItem@@UAEHPAVCBasePlayer@@@Z
	DD	FLAT:?GetWeaponPtr@CBasePlayerItem@@UAEPAV1@XZ
	DD	FLAT:?iItemSlot@CBasePlayerItem@@UAEHXZ
CONST	ENDS
;	COMDAT ??_7CGrenade@@6B@
CONST	SEGMENT
??_7CGrenade@@6B@ DD FLAT:??_R4CGrenade@@6B@		; CGrenade::`vftable'
	DD	FLAT:?GetDataDescMap@CGrenade@@UAEPAUdatamap_s@@XZ
	DD	FLAT:?Spawn@CGrenade@@UAEXXZ
	DD	FLAT:?Precache@CBaseEntity@@UAEXXZ
	DD	FLAT:?KeyValue@CBaseMonster@@UAEXPAUKeyValueData_s@@@Z
	DD	FLAT:?Save@CBaseEntity@@UAEHAAVCSave@@@Z
	DD	FLAT:?Restore@CBaseMonster@@UAEHAAVCRestore@@@Z
	DD	FLAT:?ObjectCaps@CBaseEntity@@UAEHXZ
	DD	FLAT:?Activate@CBaseEntity@@UAEXXZ
	DD	FLAT:?OnChangeLevel@CBaseEntity@@UAEXXZ
	DD	FLAT:?OnTeleport@CBaseEntity@@UAEXXZ
	DD	FLAT:?PortalSleep@CBaseEntity@@UAEXM@Z
	DD	FLAT:?StartMessage@CBaseEntity@@UAEXPAVCBasePlayer@@@Z
	DD	FLAT:?GetPosition@CBaseEntity@@UAEMXZ
	DD	FLAT:?OnChangeParent@CBaseEntity@@UAEXXZ
	DD	FLAT:?OnClearParent@CBaseEntity@@UAEXXZ
	DD	FLAT:?OnRemove@CBaseEntity@@UAEXXZ
	DD	FLAT:?SetObjectCollisionBox@CBaseEntity@@UAEXXZ
	DD	FLAT:?Classify@CBaseMonster@@UAEHXZ
	DD	FLAT:?DeathNotice@CBaseEntity@@UAEXPAUentvars_s@@@Z
	DD	FLAT:?IsRigidBody@CBaseEntity@@UAEHXZ
	DD	FLAT:?SetNextThink@CBaseEntity@@UAEXM@Z
	DD	FLAT:?GetState@CBaseEntity@@UAE?AW4STATE@@PAV1@@Z
	DD	FLAT:?GetState@CBaseToggle@@UAE?AW4STATE@@XZ
	DD	FLAT:?TraceAttack@CBaseMonster@@UAEXPAUentvars_s@@MVVector@@PAUgametrace_s@@H@Z
	DD	FLAT:?TakeDamage@CBaseMonster@@UAEHPAUentvars_s@@0MH@Z
	DD	FLAT:?TakeHealth@CBaseMonster@@UAEHMH@Z
	DD	FLAT:?TakeArmor@CBaseEntity@@UAEHMH@Z
	DD	FLAT:?Killed@CGrenade@@UAEXPAUentvars_s@@H@Z
	DD	FLAT:?BloodColor@CGrenade@@UAEHXZ
	DD	FLAT:?TraceBleed@CBaseEntity@@UAEXMVVector@@PAUgametrace_s@@H@Z
	DD	FLAT:?IsTriggered@CBaseEntity@@UAEHPAV1@@Z
	DD	FLAT:?MyMonsterPointer@CBaseMonster@@UAEPAV1@XZ
	DD	FLAT:?MySquadMonsterPointer@CBaseEntity@@UAEPAVCSquadMonster@@XZ
	DD	FLAT:?GetToggleState@CBaseToggle@@UAEHXZ
	DD	FLAT:?AddPoints@CBaseEntity@@UAEXHH@Z
	DD	FLAT:?AddPointsToTeam@CBaseEntity@@UAEXHH@Z
	DD	FLAT:?AddPlayerItem@CBaseEntity@@UAEHPAVCBasePlayerItem@@@Z
	DD	FLAT:?RemovePlayerItem@CBaseEntity@@UAEHPAVCBasePlayerItem@@@Z
	DD	FLAT:?GiveAmmo@CBaseEntity@@UAEHHPADH@Z
	DD	FLAT:?GetDelay@CBaseToggle@@UAEMXZ
	DD	FLAT:?IsMoving@CBaseMonster@@UAEHXZ
	DD	FLAT:?OverrideReset@CBaseEntity@@UAEXXZ
	DD	FLAT:?TransferReset@CBaseEntity@@UAEXXZ
	DD	FLAT:?DamageDecal@CBaseMonster@@UAEHH@Z
	DD	FLAT:?SetToggleState@CBaseEntity@@UAEXH@Z
	DD	FLAT:?StartSneaking@CBaseEntity@@UAEXXZ
	DD	FLAT:?StopSneaking@CBaseEntity@@UAEXXZ
	DD	FLAT:?OnControls@CBaseEntity@@UAEHPAV1@@Z
	DD	FLAT:?IsSneaking@CBaseEntity@@UAEHXZ
	DD	FLAT:?IsAlive@CBaseMonster@@UAEHXZ
	DD	FLAT:?IsBSPModel@CBaseEntity@@UAEHXZ
	DD	FLAT:?IsCustomModel@CBaseEntity@@UAEHXZ
	DD	FLAT:?ReflectGauss@CBaseEntity@@UAEHXZ
	DD	FLAT:?HasTarget@CBaseEntity@@UAEHH@Z
	DD	FLAT:?IsInWorld@CBaseEntity@@UAEHH@Z
	DD	FLAT:?IsPlayer@CBaseEntity@@UAEHXZ
	DD	FLAT:?IsNetClient@CBaseEntity@@UAEHXZ
	DD	FLAT:?IsMonster@CBaseEntity@@UAEHXZ
	DD	FLAT:?IsPushable@CBaseEntity@@UAEHXZ
	DD	FLAT:?IsProjectile@CGrenade@@UAEHXZ
	DD	FLAT:?IsFuncScreen@CBaseEntity@@UAEHXZ
	DD	FLAT:?IsPortal@CBaseEntity@@UAEHXZ
	DD	FLAT:?IsTank@CBaseEntity@@UAEHXZ
	DD	FLAT:?IsMover@CBaseEntity@@UAEHXZ
	DD	FLAT:?IsBreakable@CBaseEntity@@UAEHXZ
	DD	FLAT:?TeamID@CBaseEntity@@UAEPBDXZ
	DD	FLAT:?AddSpawnFlags@CBaseEntity@@UAEXH@Z
	DD	FLAT:?HasSpawnFlags@CBaseEntity@@UBE_NH@Z
	DD	FLAT:?SetFadeDistance@CBaseEntity@@UAEXH@Z
	DD	FLAT:?SetFlag@CBaseEntity@@UAEXH@Z
	DD	FLAT:?HasFlag@CBaseEntity@@UBE_NH@Z
	DD	FLAT:?RemoveFlag@CBaseEntity@@UAEXH@Z
	DD	FLAT:?SetNullModel@CBaseEntity@@UAEXXZ
	DD	FLAT:?OnPickupObject@CBaseEntity@@UAEXXZ
	DD	FLAT:?OnDropObject@CBaseEntity@@UAEXXZ
	DD	FLAT:?GetNextTarget@CBaseEntity@@UAEPAV1@XZ
	DD	FLAT:?Think@CBaseEntity@@UAEXXZ
	DD	FLAT:?Use@CBaseEntity@@UAEXPAV1@0W4USE_TYPE@@M@Z
	DD	FLAT:?Touch@CBaseEntity@@UAEXPAV1@@Z
	DD	FLAT:?Blocked@CBaseEntity@@UAEXPAV1@@Z
	DD	FLAT:?MoveDone@CBaseToggle@@UAEXXZ
	DD	FLAT:?Respawn@CBaseEntity@@UAEPAV1@XZ
	DD	FLAT:?UpdateOwner@CBaseEntity@@UAEXXZ
	DD	FLAT:?FBecomeProne@CBaseMonster@@UAEHXZ
	DD	FLAT:?Center@CBaseEntity@@UAE?AVVector@@XZ
	DD	FLAT:?EyePosition@CBaseEntity@@UAE?AVVector@@XZ
	DD	FLAT:?EarPosition@CBaseEntity@@UAE?AVVector@@XZ
	DD	FLAT:?BodyTarget@CBaseMonster@@UAE?AVVector@@ABV2@@Z
	DD	FLAT:?IsPointSized@CBaseEntity@@UBEHXZ
	DD	FLAT:?Illumination@CBaseEntity@@UAEHXZ
	DD	FLAT:?FVisible@CBaseEntity@@UAEHABVVector@@@Z
	DD	FLAT:?FVisible@CBaseEntity@@UAEHPAV1@@Z
	DD	FLAT:?ShouldCollide@CBaseEntity@@UAEHPAV1@@Z
	DD	FLAT:?ClearEffects@CGrenade@@UAEXXZ
	DD	FLAT:?HandleAnimEvent@CBaseMonster@@UAEXPAUMonsterEvent_t@@@Z
	DD	FLAT:?Look@CBaseMonster@@UAEXH@Z
	DD	FLAT:?RunAI@CBaseMonster@@UAEXXZ
	DD	FLAT:?ShouldFadeOnDeath@CBaseMonster@@UAEHXZ
	DD	FLAT:?ChangeYaw@CBaseMonster@@UAEMH@Z
	DD	FLAT:?MonsterThink@CBaseMonster@@UAEXXZ
	DD	FLAT:?IRelationship@CBaseMonster@@UAEHPAVCBaseEntity@@@Z
	DD	FLAT:?MonsterInit@CBaseMonster@@UAEXXZ
	DD	FLAT:?MonsterInitDead@CBaseMonster@@UAEXXZ
	DD	FLAT:?BecomeDead@CBaseMonster@@UAEXXZ
	DD	FLAT:?StartMonster@CBaseMonster@@UAEXXZ
	DD	FLAT:?BestVisibleEnemy@CBaseMonster@@UAEPAVCBaseEntity@@XZ
	DD	FLAT:?FInViewCone@CBaseMonster@@UAEHPAVVector@@@Z
	DD	FLAT:?FInViewCone@CBaseMonster@@UAEHPAVCBaseEntity@@M@Z
	DD	FLAT:?CheckLocalMove@CBaseMonster@@UAEHABVVector@@0PAVCBaseEntity@@PAM@Z
	DD	FLAT:?Move@CBaseMonster@@UAEXM@Z
	DD	FLAT:?MoveExecute@CBaseMonster@@UAEXPAVCBaseEntity@@ABVVector@@M@Z
	DD	FLAT:?ShouldAdvanceRoute@CBaseMonster@@UAEHM@Z
	DD	FLAT:?GetStoppedActivity@CBaseMonster@@UAE?AW4Activity@@XZ
	DD	FLAT:?Stop@CBaseMonster@@UAEXXZ
	DD	FLAT:?CheckRangeAttack1@CBaseMonster@@UAEHMM@Z
	DD	FLAT:?CheckRangeAttack2@CBaseMonster@@UAEHMM@Z
	DD	FLAT:?CheckMeleeAttack1@CBaseMonster@@UAEHMM@Z
	DD	FLAT:?CheckMeleeAttack2@CBaseMonster@@UAEHMM@Z
	DD	FLAT:?ScheduleFromName@CBaseMonster@@UAEPAUSchedule_t@@PBD@Z
	DD	FLAT:?StartTask@CBaseMonster@@UAEXPAUTask_t@@@Z
	DD	FLAT:?RunTask@CBaseMonster@@UAEXPAUTask_t@@@Z
	DD	FLAT:?GetScheduleOfType@CBaseMonster@@UAEPAUSchedule_t@@H@Z
	DD	FLAT:?GetSchedule@CBaseMonster@@UAEPAUSchedule_t@@XZ
	DD	FLAT:?ScheduleChange@CBaseMonster@@UAEXXZ
	DD	FLAT:?CanPlaySequence@CBaseMonster@@UAEHHH@Z
	DD	FLAT:?CanPlaySentence@CBaseMonster@@UAEHH@Z
	DD	FLAT:?PlaySentence@CBaseMonster@@UAEXPBDMMMH@Z
	DD	FLAT:?PlayScriptedSentence@CBaseMonster@@UAEXPBDMMMHPAVCBaseEntity@@H@Z
	DD	FLAT:?SentenceStop@CBaseMonster@@UAEXXZ
	DD	FLAT:?GetIdealState@CBaseMonster@@UAE?AW4MONSTERSTATE@@XZ
	DD	FLAT:?SetActivity@CBaseMonster@@UAEXW4Activity@@@Z
	DD	FLAT:?ReportAIState@CBaseMonster@@UAEXXZ
	DD	FLAT:?CheckEnemy@CBaseMonster@@UAEHPAVCBaseEntity@@@Z
	DD	FLAT:?FTriangulate@CBaseMonster@@UAEHABVVector@@0MPAVCBaseEntity@@PAV2@@Z
	DD	FLAT:?SetYawSpeed@CBaseMonster@@UAEXXZ
	DD	FLAT:?BuildNearestRoute@CBaseMonster@@UAEHVVector@@0MM@Z
	DD	FLAT:?FindCover@CBaseMonster@@UAEHVVector@@0MM@Z
	DD	FLAT:?FindRunAway@CBaseMonster@@UAEHVVector@@MM@Z
	DD	FLAT:?FValidateCover@CBaseMonster@@UAEHABVVector@@@Z
	DD	FLAT:?CoverRadius@CBaseMonster@@UAEMXZ
	DD	FLAT:?FCanCheckAttacks@CBaseMonster@@UAEHXZ
	DD	FLAT:?CheckAmmo@CBaseMonster@@UAEXXZ
	DD	FLAT:?IgnoreConditions@CBaseMonster@@UAEHXZ
	DD	FLAT:?FValidateHintType@CBaseMonster@@UAEHF@Z
	DD	FLAT:?FCanActiveIdle@CBaseMonster@@UAEHXZ
	DD	FLAT:?ISoundMask@CBaseMonster@@UAEHXZ
	DD	FLAT:?PBestSound@CBaseMonster@@UAEPAVCSound@@XZ
	DD	FLAT:?PBestScent@CBaseMonster@@UAEPAVCSound@@XZ
	DD	FLAT:?HearingSensitivity@CBaseMonster@@UAEMXZ
	DD	FLAT:?BarnacleVictimBitten@CBaseMonster@@UAEXPAUentvars_s@@@Z
	DD	FLAT:?BarnacleVictimReleased@CBaseMonster@@UAEXXZ
	DD	FLAT:?PrescheduleThink@CBaseMonster@@UAEXXZ
	DD	FLAT:?GetDeathActivity@CBaseMonster@@UAE?AW4Activity@@XZ
	DD	FLAT:?GibMonster@CBaseMonster@@UAEXXZ
	DD	FLAT:?HasHumanGibs@CBaseMonster@@UAEHXZ
	DD	FLAT:?HasAlienGibs@CBaseMonster@@UAEHXZ
	DD	FLAT:?FadeMonster@CBaseMonster@@UAEXXZ
	DD	FLAT:?GetGunPosition@CBaseMonster@@UAE?AVVector@@XZ
	DD	FLAT:?DeathSound@CBaseMonster@@UAEXXZ
	DD	FLAT:?AlertSound@CBaseMonster@@UAEXXZ
	DD	FLAT:?IdleSound@CBaseMonster@@UAEXXZ
	DD	FLAT:?PainSound@CBaseMonster@@UAEXXZ
	DD	FLAT:?StepSound@CBaseMonster@@UAEXXZ
	DD	FLAT:?StopFollowing@CBaseMonster@@UAEXH@Z
	DD	FLAT:?BounceSound@CGrenade@@UAEXXZ
CONST	ENDS
;	COMDAT ??_C@_0BB@EMJBJDBM@sprites?1null?4spr?$AA@
CONST	SEGMENT
??_C@_0BB@EMJBJDBM@sprites?1null?4spr?$AA@ DB 'sprites/null.spr', 00H ; `string'
CONST	ENDS
;	COMDAT ??_7CBaseMonster@@6B@
CONST	SEGMENT
??_7CBaseMonster@@6B@ DD FLAT:??_R4CBaseMonster@@6B@	; CBaseMonster::`vftable'
	DD	FLAT:?GetDataDescMap@CBaseMonster@@UAEPAUdatamap_s@@XZ
	DD	FLAT:?Spawn@CBaseEntity@@UAEXXZ
	DD	FLAT:?Precache@CBaseEntity@@UAEXXZ
	DD	FLAT:?KeyValue@CBaseMonster@@UAEXPAUKeyValueData_s@@@Z
	DD	FLAT:?Save@CBaseEntity@@UAEHAAVCSave@@@Z
	DD	FLAT:?Restore@CBaseMonster@@UAEHAAVCRestore@@@Z
	DD	FLAT:?ObjectCaps@CBaseEntity@@UAEHXZ
	DD	FLAT:?Activate@CBaseEntity@@UAEXXZ
	DD	FLAT:?OnChangeLevel@CBaseEntity@@UAEXXZ
	DD	FLAT:?OnTeleport@CBaseEntity@@UAEXXZ
	DD	FLAT:?PortalSleep@CBaseEntity@@UAEXM@Z
	DD	FLAT:?StartMessage@CBaseEntity@@UAEXPAVCBasePlayer@@@Z
	DD	FLAT:?GetPosition@CBaseEntity@@UAEMXZ
	DD	FLAT:?OnChangeParent@CBaseEntity@@UAEXXZ
	DD	FLAT:?OnClearParent@CBaseEntity@@UAEXXZ
	DD	FLAT:?OnRemove@CBaseEntity@@UAEXXZ
	DD	FLAT:?SetObjectCollisionBox@CBaseEntity@@UAEXXZ
	DD	FLAT:?Classify@CBaseMonster@@UAEHXZ
	DD	FLAT:?DeathNotice@CBaseEntity@@UAEXPAUentvars_s@@@Z
	DD	FLAT:?IsRigidBody@CBaseEntity@@UAEHXZ
	DD	FLAT:?SetNextThink@CBaseEntity@@UAEXM@Z
	DD	FLAT:?GetState@CBaseEntity@@UAE?AW4STATE@@PAV1@@Z
	DD	FLAT:?GetState@CBaseToggle@@UAE?AW4STATE@@XZ
	DD	FLAT:?TraceAttack@CBaseMonster@@UAEXPAUentvars_s@@MVVector@@PAUgametrace_s@@H@Z
	DD	FLAT:?TakeDamage@CBaseMonster@@UAEHPAUentvars_s@@0MH@Z
	DD	FLAT:?TakeHealth@CBaseMonster@@UAEHMH@Z
	DD	FLAT:?TakeArmor@CBaseEntity@@UAEHMH@Z
	DD	FLAT:?Killed@CBaseMonster@@UAEXPAUentvars_s@@H@Z
	DD	FLAT:?BloodColor@CBaseMonster@@UAEHXZ
	DD	FLAT:?TraceBleed@CBaseEntity@@UAEXMVVector@@PAUgametrace_s@@H@Z
	DD	FLAT:?IsTriggered@CBaseEntity@@UAEHPAV1@@Z
	DD	FLAT:?MyMonsterPointer@CBaseMonster@@UAEPAV1@XZ
	DD	FLAT:?MySquadMonsterPointer@CBaseEntity@@UAEPAVCSquadMonster@@XZ
	DD	FLAT:?GetToggleState@CBaseToggle@@UAEHXZ
	DD	FLAT:?AddPoints@CBaseEntity@@UAEXHH@Z
	DD	FLAT:?AddPointsToTeam@CBaseEntity@@UAEXHH@Z
	DD	FLAT:?AddPlayerItem@CBaseEntity@@UAEHPAVCBasePlayerItem@@@Z
	DD	FLAT:?RemovePlayerItem@CBaseEntity@@UAEHPAVCBasePlayerItem@@@Z
	DD	FLAT:?GiveAmmo@CBaseEntity@@UAEHHPADH@Z
	DD	FLAT:?GetDelay@CBaseToggle@@UAEMXZ
	DD	FLAT:?IsMoving@CBaseMonster@@UAEHXZ
	DD	FLAT:?OverrideReset@CBaseEntity@@UAEXXZ
	DD	FLAT:?TransferReset@CBaseEntity@@UAEXXZ
	DD	FLAT:?DamageDecal@CBaseMonster@@UAEHH@Z
	DD	FLAT:?SetToggleState@CBaseEntity@@UAEXH@Z
	DD	FLAT:?StartSneaking@CBaseEntity@@UAEXXZ
	DD	FLAT:?StopSneaking@CBaseEntity@@UAEXXZ
	DD	FLAT:?OnControls@CBaseEntity@@UAEHPAV1@@Z
	DD	FLAT:?IsSneaking@CBaseEntity@@UAEHXZ
	DD	FLAT:?IsAlive@CBaseMonster@@UAEHXZ
	DD	FLAT:?IsBSPModel@CBaseEntity@@UAEHXZ
	DD	FLAT:?IsCustomModel@CBaseEntity@@UAEHXZ
	DD	FLAT:?ReflectGauss@CBaseEntity@@UAEHXZ
	DD	FLAT:?HasTarget@CBaseEntity@@UAEHH@Z
	DD	FLAT:?IsInWorld@CBaseEntity@@UAEHH@Z
	DD	FLAT:?IsPlayer@CBaseEntity@@UAEHXZ
	DD	FLAT:?IsNetClient@CBaseEntity@@UAEHXZ
	DD	FLAT:?IsMonster@CBaseEntity@@UAEHXZ
	DD	FLAT:?IsPushable@CBaseEntity@@UAEHXZ
	DD	FLAT:?IsProjectile@CBaseEntity@@UAEHXZ
	DD	FLAT:?IsFuncScreen@CBaseEntity@@UAEHXZ
	DD	FLAT:?IsPortal@CBaseEntity@@UAEHXZ
	DD	FLAT:?IsTank@CBaseEntity@@UAEHXZ
	DD	FLAT:?IsMover@CBaseEntity@@UAEHXZ
	DD	FLAT:?IsBreakable@CBaseEntity@@UAEHXZ
	DD	FLAT:?TeamID@CBaseEntity@@UAEPBDXZ
	DD	FLAT:?AddSpawnFlags@CBaseEntity@@UAEXH@Z
	DD	FLAT:?HasSpawnFlags@CBaseEntity@@UBE_NH@Z
	DD	FLAT:?SetFadeDistance@CBaseEntity@@UAEXH@Z
	DD	FLAT:?SetFlag@CBaseEntity@@UAEXH@Z
	DD	FLAT:?HasFlag@CBaseEntity@@UBE_NH@Z
	DD	FLAT:?RemoveFlag@CBaseEntity@@UAEXH@Z
	DD	FLAT:?SetNullModel@CBaseEntity@@UAEXXZ
	DD	FLAT:?OnPickupObject@CBaseEntity@@UAEXXZ
	DD	FLAT:?OnDropObject@CBaseEntity@@UAEXXZ
	DD	FLAT:?GetNextTarget@CBaseEntity@@UAEPAV1@XZ
	DD	FLAT:?Think@CBaseEntity@@UAEXXZ
	DD	FLAT:?Use@CBaseEntity@@UAEXPAV1@0W4USE_TYPE@@M@Z
	DD	FLAT:?Touch@CBaseEntity@@UAEXPAV1@@Z
	DD	FLAT:?Blocked@CBaseEntity@@UAEXPAV1@@Z
	DD	FLAT:?MoveDone@CBaseToggle@@UAEXXZ
	DD	FLAT:?Respawn@CBaseEntity@@UAEPAV1@XZ
	DD	FLAT:?UpdateOwner@CBaseEntity@@UAEXXZ
	DD	FLAT:?FBecomeProne@CBaseMonster@@UAEHXZ
	DD	FLAT:?Center@CBaseEntity@@UAE?AVVector@@XZ
	DD	FLAT:?EyePosition@CBaseEntity@@UAE?AVVector@@XZ
	DD	FLAT:?EarPosition@CBaseEntity@@UAE?AVVector@@XZ
	DD	FLAT:?BodyTarget@CBaseMonster@@UAE?AVVector@@ABV2@@Z
	DD	FLAT:?IsPointSized@CBaseEntity@@UBEHXZ
	DD	FLAT:?Illumination@CBaseEntity@@UAEHXZ
	DD	FLAT:?FVisible@CBaseEntity@@UAEHABVVector@@@Z
	DD	FLAT:?FVisible@CBaseEntity@@UAEHPAV1@@Z
	DD	FLAT:?ShouldCollide@CBaseEntity@@UAEHPAV1@@Z
	DD	FLAT:?ClearEffects@CBaseMonster@@UAEXXZ
	DD	FLAT:?HandleAnimEvent@CBaseMonster@@UAEXPAUMonsterEvent_t@@@Z
	DD	FLAT:?Look@CBaseMonster@@UAEXH@Z
	DD	FLAT:?RunAI@CBaseMonster@@UAEXXZ
	DD	FLAT:?ShouldFadeOnDeath@CBaseMonster@@UAEHXZ
	DD	FLAT:?ChangeYaw@CBaseMonster@@UAEMH@Z
	DD	FLAT:?MonsterThink@CBaseMonster@@UAEXXZ
	DD	FLAT:?IRelationship@CBaseMonster@@UAEHPAVCBaseEntity@@@Z
	DD	FLAT:?MonsterInit@CBaseMonster@@UAEXXZ
	DD	FLAT:?MonsterInitDead@CBaseMonster@@UAEXXZ
	DD	FLAT:?BecomeDead@CBaseMonster@@UAEXXZ
	DD	FLAT:?StartMonster@CBaseMonster@@UAEXXZ
	DD	FLAT:?BestVisibleEnemy@CBaseMonster@@UAEPAVCBaseEntity@@XZ
	DD	FLAT:?FInViewCone@CBaseMonster@@UAEHPAVVector@@@Z
	DD	FLAT:?FInViewCone@CBaseMonster@@UAEHPAVCBaseEntity@@M@Z
	DD	FLAT:?CheckLocalMove@CBaseMonster@@UAEHABVVector@@0PAVCBaseEntity@@PAM@Z
	DD	FLAT:?Move@CBaseMonster@@UAEXM@Z
	DD	FLAT:?MoveExecute@CBaseMonster@@UAEXPAVCBaseEntity@@ABVVector@@M@Z
	DD	FLAT:?ShouldAdvanceRoute@CBaseMonster@@UAEHM@Z
	DD	FLAT:?GetStoppedActivity@CBaseMonster@@UAE?AW4Activity@@XZ
	DD	FLAT:?Stop@CBaseMonster@@UAEXXZ
	DD	FLAT:?CheckRangeAttack1@CBaseMonster@@UAEHMM@Z
	DD	FLAT:?CheckRangeAttack2@CBaseMonster@@UAEHMM@Z
	DD	FLAT:?CheckMeleeAttack1@CBaseMonster@@UAEHMM@Z
	DD	FLAT:?CheckMeleeAttack2@CBaseMonster@@UAEHMM@Z
	DD	FLAT:?ScheduleFromName@CBaseMonster@@UAEPAUSchedule_t@@PBD@Z
	DD	FLAT:?StartTask@CBaseMonster@@UAEXPAUTask_t@@@Z
	DD	FLAT:?RunTask@CBaseMonster@@UAEXPAUTask_t@@@Z
	DD	FLAT:?GetScheduleOfType@CBaseMonster@@UAEPAUSchedule_t@@H@Z
	DD	FLAT:?GetSchedule@CBaseMonster@@UAEPAUSchedule_t@@XZ
	DD	FLAT:?ScheduleChange@CBaseMonster@@UAEXXZ
	DD	FLAT:?CanPlaySequence@CBaseMonster@@UAEHHH@Z
	DD	FLAT:?CanPlaySentence@CBaseMonster@@UAEHH@Z
	DD	FLAT:?PlaySentence@CBaseMonster@@UAEXPBDMMMH@Z
	DD	FLAT:?PlayScriptedSentence@CBaseMonster@@UAEXPBDMMMHPAVCBaseEntity@@H@Z
	DD	FLAT:?SentenceStop@CBaseMonster@@UAEXXZ
	DD	FLAT:?GetIdealState@CBaseMonster@@UAE?AW4MONSTERSTATE@@XZ
	DD	FLAT:?SetActivity@CBaseMonster@@UAEXW4Activity@@@Z
	DD	FLAT:?ReportAIState@CBaseMonster@@UAEXXZ
	DD	FLAT:?CheckEnemy@CBaseMonster@@UAEHPAVCBaseEntity@@@Z
	DD	FLAT:?FTriangulate@CBaseMonster@@UAEHABVVector@@0MPAVCBaseEntity@@PAV2@@Z
	DD	FLAT:?SetYawSpeed@CBaseMonster@@UAEXXZ
	DD	FLAT:?BuildNearestRoute@CBaseMonster@@UAEHVVector@@0MM@Z
	DD	FLAT:?FindCover@CBaseMonster@@UAEHVVector@@0MM@Z
	DD	FLAT:?FindRunAway@CBaseMonster@@UAEHVVector@@MM@Z
	DD	FLAT:?FValidateCover@CBaseMonster@@UAEHABVVector@@@Z
	DD	FLAT:?CoverRadius@CBaseMonster@@UAEMXZ
	DD	FLAT:?FCanCheckAttacks@CBaseMonster@@UAEHXZ
	DD	FLAT:?CheckAmmo@CBaseMonster@@UAEXXZ
	DD	FLAT:?IgnoreConditions@CBaseMonster@@UAEHXZ
	DD	FLAT:?FValidateHintType@CBaseMonster@@UAEHF@Z
	DD	FLAT:?FCanActiveIdle@CBaseMonster@@UAEHXZ
	DD	FLAT:?ISoundMask@CBaseMonster@@UAEHXZ
	DD	FLAT:?PBestSound@CBaseMonster@@UAEPAVCSound@@XZ
	DD	FLAT:?PBestScent@CBaseMonster@@UAEPAVCSound@@XZ
	DD	FLAT:?HearingSensitivity@CBaseMonster@@UAEMXZ
	DD	FLAT:?BarnacleVictimBitten@CBaseMonster@@UAEXPAUentvars_s@@@Z
	DD	FLAT:?BarnacleVictimReleased@CBaseMonster@@UAEXXZ
	DD	FLAT:?PrescheduleThink@CBaseMonster@@UAEXXZ
	DD	FLAT:?GetDeathActivity@CBaseMonster@@UAE?AW4Activity@@XZ
	DD	FLAT:?GibMonster@CBaseMonster@@UAEXXZ
	DD	FLAT:?HasHumanGibs@CBaseMonster@@UAEHXZ
	DD	FLAT:?HasAlienGibs@CBaseMonster@@UAEHXZ
	DD	FLAT:?FadeMonster@CBaseMonster@@UAEXXZ
	DD	FLAT:?GetGunPosition@CBaseMonster@@UAE?AVVector@@XZ
	DD	FLAT:?DeathSound@CBaseMonster@@UAEXXZ
	DD	FLAT:?AlertSound@CBaseMonster@@UAEXXZ
	DD	FLAT:?IdleSound@CBaseMonster@@UAEXXZ
	DD	FLAT:?PainSound@CBaseMonster@@UAEXXZ
	DD	FLAT:?StepSound@CBaseMonster@@UAEXXZ
	DD	FLAT:?StopFollowing@CBaseMonster@@UAEXH@Z
CONST	ENDS
;	COMDAT ??_7CBaseToggle@@6B@
CONST	SEGMENT
??_7CBaseToggle@@6B@ DD FLAT:??_R4CBaseToggle@@6B@	; CBaseToggle::`vftable'
	DD	FLAT:?GetDataDescMap@CBaseToggle@@UAEPAUdatamap_s@@XZ
	DD	FLAT:?Spawn@CBaseEntity@@UAEXXZ
	DD	FLAT:?Precache@CBaseEntity@@UAEXXZ
	DD	FLAT:?KeyValue@CBaseToggle@@UAEXPAUKeyValueData_s@@@Z
	DD	FLAT:?Save@CBaseEntity@@UAEHAAVCSave@@@Z
	DD	FLAT:?Restore@CBaseToggle@@UAEHAAVCRestore@@@Z
	DD	FLAT:?ObjectCaps@CBaseEntity@@UAEHXZ
	DD	FLAT:?Activate@CBaseEntity@@UAEXXZ
	DD	FLAT:?OnChangeLevel@CBaseEntity@@UAEXXZ
	DD	FLAT:?OnTeleport@CBaseEntity@@UAEXXZ
	DD	FLAT:?PortalSleep@CBaseEntity@@UAEXM@Z
	DD	FLAT:?StartMessage@CBaseEntity@@UAEXPAVCBasePlayer@@@Z
	DD	FLAT:?GetPosition@CBaseEntity@@UAEMXZ
	DD	FLAT:?OnChangeParent@CBaseEntity@@UAEXXZ
	DD	FLAT:?OnClearParent@CBaseEntity@@UAEXXZ
	DD	FLAT:?OnRemove@CBaseEntity@@UAEXXZ
	DD	FLAT:?SetObjectCollisionBox@CBaseEntity@@UAEXXZ
	DD	FLAT:?Classify@CBaseEntity@@UAEHXZ
	DD	FLAT:?DeathNotice@CBaseEntity@@UAEXPAUentvars_s@@@Z
	DD	FLAT:?IsRigidBody@CBaseEntity@@UAEHXZ
	DD	FLAT:?SetNextThink@CBaseEntity@@UAEXM@Z
	DD	FLAT:?GetState@CBaseEntity@@UAE?AW4STATE@@PAV1@@Z
	DD	FLAT:?GetState@CBaseToggle@@UAE?AW4STATE@@XZ
	DD	FLAT:?TraceAttack@CBaseEntity@@UAEXPAUentvars_s@@MVVector@@PAUgametrace_s@@H@Z
	DD	FLAT:?TakeDamage@CBaseEntity@@UAEHPAUentvars_s@@0MH@Z
	DD	FLAT:?TakeHealth@CBaseEntity@@UAEHMH@Z
	DD	FLAT:?TakeArmor@CBaseEntity@@UAEHMH@Z
	DD	FLAT:?Killed@CBaseEntity@@UAEXPAUentvars_s@@H@Z
	DD	FLAT:?BloodColor@CBaseEntity@@UAEHXZ
	DD	FLAT:?TraceBleed@CBaseEntity@@UAEXMVVector@@PAUgametrace_s@@H@Z
	DD	FLAT:?IsTriggered@CBaseEntity@@UAEHPAV1@@Z
	DD	FLAT:?MyMonsterPointer@CBaseEntity@@UAEPAVCBaseMonster@@XZ
	DD	FLAT:?MySquadMonsterPointer@CBaseEntity@@UAEPAVCSquadMonster@@XZ
	DD	FLAT:?GetToggleState@CBaseToggle@@UAEHXZ
	DD	FLAT:?AddPoints@CBaseEntity@@UAEXHH@Z
	DD	FLAT:?AddPointsToTeam@CBaseEntity@@UAEXHH@Z
	DD	FLAT:?AddPlayerItem@CBaseEntity@@UAEHPAVCBasePlayerItem@@@Z
	DD	FLAT:?RemovePlayerItem@CBaseEntity@@UAEHPAVCBasePlayerItem@@@Z
	DD	FLAT:?GiveAmmo@CBaseEntity@@UAEHHPADH@Z
	DD	FLAT:?GetDelay@CBaseToggle@@UAEMXZ
	DD	FLAT:?IsMoving@CBaseEntity@@UAEHXZ
	DD	FLAT:?OverrideReset@CBaseEntity@@UAEXXZ
	DD	FLAT:?TransferReset@CBaseEntity@@UAEXXZ
	DD	FLAT:?DamageDecal@CBaseEntity@@UAEHH@Z
	DD	FLAT:?SetToggleState@CBaseEntity@@UAEXH@Z
	DD	FLAT:?StartSneaking@CBaseEntity@@UAEXXZ
	DD	FLAT:?StopSneaking@CBaseEntity@@UAEXXZ
	DD	FLAT:?OnControls@CBaseEntity@@UAEHPAV1@@Z
	DD	FLAT:?IsSneaking@CBaseEntity@@UAEHXZ
	DD	FLAT:?IsAlive@CBaseEntity@@UAEHXZ
	DD	FLAT:?IsBSPModel@CBaseEntity@@UAEHXZ
	DD	FLAT:?IsCustomModel@CBaseEntity@@UAEHXZ
	DD	FLAT:?ReflectGauss@CBaseEntity@@UAEHXZ
	DD	FLAT:?HasTarget@CBaseEntity@@UAEHH@Z
	DD	FLAT:?IsInWorld@CBaseEntity@@UAEHH@Z
	DD	FLAT:?IsPlayer@CBaseEntity@@UAEHXZ
	DD	FLAT:?IsNetClient@CBaseEntity@@UAEHXZ
	DD	FLAT:?IsMonster@CBaseEntity@@UAEHXZ
	DD	FLAT:?IsPushable@CBaseEntity@@UAEHXZ
	DD	FLAT:?IsProjectile@CBaseEntity@@UAEHXZ
	DD	FLAT:?IsFuncScreen@CBaseEntity@@UAEHXZ
	DD	FLAT:?IsPortal@CBaseEntity@@UAEHXZ
	DD	FLAT:?IsTank@CBaseEntity@@UAEHXZ
	DD	FLAT:?IsMover@CBaseEntity@@UAEHXZ
	DD	FLAT:?IsBreakable@CBaseEntity@@UAEHXZ
	DD	FLAT:?TeamID@CBaseEntity@@UAEPBDXZ
	DD	FLAT:?AddSpawnFlags@CBaseEntity@@UAEXH@Z
	DD	FLAT:?HasSpawnFlags@CBaseEntity@@UBE_NH@Z
	DD	FLAT:?SetFadeDistance@CBaseEntity@@UAEXH@Z
	DD	FLAT:?SetFlag@CBaseEntity@@UAEXH@Z
	DD	FLAT:?HasFlag@CBaseEntity@@UBE_NH@Z
	DD	FLAT:?RemoveFlag@CBaseEntity@@UAEXH@Z
	DD	FLAT:?SetNullModel@CBaseEntity@@UAEXXZ
	DD	FLAT:?OnPickupObject@CBaseEntity@@UAEXXZ
	DD	FLAT:?OnDropObject@CBaseEntity@@UAEXXZ
	DD	FLAT:?GetNextTarget@CBaseEntity@@UAEPAV1@XZ
	DD	FLAT:?Think@CBaseEntity@@UAEXXZ
	DD	FLAT:?Use@CBaseEntity@@UAEXPAV1@0W4USE_TYPE@@M@Z
	DD	FLAT:?Touch@CBaseEntity@@UAEXPAV1@@Z
	DD	FLAT:?Blocked@CBaseEntity@@UAEXPAV1@@Z
	DD	FLAT:?MoveDone@CBaseToggle@@UAEXXZ
	DD	FLAT:?Respawn@CBaseEntity@@UAEPAV1@XZ
	DD	FLAT:?UpdateOwner@CBaseEntity@@UAEXXZ
	DD	FLAT:?FBecomeProne@CBaseEntity@@UAEHXZ
	DD	FLAT:?Center@CBaseEntity@@UAE?AVVector@@XZ
	DD	FLAT:?EyePosition@CBaseEntity@@UAE?AVVector@@XZ
	DD	FLAT:?EarPosition@CBaseEntity@@UAE?AVVector@@XZ
	DD	FLAT:?BodyTarget@CBaseEntity@@UAE?AVVector@@ABV2@@Z
	DD	FLAT:?IsPointSized@CBaseEntity@@UBEHXZ
	DD	FLAT:?Illumination@CBaseEntity@@UAEHXZ
	DD	FLAT:?FVisible@CBaseEntity@@UAEHABVVector@@@Z
	DD	FLAT:?FVisible@CBaseEntity@@UAEHPAV1@@Z
	DD	FLAT:?ShouldCollide@CBaseEntity@@UAEHPAV1@@Z
	DD	FLAT:?ClearEffects@CBaseEntity@@UAEXXZ
	DD	FLAT:?HandleAnimEvent@CBaseAnimating@@UAEXPAUMonsterEvent_t@@@Z
CONST	ENDS
;	COMDAT ??_7CBaseAnimating@@6B@
CONST	SEGMENT
??_7CBaseAnimating@@6B@ DD FLAT:??_R4CBaseAnimating@@6B@ ; CBaseAnimating::`vftable'
	DD	FLAT:?GetDataDescMap@CBaseAnimating@@UAEPAUdatamap_s@@XZ
	DD	FLAT:?Spawn@CBaseEntity@@UAEXXZ
	DD	FLAT:?Precache@CBaseEntity@@UAEXXZ
	DD	FLAT:?KeyValue@CBaseDelay@@UAEXPAUKeyValueData_s@@@Z
	DD	FLAT:?Save@CBaseEntity@@UAEHAAVCSave@@@Z
	DD	FLAT:?Restore@CBaseEntity@@UAEHAAVCRestore@@@Z
	DD	FLAT:?ObjectCaps@CBaseEntity@@UAEHXZ
	DD	FLAT:?Activate@CBaseEntity@@UAEXXZ
	DD	FLAT:?OnChangeLevel@CBaseEntity@@UAEXXZ
	DD	FLAT:?OnTeleport@CBaseEntity@@UAEXXZ
	DD	FLAT:?PortalSleep@CBaseEntity@@UAEXM@Z
	DD	FLAT:?StartMessage@CBaseEntity@@UAEXPAVCBasePlayer@@@Z
	DD	FLAT:?GetPosition@CBaseEntity@@UAEMXZ
	DD	FLAT:?OnChangeParent@CBaseEntity@@UAEXXZ
	DD	FLAT:?OnClearParent@CBaseEntity@@UAEXXZ
	DD	FLAT:?OnRemove@CBaseEntity@@UAEXXZ
	DD	FLAT:?SetObjectCollisionBox@CBaseEntity@@UAEXXZ
	DD	FLAT:?Classify@CBaseEntity@@UAEHXZ
	DD	FLAT:?DeathNotice@CBaseEntity@@UAEXPAUentvars_s@@@Z
	DD	FLAT:?IsRigidBody@CBaseEntity@@UAEHXZ
	DD	FLAT:?SetNextThink@CBaseEntity@@UAEXM@Z
	DD	FLAT:?GetState@CBaseEntity@@UAE?AW4STATE@@PAV1@@Z
	DD	FLAT:?GetState@CBaseDelay@@UAE?AW4STATE@@XZ
	DD	FLAT:?TraceAttack@CBaseEntity@@UAEXPAUentvars_s@@MVVector@@PAUgametrace_s@@H@Z
	DD	FLAT:?TakeDamage@CBaseEntity@@UAEHPAUentvars_s@@0MH@Z
	DD	FLAT:?TakeHealth@CBaseEntity@@UAEHMH@Z
	DD	FLAT:?TakeArmor@CBaseEntity@@UAEHMH@Z
	DD	FLAT:?Killed@CBaseEntity@@UAEXPAUentvars_s@@H@Z
	DD	FLAT:?BloodColor@CBaseEntity@@UAEHXZ
	DD	FLAT:?TraceBleed@CBaseEntity@@UAEXMVVector@@PAUgametrace_s@@H@Z
	DD	FLAT:?IsTriggered@CBaseEntity@@UAEHPAV1@@Z
	DD	FLAT:?MyMonsterPointer@CBaseEntity@@UAEPAVCBaseMonster@@XZ
	DD	FLAT:?MySquadMonsterPointer@CBaseEntity@@UAEPAVCSquadMonster@@XZ
	DD	FLAT:?GetToggleState@CBaseEntity@@UAEHXZ
	DD	FLAT:?AddPoints@CBaseEntity@@UAEXHH@Z
	DD	FLAT:?AddPointsToTeam@CBaseEntity@@UAEXHH@Z
	DD	FLAT:?AddPlayerItem@CBaseEntity@@UAEHPAVCBasePlayerItem@@@Z
	DD	FLAT:?RemovePlayerItem@CBaseEntity@@UAEHPAVCBasePlayerItem@@@Z
	DD	FLAT:?GiveAmmo@CBaseEntity@@UAEHHPADH@Z
	DD	FLAT:?GetDelay@CBaseEntity@@UAEMXZ
	DD	FLAT:?IsMoving@CBaseEntity@@UAEHXZ
	DD	FLAT:?OverrideReset@CBaseEntity@@UAEXXZ
	DD	FLAT:?TransferReset@CBaseEntity@@UAEXXZ
	DD	FLAT:?DamageDecal@CBaseEntity@@UAEHH@Z
	DD	FLAT:?SetToggleState@CBaseEntity@@UAEXH@Z
	DD	FLAT:?StartSneaking@CBaseEntity@@UAEXXZ
	DD	FLAT:?StopSneaking@CBaseEntity@@UAEXXZ
	DD	FLAT:?OnControls@CBaseEntity@@UAEHPAV1@@Z
	DD	FLAT:?IsSneaking@CBaseEntity@@UAEHXZ
	DD	FLAT:?IsAlive@CBaseEntity@@UAEHXZ
	DD	FLAT:?IsBSPModel@CBaseEntity@@UAEHXZ
	DD	FLAT:?IsCustomModel@CBaseEntity@@UAEHXZ
	DD	FLAT:?ReflectGauss@CBaseEntity@@UAEHXZ
	DD	FLAT:?HasTarget@CBaseEntity@@UAEHH@Z
	DD	FLAT:?IsInWorld@CBaseEntity@@UAEHH@Z
	DD	FLAT:?IsPlayer@CBaseEntity@@UAEHXZ
	DD	FLAT:?IsNetClient@CBaseEntity@@UAEHXZ
	DD	FLAT:?IsMonster@CBaseEntity@@UAEHXZ
	DD	FLAT:?IsPushable@CBaseEntity@@UAEHXZ
	DD	FLAT:?IsProjectile@CBaseEntity@@UAEHXZ
	DD	FLAT:?IsFuncScreen@CBaseEntity@@UAEHXZ
	DD	FLAT:?IsPortal@CBaseEntity@@UAEHXZ
	DD	FLAT:?IsTank@CBaseEntity@@UAEHXZ
	DD	FLAT:?IsMover@CBaseEntity@@UAEHXZ
	DD	FLAT:?IsBreakable@CBaseEntity@@UAEHXZ
	DD	FLAT:?TeamID@CBaseEntity@@UAEPBDXZ
	DD	FLAT:?AddSpawnFlags@CBaseEntity@@UAEXH@Z
	DD	FLAT:?HasSpawnFlags@CBaseEntity@@UBE_NH@Z
	DD	FLAT:?SetFadeDistance@CBaseEntity@@UAEXH@Z
	DD	FLAT:?SetFlag@CBaseEntity@@UAEXH@Z
	DD	FLAT:?HasFlag@CBaseEntity@@UBE_NH@Z
	DD	FLAT:?RemoveFlag@CBaseEntity@@UAEXH@Z
	DD	FLAT:?SetNullModel@CBaseEntity@@UAEXXZ
	DD	FLAT:?OnPickupObject@CBaseEntity@@UAEXXZ
	DD	FLAT:?OnDropObject@CBaseEntity@@UAEXXZ
	DD	FLAT:?GetNextTarget@CBaseEntity@@UAEPAV1@XZ
	DD	FLAT:?Think@CBaseEntity@@UAEXXZ
	DD	FLAT:?Use@CBaseEntity@@UAEXPAV1@0W4USE_TYPE@@M@Z
	DD	FLAT:?Touch@CBaseEntity@@UAEXPAV1@@Z
	DD	FLAT:?Blocked@CBaseEntity@@UAEXPAV1@@Z
	DD	FLAT:?MoveDone@CBaseEntity@@UAEXXZ
	DD	FLAT:?Respawn@CBaseEntity@@UAEPAV1@XZ
	DD	FLAT:?UpdateOwner@CBaseEntity@@UAEXXZ
	DD	FLAT:?FBecomeProne@CBaseEntity@@UAEHXZ
	DD	FLAT:?Center@CBaseEntity@@UAE?AVVector@@XZ
	DD	FLAT:?EyePosition@CBaseEntity@@UAE?AVVector@@XZ
	DD	FLAT:?EarPosition@CBaseEntity@@UAE?AVVector@@XZ
	DD	FLAT:?BodyTarget@CBaseEntity@@UAE?AVVector@@ABV2@@Z
	DD	FLAT:?IsPointSized@CBaseEntity@@UBEHXZ
	DD	FLAT:?Illumination@CBaseEntity@@UAEHXZ
	DD	FLAT:?FVisible@CBaseEntity@@UAEHABVVector@@@Z
	DD	FLAT:?FVisible@CBaseEntity@@UAEHPAV1@@Z
	DD	FLAT:?ShouldCollide@CBaseEntity@@UAEHPAV1@@Z
	DD	FLAT:?ClearEffects@CBaseEntity@@UAEXXZ
	DD	FLAT:?HandleAnimEvent@CBaseAnimating@@UAEXPAUMonsterEvent_t@@@Z
CONST	ENDS
;	COMDAT ??_7CBaseDelay@@6B@
CONST	SEGMENT
??_7CBaseDelay@@6B@ DD FLAT:??_R4CBaseDelay@@6B@	; CBaseDelay::`vftable'
	DD	FLAT:?GetDataDescMap@CBaseDelay@@UAEPAUdatamap_s@@XZ
	DD	FLAT:?Spawn@CBaseEntity@@UAEXXZ
	DD	FLAT:?Precache@CBaseEntity@@UAEXXZ
	DD	FLAT:?KeyValue@CBaseDelay@@UAEXPAUKeyValueData_s@@@Z
	DD	FLAT:?Save@CBaseEntity@@UAEHAAVCSave@@@Z
	DD	FLAT:?Restore@CBaseEntity@@UAEHAAVCRestore@@@Z
	DD	FLAT:?ObjectCaps@CBaseEntity@@UAEHXZ
	DD	FLAT:?Activate@CBaseEntity@@UAEXXZ
	DD	FLAT:?OnChangeLevel@CBaseEntity@@UAEXXZ
	DD	FLAT:?OnTeleport@CBaseEntity@@UAEXXZ
	DD	FLAT:?PortalSleep@CBaseEntity@@UAEXM@Z
	DD	FLAT:?StartMessage@CBaseEntity@@UAEXPAVCBasePlayer@@@Z
	DD	FLAT:?GetPosition@CBaseEntity@@UAEMXZ
	DD	FLAT:?OnChangeParent@CBaseEntity@@UAEXXZ
	DD	FLAT:?OnClearParent@CBaseEntity@@UAEXXZ
	DD	FLAT:?OnRemove@CBaseEntity@@UAEXXZ
	DD	FLAT:?SetObjectCollisionBox@CBaseEntity@@UAEXXZ
	DD	FLAT:?Classify@CBaseEntity@@UAEHXZ
	DD	FLAT:?DeathNotice@CBaseEntity@@UAEXPAUentvars_s@@@Z
	DD	FLAT:?IsRigidBody@CBaseEntity@@UAEHXZ
	DD	FLAT:?SetNextThink@CBaseEntity@@UAEXM@Z
	DD	FLAT:?GetState@CBaseEntity@@UAE?AW4STATE@@PAV1@@Z
	DD	FLAT:?GetState@CBaseDelay@@UAE?AW4STATE@@XZ
	DD	FLAT:?TraceAttack@CBaseEntity@@UAEXPAUentvars_s@@MVVector@@PAUgametrace_s@@H@Z
	DD	FLAT:?TakeDamage@CBaseEntity@@UAEHPAUentvars_s@@0MH@Z
	DD	FLAT:?TakeHealth@CBaseEntity@@UAEHMH@Z
	DD	FLAT:?TakeArmor@CBaseEntity@@UAEHMH@Z
	DD	FLAT:?Killed@CBaseEntity@@UAEXPAUentvars_s@@H@Z
	DD	FLAT:?BloodColor@CBaseEntity@@UAEHXZ
	DD	FLAT:?TraceBleed@CBaseEntity@@UAEXMVVector@@PAUgametrace_s@@H@Z
	DD	FLAT:?IsTriggered@CBaseEntity@@UAEHPAV1@@Z
	DD	FLAT:?MyMonsterPointer@CBaseEntity@@UAEPAVCBaseMonster@@XZ
	DD	FLAT:?MySquadMonsterPointer@CBaseEntity@@UAEPAVCSquadMonster@@XZ
	DD	FLAT:?GetToggleState@CBaseEntity@@UAEHXZ
	DD	FLAT:?AddPoints@CBaseEntity@@UAEXHH@Z
	DD	FLAT:?AddPointsToTeam@CBaseEntity@@UAEXHH@Z
	DD	FLAT:?AddPlayerItem@CBaseEntity@@UAEHPAVCBasePlayerItem@@@Z
	DD	FLAT:?RemovePlayerItem@CBaseEntity@@UAEHPAVCBasePlayerItem@@@Z
	DD	FLAT:?GiveAmmo@CBaseEntity@@UAEHHPADH@Z
	DD	FLAT:?GetDelay@CBaseEntity@@UAEMXZ
	DD	FLAT:?IsMoving@CBaseEntity@@UAEHXZ
	DD	FLAT:?OverrideReset@CBaseEntity@@UAEXXZ
	DD	FLAT:?TransferReset@CBaseEntity@@UAEXXZ
	DD	FLAT:?DamageDecal@CBaseEntity@@UAEHH@Z
	DD	FLAT:?SetToggleState@CBaseEntity@@UAEXH@Z
	DD	FLAT:?StartSneaking@CBaseEntity@@UAEXXZ
	DD	FLAT:?StopSneaking@CBaseEntity@@UAEXXZ
	DD	FLAT:?OnControls@CBaseEntity@@UAEHPAV1@@Z
	DD	FLAT:?IsSneaking@CBaseEntity@@UAEHXZ
	DD	FLAT:?IsAlive@CBaseEntity@@UAEHXZ
	DD	FLAT:?IsBSPModel@CBaseEntity@@UAEHXZ
	DD	FLAT:?IsCustomModel@CBaseEntity@@UAEHXZ
	DD	FLAT:?ReflectGauss@CBaseEntity@@UAEHXZ
	DD	FLAT:?HasTarget@CBaseEntity@@UAEHH@Z
	DD	FLAT:?IsInWorld@CBaseEntity@@UAEHH@Z
	DD	FLAT:?IsPlayer@CBaseEntity@@UAEHXZ
	DD	FLAT:?IsNetClient@CBaseEntity@@UAEHXZ
	DD	FLAT:?IsMonster@CBaseEntity@@UAEHXZ
	DD	FLAT:?IsPushable@CBaseEntity@@UAEHXZ
	DD	FLAT:?IsProjectile@CBaseEntity@@UAEHXZ
	DD	FLAT:?IsFuncScreen@CBaseEntity@@UAEHXZ
	DD	FLAT:?IsPortal@CBaseEntity@@UAEHXZ
	DD	FLAT:?IsTank@CBaseEntity@@UAEHXZ
	DD	FLAT:?IsMover@CBaseEntity@@UAEHXZ
	DD	FLAT:?IsBreakable@CBaseEntity@@UAEHXZ
	DD	FLAT:?TeamID@CBaseEntity@@UAEPBDXZ
	DD	FLAT:?AddSpawnFlags@CBaseEntity@@UAEXH@Z
	DD	FLAT:?HasSpawnFlags@CBaseEntity@@UBE_NH@Z
	DD	FLAT:?SetFadeDistance@CBaseEntity@@UAEXH@Z
	DD	FLAT:?SetFlag@CBaseEntity@@UAEXH@Z
	DD	FLAT:?HasFlag@CBaseEntity@@UBE_NH@Z
	DD	FLAT:?RemoveFlag@CBaseEntity@@UAEXH@Z
	DD	FLAT:?SetNullModel@CBaseEntity@@UAEXXZ
	DD	FLAT:?OnPickupObject@CBaseEntity@@UAEXXZ
	DD	FLAT:?OnDropObject@CBaseEntity@@UAEXXZ
	DD	FLAT:?GetNextTarget@CBaseEntity@@UAEPAV1@XZ
	DD	FLAT:?Think@CBaseEntity@@UAEXXZ
	DD	FLAT:?Use@CBaseEntity@@UAEXPAV1@0W4USE_TYPE@@M@Z
	DD	FLAT:?Touch@CBaseEntity@@UAEXPAV1@@Z
	DD	FLAT:?Blocked@CBaseEntity@@UAEXPAV1@@Z
	DD	FLAT:?MoveDone@CBaseEntity@@UAEXXZ
	DD	FLAT:?Respawn@CBaseEntity@@UAEPAV1@XZ
	DD	FLAT:?UpdateOwner@CBaseEntity@@UAEXXZ
	DD	FLAT:?FBecomeProne@CBaseEntity@@UAEHXZ
	DD	FLAT:?Center@CBaseEntity@@UAE?AVVector@@XZ
	DD	FLAT:?EyePosition@CBaseEntity@@UAE?AVVector@@XZ
	DD	FLAT:?EarPosition@CBaseEntity@@UAE?AVVector@@XZ
	DD	FLAT:?BodyTarget@CBaseEntity@@UAE?AVVector@@ABV2@@Z
	DD	FLAT:?IsPointSized@CBaseEntity@@UBEHXZ
	DD	FLAT:?Illumination@CBaseEntity@@UAEHXZ
	DD	FLAT:?FVisible@CBaseEntity@@UAEHABVVector@@@Z
	DD	FLAT:?FVisible@CBaseEntity@@UAEHPAV1@@Z
	DD	FLAT:?ShouldCollide@CBaseEntity@@UAEHPAV1@@Z
	DD	FLAT:?ClearEffects@CBaseEntity@@UAEXXZ
CONST	ENDS
;	COMDAT ??_C@_0CH@HELFJPDL@FUNCTION?5NOT?5IN?5TABLE?$CB?3?5?$CFs?3?$CFs?5?$CI?$CF@
CONST	SEGMENT
??_C@_0CH@HELFJPDL@FUNCTION?5NOT?5IN?5TABLE?$CB?3?5?$CFs?3?$CFs?5?$CI?$CF@ DB 'F'
	DB	'UNCTION NOT IN TABLE!: %s:%s (%08lx)', 0aH, 00H ; `string'
CONST	ENDS
;	COMDAT ??_C@_0L@JIJDCONP@customname?$AA@
CONST	SEGMENT
??_C@_0L@JIJDCONP@customname?$AA@ DB 'customname', 00H	; `string'
CONST	ENDS
;	COMDAT ??_C@_0N@JILDNHAP@vlight_cache?$AA@
CONST	SEGMENT
??_C@_0N@JILDNHAP@vlight_cache?$AA@ DB 'vlight_cache', 00H ; `string'
CONST	ENDS
;	COMDAT ??_C@_0L@IKCANML@reflection?$AA@
CONST	SEGMENT
??_C@_0L@IKCANML@reflection?$AA@ DB 'reflection', 00H	; `string'
CONST	ENDS
;	COMDAT ??_C@_05IAKJCFIM@style?$AA@
CONST	SEGMENT
??_C@_05IAKJCFIM@style?$AA@ DB 'style', 00H		; `string'
CONST	ENDS
;	COMDAT ??_C@_0M@EAELDHJO@parentflags?$AA@
CONST	SEGMENT
??_C@_0M@EAELDHJO@parentflags?$AA@ DB 'parentflags', 00H ; `string'
CONST	ENDS
;	COMDAT ??_C@_08JJJAOBDI@movewith?$AA@
CONST	SEGMENT
??_C@_08JJJAOBDI@movewith?$AA@ DB 'movewith', 00H	; `string'
CONST	ENDS
;	COMDAT ??_C@_06MLKDMCBD@parent?$AA@
CONST	SEGMENT
??_C@_06MLKDMCBD@parent?$AA@ DB 'parent', 00H		; `string'
CONST	ENDS
;	COMDAT ??_7CBaseEntity@@6B@
CONST	SEGMENT
??_7CBaseEntity@@6B@ DD FLAT:??_R4CBaseEntity@@6B@	; CBaseEntity::`vftable'
	DD	FLAT:?GetDataDescMap@CBaseEntity@@UAEPAUdatamap_s@@XZ
	DD	FLAT:?Spawn@CBaseEntity@@UAEXXZ
	DD	FLAT:?Precache@CBaseEntity@@UAEXXZ
	DD	FLAT:?KeyValue@CBaseEntity@@UAEXPAUKeyValueData_s@@@Z
	DD	FLAT:?Save@CBaseEntity@@UAEHAAVCSave@@@Z
	DD	FLAT:?Restore@CBaseEntity@@UAEHAAVCRestore@@@Z
	DD	FLAT:?ObjectCaps@CBaseEntity@@UAEHXZ
	DD	FLAT:?Activate@CBaseEntity@@UAEXXZ
	DD	FLAT:?OnChangeLevel@CBaseEntity@@UAEXXZ
	DD	FLAT:?OnTeleport@CBaseEntity@@UAEXXZ
	DD	FLAT:?PortalSleep@CBaseEntity@@UAEXM@Z
	DD	FLAT:?StartMessage@CBaseEntity@@UAEXPAVCBasePlayer@@@Z
	DD	FLAT:?GetPosition@CBaseEntity@@UAEMXZ
	DD	FLAT:?OnChangeParent@CBaseEntity@@UAEXXZ
	DD	FLAT:?OnClearParent@CBaseEntity@@UAEXXZ
	DD	FLAT:?OnRemove@CBaseEntity@@UAEXXZ
	DD	FLAT:?SetObjectCollisionBox@CBaseEntity@@UAEXXZ
	DD	FLAT:?Classify@CBaseEntity@@UAEHXZ
	DD	FLAT:?DeathNotice@CBaseEntity@@UAEXPAUentvars_s@@@Z
	DD	FLAT:?IsRigidBody@CBaseEntity@@UAEHXZ
	DD	FLAT:?SetNextThink@CBaseEntity@@UAEXM@Z
	DD	FLAT:?GetState@CBaseEntity@@UAE?AW4STATE@@PAV1@@Z
	DD	FLAT:?GetState@CBaseEntity@@UAE?AW4STATE@@XZ
	DD	FLAT:?TraceAttack@CBaseEntity@@UAEXPAUentvars_s@@MVVector@@PAUgametrace_s@@H@Z
	DD	FLAT:?TakeDamage@CBaseEntity@@UAEHPAUentvars_s@@0MH@Z
	DD	FLAT:?TakeHealth@CBaseEntity@@UAEHMH@Z
	DD	FLAT:?TakeArmor@CBaseEntity@@UAEHMH@Z
	DD	FLAT:?Killed@CBaseEntity@@UAEXPAUentvars_s@@H@Z
	DD	FLAT:?BloodColor@CBaseEntity@@UAEHXZ
	DD	FLAT:?TraceBleed@CBaseEntity@@UAEXMVVector@@PAUgametrace_s@@H@Z
	DD	FLAT:?IsTriggered@CBaseEntity@@UAEHPAV1@@Z
	DD	FLAT:?MyMonsterPointer@CBaseEntity@@UAEPAVCBaseMonster@@XZ
	DD	FLAT:?MySquadMonsterPointer@CBaseEntity@@UAEPAVCSquadMonster@@XZ
	DD	FLAT:?GetToggleState@CBaseEntity@@UAEHXZ
	DD	FLAT:?AddPoints@CBaseEntity@@UAEXHH@Z
	DD	FLAT:?AddPointsToTeam@CBaseEntity@@UAEXHH@Z
	DD	FLAT:?AddPlayerItem@CBaseEntity@@UAEHPAVCBasePlayerItem@@@Z
	DD	FLAT:?RemovePlayerItem@CBaseEntity@@UAEHPAVCBasePlayerItem@@@Z
	DD	FLAT:?GiveAmmo@CBaseEntity@@UAEHHPADH@Z
	DD	FLAT:?GetDelay@CBaseEntity@@UAEMXZ
	DD	FLAT:?IsMoving@CBaseEntity@@UAEHXZ
	DD	FLAT:?OverrideReset@CBaseEntity@@UAEXXZ
	DD	FLAT:?TransferReset@CBaseEntity@@UAEXXZ
	DD	FLAT:?DamageDecal@CBaseEntity@@UAEHH@Z
	DD	FLAT:?SetToggleState@CBaseEntity@@UAEXH@Z
	DD	FLAT:?StartSneaking@CBaseEntity@@UAEXXZ
	DD	FLAT:?StopSneaking@CBaseEntity@@UAEXXZ
	DD	FLAT:?OnControls@CBaseEntity@@UAEHPAV1@@Z
	DD	FLAT:?IsSneaking@CBaseEntity@@UAEHXZ
	DD	FLAT:?IsAlive@CBaseEntity@@UAEHXZ
	DD	FLAT:?IsBSPModel@CBaseEntity@@UAEHXZ
	DD	FLAT:?IsCustomModel@CBaseEntity@@UAEHXZ
	DD	FLAT:?ReflectGauss@CBaseEntity@@UAEHXZ
	DD	FLAT:?HasTarget@CBaseEntity@@UAEHH@Z
	DD	FLAT:?IsInWorld@CBaseEntity@@UAEHH@Z
	DD	FLAT:?IsPlayer@CBaseEntity@@UAEHXZ
	DD	FLAT:?IsNetClient@CBaseEntity@@UAEHXZ
	DD	FLAT:?IsMonster@CBaseEntity@@UAEHXZ
	DD	FLAT:?IsPushable@CBaseEntity@@UAEHXZ
	DD	FLAT:?IsProjectile@CBaseEntity@@UAEHXZ
	DD	FLAT:?IsFuncScreen@CBaseEntity@@UAEHXZ
	DD	FLAT:?IsPortal@CBaseEntity@@UAEHXZ
	DD	FLAT:?IsTank@CBaseEntity@@UAEHXZ
	DD	FLAT:?IsMover@CBaseEntity@@UAEHXZ
	DD	FLAT:?IsBreakable@CBaseEntity@@UAEHXZ
	DD	FLAT:?TeamID@CBaseEntity@@UAEPBDXZ
	DD	FLAT:?AddSpawnFlags@CBaseEntity@@UAEXH@Z
	DD	FLAT:?HasSpawnFlags@CBaseEntity@@UBE_NH@Z
	DD	FLAT:?SetFadeDistance@CBaseEntity@@UAEXH@Z
	DD	FLAT:?SetFlag@CBaseEntity@@UAEXH@Z
	DD	FLAT:?HasFlag@CBaseEntity@@UBE_NH@Z
	DD	FLAT:?RemoveFlag@CBaseEntity@@UAEXH@Z
	DD	FLAT:?SetNullModel@CBaseEntity@@UAEXXZ
	DD	FLAT:?OnPickupObject@CBaseEntity@@UAEXXZ
	DD	FLAT:?OnDropObject@CBaseEntity@@UAEXXZ
	DD	FLAT:?GetNextTarget@CBaseEntity@@UAEPAV1@XZ
	DD	FLAT:?Think@CBaseEntity@@UAEXXZ
	DD	FLAT:?Use@CBaseEntity@@UAEXPAV1@0W4USE_TYPE@@M@Z
	DD	FLAT:?Touch@CBaseEntity@@UAEXPAV1@@Z
	DD	FLAT:?Blocked@CBaseEntity@@UAEXPAV1@@Z
	DD	FLAT:?MoveDone@CBaseEntity@@UAEXXZ
	DD	FLAT:?Respawn@CBaseEntity@@UAEPAV1@XZ
	DD	FLAT:?UpdateOwner@CBaseEntity@@UAEXXZ
	DD	FLAT:?FBecomeProne@CBaseEntity@@UAEHXZ
	DD	FLAT:?Center@CBaseEntity@@UAE?AVVector@@XZ
	DD	FLAT:?EyePosition@CBaseEntity@@UAE?AVVector@@XZ
	DD	FLAT:?EarPosition@CBaseEntity@@UAE?AVVector@@XZ
	DD	FLAT:?BodyTarget@CBaseEntity@@UAE?AVVector@@ABV2@@Z
	DD	FLAT:?IsPointSized@CBaseEntity@@UBEHXZ
	DD	FLAT:?Illumination@CBaseEntity@@UAEHXZ
	DD	FLAT:?FVisible@CBaseEntity@@UAEHABVVector@@@Z
	DD	FLAT:?FVisible@CBaseEntity@@UAEHPAV1@@Z
	DD	FLAT:?ShouldCollide@CBaseEntity@@UAEHPAV1@@Z
	DD	FLAT:?ClearEffects@CBaseEntity@@UAEXXZ
CONST	ENDS
;	COMDAT ??_C@_0BF@DOONGEFO@Bad?5pev?5in?5OFFSET?$CI?$CJ?6?$AA@
CONST	SEGMENT
??_C@_0BF@DOONGEFO@Bad?5pev?5in?5OFFSET?$CI?$CJ?6?$AA@ DB 'Bad pev in OFF'
	DB	'SET()', 0aH, 00H				; `string'
CONST	ENDS
;	COMDAT ??_C@_0BF@CPEPILID@Bad?5ent?5in?5OFFSET?$CI?$CJ?6?$AA@
CONST	SEGMENT
??_C@_0BF@CPEPILID@Bad?5ent?5in?5OFFSET?$CI?$CJ?6?$AA@ DB 'Bad ent in OFF'
	DB	'SET()', 0aH, 00H				; `string'
CONST	ENDS
;	COMDAT ??_7IEntityFactory@@6B@
CONST	SEGMENT
??_7IEntityFactory@@6B@ DD FLAT:??_R4IEntityFactory@@6B@ ; IEntityFactory::`vftable'
	DD	FLAT:__purecall
	DD	FLAT:__purecall
	DD	FLAT:__purecall
CONST	ENDS
;	COMDAT ??_C@_04EFCDBJNL@?$CFs?3?3?$AA@
CONST	SEGMENT
??_C@_04EFCDBJNL@?$CFs?3?3?$AA@ DB '%s::', 00H		; `string'
CONST	ENDS
;	COMDAT ??_C@_00CNPNBAHC@?$AA@
CONST	SEGMENT
??_C@_00CNPNBAHC@?$AA@ DB 00H				; `string'
CONST	ENDS
;	COMDAT xdata$x
xdata$x	SEGMENT
__unwindtable$??$GetClassPtr@VCRpg@@@@YAPAVCRpg@@PAV0@PBD@Z DD 0ffffffffH
	DD	FLAT:__unwindfunclet$??$GetClassPtr@VCRpg@@@@YAPAVCRpg@@PAV0@PBD@Z$0
__ehfuncinfo$??$GetClassPtr@VCRpg@@@@YAPAVCRpg@@PAV0@PBD@Z DD 019930522H
	DD	01H
	DD	FLAT:__unwindtable$??$GetClassPtr@VCRpg@@@@YAPAVCRpg@@PAV0@PBD@Z
	DD	2 DUP(00H)
	DD	2 DUP(00H)
	DD	00H
	DD	01H
xdata$x	ENDS
;	COMDAT xdata$x
xdata$x	SEGMENT
__unwindtable$??$GetClassPtr@VCRpgRocket@@@@YAPAVCRpgRocket@@PAV0@PBD@Z DD 0ffffffffH
	DD	FLAT:__unwindfunclet$??$GetClassPtr@VCRpgRocket@@@@YAPAVCRpgRocket@@PAV0@PBD@Z$0
__ehfuncinfo$??$GetClassPtr@VCRpgRocket@@@@YAPAVCRpgRocket@@PAV0@PBD@Z DD 019930522H
	DD	01H
	DD	FLAT:__unwindtable$??$GetClassPtr@VCRpgRocket@@@@YAPAVCRpgRocket@@PAV0@PBD@Z
	DD	2 DUP(00H)
	DD	2 DUP(00H)
	DD	00H
	DD	01H
xdata$x	ENDS
;	COMDAT xdata$x
xdata$x	SEGMENT
__unwindtable$??$GetClassPtr@VCRoboRocket2@@@@YAPAVCRoboRocket2@@PAV0@PBD@Z DD 0ffffffffH
	DD	FLAT:__unwindfunclet$??$GetClassPtr@VCRoboRocket2@@@@YAPAVCRoboRocket2@@PAV0@PBD@Z$0
__ehfuncinfo$??$GetClassPtr@VCRoboRocket2@@@@YAPAVCRoboRocket2@@PAV0@PBD@Z DD 019930522H
	DD	01H
	DD	FLAT:__unwindtable$??$GetClassPtr@VCRoboRocket2@@@@YAPAVCRoboRocket2@@PAV0@PBD@Z
	DD	2 DUP(00H)
	DD	2 DUP(00H)
	DD	00H
	DD	01H
xdata$x	ENDS
;	COMDAT xdata$x
xdata$x	SEGMENT
__unwindtable$??$GetClassPtr@VCRpgAmmo@@@@YAPAVCRpgAmmo@@PAV0@PBD@Z DD 0ffffffffH
	DD	FLAT:__unwindfunclet$??$GetClassPtr@VCRpgAmmo@@@@YAPAVCRpgAmmo@@PAV0@PBD@Z$0
__ehfuncinfo$??$GetClassPtr@VCRpgAmmo@@@@YAPAVCRpgAmmo@@PAV0@PBD@Z DD 019930522H
	DD	01H
	DD	FLAT:__unwindtable$??$GetClassPtr@VCRpgAmmo@@@@YAPAVCRpgAmmo@@PAV0@PBD@Z
	DD	2 DUP(00H)
	DD	2 DUP(00H)
	DD	00H
	DD	01H
xdata$x	ENDS
;	COMDAT xdata$x
xdata$x	SEGMENT
__unwindtable$??$DataMapInit@VCRoboRocket2@@@@YAPAUdatamap_s@@PAVCRoboRocket2@@@Z DD 0ffffffffH
	DD	FLAT:__unwindfunclet$??$DataMapInit@VCRoboRocket2@@@@YAPAUdatamap_s@@PAVCRoboRocket2@@@Z$0
	DD	0ffffffffH
	DD	FLAT:__unwindfunclet$??$DataMapInit@VCRoboRocket2@@@@YAPAUdatamap_s@@PAVCRoboRocket2@@@Z$1
__ehfuncinfo$??$DataMapInit@VCRoboRocket2@@@@YAPAUdatamap_s@@PAVCRoboRocket2@@@Z DD 019930522H
	DD	02H
	DD	FLAT:__unwindtable$??$DataMapInit@VCRoboRocket2@@@@YAPAUdatamap_s@@PAVCRoboRocket2@@@Z
	DD	2 DUP(00H)
	DD	2 DUP(00H)
	DD	00H
	DD	01H
xdata$x	ENDS
;	COMDAT xdata$x
xdata$x	SEGMENT
__unwindtable$??$GetClassPtr@VCRpgRocket@@@@YAPAVCRpgRocket@@PAV0@@Z DD 0ffffffffH
	DD	FLAT:__unwindfunclet$??$GetClassPtr@VCRpgRocket@@@@YAPAVCRpgRocket@@PAV0@@Z$0
__ehfuncinfo$??$GetClassPtr@VCRpgRocket@@@@YAPAVCRpgRocket@@PAV0@@Z DD 019930522H
	DD	01H
	DD	FLAT:__unwindtable$??$GetClassPtr@VCRpgRocket@@@@YAPAVCRpgRocket@@PAV0@@Z
	DD	2 DUP(00H)
	DD	2 DUP(00H)
	DD	00H
	DD	01H
xdata$x	ENDS
;	COMDAT xdata$x
xdata$x	SEGMENT
__unwindtable$??$DataMapInit@VCRpgRocket@@@@YAPAUdatamap_s@@PAVCRpgRocket@@@Z DD 0ffffffffH
	DD	FLAT:__unwindfunclet$??$DataMapInit@VCRpgRocket@@@@YAPAUdatamap_s@@PAVCRpgRocket@@@Z$0
	DD	0ffffffffH
	DD	FLAT:__unwindfunclet$??$DataMapInit@VCRpgRocket@@@@YAPAUdatamap_s@@PAVCRpgRocket@@@Z$1
__ehfuncinfo$??$DataMapInit@VCRpgRocket@@@@YAPAUdatamap_s@@PAVCRpgRocket@@@Z DD 019930522H
	DD	02H
	DD	FLAT:__unwindtable$??$DataMapInit@VCRpgRocket@@@@YAPAUdatamap_s@@PAVCRpgRocket@@@Z
	DD	2 DUP(00H)
	DD	2 DUP(00H)
	DD	00H
	DD	01H
xdata$x	ENDS
;	COMDAT xdata$x
xdata$x	SEGMENT
__unwindtable$??$DataMapInit@VCRpg@@@@YAPAUdatamap_s@@PAVCRpg@@@Z DD 0ffffffffH
	DD	FLAT:__unwindfunclet$??$DataMapInit@VCRpg@@@@YAPAUdatamap_s@@PAVCRpg@@@Z$0
__ehfuncinfo$??$DataMapInit@VCRpg@@@@YAPAUdatamap_s@@PAVCRpg@@@Z DD 019930522H
	DD	01H
	DD	FLAT:__unwindtable$??$DataMapInit@VCRpg@@@@YAPAUdatamap_s@@PAVCRpg@@@Z
	DD	2 DUP(00H)
	DD	2 DUP(00H)
	DD	00H
	DD	01H
xdata$x	ENDS
;	COMDAT xdata$x
xdata$x	SEGMENT
__unwindtable$??0CGrenade@@QAE@XZ DD 0ffffffffH
	DD	FLAT:__unwindfunclet$??0CGrenade@@QAE@XZ$0
__ehfuncinfo$??0CGrenade@@QAE@XZ DD 019930522H
	DD	01H
	DD	FLAT:__unwindtable$??0CGrenade@@QAE@XZ
	DD	2 DUP(00H)
	DD	2 DUP(00H)
	DD	00H
	DD	01H
xdata$x	ENDS
;	COMDAT xdata$x
xdata$x	SEGMENT
__unwindtable$??0CBaseMonster@@QAE@XZ DD 0ffffffffH
	DD	FLAT:__unwindfunclet$??0CBaseMonster@@QAE@XZ$0
__ehfuncinfo$??0CBaseMonster@@QAE@XZ DD 019930522H
	DD	01H
	DD	FLAT:__unwindtable$??0CBaseMonster@@QAE@XZ
	DD	2 DUP(00H)
	DD	2 DUP(00H)
	DD	00H
	DD	01H
xdata$x	ENDS
;	COMDAT xdata$x
xdata$x	SEGMENT
__unwindtable$??0CBaseToggle@@QAE@XZ DD 0ffffffffH
	DD	FLAT:__unwindfunclet$??0CBaseToggle@@QAE@XZ$0
__ehfuncinfo$??0CBaseToggle@@QAE@XZ DD 019930522H
	DD	01H
	DD	FLAT:__unwindtable$??0CBaseToggle@@QAE@XZ
	DD	2 DUP(00H)
	DD	2 DUP(00H)
	DD	00H
	DD	01H
xdata$x	ENDS
;	COMDAT xdata$x
xdata$x	SEGMENT
__unwindtable$??0CBaseEntity@@QAE@XZ DD 0ffffffffH
	DD	FLAT:__unwindfunclet$??0CBaseEntity@@QAE@XZ$0
__ehfuncinfo$??0CBaseEntity@@QAE@XZ DD 019930522H
	DD	01H
	DD	FLAT:__unwindtable$??0CBaseEntity@@QAE@XZ
	DD	2 DUP(00H)
	DD	2 DUP(00H)
	DD	00H
	DD	01H
xdata$x	ENDS
;	COMDAT xdata$x
xdata$x	SEGMENT
__ehfuncinfo$??1?$CUtlMemory@PADH@@QAE@XZ DD 019930522H
	DD	00H
	DD	00H
	DD	2 DUP(00H)
	DD	2 DUP(00H)
	DD	00H
	DD	05H
xdata$x	ENDS
;	COMDAT xdata$x
xdata$x	SEGMENT
__ehfuncinfo$??1?$CUtlArray@PADV?$CUtlMemory@PADH@@@@QAE@XZ DD 019930522H
	DD	00H
	DD	00H
	DD	2 DUP(00H)
	DD	2 DUP(00H)
	DD	00H
	DD	05H
xdata$x	ENDS
;	COMDAT xdata$x
xdata$x	SEGMENT
__unwindtable$??0?$CUtlArray@PADV?$CUtlMemory@PADH@@@@QAE@HH@Z DD 0ffffffffH
	DD	FLAT:__unwindfunclet$??0?$CUtlArray@PADV?$CUtlMemory@PADH@@@@QAE@HH@Z$0
__ehfuncinfo$??0?$CUtlArray@PADV?$CUtlMemory@PADH@@@@QAE@HH@Z DD 019930522H
	DD	01H
	DD	FLAT:__unwindtable$??0?$CUtlArray@PADV?$CUtlMemory@PADH@@@@QAE@HH@Z
	DD	2 DUP(00H)
	DD	2 DUP(00H)
	DD	00H
	DD	01H
xdata$x	ENDS
;	COMDAT xdata$x
xdata$x	SEGMENT
__ehfuncinfo$??1CDatadescGeneratedNameHolder@@QAE@XZ DD 019930522H
	DD	00H
	DD	00H
	DD	2 DUP(00H)
	DD	2 DUP(00H)
	DD	00H
	DD	05H
xdata$x	ENDS
CRT$XCU	SEGMENT
?g_DataMapHolder$initializer$@CRpg_DataDescInit@@3P6AXXZA DD FLAT:??__Eg_DataMapHolder@CRpg_DataDescInit@@YAXXZ ; CRpg_DataDescInit::g_DataMapHolder$initializer$
CRT$XCU	ENDS
CRT$XCU	SEGMENT
?rpg_rocket$initializer$@@3P6AXXZA DD FLAT:??__Erpg_rocket@@YAXXZ ; rpg_rocket$initializer$
CRT$XCU	ENDS
CRT$XCU	SEGMENT
?g_DataMapHolder$initializer$@CRpgRocket_DataDescInit@@3P6AXXZA DD FLAT:??__Eg_DataMapHolder@CRpgRocket_DataDescInit@@YAXXZ ; CRpgRocket_DataDescInit::g_DataMapHolder$initializer$
CRT$XCU	ENDS
CRT$XCU	SEGMENT
?robo_rocket2$initializer$@@3P6AXXZA DD FLAT:??__Erobo_rocket2@@YAXXZ ; robo_rocket2$initializer$
CRT$XCU	ENDS
CRT$XCU	SEGMENT
?g_DataMapHolder$initializer$@CRoboRocket2_DataDescInit@@3P6AXXZA DD FLAT:??__Eg_DataMapHolder@CRoboRocket2_DataDescInit@@YAXXZ ; CRoboRocket2_DataDescInit::g_DataMapHolder$initializer$
CRT$XCU	ENDS
CRT$XCU	SEGMENT
?ammo_rpgclip$initializer$@@3P6AXXZA DD FLAT:??__Eammo_rpgclip@@YAXXZ ; ammo_rpgclip$initializer$
CRT$XCU	ENDS
; Function compile flags: /Odtp /ZI
; File d:\!diffusion 2020\source code 2022\client-server\game_shared\utlmemory.h
;	COMDAT ??$Destruct@PAD@@YAXPAPAD@Z
_TEXT	SEGMENT
_pMemory$ = 8						; size = 4
??$Destruct@PAD@@YAXPAPAD@Z PROC			; Destruct<char *>, COMDAT

; 49   : {

	push	ebp
	mov	ebp, esp
	sub	esp, 64					; 00000040H
	push	ebx
	push	esi
	push	edi

; 50   : 	pMemory->~T();
; 51   : 
; 52   : #ifdef _DEBUG
; 53   : 	memset( pMemory, 0xDD, sizeof(T) );

	push	4
	push	221					; 000000ddH
	mov	eax, DWORD PTR _pMemory$[ebp]
	push	eax
	call	_memset
	add	esp, 12					; 0000000cH

; 54   : #endif
; 55   : }

	pop	edi
	pop	esi
	pop	ebx
	mov	esp, ebp
	pop	ebp
	ret	0
??$Destruct@PAD@@YAXPAPAD@Z ENDP			; Destruct<char *>
_TEXT	ENDS
; Function compile flags: /Odtp /ZI
; File d:\!diffusion 2020\source code 2022\client-server\game_shared\utlmemory.h
;	COMDAT ??$CopyConstruct@PAD@@YAXPAPADABQAD@Z
_TEXT	SEGMENT
tv71 = -72						; size = 4
$T1 = -68						; size = 4
_pMemory$ = 8						; size = 4
_src$ = 12						; size = 4
??$CopyConstruct@PAD@@YAXPAPADABQAD@Z PROC		; CopyConstruct<char *>, COMDAT

; 43   : {

	push	ebp
	mov	ebp, esp
	sub	esp, 72					; 00000048H
	push	ebx
	push	esi
	push	edi

; 44   : 	new( pMemory ) T(src);

	mov	eax, DWORD PTR _pMemory$[ebp]
	push	eax
	push	4
	call	??2@YAPAXIPAX@Z				; operator new
	add	esp, 8
	mov	DWORD PTR $T1[ebp], eax
	cmp	DWORD PTR $T1[ebp], 0
	je	SHORT $LN3@CopyConstr
	mov	ecx, DWORD PTR $T1[ebp]
	mov	edx, DWORD PTR _src$[ebp]
	mov	eax, DWORD PTR [edx]
	mov	DWORD PTR [ecx], eax
	mov	ecx, DWORD PTR $T1[ebp]
	mov	DWORD PTR tv71[ebp], ecx
	jmp	SHORT $LN1@CopyConstr
$LN3@CopyConstr:
	mov	DWORD PTR tv71[ebp], 0
$LN1@CopyConstr:

; 45   : }

	pop	edi
	pop	esi
	pop	ebx
	mov	esp, ebp
	pop	ebp
	ret	0
??$CopyConstruct@PAD@@YAXPAPADABQAD@Z ENDP		; CopyConstruct<char *>
_TEXT	ENDS
; Function compile flags: /Odtp /ZI
; File d:\!diffusion 2020\source code 2022\client-server\server\cbase.h
;	COMDAT ??$GetClassPtr@VCRpg@@@@YAPAVCRpg@@PAV0@PBD@Z
_TEXT	SEGMENT
tv85 = -92						; size = 4
$T2 = -88						; size = 4
$T3 = -84						; size = 4
_pev$ = -16						; size = 4
__$EHRec$ = -12						; size = 12
_newEnt$ = 8						; size = 4
_className$ = 12					; size = 4
??$GetClassPtr@VCRpg@@@@YAPAVCRpg@@PAV0@PBD@Z PROC	; GetClassPtr<CRpg>, COMDAT

; 1146 : {

	push	ebp
	mov	ebp, esp
	push	-1
	push	__ehhandler$??$GetClassPtr@VCRpg@@@@YAPAVCRpg@@PAV0@PBD@Z
	mov	eax, DWORD PTR fs:0
	push	eax
	sub	esp, 80					; 00000050H
	push	ebx
	push	esi
	push	edi
	mov	eax, DWORD PTR ___security_cookie
	xor	eax, ebp
	push	eax
	lea	eax, DWORD PTR __$EHRec$[ebp]
	mov	DWORD PTR fs:0, eax

; 1147 : 	entvars_t *pev = (entvars_t *)newEnt;

	mov	eax, DWORD PTR _newEnt$[ebp]
	mov	DWORD PTR _pev$[ebp], eax

; 1148 : 
; 1149 : 	// allocate entity if necessary
; 1150 : 	if (pev == NULL)

	cmp	DWORD PTR _pev$[ebp], 0
	jne	SHORT $LN2@GetClassPt

; 1151 : 		pev = VARS(CREATE_ENTITY());

	call	DWORD PTR ?g_engfuncs@@3Uenginefuncs_s@@A+84
	push	eax
	call	?VARS@@YAPAUentvars_s@@PAUedict_s@@@Z	; VARS
	add	esp, 4
	mov	DWORD PTR _pev$[ebp], eax
$LN2@GetClassPt:

; 1152 : 
; 1153 : 	// get the private data
; 1154 : 	newEnt = (T *)GET_PRIVATE(ENT(pev));

	mov	eax, DWORD PTR _pev$[ebp]
	push	eax
	call	?ENT@@YAPAUedict_s@@PBUentvars_s@@@Z	; ENT
	add	esp, 4
	push	eax
	call	?GET_PRIVATE@@YAPAXPAUedict_s@@@Z	; GET_PRIVATE
	add	esp, 4
	mov	DWORD PTR _newEnt$[ebp], eax

; 1155 : 
; 1156 : 	if (newEnt == NULL) 

	cmp	DWORD PTR _newEnt$[ebp], 0
	jne	SHORT $LN3@GetClassPt

; 1157 : 	{
; 1158 : 		// allocate private data 
; 1159 : 		newEnt = new(pev) T;

	mov	eax, DWORD PTR _pev$[ebp]
	push	eax
	push	1936					; 00000790H
	call	??2CBaseEntity@@SAPAXIPAUentvars_s@@@Z	; CBaseEntity::operator new
	add	esp, 8
	mov	DWORD PTR $T2[ebp], eax
	mov	DWORD PTR __$EHRec$[ebp+8], 0
	cmp	DWORD PTR $T2[ebp], 0
	je	SHORT $LN5@GetClassPt
	mov	ecx, DWORD PTR $T2[ebp]
	call	??0CRpg@@QAE@XZ
	mov	DWORD PTR tv85[ebp], eax
	jmp	SHORT $LN6@GetClassPt
$LN5@GetClassPt:
	mov	DWORD PTR tv85[ebp], 0
$LN6@GetClassPt:
	mov	ecx, DWORD PTR tv85[ebp]
	mov	DWORD PTR $T3[ebp], ecx
	mov	DWORD PTR __$EHRec$[ebp+8], -1
	mov	edx, DWORD PTR $T3[ebp]
	mov	DWORD PTR _newEnt$[ebp], edx

; 1160 : 		newEnt->pev = pev;

	mov	eax, DWORD PTR _newEnt$[ebp]
	mov	ecx, DWORD PTR _pev$[ebp]
	mov	DWORD PTR [eax+4], ecx
$LN3@GetClassPt:

; 1161 : 	}
; 1162 : 	newEnt->SetClassname( className );

	mov	eax, DWORD PTR _className$[ebp]
	push	eax
	mov	ecx, DWORD PTR _newEnt$[ebp]
	call	?SetClassname@CBaseEntity@@QAEXPBD@Z	; CBaseEntity::SetClassname

; 1163 : 
; 1164 : 	return newEnt;

	mov	eax, DWORD PTR _newEnt$[ebp]

; 1165 : }

	mov	ecx, DWORD PTR __$EHRec$[ebp]
	mov	DWORD PTR fs:0, ecx
	pop	ecx
	pop	edi
	pop	esi
	pop	ebx
	mov	esp, ebp
	pop	ebp
	ret	0
_TEXT	ENDS
;	COMDAT text$x
text$x	SEGMENT
__unwindfunclet$??$GetClassPtr@VCRpg@@@@YAPAVCRpg@@PAV0@PBD@Z$0:
	mov	eax, DWORD PTR _pev$[ebp]
	push	eax
	mov	eax, DWORD PTR $T2[ebp]
	push	eax
	call	??3CBaseEntity@@SAXPAXPAUentvars_s@@@Z	; CBaseEntity::operator delete
	add	esp, 8
	ret	0
__ehhandler$??$GetClassPtr@VCRpg@@@@YAPAVCRpg@@PAV0@PBD@Z:
	mov	edx, DWORD PTR [esp+8]
	lea	eax, DWORD PTR [edx+12]
	mov	ecx, DWORD PTR [edx-96]
	xor	ecx, eax
	call	@__security_check_cookie@4
	mov	eax, OFFSET __ehfuncinfo$??$GetClassPtr@VCRpg@@@@YAPAVCRpg@@PAV0@PBD@Z
	jmp	___CxxFrameHandler3
text$x	ENDS
??$GetClassPtr@VCRpg@@@@YAPAVCRpg@@PAV0@PBD@Z ENDP	; GetClassPtr<CRpg>
; Function compile flags: /Odtp /ZI
; File d:\!diffusion 2020\source code 2022\client-server\server\cbase.h
;	COMDAT ??$GetClassPtr@VCRpgRocket@@@@YAPAVCRpgRocket@@PAV0@PBD@Z
_TEXT	SEGMENT
tv85 = -92						; size = 4
$T2 = -88						; size = 4
$T3 = -84						; size = 4
_pev$ = -16						; size = 4
__$EHRec$ = -12						; size = 12
_newEnt$ = 8						; size = 4
_className$ = 12					; size = 4
??$GetClassPtr@VCRpgRocket@@@@YAPAVCRpgRocket@@PAV0@PBD@Z PROC ; GetClassPtr<CRpgRocket>, COMDAT

; 1146 : {

	push	ebp
	mov	ebp, esp
	push	-1
	push	__ehhandler$??$GetClassPtr@VCRpgRocket@@@@YAPAVCRpgRocket@@PAV0@PBD@Z
	mov	eax, DWORD PTR fs:0
	push	eax
	sub	esp, 80					; 00000050H
	push	ebx
	push	esi
	push	edi
	mov	eax, DWORD PTR ___security_cookie
	xor	eax, ebp
	push	eax
	lea	eax, DWORD PTR __$EHRec$[ebp]
	mov	DWORD PTR fs:0, eax

; 1147 : 	entvars_t *pev = (entvars_t *)newEnt;

	mov	eax, DWORD PTR _newEnt$[ebp]
	mov	DWORD PTR _pev$[ebp], eax

; 1148 : 
; 1149 : 	// allocate entity if necessary
; 1150 : 	if (pev == NULL)

	cmp	DWORD PTR _pev$[ebp], 0
	jne	SHORT $LN2@GetClassPt

; 1151 : 		pev = VARS(CREATE_ENTITY());

	call	DWORD PTR ?g_engfuncs@@3Uenginefuncs_s@@A+84
	push	eax
	call	?VARS@@YAPAUentvars_s@@PAUedict_s@@@Z	; VARS
	add	esp, 4
	mov	DWORD PTR _pev$[ebp], eax
$LN2@GetClassPt:

; 1152 : 
; 1153 : 	// get the private data
; 1154 : 	newEnt = (T *)GET_PRIVATE(ENT(pev));

	mov	eax, DWORD PTR _pev$[ebp]
	push	eax
	call	?ENT@@YAPAUedict_s@@PBUentvars_s@@@Z	; ENT
	add	esp, 4
	push	eax
	call	?GET_PRIVATE@@YAPAXPAUedict_s@@@Z	; GET_PRIVATE
	add	esp, 4
	mov	DWORD PTR _newEnt$[ebp], eax

; 1155 : 
; 1156 : 	if (newEnt == NULL) 

	cmp	DWORD PTR _newEnt$[ebp], 0
	jne	SHORT $LN3@GetClassPt

; 1157 : 	{
; 1158 : 		// allocate private data 
; 1159 : 		newEnt = new(pev) T;

	mov	eax, DWORD PTR _pev$[ebp]
	push	eax
	push	2536					; 000009e8H
	call	??2CBaseEntity@@SAPAXIPAUentvars_s@@@Z	; CBaseEntity::operator new
	add	esp, 8
	mov	DWORD PTR $T2[ebp], eax
	mov	DWORD PTR __$EHRec$[ebp+8], 0
	cmp	DWORD PTR $T2[ebp], 0
	je	SHORT $LN5@GetClassPt
	mov	ecx, DWORD PTR $T2[ebp]
	call	??0CRpgRocket@@QAE@XZ
	mov	DWORD PTR tv85[ebp], eax
	jmp	SHORT $LN6@GetClassPt
$LN5@GetClassPt:
	mov	DWORD PTR tv85[ebp], 0
$LN6@GetClassPt:
	mov	ecx, DWORD PTR tv85[ebp]
	mov	DWORD PTR $T3[ebp], ecx
	mov	DWORD PTR __$EHRec$[ebp+8], -1
	mov	edx, DWORD PTR $T3[ebp]
	mov	DWORD PTR _newEnt$[ebp], edx

; 1160 : 		newEnt->pev = pev;

	mov	eax, DWORD PTR _newEnt$[ebp]
	mov	ecx, DWORD PTR _pev$[ebp]
	mov	DWORD PTR [eax+4], ecx
$LN3@GetClassPt:

; 1161 : 	}
; 1162 : 	newEnt->SetClassname( className );

	mov	eax, DWORD PTR _className$[ebp]
	push	eax
	mov	ecx, DWORD PTR _newEnt$[ebp]
	call	?SetClassname@CBaseEntity@@QAEXPBD@Z	; CBaseEntity::SetClassname

; 1163 : 
; 1164 : 	return newEnt;

	mov	eax, DWORD PTR _newEnt$[ebp]

; 1165 : }

	mov	ecx, DWORD PTR __$EHRec$[ebp]
	mov	DWORD PTR fs:0, ecx
	pop	ecx
	pop	edi
	pop	esi
	pop	ebx
	mov	esp, ebp
	pop	ebp
	ret	0
_TEXT	ENDS
;	COMDAT text$x
text$x	SEGMENT
__unwindfunclet$??$GetClassPtr@VCRpgRocket@@@@YAPAVCRpgRocket@@PAV0@PBD@Z$0:
	mov	eax, DWORD PTR _pev$[ebp]
	push	eax
	mov	eax, DWORD PTR $T2[ebp]
	push	eax
	call	??3CBaseEntity@@SAXPAXPAUentvars_s@@@Z	; CBaseEntity::operator delete
	add	esp, 8
	ret	0
__ehhandler$??$GetClassPtr@VCRpgRocket@@@@YAPAVCRpgRocket@@PAV0@PBD@Z:
	mov	edx, DWORD PTR [esp+8]
	lea	eax, DWORD PTR [edx+12]
	mov	ecx, DWORD PTR [edx-96]
	xor	ecx, eax
	call	@__security_check_cookie@4
	mov	eax, OFFSET __ehfuncinfo$??$GetClassPtr@VCRpgRocket@@@@YAPAVCRpgRocket@@PAV0@PBD@Z
	jmp	___CxxFrameHandler3
text$x	ENDS
??$GetClassPtr@VCRpgRocket@@@@YAPAVCRpgRocket@@PAV0@PBD@Z ENDP ; GetClassPtr<CRpgRocket>
; Function compile flags: /Odtp /ZI
; File d:\!diffusion 2020\source code 2022\client-server\server\cbase.h
;	COMDAT ??$GetClassPtr@VCRoboRocket2@@@@YAPAVCRoboRocket2@@PAV0@PBD@Z
_TEXT	SEGMENT
tv85 = -92						; size = 4
$T2 = -88						; size = 4
$T3 = -84						; size = 4
_pev$ = -16						; size = 4
__$EHRec$ = -12						; size = 12
_newEnt$ = 8						; size = 4
_className$ = 12					; size = 4
??$GetClassPtr@VCRoboRocket2@@@@YAPAVCRoboRocket2@@PAV0@PBD@Z PROC ; GetClassPtr<CRoboRocket2>, COMDAT

; 1146 : {

	push	ebp
	mov	ebp, esp
	push	-1
	push	__ehhandler$??$GetClassPtr@VCRoboRocket2@@@@YAPAVCRoboRocket2@@PAV0@PBD@Z
	mov	eax, DWORD PTR fs:0
	push	eax
	sub	esp, 80					; 00000050H
	push	ebx
	push	esi
	push	edi
	mov	eax, DWORD PTR ___security_cookie
	xor	eax, ebp
	push	eax
	lea	eax, DWORD PTR __$EHRec$[ebp]
	mov	DWORD PTR fs:0, eax

; 1147 : 	entvars_t *pev = (entvars_t *)newEnt;

	mov	eax, DWORD PTR _newEnt$[ebp]
	mov	DWORD PTR _pev$[ebp], eax

; 1148 : 
; 1149 : 	// allocate entity if necessary
; 1150 : 	if (pev == NULL)

	cmp	DWORD PTR _pev$[ebp], 0
	jne	SHORT $LN2@GetClassPt

; 1151 : 		pev = VARS(CREATE_ENTITY());

	call	DWORD PTR ?g_engfuncs@@3Uenginefuncs_s@@A+84
	push	eax
	call	?VARS@@YAPAUentvars_s@@PAUedict_s@@@Z	; VARS
	add	esp, 4
	mov	DWORD PTR _pev$[ebp], eax
$LN2@GetClassPt:

; 1152 : 
; 1153 : 	// get the private data
; 1154 : 	newEnt = (T *)GET_PRIVATE(ENT(pev));

	mov	eax, DWORD PTR _pev$[ebp]
	push	eax
	call	?ENT@@YAPAUedict_s@@PBUentvars_s@@@Z	; ENT
	add	esp, 4
	push	eax
	call	?GET_PRIVATE@@YAPAXPAUedict_s@@@Z	; GET_PRIVATE
	add	esp, 4
	mov	DWORD PTR _newEnt$[ebp], eax

; 1155 : 
; 1156 : 	if (newEnt == NULL) 

	cmp	DWORD PTR _newEnt$[ebp], 0
	jne	SHORT $LN3@GetClassPt

; 1157 : 	{
; 1158 : 		// allocate private data 
; 1159 : 		newEnt = new(pev) T;

	mov	eax, DWORD PTR _pev$[ebp]
	push	eax
	push	2524					; 000009dcH
	call	??2CBaseEntity@@SAPAXIPAUentvars_s@@@Z	; CBaseEntity::operator new
	add	esp, 8
	mov	DWORD PTR $T2[ebp], eax
	mov	DWORD PTR __$EHRec$[ebp+8], 0
	cmp	DWORD PTR $T2[ebp], 0
	je	SHORT $LN5@GetClassPt
	mov	ecx, DWORD PTR $T2[ebp]
	call	??0CRoboRocket2@@QAE@XZ
	mov	DWORD PTR tv85[ebp], eax
	jmp	SHORT $LN6@GetClassPt
$LN5@GetClassPt:
	mov	DWORD PTR tv85[ebp], 0
$LN6@GetClassPt:
	mov	ecx, DWORD PTR tv85[ebp]
	mov	DWORD PTR $T3[ebp], ecx
	mov	DWORD PTR __$EHRec$[ebp+8], -1
	mov	edx, DWORD PTR $T3[ebp]
	mov	DWORD PTR _newEnt$[ebp], edx

; 1160 : 		newEnt->pev = pev;

	mov	eax, DWORD PTR _newEnt$[ebp]
	mov	ecx, DWORD PTR _pev$[ebp]
	mov	DWORD PTR [eax+4], ecx
$LN3@GetClassPt:

; 1161 : 	}
; 1162 : 	newEnt->SetClassname( className );

	mov	eax, DWORD PTR _className$[ebp]
	push	eax
	mov	ecx, DWORD PTR _newEnt$[ebp]
	call	?SetClassname@CBaseEntity@@QAEXPBD@Z	; CBaseEntity::SetClassname

; 1163 : 
; 1164 : 	return newEnt;

	mov	eax, DWORD PTR _newEnt$[ebp]

; 1165 : }

	mov	ecx, DWORD PTR __$EHRec$[ebp]
	mov	DWORD PTR fs:0, ecx
	pop	ecx
	pop	edi
	pop	esi
	pop	ebx
	mov	esp, ebp
	pop	ebp
	ret	0
_TEXT	ENDS
;	COMDAT text$x
text$x	SEGMENT
__unwindfunclet$??$GetClassPtr@VCRoboRocket2@@@@YAPAVCRoboRocket2@@PAV0@PBD@Z$0:
	mov	eax, DWORD PTR _pev$[ebp]
	push	eax
	mov	eax, DWORD PTR $T2[ebp]
	push	eax
	call	??3CBaseEntity@@SAXPAXPAUentvars_s@@@Z	; CBaseEntity::operator delete
	add	esp, 8
	ret	0
__ehhandler$??$GetClassPtr@VCRoboRocket2@@@@YAPAVCRoboRocket2@@PAV0@PBD@Z:
	mov	edx, DWORD PTR [esp+8]
	lea	eax, DWORD PTR [edx+12]
	mov	ecx, DWORD PTR [edx-96]
	xor	ecx, eax
	call	@__security_check_cookie@4
	mov	eax, OFFSET __ehfuncinfo$??$GetClassPtr@VCRoboRocket2@@@@YAPAVCRoboRocket2@@PAV0@PBD@Z
	jmp	___CxxFrameHandler3
text$x	ENDS
??$GetClassPtr@VCRoboRocket2@@@@YAPAVCRoboRocket2@@PAV0@PBD@Z ENDP ; GetClassPtr<CRoboRocket2>
; Function compile flags: /Odtp /ZI
; File d:\!diffusion 2020\source code 2022\client-server\server\cbase.h
;	COMDAT ??$GetClassPtr@VCRpgAmmo@@@@YAPAVCRpgAmmo@@PAV0@PBD@Z
_TEXT	SEGMENT
tv85 = -92						; size = 4
$T2 = -88						; size = 4
$T3 = -84						; size = 4
_pev$ = -16						; size = 4
__$EHRec$ = -12						; size = 12
_newEnt$ = 8						; size = 4
_className$ = 12					; size = 4
??$GetClassPtr@VCRpgAmmo@@@@YAPAVCRpgAmmo@@PAV0@PBD@Z PROC ; GetClassPtr<CRpgAmmo>, COMDAT

; 1146 : {

	push	ebp
	mov	ebp, esp
	push	-1
	push	__ehhandler$??$GetClassPtr@VCRpgAmmo@@@@YAPAVCRpgAmmo@@PAV0@PBD@Z
	mov	eax, DWORD PTR fs:0
	push	eax
	sub	esp, 80					; 00000050H
	push	ebx
	push	esi
	push	edi
	mov	eax, DWORD PTR ___security_cookie
	xor	eax, ebp
	push	eax
	lea	eax, DWORD PTR __$EHRec$[ebp]
	mov	DWORD PTR fs:0, eax

; 1147 : 	entvars_t *pev = (entvars_t *)newEnt;

	mov	eax, DWORD PTR _newEnt$[ebp]
	mov	DWORD PTR _pev$[ebp], eax

; 1148 : 
; 1149 : 	// allocate entity if necessary
; 1150 : 	if (pev == NULL)

	cmp	DWORD PTR _pev$[ebp], 0
	jne	SHORT $LN2@GetClassPt

; 1151 : 		pev = VARS(CREATE_ENTITY());

	call	DWORD PTR ?g_engfuncs@@3Uenginefuncs_s@@A+84
	push	eax
	call	?VARS@@YAPAUentvars_s@@PAUedict_s@@@Z	; VARS
	add	esp, 4
	mov	DWORD PTR _pev$[ebp], eax
$LN2@GetClassPt:

; 1152 : 
; 1153 : 	// get the private data
; 1154 : 	newEnt = (T *)GET_PRIVATE(ENT(pev));

	mov	eax, DWORD PTR _pev$[ebp]
	push	eax
	call	?ENT@@YAPAUedict_s@@PBUentvars_s@@@Z	; ENT
	add	esp, 4
	push	eax
	call	?GET_PRIVATE@@YAPAXPAUedict_s@@@Z	; GET_PRIVATE
	add	esp, 4
	mov	DWORD PTR _newEnt$[ebp], eax

; 1155 : 
; 1156 : 	if (newEnt == NULL) 

	cmp	DWORD PTR _newEnt$[ebp], 0
	jne	SHORT $LN3@GetClassPt

; 1157 : 	{
; 1158 : 		// allocate private data 
; 1159 : 		newEnt = new(pev) T;

	mov	eax, DWORD PTR _pev$[ebp]
	push	eax
	push	1804					; 0000070cH
	call	??2CBaseEntity@@SAPAXIPAUentvars_s@@@Z	; CBaseEntity::operator new
	add	esp, 8
	mov	DWORD PTR $T2[ebp], eax
	mov	DWORD PTR __$EHRec$[ebp+8], 0
	cmp	DWORD PTR $T2[ebp], 0
	je	SHORT $LN5@GetClassPt
	mov	ecx, DWORD PTR $T2[ebp]
	call	??0CRpgAmmo@@QAE@XZ
	mov	DWORD PTR tv85[ebp], eax
	jmp	SHORT $LN6@GetClassPt
$LN5@GetClassPt:
	mov	DWORD PTR tv85[ebp], 0
$LN6@GetClassPt:
	mov	ecx, DWORD PTR tv85[ebp]
	mov	DWORD PTR $T3[ebp], ecx
	mov	DWORD PTR __$EHRec$[ebp+8], -1
	mov	edx, DWORD PTR $T3[ebp]
	mov	DWORD PTR _newEnt$[ebp], edx

; 1160 : 		newEnt->pev = pev;

	mov	eax, DWORD PTR _newEnt$[ebp]
	mov	ecx, DWORD PTR _pev$[ebp]
	mov	DWORD PTR [eax+4], ecx
$LN3@GetClassPt:

; 1161 : 	}
; 1162 : 	newEnt->SetClassname( className );

	mov	eax, DWORD PTR _className$[ebp]
	push	eax
	mov	ecx, DWORD PTR _newEnt$[ebp]
	call	?SetClassname@CBaseEntity@@QAEXPBD@Z	; CBaseEntity::SetClassname

; 1163 : 
; 1164 : 	return newEnt;

	mov	eax, DWORD PTR _newEnt$[ebp]

; 1165 : }

	mov	ecx, DWORD PTR __$EHRec$[ebp]
	mov	DWORD PTR fs:0, ecx
	pop	ecx
	pop	edi
	pop	esi
	pop	ebx
	mov	esp, ebp
	pop	ebp
	ret	0
_TEXT	ENDS
;	COMDAT text$x
text$x	SEGMENT
__unwindfunclet$??$GetClassPtr@VCRpgAmmo@@@@YAPAVCRpgAmmo@@PAV0@PBD@Z$0:
	mov	eax, DWORD PTR _pev$[ebp]
	push	eax
	mov	eax, DWORD PTR $T2[ebp]
	push	eax
	call	??3CBaseEntity@@SAXPAXPAUentvars_s@@@Z	; CBaseEntity::operator delete
	add	esp, 8
	ret	0
__ehhandler$??$GetClassPtr@VCRpgAmmo@@@@YAPAVCRpgAmmo@@PAV0@PBD@Z:
	mov	edx, DWORD PTR [esp+8]
	lea	eax, DWORD PTR [edx+12]
	mov	ecx, DWORD PTR [edx-96]
	xor	ecx, eax
	call	@__security_check_cookie@4
	mov	eax, OFFSET __ehfuncinfo$??$GetClassPtr@VCRpgAmmo@@@@YAPAVCRpgAmmo@@PAV0@PBD@Z
	jmp	___CxxFrameHandler3
text$x	ENDS
??$GetClassPtr@VCRpgAmmo@@@@YAPAVCRpgAmmo@@PAV0@PBD@Z ENDP ; GetClassPtr<CRpgAmmo>
; Function compile flags: /Odtp /ZI
; File d:\!diffusion 2020\source code 2022\client-server\server\weapons\weapon_rpg.cpp
;	COMDAT ??__Eammo_rpgclip@@YAXXZ
text$di	SEGMENT
??__Eammo_rpgclip@@YAXXZ PROC				; `dynamic initializer for 'ammo_rpgclip'', COMDAT

; 1131 : LINK_ENTITY_TO_CLASS( ammo_rpgclip, CRpgAmmo );

	push	ebp
	mov	ebp, esp
	sub	esp, 64					; 00000040H
	push	ebx
	push	esi
	push	edi
	push	OFFSET ??_C@_0N@FDODGIHO@ammo_rpgclip?$AA@
	mov	ecx, OFFSET ?ammo_rpgclip@@3V?$CEntityFactory@VCRpgAmmo@@@@A
	call	??0?$CEntityFactory@VCRpgAmmo@@@@QAE@PBD@Z ; CEntityFactory<CRpgAmmo>::CEntityFactory<CRpgAmmo>
	pop	edi
	pop	esi
	pop	ebx
	mov	esp, ebp
	pop	ebp
	ret	0
??__Eammo_rpgclip@@YAXXZ ENDP				; `dynamic initializer for 'ammo_rpgclip''
text$di	ENDS
; Function compile flags: /Odtp /ZI
; File d:\!diffusion 2020\source code 2022\client-server\server\util.h
;	COMDAT ?GetEntitySize@?$CEntityFactory@VCRpgAmmo@@@@UAEIXZ
_TEXT	SEGMENT
_this$ = -4						; size = 4
?GetEntitySize@?$CEntityFactory@VCRpgAmmo@@@@UAEIXZ PROC ; CEntityFactory<CRpgAmmo>::GetEntitySize, COMDAT
; _this$ = ecx

; 103  : 	{

	push	ebp
	mov	ebp, esp
	sub	esp, 68					; 00000044H
	push	ebx
	push	esi
	push	edi
	mov	DWORD PTR _this$[ebp], ecx

; 104  : 		return sizeof(T);

	mov	eax, 1804				; 0000070cH

; 105  : 	}

	pop	edi
	pop	esi
	pop	ebx
	mov	esp, ebp
	pop	ebp
	ret	0
?GetEntitySize@?$CEntityFactory@VCRpgAmmo@@@@UAEIXZ ENDP ; CEntityFactory<CRpgAmmo>::GetEntitySize
_TEXT	ENDS
; Function compile flags: /Odtp /ZI
; File d:\!diffusion 2020\source code 2022\client-server\server\util.h
;	COMDAT ?Destroy@?$CEntityFactory@VCRpgAmmo@@@@UAEXPAVCBaseEntity@@@Z
_TEXT	SEGMENT
_this$ = -4						; size = 4
_pEntity$ = 8						; size = 4
?Destroy@?$CEntityFactory@VCRpgAmmo@@@@UAEXPAVCBaseEntity@@@Z PROC ; CEntityFactory<CRpgAmmo>::Destroy, COMDAT
; _this$ = ecx

; 98   : 	{

	push	ebp
	mov	ebp, esp
	sub	esp, 68					; 00000044H
	push	ebx
	push	esi
	push	edi
	mov	DWORD PTR _this$[ebp], ecx

; 99   : 		UTIL_Remove( pEntity );

	mov	eax, DWORD PTR _pEntity$[ebp]
	push	eax
	call	?UTIL_Remove@@YAXPAVCBaseEntity@@@Z	; UTIL_Remove
	add	esp, 4

; 100  : 	}

	pop	edi
	pop	esi
	pop	ebx
	mov	esp, ebp
	pop	ebp
	ret	4
?Destroy@?$CEntityFactory@VCRpgAmmo@@@@UAEXPAVCBaseEntity@@@Z ENDP ; CEntityFactory<CRpgAmmo>::Destroy
_TEXT	ENDS
; Function compile flags: /Odtp /ZI
; File d:\!diffusion 2020\source code 2022\client-server\server\util.h
;	COMDAT ?Create@?$CEntityFactory@VCRpgAmmo@@@@UAEPAVCBaseEntity@@PBDPAUentvars_s@@@Z
_TEXT	SEGMENT
_pEnt$ = -8						; size = 4
_this$ = -4						; size = 4
_pClassName$ = 8					; size = 4
_pev$ = 12						; size = 4
?Create@?$CEntityFactory@VCRpgAmmo@@@@UAEPAVCBaseEntity@@PBDPAUentvars_s@@@Z PROC ; CEntityFactory<CRpgAmmo>::Create, COMDAT
; _this$ = ecx

; 92   : 	{

	push	ebp
	mov	ebp, esp
	sub	esp, 72					; 00000048H
	push	ebx
	push	esi
	push	edi
	mov	DWORD PTR _this$[ebp], ecx

; 93   : 		T* pEnt = GetClassPtr((T*)pev, pClassName);

	mov	eax, DWORD PTR _pClassName$[ebp]
	push	eax
	mov	ecx, DWORD PTR _pev$[ebp]
	push	ecx
	call	??$GetClassPtr@VCRpgAmmo@@@@YAPAVCRpgAmmo@@PAV0@PBD@Z ; GetClassPtr<CRpgAmmo>
	add	esp, 8
	mov	DWORD PTR _pEnt$[ebp], eax

; 94   : 		return pEnt;

	mov	eax, DWORD PTR _pEnt$[ebp]

; 95   : 	}

	pop	edi
	pop	esi
	pop	ebx
	mov	esp, ebp
	pop	ebp
	ret	8
?Create@?$CEntityFactory@VCRpgAmmo@@@@UAEPAVCBaseEntity@@PBDPAUentvars_s@@@Z ENDP ; CEntityFactory<CRpgAmmo>::Create
_TEXT	ENDS
; Function compile flags: /Odtp /ZI
; File d:\!diffusion 2020\source code 2022\client-server\server\util.h
;	COMDAT ??0?$CEntityFactory@VCRpgAmmo@@@@QAE@PBD@Z
_TEXT	SEGMENT
tv76 = -72						; size = 4
_this$ = -4						; size = 4
_pClassName$ = 8					; size = 4
??0?$CEntityFactory@VCRpgAmmo@@@@QAE@PBD@Z PROC		; CEntityFactory<CRpgAmmo>::CEntityFactory<CRpgAmmo>, COMDAT
; _this$ = ecx

; 86   : 	CEntityFactory( const char *pClassName )

	push	ebp
	mov	ebp, esp
	sub	esp, 72					; 00000048H
	push	ebx
	push	esi
	push	edi
	mov	DWORD PTR _this$[ebp], ecx

; 87   : 	{

	mov	ecx, DWORD PTR _this$[ebp]
	call	??0IEntityFactory@@QAE@XZ
	mov	eax, DWORD PTR _this$[ebp]
	mov	DWORD PTR [eax], OFFSET ??_7?$CEntityFactory@VCRpgAmmo@@@@6B@

; 88   : 		EntityFactoryDictionary()->InstallFactory( this, pClassName );

	call	?EntityFactoryDictionary@@YAPAVIEntityFactoryDictionary@@XZ ; EntityFactoryDictionary
	mov	DWORD PTR tv76[ebp], eax
	mov	eax, DWORD PTR _pClassName$[ebp]
	push	eax
	mov	ecx, DWORD PTR _this$[ebp]
	push	ecx
	mov	edx, DWORD PTR tv76[ebp]
	mov	eax, DWORD PTR [edx]
	mov	ecx, DWORD PTR tv76[ebp]
	mov	edx, DWORD PTR [eax]
	call	edx

; 89   : 	}

	mov	eax, DWORD PTR _this$[ebp]
	pop	edi
	pop	esi
	pop	ebx
	mov	esp, ebp
	pop	ebp
	ret	4
??0?$CEntityFactory@VCRpgAmmo@@@@QAE@PBD@Z ENDP		; CEntityFactory<CRpgAmmo>::CEntityFactory<CRpgAmmo>
_TEXT	ENDS
; Function compile flags: /Odtp /ZI
;	COMDAT ??0CRpgAmmo@@QAE@XZ
_TEXT	SEGMENT
_this$ = -4						; size = 4
??0CRpgAmmo@@QAE@XZ PROC				; CRpgAmmo::CRpgAmmo, COMDAT
; _this$ = ecx
	push	ebp
	mov	ebp, esp
	sub	esp, 68					; 00000044H
	push	ebx
	push	esi
	push	edi
	mov	DWORD PTR _this$[ebp], ecx
	mov	ecx, DWORD PTR _this$[ebp]
	call	??0CBasePlayerAmmo@@QAE@XZ
	mov	eax, DWORD PTR _this$[ebp]
	mov	DWORD PTR [eax], OFFSET ??_7CRpgAmmo@@6B@
	mov	eax, DWORD PTR _this$[ebp]
	pop	edi
	pop	esi
	pop	ebx
	mov	esp, ebp
	pop	ebp
	ret	0
??0CRpgAmmo@@QAE@XZ ENDP				; CRpgAmmo::CRpgAmmo
_TEXT	ENDS
; Function compile flags: /Odtp /ZI
; File d:\!diffusion 2020\source code 2022\client-server\server\weapons\weapon_rpg.cpp
;	COMDAT ?AddAmmo@CRpgAmmo@@EAEHPAVCBaseEntity@@@Z
_TEXT	SEGMENT
_iGive$ = -8						; size = 4
_this$ = -4						; size = 4
_pOther$ = 8						; size = 4
?AddAmmo@CRpgAmmo@@EAEHPAVCBaseEntity@@@Z PROC		; CRpgAmmo::AddAmmo, COMDAT
; _this$ = ecx

; 1108 : 	{ 

	push	ebp
	mov	ebp, esp
	sub	esp, 72					; 00000048H
	push	ebx
	push	esi
	push	edi
	mov	DWORD PTR _this$[ebp], ecx

; 1109 : 		int iGive;
; 1110 : 
; 1111 : 		if ( g_pGameRules->IsMultiplayer() )

	mov	eax, DWORD PTR ?g_pGameRules@@3PAVCGameRules@@A ; g_pGameRules
	mov	edx, DWORD PTR [eax]
	mov	ecx, DWORD PTR ?g_pGameRules@@3PAVCGameRules@@A ; g_pGameRules
	mov	eax, DWORD PTR [edx+24]
	call	eax
	test	eax, eax
	je	SHORT $LN2@AddAmmo

; 1112 : 		{
; 1113 : 			// hand out more ammo per rocket in multiplayer.
; 1114 : 			iGive = AMMO_RPGCLIP_GIVE * 2;

	mov	DWORD PTR _iGive$[ebp], 2

; 1115 : 		}
; 1116 : 		else

	jmp	SHORT $LN3@AddAmmo
$LN2@AddAmmo:

; 1117 : 		{
; 1118 : 			iGive = AMMO_RPGCLIP_GIVE;

	mov	DWORD PTR _iGive$[ebp], 1
$LN3@AddAmmo:

; 1119 : 		}
; 1120 : 
; 1121 : 		if (pOther->GiveAmmo( iGive, "rockets", ROCKET_MAX_CARRY ) != -1)

	push	5
	push	OFFSET ??_C@_07DCMGFMFH@rockets?$AA@
	mov	eax, DWORD PTR _iGive$[ebp]
	push	eax
	mov	ecx, DWORD PTR _pOther$[ebp]
	mov	edx, DWORD PTR [ecx]
	mov	ecx, DWORD PTR _pOther$[ebp]
	mov	eax, DWORD PTR [edx+152]
	call	eax
	cmp	eax, -1
	je	SHORT $LN4@AddAmmo

; 1122 : 		{
; 1123 : 		//	EMIT_SOUND(ENT(pev), CHAN_ITEM, "items/9mmclip1.wav", 1, ATTN_NORM);
; 1124 : 			PlayPickupSound( pOther );

	push	250					; 000000faH
	mov	eax, DWORD PTR _pOther$[ebp]
	push	eax
	call	?PlayPickupSound@@YAXPAVCBaseEntity@@H@Z ; PlayPickupSound
	add	esp, 8

; 1125 : 			return TRUE;

	mov	eax, 1
	jmp	SHORT $LN1@AddAmmo
$LN4@AddAmmo:

; 1126 : 		}
; 1127 : 		return FALSE;

	xor	eax, eax
$LN1@AddAmmo:

; 1128 : 	}

	pop	edi
	pop	esi
	pop	ebx
	mov	esp, ebp
	pop	ebp
	ret	4
?AddAmmo@CRpgAmmo@@EAEHPAVCBaseEntity@@@Z ENDP		; CRpgAmmo::AddAmmo
_TEXT	ENDS
; Function compile flags: /Odtp /ZI
; File d:\!diffusion 2020\source code 2022\client-server\server\weapons\weapon_rpg.cpp
;	COMDAT ?Precache@CRpgAmmo@@EAEXXZ
_TEXT	SEGMENT
_this$ = -4						; size = 4
?Precache@CRpgAmmo@@EAEXXZ PROC				; CRpgAmmo::Precache, COMDAT
; _this$ = ecx

; 1103 : 	{

	push	ebp
	mov	ebp, esp
	sub	esp, 68					; 00000044H
	push	ebx
	push	esi
	push	edi
	mov	DWORD PTR _this$[ebp], ecx

; 1104 : 		PRECACHE_MODEL ("models/w_rpgammo.mdl");

	push	OFFSET ??_C@_0BF@ONHNEHHH@models?1w_rpgammo?4mdl?$AA@
	call	DWORD PTR ?g_engfuncs@@3Uenginefuncs_s@@A
	add	esp, 4

; 1105 : 		PRECACHE_SOUND("items/9mmclip1.wav");

	push	OFFSET ??_C@_0BD@BADMCPNB@items?19mmclip1?4wav?$AA@
	call	DWORD PTR ?g_engfuncs@@3Uenginefuncs_s@@A+4
	add	esp, 4

; 1106 : 	}

	pop	edi
	pop	esi
	pop	ebx
	mov	esp, ebp
	pop	ebp
	ret	0
?Precache@CRpgAmmo@@EAEXXZ ENDP				; CRpgAmmo::Precache
_TEXT	ENDS
; Function compile flags: /Odtp /ZI
; File d:\!diffusion 2020\source code 2022\client-server\server\weapons\weapon_rpg.cpp
;	COMDAT ?Spawn@CRpgAmmo@@EAEXXZ
_TEXT	SEGMENT
_this$ = -4						; size = 4
?Spawn@CRpgAmmo@@EAEXXZ PROC				; CRpgAmmo::Spawn, COMDAT
; _this$ = ecx

; 1097 : 	{ 

	push	ebp
	mov	ebp, esp
	sub	esp, 68					; 00000044H
	push	ebx
	push	esi
	push	edi
	mov	DWORD PTR _this$[ebp], ecx

; 1098 : 		Precache( );

	mov	eax, DWORD PTR _this$[ebp]
	mov	edx, DWORD PTR [eax]
	mov	ecx, DWORD PTR _this$[ebp]
	mov	eax, DWORD PTR [edx+8]
	call	eax

; 1099 : 		SET_MODEL(ENT(pev), "models/w_rpgammo.mdl");

	push	OFFSET ??_C@_0BF@ONHNEHHH@models?1w_rpgammo?4mdl?$AA@
	mov	eax, DWORD PTR _this$[ebp]
	mov	ecx, DWORD PTR [eax+4]
	push	ecx
	call	?ENT@@YAPAUedict_s@@PBUentvars_s@@@Z	; ENT
	add	esp, 4
	push	eax
	call	DWORD PTR ?g_engfuncs@@3Uenginefuncs_s@@A+8
	add	esp, 8

; 1100 : 		BaseClass::Spawn( );

	mov	ecx, DWORD PTR _this$[ebp]
	call	?Spawn@CBasePlayerAmmo@@UAEXXZ		; CBasePlayerAmmo::Spawn

; 1101 : 	}

	pop	edi
	pop	esi
	pop	ebx
	mov	esp, ebp
	pop	ebp
	ret	0
?Spawn@CRpgAmmo@@EAEXXZ ENDP				; CRpgAmmo::Spawn
_TEXT	ENDS
; Function compile flags: /Odtp /ZI
;	COMDAT ??__FnameHolder@?1???$DataMapInit@VCRoboRocket2@@@@YAPAUdatamap_s@@PAVCRoboRocket2@@@Z@YAXXZ
text$yd	SEGMENT
??__FnameHolder@?1???$DataMapInit@VCRoboRocket2@@@@YAPAUdatamap_s@@PAVCRoboRocket2@@@Z@YAXXZ PROC ; `DataMapInit<CRoboRocket2>'::`2'::`dynamic atexit destructor for 'nameHolder'', COMDAT
	push	ebp
	mov	ebp, esp
	sub	esp, 64					; 00000040H
	push	ebx
	push	esi
	push	edi
	mov	ecx, OFFSET ?nameHolder@?1???$DataMapInit@VCRoboRocket2@@@@YAPAUdatamap_s@@PAVCRoboRocket2@@@Z@4VCDatadescGeneratedNameHolder@@A
	call	??1CDatadescGeneratedNameHolder@@QAE@XZ	; CDatadescGeneratedNameHolder::~CDatadescGeneratedNameHolder
	pop	edi
	pop	esi
	pop	ebx
	mov	esp, ebp
	pop	ebp
	ret	0
??__FnameHolder@?1???$DataMapInit@VCRoboRocket2@@@@YAPAUdatamap_s@@PAVCRoboRocket2@@@Z@YAXXZ ENDP ; `DataMapInit<CRoboRocket2>'::`2'::`dynamic atexit destructor for 'nameHolder''
text$yd	ENDS
; Function compile flags: /Odtp /ZI
; File d:\!diffusion 2020\source code 2022\client-server\server\weapons\weapon_rpg.cpp
;	COMDAT ??__Eg_DataMapHolder@CRoboRocket2_DataDescInit@@YAXXZ
text$di	SEGMENT
??__Eg_DataMapHolder@CRoboRocket2_DataDescInit@@YAXXZ PROC ; CRoboRocket2_DataDescInit::`dynamic initializer for 'g_DataMapHolder'', COMDAT

; 483  : BEGIN_DATADESC( CRoboRocket2 )

	push	ebp
	mov	ebp, esp
	sub	esp, 64					; 00000040H
	push	ebx
	push	esi
	push	edi
	push	0
	call	??$DataMapInit@VCRoboRocket2@@@@YAPAUdatamap_s@@PAVCRoboRocket2@@@Z ; DataMapInit<CRoboRocket2>
	add	esp, 4
	mov	DWORD PTR ?g_DataMapHolder@CRoboRocket2_DataDescInit@@3PAUdatamap_s@@A, eax ; CRoboRocket2_DataDescInit::g_DataMapHolder
	pop	edi
	pop	esi
	pop	ebx
	mov	esp, ebp
	pop	ebp
	ret	0
??__Eg_DataMapHolder@CRoboRocket2_DataDescInit@@YAXXZ ENDP ; CRoboRocket2_DataDescInit::`dynamic initializer for 'g_DataMapHolder''
text$di	ENDS
; Function compile flags: /Odtp /ZI
; File d:\!diffusion 2020\source code 2022\client-server\server\weapons\weapon_rpg.cpp
;	COMDAT ??$DataMapInit@VCRoboRocket2@@@@YAPAUdatamap_s@@PAVCRoboRocket2@@@Z
_TEXT	SEGMENT
__$EHRec$ = -12						; size = 12
___formal$ = 8						; size = 4
??$DataMapInit@VCRoboRocket2@@@@YAPAUdatamap_s@@PAVCRoboRocket2@@@Z PROC ; DataMapInit<CRoboRocket2>, COMDAT

; 483  : BEGIN_DATADESC( CRoboRocket2 )

	push	ebp
	mov	ebp, esp
	push	-1
	push	__ehhandler$??$DataMapInit@VCRoboRocket2@@@@YAPAUdatamap_s@@PAVCRoboRocket2@@@Z
	mov	eax, DWORD PTR fs:0
	push	eax
	sub	esp, 64					; 00000040H
	push	ebx
	push	esi
	push	edi
	mov	eax, DWORD PTR ___security_cookie
	xor	eax, ebp
	push	eax
	lea	eax, DWORD PTR __$EHRec$[ebp]
	mov	DWORD PTR fs:0, eax
	mov	eax, DWORD PTR __tls_index
	mov	ecx, DWORD PTR fs:__tls_array
	mov	edx, DWORD PTR [ecx+eax*4]
	mov	eax, DWORD PTR ?$TSS0@?1???$DataMapInit@VCRoboRocket2@@@@YAPAUdatamap_s@@PAVCRoboRocket2@@@Z@4HA
	cmp	eax, DWORD PTR __Init_thread_epoch[edx]
	jle	SHORT $LN2@DataMapIni
	push	OFFSET ?$TSS0@?1???$DataMapInit@VCRoboRocket2@@@@YAPAUdatamap_s@@PAVCRoboRocket2@@@Z@4HA
	call	__Init_thread_header
	add	esp, 4
	cmp	DWORD PTR ?$TSS0@?1???$DataMapInit@VCRoboRocket2@@@@YAPAUdatamap_s@@PAVCRoboRocket2@@@Z@4HA, -1
	jne	SHORT $LN2@DataMapIni
	mov	DWORD PTR __$EHRec$[ebp+8], 0
	push	OFFSET ??_C@_0N@NGHBIJO@CRoboRocket2?$AA@
	mov	ecx, OFFSET ?nameHolder@?1???$DataMapInit@VCRoboRocket2@@@@YAPAUdatamap_s@@PAVCRoboRocket2@@@Z@4VCDatadescGeneratedNameHolder@@A
	call	??0CDatadescGeneratedNameHolder@@QAE@PBD@Z ; CDatadescGeneratedNameHolder::CDatadescGeneratedNameHolder
	push	OFFSET ??__FnameHolder@?1???$DataMapInit@VCRoboRocket2@@@@YAPAUdatamap_s@@PAVCRoboRocket2@@@Z@YAXXZ ; `DataMapInit<CRoboRocket2>'::`2'::`dynamic atexit destructor for 'nameHolder''
	call	_atexit
	add	esp, 4
	mov	DWORD PTR __$EHRec$[ebp+8], -1
	push	OFFSET ?$TSS0@?1???$DataMapInit@VCRoboRocket2@@@@YAPAUdatamap_s@@PAVCRoboRocket2@@@Z@4HA
	call	__Init_thread_footer
	add	esp, 4
$LN2@DataMapIni:

; 490  : END_DATADESC()

	call	?GetBaseMap@CRoboRocket2@@SAPAUdatamap_s@@XZ ; CRoboRocket2::GetBaseMap
	mov	DWORD PTR ?m_DataMap@CRoboRocket2@@2Udatamap_s@@A+12, eax

; 483  : BEGIN_DATADESC( CRoboRocket2 )

	mov	eax, DWORD PTR __tls_index
	mov	ecx, DWORD PTR fs:__tls_array
	mov	edx, DWORD PTR [ecx+eax*4]
	mov	eax, DWORD PTR ?$TSS1@?1???$DataMapInit@VCRoboRocket2@@@@YAPAUdatamap_s@@PAVCRoboRocket2@@@Z@4HA
	cmp	eax, DWORD PTR __Init_thread_epoch[edx]
	jle	$LN3@DataMapIni
	push	OFFSET ?$TSS1@?1???$DataMapInit@VCRoboRocket2@@@@YAPAUdatamap_s@@PAVCRoboRocket2@@@Z@4HA
	call	__Init_thread_header
	add	esp, 4
	cmp	DWORD PTR ?$TSS1@?1???$DataMapInit@VCRoboRocket2@@@@YAPAUdatamap_s@@PAVCRoboRocket2@@@Z@4HA, -1
	jne	$LN3@DataMapIni
	mov	DWORD PTR __$EHRec$[ebp+8], 1

; 484  : 	DEFINE_FIELD( m_flIgniteTime, FIELD_TIME ),
; 485  : //	DEFINE_FIELD( m_pLauncher, FIELD_CLASSPTR ),
; 486  : 	DEFINE_FUNCTION( FollowThink ),

	push	OFFSET ??_C@_0M@HFODBJCA@FollowThink?$AA@
	mov	ecx, OFFSET ?nameHolder@?1???$DataMapInit@VCRoboRocket2@@@@YAPAUdatamap_s@@PAVCRoboRocket2@@@Z@4VCDatadescGeneratedNameHolder@@A
	call	?GenerateName@CDatadescGeneratedNameHolder@@QAEPBDPBD@Z ; CDatadescGeneratedNameHolder::GenerateName
	mov	DWORD PTR ?dataDesc@?1???$DataMapInit@VCRoboRocket2@@@@YAPAUdatamap_s@@PAVCRoboRocket2@@@Z@4PAUtypedescription_s@@A+52, eax
	mov	DWORD PTR ?dataDesc@?1???$DataMapInit@VCRoboRocket2@@@@YAPAUdatamap_s@@PAVCRoboRocket2@@@Z@4PAUtypedescription_s@@A+56, 0
	mov	eax, 1
	mov	WORD PTR ?dataDesc@?1???$DataMapInit@VCRoboRocket2@@@@YAPAUdatamap_s@@PAVCRoboRocket2@@@Z@4PAUtypedescription_s@@A+60, ax
	mov	eax, 8
	mov	WORD PTR ?dataDesc@?1???$DataMapInit@VCRoboRocket2@@@@YAPAUdatamap_s@@PAVCRoboRocket2@@@Z@4PAUtypedescription_s@@A+62, ax
	mov	DWORD PTR ?dataDesc@?1???$DataMapInit@VCRoboRocket2@@@@YAPAUdatamap_s@@PAVCRoboRocket2@@@Z@4PAUtypedescription_s@@A+64, 0
	mov	DWORD PTR ?dataDesc@?1???$DataMapInit@VCRoboRocket2@@@@YAPAUdatamap_s@@PAVCRoboRocket2@@@Z@4PAUtypedescription_s@@A+68, OFFSET ?FollowThink@CRoboRocket2@@QAEXXZ ; CRoboRocket2::FollowThink

; 487  : 	DEFINE_FUNCTION( IgniteThink ),

	mov	DWORD PTR ?dataDesc@?1???$DataMapInit@VCRoboRocket2@@@@YAPAUdatamap_s@@PAVCRoboRocket2@@@Z@4PAUtypedescription_s@@A+72, 18 ; 00000012H
	push	OFFSET ??_C@_0M@CCEGFCPM@IgniteThink?$AA@
	mov	ecx, OFFSET ?nameHolder@?1???$DataMapInit@VCRoboRocket2@@@@YAPAUdatamap_s@@PAVCRoboRocket2@@@Z@4VCDatadescGeneratedNameHolder@@A
	call	?GenerateName@CDatadescGeneratedNameHolder@@QAEPBDPBD@Z ; CDatadescGeneratedNameHolder::GenerateName
	mov	DWORD PTR ?dataDesc@?1???$DataMapInit@VCRoboRocket2@@@@YAPAUdatamap_s@@PAVCRoboRocket2@@@Z@4PAUtypedescription_s@@A+76, eax
	mov	DWORD PTR ?dataDesc@?1???$DataMapInit@VCRoboRocket2@@@@YAPAUdatamap_s@@PAVCRoboRocket2@@@Z@4PAUtypedescription_s@@A+80, 0
	mov	eax, 1
	mov	WORD PTR ?dataDesc@?1???$DataMapInit@VCRoboRocket2@@@@YAPAUdatamap_s@@PAVCRoboRocket2@@@Z@4PAUtypedescription_s@@A+84, ax
	mov	eax, 8
	mov	WORD PTR ?dataDesc@?1???$DataMapInit@VCRoboRocket2@@@@YAPAUdatamap_s@@PAVCRoboRocket2@@@Z@4PAUtypedescription_s@@A+86, ax
	mov	DWORD PTR ?dataDesc@?1???$DataMapInit@VCRoboRocket2@@@@YAPAUdatamap_s@@PAVCRoboRocket2@@@Z@4PAUtypedescription_s@@A+88, 0
	mov	DWORD PTR ?dataDesc@?1???$DataMapInit@VCRoboRocket2@@@@YAPAUdatamap_s@@PAVCRoboRocket2@@@Z@4PAUtypedescription_s@@A+92, OFFSET ?IgniteThink@CRoboRocket2@@QAEXXZ ; CRoboRocket2::IgniteThink

; 488  : 	DEFINE_FUNCTION( RocketTouch ),

	mov	DWORD PTR ?dataDesc@?1???$DataMapInit@VCRoboRocket2@@@@YAPAUdatamap_s@@PAVCRoboRocket2@@@Z@4PAUtypedescription_s@@A+96, 18 ; 00000012H
	push	OFFSET ??_C@_0M@MEKFALBF@RocketTouch?$AA@
	mov	ecx, OFFSET ?nameHolder@?1???$DataMapInit@VCRoboRocket2@@@@YAPAUdatamap_s@@PAVCRoboRocket2@@@Z@4VCDatadescGeneratedNameHolder@@A
	call	?GenerateName@CDatadescGeneratedNameHolder@@QAEPBDPBD@Z ; CDatadescGeneratedNameHolder::GenerateName
	mov	DWORD PTR ?dataDesc@?1???$DataMapInit@VCRoboRocket2@@@@YAPAUdatamap_s@@PAVCRoboRocket2@@@Z@4PAUtypedescription_s@@A+100, eax
	mov	DWORD PTR ?dataDesc@?1???$DataMapInit@VCRoboRocket2@@@@YAPAUdatamap_s@@PAVCRoboRocket2@@@Z@4PAUtypedescription_s@@A+104, 0
	mov	eax, 1
	mov	WORD PTR ?dataDesc@?1???$DataMapInit@VCRoboRocket2@@@@YAPAUdatamap_s@@PAVCRoboRocket2@@@Z@4PAUtypedescription_s@@A+108, ax
	mov	eax, 8
	mov	WORD PTR ?dataDesc@?1???$DataMapInit@VCRoboRocket2@@@@YAPAUdatamap_s@@PAVCRoboRocket2@@@Z@4PAUtypedescription_s@@A+110, ax
	mov	DWORD PTR ?dataDesc@?1???$DataMapInit@VCRoboRocket2@@@@YAPAUdatamap_s@@PAVCRoboRocket2@@@Z@4PAUtypedescription_s@@A+112, 0
	mov	DWORD PTR ?dataDesc@?1???$DataMapInit@VCRoboRocket2@@@@YAPAUdatamap_s@@PAVCRoboRocket2@@@Z@4PAUtypedescription_s@@A+116, OFFSET ?RocketTouch@CRoboRocket2@@QAEXPAVCBaseEntity@@@Z ; CRoboRocket2::RocketTouch

; 489  : 	DEFINE_FUNCTION( RocketExplode ),

	mov	DWORD PTR ?dataDesc@?1???$DataMapInit@VCRoboRocket2@@@@YAPAUdatamap_s@@PAVCRoboRocket2@@@Z@4PAUtypedescription_s@@A+120, 18 ; 00000012H
	push	OFFSET ??_C@_0O@KKBBKKAJ@RocketExplode?$AA@
	mov	ecx, OFFSET ?nameHolder@?1???$DataMapInit@VCRoboRocket2@@@@YAPAUdatamap_s@@PAVCRoboRocket2@@@Z@4VCDatadescGeneratedNameHolder@@A
	call	?GenerateName@CDatadescGeneratedNameHolder@@QAEPBDPBD@Z ; CDatadescGeneratedNameHolder::GenerateName
	mov	DWORD PTR ?dataDesc@?1???$DataMapInit@VCRoboRocket2@@@@YAPAUdatamap_s@@PAVCRoboRocket2@@@Z@4PAUtypedescription_s@@A+124, eax
	mov	DWORD PTR ?dataDesc@?1???$DataMapInit@VCRoboRocket2@@@@YAPAUdatamap_s@@PAVCRoboRocket2@@@Z@4PAUtypedescription_s@@A+128, 0
	mov	eax, 1
	mov	WORD PTR ?dataDesc@?1???$DataMapInit@VCRoboRocket2@@@@YAPAUdatamap_s@@PAVCRoboRocket2@@@Z@4PAUtypedescription_s@@A+132, ax
	mov	eax, 8
	mov	WORD PTR ?dataDesc@?1???$DataMapInit@VCRoboRocket2@@@@YAPAUdatamap_s@@PAVCRoboRocket2@@@Z@4PAUtypedescription_s@@A+134, ax
	mov	DWORD PTR ?dataDesc@?1???$DataMapInit@VCRoboRocket2@@@@YAPAUdatamap_s@@PAVCRoboRocket2@@@Z@4PAUtypedescription_s@@A+136, 0
	mov	DWORD PTR ?dataDesc@?1???$DataMapInit@VCRoboRocket2@@@@YAPAUdatamap_s@@PAVCRoboRocket2@@@Z@4PAUtypedescription_s@@A+140, OFFSET ?RocketExplode@CRoboRocket2@@QAEXPAUgametrace_s@@H@Z ; CRoboRocket2::RocketExplode
	mov	DWORD PTR __$EHRec$[ebp+8], -1
	push	OFFSET ?$TSS1@?1???$DataMapInit@VCRoboRocket2@@@@YAPAUdatamap_s@@PAVCRoboRocket2@@@Z@4HA
	call	__Init_thread_footer
	add	esp, 4
$LN3@DataMapIni:

; 490  : END_DATADESC()

	mov	eax, 1
	test	eax, eax
	je	SHORT $LN4@DataMapIni
	mov	DWORD PTR ?m_DataMap@CRoboRocket2@@2Udatamap_s@@A+4, 5
	mov	eax, 24					; 00000018H
	shl	eax, 0
	add	eax, OFFSET ?dataDesc@?1???$DataMapInit@VCRoboRocket2@@@@YAPAUdatamap_s@@PAVCRoboRocket2@@@Z@4PAUtypedescription_s@@A
	mov	DWORD PTR ?m_DataMap@CRoboRocket2@@2Udatamap_s@@A, eax
	jmp	SHORT $LN5@DataMapIni
$LN4@DataMapIni:
	mov	DWORD PTR ?m_DataMap@CRoboRocket2@@2Udatamap_s@@A+4, 1
	mov	DWORD PTR ?m_DataMap@CRoboRocket2@@2Udatamap_s@@A, OFFSET ?dataDesc@?1???$DataMapInit@VCRoboRocket2@@@@YAPAUdatamap_s@@PAVCRoboRocket2@@@Z@4PAUtypedescription_s@@A
$LN5@DataMapIni:
	mov	eax, OFFSET ?m_DataMap@CRoboRocket2@@2Udatamap_s@@A ; CRoboRocket2::m_DataMap
	mov	ecx, DWORD PTR __$EHRec$[ebp]
	mov	DWORD PTR fs:0, ecx
	pop	ecx
	pop	edi
	pop	esi
	pop	ebx
	mov	esp, ebp
	pop	ebp
	ret	0
_TEXT	ENDS
;	COMDAT text$x
text$x	SEGMENT
__unwindfunclet$??$DataMapInit@VCRoboRocket2@@@@YAPAUdatamap_s@@PAVCRoboRocket2@@@Z$0:
	push	OFFSET ?$TSS0@?1???$DataMapInit@VCRoboRocket2@@@@YAPAUdatamap_s@@PAVCRoboRocket2@@@Z@4HA
	call	__Init_thread_abort
	pop	ecx
	ret	0
__unwindfunclet$??$DataMapInit@VCRoboRocket2@@@@YAPAUdatamap_s@@PAVCRoboRocket2@@@Z$1:
	push	OFFSET ?$TSS1@?1???$DataMapInit@VCRoboRocket2@@@@YAPAUdatamap_s@@PAVCRoboRocket2@@@Z@4HA
	call	__Init_thread_abort
	pop	ecx
	ret	0
__ehhandler$??$DataMapInit@VCRoboRocket2@@@@YAPAUdatamap_s@@PAVCRoboRocket2@@@Z:
	mov	edx, DWORD PTR [esp+8]
	lea	eax, DWORD PTR [edx+12]
	mov	ecx, DWORD PTR [edx-80]
	xor	ecx, eax
	call	@__security_check_cookie@4
	mov	eax, OFFSET __ehfuncinfo$??$DataMapInit@VCRoboRocket2@@@@YAPAUdatamap_s@@PAVCRoboRocket2@@@Z
	jmp	___CxxFrameHandler3
text$x	ENDS
??$DataMapInit@VCRoboRocket2@@@@YAPAUdatamap_s@@PAVCRoboRocket2@@@Z ENDP ; DataMapInit<CRoboRocket2>
; Function compile flags: /Odtp /ZI
; File d:\!diffusion 2020\source code 2022\client-server\server\weapons\weapon_rpg.cpp
;	COMDAT ??__Erobo_rocket2@@YAXXZ
text$di	SEGMENT
??__Erobo_rocket2@@YAXXZ PROC				; `dynamic initializer for 'robo_rocket2'', COMDAT

; 481  : LINK_ENTITY_TO_CLASS( robo_rocket2, CRoboRocket2 );

	push	ebp
	mov	ebp, esp
	sub	esp, 64					; 00000040H
	push	ebx
	push	esi
	push	edi
	push	OFFSET ??_C@_0N@LECDHPON@robo_rocket2?$AA@
	mov	ecx, OFFSET ?robo_rocket2@@3V?$CEntityFactory@VCRoboRocket2@@@@A
	call	??0?$CEntityFactory@VCRoboRocket2@@@@QAE@PBD@Z ; CEntityFactory<CRoboRocket2>::CEntityFactory<CRoboRocket2>
	pop	edi
	pop	esi
	pop	ebx
	mov	esp, ebp
	pop	ebp
	ret	0
??__Erobo_rocket2@@YAXXZ ENDP				; `dynamic initializer for 'robo_rocket2''
text$di	ENDS
; Function compile flags: /Odtp /ZI
; File d:\!diffusion 2020\source code 2022\client-server\server\util.h
;	COMDAT ?GetEntitySize@?$CEntityFactory@VCRoboRocket2@@@@UAEIXZ
_TEXT	SEGMENT
_this$ = -4						; size = 4
?GetEntitySize@?$CEntityFactory@VCRoboRocket2@@@@UAEIXZ PROC ; CEntityFactory<CRoboRocket2>::GetEntitySize, COMDAT
; _this$ = ecx

; 103  : 	{

	push	ebp
	mov	ebp, esp
	sub	esp, 68					; 00000044H
	push	ebx
	push	esi
	push	edi
	mov	DWORD PTR _this$[ebp], ecx

; 104  : 		return sizeof(T);

	mov	eax, 2524				; 000009dcH

; 105  : 	}

	pop	edi
	pop	esi
	pop	ebx
	mov	esp, ebp
	pop	ebp
	ret	0
?GetEntitySize@?$CEntityFactory@VCRoboRocket2@@@@UAEIXZ ENDP ; CEntityFactory<CRoboRocket2>::GetEntitySize
_TEXT	ENDS
; Function compile flags: /Odtp /ZI
; File d:\!diffusion 2020\source code 2022\client-server\server\util.h
;	COMDAT ?Destroy@?$CEntityFactory@VCRoboRocket2@@@@UAEXPAVCBaseEntity@@@Z
_TEXT	SEGMENT
_this$ = -4						; size = 4
_pEntity$ = 8						; size = 4
?Destroy@?$CEntityFactory@VCRoboRocket2@@@@UAEXPAVCBaseEntity@@@Z PROC ; CEntityFactory<CRoboRocket2>::Destroy, COMDAT
; _this$ = ecx

; 98   : 	{

	push	ebp
	mov	ebp, esp
	sub	esp, 68					; 00000044H
	push	ebx
	push	esi
	push	edi
	mov	DWORD PTR _this$[ebp], ecx

; 99   : 		UTIL_Remove( pEntity );

	mov	eax, DWORD PTR _pEntity$[ebp]
	push	eax
	call	?UTIL_Remove@@YAXPAVCBaseEntity@@@Z	; UTIL_Remove
	add	esp, 4

; 100  : 	}

	pop	edi
	pop	esi
	pop	ebx
	mov	esp, ebp
	pop	ebp
	ret	4
?Destroy@?$CEntityFactory@VCRoboRocket2@@@@UAEXPAVCBaseEntity@@@Z ENDP ; CEntityFactory<CRoboRocket2>::Destroy
_TEXT	ENDS
; Function compile flags: /Odtp /ZI
; File d:\!diffusion 2020\source code 2022\client-server\server\util.h
;	COMDAT ?Create@?$CEntityFactory@VCRoboRocket2@@@@UAEPAVCBaseEntity@@PBDPAUentvars_s@@@Z
_TEXT	SEGMENT
_pEnt$ = -8						; size = 4
_this$ = -4						; size = 4
_pClassName$ = 8					; size = 4
_pev$ = 12						; size = 4
?Create@?$CEntityFactory@VCRoboRocket2@@@@UAEPAVCBaseEntity@@PBDPAUentvars_s@@@Z PROC ; CEntityFactory<CRoboRocket2>::Create, COMDAT
; _this$ = ecx

; 92   : 	{

	push	ebp
	mov	ebp, esp
	sub	esp, 72					; 00000048H
	push	ebx
	push	esi
	push	edi
	mov	DWORD PTR _this$[ebp], ecx

; 93   : 		T* pEnt = GetClassPtr((T*)pev, pClassName);

	mov	eax, DWORD PTR _pClassName$[ebp]
	push	eax
	mov	ecx, DWORD PTR _pev$[ebp]
	push	ecx
	call	??$GetClassPtr@VCRoboRocket2@@@@YAPAVCRoboRocket2@@PAV0@PBD@Z ; GetClassPtr<CRoboRocket2>
	add	esp, 8
	mov	DWORD PTR _pEnt$[ebp], eax

; 94   : 		return pEnt;

	mov	eax, DWORD PTR _pEnt$[ebp]

; 95   : 	}

	pop	edi
	pop	esi
	pop	ebx
	mov	esp, ebp
	pop	ebp
	ret	8
?Create@?$CEntityFactory@VCRoboRocket2@@@@UAEPAVCBaseEntity@@PBDPAUentvars_s@@@Z ENDP ; CEntityFactory<CRoboRocket2>::Create
_TEXT	ENDS
; Function compile flags: /Odtp /ZI
; File d:\!diffusion 2020\source code 2022\client-server\server\util.h
;	COMDAT ??0?$CEntityFactory@VCRoboRocket2@@@@QAE@PBD@Z
_TEXT	SEGMENT
tv76 = -72						; size = 4
_this$ = -4						; size = 4
_pClassName$ = 8					; size = 4
??0?$CEntityFactory@VCRoboRocket2@@@@QAE@PBD@Z PROC	; CEntityFactory<CRoboRocket2>::CEntityFactory<CRoboRocket2>, COMDAT
; _this$ = ecx

; 86   : 	CEntityFactory( const char *pClassName )

	push	ebp
	mov	ebp, esp
	sub	esp, 72					; 00000048H
	push	ebx
	push	esi
	push	edi
	mov	DWORD PTR _this$[ebp], ecx

; 87   : 	{

	mov	ecx, DWORD PTR _this$[ebp]
	call	??0IEntityFactory@@QAE@XZ
	mov	eax, DWORD PTR _this$[ebp]
	mov	DWORD PTR [eax], OFFSET ??_7?$CEntityFactory@VCRoboRocket2@@@@6B@

; 88   : 		EntityFactoryDictionary()->InstallFactory( this, pClassName );

	call	?EntityFactoryDictionary@@YAPAVIEntityFactoryDictionary@@XZ ; EntityFactoryDictionary
	mov	DWORD PTR tv76[ebp], eax
	mov	eax, DWORD PTR _pClassName$[ebp]
	push	eax
	mov	ecx, DWORD PTR _this$[ebp]
	push	ecx
	mov	edx, DWORD PTR tv76[ebp]
	mov	eax, DWORD PTR [edx]
	mov	ecx, DWORD PTR tv76[ebp]
	mov	edx, DWORD PTR [eax]
	call	edx

; 89   : 	}

	mov	eax, DWORD PTR _this$[ebp]
	pop	edi
	pop	esi
	pop	ebx
	mov	esp, ebp
	pop	ebp
	ret	4
??0?$CEntityFactory@VCRoboRocket2@@@@QAE@PBD@Z ENDP	; CEntityFactory<CRoboRocket2>::CEntityFactory<CRoboRocket2>
_TEXT	ENDS
; Function compile flags: /Odtp /ZI
;	COMDAT ??0CRoboRocket2@@QAE@XZ
_TEXT	SEGMENT
_this$ = -4						; size = 4
??0CRoboRocket2@@QAE@XZ PROC				; CRoboRocket2::CRoboRocket2, COMDAT
; _this$ = ecx
	push	ebp
	mov	ebp, esp
	sub	esp, 68					; 00000044H
	push	ebx
	push	esi
	push	edi
	mov	DWORD PTR _this$[ebp], ecx
	mov	ecx, DWORD PTR _this$[ebp]
	call	??0CGrenade@@QAE@XZ
	mov	eax, DWORD PTR _this$[ebp]
	mov	DWORD PTR [eax], OFFSET ??_7CRoboRocket2@@6B@
	mov	eax, DWORD PTR _this$[ebp]
	pop	edi
	pop	esi
	pop	ebx
	mov	esp, ebp
	pop	ebp
	ret	0
??0CRoboRocket2@@QAE@XZ ENDP				; CRoboRocket2::CRoboRocket2
_TEXT	ENDS
; Function compile flags: /Odtp /ZI
; File d:\!diffusion 2020\source code 2022\client-server\server\weapons\weapon_rpg.cpp
;	COMDAT ?GetDataDescMap@CRoboRocket2@@UAEPAUdatamap_s@@XZ
_TEXT	SEGMENT
_this$ = -4						; size = 4
?GetDataDescMap@CRoboRocket2@@UAEPAUdatamap_s@@XZ PROC	; CRoboRocket2::GetDataDescMap, COMDAT
; _this$ = ecx

; 483  : BEGIN_DATADESC( CRoboRocket2 )

	push	ebp
	mov	ebp, esp
	sub	esp, 68					; 00000044H
	push	ebx
	push	esi
	push	edi
	mov	DWORD PTR _this$[ebp], ecx
	mov	eax, OFFSET ?m_DataMap@CRoboRocket2@@2Udatamap_s@@A ; CRoboRocket2::m_DataMap
	pop	edi
	pop	esi
	pop	ebx
	mov	esp, ebp
	pop	ebp
	ret	0
?GetDataDescMap@CRoboRocket2@@UAEPAUdatamap_s@@XZ ENDP	; CRoboRocket2::GetDataDescMap
_TEXT	ENDS
; Function compile flags: /Odtp /ZI
; File d:\!diffusion 2020\source code 2022\client-server\server\weapons\weapon_rpg.cpp
;	COMDAT ?GetBaseMap@CRoboRocket2@@SAPAUdatamap_s@@XZ
_TEXT	SEGMENT
_pResult$ = -4						; size = 4
?GetBaseMap@CRoboRocket2@@SAPAUdatamap_s@@XZ PROC	; CRoboRocket2::GetBaseMap, COMDAT

; 483  : BEGIN_DATADESC( CRoboRocket2 )

	push	ebp
	mov	ebp, esp
	sub	esp, 68					; 00000044H
	push	ebx
	push	esi
	push	edi
	lea	eax, DWORD PTR _pResult$[ebp]
	push	eax
	push	0
	call	??$DataMapAccess@VCGrenade@@@@YAXPAVCGrenade@@PAPAUdatamap_s@@@Z ; DataMapAccess<CGrenade>
	add	esp, 8
	mov	eax, DWORD PTR _pResult$[ebp]
	pop	edi
	pop	esi
	pop	ebx
	mov	esp, ebp
	pop	ebp
	ret	0
?GetBaseMap@CRoboRocket2@@SAPAUdatamap_s@@XZ ENDP	; CRoboRocket2::GetBaseMap
_TEXT	ENDS
; Function compile flags: /Odtp /ZI
; File d:\!diffusion 2020\source code 2022\client-server\server\weapons\weapon_rpg.cpp
;	COMDAT ?OnTeleport@CRoboRocket2@@UAEXXZ
_TEXT	SEGMENT
$T1 = -80						; size = 12
_this$ = -4						; size = 4
?OnTeleport@CRoboRocket2@@UAEXXZ PROC			; CRoboRocket2::OnTeleport, COMDAT
; _this$ = ecx

; 715  : {

	push	ebp
	mov	ebp, esp
	sub	esp, 80					; 00000050H
	push	ebx
	push	esi
	push	edi
	mov	DWORD PTR _this$[ebp], ecx

; 716  : 	// re-aiming the projectile
; 717  : 	SetLocalAngles( UTIL_VecToAngles( GetLocalVelocity( ) ));

	mov	ecx, DWORD PTR _this$[ebp]
	call	?GetLocalVelocity@CBaseEntity@@QBEABVVector@@XZ ; CBaseEntity::GetLocalVelocity
	push	eax
	lea	eax, DWORD PTR $T1[ebp]
	push	eax
	call	?UTIL_VecToAngles@@YA?AVVector@@ABV1@@Z	; UTIL_VecToAngles
	add	esp, 8
	push	eax
	mov	ecx, DWORD PTR _this$[ebp]
	call	?SetLocalAngles@CBaseEntity@@QAEXABVVector@@@Z ; CBaseEntity::SetLocalAngles

; 718  : 
; 719  : 	MESSAGE_BEGIN( MSG_ALL, SVC_TEMPENTITY );

	push	0
	push	0
	push	23					; 00000017H
	push	2
	call	?MESSAGE_BEGIN@@YAXHHPBMPAUedict_s@@@Z	; MESSAGE_BEGIN
	add	esp, 16					; 00000010H

; 720  : 		WRITE_BYTE( TE_KILLBEAM );

	push	99					; 00000063H
	call	DWORD PTR ?g_engfuncs@@3Uenginefuncs_s@@A+192
	add	esp, 4

; 721  : 		WRITE_ENTITY( entindex() );

	mov	ecx, DWORD PTR _this$[ebp]
	call	?entindex@CBaseEntity@@QAEHXZ		; CBaseEntity::entindex
	push	eax
	call	DWORD PTR ?g_engfuncs@@3Uenginefuncs_s@@A+220
	add	esp, 4

; 722  : 	MESSAGE_END();

	call	DWORD PTR ?g_engfuncs@@3Uenginefuncs_s@@A+188

; 723  : 
; 724  : 	CreateTrail();

	mov	ecx, DWORD PTR _this$[ebp]
	call	?CreateTrail@CRoboRocket2@@QAEXXZ	; CRoboRocket2::CreateTrail

; 725  : }

	pop	edi
	pop	esi
	pop	ebx
	mov	esp, ebp
	pop	ebp
	ret	0
?OnTeleport@CRoboRocket2@@UAEXXZ ENDP			; CRoboRocket2::OnTeleport
_TEXT	ENDS
; Function compile flags: /Odtp /ZI
; File d:\!diffusion 2020\source code 2022\client-server\server\weapons\weapon_rpg.cpp
;	COMDAT ?CreateTrail@CRoboRocket2@@QAEXXZ
_TEXT	SEGMENT
_this$ = -4						; size = 4
?CreateTrail@CRoboRocket2@@QAEXXZ PROC			; CRoboRocket2::CreateTrail, COMDAT
; _this$ = ecx

; 678  : {

	push	ebp
	mov	ebp, esp
	sub	esp, 68					; 00000044H
	push	ebx
	push	esi
	push	edi
	mov	DWORD PTR _this$[ebp], ecx

; 679  : 	// rocket trail
; 680  : 	MESSAGE_BEGIN( MSG_BROADCAST, SVC_TEMPENTITY );

	push	0
	push	0
	push	23					; 00000017H
	push	0
	call	?MESSAGE_BEGIN@@YAXHHPBMPAUedict_s@@@Z	; MESSAGE_BEGIN
	add	esp, 16					; 00000010H

; 681  : 
; 682  : 		WRITE_BYTE( TE_BEAMFOLLOW );

	push	22					; 00000016H
	call	DWORD PTR ?g_engfuncs@@3Uenginefuncs_s@@A+192
	add	esp, 4

; 683  : 		WRITE_SHORT(entindex());	// entity

	mov	ecx, DWORD PTR _this$[ebp]
	call	?entindex@CBaseEntity@@QAEHXZ		; CBaseEntity::entindex
	push	eax
	call	DWORD PTR ?g_engfuncs@@3Uenginefuncs_s@@A+200
	add	esp, 4

; 684  : 		WRITE_SHORT(m_iTrail );	// model

	mov	eax, DWORD PTR _this$[ebp]
	mov	ecx, DWORD PTR [eax+2516]
	push	ecx
	call	DWORD PTR ?g_engfuncs@@3Uenginefuncs_s@@A+200
	add	esp, 4

; 685  : 		WRITE_BYTE( 40 ); // life

	push	40					; 00000028H
	call	DWORD PTR ?g_engfuncs@@3Uenginefuncs_s@@A+192
	add	esp, 4

; 686  : 		WRITE_BYTE( 5 );  // width

	push	5
	call	DWORD PTR ?g_engfuncs@@3Uenginefuncs_s@@A+192
	add	esp, 4

; 687  : 		WRITE_BYTE( 224 );   // r, g, b

	push	224					; 000000e0H
	call	DWORD PTR ?g_engfuncs@@3Uenginefuncs_s@@A+192
	add	esp, 4

; 688  : 		WRITE_BYTE( 224 );   // r, g, b

	push	224					; 000000e0H
	call	DWORD PTR ?g_engfuncs@@3Uenginefuncs_s@@A+192
	add	esp, 4

; 689  : 		WRITE_BYTE( 255 );   // r, g, b

	push	255					; 000000ffH
	call	DWORD PTR ?g_engfuncs@@3Uenginefuncs_s@@A+192
	add	esp, 4

; 690  : 		WRITE_BYTE( 255 );	// brightness

	push	255					; 000000ffH
	call	DWORD PTR ?g_engfuncs@@3Uenginefuncs_s@@A+192
	add	esp, 4

; 691  : 
; 692  : 	MESSAGE_END();  // move PHS/PVS data sending into here (SEND_ALL, SEND_PVS, SEND_PHS)

	call	DWORD PTR ?g_engfuncs@@3Uenginefuncs_s@@A+188

; 693  : }

	pop	edi
	pop	esi
	pop	ebx
	mov	esp, ebp
	pop	ebp
	ret	0
?CreateTrail@CRoboRocket2@@QAEXXZ ENDP			; CRoboRocket2::CreateTrail
_TEXT	ENDS
; Function compile flags: /Odtp /ZI
; File d:\!diffusion 2020\source code 2022\client-server\server\weapons\weapon_rpg.cpp
;	COMDAT ?RocketExplode@CRoboRocket2@@QAEXPAUgametrace_s@@H@Z
_TEXT	SEGMENT
tv461 = -148						; size = 8
tv292 = -144						; size = 4
$T1 = -140						; size = 12
$T2 = -128						; size = 12
_i$3 = -52						; size = 4
_sparkCount$4 = -48					; size = 4
_pEntity$ = -44						; size = 4
_pevOwner$ = -40					; size = 4
_sndentindex$ = -36					; size = 4
_spritescale$ = -32					; size = 4
_iContents$ = -28					; size = 4
_absOrigin$ = -24					; size = 12
_vecPlaneScale$5 = -12					; size = 4
_flRndSound$ = -8					; size = 4
_this$ = -4						; size = 4
_pTrace$ = 8						; size = 4
_bitsDamageType$ = 12					; size = 4
?RocketExplode@CRoboRocket2@@QAEXPAUgametrace_s@@H@Z PROC ; CRoboRocket2::RocketExplode, COMDAT
; _this$ = ecx

; 574  : {

	push	ebp
	mov	ebp, esp
	sub	esp, 148				; 00000094H
	push	ebx
	push	esi
	push	edi
	mov	DWORD PTR _this$[ebp], ecx

; 575  : 	float		flRndSound;// sound randomizer
; 576  : 
; 577  : 	pev->model = iStringNull;//invisible

	mov	eax, DWORD PTR _this$[ebp]
	mov	ecx, DWORD PTR [eax+4]
	mov	DWORD PTR [ecx+184], 0

; 578  : 	pev->solid = SOLID_NOT;// intangible

	mov	eax, DWORD PTR _this$[ebp]
	mov	ecx, DWORD PTR [eax+4]
	mov	DWORD PTR [ecx+268], 0

; 579  : 
; 580  : 	pev->takedamage = DAMAGE_NO;

	mov	eax, DWORD PTR _this$[ebp]
	mov	ecx, DWORD PTR [eax+4]
	xorps	xmm0, xmm0
	movss	DWORD PTR [ecx+364], xmm0

; 581  : 
; 582  : 	// Pull out of the wall a bit
; 583  : 	if ( pTrace->flFraction != 1.0 )

	mov	eax, DWORD PTR _pTrace$[ebp]
	cvtss2sd xmm0, DWORD PTR [eax+16]
	ucomisd	xmm0, QWORD PTR __real@3ff0000000000000
	lahf
	test	ah, 68					; 00000044H
	jnp	SHORT $LN7@RocketExpl

; 584  : 	{
; 585  : 		float vecPlaneScale = (pev->dmg - 24) * 0.6f;

	mov	eax, DWORD PTR _this$[ebp]
	mov	ecx, DWORD PTR [eax+4]
	movss	xmm0, DWORD PTR [ecx+480]
	subss	xmm0, DWORD PTR __real@41c00000
	mulss	xmm0, DWORD PTR __real@3f19999a
	movss	DWORD PTR _vecPlaneScale$5[ebp], xmm0

; 586  : 		if( vecPlaneScale < 1 )

	movss	xmm0, DWORD PTR __real@3f800000
	comiss	xmm0, DWORD PTR _vecPlaneScale$5[ebp]
	jbe	SHORT $LN8@RocketExpl

; 587  : 			vecPlaneScale = 1;

	movss	xmm0, DWORD PTR __real@3f800000
	movss	DWORD PTR _vecPlaneScale$5[ebp], xmm0
$LN8@RocketExpl:

; 588  : 		SetAbsOrigin( pTrace->vecEndPos + (pTrace->vecPlaneNormal * vecPlaneScale ));

	push	ecx
	movss	xmm0, DWORD PTR _vecPlaneScale$5[ebp]
	movss	DWORD PTR [esp], xmm0
	lea	eax, DWORD PTR $T2[ebp]
	push	eax
	mov	ecx, DWORD PTR _pTrace$[ebp]
	add	ecx, 36					; 00000024H
	call	??DVector@@QBE?AV0@M@Z			; Vector::operator*
	push	eax
	lea	ecx, DWORD PTR $T1[ebp]
	push	ecx
	mov	ecx, DWORD PTR _pTrace$[ebp]
	add	ecx, 20					; 00000014H
	call	??HVector@@QBE?AV0@ABV0@@Z		; Vector::operator+
	push	eax
	mov	ecx, DWORD PTR _this$[ebp]
	call	?SetAbsOrigin@CBaseEntity@@QAEXABVVector@@@Z ; CBaseEntity::SetAbsOrigin
$LN7@RocketExpl:

; 589  : 	}
; 590  : 
; 591  : 	Vector absOrigin = GetAbsOrigin();

	mov	ecx, DWORD PTR _this$[ebp]
	call	?GetAbsOrigin@CBaseEntity@@QBEABVVector@@XZ ; CBaseEntity::GetAbsOrigin
	push	eax
	lea	ecx, DWORD PTR _absOrigin$[ebp]
	call	??0Vector@@QAE@ABV0@@Z			; Vector::Vector

; 592  : 
; 593  : 	int iContents = UTIL_PointContents ( absOrigin );

	lea	eax, DWORD PTR _absOrigin$[ebp]
	push	eax
	call	?UTIL_PointContents@@YAHABVVector@@@Z	; UTIL_PointContents
	add	esp, 4
	mov	DWORD PTR _iContents$[ebp], eax

; 594  : 	
; 595  : 	MESSAGE_BEGIN( MSG_PAS, gmsgTempEnt, absOrigin );

	push	0
	lea	ecx, DWORD PTR _absOrigin$[ebp]
	call	??BVector@@QAEPAMXZ			; Vector::operator float *
	push	eax
	mov	eax, DWORD PTR ?gmsgTempEnt@@3HA	; gmsgTempEnt
	push	eax
	push	5
	call	?MESSAGE_BEGIN@@YAXHHPBMPAUedict_s@@@Z	; MESSAGE_BEGIN
	add	esp, 16					; 00000010H

; 596  : 		WRITE_BYTE( TE_EXPLOSION );		// This makes a dynamic light and the explosion sprites/sound

	push	3
	call	DWORD PTR ?g_engfuncs@@3Uenginefuncs_s@@A+192
	add	esp, 4

; 597  : 		WRITE_COORD( absOrigin.x );	// Send to PAS because of the sound

	push	ecx
	movss	xmm0, DWORD PTR _absOrigin$[ebp]
	movss	DWORD PTR [esp], xmm0
	call	DWORD PTR ?g_engfuncs@@3Uenginefuncs_s@@A+212
	add	esp, 4

; 598  : 		WRITE_COORD( absOrigin.y );

	push	ecx
	movss	xmm0, DWORD PTR _absOrigin$[ebp+4]
	movss	DWORD PTR [esp], xmm0
	call	DWORD PTR ?g_engfuncs@@3Uenginefuncs_s@@A+212
	add	esp, 4

; 599  : 		WRITE_COORD( absOrigin.z );

	push	ecx
	movss	xmm0, DWORD PTR _absOrigin$[ebp+8]
	movss	DWORD PTR [esp], xmm0
	call	DWORD PTR ?g_engfuncs@@3Uenginefuncs_s@@A+212
	add	esp, 4

; 600  : 
; 601  : 		if( iContents != CONTENTS_WATER )

	cmp	DWORD PTR _iContents$[ebp], -3		; fffffffdH
	je	SHORT $LN9@RocketExpl

; 602  : 		{
; 603  : 			WRITE_SHORT( g_sModelIndexFireball );

	movsx	eax, WORD PTR ?g_sModelIndexFireball@@3FA ; g_sModelIndexFireball
	push	eax
	call	DWORD PTR ?g_engfuncs@@3Uenginefuncs_s@@A+200
	add	esp, 4

; 604  : 		}
; 605  : 		else

	jmp	SHORT $LN10@RocketExpl
$LN9@RocketExpl:

; 606  : 		{
; 607  : 			WRITE_SHORT( g_sModelIndexWExplosion );

	movsx	eax, WORD PTR ?g_sModelIndexWExplosion@@3FA ; g_sModelIndexWExplosion
	push	eax
	call	DWORD PTR ?g_engfuncs@@3Uenginefuncs_s@@A+200
	add	esp, 4
$LN10@RocketExpl:

; 608  : 		}
; 609  : 		int spritescale = (pev->dmg - 50) * .60;

	mov	eax, DWORD PTR _this$[ebp]
	mov	ecx, DWORD PTR [eax+4]
	movss	xmm0, DWORD PTR [ecx+480]
	subss	xmm0, DWORD PTR __real@42480000
	cvtss2sd xmm0, xmm0
	mulsd	xmm0, QWORD PTR __real@3fe3333333333333
	cvttsd2si edx, xmm0
	mov	DWORD PTR _spritescale$[ebp], edx

; 610  : 		if( spritescale < 20 )

	cmp	DWORD PTR _spritescale$[ebp], 20	; 00000014H
	jge	SHORT $LN11@RocketExpl

; 611  : 			spritescale = 20;

	mov	DWORD PTR _spritescale$[ebp], 20	; 00000014H
$LN11@RocketExpl:

; 612  : 		WRITE_BYTE( spritescale ); // scale * 10

	mov	eax, DWORD PTR _spritescale$[ebp]
	push	eax
	call	DWORD PTR ?g_engfuncs@@3Uenginefuncs_s@@A+192
	add	esp, 4

; 613  : 		WRITE_BYTE( 15  ); // framerate

	push	15					; 0000000fH
	call	DWORD PTR ?g_engfuncs@@3Uenginefuncs_s@@A+192
	add	esp, 4

; 614  : 		WRITE_BYTE( TE_EXPLFLAG_NONE );

	push	0
	call	DWORD PTR ?g_engfuncs@@3Uenginefuncs_s@@A+192
	add	esp, 4

; 615  : 	MESSAGE_END();

	call	DWORD PTR ?g_engfuncs@@3Uenginefuncs_s@@A+188

; 616  : 
; 617  : 	int sndentindex = 0;

	mov	DWORD PTR _sndentindex$[ebp], 0

; 618  : 	if( pev->owner )

	mov	eax, DWORD PTR _this$[ebp]
	mov	ecx, DWORD PTR [eax+4]
	cmp	DWORD PTR [ecx+408], 0
	je	SHORT $LN12@RocketExpl

; 619  : 		sndentindex = ENTINDEX( pev->owner );

	mov	eax, DWORD PTR _this$[ebp]
	mov	ecx, DWORD PTR [eax+4]
	mov	edx, DWORD PTR [ecx+408]
	push	edx
	call	?ENTINDEX@@YAHPAUedict_s@@@Z		; ENTINDEX
	add	esp, 4
	mov	DWORD PTR _sndentindex$[ebp], eax
$LN12@RocketExpl:

; 620  : 	CSoundEnt::InsertSound ( bits_SOUND_COMBAT, absOrigin, NORMAL_EXPLOSION_VOLUME, 3.0, sndentindex );

	mov	eax, DWORD PTR _sndentindex$[ebp]
	push	eax
	push	ecx
	movss	xmm0, DWORD PTR __real@40400000
	movss	DWORD PTR [esp], xmm0
	push	1024					; 00000400H
	lea	ecx, DWORD PTR _absOrigin$[ebp]
	push	ecx
	push	1
	call	?InsertSound@CSoundEnt@@SAXHABVVector@@HMH@Z ; CSoundEnt::InsertSound
	add	esp, 20					; 00000014H

; 621  : 	entvars_t *pevOwner;
; 622  : 	if ( pev->owner )

	mov	eax, DWORD PTR _this$[ebp]
	mov	ecx, DWORD PTR [eax+4]
	cmp	DWORD PTR [ecx+408], 0
	je	SHORT $LN13@RocketExpl

; 623  : 		pevOwner = VARS( pev->owner );

	mov	eax, DWORD PTR _this$[ebp]
	mov	ecx, DWORD PTR [eax+4]
	mov	edx, DWORD PTR [ecx+408]
	push	edx
	call	?VARS@@YAPAUentvars_s@@PAUedict_s@@@Z	; VARS
	add	esp, 4
	mov	DWORD PTR _pevOwner$[ebp], eax

; 624  : 	else

	jmp	SHORT $LN14@RocketExpl
$LN13@RocketExpl:

; 625  : 		pevOwner = NULL;

	mov	DWORD PTR _pevOwner$[ebp], 0
$LN14@RocketExpl:

; 626  : 
; 627  : 	pev->owner = NULL; // can't traceline attack owner if this is set

	mov	eax, DWORD PTR _this$[ebp]
	mov	ecx, DWORD PTR [eax+4]
	mov	DWORD PTR [ecx+408], 0

; 628  : 
; 629  : 	RadiusDamage ( pev, pevOwner, pev->dmg, pev->dmg * 10, m_iClass, bitsDamageType );

	mov	eax, DWORD PTR _bitsDamageType$[ebp]
	push	eax
	mov	ecx, DWORD PTR _this$[ebp]
	mov	edx, DWORD PTR [ecx+2464]
	push	edx
	mov	eax, DWORD PTR _this$[ebp]
	mov	ecx, DWORD PTR [eax+4]
	movss	xmm0, DWORD PTR [ecx+480]
	mulss	xmm0, DWORD PTR __real@41200000
	push	ecx
	movss	DWORD PTR [esp], xmm0
	mov	edx, DWORD PTR _this$[ebp]
	mov	eax, DWORD PTR [edx+4]
	push	ecx
	movss	xmm0, DWORD PTR [eax+480]
	movss	DWORD PTR [esp], xmm0
	mov	ecx, DWORD PTR _pevOwner$[ebp]
	push	ecx
	mov	edx, DWORD PTR _this$[ebp]
	mov	eax, DWORD PTR [edx+4]
	push	eax
	mov	ecx, DWORD PTR _this$[ebp]
	call	?RadiusDamage@CBaseMonster@@QAEXPAUentvars_s@@0MMHH@Z ; CBaseMonster::RadiusDamage

; 630  : 
; 631  : 	CBaseEntity *pEntity = CBaseEntity::Instance( pTrace->pHit );

	mov	eax, DWORD PTR _pTrace$[ebp]
	mov	ecx, DWORD PTR [eax+48]
	push	ecx
	call	?Instance@CBaseEntity@@SAPAV1@PAUedict_s@@@Z ; CBaseEntity::Instance
	add	esp, 4
	mov	DWORD PTR _pEntity$[ebp], eax

; 632  : 
; 633  : 	if ( RANDOM_FLOAT( 0 , 1 ) < 0.5 )

	push	ecx
	movss	xmm0, DWORD PTR __real@3f800000
	movss	DWORD PTR [esp], xmm0
	push	ecx
	xorps	xmm0, xmm0
	movss	DWORD PTR [esp], xmm0
	call	DWORD PTR ?g_engfuncs@@3Uenginefuncs_s@@A+364
	add	esp, 8
	fstp	QWORD PTR tv461[ebp]
	movsd	xmm0, QWORD PTR __real@3fe0000000000000
	comisd	xmm0, QWORD PTR tv461[ebp]
	jbe	SHORT $LN15@RocketExpl

; 634  : 	{
; 635  : 		if( pEntity && UTIL_GetModelType( pEntity->pev->modelindex ) == mod_studio )

	cmp	DWORD PTR _pEntity$[ebp], 0
	je	SHORT $LN17@RocketExpl
	mov	eax, DWORD PTR _pEntity$[ebp]
	mov	ecx, DWORD PTR [eax+4]
	mov	edx, DWORD PTR [ecx+180]
	push	edx
	call	?UTIL_GetModelType@@YA?AW4modtype_t@@H@Z ; UTIL_GetModelType
	add	esp, 4
	cmp	eax, 3
	jne	SHORT $LN17@RocketExpl

; 636  : 			UTIL_StudioDecalTrace( pTrace, DECAL_SCORCH1 );

	push	0
	push	11					; 0000000bH
	mov	eax, DWORD PTR _pTrace$[ebp]
	push	eax
	call	?UTIL_StudioDecalTrace@@YAXPAUgametrace_s@@HH@Z ; UTIL_StudioDecalTrace
	add	esp, 12					; 0000000cH
	jmp	SHORT $LN18@RocketExpl
$LN17@RocketExpl:

; 637  : 		else UTIL_DecalTrace( pTrace, DECAL_SCORCH1 );

	push	11					; 0000000bH
	mov	eax, DWORD PTR _pTrace$[ebp]
	push	eax
	call	?UTIL_DecalTrace@@YAXPAUgametrace_s@@H@Z ; UTIL_DecalTrace
	add	esp, 8
$LN18@RocketExpl:

; 638  : 	}
; 639  : 	else

	jmp	SHORT $LN20@RocketExpl
$LN15@RocketExpl:

; 640  : 	{
; 641  : 		if( pEntity && UTIL_GetModelType( pEntity->pev->modelindex ) == mod_studio )

	cmp	DWORD PTR _pEntity$[ebp], 0
	je	SHORT $LN19@RocketExpl
	mov	eax, DWORD PTR _pEntity$[ebp]
	mov	ecx, DWORD PTR [eax+4]
	mov	edx, DWORD PTR [ecx+180]
	push	edx
	call	?UTIL_GetModelType@@YA?AW4modtype_t@@H@Z ; UTIL_GetModelType
	add	esp, 4
	cmp	eax, 3
	jne	SHORT $LN19@RocketExpl

; 642  : 			UTIL_StudioDecalTrace( pTrace, DECAL_SCORCH2 );

	push	0
	push	12					; 0000000cH
	mov	eax, DWORD PTR _pTrace$[ebp]
	push	eax
	call	?UTIL_StudioDecalTrace@@YAXPAUgametrace_s@@HH@Z ; UTIL_StudioDecalTrace
	add	esp, 12					; 0000000cH
	jmp	SHORT $LN20@RocketExpl
$LN19@RocketExpl:

; 643  : 		else UTIL_DecalTrace( pTrace, DECAL_SCORCH2 );

	push	12					; 0000000cH
	mov	eax, DWORD PTR _pTrace$[ebp]
	push	eax
	call	?UTIL_DecalTrace@@YAXPAUgametrace_s@@H@Z ; UTIL_DecalTrace
	add	esp, 8
$LN20@RocketExpl:

; 644  : 	}
; 645  : 
; 646  : 	flRndSound = RANDOM_FLOAT( 0 , 1 );

	push	ecx
	movss	xmm0, DWORD PTR __real@3f800000
	movss	DWORD PTR [esp], xmm0
	push	ecx
	xorps	xmm0, xmm0
	movss	DWORD PTR [esp], xmm0
	call	DWORD PTR ?g_engfuncs@@3Uenginefuncs_s@@A+364
	add	esp, 8
	fstp	DWORD PTR _flRndSound$[ebp]

; 647  : 
; 648  : 	switch ( RANDOM_LONG( 0, 2 ) )

	push	2
	push	0
	call	DWORD PTR ?g_engfuncs@@3Uenginefuncs_s@@A+360
	add	esp, 8
	mov	DWORD PTR tv292[ebp], eax
	cmp	DWORD PTR tv292[ebp], 0
	je	SHORT $LN21@RocketExpl
	cmp	DWORD PTR tv292[ebp], 1
	je	SHORT $LN22@RocketExpl
	cmp	DWORD PTR tv292[ebp], 2
	je	SHORT $LN23@RocketExpl
	jmp	$LN2@RocketExpl
$LN21@RocketExpl:

; 649  : 	{
; 650  : 		case 0:	EMIT_SOUND(ENT(pev), CHAN_VOICE, "weapons/debris1.wav", 0.55, ATTN_NORM);	break;

	push	ecx
	movss	xmm0, DWORD PTR __real@3f4ccccd
	movss	DWORD PTR [esp], xmm0
	push	ecx
	movss	xmm0, DWORD PTR __real@3f0ccccd
	movss	DWORD PTR [esp], xmm0
	push	OFFSET ??_C@_0BE@JJJKAAPC@weapons?1debris1?4wav?$AA@
	push	2
	mov	eax, DWORD PTR _this$[ebp]
	mov	ecx, DWORD PTR [eax+4]
	push	ecx
	call	?ENT@@YAPAUedict_s@@PBUentvars_s@@@Z	; ENT
	add	esp, 4
	push	eax
	call	?EMIT_SOUND@@YAXPAUedict_s@@HPBDMM@Z	; EMIT_SOUND
	add	esp, 20					; 00000014H
	jmp	SHORT $LN2@RocketExpl
$LN22@RocketExpl:

; 651  : 		case 1:	EMIT_SOUND(ENT(pev), CHAN_VOICE, "weapons/debris2.wav", 0.55, ATTN_NORM);	break;

	push	ecx
	movss	xmm0, DWORD PTR __real@3f4ccccd
	movss	DWORD PTR [esp], xmm0
	push	ecx
	movss	xmm0, DWORD PTR __real@3f0ccccd
	movss	DWORD PTR [esp], xmm0
	push	OFFSET ??_C@_0BE@BPAOHCFM@weapons?1debris2?4wav?$AA@
	push	2
	mov	eax, DWORD PTR _this$[ebp]
	mov	ecx, DWORD PTR [eax+4]
	push	ecx
	call	?ENT@@YAPAUedict_s@@PBUentvars_s@@@Z	; ENT
	add	esp, 4
	push	eax
	call	?EMIT_SOUND@@YAXPAUedict_s@@HPBDMM@Z	; EMIT_SOUND
	add	esp, 20					; 00000014H
	jmp	SHORT $LN2@RocketExpl
$LN23@RocketExpl:

; 652  : 		case 2:	EMIT_SOUND(ENT(pev), CHAN_VOICE, "weapons/debris3.wav", 0.55, ATTN_NORM);	break;

	push	ecx
	movss	xmm0, DWORD PTR __real@3f4ccccd
	movss	DWORD PTR [esp], xmm0
	push	ecx
	movss	xmm0, DWORD PTR __real@3f0ccccd
	movss	DWORD PTR [esp], xmm0
	push	OFFSET ??_C@_0BE@NEFCKBPJ@weapons?1debris3?4wav?$AA@
	push	2
	mov	eax, DWORD PTR _this$[ebp]
	mov	ecx, DWORD PTR [eax+4]
	push	ecx
	call	?ENT@@YAPAUedict_s@@PBUentvars_s@@@Z	; ENT
	add	esp, 4
	push	eax
	call	?EMIT_SOUND@@YAXPAUedict_s@@HPBDMM@Z	; EMIT_SOUND
	add	esp, 20					; 00000014H
$LN2@RocketExpl:

; 653  : 	}
; 654  : 
; 655  : 	pev->effects |= EF_NODRAW;

