; Listing generated by Microsoft (R) Optimizing Compiler Version 19.00.24247.2 

	TITLE	D:\!DIFFUSION 2020\source code 2022\client-server\server\weapons\weapon_deagle.cpp
	.686P
	.XMM
	include listing.inc
	.model	flat

INCLUDELIB LIBCMT
INCLUDELIB OLDNAMES

PUBLIC	??_H@YGXPAXIIP6EPAX0@Z@Z			; `vector constructor iterator'
PUBLIC	??__G@YGXPAX0IIP6EPAX00@Z@Z			; `vector copy constructor iterator'
PUBLIC	?__empty_global_delete@@YAXPAX@Z		; __empty_global_delete
PUBLIC	?__empty_global_delete@@YAXPAXI@Z		; __empty_global_delete
PUBLIC	??0Vector@@QAE@XZ				; Vector::Vector
PUBLIC	??0Vector@@QAE@MMM@Z				; Vector::Vector
PUBLIC	??0Vector@@QAE@ABV0@@Z				; Vector::Vector
PUBLIC	??8Vector@@QBEHABV0@@Z				; Vector::operator==
PUBLIC	??9Vector@@QBEHABV0@@Z				; Vector::operator!=
PUBLIC	??HVector@@QBE?AV0@ABV0@@Z			; Vector::operator+
PUBLIC	??DVector@@QBE?AV0@M@Z				; Vector::operator*
PUBLIC	?GET_PRIVATE@@YAPAXPAUedict_s@@@Z		; GET_PRIVATE
PUBLIC	?MESSAGE_BEGIN@@YAXHHPBMPAUentvars_s@@@Z	; MESSAGE_BEGIN
PUBLIC	??0IEntityFactory@@QAE@XZ			; IEntityFactory::IEntityFactory
PUBLIC	?ENT@@YAPAUedict_s@@PBUentvars_s@@@Z		; ENT
PUBLIC	?VARS@@YAPAUentvars_s@@PAUedict_s@@@Z		; VARS
PUBLIC	?FStrEq@@YAHPBD0@Z				; FStrEq
PUBLIC	?Get@EHANDLE@@QAEPAUedict_s@@XZ			; EHANDLE::Get
PUBLIC	??BEHANDLE@@QAEHXZ				; EHANDLE::operator int
PUBLIC	??CEHANDLE@@QAEPAVCBaseEntity@@XZ		; EHANDLE::operator->
PUBLIC	?SetClassname@CBaseEntity@@QAEXPBD@Z		; CBaseEntity::SetClassname
PUBLIC	?Spawn@CBaseEntity@@UAEXXZ			; CBaseEntity::Spawn
PUBLIC	?Precache@CBaseEntity@@UAEXXZ			; CBaseEntity::Precache
PUBLIC	?KeyValue@CBaseEntity@@UAEXPAUKeyValueData_s@@@Z ; CBaseEntity::KeyValue
PUBLIC	?ObjectCaps@CBaseEntity@@UAEHXZ			; CBaseEntity::ObjectCaps
PUBLIC	?Activate@CBaseEntity@@UAEXXZ			; CBaseEntity::Activate
PUBLIC	?OnChangeLevel@CBaseEntity@@UAEXXZ		; CBaseEntity::OnChangeLevel
PUBLIC	?OnTeleport@CBaseEntity@@UAEXXZ			; CBaseEntity::OnTeleport
PUBLIC	?PortalSleep@CBaseEntity@@UAEXM@Z		; CBaseEntity::PortalSleep
PUBLIC	?StartMessage@CBaseEntity@@UAEXPAVCBasePlayer@@@Z ; CBaseEntity::StartMessage
PUBLIC	?GetPosition@CBaseEntity@@UAEMXZ		; CBaseEntity::GetPosition
PUBLIC	?OnChangeParent@CBaseEntity@@UAEXXZ		; CBaseEntity::OnChangeParent
PUBLIC	?OnClearParent@CBaseEntity@@UAEXXZ		; CBaseEntity::OnClearParent
PUBLIC	?OnRemove@CBaseEntity@@UAEXXZ			; CBaseEntity::OnRemove
PUBLIC	?Classify@CBaseEntity@@UAEHXZ			; CBaseEntity::Classify
PUBLIC	?DeathNotice@CBaseEntity@@UAEXPAUentvars_s@@@Z	; CBaseEntity::DeathNotice
PUBLIC	?IsRigidBody@CBaseEntity@@UAEHXZ		; CBaseEntity::IsRigidBody
PUBLIC	?GetState@CBaseEntity@@UAE?AW4STATE@@XZ		; CBaseEntity::GetState
PUBLIC	?GetState@CBaseEntity@@UAE?AW4STATE@@PAV1@@Z	; CBaseEntity::GetState
PUBLIC	?BloodColor@CBaseEntity@@UAEHXZ			; CBaseEntity::BloodColor
PUBLIC	?IsTriggered@CBaseEntity@@UAEHPAV1@@Z		; CBaseEntity::IsTriggered
PUBLIC	?MyMonsterPointer@CBaseEntity@@UAEPAVCBaseMonster@@XZ ; CBaseEntity::MyMonsterPointer
PUBLIC	?MySquadMonsterPointer@CBaseEntity@@UAEPAVCSquadMonster@@XZ ; CBaseEntity::MySquadMonsterPointer
PUBLIC	?GetToggleState@CBaseEntity@@UAEHXZ		; CBaseEntity::GetToggleState
PUBLIC	?AddPoints@CBaseEntity@@UAEXHH@Z		; CBaseEntity::AddPoints
PUBLIC	?AddPointsToTeam@CBaseEntity@@UAEXHH@Z		; CBaseEntity::AddPointsToTeam
PUBLIC	?AddPlayerItem@CBaseEntity@@UAEHPAVCBasePlayerItem@@@Z ; CBaseEntity::AddPlayerItem
PUBLIC	?RemovePlayerItem@CBaseEntity@@UAEHPAVCBasePlayerItem@@@Z ; CBaseEntity::RemovePlayerItem
PUBLIC	?GiveAmmo@CBaseEntity@@UAEHHPADH@Z		; CBaseEntity::GiveAmmo
PUBLIC	?GetDelay@CBaseEntity@@UAEMXZ			; CBaseEntity::GetDelay
PUBLIC	?IsMoving@CBaseEntity@@UAEHXZ			; CBaseEntity::IsMoving
PUBLIC	?OverrideReset@CBaseEntity@@UAEXXZ		; CBaseEntity::OverrideReset
PUBLIC	?TransferReset@CBaseEntity@@UAEXXZ		; CBaseEntity::TransferReset
PUBLIC	?SetToggleState@CBaseEntity@@UAEXH@Z		; CBaseEntity::SetToggleState
PUBLIC	?StartSneaking@CBaseEntity@@UAEXXZ		; CBaseEntity::StartSneaking
PUBLIC	?StopSneaking@CBaseEntity@@UAEXXZ		; CBaseEntity::StopSneaking
PUBLIC	?OnControls@CBaseEntity@@UAEHPAV1@@Z		; CBaseEntity::OnControls
PUBLIC	?IsSneaking@CBaseEntity@@UAEHXZ			; CBaseEntity::IsSneaking
PUBLIC	?IsAlive@CBaseEntity@@UAEHXZ			; CBaseEntity::IsAlive
PUBLIC	?IsBSPModel@CBaseEntity@@UAEHXZ			; CBaseEntity::IsBSPModel
PUBLIC	?IsCustomModel@CBaseEntity@@UAEHXZ		; CBaseEntity::IsCustomModel
PUBLIC	?ReflectGauss@CBaseEntity@@UAEHXZ		; CBaseEntity::ReflectGauss
PUBLIC	?HasTarget@CBaseEntity@@UAEHH@Z			; CBaseEntity::HasTarget
PUBLIC	?IsPlayer@CBaseEntity@@UAEHXZ			; CBaseEntity::IsPlayer
PUBLIC	?IsNetClient@CBaseEntity@@UAEHXZ		; CBaseEntity::IsNetClient
PUBLIC	?IsMonster@CBaseEntity@@UAEHXZ			; CBaseEntity::IsMonster
PUBLIC	?IsPushable@CBaseEntity@@UAEHXZ			; CBaseEntity::IsPushable
PUBLIC	?IsProjectile@CBaseEntity@@UAEHXZ		; CBaseEntity::IsProjectile
PUBLIC	?IsFuncScreen@CBaseEntity@@UAEHXZ		; CBaseEntity::IsFuncScreen
PUBLIC	?IsPortal@CBaseEntity@@UAEHXZ			; CBaseEntity::IsPortal
PUBLIC	?IsTank@CBaseEntity@@UAEHXZ			; CBaseEntity::IsTank
PUBLIC	?IsMover@CBaseEntity@@UAEHXZ			; CBaseEntity::IsMover
PUBLIC	?IsBreakable@CBaseEntity@@UAEHXZ		; CBaseEntity::IsBreakable
PUBLIC	?TeamID@CBaseEntity@@UAEPBDXZ			; CBaseEntity::TeamID
PUBLIC	?AddSpawnFlags@CBaseEntity@@UAEXH@Z		; CBaseEntity::AddSpawnFlags
PUBLIC	?HasSpawnFlags@CBaseEntity@@UBE_NH@Z		; CBaseEntity::HasSpawnFlags
PUBLIC	?SetFadeDistance@CBaseEntity@@UAEXH@Z		; CBaseEntity::SetFadeDistance
PUBLIC	?SetFlag@CBaseEntity@@UAEXH@Z			; CBaseEntity::SetFlag
PUBLIC	?HasFlag@CBaseEntity@@UBE_NH@Z			; CBaseEntity::HasFlag
PUBLIC	?RemoveFlag@CBaseEntity@@UAEXH@Z		; CBaseEntity::RemoveFlag
PUBLIC	?SetNullModel@CBaseEntity@@UAEXXZ		; CBaseEntity::SetNullModel
PUBLIC	?OnPickupObject@CBaseEntity@@UAEXXZ		; CBaseEntity::OnPickupObject
PUBLIC	?OnDropObject@CBaseEntity@@UAEXXZ		; CBaseEntity::OnDropObject
PUBLIC	?Think@CBaseEntity@@UAEXXZ			; CBaseEntity::Think
PUBLIC	?Use@CBaseEntity@@UAEXPAV1@0W4USE_TYPE@@M@Z	; CBaseEntity::Use
PUBLIC	?Touch@CBaseEntity@@UAEXPAV1@@Z			; CBaseEntity::Touch
PUBLIC	?Blocked@CBaseEntity@@UAEXPAV1@@Z		; CBaseEntity::Blocked
PUBLIC	?MoveDone@CBaseEntity@@UAEXXZ			; CBaseEntity::MoveDone
PUBLIC	??2CBaseEntity@@SAPAXIPAUentvars_s@@@Z		; CBaseEntity::operator new
PUBLIC	??3CBaseEntity@@SAXPAXPAUentvars_s@@@Z		; CBaseEntity::operator delete
PUBLIC	?Respawn@CBaseEntity@@UAEPAV1@XZ		; CBaseEntity::Respawn
PUBLIC	?UpdateOwner@CBaseEntity@@UAEXXZ		; CBaseEntity::UpdateOwner
PUBLIC	?FBecomeProne@CBaseEntity@@UAEHXZ		; CBaseEntity::FBecomeProne
PUBLIC	?edict@CBaseEntity@@QAEPAUedict_s@@XZ		; CBaseEntity::edict
PUBLIC	?Center@CBaseEntity@@UAE?AVVector@@XZ		; CBaseEntity::Center
PUBLIC	?EyePosition@CBaseEntity@@UAE?AVVector@@XZ	; CBaseEntity::EyePosition
PUBLIC	?EarPosition@CBaseEntity@@UAE?AVVector@@XZ	; CBaseEntity::EarPosition
PUBLIC	?BodyTarget@CBaseEntity@@UAE?AVVector@@ABV2@@Z	; CBaseEntity::BodyTarget
PUBLIC	?IsPointSized@CBaseEntity@@UBEHXZ		; CBaseEntity::IsPointSized
PUBLIC	?Illumination@CBaseEntity@@UAEHXZ		; CBaseEntity::Illumination
PUBLIC	??0CBaseEntity@@QAE@XZ				; CBaseEntity::CBaseEntity
PUBLIC	?GetState@CBaseDelay@@UAE?AW4STATE@@XZ		; CBaseDelay::GetState
PUBLIC	??0CBaseDelay@@QAE@XZ				; CBaseDelay::CBaseDelay
PUBLIC	?HandleAnimEvent@CBaseAnimating@@UAEXPAUMonsterEvent_t@@@Z ; CBaseAnimating::HandleAnimEvent
PUBLIC	??0CBaseAnimating@@QAE@XZ			; CBaseAnimating::CBaseAnimating
PUBLIC	?AddDuplicate@CBasePlayerItem@@UAEHPAV1@@Z	; CBasePlayerItem::AddDuplicate
PUBLIC	?GetItemInfo@CBasePlayerItem@@UAEHPAUItemInfo@@@Z ; CBasePlayerItem::GetItemInfo
PUBLIC	?CanDeploy@CBasePlayerItem@@UAEHXZ		; CBasePlayerItem::CanDeploy
PUBLIC	?Deploy@CBasePlayerItem@@UAEHXZ			; CBasePlayerItem::Deploy
PUBLIC	?CanHolster@CBasePlayerItem@@UAEHXZ		; CBasePlayerItem::CanHolster
PUBLIC	?UpdateItemInfo@CBasePlayerItem@@UAEXXZ		; CBasePlayerItem::UpdateItemInfo
PUBLIC	?ItemPreFrame@CBasePlayerItem@@UAEXXZ		; CBasePlayerItem::ItemPreFrame
PUBLIC	?ItemPostFrame@CBasePlayerItem@@UAEXXZ		; CBasePlayerItem::ItemPostFrame
PUBLIC	?PrimaryAmmoIndex@CBasePlayerItem@@UAEHXZ	; CBasePlayerItem::PrimaryAmmoIndex
PUBLIC	?SecondaryAmmoIndex@CBasePlayerItem@@UAEHXZ	; CBasePlayerItem::SecondaryAmmoIndex
PUBLIC	?UpdateClientData@CBasePlayerItem@@UAEHPAVCBasePlayer@@@Z ; CBasePlayerItem::UpdateClientData
PUBLIC	?GetWeaponPtr@CBasePlayerItem@@UAEPAV1@XZ	; CBasePlayerItem::GetWeaponPtr
PUBLIC	?iItemSlot@CBasePlayerItem@@UAEHXZ		; CBasePlayerItem::iItemSlot
PUBLIC	??0CBasePlayerItem@@QAE@XZ			; CBasePlayerItem::CBasePlayerItem
PUBLIC	?AddWeapon@CBasePlayerWeapon@@UAEHXZ		; CBasePlayerWeapon::AddWeapon
PUBLIC	?UpdateItemInfo@CBasePlayerWeapon@@UAEXXZ	; CBasePlayerWeapon::UpdateItemInfo
PUBLIC	?PrimaryAttack@CBasePlayerWeapon@@UAEXXZ	; CBasePlayerWeapon::PrimaryAttack
PUBLIC	?SecondaryAttack@CBasePlayerWeapon@@UAEXXZ	; CBasePlayerWeapon::SecondaryAttack
PUBLIC	?Reload@CBasePlayerWeapon@@UAEXXZ		; CBasePlayerWeapon::Reload
PUBLIC	?WeaponIdle@CBasePlayerWeapon@@UAEXXZ		; CBasePlayerWeapon::WeaponIdle
PUBLIC	?ShouldWeaponIdle@CBasePlayerWeapon@@UAEHXZ	; CBasePlayerWeapon::ShouldWeaponIdle
PUBLIC	?UseDecrement@CBasePlayerWeapon@@UAEHXZ		; CBasePlayerWeapon::UseDecrement
PUBLIC	?GetWeaponPtr@CBasePlayerWeapon@@UAEPAVCBasePlayerItem@@XZ ; CBasePlayerWeapon::GetWeaponPtr
PUBLIC	??0CBasePlayerWeapon@@QAE@XZ			; CBasePlayerWeapon::CBasePlayerWeapon
PUBLIC	?AddAmmo@CBasePlayerAmmo@@UAEHPAVCBaseEntity@@@Z ; CBasePlayerAmmo::AddAmmo
PUBLIC	??0CBasePlayerAmmo@@QAE@XZ			; CBasePlayerAmmo::CBasePlayerAmmo
PUBLIC	?Spawn@CPython@@UAEXXZ				; CPython::Spawn
PUBLIC	?Precache@CPython@@UAEXXZ			; CPython::Precache
PUBLIC	?iItemSlot@CPython@@UAEHXZ			; CPython::iItemSlot
PUBLIC	?GetItemInfo@CPython@@UAEHPAUItemInfo@@@Z	; CPython::GetItemInfo
PUBLIC	?AddToPlayer@CPython@@UAEHPAVCBasePlayer@@@Z	; CPython::AddToPlayer
PUBLIC	?PrimaryAttack@CPython@@UAEXXZ			; CPython::PrimaryAttack
PUBLIC	?Deploy@CPython@@UAEHXZ				; CPython::Deploy
PUBLIC	?Holster@CPython@@UAEXXZ			; CPython::Holster
PUBLIC	?Reload@CPython@@UAEXXZ				; CPython::Reload
PUBLIC	?WeaponIdle@CPython@@UAEXXZ			; CPython::WeaponIdle
PUBLIC	??0CPython@@QAE@XZ				; CPython::CPython
PUBLIC	??0?$CEntityFactory@VCPython@@@@QAE@PBD@Z	; CEntityFactory<CPython>::CEntityFactory<CPython>
PUBLIC	?Create@?$CEntityFactory@VCPython@@@@UAEPAVCBaseEntity@@PBDPAUentvars_s@@@Z ; CEntityFactory<CPython>::Create
PUBLIC	?Destroy@?$CEntityFactory@VCPython@@@@UAEXPAVCBaseEntity@@@Z ; CEntityFactory<CPython>::Destroy
PUBLIC	?GetEntitySize@?$CEntityFactory@VCPython@@@@UAEIXZ ; CEntityFactory<CPython>::GetEntitySize
PUBLIC	?Spawn@CPythonAmmo@@EAEXXZ			; CPythonAmmo::Spawn
PUBLIC	?Precache@CPythonAmmo@@EAEXXZ			; CPythonAmmo::Precache
PUBLIC	?AddAmmo@CPythonAmmo@@EAEHPAVCBaseEntity@@@Z	; CPythonAmmo::AddAmmo
PUBLIC	??0CPythonAmmo@@QAE@XZ				; CPythonAmmo::CPythonAmmo
PUBLIC	??0?$CEntityFactory@VCPythonAmmo@@@@QAE@PBD@Z	; CEntityFactory<CPythonAmmo>::CEntityFactory<CPythonAmmo>
PUBLIC	?Create@?$CEntityFactory@VCPythonAmmo@@@@UAEPAVCBaseEntity@@PBDPAUentvars_s@@@Z ; CEntityFactory<CPythonAmmo>::Create
PUBLIC	?Destroy@?$CEntityFactory@VCPythonAmmo@@@@UAEXPAVCBaseEntity@@@Z ; CEntityFactory<CPythonAmmo>::Destroy
PUBLIC	?GetEntitySize@?$CEntityFactory@VCPythonAmmo@@@@UAEIXZ ; CEntityFactory<CPythonAmmo>::GetEntitySize
PUBLIC	??$GetClassPtr@VCPythonAmmo@@@@YAPAVCPythonAmmo@@PAV0@PBD@Z ; GetClassPtr<CPythonAmmo>
PUBLIC	??$GetClassPtr@VCPython@@@@YAPAVCPython@@PAV0@PBD@Z ; GetClassPtr<CPython>
PUBLIC	??_C@_00CNPNBAHC@?$AA@				; `string'
PUBLIC	??_7IEntityFactory@@6B@				; IEntityFactory::`vftable'
PUBLIC	??_7CBaseEntity@@6B@				; CBaseEntity::`vftable'
PUBLIC	??_C@_06MLKDMCBD@parent?$AA@			; `string'
PUBLIC	??_C@_08JJJAOBDI@movewith?$AA@			; `string'
PUBLIC	??_C@_0M@EAELDHJO@parentflags?$AA@		; `string'
PUBLIC	??_C@_05IAKJCFIM@style?$AA@			; `string'
PUBLIC	??_C@_0L@IKCANML@reflection?$AA@		; `string'
PUBLIC	??_C@_0N@JILDNHAP@vlight_cache?$AA@		; `string'
PUBLIC	??_C@_0L@JIJDCONP@customname?$AA@		; `string'
PUBLIC	??_7CBaseDelay@@6B@				; CBaseDelay::`vftable'
PUBLIC	??_7CBaseAnimating@@6B@				; CBaseAnimating::`vftable'
PUBLIC	??_C@_0BB@EMJBJDBM@sprites?1null?4spr?$AA@	; `string'
PUBLIC	??_7CBasePlayerItem@@6B@			; CBasePlayerItem::`vftable'
PUBLIC	??_7CBasePlayerWeapon@@6B@			; CBasePlayerWeapon::`vftable'
PUBLIC	??_7CBasePlayerAmmo@@6B@			; CBasePlayerAmmo::`vftable'
PUBLIC	??_7CPython@@6B@				; CPython::`vftable'
PUBLIC	??_7?$CEntityFactory@VCPython@@@@6B@		; CEntityFactory<CPython>::`vftable'
PUBLIC	??_C@_0O@ENNELPDA@weapon_python?$AA@		; `string'
PUBLIC	??_C@_0L@DGJNBIBM@weapon_357?$AA@		; `string'
PUBLIC	??_C@_03IOICPAOD@357?$AA@			; `string'
PUBLIC	??_C@_0BB@JCBGJKED@models?1w_357?4mdl?$AA@	; `string'
PUBLIC	??_C@_0BB@HNNEPBHN@models?1v_357?4mdl?$AA@	; `string'
PUBLIC	??_C@_0BB@HAMKIBDK@models?1p_357?4mdl?$AA@	; `string'
PUBLIC	??_C@_0BI@IPPCMDMI@models?1w_357ammobox?4mdl?$AA@ ; `string'
PUBLIC	??_C@_0BD@BADMCPNB@items?19mmclip1?4wav?$AA@	; `string'
PUBLIC	??_C@_0BI@DOMDMLDK@weapons?1357_reload1?4wav?$AA@ ; `string'
PUBLIC	??_C@_0BG@FDJOBCGH@weapons?1357_cock1?4wav?$AA@	; `string'
PUBLIC	??_C@_0BJ@KHPOFAGN@weapons?1deagle_shot1?4wav?$AA@ ; `string'
PUBLIC	??_C@_0BL@CGAKJPNA@weapons?1deagle_shot1_d?4wav?$AA@ ; `string'
PUBLIC	??_C@_0BB@JCOADJDD@models?1shell?4mdl?$AA@	; `string'
PUBLIC	??_C@_06OIODPPHE@python?$AA@			; `string'
PUBLIC	??_C@_08MNDBFPDE@?9attack?6?$AA@		; `string'
PUBLIC	??_C@_09KNGNPJEJ@?$CBHEV_AMO0?$AA@		; `string'
PUBLIC	??_C@_08PEMEPKH@?9reload?6?$AA@			; `string'
PUBLIC	??_7CPythonAmmo@@6B@				; CPythonAmmo::`vftable'
PUBLIC	??_7?$CEntityFactory@VCPythonAmmo@@@@6B@	; CEntityFactory<CPythonAmmo>::`vftable'
PUBLIC	??_C@_08OALJNDGM@ammo_357?$AA@			; `string'
PUBLIC	??_R4CBaseEntity@@6B@				; CBaseEntity::`RTTI Complete Object Locator'
PUBLIC	??_R0?AVCBaseEntity@@@8				; CBaseEntity `RTTI Type Descriptor'
PUBLIC	??_R3CBaseEntity@@8				; CBaseEntity::`RTTI Class Hierarchy Descriptor'
PUBLIC	??_R2CBaseEntity@@8				; CBaseEntity::`RTTI Base Class Array'
PUBLIC	??_R1A@?0A@EA@CBaseEntity@@8			; CBaseEntity::`RTTI Base Class Descriptor at (0,-1,0,64)'
PUBLIC	??_R4IEntityFactory@@6B@			; IEntityFactory::`RTTI Complete Object Locator'
PUBLIC	??_R0?AVIEntityFactory@@@8			; IEntityFactory `RTTI Type Descriptor'
PUBLIC	??_R3IEntityFactory@@8				; IEntityFactory::`RTTI Class Hierarchy Descriptor'
PUBLIC	??_R2IEntityFactory@@8				; IEntityFactory::`RTTI Base Class Array'
PUBLIC	??_R1A@?0A@EA@IEntityFactory@@8			; IEntityFactory::`RTTI Base Class Descriptor at (0,-1,0,64)'
PUBLIC	??_R4CBasePlayerItem@@6B@			; CBasePlayerItem::`RTTI Complete Object Locator'
PUBLIC	??_R0?AVCBasePlayerItem@@@8			; CBasePlayerItem `RTTI Type Descriptor'
PUBLIC	??_R3CBasePlayerItem@@8				; CBasePlayerItem::`RTTI Class Hierarchy Descriptor'
PUBLIC	??_R2CBasePlayerItem@@8				; CBasePlayerItem::`RTTI Base Class Array'
PUBLIC	??_R1A@?0A@EA@CBasePlayerItem@@8		; CBasePlayerItem::`RTTI Base Class Descriptor at (0,-1,0,64)'
PUBLIC	??_R1A@?0A@EA@CBaseAnimating@@8			; CBaseAnimating::`RTTI Base Class Descriptor at (0,-1,0,64)'
PUBLIC	??_R0?AVCBaseAnimating@@@8			; CBaseAnimating `RTTI Type Descriptor'
PUBLIC	??_R3CBaseAnimating@@8				; CBaseAnimating::`RTTI Class Hierarchy Descriptor'
PUBLIC	??_R2CBaseAnimating@@8				; CBaseAnimating::`RTTI Base Class Array'
PUBLIC	??_R1A@?0A@EA@CBaseDelay@@8			; CBaseDelay::`RTTI Base Class Descriptor at (0,-1,0,64)'
PUBLIC	??_R0?AVCBaseDelay@@@8				; CBaseDelay `RTTI Type Descriptor'
PUBLIC	??_R3CBaseDelay@@8				; CBaseDelay::`RTTI Class Hierarchy Descriptor'
PUBLIC	??_R2CBaseDelay@@8				; CBaseDelay::`RTTI Base Class Array'
PUBLIC	??_R4CBaseDelay@@6B@				; CBaseDelay::`RTTI Complete Object Locator'
PUBLIC	??_R4CBaseAnimating@@6B@			; CBaseAnimating::`RTTI Complete Object Locator'
PUBLIC	??_R4CBasePlayerWeapon@@6B@			; CBasePlayerWeapon::`RTTI Complete Object Locator'
PUBLIC	??_R0?AVCBasePlayerWeapon@@@8			; CBasePlayerWeapon `RTTI Type Descriptor'
PUBLIC	??_R3CBasePlayerWeapon@@8			; CBasePlayerWeapon::`RTTI Class Hierarchy Descriptor'
PUBLIC	??_R2CBasePlayerWeapon@@8			; CBasePlayerWeapon::`RTTI Base Class Array'
PUBLIC	??_R1A@?0A@EA@CBasePlayerWeapon@@8		; CBasePlayerWeapon::`RTTI Base Class Descriptor at (0,-1,0,64)'
PUBLIC	??_R4CBasePlayerAmmo@@6B@			; CBasePlayerAmmo::`RTTI Complete Object Locator'
PUBLIC	??_R0?AVCBasePlayerAmmo@@@8			; CBasePlayerAmmo `RTTI Type Descriptor'
PUBLIC	??_R3CBasePlayerAmmo@@8				; CBasePlayerAmmo::`RTTI Class Hierarchy Descriptor'
PUBLIC	??_R2CBasePlayerAmmo@@8				; CBasePlayerAmmo::`RTTI Base Class Array'
PUBLIC	??_R1A@?0A@EA@CBasePlayerAmmo@@8		; CBasePlayerAmmo::`RTTI Base Class Descriptor at (0,-1,0,64)'
PUBLIC	??_R4CPython@@6B@				; CPython::`RTTI Complete Object Locator'
PUBLIC	??_R0?AVCPython@@@8				; CPython `RTTI Type Descriptor'
PUBLIC	??_R3CPython@@8					; CPython::`RTTI Class Hierarchy Descriptor'
PUBLIC	??_R2CPython@@8					; CPython::`RTTI Base Class Array'
PUBLIC	??_R1A@?0A@EA@CPython@@8			; CPython::`RTTI Base Class Descriptor at (0,-1,0,64)'
PUBLIC	??_R4?$CEntityFactory@VCPython@@@@6B@		; CEntityFactory<CPython>::`RTTI Complete Object Locator'
PUBLIC	??_R0?AV?$CEntityFactory@VCPython@@@@@8		; CEntityFactory<CPython> `RTTI Type Descriptor'
PUBLIC	??_R3?$CEntityFactory@VCPython@@@@8		; CEntityFactory<CPython>::`RTTI Class Hierarchy Descriptor'
PUBLIC	??_R2?$CEntityFactory@VCPython@@@@8		; CEntityFactory<CPython>::`RTTI Base Class Array'
PUBLIC	??_R1A@?0A@EA@?$CEntityFactory@VCPython@@@@8	; CEntityFactory<CPython>::`RTTI Base Class Descriptor at (0,-1,0,64)'
PUBLIC	??_R4CPythonAmmo@@6B@				; CPythonAmmo::`RTTI Complete Object Locator'
PUBLIC	??_R0?AVCPythonAmmo@@@8				; CPythonAmmo `RTTI Type Descriptor'
PUBLIC	??_R3CPythonAmmo@@8				; CPythonAmmo::`RTTI Class Hierarchy Descriptor'
PUBLIC	??_R2CPythonAmmo@@8				; CPythonAmmo::`RTTI Base Class Array'
PUBLIC	??_R1A@?0A@EA@CPythonAmmo@@8			; CPythonAmmo::`RTTI Base Class Descriptor at (0,-1,0,64)'
PUBLIC	??_R4?$CEntityFactory@VCPythonAmmo@@@@6B@	; CEntityFactory<CPythonAmmo>::`RTTI Complete Object Locator'
PUBLIC	??_R0?AV?$CEntityFactory@VCPythonAmmo@@@@@8	; CEntityFactory<CPythonAmmo> `RTTI Type Descriptor'
PUBLIC	??_R3?$CEntityFactory@VCPythonAmmo@@@@8		; CEntityFactory<CPythonAmmo>::`RTTI Class Hierarchy Descriptor'
PUBLIC	??_R2?$CEntityFactory@VCPythonAmmo@@@@8		; CEntityFactory<CPythonAmmo>::`RTTI Base Class Array'
PUBLIC	??_R1A@?0A@EA@?$CEntityFactory@VCPythonAmmo@@@@8 ; CEntityFactory<CPythonAmmo>::`RTTI Base Class Descriptor at (0,-1,0,64)'
PUBLIC	__real@00000000
PUBLIC	__real@3c0f0846
PUBLIC	__real@3e31d0d4
PUBLIC	__real@3f000000
PUBLIC	__real@3f800000
PUBLIC	__real@3fc3333333333333
PUBLIC	__real@3fe0000000000000
PUBLIC	__real@3fe66666
PUBLIC	__real@3fe6666666666666
PUBLIC	__real@3fe8000000000000
PUBLIC	__real@3feccccccccccccd
PUBLIC	__real@3ff0000000000000
PUBLIC	__real@40000000
PUBLIC	__real@4000000000000000
PUBLIC	__real@4002aaaaaaaaaaab
PUBLIC	__real@4007777777777777
PUBLIC	__real@4014000000000000
PUBLIC	__real@4016aaaaaaaaaaab
PUBLIC	__real@40a00000
PUBLIC	__real@40c00000
PUBLIC	__real@41200000
PUBLIC	__real@41700000
PUBLIC	__real@41c80000
PUBLIC	__real@42000000
PUBLIC	__real@428c0000
PUBLIC	__real@42b40000
PUBLIC	__real@42fa0000
PUBLIC	__real@432f0000
PUBLIC	__real@46000000
PUBLIC	__real@c0000000
PUBLIC	__real@c1400000
EXTRN	__purecall:PROC
EXTRN	_atoi:PROC
EXTRN	??0matrix4x4@@QAE@XZ:PROC			; matrix4x4::matrix4x4
EXTRN	?Q_atoi@@YAHPBD@Z:PROC				; Q_atoi
EXTRN	?Q_strncmp@@YAHPBD0H@Z:PROC			; Q_strncmp
EXTRN	?UTIL_Remove@@YAXPAVCBaseEntity@@@Z:PROC	; UTIL_Remove
EXTRN	?EntityFactoryDictionary@@YAPAVIEntityFactoryDictionary@@XZ:PROC ; EntityFactoryDictionary
EXTRN	?DBG_EntOfVars@@YAPAUedict_s@@PBUentvars_s@@@Z:PROC ; DBG_EntOfVars
EXTRN	?UTIL_MakeVectors@@YAXABVVector@@@Z:PROC	; UTIL_MakeVectors
EXTRN	?UTIL_GetModelType@@YA?AW4modtype_t@@H@Z:PROC	; UTIL_GetModelType
EXTRN	??0CMeshDesc@@QAE@XZ:PROC			; CMeshDesc::CMeshDesc
EXTRN	??1CMeshDesc@@QAE@XZ:PROC			; CMeshDesc::~CMeshDesc
EXTRN	?GetDataDescMap@CBaseEntity@@UAEPAUdatamap_s@@XZ:PROC ; CBaseEntity::GetDataDescMap
EXTRN	?GetAbsOrigin@CBaseEntity@@QBEABVVector@@XZ:PROC ; CBaseEntity::GetAbsOrigin
EXTRN	?GetAbsAngles@CBaseEntity@@QBEABVVector@@XZ:PROC ; CBaseEntity::GetAbsAngles
EXTRN	?GetAbsVelocity@CBaseEntity@@QBEABVVector@@XZ:PROC ; CBaseEntity::GetAbsVelocity
EXTRN	?Save@CBaseEntity@@UAEHAAVCSave@@@Z:PROC	; CBaseEntity::Save
EXTRN	?Restore@CBaseEntity@@UAEHAAVCRestore@@@Z:PROC	; CBaseEntity::Restore
EXTRN	?SetObjectCollisionBox@CBaseEntity@@UAEXXZ:PROC	; CBaseEntity::SetObjectCollisionBox
EXTRN	?SetNextThink@CBaseEntity@@UAEXM@Z:PROC		; CBaseEntity::SetNextThink
EXTRN	?TraceAttack@CBaseEntity@@UAEXPAUentvars_s@@MVVector@@PAUgametrace_s@@H@Z:PROC ; CBaseEntity::TraceAttack
EXTRN	?TakeDamage@CBaseEntity@@UAEHPAUentvars_s@@0MH@Z:PROC ; CBaseEntity::TakeDamage
EXTRN	?TakeHealth@CBaseEntity@@UAEHMH@Z:PROC		; CBaseEntity::TakeHealth
EXTRN	?TakeArmor@CBaseEntity@@UAEHMH@Z:PROC		; CBaseEntity::TakeArmor
EXTRN	?Killed@CBaseEntity@@UAEXPAUentvars_s@@H@Z:PROC	; CBaseEntity::Killed
EXTRN	?TraceBleed@CBaseEntity@@UAEXMVVector@@PAUgametrace_s@@H@Z:PROC ; CBaseEntity::TraceBleed
EXTRN	?DamageDecal@CBaseEntity@@UAEHH@Z:PROC		; CBaseEntity::DamageDecal
EXTRN	?IsInWorld@CBaseEntity@@UAEHH@Z:PROC		; CBaseEntity::IsInWorld
EXTRN	?GetNextTarget@CBaseEntity@@UAEPAV1@XZ:PROC	; CBaseEntity::GetNextTarget
EXTRN	?FireBullets@CBaseEntity@@QAEXKVVector@@00MHHMPAUentvars_s@@@Z:PROC ; CBaseEntity::FireBullets
EXTRN	?FVisible@CBaseEntity@@UAEHPAV1@@Z:PROC		; CBaseEntity::FVisible
EXTRN	?FVisible@CBaseEntity@@UAEHABVVector@@@Z:PROC	; CBaseEntity::FVisible
EXTRN	?ShouldCollide@CBaseEntity@@UAEHPAV1@@Z:PROC	; CBaseEntity::ShouldCollide
EXTRN	?ClearEffects@CBaseEntity@@UAEXXZ:PROC		; CBaseEntity::ClearEffects
EXTRN	?KeyValue@CBaseDelay@@UAEXPAUKeyValueData_s@@@Z:PROC ; CBaseDelay::KeyValue
EXTRN	?GetDataDescMap@CBaseDelay@@UAEPAUdatamap_s@@XZ:PROC ; CBaseDelay::GetDataDescMap
EXTRN	?GetDataDescMap@CBaseAnimating@@UAEPAUdatamap_s@@XZ:PROC ; CBaseAnimating::GetDataDescMap
EXTRN	?PlayPickupSound@@YAXPAVCBaseEntity@@H@Z:PROC	; PlayPickupSound
EXTRN	?MakeWeaponShake@@YAXPAVCBaseEntity@@HH@Z:PROC	; MakeWeaponShake
EXTRN	?PlayClientSound@@YAXPAVCBaseEntity@@HHHVVector@@@Z:PROC ; PlayClientSound
EXTRN	?SetObjectCollisionBox@CBasePlayerItem@@UAEXXZ:PROC ; CBasePlayerItem::SetObjectCollisionBox
EXTRN	?GetDataDescMap@CBasePlayerItem@@UAEPAUdatamap_s@@XZ:PROC ; CBasePlayerItem::GetDataDescMap
EXTRN	?AddToPlayer@CBasePlayerItem@@UAEHPAVCBasePlayer@@@Z:PROC ; CBasePlayerItem::AddToPlayer
EXTRN	?Respawn@CBasePlayerItem@@UAEPAVCBaseEntity@@XZ:PROC ; CBasePlayerItem::Respawn
EXTRN	?FallInit@CBasePlayerItem@@QAEXXZ:PROC		; CBasePlayerItem::FallInit
EXTRN	?Holster@CBasePlayerItem@@UAEXXZ:PROC		; CBasePlayerItem::Holster
EXTRN	?Drop@CBasePlayerItem@@UAEXXZ:PROC		; CBasePlayerItem::Drop
EXTRN	?Kill@CBasePlayerItem@@UAEXXZ:PROC		; CBasePlayerItem::Kill
EXTRN	?AttachToPlayer@CBasePlayerItem@@UAEXPAVCBasePlayer@@@Z:PROC ; CBasePlayerItem::AttachToPlayer
EXTRN	?GetDataDescMap@CBasePlayerWeapon@@UAEPAUdatamap_s@@XZ:PROC ; CBasePlayerWeapon::GetDataDescMap
EXTRN	?AddToPlayer@CBasePlayerWeapon@@UAEHPAVCBasePlayer@@@Z:PROC ; CBasePlayerWeapon::AddToPlayer
EXTRN	?AddDuplicate@CBasePlayerWeapon@@UAEHPAVCBasePlayerItem@@@Z:PROC ; CBasePlayerWeapon::AddDuplicate
EXTRN	?ExtractAmmo@CBasePlayerWeapon@@UAEHPAV1@@Z:PROC ; CBasePlayerWeapon::ExtractAmmo
EXTRN	?ExtractClipAmmo@CBasePlayerWeapon@@UAEHPAV1@@Z:PROC ; CBasePlayerWeapon::ExtractClipAmmo
EXTRN	?PlayEmptySound@CBasePlayerWeapon@@UAEHXZ:PROC	; CBasePlayerWeapon::PlayEmptySound
EXTRN	?ResetEmptySound@CBasePlayerWeapon@@UAEXXZ:PROC	; CBasePlayerWeapon::ResetEmptySound
EXTRN	?SendWeaponAnim@CBasePlayerWeapon@@UAEXHHH@Z:PROC ; CBasePlayerWeapon::SendWeaponAnim
EXTRN	?CanDeploy@CBasePlayerWeapon@@UAEHXZ:PROC	; CBasePlayerWeapon::CanDeploy
EXTRN	?IsUseable@CBasePlayerWeapon@@UAEHXZ:PROC	; CBasePlayerWeapon::IsUseable
EXTRN	?DefaultDeploy@CBasePlayerWeapon@@QAEHPAD0H0HH@Z:PROC ; CBasePlayerWeapon::DefaultDeploy
EXTRN	?DefaultReload@CBasePlayerWeapon@@QAEHHHMH@Z:PROC ; CBasePlayerWeapon::DefaultReload
EXTRN	?ItemPostFrame@CBasePlayerWeapon@@UAEXXZ:PROC	; CBasePlayerWeapon::ItemPostFrame
EXTRN	?UpdateClientData@CBasePlayerWeapon@@UAEHPAVCBasePlayer@@@Z:PROC ; CBasePlayerWeapon::UpdateClientData
EXTRN	?RetireWeapon@CBasePlayerWeapon@@UAEXXZ:PROC	; CBasePlayerWeapon::RetireWeapon
EXTRN	?Holster@CBasePlayerWeapon@@UAEXXZ:PROC		; CBasePlayerWeapon::Holster
EXTRN	?LowAmmoMsg@CBasePlayerWeapon@@UAEXPAVCBasePlayer@@@Z:PROC ; CBasePlayerWeapon::LowAmmoMsg
EXTRN	?PrimaryAmmoIndex@CBasePlayerWeapon@@UAEHXZ:PROC ; CBasePlayerWeapon::PrimaryAmmoIndex
EXTRN	?SecondaryAmmoIndex@CBasePlayerWeapon@@UAEHXZ:PROC ; CBasePlayerWeapon::SecondaryAmmoIndex
EXTRN	?Spawn@CBasePlayerAmmo@@UAEXXZ:PROC		; CBasePlayerAmmo::Spawn
EXTRN	?Respawn@CBasePlayerAmmo@@UAEPAVCBaseEntity@@XZ:PROC ; CBasePlayerAmmo::Respawn
EXTRN	?GetDataDescMap@CBasePlayerAmmo@@UAEPAUdatamap_s@@XZ:PROC ; CBasePlayerAmmo::GetDataDescMap
EXTRN	?EjectBrass@@YAXABVVector@@0MHH@Z:PROC		; EjectBrass
EXTRN	?SetAnimation@CBasePlayer@@QAEXW4PLAYER_ANIM@@@Z:PROC ; CBasePlayer::SetAnimation
EXTRN	?SetSuitUpdate@CBasePlayer@@QAEXPADHH@Z:PROC	; CBasePlayer::SetSuitUpdate
EXTRN	?GetAutoaimVector@CBasePlayer@@QAE?AVVector@@M@Z:PROC ; CBasePlayer::GetAutoaimVector
EXTRN	?SendAchievementStatToClient@CBasePlayer@@QAEXHHH@Z:PROC ; CBasePlayer::SendAchievementStatToClient
EXTRN	?FireLoudWeaponRestrictionEntity@CBasePlayer@@QAEXXZ:PROC ; CBasePlayer::FireLoudWeaponRestrictionEntity
EXTRN	@__security_check_cookie@4:PROC
EXTRN	___CxxFrameHandler3:PROC
EXTRN	?g_vecZero@@3VVector@@B:BYTE			; g_vecZero
EXTRN	?g_engfuncs@@3Uenginefuncs_s@@A:BYTE		; g_engfuncs
EXTRN	??_7type_info@@6B@:QWORD			; type_info::`vftable'
EXTRN	?gpGlobals@@3PAUglobalvars_t@@A:DWORD		; gpGlobals
EXTRN	?gmsgWeapPickup@@3HA:DWORD			; gmsgWeapPickup
EXTRN	___security_cookie:DWORD
EXTRN	__fltused:DWORD
_BSS	SEGMENT
?weapon_python@@3V?$CEntityFactory@VCPython@@@@A DD 01H DUP (?) ; weapon_python
?weapon_357@@3V?$CEntityFactory@VCPython@@@@A DD 01H DUP (?) ; weapon_357
?ammo_357@@3V?$CEntityFactory@VCPythonAmmo@@@@A DD 01H DUP (?) ; ammo_357
_BSS	ENDS
CRT$XCU	SEGMENT
?weapon_python$initializer$@@3P6AXXZA DD FLAT:??__Eweapon_python@@YAXXZ ; weapon_python$initializer$
CRT$XCU	ENDS
;	COMDAT __real@c1400000
CONST	SEGMENT
__real@c1400000 DD 0c1400000r			; -12
CONST	ENDS
;	COMDAT __real@c0000000
CONST	SEGMENT
__real@c0000000 DD 0c0000000r			; -2
CONST	ENDS
;	COMDAT __real@46000000
CONST	SEGMENT
__real@46000000 DD 046000000r			; 8192
CONST	ENDS
;	COMDAT __real@432f0000
CONST	SEGMENT
__real@432f0000 DD 0432f0000r			; 175
CONST	ENDS
;	COMDAT __real@42fa0000
CONST	SEGMENT
__real@42fa0000 DD 042fa0000r			; 125
CONST	ENDS
;	COMDAT __real@42b40000
CONST	SEGMENT
__real@42b40000 DD 042b40000r			; 90
CONST	ENDS
;	COMDAT __real@428c0000
CONST	SEGMENT
__real@428c0000 DD 0428c0000r			; 70
CONST	ENDS
;	COMDAT __real@42000000
CONST	SEGMENT
__real@42000000 DD 042000000r			; 32
CONST	ENDS
;	COMDAT __real@41c80000
CONST	SEGMENT
__real@41c80000 DD 041c80000r			; 25
CONST	ENDS
;	COMDAT __real@41700000
CONST	SEGMENT
__real@41700000 DD 041700000r			; 15
CONST	ENDS
;	COMDAT __real@41200000
CONST	SEGMENT
__real@41200000 DD 041200000r			; 10
CONST	ENDS
;	COMDAT __real@40c00000
CONST	SEGMENT
__real@40c00000 DD 040c00000r			; 6
CONST	ENDS
;	COMDAT __real@40a00000
CONST	SEGMENT
__real@40a00000 DD 040a00000r			; 5
CONST	ENDS
;	COMDAT __real@4016aaaaaaaaaaab
CONST	SEGMENT
__real@4016aaaaaaaaaaab DQ 04016aaaaaaaaaaabr	; 5.66667
CONST	ENDS
;	COMDAT __real@4014000000000000
CONST	SEGMENT
__real@4014000000000000 DQ 04014000000000000r	; 5
CONST	ENDS
;	COMDAT __real@4007777777777777
CONST	SEGMENT
__real@4007777777777777 DQ 04007777777777777r	; 2.93333
CONST	ENDS
;	COMDAT __real@4002aaaaaaaaaaab
CONST	SEGMENT
__real@4002aaaaaaaaaaab DQ 04002aaaaaaaaaaabr	; 2.33333
CONST	ENDS
;	COMDAT __real@4000000000000000
CONST	SEGMENT
__real@4000000000000000 DQ 04000000000000000r	; 2
CONST	ENDS
;	COMDAT __real@40000000
CONST	SEGMENT
__real@40000000 DD 040000000r			; 2
CONST	ENDS
;	COMDAT __real@3ff0000000000000
CONST	SEGMENT
__real@3ff0000000000000 DQ 03ff0000000000000r	; 1
CONST	ENDS
;	COMDAT __real@3feccccccccccccd
CONST	SEGMENT
__real@3feccccccccccccd DQ 03feccccccccccccdr	; 0.9
CONST	ENDS
;	COMDAT __real@3fe8000000000000
CONST	SEGMENT
__real@3fe8000000000000 DQ 03fe8000000000000r	; 0.75
CONST	ENDS
;	COMDAT __real@3fe6666666666666
CONST	SEGMENT
__real@3fe6666666666666 DQ 03fe6666666666666r	; 0.7
CONST	ENDS
;	COMDAT __real@3fe66666
CONST	SEGMENT
__real@3fe66666 DD 03fe66666r			; 1.8
CONST	ENDS
;	COMDAT __real@3fe0000000000000
CONST	SEGMENT
__real@3fe0000000000000 DQ 03fe0000000000000r	; 0.5
CONST	ENDS
;	COMDAT __real@3fc3333333333333
CONST	SEGMENT
__real@3fc3333333333333 DQ 03fc3333333333333r	; 0.15
CONST	ENDS
;	COMDAT __real@3f800000
CONST	SEGMENT
__real@3f800000 DD 03f800000r			; 1
CONST	ENDS
;	COMDAT __real@3f000000
CONST	SEGMENT
__real@3f000000 DD 03f000000r			; 0.5
CONST	ENDS
;	COMDAT __real@3e31d0d4
CONST	SEGMENT
__real@3e31d0d4 DD 03e31d0d4r			; 0.173648
CONST	ENDS
;	COMDAT __real@3c0f0846
CONST	SEGMENT
__real@3c0f0846 DD 03c0f0846r			; 0.00873
CONST	ENDS
;	COMDAT __real@00000000
CONST	SEGMENT
__real@00000000 DD 000000000r			; 0
CONST	ENDS
;	COMDAT ??_R1A@?0A@EA@?$CEntityFactory@VCPythonAmmo@@@@8
rdata$r	SEGMENT
??_R1A@?0A@EA@?$CEntityFactory@VCPythonAmmo@@@@8 DD FLAT:??_R0?AV?$CEntityFactory@VCPythonAmmo@@@@@8 ; CEntityFactory<CPythonAmmo>::`RTTI Base Class Descriptor at (0,-1,0,64)'
	DD	01H
	DD	00H
	DD	0ffffffffH
	DD	00H
	DD	040H
	DD	FLAT:??_R3?$CEntityFactory@VCPythonAmmo@@@@8
rdata$r	ENDS
;	COMDAT ??_R2?$CEntityFactory@VCPythonAmmo@@@@8
rdata$r	SEGMENT
??_R2?$CEntityFactory@VCPythonAmmo@@@@8 DD FLAT:??_R1A@?0A@EA@?$CEntityFactory@VCPythonAmmo@@@@8 ; CEntityFactory<CPythonAmmo>::`RTTI Base Class Array'
	DD	FLAT:??_R1A@?0A@EA@IEntityFactory@@8
rdata$r	ENDS
;	COMDAT ??_R3?$CEntityFactory@VCPythonAmmo@@@@8
rdata$r	SEGMENT
??_R3?$CEntityFactory@VCPythonAmmo@@@@8 DD 00H		; CEntityFactory<CPythonAmmo>::`RTTI Class Hierarchy Descriptor'
	DD	00H
	DD	02H
	DD	FLAT:??_R2?$CEntityFactory@VCPythonAmmo@@@@8
rdata$r	ENDS
;	COMDAT ??_R0?AV?$CEntityFactory@VCPythonAmmo@@@@@8
data$r	SEGMENT
??_R0?AV?$CEntityFactory@VCPythonAmmo@@@@@8 DD FLAT:??_7type_info@@6B@ ; CEntityFactory<CPythonAmmo> `RTTI Type Descriptor'
	DD	00H
	DB	'.?AV?$CEntityFactory@VCPythonAmmo@@@@', 00H
data$r	ENDS
;	COMDAT ??_R4?$CEntityFactory@VCPythonAmmo@@@@6B@
rdata$r	SEGMENT
??_R4?$CEntityFactory@VCPythonAmmo@@@@6B@ DD 00H	; CEntityFactory<CPythonAmmo>::`RTTI Complete Object Locator'
	DD	00H
	DD	00H
	DD	FLAT:??_R0?AV?$CEntityFactory@VCPythonAmmo@@@@@8
	DD	FLAT:??_R3?$CEntityFactory@VCPythonAmmo@@@@8
rdata$r	ENDS
;	COMDAT ??_R1A@?0A@EA@CPythonAmmo@@8
rdata$r	SEGMENT
??_R1A@?0A@EA@CPythonAmmo@@8 DD FLAT:??_R0?AVCPythonAmmo@@@8 ; CPythonAmmo::`RTTI Base Class Descriptor at (0,-1,0,64)'
	DD	02H
	DD	00H
	DD	0ffffffffH
	DD	00H
	DD	040H
	DD	FLAT:??_R3CPythonAmmo@@8
rdata$r	ENDS
;	COMDAT ??_R2CPythonAmmo@@8
rdata$r	SEGMENT
??_R2CPythonAmmo@@8 DD FLAT:??_R1A@?0A@EA@CPythonAmmo@@8 ; CPythonAmmo::`RTTI Base Class Array'
	DD	FLAT:??_R1A@?0A@EA@CBasePlayerAmmo@@8
	DD	FLAT:??_R1A@?0A@EA@CBaseEntity@@8
rdata$r	ENDS
;	COMDAT ??_R3CPythonAmmo@@8
rdata$r	SEGMENT
??_R3CPythonAmmo@@8 DD 00H				; CPythonAmmo::`RTTI Class Hierarchy Descriptor'
	DD	00H
	DD	03H
	DD	FLAT:??_R2CPythonAmmo@@8
rdata$r	ENDS
;	COMDAT ??_R0?AVCPythonAmmo@@@8
data$r	SEGMENT
??_R0?AVCPythonAmmo@@@8 DD FLAT:??_7type_info@@6B@	; CPythonAmmo `RTTI Type Descriptor'
	DD	00H
	DB	'.?AVCPythonAmmo@@', 00H
data$r	ENDS
;	COMDAT ??_R4CPythonAmmo@@6B@
rdata$r	SEGMENT
??_R4CPythonAmmo@@6B@ DD 00H				; CPythonAmmo::`RTTI Complete Object Locator'
	DD	00H
	DD	00H
	DD	FLAT:??_R0?AVCPythonAmmo@@@8
	DD	FLAT:??_R3CPythonAmmo@@8
rdata$r	ENDS
;	COMDAT ??_R1A@?0A@EA@?$CEntityFactory@VCPython@@@@8
rdata$r	SEGMENT
??_R1A@?0A@EA@?$CEntityFactory@VCPython@@@@8 DD FLAT:??_R0?AV?$CEntityFactory@VCPython@@@@@8 ; CEntityFactory<CPython>::`RTTI Base Class Descriptor at (0,-1,0,64)'
	DD	01H
	DD	00H
	DD	0ffffffffH
	DD	00H
	DD	040H
	DD	FLAT:??_R3?$CEntityFactory@VCPython@@@@8
rdata$r	ENDS
;	COMDAT ??_R2?$CEntityFactory@VCPython@@@@8
rdata$r	SEGMENT
??_R2?$CEntityFactory@VCPython@@@@8 DD FLAT:??_R1A@?0A@EA@?$CEntityFactory@VCPython@@@@8 ; CEntityFactory<CPython>::`RTTI Base Class Array'
	DD	FLAT:??_R1A@?0A@EA@IEntityFactory@@8
rdata$r	ENDS
;	COMDAT ??_R3?$CEntityFactory@VCPython@@@@8
rdata$r	SEGMENT
??_R3?$CEntityFactory@VCPython@@@@8 DD 00H		; CEntityFactory<CPython>::`RTTI Class Hierarchy Descriptor'
	DD	00H
	DD	02H
	DD	FLAT:??_R2?$CEntityFactory@VCPython@@@@8
rdata$r	ENDS
;	COMDAT ??_R0?AV?$CEntityFactory@VCPython@@@@@8
data$r	SEGMENT
??_R0?AV?$CEntityFactory@VCPython@@@@@8 DD FLAT:??_7type_info@@6B@ ; CEntityFactory<CPython> `RTTI Type Descriptor'
	DD	00H
	DB	'.?AV?$CEntityFactory@VCPython@@@@', 00H
data$r	ENDS
;	COMDAT ??_R4?$CEntityFactory@VCPython@@@@6B@
rdata$r	SEGMENT
??_R4?$CEntityFactory@VCPython@@@@6B@ DD 00H		; CEntityFactory<CPython>::`RTTI Complete Object Locator'
	DD	00H
	DD	00H
	DD	FLAT:??_R0?AV?$CEntityFactory@VCPython@@@@@8
	DD	FLAT:??_R3?$CEntityFactory@VCPython@@@@8
rdata$r	ENDS
;	COMDAT ??_R1A@?0A@EA@CPython@@8
rdata$r	SEGMENT
??_R1A@?0A@EA@CPython@@8 DD FLAT:??_R0?AVCPython@@@8	; CPython::`RTTI Base Class Descriptor at (0,-1,0,64)'
	DD	05H
	DD	00H
	DD	0ffffffffH
	DD	00H
	DD	040H
	DD	FLAT:??_R3CPython@@8
rdata$r	ENDS
;	COMDAT ??_R2CPython@@8
rdata$r	SEGMENT
??_R2CPython@@8 DD FLAT:??_R1A@?0A@EA@CPython@@8	; CPython::`RTTI Base Class Array'
	DD	FLAT:??_R1A@?0A@EA@CBasePlayerWeapon@@8
	DD	FLAT:??_R1A@?0A@EA@CBasePlayerItem@@8
	DD	FLAT:??_R1A@?0A@EA@CBaseAnimating@@8
	DD	FLAT:??_R1A@?0A@EA@CBaseDelay@@8
	DD	FLAT:??_R1A@?0A@EA@CBaseEntity@@8
rdata$r	ENDS
;	COMDAT ??_R3CPython@@8
rdata$r	SEGMENT
??_R3CPython@@8 DD 00H					; CPython::`RTTI Class Hierarchy Descriptor'
	DD	00H
	DD	06H
	DD	FLAT:??_R2CPython@@8
rdata$r	ENDS
;	COMDAT ??_R0?AVCPython@@@8
data$r	SEGMENT
??_R0?AVCPython@@@8 DD FLAT:??_7type_info@@6B@		; CPython `RTTI Type Descriptor'
	DD	00H
	DB	'.?AVCPython@@', 00H
data$r	ENDS
;	COMDAT ??_R4CPython@@6B@
rdata$r	SEGMENT
??_R4CPython@@6B@ DD 00H				; CPython::`RTTI Complete Object Locator'
	DD	00H
	DD	00H
	DD	FLAT:??_R0?AVCPython@@@8
	DD	FLAT:??_R3CPython@@8
rdata$r	ENDS
;	COMDAT ??_R1A@?0A@EA@CBasePlayerAmmo@@8
rdata$r	SEGMENT
??_R1A@?0A@EA@CBasePlayerAmmo@@8 DD FLAT:??_R0?AVCBasePlayerAmmo@@@8 ; CBasePlayerAmmo::`RTTI Base Class Descriptor at (0,-1,0,64)'
	DD	01H
	DD	00H
	DD	0ffffffffH
	DD	00H
	DD	040H
	DD	FLAT:??_R3CBasePlayerAmmo@@8
rdata$r	ENDS
;	COMDAT ??_R2CBasePlayerAmmo@@8
rdata$r	SEGMENT
??_R2CBasePlayerAmmo@@8 DD FLAT:??_R1A@?0A@EA@CBasePlayerAmmo@@8 ; CBasePlayerAmmo::`RTTI Base Class Array'
	DD	FLAT:??_R1A@?0A@EA@CBaseEntity@@8
rdata$r	ENDS
;	COMDAT ??_R3CBasePlayerAmmo@@8
rdata$r	SEGMENT
??_R3CBasePlayerAmmo@@8 DD 00H				; CBasePlayerAmmo::`RTTI Class Hierarchy Descriptor'
	DD	00H
	DD	02H
	DD	FLAT:??_R2CBasePlayerAmmo@@8
rdata$r	ENDS
;	COMDAT ??_R0?AVCBasePlayerAmmo@@@8
data$r	SEGMENT
??_R0?AVCBasePlayerAmmo@@@8 DD FLAT:??_7type_info@@6B@	; CBasePlayerAmmo `RTTI Type Descriptor'
	DD	00H
	DB	'.?AVCBasePlayerAmmo@@', 00H
data$r	ENDS
;	COMDAT ??_R4CBasePlayerAmmo@@6B@
rdata$r	SEGMENT
??_R4CBasePlayerAmmo@@6B@ DD 00H			; CBasePlayerAmmo::`RTTI Complete Object Locator'
	DD	00H
	DD	00H
	DD	FLAT:??_R0?AVCBasePlayerAmmo@@@8
	DD	FLAT:??_R3CBasePlayerAmmo@@8
rdata$r	ENDS
;	COMDAT ??_R1A@?0A@EA@CBasePlayerWeapon@@8
rdata$r	SEGMENT
??_R1A@?0A@EA@CBasePlayerWeapon@@8 DD FLAT:??_R0?AVCBasePlayerWeapon@@@8 ; CBasePlayerWeapon::`RTTI Base Class Descriptor at (0,-1,0,64)'
	DD	04H
	DD	00H
	DD	0ffffffffH
	DD	00H
	DD	040H
	DD	FLAT:??_R3CBasePlayerWeapon@@8
rdata$r	ENDS
;	COMDAT ??_R2CBasePlayerWeapon@@8
rdata$r	SEGMENT
??_R2CBasePlayerWeapon@@8 DD FLAT:??_R1A@?0A@EA@CBasePlayerWeapon@@8 ; CBasePlayerWeapon::`RTTI Base Class Array'
	DD	FLAT:??_R1A@?0A@EA@CBasePlayerItem@@8
	DD	FLAT:??_R1A@?0A@EA@CBaseAnimating@@8
	DD	FLAT:??_R1A@?0A@EA@CBaseDelay@@8
	DD	FLAT:??_R1A@?0A@EA@CBaseEntity@@8
rdata$r	ENDS
;	COMDAT ??_R3CBasePlayerWeapon@@8
rdata$r	SEGMENT
??_R3CBasePlayerWeapon@@8 DD 00H			; CBasePlayerWeapon::`RTTI Class Hierarchy Descriptor'
	DD	00H
	DD	05H
	DD	FLAT:??_R2CBasePlayerWeapon@@8
rdata$r	ENDS
;	COMDAT ??_R0?AVCBasePlayerWeapon@@@8
data$r	SEGMENT
??_R0?AVCBasePlayerWeapon@@@8 DD FLAT:??_7type_info@@6B@ ; CBasePlayerWeapon `RTTI Type Descriptor'
	DD	00H
	DB	'.?AVCBasePlayerWeapon@@', 00H
data$r	ENDS
;	COMDAT ??_R4CBasePlayerWeapon@@6B@
rdata$r	SEGMENT
??_R4CBasePlayerWeapon@@6B@ DD 00H			; CBasePlayerWeapon::`RTTI Complete Object Locator'
	DD	00H
	DD	00H
	DD	FLAT:??_R0?AVCBasePlayerWeapon@@@8
	DD	FLAT:??_R3CBasePlayerWeapon@@8
rdata$r	ENDS
;	COMDAT ??_R4CBaseAnimating@@6B@
rdata$r	SEGMENT
??_R4CBaseAnimating@@6B@ DD 00H				; CBaseAnimating::`RTTI Complete Object Locator'
	DD	00H
	DD	00H
	DD	FLAT:??_R0?AVCBaseAnimating@@@8
	DD	FLAT:??_R3CBaseAnimating@@8
rdata$r	ENDS
;	COMDAT ??_R4CBaseDelay@@6B@
rdata$r	SEGMENT
??_R4CBaseDelay@@6B@ DD 00H				; CBaseDelay::`RTTI Complete Object Locator'
	DD	00H
	DD	00H
	DD	FLAT:??_R0?AVCBaseDelay@@@8
	DD	FLAT:??_R3CBaseDelay@@8
rdata$r	ENDS
;	COMDAT ??_R2CBaseDelay@@8
rdata$r	SEGMENT
??_R2CBaseDelay@@8 DD FLAT:??_R1A@?0A@EA@CBaseDelay@@8	; CBaseDelay::`RTTI Base Class Array'
	DD	FLAT:??_R1A@?0A@EA@CBaseEntity@@8
rdata$r	ENDS
;	COMDAT ??_R3CBaseDelay@@8
rdata$r	SEGMENT
??_R3CBaseDelay@@8 DD 00H				; CBaseDelay::`RTTI Class Hierarchy Descriptor'
	DD	00H
	DD	02H
	DD	FLAT:??_R2CBaseDelay@@8
rdata$r	ENDS
;	COMDAT ??_R0?AVCBaseDelay@@@8
data$r	SEGMENT
??_R0?AVCBaseDelay@@@8 DD FLAT:??_7type_info@@6B@	; CBaseDelay `RTTI Type Descriptor'
	DD	00H
	DB	'.?AVCBaseDelay@@', 00H
data$r	ENDS
;	COMDAT ??_R1A@?0A@EA@CBaseDelay@@8
rdata$r	SEGMENT
??_R1A@?0A@EA@CBaseDelay@@8 DD FLAT:??_R0?AVCBaseDelay@@@8 ; CBaseDelay::`RTTI Base Class Descriptor at (0,-1,0,64)'
	DD	01H
	DD	00H
	DD	0ffffffffH
	DD	00H
	DD	040H
	DD	FLAT:??_R3CBaseDelay@@8
rdata$r	ENDS
;	COMDAT ??_R2CBaseAnimating@@8
rdata$r	SEGMENT
??_R2CBaseAnimating@@8 DD FLAT:??_R1A@?0A@EA@CBaseAnimating@@8 ; CBaseAnimating::`RTTI Base Class Array'
	DD	FLAT:??_R1A@?0A@EA@CBaseDelay@@8
	DD	FLAT:??_R1A@?0A@EA@CBaseEntity@@8
rdata$r	ENDS
;	COMDAT ??_R3CBaseAnimating@@8
rdata$r	SEGMENT
??_R3CBaseAnimating@@8 DD 00H				; CBaseAnimating::`RTTI Class Hierarchy Descriptor'
	DD	00H
	DD	03H
	DD	FLAT:??_R2CBaseAnimating@@8
rdata$r	ENDS
;	COMDAT ??_R0?AVCBaseAnimating@@@8
data$r	SEGMENT
??_R0?AVCBaseAnimating@@@8 DD FLAT:??_7type_info@@6B@	; CBaseAnimating `RTTI Type Descriptor'
	DD	00H
	DB	'.?AVCBaseAnimating@@', 00H
data$r	ENDS
;	COMDAT ??_R1A@?0A@EA@CBaseAnimating@@8
rdata$r	SEGMENT
??_R1A@?0A@EA@CBaseAnimating@@8 DD FLAT:??_R0?AVCBaseAnimating@@@8 ; CBaseAnimating::`RTTI Base Class Descriptor at (0,-1,0,64)'
	DD	02H
	DD	00H
	DD	0ffffffffH
	DD	00H
	DD	040H
	DD	FLAT:??_R3CBaseAnimating@@8
rdata$r	ENDS
;	COMDAT ??_R1A@?0A@EA@CBasePlayerItem@@8
rdata$r	SEGMENT
??_R1A@?0A@EA@CBasePlayerItem@@8 DD FLAT:??_R0?AVCBasePlayerItem@@@8 ; CBasePlayerItem::`RTTI Base Class Descriptor at (0,-1,0,64)'
	DD	03H
	DD	00H
	DD	0ffffffffH
	DD	00H
	DD	040H
	DD	FLAT:??_R3CBasePlayerItem@@8
rdata$r	ENDS
;	COMDAT ??_R2CBasePlayerItem@@8
rdata$r	SEGMENT
??_R2CBasePlayerItem@@8 DD FLAT:??_R1A@?0A@EA@CBasePlayerItem@@8 ; CBasePlayerItem::`RTTI Base Class Array'
	DD	FLAT:??_R1A@?0A@EA@CBaseAnimating@@8
	DD	FLAT:??_R1A@?0A@EA@CBaseDelay@@8
	DD	FLAT:??_R1A@?0A@EA@CBaseEntity@@8
rdata$r	ENDS
;	COMDAT ??_R3CBasePlayerItem@@8
rdata$r	SEGMENT
??_R3CBasePlayerItem@@8 DD 00H				; CBasePlayerItem::`RTTI Class Hierarchy Descriptor'
	DD	00H
	DD	04H
	DD	FLAT:??_R2CBasePlayerItem@@8
rdata$r	ENDS
;	COMDAT ??_R0?AVCBasePlayerItem@@@8
data$r	SEGMENT
??_R0?AVCBasePlayerItem@@@8 DD FLAT:??_7type_info@@6B@	; CBasePlayerItem `RTTI Type Descriptor'
	DD	00H
	DB	'.?AVCBasePlayerItem@@', 00H
data$r	ENDS
;	COMDAT ??_R4CBasePlayerItem@@6B@
rdata$r	SEGMENT
??_R4CBasePlayerItem@@6B@ DD 00H			; CBasePlayerItem::`RTTI Complete Object Locator'
	DD	00H
	DD	00H
	DD	FLAT:??_R0?AVCBasePlayerItem@@@8
	DD	FLAT:??_R3CBasePlayerItem@@8
rdata$r	ENDS
;	COMDAT ??_R1A@?0A@EA@IEntityFactory@@8
rdata$r	SEGMENT
??_R1A@?0A@EA@IEntityFactory@@8 DD FLAT:??_R0?AVIEntityFactory@@@8 ; IEntityFactory::`RTTI Base Class Descriptor at (0,-1,0,64)'
	DD	00H
	DD	00H
	DD	0ffffffffH
	DD	00H
	DD	040H
	DD	FLAT:??_R3IEntityFactory@@8
rdata$r	ENDS
;	COMDAT ??_R2IEntityFactory@@8
rdata$r	SEGMENT
??_R2IEntityFactory@@8 DD FLAT:??_R1A@?0A@EA@IEntityFactory@@8 ; IEntityFactory::`RTTI Base Class Array'
rdata$r	ENDS
;	COMDAT ??_R3IEntityFactory@@8
rdata$r	SEGMENT
??_R3IEntityFactory@@8 DD 00H				; IEntityFactory::`RTTI Class Hierarchy Descriptor'
	DD	00H
	DD	01H
	DD	FLAT:??_R2IEntityFactory@@8
rdata$r	ENDS
;	COMDAT ??_R0?AVIEntityFactory@@@8
data$r	SEGMENT
??_R0?AVIEntityFactory@@@8 DD FLAT:??_7type_info@@6B@	; IEntityFactory `RTTI Type Descriptor'
	DD	00H
	DB	'.?AVIEntityFactory@@', 00H
data$r	ENDS
;	COMDAT ??_R4IEntityFactory@@6B@
rdata$r	SEGMENT
??_R4IEntityFactory@@6B@ DD 00H				; IEntityFactory::`RTTI Complete Object Locator'
	DD	00H
	DD	00H
	DD	FLAT:??_R0?AVIEntityFactory@@@8
	DD	FLAT:??_R3IEntityFactory@@8
rdata$r	ENDS
;	COMDAT ??_R1A@?0A@EA@CBaseEntity@@8
rdata$r	SEGMENT
??_R1A@?0A@EA@CBaseEntity@@8 DD FLAT:??_R0?AVCBaseEntity@@@8 ; CBaseEntity::`RTTI Base Class Descriptor at (0,-1,0,64)'
	DD	00H
	DD	00H
	DD	0ffffffffH
	DD	00H
	DD	040H
	DD	FLAT:??_R3CBaseEntity@@8
rdata$r	ENDS
;	COMDAT ??_R2CBaseEntity@@8
rdata$r	SEGMENT
??_R2CBaseEntity@@8 DD FLAT:??_R1A@?0A@EA@CBaseEntity@@8 ; CBaseEntity::`RTTI Base Class Array'
rdata$r	ENDS
;	COMDAT ??_R3CBaseEntity@@8
rdata$r	SEGMENT
??_R3CBaseEntity@@8 DD 00H				; CBaseEntity::`RTTI Class Hierarchy Descriptor'
	DD	00H
	DD	01H
	DD	FLAT:??_R2CBaseEntity@@8
rdata$r	ENDS
;	COMDAT ??_R0?AVCBaseEntity@@@8
data$r	SEGMENT
??_R0?AVCBaseEntity@@@8 DD FLAT:??_7type_info@@6B@	; CBaseEntity `RTTI Type Descriptor'
	DD	00H
	DB	'.?AVCBaseEntity@@', 00H
data$r	ENDS
;	COMDAT ??_R4CBaseEntity@@6B@
rdata$r	SEGMENT
??_R4CBaseEntity@@6B@ DD 00H				; CBaseEntity::`RTTI Complete Object Locator'
	DD	00H
	DD	00H
	DD	FLAT:??_R0?AVCBaseEntity@@@8
	DD	FLAT:??_R3CBaseEntity@@8
rdata$r	ENDS
;	COMDAT ??_C@_08OALJNDGM@ammo_357?$AA@
CONST	SEGMENT
??_C@_08OALJNDGM@ammo_357?$AA@ DB 'ammo_357', 00H	; `string'
CONST	ENDS
;	COMDAT ??_7?$CEntityFactory@VCPythonAmmo@@@@6B@
CONST	SEGMENT
??_7?$CEntityFactory@VCPythonAmmo@@@@6B@ DD FLAT:??_R4?$CEntityFactory@VCPythonAmmo@@@@6B@ ; CEntityFactory<CPythonAmmo>::`vftable'
	DD	FLAT:?Create@?$CEntityFactory@VCPythonAmmo@@@@UAEPAVCBaseEntity@@PBDPAUentvars_s@@@Z
	DD	FLAT:?Destroy@?$CEntityFactory@VCPythonAmmo@@@@UAEXPAVCBaseEntity@@@Z
	DD	FLAT:?GetEntitySize@?$CEntityFactory@VCPythonAmmo@@@@UAEIXZ
CONST	ENDS
;	COMDAT ??_7CPythonAmmo@@6B@
CONST	SEGMENT
??_7CPythonAmmo@@6B@ DD FLAT:??_R4CPythonAmmo@@6B@	; CPythonAmmo::`vftable'
	DD	FLAT:?GetDataDescMap@CBasePlayerAmmo@@UAEPAUdatamap_s@@XZ
	DD	FLAT:?Spawn@CPythonAmmo@@EAEXXZ
	DD	FLAT:?Precache@CPythonAmmo@@EAEXXZ
	DD	FLAT:?KeyValue@CBaseEntity@@UAEXPAUKeyValueData_s@@@Z
	DD	FLAT:?Save@CBaseEntity@@UAEHAAVCSave@@@Z
	DD	FLAT:?Restore@CBaseEntity@@UAEHAAVCRestore@@@Z
	DD	FLAT:?ObjectCaps@CBaseEntity@@UAEHXZ
	DD	FLAT:?Activate@CBaseEntity@@UAEXXZ
	DD	FLAT:?OnChangeLevel@CBaseEntity@@UAEXXZ
	DD	FLAT:?OnTeleport@CBaseEntity@@UAEXXZ
	DD	FLAT:?PortalSleep@CBaseEntity@@UAEXM@Z
	DD	FLAT:?StartMessage@CBaseEntity@@UAEXPAVCBasePlayer@@@Z
	DD	FLAT:?GetPosition@CBaseEntity@@UAEMXZ
	DD	FLAT:?OnChangeParent@CBaseEntity@@UAEXXZ
	DD	FLAT:?OnClearParent@CBaseEntity@@UAEXXZ
	DD	FLAT:?OnRemove@CBaseEntity@@UAEXXZ
	DD	FLAT:?SetObjectCollisionBox@CBaseEntity@@UAEXXZ
	DD	FLAT:?Classify@CBaseEntity@@UAEHXZ
	DD	FLAT:?DeathNotice@CBaseEntity@@UAEXPAUentvars_s@@@Z
	DD	FLAT:?IsRigidBody@CBaseEntity@@UAEHXZ
	DD	FLAT:?SetNextThink@CBaseEntity@@UAEXM@Z
	DD	FLAT:?GetState@CBaseEntity@@UAE?AW4STATE@@PAV1@@Z
	DD	FLAT:?GetState@CBaseEntity@@UAE?AW4STATE@@XZ
	DD	FLAT:?TraceAttack@CBaseEntity@@UAEXPAUentvars_s@@MVVector@@PAUgametrace_s@@H@Z
	DD	FLAT:?TakeDamage@CBaseEntity@@UAEHPAUentvars_s@@0MH@Z
	DD	FLAT:?TakeHealth@CBaseEntity@@UAEHMH@Z
	DD	FLAT:?TakeArmor@CBaseEntity@@UAEHMH@Z
	DD	FLAT:?Killed@CBaseEntity@@UAEXPAUentvars_s@@H@Z
	DD	FLAT:?BloodColor@CBaseEntity@@UAEHXZ
	DD	FLAT:?TraceBleed@CBaseEntity@@UAEXMVVector@@PAUgametrace_s@@H@Z
	DD	FLAT:?IsTriggered@CBaseEntity@@UAEHPAV1@@Z
	DD	FLAT:?MyMonsterPointer@CBaseEntity@@UAEPAVCBaseMonster@@XZ
	DD	FLAT:?MySquadMonsterPointer@CBaseEntity@@UAEPAVCSquadMonster@@XZ
	DD	FLAT:?GetToggleState@CBaseEntity@@UAEHXZ
	DD	FLAT:?AddPoints@CBaseEntity@@UAEXHH@Z
	DD	FLAT:?AddPointsToTeam@CBaseEntity@@UAEXHH@Z
	DD	FLAT:?AddPlayerItem@CBaseEntity@@UAEHPAVCBasePlayerItem@@@Z
	DD	FLAT:?RemovePlayerItem@CBaseEntity@@UAEHPAVCBasePlayerItem@@@Z
	DD	FLAT:?GiveAmmo@CBaseEntity@@UAEHHPADH@Z
	DD	FLAT:?GetDelay@CBaseEntity@@UAEMXZ
	DD	FLAT:?IsMoving@CBaseEntity@@UAEHXZ
	DD	FLAT:?OverrideReset@CBaseEntity@@UAEXXZ
	DD	FLAT:?TransferReset@CBaseEntity@@UAEXXZ
	DD	FLAT:?DamageDecal@CBaseEntity@@UAEHH@Z
	DD	FLAT:?SetToggleState@CBaseEntity@@UAEXH@Z
	DD	FLAT:?StartSneaking@CBaseEntity@@UAEXXZ
	DD	FLAT:?StopSneaking@CBaseEntity@@UAEXXZ
	DD	FLAT:?OnControls@CBaseEntity@@UAEHPAV1@@Z
	DD	FLAT:?IsSneaking@CBaseEntity@@UAEHXZ
	DD	FLAT:?IsAlive@CBaseEntity@@UAEHXZ
	DD	FLAT:?IsBSPModel@CBaseEntity@@UAEHXZ
	DD	FLAT:?IsCustomModel@CBaseEntity@@UAEHXZ
	DD	FLAT:?ReflectGauss@CBaseEntity@@UAEHXZ
	DD	FLAT:?HasTarget@CBaseEntity@@UAEHH@Z
	DD	FLAT:?IsInWorld@CBaseEntity@@UAEHH@Z
	DD	FLAT:?IsPlayer@CBaseEntity@@UAEHXZ
	DD	FLAT:?IsNetClient@CBaseEntity@@UAEHXZ
	DD	FLAT:?IsMonster@CBaseEntity@@UAEHXZ
	DD	FLAT:?IsPushable@CBaseEntity@@UAEHXZ
	DD	FLAT:?IsProjectile@CBaseEntity@@UAEHXZ
	DD	FLAT:?IsFuncScreen@CBaseEntity@@UAEHXZ
	DD	FLAT:?IsPortal@CBaseEntity@@UAEHXZ
	DD	FLAT:?IsTank@CBaseEntity@@UAEHXZ
	DD	FLAT:?IsMover@CBaseEntity@@UAEHXZ
	DD	FLAT:?IsBreakable@CBaseEntity@@UAEHXZ
	DD	FLAT:?TeamID@CBaseEntity@@UAEPBDXZ
	DD	FLAT:?AddSpawnFlags@CBaseEntity@@UAEXH@Z
	DD	FLAT:?HasSpawnFlags@CBaseEntity@@UBE_NH@Z
	DD	FLAT:?SetFadeDistance@CBaseEntity@@UAEXH@Z
	DD	FLAT:?SetFlag@CBaseEntity@@UAEXH@Z
	DD	FLAT:?HasFlag@CBaseEntity@@UBE_NH@Z
	DD	FLAT:?RemoveFlag@CBaseEntity@@UAEXH@Z
	DD	FLAT:?SetNullModel@CBaseEntity@@UAEXXZ
	DD	FLAT:?OnPickupObject@CBaseEntity@@UAEXXZ
	DD	FLAT:?OnDropObject@CBaseEntity@@UAEXXZ
	DD	FLAT:?GetNextTarget@CBaseEntity@@UAEPAV1@XZ
	DD	FLAT:?Think@CBaseEntity@@UAEXXZ
	DD	FLAT:?Use@CBaseEntity@@UAEXPAV1@0W4USE_TYPE@@M@Z
	DD	FLAT:?Touch@CBaseEntity@@UAEXPAV1@@Z
	DD	FLAT:?Blocked@CBaseEntity@@UAEXPAV1@@Z
	DD	FLAT:?MoveDone@CBaseEntity@@UAEXXZ
	DD	FLAT:?Respawn@CBasePlayerAmmo@@UAEPAVCBaseEntity@@XZ
	DD	FLAT:?UpdateOwner@CBaseEntity@@UAEXXZ
	DD	FLAT:?FBecomeProne@CBaseEntity@@UAEHXZ
	DD	FLAT:?Center@CBaseEntity@@UAE?AVVector@@XZ
	DD	FLAT:?EyePosition@CBaseEntity@@UAE?AVVector@@XZ
	DD	FLAT:?EarPosition@CBaseEntity@@UAE?AVVector@@XZ
	DD	FLAT:?BodyTarget@CBaseEntity@@UAE?AVVector@@ABV2@@Z
	DD	FLAT:?IsPointSized@CBaseEntity@@UBEHXZ
	DD	FLAT:?Illumination@CBaseEntity@@UAEHXZ
	DD	FLAT:?FVisible@CBaseEntity@@UAEHABVVector@@@Z
	DD	FLAT:?FVisible@CBaseEntity@@UAEHPAV1@@Z
	DD	FLAT:?ShouldCollide@CBaseEntity@@UAEHPAV1@@Z
	DD	FLAT:?ClearEffects@CBaseEntity@@UAEXXZ
	DD	FLAT:?AddAmmo@CPythonAmmo@@EAEHPAVCBaseEntity@@@Z
CONST	ENDS
;	COMDAT ??_C@_08PEMEPKH@?9reload?6?$AA@
CONST	SEGMENT
??_C@_08PEMEPKH@?9reload?6?$AA@ DB '-reload', 0aH, 00H	; `string'
CONST	ENDS
;	COMDAT ??_C@_09KNGNPJEJ@?$CBHEV_AMO0?$AA@
CONST	SEGMENT
??_C@_09KNGNPJEJ@?$CBHEV_AMO0?$AA@ DB '!HEV_AMO0', 00H	; `string'
CONST	ENDS
;	COMDAT ??_C@_08MNDBFPDE@?9attack?6?$AA@
CONST	SEGMENT
??_C@_08MNDBFPDE@?9attack?6?$AA@ DB '-attack', 0aH, 00H	; `string'
CONST	ENDS
;	COMDAT ??_C@_06OIODPPHE@python?$AA@
CONST	SEGMENT
??_C@_06OIODPPHE@python?$AA@ DB 'python', 00H		; `string'
CONST	ENDS
;	COMDAT ??_C@_0BB@JCOADJDD@models?1shell?4mdl?$AA@
CONST	SEGMENT
??_C@_0BB@JCOADJDD@models?1shell?4mdl?$AA@ DB 'models/shell.mdl', 00H ; `string'
CONST	ENDS
;	COMDAT ??_C@_0BL@CGAKJPNA@weapons?1deagle_shot1_d?4wav?$AA@
CONST	SEGMENT
??_C@_0BL@CGAKJPNA@weapons?1deagle_shot1_d?4wav?$AA@ DB 'weapons/deagle_s'
	DB	'hot1_d.wav', 00H				; `string'
CONST	ENDS
;	COMDAT ??_C@_0BJ@KHPOFAGN@weapons?1deagle_shot1?4wav?$AA@
CONST	SEGMENT
??_C@_0BJ@KHPOFAGN@weapons?1deagle_shot1?4wav?$AA@ DB 'weapons/deagle_sho'
	DB	't1.wav', 00H				; `string'
CONST	ENDS
;	COMDAT ??_C@_0BG@FDJOBCGH@weapons?1357_cock1?4wav?$AA@
CONST	SEGMENT
??_C@_0BG@FDJOBCGH@weapons?1357_cock1?4wav?$AA@ DB 'weapons/357_cock1.wav'
	DB	00H						; `string'
CONST	ENDS
;	COMDAT ??_C@_0BI@DOMDMLDK@weapons?1357_reload1?4wav?$AA@
CONST	SEGMENT
??_C@_0BI@DOMDMLDK@weapons?1357_reload1?4wav?$AA@ DB 'weapons/357_reload1'
	DB	'.wav', 00H					; `string'
CONST	ENDS
;	COMDAT ??_C@_0BD@BADMCPNB@items?19mmclip1?4wav?$AA@
CONST	SEGMENT
??_C@_0BD@BADMCPNB@items?19mmclip1?4wav?$AA@ DB 'items/9mmclip1.wav', 00H ; `string'
CONST	ENDS
;	COMDAT ??_C@_0BI@IPPCMDMI@models?1w_357ammobox?4mdl?$AA@
CONST	SEGMENT
??_C@_0BI@IPPCMDMI@models?1w_357ammobox?4mdl?$AA@ DB 'models/w_357ammobox'
	DB	'.mdl', 00H					; `string'
CONST	ENDS
;	COMDAT ??_C@_0BB@HAMKIBDK@models?1p_357?4mdl?$AA@
CONST	SEGMENT
??_C@_0BB@HAMKIBDK@models?1p_357?4mdl?$AA@ DB 'models/p_357.mdl', 00H ; `string'
CONST	ENDS
;	COMDAT ??_C@_0BB@HNNEPBHN@models?1v_357?4mdl?$AA@
CONST	SEGMENT
??_C@_0BB@HNNEPBHN@models?1v_357?4mdl?$AA@ DB 'models/v_357.mdl', 00H ; `string'
CONST	ENDS
;	COMDAT ??_C@_0BB@JCBGJKED@models?1w_357?4mdl?$AA@
CONST	SEGMENT
??_C@_0BB@JCBGJKED@models?1w_357?4mdl?$AA@ DB 'models/w_357.mdl', 00H ; `string'
CONST	ENDS
;	COMDAT ??_C@_03IOICPAOD@357?$AA@
CONST	SEGMENT
??_C@_03IOICPAOD@357?$AA@ DB '357', 00H			; `string'
CONST	ENDS
;	COMDAT ??_C@_0L@DGJNBIBM@weapon_357?$AA@
CONST	SEGMENT
??_C@_0L@DGJNBIBM@weapon_357?$AA@ DB 'weapon_357', 00H	; `string'
CONST	ENDS
;	COMDAT ??_C@_0O@ENNELPDA@weapon_python?$AA@
CONST	SEGMENT
??_C@_0O@ENNELPDA@weapon_python?$AA@ DB 'weapon_python', 00H ; `string'
CONST	ENDS
;	COMDAT ??_7?$CEntityFactory@VCPython@@@@6B@
CONST	SEGMENT
??_7?$CEntityFactory@VCPython@@@@6B@ DD FLAT:??_R4?$CEntityFactory@VCPython@@@@6B@ ; CEntityFactory<CPython>::`vftable'
	DD	FLAT:?Create@?$CEntityFactory@VCPython@@@@UAEPAVCBaseEntity@@PBDPAUentvars_s@@@Z
	DD	FLAT:?Destroy@?$CEntityFactory@VCPython@@@@UAEXPAVCBaseEntity@@@Z
	DD	FLAT:?GetEntitySize@?$CEntityFactory@VCPython@@@@UAEIXZ
CONST	ENDS
;	COMDAT ??_7CPython@@6B@
CONST	SEGMENT
??_7CPython@@6B@ DD FLAT:??_R4CPython@@6B@		; CPython::`vftable'
	DD	FLAT:?GetDataDescMap@CBasePlayerWeapon@@UAEPAUdatamap_s@@XZ
	DD	FLAT:?Spawn@CPython@@UAEXXZ
	DD	FLAT:?Precache@CPython@@UAEXXZ
	DD	FLAT:?KeyValue@CBaseDelay@@UAEXPAUKeyValueData_s@@@Z
	DD	FLAT:?Save@CBaseEntity@@UAEHAAVCSave@@@Z
	DD	FLAT:?Restore@CBaseEntity@@UAEHAAVCRestore@@@Z
	DD	FLAT:?ObjectCaps@CBaseEntity@@UAEHXZ
	DD	FLAT:?Activate@CBaseEntity@@UAEXXZ
	DD	FLAT:?OnChangeLevel@CBaseEntity@@UAEXXZ
	DD	FLAT:?OnTeleport@CBaseEntity@@UAEXXZ
	DD	FLAT:?PortalSleep@CBaseEntity@@UAEXM@Z
	DD	FLAT:?StartMessage@CBaseEntity@@UAEXPAVCBasePlayer@@@Z
	DD	FLAT:?GetPosition@CBaseEntity@@UAEMXZ
	DD	FLAT:?OnChangeParent@CBaseEntity@@UAEXXZ
	DD	FLAT:?OnClearParent@CBaseEntity@@UAEXXZ
	DD	FLAT:?OnRemove@CBaseEntity@@UAEXXZ
	DD	FLAT:?SetObjectCollisionBox@CBasePlayerItem@@UAEXXZ
	DD	FLAT:?Classify@CBaseEntity@@UAEHXZ
	DD	FLAT:?DeathNotice@CBaseEntity@@UAEXPAUentvars_s@@@Z
	DD	FLAT:?IsRigidBody@CBaseEntity@@UAEHXZ
	DD	FLAT:?SetNextThink@CBaseEntity@@UAEXM@Z
	DD	FLAT:?GetState@CBaseEntity@@UAE?AW4STATE@@PAV1@@Z
	DD	FLAT:?GetState@CBaseDelay@@UAE?AW4STATE@@XZ
	DD	FLAT:?TraceAttack@CBaseEntity@@UAEXPAUentvars_s@@MVVector@@PAUgametrace_s@@H@Z
	DD	FLAT:?TakeDamage@CBaseEntity@@UAEHPAUentvars_s@@0MH@Z
	DD	FLAT:?TakeHealth@CBaseEntity@@UAEHMH@Z
	DD	FLAT:?TakeArmor@CBaseEntity@@UAEHMH@Z
	DD	FLAT:?Killed@CBaseEntity@@UAEXPAUentvars_s@@H@Z
	DD	FLAT:?BloodColor@CBaseEntity@@UAEHXZ
	DD	FLAT:?TraceBleed@CBaseEntity@@UAEXMVVector@@PAUgametrace_s@@H@Z
	DD	FLAT:?IsTriggered@CBaseEntity@@UAEHPAV1@@Z
	DD	FLAT:?MyMonsterPointer@CBaseEntity@@UAEPAVCBaseMonster@@XZ
	DD	FLAT:?MySquadMonsterPointer@CBaseEntity@@UAEPAVCSquadMonster@@XZ
	DD	FLAT:?GetToggleState@CBaseEntity@@UAEHXZ
	DD	FLAT:?AddPoints@CBaseEntity@@UAEXHH@Z
	DD	FLAT:?AddPointsToTeam@CBaseEntity@@UAEXHH@Z
	DD	FLAT:?AddPlayerItem@CBaseEntity@@UAEHPAVCBasePlayerItem@@@Z
	DD	FLAT:?RemovePlayerItem@CBaseEntity@@UAEHPAVCBasePlayerItem@@@Z
	DD	FLAT:?GiveAmmo@CBaseEntity@@UAEHHPADH@Z
	DD	FLAT:?GetDelay@CBaseEntity@@UAEMXZ
	DD	FLAT:?IsMoving@CBaseEntity@@UAEHXZ
	DD	FLAT:?OverrideReset@CBaseEntity@@UAEXXZ
	DD	FLAT:?TransferReset@CBaseEntity@@UAEXXZ
	DD	FLAT:?DamageDecal@CBaseEntity@@UAEHH@Z
	DD	FLAT:?SetToggleState@CBaseEntity@@UAEXH@Z
	DD	FLAT:?StartSneaking@CBaseEntity@@UAEXXZ
	DD	FLAT:?StopSneaking@CBaseEntity@@UAEXXZ
	DD	FLAT:?OnControls@CBaseEntity@@UAEHPAV1@@Z
	DD	FLAT:?IsSneaking@CBaseEntity@@UAEHXZ
	DD	FLAT:?IsAlive@CBaseEntity@@UAEHXZ
	DD	FLAT:?IsBSPModel@CBaseEntity@@UAEHXZ
	DD	FLAT:?IsCustomModel@CBaseEntity@@UAEHXZ
	DD	FLAT:?ReflectGauss@CBaseEntity@@UAEHXZ
	DD	FLAT:?HasTarget@CBaseEntity@@UAEHH@Z
	DD	FLAT:?IsInWorld@CBaseEntity@@UAEHH@Z
	DD	FLAT:?IsPlayer@CBaseEntity@@UAEHXZ
	DD	FLAT:?IsNetClient@CBaseEntity@@UAEHXZ
	DD	FLAT:?IsMonster@CBaseEntity@@UAEHXZ
	DD	FLAT:?IsPushable@CBaseEntity@@UAEHXZ
	DD	FLAT:?IsProjectile@CBaseEntity@@UAEHXZ
	DD	FLAT:?IsFuncScreen@CBaseEntity@@UAEHXZ
	DD	FLAT:?IsPortal@CBaseEntity@@UAEHXZ
	DD	FLAT:?IsTank@CBaseEntity@@UAEHXZ
	DD	FLAT:?IsMover@CBaseEntity@@UAEHXZ
	DD	FLAT:?IsBreakable@CBaseEntity@@UAEHXZ
	DD	FLAT:?TeamID@CBaseEntity@@UAEPBDXZ
	DD	FLAT:?AddSpawnFlags@CBaseEntity@@UAEXH@Z
	DD	FLAT:?HasSpawnFlags@CBaseEntity@@UBE_NH@Z
	DD	FLAT:?SetFadeDistance@CBaseEntity@@UAEXH@Z
	DD	FLAT:?SetFlag@CBaseEntity@@UAEXH@Z
	DD	FLAT:?HasFlag@CBaseEntity@@UBE_NH@Z
	DD	FLAT:?RemoveFlag@CBaseEntity@@UAEXH@Z
	DD	FLAT:?SetNullModel@CBaseEntity@@UAEXXZ
	DD	FLAT:?OnPickupObject@CBaseEntity@@UAEXXZ
	DD	FLAT:?OnDropObject@CBaseEntity@@UAEXXZ
	DD	FLAT:?GetNextTarget@CBaseEntity@@UAEPAV1@XZ
	DD	FLAT:?Think@CBaseEntity@@UAEXXZ
	DD	FLAT:?Use@CBaseEntity@@UAEXPAV1@0W4USE_TYPE@@M@Z
	DD	FLAT:?Touch@CBaseEntity@@UAEXPAV1@@Z
	DD	FLAT:?Blocked@CBaseEntity@@UAEXPAV1@@Z
	DD	FLAT:?MoveDone@CBaseEntity@@UAEXXZ
	DD	FLAT:?Respawn@CBasePlayerItem@@UAEPAVCBaseEntity@@XZ
	DD	FLAT:?UpdateOwner@CBaseEntity@@UAEXXZ
	DD	FLAT:?FBecomeProne@CBaseEntity@@UAEHXZ
	DD	FLAT:?Center@CBaseEntity@@UAE?AVVector@@XZ
	DD	FLAT:?EyePosition@CBaseEntity@@UAE?AVVector@@XZ
	DD	FLAT:?EarPosition@CBaseEntity@@UAE?AVVector@@XZ
	DD	FLAT:?BodyTarget@CBaseEntity@@UAE?AVVector@@ABV2@@Z
	DD	FLAT:?IsPointSized@CBaseEntity@@UBEHXZ
	DD	FLAT:?Illumination@CBaseEntity@@UAEHXZ
	DD	FLAT:?FVisible@CBaseEntity@@UAEHABVVector@@@Z
	DD	FLAT:?FVisible@CBaseEntity@@UAEHPAV1@@Z
	DD	FLAT:?ShouldCollide@CBaseEntity@@UAEHPAV1@@Z
	DD	FLAT:?ClearEffects@CBaseEntity@@UAEXXZ
	DD	FLAT:?HandleAnimEvent@CBaseAnimating@@UAEXPAUMonsterEvent_t@@@Z
	DD	FLAT:?AddToPlayer@CPython@@UAEHPAVCBasePlayer@@@Z
	DD	FLAT:?AddDuplicate@CBasePlayerWeapon@@UAEHPAVCBasePlayerItem@@@Z
	DD	FLAT:?GetItemInfo@CPython@@UAEHPAUItemInfo@@@Z
	DD	FLAT:?CanDeploy@CBasePlayerWeapon@@UAEHXZ
	DD	FLAT:?Deploy@CPython@@UAEHXZ
	DD	FLAT:?CanHolster@CBasePlayerItem@@UAEHXZ
	DD	FLAT:?Holster@CPython@@UAEXXZ
	DD	FLAT:?UpdateItemInfo@CBasePlayerWeapon@@UAEXXZ
	DD	FLAT:?ItemPreFrame@CBasePlayerItem@@UAEXXZ
	DD	FLAT:?ItemPostFrame@CBasePlayerWeapon@@UAEXXZ
	DD	FLAT:?Drop@CBasePlayerItem@@UAEXXZ
	DD	FLAT:?Kill@CBasePlayerItem@@UAEXXZ
	DD	FLAT:?AttachToPlayer@CBasePlayerItem@@UAEXPAVCBasePlayer@@@Z
	DD	FLAT:?PrimaryAmmoIndex@CBasePlayerWeapon@@UAEHXZ
	DD	FLAT:?SecondaryAmmoIndex@CBasePlayerWeapon@@UAEHXZ
	DD	FLAT:?UpdateClientData@CBasePlayerWeapon@@UAEHPAVCBasePlayer@@@Z
	DD	FLAT:?GetWeaponPtr@CBasePlayerWeapon@@UAEPAVCBasePlayerItem@@XZ
	DD	FLAT:?iItemSlot@CPython@@UAEHXZ
	DD	FLAT:?ExtractAmmo@CBasePlayerWeapon@@UAEHPAV1@@Z
	DD	FLAT:?ExtractClipAmmo@CBasePlayerWeapon@@UAEHPAV1@@Z
	DD	FLAT:?AddWeapon@CBasePlayerWeapon@@UAEHXZ
	DD	FLAT:?PlayEmptySound@CBasePlayerWeapon@@UAEHXZ
	DD	FLAT:?ResetEmptySound@CBasePlayerWeapon@@UAEXXZ
	DD	FLAT:?SendWeaponAnim@CBasePlayerWeapon@@UAEXHHH@Z
	DD	FLAT:?IsUseable@CBasePlayerWeapon@@UAEHXZ
	DD	FLAT:?PrimaryAttack@CPython@@UAEXXZ
	DD	FLAT:?SecondaryAttack@CBasePlayerWeapon@@UAEXXZ
	DD	FLAT:?Reload@CPython@@UAEXXZ
	DD	FLAT:?WeaponIdle@CPython@@UAEXXZ
	DD	FLAT:?RetireWeapon@CBasePlayerWeapon@@UAEXXZ
	DD	FLAT:?ShouldWeaponIdle@CBasePlayerWeapon@@UAEHXZ
	DD	FLAT:?UseDecrement@CBasePlayerWeapon@@UAEHXZ
	DD	FLAT:?LowAmmoMsg@CBasePlayerWeapon@@UAEXPAVCBasePlayer@@@Z
CONST	ENDS
;	COMDAT ??_7CBasePlayerAmmo@@6B@
CONST	SEGMENT
??_7CBasePlayerAmmo@@6B@ DD FLAT:??_R4CBasePlayerAmmo@@6B@ ; CBasePlayerAmmo::`vftable'
	DD	FLAT:?GetDataDescMap@CBasePlayerAmmo@@UAEPAUdatamap_s@@XZ
	DD	FLAT:?Spawn@CBasePlayerAmmo@@UAEXXZ
	DD	FLAT:?Precache@CBaseEntity@@UAEXXZ
	DD	FLAT:?KeyValue@CBaseEntity@@UAEXPAUKeyValueData_s@@@Z
	DD	FLAT:?Save@CBaseEntity@@UAEHAAVCSave@@@Z
	DD	FLAT:?Restore@CBaseEntity@@UAEHAAVCRestore@@@Z
	DD	FLAT:?ObjectCaps@CBaseEntity@@UAEHXZ
	DD	FLAT:?Activate@CBaseEntity@@UAEXXZ
	DD	FLAT:?OnChangeLevel@CBaseEntity@@UAEXXZ
	DD	FLAT:?OnTeleport@CBaseEntity@@UAEXXZ
	DD	FLAT:?PortalSleep@CBaseEntity@@UAEXM@Z
	DD	FLAT:?StartMessage@CBaseEntity@@UAEXPAVCBasePlayer@@@Z
	DD	FLAT:?GetPosition@CBaseEntity@@UAEMXZ
	DD	FLAT:?OnChangeParent@CBaseEntity@@UAEXXZ
	DD	FLAT:?OnClearParent@CBaseEntity@@UAEXXZ
	DD	FLAT:?OnRemove@CBaseEntity@@UAEXXZ
	DD	FLAT:?SetObjectCollisionBox@CBaseEntity@@UAEXXZ
	DD	FLAT:?Classify@CBaseEntity@@UAEHXZ
	DD	FLAT:?DeathNotice@CBaseEntity@@UAEXPAUentvars_s@@@Z
	DD	FLAT:?IsRigidBody@CBaseEntity@@UAEHXZ
	DD	FLAT:?SetNextThink@CBaseEntity@@UAEXM@Z
	DD	FLAT:?GetState@CBaseEntity@@UAE?AW4STATE@@PAV1@@Z
	DD	FLAT:?GetState@CBaseEntity@@UAE?AW4STATE@@XZ
	DD	FLAT:?TraceAttack@CBaseEntity@@UAEXPAUentvars_s@@MVVector@@PAUgametrace_s@@H@Z
	DD	FLAT:?TakeDamage@CBaseEntity@@UAEHPAUentvars_s@@0MH@Z
	DD	FLAT:?TakeHealth@CBaseEntity@@UAEHMH@Z
	DD	FLAT:?TakeArmor@CBaseEntity@@UAEHMH@Z
	DD	FLAT:?Killed@CBaseEntity@@UAEXPAUentvars_s@@H@Z
	DD	FLAT:?BloodColor@CBaseEntity@@UAEHXZ
	DD	FLAT:?TraceBleed@CBaseEntity@@UAEXMVVector@@PAUgametrace_s@@H@Z
	DD	FLAT:?IsTriggered@CBaseEntity@@UAEHPAV1@@Z
	DD	FLAT:?MyMonsterPointer@CBaseEntity@@UAEPAVCBaseMonster@@XZ
	DD	FLAT:?MySquadMonsterPointer@CBaseEntity@@UAEPAVCSquadMonster@@XZ
	DD	FLAT:?GetToggleState@CBaseEntity@@UAEHXZ
	DD	FLAT:?AddPoints@CBaseEntity@@UAEXHH@Z
	DD	FLAT:?AddPointsToTeam@CBaseEntity@@UAEXHH@Z
	DD	FLAT:?AddPlayerItem@CBaseEntity@@UAEHPAVCBasePlayerItem@@@Z
	DD	FLAT:?RemovePlayerItem@CBaseEntity@@UAEHPAVCBasePlayerItem@@@Z
	DD	FLAT:?GiveAmmo@CBaseEntity@@UAEHHPADH@Z
	DD	FLAT:?GetDelay@CBaseEntity@@UAEMXZ
	DD	FLAT:?IsMoving@CBaseEntity@@UAEHXZ
	DD	FLAT:?OverrideReset@CBaseEntity@@UAEXXZ
	DD	FLAT:?TransferReset@CBaseEntity@@UAEXXZ
	DD	FLAT:?DamageDecal@CBaseEntity@@UAEHH@Z
	DD	FLAT:?SetToggleState@CBaseEntity@@UAEXH@Z
	DD	FLAT:?StartSneaking@CBaseEntity@@UAEXXZ
	DD	FLAT:?StopSneaking@CBaseEntity@@UAEXXZ
	DD	FLAT:?OnControls@CBaseEntity@@UAEHPAV1@@Z
	DD	FLAT:?IsSneaking@CBaseEntity@@UAEHXZ
	DD	FLAT:?IsAlive@CBaseEntity@@UAEHXZ
	DD	FLAT:?IsBSPModel@CBaseEntity@@UAEHXZ
	DD	FLAT:?IsCustomModel@CBaseEntity@@UAEHXZ
	DD	FLAT:?ReflectGauss@CBaseEntity@@UAEHXZ
	DD	FLAT:?HasTarget@CBaseEntity@@UAEHH@Z
	DD	FLAT:?IsInWorld@CBaseEntity@@UAEHH@Z
	DD	FLAT:?IsPlayer@CBaseEntity@@UAEHXZ
	DD	FLAT:?IsNetClient@CBaseEntity@@UAEHXZ
	DD	FLAT:?IsMonster@CBaseEntity@@UAEHXZ
	DD	FLAT:?IsPushable@CBaseEntity@@UAEHXZ
	DD	FLAT:?IsProjectile@CBaseEntity@@UAEHXZ
	DD	FLAT:?IsFuncScreen@CBaseEntity@@UAEHXZ
	DD	FLAT:?IsPortal@CBaseEntity@@UAEHXZ
	DD	FLAT:?IsTank@CBaseEntity@@UAEHXZ
	DD	FLAT:?IsMover@CBaseEntity@@UAEHXZ
	DD	FLAT:?IsBreakable@CBaseEntity@@UAEHXZ
	DD	FLAT:?TeamID@CBaseEntity@@UAEPBDXZ
	DD	FLAT:?AddSpawnFlags@CBaseEntity@@UAEXH@Z
	DD	FLAT:?HasSpawnFlags@CBaseEntity@@UBE_NH@Z
	DD	FLAT:?SetFadeDistance@CBaseEntity@@UAEXH@Z
	DD	FLAT:?SetFlag@CBaseEntity@@UAEXH@Z
	DD	FLAT:?HasFlag@CBaseEntity@@UBE_NH@Z
	DD	FLAT:?RemoveFlag@CBaseEntity@@UAEXH@Z
	DD	FLAT:?SetNullModel@CBaseEntity@@UAEXXZ
	DD	FLAT:?OnPickupObject@CBaseEntity@@UAEXXZ
	DD	FLAT:?OnDropObject@CBaseEntity@@UAEXXZ
	DD	FLAT:?GetNextTarget@CBaseEntity@@UAEPAV1@XZ
	DD	FLAT:?Think@CBaseEntity@@UAEXXZ
	DD	FLAT:?Use@CBaseEntity@@UAEXPAV1@0W4USE_TYPE@@M@Z
	DD	FLAT:?Touch@CBaseEntity@@UAEXPAV1@@Z
	DD	FLAT:?Blocked@CBaseEntity@@UAEXPAV1@@Z
	DD	FLAT:?MoveDone@CBaseEntity@@UAEXXZ
	DD	FLAT:?Respawn@CBasePlayerAmmo@@UAEPAVCBaseEntity@@XZ
	DD	FLAT:?UpdateOwner@CBaseEntity@@UAEXXZ
	DD	FLAT:?FBecomeProne@CBaseEntity@@UAEHXZ
	DD	FLAT:?Center@CBaseEntity@@UAE?AVVector@@XZ
	DD	FLAT:?EyePosition@CBaseEntity@@UAE?AVVector@@XZ
	DD	FLAT:?EarPosition@CBaseEntity@@UAE?AVVector@@XZ
	DD	FLAT:?BodyTarget@CBaseEntity@@UAE?AVVector@@ABV2@@Z
	DD	FLAT:?IsPointSized@CBaseEntity@@UBEHXZ
	DD	FLAT:?Illumination@CBaseEntity@@UAEHXZ
	DD	FLAT:?FVisible@CBaseEntity@@UAEHABVVector@@@Z
	DD	FLAT:?FVisible@CBaseEntity@@UAEHPAV1@@Z
	DD	FLAT:?ShouldCollide@CBaseEntity@@UAEHPAV1@@Z
	DD	FLAT:?ClearEffects@CBaseEntity@@UAEXXZ
	DD	FLAT:?AddAmmo@CBasePlayerAmmo@@UAEHPAVCBaseEntity@@@Z
CONST	ENDS
;	COMDAT ??_7CBasePlayerWeapon@@6B@
CONST	SEGMENT
??_7CBasePlayerWeapon@@6B@ DD FLAT:??_R4CBasePlayerWeapon@@6B@ ; CBasePlayerWeapon::`vftable'
	DD	FLAT:?GetDataDescMap@CBasePlayerWeapon@@UAEPAUdatamap_s@@XZ
	DD	FLAT:?Spawn@CBaseEntity@@UAEXXZ
	DD	FLAT:?Precache@CBaseEntity@@UAEXXZ
	DD	FLAT:?KeyValue@CBaseDelay@@UAEXPAUKeyValueData_s@@@Z
	DD	FLAT:?Save@CBaseEntity@@UAEHAAVCSave@@@Z
	DD	FLAT:?Restore@CBaseEntity@@UAEHAAVCRestore@@@Z
	DD	FLAT:?ObjectCaps@CBaseEntity@@UAEHXZ
	DD	FLAT:?Activate@CBaseEntity@@UAEXXZ
	DD	FLAT:?OnChangeLevel@CBaseEntity@@UAEXXZ
	DD	FLAT:?OnTeleport@CBaseEntity@@UAEXXZ
	DD	FLAT:?PortalSleep@CBaseEntity@@UAEXM@Z
	DD	FLAT:?StartMessage@CBaseEntity@@UAEXPAVCBasePlayer@@@Z
	DD	FLAT:?GetPosition@CBaseEntity@@UAEMXZ
	DD	FLAT:?OnChangeParent@CBaseEntity@@UAEXXZ
	DD	FLAT:?OnClearParent@CBaseEntity@@UAEXXZ
	DD	FLAT:?OnRemove@CBaseEntity@@UAEXXZ
	DD	FLAT:?SetObjectCollisionBox@CBasePlayerItem@@UAEXXZ
	DD	FLAT:?Classify@CBaseEntity@@UAEHXZ
	DD	FLAT:?DeathNotice@CBaseEntity@@UAEXPAUentvars_s@@@Z
	DD	FLAT:?IsRigidBody@CBaseEntity@@UAEHXZ
	DD	FLAT:?SetNextThink@CBaseEntity@@UAEXM@Z
	DD	FLAT:?GetState@CBaseEntity@@UAE?AW4STATE@@PAV1@@Z
	DD	FLAT:?GetState@CBaseDelay@@UAE?AW4STATE@@XZ
	DD	FLAT:?TraceAttack@CBaseEntity@@UAEXPAUentvars_s@@MVVector@@PAUgametrace_s@@H@Z
	DD	FLAT:?TakeDamage@CBaseEntity@@UAEHPAUentvars_s@@0MH@Z
	DD	FLAT:?TakeHealth@CBaseEntity@@UAEHMH@Z
	DD	FLAT:?TakeArmor@CBaseEntity@@UAEHMH@Z
	DD	FLAT:?Killed@CBaseEntity@@UAEXPAUentvars_s@@H@Z
	DD	FLAT:?BloodColor@CBaseEntity@@UAEHXZ
	DD	FLAT:?TraceBleed@CBaseEntity@@UAEXMVVector@@PAUgametrace_s@@H@Z
	DD	FLAT:?IsTriggered@CBaseEntity@@UAEHPAV1@@Z
	DD	FLAT:?MyMonsterPointer@CBaseEntity@@UAEPAVCBaseMonster@@XZ
	DD	FLAT:?MySquadMonsterPointer@CBaseEntity@@UAEPAVCSquadMonster@@XZ
	DD	FLAT:?GetToggleState@CBaseEntity@@UAEHXZ
	DD	FLAT:?AddPoints@CBaseEntity@@UAEXHH@Z
	DD	FLAT:?AddPointsToTeam@CBaseEntity@@UAEXHH@Z
	DD	FLAT:?AddPlayerItem@CBaseEntity@@UAEHPAVCBasePlayerItem@@@Z
	DD	FLAT:?RemovePlayerItem@CBaseEntity@@UAEHPAVCBasePlayerItem@@@Z
	DD	FLAT:?GiveAmmo@CBaseEntity@@UAEHHPADH@Z
	DD	FLAT:?GetDelay@CBaseEntity@@UAEMXZ
	DD	FLAT:?IsMoving@CBaseEntity@@UAEHXZ
	DD	FLAT:?OverrideReset@CBaseEntity@@UAEXXZ
	DD	FLAT:?TransferReset@CBaseEntity@@UAEXXZ
	DD	FLAT:?DamageDecal@CBaseEntity@@UAEHH@Z
	DD	FLAT:?SetToggleState@CBaseEntity@@UAEXH@Z
	DD	FLAT:?StartSneaking@CBaseEntity@@UAEXXZ
	DD	FLAT:?StopSneaking@CBaseEntity@@UAEXXZ
	DD	FLAT:?OnControls@CBaseEntity@@UAEHPAV1@@Z
	DD	FLAT:?IsSneaking@CBaseEntity@@UAEHXZ
	DD	FLAT:?IsAlive@CBaseEntity@@UAEHXZ
	DD	FLAT:?IsBSPModel@CBaseEntity@@UAEHXZ
	DD	FLAT:?IsCustomModel@CBaseEntity@@UAEHXZ
	DD	FLAT:?ReflectGauss@CBaseEntity@@UAEHXZ
	DD	FLAT:?HasTarget@CBaseEntity@@UAEHH@Z
	DD	FLAT:?IsInWorld@CBaseEntity@@UAEHH@Z
	DD	FLAT:?IsPlayer@CBaseEntity@@UAEHXZ
	DD	FLAT:?IsNetClient@CBaseEntity@@UAEHXZ
	DD	FLAT:?IsMonster@CBaseEntity@@UAEHXZ
	DD	FLAT:?IsPushable@CBaseEntity@@UAEHXZ
	DD	FLAT:?IsProjectile@CBaseEntity@@UAEHXZ
	DD	FLAT:?IsFuncScreen@CBaseEntity@@UAEHXZ
	DD	FLAT:?IsPortal@CBaseEntity@@UAEHXZ
	DD	FLAT:?IsTank@CBaseEntity@@UAEHXZ
	DD	FLAT:?IsMover@CBaseEntity@@UAEHXZ
	DD	FLAT:?IsBreakable@CBaseEntity@@UAEHXZ
	DD	FLAT:?TeamID@CBaseEntity@@UAEPBDXZ
	DD	FLAT:?AddSpawnFlags@CBaseEntity@@UAEXH@Z
	DD	FLAT:?HasSpawnFlags@CBaseEntity@@UBE_NH@Z
	DD	FLAT:?SetFadeDistance@CBaseEntity@@UAEXH@Z
	DD	FLAT:?SetFlag@CBaseEntity@@UAEXH@Z
	DD	FLAT:?HasFlag@CBaseEntity@@UBE_NH@Z
	DD	FLAT:?RemoveFlag@CBaseEntity@@UAEXH@Z
	DD	FLAT:?SetNullModel@CBaseEntity@@UAEXXZ
	DD	FLAT:?OnPickupObject@CBaseEntity@@UAEXXZ
	DD	FLAT:?OnDropObject@CBaseEntity@@UAEXXZ
	DD	FLAT:?GetNextTarget@CBaseEntity@@UAEPAV1@XZ
	DD	FLAT:?Think@CBaseEntity@@UAEXXZ
	DD	FLAT:?Use@CBaseEntity@@UAEXPAV1@0W4USE_TYPE@@M@Z
	DD	FLAT:?Touch@CBaseEntity@@UAEXPAV1@@Z
	DD	FLAT:?Blocked@CBaseEntity@@UAEXPAV1@@Z
	DD	FLAT:?MoveDone@CBaseEntity@@UAEXXZ
	DD	FLAT:?Respawn@CBasePlayerItem@@UAEPAVCBaseEntity@@XZ
	DD	FLAT:?UpdateOwner@CBaseEntity@@UAEXXZ
	DD	FLAT:?FBecomeProne@CBaseEntity@@UAEHXZ
	DD	FLAT:?Center@CBaseEntity@@UAE?AVVector@@XZ
	DD	FLAT:?EyePosition@CBaseEntity@@UAE?AVVector@@XZ
	DD	FLAT:?EarPosition@CBaseEntity@@UAE?AVVector@@XZ
	DD	FLAT:?BodyTarget@CBaseEntity@@UAE?AVVector@@ABV2@@Z
	DD	FLAT:?IsPointSized@CBaseEntity@@UBEHXZ
	DD	FLAT:?Illumination@CBaseEntity@@UAEHXZ
	DD	FLAT:?FVisible@CBaseEntity@@UAEHABVVector@@@Z
	DD	FLAT:?FVisible@CBaseEntity@@UAEHPAV1@@Z
	DD	FLAT:?ShouldCollide@CBaseEntity@@UAEHPAV1@@Z
	DD	FLAT:?ClearEffects@CBaseEntity@@UAEXXZ
	DD	FLAT:?HandleAnimEvent@CBaseAnimating@@UAEXPAUMonsterEvent_t@@@Z
	DD	FLAT:?AddToPlayer@CBasePlayerWeapon@@UAEHPAVCBasePlayer@@@Z
	DD	FLAT:?AddDuplicate@CBasePlayerWeapon@@UAEHPAVCBasePlayerItem@@@Z
	DD	FLAT:?GetItemInfo@CBasePlayerItem@@UAEHPAUItemInfo@@@Z
	DD	FLAT:?CanDeploy@CBasePlayerWeapon@@UAEHXZ
	DD	FLAT:?Deploy@CBasePlayerItem@@UAEHXZ
	DD	FLAT:?CanHolster@CBasePlayerItem@@UAEHXZ
	DD	FLAT:?Holster@CBasePlayerWeapon@@UAEXXZ
	DD	FLAT:?UpdateItemInfo@CBasePlayerWeapon@@UAEXXZ
	DD	FLAT:?ItemPreFrame@CBasePlayerItem@@UAEXXZ
	DD	FLAT:?ItemPostFrame@CBasePlayerWeapon@@UAEXXZ
	DD	FLAT:?Drop@CBasePlayerItem@@UAEXXZ
	DD	FLAT:?Kill@CBasePlayerItem@@UAEXXZ
	DD	FLAT:?AttachToPlayer@CBasePlayerItem@@UAEXPAVCBasePlayer@@@Z
	DD	FLAT:?PrimaryAmmoIndex@CBasePlayerWeapon@@UAEHXZ
	DD	FLAT:?SecondaryAmmoIndex@CBasePlayerWeapon@@UAEHXZ
	DD	FLAT:?UpdateClientData@CBasePlayerWeapon@@UAEHPAVCBasePlayer@@@Z
	DD	FLAT:?GetWeaponPtr@CBasePlayerWeapon@@UAEPAVCBasePlayerItem@@XZ
	DD	FLAT:?iItemSlot@CBasePlayerItem@@UAEHXZ
	DD	FLAT:?ExtractAmmo@CBasePlayerWeapon@@UAEHPAV1@@Z
	DD	FLAT:?ExtractClipAmmo@CBasePlayerWeapon@@UAEHPAV1@@Z
	DD	FLAT:?AddWeapon@CBasePlayerWeapon@@UAEHXZ
	DD	FLAT:?PlayEmptySound@CBasePlayerWeapon@@UAEHXZ
	DD	FLAT:?ResetEmptySound@CBasePlayerWeapon@@UAEXXZ
	DD	FLAT:?SendWeaponAnim@CBasePlayerWeapon@@UAEXHHH@Z
	DD	FLAT:?IsUseable@CBasePlayerWeapon@@UAEHXZ
	DD	FLAT:?PrimaryAttack@CBasePlayerWeapon@@UAEXXZ
	DD	FLAT:?SecondaryAttack@CBasePlayerWeapon@@UAEXXZ
	DD	FLAT:?Reload@CBasePlayerWeapon@@UAEXXZ
	DD	FLAT:?WeaponIdle@CBasePlayerWeapon@@UAEXXZ
	DD	FLAT:?RetireWeapon@CBasePlayerWeapon@@UAEXXZ
	DD	FLAT:?ShouldWeaponIdle@CBasePlayerWeapon@@UAEHXZ
	DD	FLAT:?UseDecrement@CBasePlayerWeapon@@UAEHXZ
	DD	FLAT:?LowAmmoMsg@CBasePlayerWeapon@@UAEXPAVCBasePlayer@@@Z
CONST	ENDS
;	COMDAT ??_7CBasePlayerItem@@6B@
CONST	SEGMENT
??_7CBasePlayerItem@@6B@ DD FLAT:??_R4CBasePlayerItem@@6B@ ; CBasePlayerItem::`vftable'
	DD	FLAT:?GetDataDescMap@CBasePlayerItem@@UAEPAUdatamap_s@@XZ
	DD	FLAT:?Spawn@CBaseEntity@@UAEXXZ
	DD	FLAT:?Precache@CBaseEntity@@UAEXXZ
	DD	FLAT:?KeyValue@CBaseDelay@@UAEXPAUKeyValueData_s@@@Z
	DD	FLAT:?Save@CBaseEntity@@UAEHAAVCSave@@@Z
	DD	FLAT:?Restore@CBaseEntity@@UAEHAAVCRestore@@@Z
	DD	FLAT:?ObjectCaps@CBaseEntity@@UAEHXZ
	DD	FLAT:?Activate@CBaseEntity@@UAEXXZ
	DD	FLAT:?OnChangeLevel@CBaseEntity@@UAEXXZ
	DD	FLAT:?OnTeleport@CBaseEntity@@UAEXXZ
	DD	FLAT:?PortalSleep@CBaseEntity@@UAEXM@Z
	DD	FLAT:?StartMessage@CBaseEntity@@UAEXPAVCBasePlayer@@@Z
	DD	FLAT:?GetPosition@CBaseEntity@@UAEMXZ
	DD	FLAT:?OnChangeParent@CBaseEntity@@UAEXXZ
	DD	FLAT:?OnClearParent@CBaseEntity@@UAEXXZ
	DD	FLAT:?OnRemove@CBaseEntity@@UAEXXZ
	DD	FLAT:?SetObjectCollisionBox@CBasePlayerItem@@UAEXXZ
	DD	FLAT:?Classify@CBaseEntity@@UAEHXZ
	DD	FLAT:?DeathNotice@CBaseEntity@@UAEXPAUentvars_s@@@Z
	DD	FLAT:?IsRigidBody@CBaseEntity@@UAEHXZ
	DD	FLAT:?SetNextThink@CBaseEntity@@UAEXM@Z
	DD	FLAT:?GetState@CBaseEntity@@UAE?AW4STATE@@PAV1@@Z
	DD	FLAT:?GetState@CBaseDelay@@UAE?AW4STATE@@XZ
	DD	FLAT:?TraceAttack@CBaseEntity@@UAEXPAUentvars_s@@MVVector@@PAUgametrace_s@@H@Z
	DD	FLAT:?TakeDamage@CBaseEntity@@UAEHPAUentvars_s@@0MH@Z
	DD	FLAT:?TakeHealth@CBaseEntity@@UAEHMH@Z
	DD	FLAT:?TakeArmor@CBaseEntity@@UAEHMH@Z
	DD	FLAT:?Killed@CBaseEntity@@UAEXPAUentvars_s@@H@Z
	DD	FLAT:?BloodColor@CBaseEntity@@UAEHXZ
	DD	FLAT:?TraceBleed@CBaseEntity@@UAEXMVVector@@PAUgametrace_s@@H@Z
	DD	FLAT:?IsTriggered@CBaseEntity@@UAEHPAV1@@Z
	DD	FLAT:?MyMonsterPointer@CBaseEntity@@UAEPAVCBaseMonster@@XZ
	DD	FLAT:?MySquadMonsterPointer@CBaseEntity@@UAEPAVCSquadMonster@@XZ
	DD	FLAT:?GetToggleState@CBaseEntity@@UAEHXZ
	DD	FLAT:?AddPoints@CBaseEntity@@UAEXHH@Z
	DD	FLAT:?AddPointsToTeam@CBaseEntity@@UAEXHH@Z
	DD	FLAT:?AddPlayerItem@CBaseEntity@@UAEHPAVCBasePlayerItem@@@Z
	DD	FLAT:?RemovePlayerItem@CBaseEntity@@UAEHPAVCBasePlayerItem@@@Z
	DD	FLAT:?GiveAmmo@CBaseEntity@@UAEHHPADH@Z
	DD	FLAT:?GetDelay@CBaseEntity@@UAEMXZ
	DD	FLAT:?IsMoving@CBaseEntity@@UAEHXZ
	DD	FLAT:?OverrideReset@CBaseEntity@@UAEXXZ
	DD	FLAT:?TransferReset@CBaseEntity@@UAEXXZ
	DD	FLAT:?DamageDecal@CBaseEntity@@UAEHH@Z
	DD	FLAT:?SetToggleState@CBaseEntity@@UAEXH@Z
	DD	FLAT:?StartSneaking@CBaseEntity@@UAEXXZ
	DD	FLAT:?StopSneaking@CBaseEntity@@UAEXXZ
	DD	FLAT:?OnControls@CBaseEntity@@UAEHPAV1@@Z
	DD	FLAT:?IsSneaking@CBaseEntity@@UAEHXZ
	DD	FLAT:?IsAlive@CBaseEntity@@UAEHXZ
	DD	FLAT:?IsBSPModel@CBaseEntity@@UAEHXZ
	DD	FLAT:?IsCustomModel@CBaseEntity@@UAEHXZ
	DD	FLAT:?ReflectGauss@CBaseEntity@@UAEHXZ
	DD	FLAT:?HasTarget@CBaseEntity@@UAEHH@Z
	DD	FLAT:?IsInWorld@CBaseEntity@@UAEHH@Z
	DD	FLAT:?IsPlayer@CBaseEntity@@UAEHXZ
	DD	FLAT:?IsNetClient@CBaseEntity@@UAEHXZ
	DD	FLAT:?IsMonster@CBaseEntity@@UAEHXZ
	DD	FLAT:?IsPushable@CBaseEntity@@UAEHXZ
	DD	FLAT:?IsProjectile@CBaseEntity@@UAEHXZ
	DD	FLAT:?IsFuncScreen@CBaseEntity@@UAEHXZ
	DD	FLAT:?IsPortal@CBaseEntity@@UAEHXZ
	DD	FLAT:?IsTank@CBaseEntity@@UAEHXZ
	DD	FLAT:?IsMover@CBaseEntity@@UAEHXZ
	DD	FLAT:?IsBreakable@CBaseEntity@@UAEHXZ
	DD	FLAT:?TeamID@CBaseEntity@@UAEPBDXZ
	DD	FLAT:?AddSpawnFlags@CBaseEntity@@UAEXH@Z
	DD	FLAT:?HasSpawnFlags@CBaseEntity@@UBE_NH@Z
	DD	FLAT:?SetFadeDistance@CBaseEntity@@UAEXH@Z
	DD	FLAT:?SetFlag@CBaseEntity@@UAEXH@Z
	DD	FLAT:?HasFlag@CBaseEntity@@UBE_NH@Z
	DD	FLAT:?RemoveFlag@CBaseEntity@@UAEXH@Z
	DD	FLAT:?SetNullModel@CBaseEntity@@UAEXXZ
	DD	FLAT:?OnPickupObject@CBaseEntity@@UAEXXZ
	DD	FLAT:?OnDropObject@CBaseEntity@@UAEXXZ
	DD	FLAT:?GetNextTarget@CBaseEntity@@UAEPAV1@XZ
	DD	FLAT:?Think@CBaseEntity@@UAEXXZ
	DD	FLAT:?Use@CBaseEntity@@UAEXPAV1@0W4USE_TYPE@@M@Z
	DD	FLAT:?Touch@CBaseEntity@@UAEXPAV1@@Z
	DD	FLAT:?Blocked@CBaseEntity@@UAEXPAV1@@Z
	DD	FLAT:?MoveDone@CBaseEntity@@UAEXXZ
	DD	FLAT:?Respawn@CBasePlayerItem@@UAEPAVCBaseEntity@@XZ
	DD	FLAT:?UpdateOwner@CBaseEntity@@UAEXXZ
	DD	FLAT:?FBecomeProne@CBaseEntity@@UAEHXZ
	DD	FLAT:?Center@CBaseEntity@@UAE?AVVector@@XZ
	DD	FLAT:?EyePosition@CBaseEntity@@UAE?AVVector@@XZ
	DD	FLAT:?EarPosition@CBaseEntity@@UAE?AVVector@@XZ
	DD	FLAT:?BodyTarget@CBaseEntity@@UAE?AVVector@@ABV2@@Z
	DD	FLAT:?IsPointSized@CBaseEntity@@UBEHXZ
	DD	FLAT:?Illumination@CBaseEntity@@UAEHXZ
	DD	FLAT:?FVisible@CBaseEntity@@UAEHABVVector@@@Z
	DD	FLAT:?FVisible@CBaseEntity@@UAEHPAV1@@Z
	DD	FLAT:?ShouldCollide@CBaseEntity@@UAEHPAV1@@Z
	DD	FLAT:?ClearEffects@CBaseEntity@@UAEXXZ
	DD	FLAT:?HandleAnimEvent@CBaseAnimating@@UAEXPAUMonsterEvent_t@@@Z
	DD	FLAT:?AddToPlayer@CBasePlayerItem@@UAEHPAVCBasePlayer@@@Z
	DD	FLAT:?AddDuplicate@CBasePlayerItem@@UAEHPAV1@@Z
	DD	FLAT:?GetItemInfo@CBasePlayerItem@@UAEHPAUItemInfo@@@Z
	DD	FLAT:?CanDeploy@CBasePlayerItem@@UAEHXZ
	DD	FLAT:?Deploy@CBasePlayerItem@@UAEHXZ
	DD	FLAT:?CanHolster@CBasePlayerItem@@UAEHXZ
	DD	FLAT:?Holster@CBasePlayerItem@@UAEXXZ
	DD	FLAT:?UpdateItemInfo@CBasePlayerItem@@UAEXXZ
	DD	FLAT:?ItemPreFrame@CBasePlayerItem@@UAEXXZ
	DD	FLAT:?ItemPostFrame@CBasePlayerItem@@UAEXXZ
	DD	FLAT:?Drop@CBasePlayerItem@@UAEXXZ
	DD	FLAT:?Kill@CBasePlayerItem@@UAEXXZ
	DD	FLAT:?AttachToPlayer@CBasePlayerItem@@UAEXPAVCBasePlayer@@@Z
	DD	FLAT:?PrimaryAmmoIndex@CBasePlayerItem@@UAEHXZ
	DD	FLAT:?SecondaryAmmoIndex@CBasePlayerItem@@UAEHXZ
	DD	FLAT:?UpdateClientData@CBasePlayerItem@@UAEHPAVCBasePlayer@@@Z
	DD	FLAT:?GetWeaponPtr@CBasePlayerItem@@UAEPAV1@XZ
	DD	FLAT:?iItemSlot@CBasePlayerItem@@UAEHXZ
CONST	ENDS
;	COMDAT ??_C@_0BB@EMJBJDBM@sprites?1null?4spr?$AA@
CONST	SEGMENT
??_C@_0BB@EMJBJDBM@sprites?1null?4spr?$AA@ DB 'sprites/null.spr', 00H ; `string'
CONST	ENDS
;	COMDAT ??_7CBaseAnimating@@6B@
CONST	SEGMENT
??_7CBaseAnimating@@6B@ DD FLAT:??_R4CBaseAnimating@@6B@ ; CBaseAnimating::`vftable'
	DD	FLAT:?GetDataDescMap@CBaseAnimating@@UAEPAUdatamap_s@@XZ
	DD	FLAT:?Spawn@CBaseEntity@@UAEXXZ
	DD	FLAT:?Precache@CBaseEntity@@UAEXXZ
	DD	FLAT:?KeyValue@CBaseDelay@@UAEXPAUKeyValueData_s@@@Z
	DD	FLAT:?Save@CBaseEntity@@UAEHAAVCSave@@@Z
	DD	FLAT:?Restore@CBaseEntity@@UAEHAAVCRestore@@@Z
	DD	FLAT:?ObjectCaps@CBaseEntity@@UAEHXZ
	DD	FLAT:?Activate@CBaseEntity@@UAEXXZ
	DD	FLAT:?OnChangeLevel@CBaseEntity@@UAEXXZ
	DD	FLAT:?OnTeleport@CBaseEntity@@UAEXXZ
	DD	FLAT:?PortalSleep@CBaseEntity@@UAEXM@Z
	DD	FLAT:?StartMessage@CBaseEntity@@UAEXPAVCBasePlayer@@@Z
	DD	FLAT:?GetPosition@CBaseEntity@@UAEMXZ
	DD	FLAT:?OnChangeParent@CBaseEntity@@UAEXXZ
	DD	FLAT:?OnClearParent@CBaseEntity@@UAEXXZ
	DD	FLAT:?OnRemove@CBaseEntity@@UAEXXZ
	DD	FLAT:?SetObjectCollisionBox@CBaseEntity@@UAEXXZ
	DD	FLAT:?Classify@CBaseEntity@@UAEHXZ
	DD	FLAT:?DeathNotice@CBaseEntity@@UAEXPAUentvars_s@@@Z
	DD	FLAT:?IsRigidBody@CBaseEntity@@UAEHXZ
	DD	FLAT:?SetNextThink@CBaseEntity@@UAEXM@Z
	DD	FLAT:?GetState@CBaseEntity@@UAE?AW4STATE@@PAV1@@Z
	DD	FLAT:?GetState@CBaseDelay@@UAE?AW4STATE@@XZ
	DD	FLAT:?TraceAttack@CBaseEntity@@UAEXPAUentvars_s@@MVVector@@PAUgametrace_s@@H@Z
	DD	FLAT:?TakeDamage@CBaseEntity@@UAEHPAUentvars_s@@0MH@Z
	DD	FLAT:?TakeHealth@CBaseEntity@@UAEHMH@Z
	DD	FLAT:?TakeArmor@CBaseEntity@@UAEHMH@Z
	DD	FLAT:?Killed@CBaseEntity@@UAEXPAUentvars_s@@H@Z
	DD	FLAT:?BloodColor@CBaseEntity@@UAEHXZ
	DD	FLAT:?TraceBleed@CBaseEntity@@UAEXMVVector@@PAUgametrace_s@@H@Z
	DD	FLAT:?IsTriggered@CBaseEntity@@UAEHPAV1@@Z
	DD	FLAT:?MyMonsterPointer@CBaseEntity@@UAEPAVCBaseMonster@@XZ
	DD	FLAT:?MySquadMonsterPointer@CBaseEntity@@UAEPAVCSquadMonster@@XZ
	DD	FLAT:?GetToggleState@CBaseEntity@@UAEHXZ
	DD	FLAT:?AddPoints@CBaseEntity@@UAEXHH@Z
	DD	FLAT:?AddPointsToTeam@CBaseEntity@@UAEXHH@Z
	DD	FLAT:?AddPlayerItem@CBaseEntity@@UAEHPAVCBasePlayerItem@@@Z
	DD	FLAT:?RemovePlayerItem@CBaseEntity@@UAEHPAVCBasePlayerItem@@@Z
	DD	FLAT:?GiveAmmo@CBaseEntity@@UAEHHPADH@Z
	DD	FLAT:?GetDelay@CBaseEntity@@UAEMXZ
	DD	FLAT:?IsMoving@CBaseEntity@@UAEHXZ
	DD	FLAT:?OverrideReset@CBaseEntity@@UAEXXZ
	DD	FLAT:?TransferReset@CBaseEntity@@UAEXXZ
	DD	FLAT:?DamageDecal@CBaseEntity@@UAEHH@Z
	DD	FLAT:?SetToggleState@CBaseEntity@@UAEXH@Z
	DD	FLAT:?StartSneaking@CBaseEntity@@UAEXXZ
	DD	FLAT:?StopSneaking@CBaseEntity@@UAEXXZ
	DD	FLAT:?OnControls@CBaseEntity@@UAEHPAV1@@Z
	DD	FLAT:?IsSneaking@CBaseEntity@@UAEHXZ
	DD	FLAT:?IsAlive@CBaseEntity@@UAEHXZ
	DD	FLAT:?IsBSPModel@CBaseEntity@@UAEHXZ
	DD	FLAT:?IsCustomModel@CBaseEntity@@UAEHXZ
	DD	FLAT:?ReflectGauss@CBaseEntity@@UAEHXZ
	DD	FLAT:?HasTarget@CBaseEntity@@UAEHH@Z
	DD	FLAT:?IsInWorld@CBaseEntity@@UAEHH@Z
	DD	FLAT:?IsPlayer@CBaseEntity@@UAEHXZ
	DD	FLAT:?IsNetClient@CBaseEntity@@UAEHXZ
	DD	FLAT:?IsMonster@CBaseEntity@@UAEHXZ
	DD	FLAT:?IsPushable@CBaseEntity@@UAEHXZ
	DD	FLAT:?IsProjectile@CBaseEntity@@UAEHXZ
	DD	FLAT:?IsFuncScreen@CBaseEntity@@UAEHXZ
	DD	FLAT:?IsPortal@CBaseEntity@@UAEHXZ
	DD	FLAT:?IsTank@CBaseEntity@@UAEHXZ
	DD	FLAT:?IsMover@CBaseEntity@@UAEHXZ
	DD	FLAT:?IsBreakable@CBaseEntity@@UAEHXZ
	DD	FLAT:?TeamID@CBaseEntity@@UAEPBDXZ
	DD	FLAT:?AddSpawnFlags@CBaseEntity@@UAEXH@Z
	DD	FLAT:?HasSpawnFlags@CBaseEntity@@UBE_NH@Z
	DD	FLAT:?SetFadeDistance@CBaseEntity@@UAEXH@Z
	DD	FLAT:?SetFlag@CBaseEntity@@UAEXH@Z
	DD	FLAT:?HasFlag@CBaseEntity@@UBE_NH@Z
	DD	FLAT:?RemoveFlag@CBaseEntity@@UAEXH@Z
	DD	FLAT:?SetNullModel@CBaseEntity@@UAEXXZ
	DD	FLAT:?OnPickupObject@CBaseEntity@@UAEXXZ
	DD	FLAT:?OnDropObject@CBaseEntity@@UAEXXZ
	DD	FLAT:?GetNextTarget@CBaseEntity@@UAEPAV1@XZ
	DD	FLAT:?Think@CBaseEntity@@UAEXXZ
	DD	FLAT:?Use@CBaseEntity@@UAEXPAV1@0W4USE_TYPE@@M@Z
	DD	FLAT:?Touch@CBaseEntity@@UAEXPAV1@@Z
	DD	FLAT:?Blocked@CBaseEntity@@UAEXPAV1@@Z
	DD	FLAT:?MoveDone@CBaseEntity@@UAEXXZ
	DD	FLAT:?Respawn@CBaseEntity@@UAEPAV1@XZ
	DD	FLAT:?UpdateOwner@CBaseEntity@@UAEXXZ
	DD	FLAT:?FBecomeProne@CBaseEntity@@UAEHXZ
	DD	FLAT:?Center@CBaseEntity@@UAE?AVVector@@XZ
	DD	FLAT:?EyePosition@CBaseEntity@@UAE?AVVector@@XZ
	DD	FLAT:?EarPosition@CBaseEntity@@UAE?AVVector@@XZ
	DD	FLAT:?BodyTarget@CBaseEntity@@UAE?AVVector@@ABV2@@Z
	DD	FLAT:?IsPointSized@CBaseEntity@@UBEHXZ
	DD	FLAT:?Illumination@CBaseEntity@@UAEHXZ
	DD	FLAT:?FVisible@CBaseEntity@@UAEHABVVector@@@Z
	DD	FLAT:?FVisible@CBaseEntity@@UAEHPAV1@@Z
	DD	FLAT:?ShouldCollide@CBaseEntity@@UAEHPAV1@@Z
	DD	FLAT:?ClearEffects@CBaseEntity@@UAEXXZ
	DD	FLAT:?HandleAnimEvent@CBaseAnimating@@UAEXPAUMonsterEvent_t@@@Z
CONST	ENDS
;	COMDAT ??_7CBaseDelay@@6B@
CONST	SEGMENT
??_7CBaseDelay@@6B@ DD FLAT:??_R4CBaseDelay@@6B@	; CBaseDelay::`vftable'
	DD	FLAT:?GetDataDescMap@CBaseDelay@@UAEPAUdatamap_s@@XZ
	DD	FLAT:?Spawn@CBaseEntity@@UAEXXZ
	DD	FLAT:?Precache@CBaseEntity@@UAEXXZ
	DD	FLAT:?KeyValue@CBaseDelay@@UAEXPAUKeyValueData_s@@@Z
	DD	FLAT:?Save@CBaseEntity@@UAEHAAVCSave@@@Z
	DD	FLAT:?Restore@CBaseEntity@@UAEHAAVCRestore@@@Z
	DD	FLAT:?ObjectCaps@CBaseEntity@@UAEHXZ
	DD	FLAT:?Activate@CBaseEntity@@UAEXXZ
	DD	FLAT:?OnChangeLevel@CBaseEntity@@UAEXXZ
	DD	FLAT:?OnTeleport@CBaseEntity@@UAEXXZ
	DD	FLAT:?PortalSleep@CBaseEntity@@UAEXM@Z
	DD	FLAT:?StartMessage@CBaseEntity@@UAEXPAVCBasePlayer@@@Z
	DD	FLAT:?GetPosition@CBaseEntity@@UAEMXZ
	DD	FLAT:?OnChangeParent@CBaseEntity@@UAEXXZ
	DD	FLAT:?OnClearParent@CBaseEntity@@UAEXXZ
	DD	FLAT:?OnRemove@CBaseEntity@@UAEXXZ
	DD	FLAT:?SetObjectCollisionBox@CBaseEntity@@UAEXXZ
	DD	FLAT:?Classify@CBaseEntity@@UAEHXZ
	DD	FLAT:?DeathNotice@CBaseEntity@@UAEXPAUentvars_s@@@Z
	DD	FLAT:?IsRigidBody@CBaseEntity@@UAEHXZ
	DD	FLAT:?SetNextThink@CBaseEntity@@UAEXM@Z
	DD	FLAT:?GetState@CBaseEntity@@UAE?AW4STATE@@PAV1@@Z
	DD	FLAT:?GetState@CBaseDelay@@UAE?AW4STATE@@XZ
	DD	FLAT:?TraceAttack@CBaseEntity@@UAEXPAUentvars_s@@MVVector@@PAUgametrace_s@@H@Z
	DD	FLAT:?TakeDamage@CBaseEntity@@UAEHPAUentvars_s@@0MH@Z
	DD	FLAT:?TakeHealth@CBaseEntity@@UAEHMH@Z
	DD	FLAT:?TakeArmor@CBaseEntity@@UAEHMH@Z
	DD	FLAT:?Killed@CBaseEntity@@UAEXPAUentvars_s@@H@Z
	DD	FLAT:?BloodColor@CBaseEntity@@UAEHXZ
	DD	FLAT:?TraceBleed@CBaseEntity@@UAEXMVVector@@PAUgametrace_s@@H@Z
	DD	FLAT:?IsTriggered@CBaseEntity@@UAEHPAV1@@Z
	DD	FLAT:?MyMonsterPointer@CBaseEntity@@UAEPAVCBaseMonster@@XZ
	DD	FLAT:?MySquadMonsterPointer@CBaseEntity@@UAEPAVCSquadMonster@@XZ
	DD	FLAT:?GetToggleState@CBaseEntity@@UAEHXZ
	DD	FLAT:?AddPoints@CBaseEntity@@UAEXHH@Z
	DD	FLAT:?AddPointsToTeam@CBaseEntity@@UAEXHH@Z
	DD	FLAT:?AddPlayerItem@CBaseEntity@@UAEHPAVCBasePlayerItem@@@Z
	DD	FLAT:?RemovePlayerItem@CBaseEntity@@UAEHPAVCBasePlayerItem@@@Z
	DD	FLAT:?GiveAmmo@CBaseEntity@@UAEHHPADH@Z
	DD	FLAT:?GetDelay@CBaseEntity@@UAEMXZ
	DD	FLAT:?IsMoving@CBaseEntity@@UAEHXZ
	DD	FLAT:?OverrideReset@CBaseEntity@@UAEXXZ
	DD	FLAT:?TransferReset@CBaseEntity@@UAEXXZ
	DD	FLAT:?DamageDecal@CBaseEntity@@UAEHH@Z
	DD	FLAT:?SetToggleState@CBaseEntity@@UAEXH@Z
	DD	FLAT:?StartSneaking@CBaseEntity@@UAEXXZ
	DD	FLAT:?StopSneaking@CBaseEntity@@UAEXXZ
	DD	FLAT:?OnControls@CBaseEntity@@UAEHPAV1@@Z
	DD	FLAT:?IsSneaking@CBaseEntity@@UAEHXZ
	DD	FLAT:?IsAlive@CBaseEntity@@UAEHXZ
	DD	FLAT:?IsBSPModel@CBaseEntity@@UAEHXZ
	DD	FLAT:?IsCustomModel@CBaseEntity@@UAEHXZ
	DD	FLAT:?ReflectGauss@CBaseEntity@@UAEHXZ
	DD	FLAT:?HasTarget@CBaseEntity@@UAEHH@Z
	DD	FLAT:?IsInWorld@CBaseEntity@@UAEHH@Z
	DD	FLAT:?IsPlayer@CBaseEntity@@UAEHXZ
	DD	FLAT:?IsNetClient@CBaseEntity@@UAEHXZ
	DD	FLAT:?IsMonster@CBaseEntity@@UAEHXZ
	DD	FLAT:?IsPushable@CBaseEntity@@UAEHXZ
	DD	FLAT:?IsProjectile@CBaseEntity@@UAEHXZ
	DD	FLAT:?IsFuncScreen@CBaseEntity@@UAEHXZ
	DD	FLAT:?IsPortal@CBaseEntity@@UAEHXZ
	DD	FLAT:?IsTank@CBaseEntity@@UAEHXZ
	DD	FLAT:?IsMover@CBaseEntity@@UAEHXZ
	DD	FLAT:?IsBreakable@CBaseEntity@@UAEHXZ
	DD	FLAT:?TeamID@CBaseEntity@@UAEPBDXZ
	DD	FLAT:?AddSpawnFlags@CBaseEntity@@UAEXH@Z
	DD	FLAT:?HasSpawnFlags@CBaseEntity@@UBE_NH@Z
	DD	FLAT:?SetFadeDistance@CBaseEntity@@UAEXH@Z
	DD	FLAT:?SetFlag@CBaseEntity@@UAEXH@Z
	DD	FLAT:?HasFlag@CBaseEntity@@UBE_NH@Z
	DD	FLAT:?RemoveFlag@CBaseEntity@@UAEXH@Z
	DD	FLAT:?SetNullModel@CBaseEntity@@UAEXXZ
	DD	FLAT:?OnPickupObject@CBaseEntity@@UAEXXZ
	DD	FLAT:?OnDropObject@CBaseEntity@@UAEXXZ
	DD	FLAT:?GetNextTarget@CBaseEntity@@UAEPAV1@XZ
	DD	FLAT:?Think@CBaseEntity@@UAEXXZ
	DD	FLAT:?Use@CBaseEntity@@UAEXPAV1@0W4USE_TYPE@@M@Z
	DD	FLAT:?Touch@CBaseEntity@@UAEXPAV1@@Z
	DD	FLAT:?Blocked@CBaseEntity@@UAEXPAV1@@Z
	DD	FLAT:?MoveDone@CBaseEntity@@UAEXXZ
	DD	FLAT:?Respawn@CBaseEntity@@UAEPAV1@XZ
	DD	FLAT:?UpdateOwner@CBaseEntity@@UAEXXZ
	DD	FLAT:?FBecomeProne@CBaseEntity@@UAEHXZ
	DD	FLAT:?Center@CBaseEntity@@UAE?AVVector@@XZ
	DD	FLAT:?EyePosition@CBaseEntity@@UAE?AVVector@@XZ
	DD	FLAT:?EarPosition@CBaseEntity@@UAE?AVVector@@XZ
	DD	FLAT:?BodyTarget@CBaseEntity@@UAE?AVVector@@ABV2@@Z
	DD	FLAT:?IsPointSized@CBaseEntity@@UBEHXZ
	DD	FLAT:?Illumination@CBaseEntity@@UAEHXZ
	DD	FLAT:?FVisible@CBaseEntity@@UAEHABVVector@@@Z
	DD	FLAT:?FVisible@CBaseEntity@@UAEHPAV1@@Z
	DD	FLAT:?ShouldCollide@CBaseEntity@@UAEHPAV1@@Z
	DD	FLAT:?ClearEffects@CBaseEntity@@UAEXXZ
CONST	ENDS
;	COMDAT ??_C@_0L@JIJDCONP@customname?$AA@
CONST	SEGMENT
??_C@_0L@JIJDCONP@customname?$AA@ DB 'customname', 00H	; `string'
CONST	ENDS
;	COMDAT ??_C@_0N@JILDNHAP@vlight_cache?$AA@
CONST	SEGMENT
??_C@_0N@JILDNHAP@vlight_cache?$AA@ DB 'vlight_cache', 00H ; `string'
CONST	ENDS
;	COMDAT ??_C@_0L@IKCANML@reflection?$AA@
CONST	SEGMENT
??_C@_0L@IKCANML@reflection?$AA@ DB 'reflection', 00H	; `string'
CONST	ENDS
;	COMDAT ??_C@_05IAKJCFIM@style?$AA@
CONST	SEGMENT
??_C@_05IAKJCFIM@style?$AA@ DB 'style', 00H		; `string'
CONST	ENDS
;	COMDAT ??_C@_0M@EAELDHJO@parentflags?$AA@
CONST	SEGMENT
??_C@_0M@EAELDHJO@parentflags?$AA@ DB 'parentflags', 00H ; `string'
CONST	ENDS
;	COMDAT ??_C@_08JJJAOBDI@movewith?$AA@
CONST	SEGMENT
??_C@_08JJJAOBDI@movewith?$AA@ DB 'movewith', 00H	; `string'
CONST	ENDS
;	COMDAT ??_C@_06MLKDMCBD@parent?$AA@
CONST	SEGMENT
??_C@_06MLKDMCBD@parent?$AA@ DB 'parent', 00H		; `string'
CONST	ENDS
;	COMDAT ??_7CBaseEntity@@6B@
CONST	SEGMENT
??_7CBaseEntity@@6B@ DD FLAT:??_R4CBaseEntity@@6B@	; CBaseEntity::`vftable'
	DD	FLAT:?GetDataDescMap@CBaseEntity@@UAEPAUdatamap_s@@XZ
	DD	FLAT:?Spawn@CBaseEntity@@UAEXXZ
	DD	FLAT:?Precache@CBaseEntity@@UAEXXZ
	DD	FLAT:?KeyValue@CBaseEntity@@UAEXPAUKeyValueData_s@@@Z
	DD	FLAT:?Save@CBaseEntity@@UAEHAAVCSave@@@Z
	DD	FLAT:?Restore@CBaseEntity@@UAEHAAVCRestore@@@Z
	DD	FLAT:?ObjectCaps@CBaseEntity@@UAEHXZ
	DD	FLAT:?Activate@CBaseEntity@@UAEXXZ
	DD	FLAT:?OnChangeLevel@CBaseEntity@@UAEXXZ
	DD	FLAT:?OnTeleport@CBaseEntity@@UAEXXZ
	DD	FLAT:?PortalSleep@CBaseEntity@@UAEXM@Z
	DD	FLAT:?StartMessage@CBaseEntity@@UAEXPAVCBasePlayer@@@Z
	DD	FLAT:?GetPosition@CBaseEntity@@UAEMXZ
	DD	FLAT:?OnChangeParent@CBaseEntity@@UAEXXZ
	DD	FLAT:?OnClearParent@CBaseEntity@@UAEXXZ
	DD	FLAT:?OnRemove@CBaseEntity@@UAEXXZ
	DD	FLAT:?SetObjectCollisionBox@CBaseEntity@@UAEXXZ
	DD	FLAT:?Classify@CBaseEntity@@UAEHXZ
	DD	FLAT:?DeathNotice@CBaseEntity@@UAEXPAUentvars_s@@@Z
	DD	FLAT:?IsRigidBody@CBaseEntity@@UAEHXZ
	DD	FLAT:?SetNextThink@CBaseEntity@@UAEXM@Z
	DD	FLAT:?GetState@CBaseEntity@@UAE?AW4STATE@@PAV1@@Z
	DD	FLAT:?GetState@CBaseEntity@@UAE?AW4STATE@@XZ
	DD	FLAT:?TraceAttack@CBaseEntity@@UAEXPAUentvars_s@@MVVector@@PAUgametrace_s@@H@Z
	DD	FLAT:?TakeDamage@CBaseEntity@@UAEHPAUentvars_s@@0MH@Z
	DD	FLAT:?TakeHealth@CBaseEntity@@UAEHMH@Z
	DD	FLAT:?TakeArmor@CBaseEntity@@UAEHMH@Z
	DD	FLAT:?Killed@CBaseEntity@@UAEXPAUentvars_s@@H@Z
	DD	FLAT:?BloodColor@CBaseEntity@@UAEHXZ
	DD	FLAT:?TraceBleed@CBaseEntity@@UAEXMVVector@@PAUgametrace_s@@H@Z
	DD	FLAT:?IsTriggered@CBaseEntity@@UAEHPAV1@@Z
	DD	FLAT:?MyMonsterPointer@CBaseEntity@@UAEPAVCBaseMonster@@XZ
	DD	FLAT:?MySquadMonsterPointer@CBaseEntity@@UAEPAVCSquadMonster@@XZ
	DD	FLAT:?GetToggleState@CBaseEntity@@UAEHXZ
	DD	FLAT:?AddPoints@CBaseEntity@@UAEXHH@Z
	DD	FLAT:?AddPointsToTeam@CBaseEntity@@UAEXHH@Z
	DD	FLAT:?AddPlayerItem@CBaseEntity@@UAEHPAVCBasePlayerItem@@@Z
	DD	FLAT:?RemovePlayerItem@CBaseEntity@@UAEHPAVCBasePlayerItem@@@Z
	DD	FLAT:?GiveAmmo@CBaseEntity@@UAEHHPADH@Z
	DD	FLAT:?GetDelay@CBaseEntity@@UAEMXZ
	DD	FLAT:?IsMoving@CBaseEntity@@UAEHXZ
	DD	FLAT:?OverrideReset@CBaseEntity@@UAEXXZ
	DD	FLAT:?TransferReset@CBaseEntity@@UAEXXZ
	DD	FLAT:?DamageDecal@CBaseEntity@@UAEHH@Z
	DD	FLAT:?SetToggleState@CBaseEntity@@UAEXH@Z
	DD	FLAT:?StartSneaking@CBaseEntity@@UAEXXZ
	DD	FLAT:?StopSneaking@CBaseEntity@@UAEXXZ
	DD	FLAT:?OnControls@CBaseEntity@@UAEHPAV1@@Z
	DD	FLAT:?IsSneaking@CBaseEntity@@UAEHXZ
	DD	FLAT:?IsAlive@CBaseEntity@@UAEHXZ
	DD	FLAT:?IsBSPModel@CBaseEntity@@UAEHXZ
	DD	FLAT:?IsCustomModel@CBaseEntity@@UAEHXZ
	DD	FLAT:?ReflectGauss@CBaseEntity@@UAEHXZ
	DD	FLAT:?HasTarget@CBaseEntity@@UAEHH@Z
	DD	FLAT:?IsInWorld@CBaseEntity@@UAEHH@Z
	DD	FLAT:?IsPlayer@CBaseEntity@@UAEHXZ
	DD	FLAT:?IsNetClient@CBaseEntity@@UAEHXZ
	DD	FLAT:?IsMonster@CBaseEntity@@UAEHXZ
	DD	FLAT:?IsPushable@CBaseEntity@@UAEHXZ
	DD	FLAT:?IsProjectile@CBaseEntity@@UAEHXZ
	DD	FLAT:?IsFuncScreen@CBaseEntity@@UAEHXZ
	DD	FLAT:?IsPortal@CBaseEntity@@UAEHXZ
	DD	FLAT:?IsTank@CBaseEntity@@UAEHXZ
	DD	FLAT:?IsMover@CBaseEntity@@UAEHXZ
	DD	FLAT:?IsBreakable@CBaseEntity@@UAEHXZ
	DD	FLAT:?TeamID@CBaseEntity@@UAEPBDXZ
	DD	FLAT:?AddSpawnFlags@CBaseEntity@@UAEXH@Z
	DD	FLAT:?HasSpawnFlags@CBaseEntity@@UBE_NH@Z
	DD	FLAT:?SetFadeDistance@CBaseEntity@@UAEXH@Z
	DD	FLAT:?SetFlag@CBaseEntity@@UAEXH@Z
	DD	FLAT:?HasFlag@CBaseEntity@@UBE_NH@Z
	DD	FLAT:?RemoveFlag@CBaseEntity@@UAEXH@Z
	DD	FLAT:?SetNullModel@CBaseEntity@@UAEXXZ
	DD	FLAT:?OnPickupObject@CBaseEntity@@UAEXXZ
	DD	FLAT:?OnDropObject@CBaseEntity@@UAEXXZ
	DD	FLAT:?GetNextTarget@CBaseEntity@@UAEPAV1@XZ
	DD	FLAT:?Think@CBaseEntity@@UAEXXZ
	DD	FLAT:?Use@CBaseEntity@@UAEXPAV1@0W4USE_TYPE@@M@Z
	DD	FLAT:?Touch@CBaseEntity@@UAEXPAV1@@Z
	DD	FLAT:?Blocked@CBaseEntity@@UAEXPAV1@@Z
	DD	FLAT:?MoveDone@CBaseEntity@@UAEXXZ
	DD	FLAT:?Respawn@CBaseEntity@@UAEPAV1@XZ
	DD	FLAT:?UpdateOwner@CBaseEntity@@UAEXXZ
	DD	FLAT:?FBecomeProne@CBaseEntity@@UAEHXZ
	DD	FLAT:?Center@CBaseEntity@@UAE?AVVector@@XZ
	DD	FLAT:?EyePosition@CBaseEntity@@UAE?AVVector@@XZ
	DD	FLAT:?EarPosition@CBaseEntity@@UAE?AVVector@@XZ
	DD	FLAT:?BodyTarget@CBaseEntity@@UAE?AVVector@@ABV2@@Z
	DD	FLAT:?IsPointSized@CBaseEntity@@UBEHXZ
	DD	FLAT:?Illumination@CBaseEntity@@UAEHXZ
	DD	FLAT:?FVisible@CBaseEntity@@UAEHABVVector@@@Z
	DD	FLAT:?FVisible@CBaseEntity@@UAEHPAV1@@Z
	DD	FLAT:?ShouldCollide@CBaseEntity@@UAEHPAV1@@Z
	DD	FLAT:?ClearEffects@CBaseEntity@@UAEXXZ
CONST	ENDS
;	COMDAT ??_7IEntityFactory@@6B@
CONST	SEGMENT
??_7IEntityFactory@@6B@ DD FLAT:??_R4IEntityFactory@@6B@ ; IEntityFactory::`vftable'
	DD	FLAT:__purecall
	DD	FLAT:__purecall
	DD	FLAT:__purecall
CONST	ENDS
;	COMDAT ??_C@_00CNPNBAHC@?$AA@
CONST	SEGMENT
??_C@_00CNPNBAHC@?$AA@ DB 00H				; `string'
CONST	ENDS
;	COMDAT xdata$x
xdata$x	SEGMENT
__unwindtable$??$GetClassPtr@VCPython@@@@YAPAVCPython@@PAV0@PBD@Z DD 0ffffffffH
	DD	FLAT:__unwindfunclet$??$GetClassPtr@VCPython@@@@YAPAVCPython@@PAV0@PBD@Z$0
__ehfuncinfo$??$GetClassPtr@VCPython@@@@YAPAVCPython@@PAV0@PBD@Z DD 019930522H
	DD	01H
	DD	FLAT:__unwindtable$??$GetClassPtr@VCPython@@@@YAPAVCPython@@PAV0@PBD@Z
	DD	2 DUP(00H)
	DD	2 DUP(00H)
	DD	00H
	DD	01H
xdata$x	ENDS
;	COMDAT xdata$x
xdata$x	SEGMENT
__unwindtable$??$GetClassPtr@VCPythonAmmo@@@@YAPAVCPythonAmmo@@PAV0@PBD@Z DD 0ffffffffH
	DD	FLAT:__unwindfunclet$??$GetClassPtr@VCPythonAmmo@@@@YAPAVCPythonAmmo@@PAV0@PBD@Z$0
__ehfuncinfo$??$GetClassPtr@VCPythonAmmo@@@@YAPAVCPythonAmmo@@PAV0@PBD@Z DD 019930522H
	DD	01H
	DD	FLAT:__unwindtable$??$GetClassPtr@VCPythonAmmo@@@@YAPAVCPythonAmmo@@PAV0@PBD@Z
	DD	2 DUP(00H)
	DD	2 DUP(00H)
	DD	00H
	DD	01H
xdata$x	ENDS
;	COMDAT xdata$x
xdata$x	SEGMENT
__unwindtable$??0CBaseEntity@@QAE@XZ DD 0ffffffffH
	DD	FLAT:__unwindfunclet$??0CBaseEntity@@QAE@XZ$0
__ehfuncinfo$??0CBaseEntity@@QAE@XZ DD 019930522H
	DD	01H
	DD	FLAT:__unwindtable$??0CBaseEntity@@QAE@XZ
	DD	2 DUP(00H)
	DD	2 DUP(00H)
	DD	00H
	DD	01H
xdata$x	ENDS
CRT$XCU	SEGMENT
?weapon_357$initializer$@@3P6AXXZA DD FLAT:??__Eweapon_357@@YAXXZ ; weapon_357$initializer$
CRT$XCU	ENDS
CRT$XCU	SEGMENT
?ammo_357$initializer$@@3P6AXXZA DD FLAT:??__Eammo_357@@YAXXZ ; ammo_357$initializer$
CRT$XCU	ENDS
; Function compile flags: /Odtp /ZI
; File d:\!diffusion 2020\source code 2022\client-server\server\cbase.h
;	COMDAT ??$GetClassPtr@VCPython@@@@YAPAVCPython@@PAV0@PBD@Z
_TEXT	SEGMENT
tv85 = -92						; size = 4
$T2 = -88						; size = 4
$T3 = -84						; size = 4
_pev$ = -16						; size = 4
__$EHRec$ = -12						; size = 12
_newEnt$ = 8						; size = 4
_className$ = 12					; size = 4
??$GetClassPtr@VCPython@@@@YAPAVCPython@@PAV0@PBD@Z PROC ; GetClassPtr<CPython>, COMDAT

; 1146 : {

	push	ebp
	mov	ebp, esp
	push	-1
	push	__ehhandler$??$GetClassPtr@VCPython@@@@YAPAVCPython@@PAV0@PBD@Z
	mov	eax, DWORD PTR fs:0
	push	eax
	sub	esp, 80					; 00000050H
	push	ebx
	push	esi
	push	edi
	mov	eax, DWORD PTR ___security_cookie
	xor	eax, ebp
	push	eax
	lea	eax, DWORD PTR __$EHRec$[ebp]
	mov	DWORD PTR fs:0, eax

; 1147 : 	entvars_t *pev = (entvars_t *)newEnt;

	mov	eax, DWORD PTR _newEnt$[ebp]
	mov	DWORD PTR _pev$[ebp], eax

; 1148 : 
; 1149 : 	// allocate entity if necessary
; 1150 : 	if (pev == NULL)

	cmp	DWORD PTR _pev$[ebp], 0
	jne	SHORT $LN2@GetClassPt

; 1151 : 		pev = VARS(CREATE_ENTITY());

	call	DWORD PTR ?g_engfuncs@@3Uenginefuncs_s@@A+84
	push	eax
	call	?VARS@@YAPAUentvars_s@@PAUedict_s@@@Z	; VARS
	add	esp, 4
	mov	DWORD PTR _pev$[ebp], eax
$LN2@GetClassPt:

; 1152 : 
; 1153 : 	// get the private data
; 1154 : 	newEnt = (T *)GET_PRIVATE(ENT(pev));

	mov	eax, DWORD PTR _pev$[ebp]
	push	eax
	call	?ENT@@YAPAUedict_s@@PBUentvars_s@@@Z	; ENT
	add	esp, 4
	push	eax
	call	?GET_PRIVATE@@YAPAXPAUedict_s@@@Z	; GET_PRIVATE
	add	esp, 4
	mov	DWORD PTR _newEnt$[ebp], eax

; 1155 : 
; 1156 : 	if (newEnt == NULL) 

	cmp	DWORD PTR _newEnt$[ebp], 0
	jne	SHORT $LN3@GetClassPt

; 1157 : 	{
; 1158 : 		// allocate private data 
; 1159 : 		newEnt = new(pev) T;

	mov	eax, DWORD PTR _pev$[ebp]
	push	eax
	push	1928					; 00000788H
	call	??2CBaseEntity@@SAPAXIPAUentvars_s@@@Z	; CBaseEntity::operator new
	add	esp, 8
	mov	DWORD PTR $T2[ebp], eax
	mov	DWORD PTR __$EHRec$[ebp+8], 0
	cmp	DWORD PTR $T2[ebp], 0
	je	SHORT $LN5@GetClassPt
	mov	ecx, DWORD PTR $T2[ebp]
	call	??0CPython@@QAE@XZ
	mov	DWORD PTR tv85[ebp], eax
	jmp	SHORT $LN6@GetClassPt
$LN5@GetClassPt:
	mov	DWORD PTR tv85[ebp], 0
$LN6@GetClassPt:
	mov	ecx, DWORD PTR tv85[ebp]
	mov	DWORD PTR $T3[ebp], ecx
	mov	DWORD PTR __$EHRec$[ebp+8], -1
	mov	edx, DWORD PTR $T3[ebp]
	mov	DWORD PTR _newEnt$[ebp], edx

; 1160 : 		newEnt->pev = pev;

	mov	eax, DWORD PTR _newEnt$[ebp]
	mov	ecx, DWORD PTR _pev$[ebp]
	mov	DWORD PTR [eax+4], ecx
$LN3@GetClassPt:

; 1161 : 	}
; 1162 : 	newEnt->SetClassname( className );

	mov	eax, DWORD PTR _className$[ebp]
	push	eax
	mov	ecx, DWORD PTR _newEnt$[ebp]
	call	?SetClassname@CBaseEntity@@QAEXPBD@Z	; CBaseEntity::SetClassname

; 1163 : 
; 1164 : 	return newEnt;

	mov	eax, DWORD PTR _newEnt$[ebp]

; 1165 : }

	mov	ecx, DWORD PTR __$EHRec$[ebp]
	mov	DWORD PTR fs:0, ecx
	pop	ecx
	pop	edi
	pop	esi
	pop	ebx
	mov	esp, ebp
	pop	ebp
	ret	0
_TEXT	ENDS
;	COMDAT text$x
text$x	SEGMENT
__unwindfunclet$??$GetClassPtr@VCPython@@@@YAPAVCPython@@PAV0@PBD@Z$0:
	mov	eax, DWORD PTR _pev$[ebp]
	push	eax
	mov	eax, DWORD PTR $T2[ebp]
	push	eax
	call	??3CBaseEntity@@SAXPAXPAUentvars_s@@@Z	; CBaseEntity::operator delete
	add	esp, 8
	ret	0
__ehhandler$??$GetClassPtr@VCPython@@@@YAPAVCPython@@PAV0@PBD@Z:
	mov	edx, DWORD PTR [esp+8]
	lea	eax, DWORD PTR [edx+12]
	mov	ecx, DWORD PTR [edx-96]
	xor	ecx, eax
	call	@__security_check_cookie@4
	mov	eax, OFFSET __ehfuncinfo$??$GetClassPtr@VCPython@@@@YAPAVCPython@@PAV0@PBD@Z
	jmp	___CxxFrameHandler3
text$x	ENDS
??$GetClassPtr@VCPython@@@@YAPAVCPython@@PAV0@PBD@Z ENDP ; GetClassPtr<CPython>
; Function compile flags: /Odtp /ZI
; File d:\!diffusion 2020\source code 2022\client-server\server\cbase.h
;	COMDAT ??$GetClassPtr@VCPythonAmmo@@@@YAPAVCPythonAmmo@@PAV0@PBD@Z
_TEXT	SEGMENT
tv85 = -92						; size = 4
$T2 = -88						; size = 4
$T3 = -84						; size = 4
_pev$ = -16						; size = 4
__$EHRec$ = -12						; size = 12
_newEnt$ = 8						; size = 4
_className$ = 12					; size = 4
??$GetClassPtr@VCPythonAmmo@@@@YAPAVCPythonAmmo@@PAV0@PBD@Z PROC ; GetClassPtr<CPythonAmmo>, COMDAT

; 1146 : {

	push	ebp
	mov	ebp, esp
	push	-1
	push	__ehhandler$??$GetClassPtr@VCPythonAmmo@@@@YAPAVCPythonAmmo@@PAV0@PBD@Z
	mov	eax, DWORD PTR fs:0
	push	eax
	sub	esp, 80					; 00000050H
	push	ebx
	push	esi
	push	edi
	mov	eax, DWORD PTR ___security_cookie
	xor	eax, ebp
	push	eax
	lea	eax, DWORD PTR __$EHRec$[ebp]
	mov	DWORD PTR fs:0, eax

; 1147 : 	entvars_t *pev = (entvars_t *)newEnt;

	mov	eax, DWORD PTR _newEnt$[ebp]
	mov	DWORD PTR _pev$[ebp], eax

; 1148 : 
; 1149 : 	// allocate entity if necessary
; 1150 : 	if (pev == NULL)

	cmp	DWORD PTR _pev$[ebp], 0
	jne	SHORT $LN2@GetClassPt

; 1151 : 		pev = VARS(CREATE_ENTITY());

	call	DWORD PTR ?g_engfuncs@@3Uenginefuncs_s@@A+84
	push	eax
	call	?VARS@@YAPAUentvars_s@@PAUedict_s@@@Z	; VARS
	add	esp, 4
	mov	DWORD PTR _pev$[ebp], eax
$LN2@GetClassPt:

; 1152 : 
; 1153 : 	// get the private data
; 1154 : 	newEnt = (T *)GET_PRIVATE(ENT(pev));

	mov	eax, DWORD PTR _pev$[ebp]
	push	eax
	call	?ENT@@YAPAUedict_s@@PBUentvars_s@@@Z	; ENT
	add	esp, 4
	push	eax
	call	?GET_PRIVATE@@YAPAXPAUedict_s@@@Z	; GET_PRIVATE
	add	esp, 4
	mov	DWORD PTR _newEnt$[ebp], eax

; 1155 : 
; 1156 : 	if (newEnt == NULL) 

	cmp	DWORD PTR _newEnt$[ebp], 0
	jne	SHORT $LN3@GetClassPt

; 1157 : 	{
; 1158 : 		// allocate private data 
; 1159 : 		newEnt = new(pev) T;

	mov	eax, DWORD PTR _pev$[ebp]
	push	eax
	push	1804					; 0000070cH
	call	??2CBaseEntity@@SAPAXIPAUentvars_s@@@Z	; CBaseEntity::operator new
	add	esp, 8
	mov	DWORD PTR $T2[ebp], eax
	mov	DWORD PTR __$EHRec$[ebp+8], 0
	cmp	DWORD PTR $T2[ebp], 0
	je	SHORT $LN5@GetClassPt
	mov	ecx, DWORD PTR $T2[ebp]
	call	??0CPythonAmmo@@QAE@XZ
	mov	DWORD PTR tv85[ebp], eax
	jmp	SHORT $LN6@GetClassPt
$LN5@GetClassPt:
	mov	DWORD PTR tv85[ebp], 0
$LN6@GetClassPt:
	mov	ecx, DWORD PTR tv85[ebp]
	mov	DWORD PTR $T3[ebp], ecx
	mov	DWORD PTR __$EHRec$[ebp+8], -1
	mov	edx, DWORD PTR $T3[ebp]
	mov	DWORD PTR _newEnt$[ebp], edx

; 1160 : 		newEnt->pev = pev;

	mov	eax, DWORD PTR _newEnt$[ebp]
	mov	ecx, DWORD PTR _pev$[ebp]
	mov	DWORD PTR [eax+4], ecx
$LN3@GetClassPt:

; 1161 : 	}
; 1162 : 	newEnt->SetClassname( className );

	mov	eax, DWORD PTR _className$[ebp]
	push	eax
	mov	ecx, DWORD PTR _newEnt$[ebp]
	call	?SetClassname@CBaseEntity@@QAEXPBD@Z	; CBaseEntity::SetClassname

; 1163 : 
; 1164 : 	return newEnt;

	mov	eax, DWORD PTR _newEnt$[ebp]

; 1165 : }

	mov	ecx, DWORD PTR __$EHRec$[ebp]
	mov	DWORD PTR fs:0, ecx
	pop	ecx
	pop	edi
	pop	esi
	pop	ebx
	mov	esp, ebp
	pop	ebp
	ret	0
_TEXT	ENDS
;	COMDAT text$x
text$x	SEGMENT
__unwindfunclet$??$GetClassPtr@VCPythonAmmo@@@@YAPAVCPythonAmmo@@PAV0@PBD@Z$0:
	mov	eax, DWORD PTR _pev$[ebp]
	push	eax
	mov	eax, DWORD PTR $T2[ebp]
	push	eax
	call	??3CBaseEntity@@SAXPAXPAUentvars_s@@@Z	; CBaseEntity::operator delete
	add	esp, 8
	ret	0
__ehhandler$??$GetClassPtr@VCPythonAmmo@@@@YAPAVCPythonAmmo@@PAV0@PBD@Z:
	mov	edx, DWORD PTR [esp+8]
	lea	eax, DWORD PTR [edx+12]
	mov	ecx, DWORD PTR [edx-96]
	xor	ecx, eax
	call	@__security_check_cookie@4
	mov	eax, OFFSET __ehfuncinfo$??$GetClassPtr@VCPythonAmmo@@@@YAPAVCPythonAmmo@@PAV0@PBD@Z
	jmp	___CxxFrameHandler3
text$x	ENDS
??$GetClassPtr@VCPythonAmmo@@@@YAPAVCPythonAmmo@@PAV0@PBD@Z ENDP ; GetClassPtr<CPythonAmmo>
; Function compile flags: /Odtp /ZI
; File d:\!diffusion 2020\source code 2022\client-server\server\weapons\weapon_deagle.cpp
;	COMDAT ??__Eammo_357@@YAXXZ
text$di	SEGMENT
??__Eammo_357@@YAXXZ PROC				; `dynamic initializer for 'ammo_357'', COMDAT

; 289  : LINK_ENTITY_TO_CLASS( ammo_357, CPythonAmmo );

	push	ebp
	mov	ebp, esp
	sub	esp, 64					; 00000040H
	push	ebx
	push	esi
	push	edi
	push	OFFSET ??_C@_08OALJNDGM@ammo_357?$AA@
	mov	ecx, OFFSET ?ammo_357@@3V?$CEntityFactory@VCPythonAmmo@@@@A
	call	??0?$CEntityFactory@VCPythonAmmo@@@@QAE@PBD@Z ; CEntityFactory<CPythonAmmo>::CEntityFactory<CPythonAmmo>
	pop	edi
	pop	esi
	pop	ebx
	mov	esp, ebp
	pop	ebp
	ret	0
??__Eammo_357@@YAXXZ ENDP				; `dynamic initializer for 'ammo_357''
text$di	ENDS
; Function compile flags: /Odtp /ZI
; File d:\!diffusion 2020\source code 2022\client-server\server\util.h
;	COMDAT ?GetEntitySize@?$CEntityFactory@VCPythonAmmo@@@@UAEIXZ
_TEXT	SEGMENT
_this$ = -4						; size = 4
?GetEntitySize@?$CEntityFactory@VCPythonAmmo@@@@UAEIXZ PROC ; CEntityFactory<CPythonAmmo>::GetEntitySize, COMDAT
; _this$ = ecx

; 103  : 	{

	push	ebp
	mov	ebp, esp
	sub	esp, 68					; 00000044H
	push	ebx
	push	esi
	push	edi
	mov	DWORD PTR _this$[ebp], ecx

; 104  : 		return sizeof(T);

	mov	eax, 1804				; 0000070cH

; 105  : 	}

	pop	edi
	pop	esi
	pop	ebx
	mov	esp, ebp
	pop	ebp
	ret	0
?GetEntitySize@?$CEntityFactory@VCPythonAmmo@@@@UAEIXZ ENDP ; CEntityFactory<CPythonAmmo>::GetEntitySize
_TEXT	ENDS
; Function compile flags: /Odtp /ZI
; File d:\!diffusion 2020\source code 2022\client-server\server\util.h
;	COMDAT ?Destroy@?$CEntityFactory@VCPythonAmmo@@@@UAEXPAVCBaseEntity@@@Z
_TEXT	SEGMENT
_this$ = -4						; size = 4
_pEntity$ = 8						; size = 4
?Destroy@?$CEntityFactory@VCPythonAmmo@@@@UAEXPAVCBaseEntity@@@Z PROC ; CEntityFactory<CPythonAmmo>::Destroy, COMDAT
; _this$ = ecx

; 98   : 	{

	push	ebp
	mov	ebp, esp
	sub	esp, 68					; 00000044H
	push	ebx
	push	esi
	push	edi
	mov	DWORD PTR _this$[ebp], ecx

; 99   : 		UTIL_Remove( pEntity );

	mov	eax, DWORD PTR _pEntity$[ebp]
	push	eax
	call	?UTIL_Remove@@YAXPAVCBaseEntity@@@Z	; UTIL_Remove
	add	esp, 4

; 100  : 	}

	pop	edi
	pop	esi
	pop	ebx
	mov	esp, ebp
	pop	ebp
	ret	4
?Destroy@?$CEntityFactory@VCPythonAmmo@@@@UAEXPAVCBaseEntity@@@Z ENDP ; CEntityFactory<CPythonAmmo>::Destroy
_TEXT	ENDS
; Function compile flags: /Odtp /ZI
; File d:\!diffusion 2020\source code 2022\client-server\server\util.h
;	COMDAT ?Create@?$CEntityFactory@VCPythonAmmo@@@@UAEPAVCBaseEntity@@PBDPAUentvars_s@@@Z
_TEXT	SEGMENT
_pEnt$ = -8						; size = 4
_this$ = -4						; size = 4
_pClassName$ = 8					; size = 4
_pev$ = 12						; size = 4
?Create@?$CEntityFactory@VCPythonAmmo@@@@UAEPAVCBaseEntity@@PBDPAUentvars_s@@@Z PROC ; CEntityFactory<CPythonAmmo>::Create, COMDAT
; _this$ = ecx

; 92   : 	{

	push	ebp
	mov	ebp, esp
	sub	esp, 72					; 00000048H
	push	ebx
	push	esi
	push	edi
	mov	DWORD PTR _this$[ebp], ecx

; 93   : 		T* pEnt = GetClassPtr((T*)pev, pClassName);

	mov	eax, DWORD PTR _pClassName$[ebp]
	push	eax
	mov	ecx, DWORD PTR _pev$[ebp]
	push	ecx
	call	??$GetClassPtr@VCPythonAmmo@@@@YAPAVCPythonAmmo@@PAV0@PBD@Z ; GetClassPtr<CPythonAmmo>
	add	esp, 8
	mov	DWORD PTR _pEnt$[ebp], eax

; 94   : 		return pEnt;

	mov	eax, DWORD PTR _pEnt$[ebp]

; 95   : 	}

	pop	edi
	pop	esi
	pop	ebx
	mov	esp, ebp
	pop	ebp
	ret	8
?Create@?$CEntityFactory@VCPythonAmmo@@@@UAEPAVCBaseEntity@@PBDPAUentvars_s@@@Z ENDP ; CEntityFactory<CPythonAmmo>::Create
_TEXT	ENDS
; Function compile flags: /Odtp /ZI
; File d:\!diffusion 2020\source code 2022\client-server\server\util.h
;	COMDAT ??0?$CEntityFactory@VCPythonAmmo@@@@QAE@PBD@Z
_TEXT	SEGMENT
tv76 = -72						; size = 4
_this$ = -4						; size = 4
_pClassName$ = 8					; size = 4
??0?$CEntityFactory@VCPythonAmmo@@@@QAE@PBD@Z PROC	; CEntityFactory<CPythonAmmo>::CEntityFactory<CPythonAmmo>, COMDAT
; _this$ = ecx

; 86   : 	CEntityFactory( const char *pClassName )

	push	ebp
	mov	ebp, esp
	sub	esp, 72					; 00000048H
	push	ebx
	push	esi
	push	edi
	mov	DWORD PTR _this$[ebp], ecx

; 87   : 	{

	mov	ecx, DWORD PTR _this$[ebp]
	call	??0IEntityFactory@@QAE@XZ
	mov	eax, DWORD PTR _this$[ebp]
	mov	DWORD PTR [eax], OFFSET ??_7?$CEntityFactory@VCPythonAmmo@@@@6B@

; 88   : 		EntityFactoryDictionary()->InstallFactory( this, pClassName );

	call	?EntityFactoryDictionary@@YAPAVIEntityFactoryDictionary@@XZ ; EntityFactoryDictionary
	mov	DWORD PTR tv76[ebp], eax
	mov	eax, DWORD PTR _pClassName$[ebp]
	push	eax
	mov	ecx, DWORD PTR _this$[ebp]
	push	ecx
	mov	edx, DWORD PTR tv76[ebp]
	mov	eax, DWORD PTR [edx]
	mov	ecx, DWORD PTR tv76[ebp]
	mov	edx, DWORD PTR [eax]
	call	edx

; 89   : 	}

	mov	eax, DWORD PTR _this$[ebp]
	pop	edi
	pop	esi
	pop	ebx
	mov	esp, ebp
	pop	ebp
	ret	4
??0?$CEntityFactory@VCPythonAmmo@@@@QAE@PBD@Z ENDP	; CEntityFactory<CPythonAmmo>::CEntityFactory<CPythonAmmo>
_TEXT	ENDS
; Function compile flags: /Odtp /ZI
;	COMDAT ??0CPythonAmmo@@QAE@XZ
_TEXT	SEGMENT
_this$ = -4						; size = 4
??0CPythonAmmo@@QAE@XZ PROC				; CPythonAmmo::CPythonAmmo, COMDAT
; _this$ = ecx
	push	ebp
	mov	ebp, esp
	sub	esp, 68					; 00000044H
	push	ebx
	push	esi
	push	edi
	mov	DWORD PTR _this$[ebp], ecx
	mov	ecx, DWORD PTR _this$[ebp]
	call	??0CBasePlayerAmmo@@QAE@XZ
	mov	eax, DWORD PTR _this$[ebp]
	mov	DWORD PTR [eax], OFFSET ??_7CPythonAmmo@@6B@
	mov	eax, DWORD PTR _this$[ebp]
	pop	edi
	pop	esi
	pop	ebx
	mov	esp, ebp
	pop	ebp
	ret	0
??0CPythonAmmo@@QAE@XZ ENDP				; CPythonAmmo::CPythonAmmo
_TEXT	ENDS
; Function compile flags: /Odtp /ZI
; File d:\!diffusion 2020\source code 2022\client-server\server\weapons\weapon_deagle.cpp
;	COMDAT ?AddAmmo@CPythonAmmo@@EAEHPAVCBaseEntity@@@Z
_TEXT	SEGMENT
_this$ = -4						; size = 4
_pOther$ = 8						; size = 4
?AddAmmo@CPythonAmmo@@EAEHPAVCBaseEntity@@@Z PROC	; CPythonAmmo::AddAmmo, COMDAT
; _this$ = ecx

; 278  : 	{ 

	push	ebp
	mov	ebp, esp
	sub	esp, 68					; 00000044H
	push	ebx
	push	esi
	push	edi
	mov	DWORD PTR _this$[ebp], ecx

; 279  : 		if (pOther->GiveAmmo( AMMO_357BOX_GIVE, "357", _357_MAX_CARRY ) != -1)

	push	21					; 00000015H
	push	OFFSET ??_C@_03IOICPAOD@357?$AA@
	push	7
	mov	eax, DWORD PTR _pOther$[ebp]
	mov	edx, DWORD PTR [eax]
	mov	ecx, DWORD PTR _pOther$[ebp]
	mov	eax, DWORD PTR [edx+152]
	call	eax
	cmp	eax, -1
	je	SHORT $LN2@AddAmmo

; 280  : 		{
; 281  : 		//	EMIT_SOUND(ENT(pev), CHAN_ITEM, "items/9mmclip1.wav", 1, ATTN_NORM);
; 282  : 			PlayPickupSound( pOther );

	push	250					; 000000faH
	mov	eax, DWORD PTR _pOther$[ebp]
	push	eax
	call	?PlayPickupSound@@YAXPAVCBaseEntity@@H@Z ; PlayPickupSound
	add	esp, 8

; 283  : 			return TRUE;

	mov	eax, 1
	jmp	SHORT $LN1@AddAmmo
$LN2@AddAmmo:

; 284  : 		}
; 285  : 		return FALSE;

	xor	eax, eax
$LN1@AddAmmo:

; 286  : 	}

	pop	edi
	pop	esi
	pop	ebx
	mov	esp, ebp
	pop	ebp
	ret	4
?AddAmmo@CPythonAmmo@@EAEHPAVCBaseEntity@@@Z ENDP	; CPythonAmmo::AddAmmo
_TEXT	ENDS
; Function compile flags: /Odtp /ZI
; File d:\!diffusion 2020\source code 2022\client-server\server\weapons\weapon_deagle.cpp
;	COMDAT ?Precache@CPythonAmmo@@EAEXXZ
_TEXT	SEGMENT
_this$ = -4						; size = 4
?Precache@CPythonAmmo@@EAEXXZ PROC			; CPythonAmmo::Precache, COMDAT
; _this$ = ecx

; 273  : 	{

	push	ebp
	mov	ebp, esp
	sub	esp, 68					; 00000044H
	push	ebx
	push	esi
	push	edi
	mov	DWORD PTR _this$[ebp], ecx

; 274  : 		PRECACHE_MODEL ("models/w_357ammobox.mdl");

	push	OFFSET ??_C@_0BI@IPPCMDMI@models?1w_357ammobox?4mdl?$AA@
	call	DWORD PTR ?g_engfuncs@@3Uenginefuncs_s@@A
	add	esp, 4

; 275  : 		PRECACHE_SOUND("items/9mmclip1.wav");

	push	OFFSET ??_C@_0BD@BADMCPNB@items?19mmclip1?4wav?$AA@
	call	DWORD PTR ?g_engfuncs@@3Uenginefuncs_s@@A+4
	add	esp, 4

; 276  : 	}

	pop	edi
	pop	esi
	pop	ebx
	mov	esp, ebp
	pop	ebp
	ret	0
?Precache@CPythonAmmo@@EAEXXZ ENDP			; CPythonAmmo::Precache
_TEXT	ENDS
; Function compile flags: /Odtp /ZI
; File d:\!diffusion 2020\source code 2022\client-server\server\weapons\weapon_deagle.cpp
;	COMDAT ?Spawn@CPythonAmmo@@EAEXXZ
_TEXT	SEGMENT
_this$ = -4						; size = 4
?Spawn@CPythonAmmo@@EAEXXZ PROC				; CPythonAmmo::Spawn, COMDAT
; _this$ = ecx

; 267  : 	{ 

	push	ebp
	mov	ebp, esp
	sub	esp, 68					; 00000044H
	push	ebx
	push	esi
	push	edi
	mov	DWORD PTR _this$[ebp], ecx

; 268  : 		Precache( );

	mov	eax, DWORD PTR _this$[ebp]
	mov	edx, DWORD PTR [eax]
	mov	ecx, DWORD PTR _this$[ebp]
	mov	eax, DWORD PTR [edx+8]
	call	eax

; 269  : 		SET_MODEL(ENT(pev), "models/w_357ammobox.mdl");

	push	OFFSET ??_C@_0BI@IPPCMDMI@models?1w_357ammobox?4mdl?$AA@
	mov	eax, DWORD PTR _this$[ebp]
	mov	ecx, DWORD PTR [eax+4]
	push	ecx
	call	?ENT@@YAPAUedict_s@@PBUentvars_s@@@Z	; ENT
	add	esp, 4
	push	eax
	call	DWORD PTR ?g_engfuncs@@3Uenginefuncs_s@@A+8
	add	esp, 8

; 270  : 		CBasePlayerAmmo::Spawn( );

	mov	ecx, DWORD PTR _this$[ebp]
	call	?Spawn@CBasePlayerAmmo@@UAEXXZ		; CBasePlayerAmmo::Spawn

; 271  : 	}

	pop	edi
	pop	esi
	pop	ebx
	mov	esp, ebp
	pop	ebp
	ret	0
?Spawn@CPythonAmmo@@EAEXXZ ENDP				; CPythonAmmo::Spawn
_TEXT	ENDS
; Function compile flags: /Odtp /ZI
; File d:\!diffusion 2020\source code 2022\client-server\server\weapons\weapon_deagle.cpp
;	COMDAT ??__Eweapon_357@@YAXXZ
text$di	SEGMENT
??__Eweapon_357@@YAXXZ PROC				; `dynamic initializer for 'weapon_357'', COMDAT

; 56   : LINK_ENTITY_TO_CLASS( weapon_357, CPython );

	push	ebp
	mov	ebp, esp
	sub	esp, 64					; 00000040H
	push	ebx
	push	esi
	push	edi
	push	OFFSET ??_C@_0L@DGJNBIBM@weapon_357?$AA@
	mov	ecx, OFFSET ?weapon_357@@3V?$CEntityFactory@VCPython@@@@A
	call	??0?$CEntityFactory@VCPython@@@@QAE@PBD@Z ; CEntityFactory<CPython>::CEntityFactory<CPython>
	pop	edi
	pop	esi
	pop	ebx
	mov	esp, ebp
	pop	ebp
	ret	0
??__Eweapon_357@@YAXXZ ENDP				; `dynamic initializer for 'weapon_357''
text$di	ENDS
; Function compile flags: /Odtp /ZI
; File d:\!diffusion 2020\source code 2022\client-server\server\weapons\weapon_deagle.cpp
;	COMDAT ??__Eweapon_python@@YAXXZ
text$di	SEGMENT
??__Eweapon_python@@YAXXZ PROC				; `dynamic initializer for 'weapon_python'', COMDAT

; 55   : LINK_ENTITY_TO_CLASS( weapon_python, CPython );

	push	ebp
	mov	ebp, esp
	sub	esp, 64					; 00000040H
	push	ebx
	push	esi
	push	edi
	push	OFFSET ??_C@_0O@ENNELPDA@weapon_python?$AA@
	mov	ecx, OFFSET ?weapon_python@@3V?$CEntityFactory@VCPython@@@@A
	call	??0?$CEntityFactory@VCPython@@@@QAE@PBD@Z ; CEntityFactory<CPython>::CEntityFactory<CPython>
	pop	edi
	pop	esi
	pop	ebx
	mov	esp, ebp
	pop	ebp
	ret	0
??__Eweapon_python@@YAXXZ ENDP				; `dynamic initializer for 'weapon_python''
text$di	ENDS
; Function compile flags: /Odtp /ZI
; File d:\!diffusion 2020\source code 2022\client-server\server\util.h
;	COMDAT ?GetEntitySize@?$CEntityFactory@VCPython@@@@UAEIXZ
_TEXT	SEGMENT
_this$ = -4						; size = 4
?GetEntitySize@?$CEntityFactory@VCPython@@@@UAEIXZ PROC	; CEntityFactory<CPython>::GetEntitySize, COMDAT
; _this$ = ecx

; 103  : 	{

	push	ebp
	mov	ebp, esp
	sub	esp, 68					; 00000044H
	push	ebx
	push	esi
	push	edi
	mov	DWORD PTR _this$[ebp], ecx

; 104  : 		return sizeof(T);

	mov	eax, 1928				; 00000788H

; 105  : 	}

	pop	edi
	pop	esi
	pop	ebx
	mov	esp, ebp
	pop	ebp
	ret	0
?GetEntitySize@?$CEntityFactory@VCPython@@@@UAEIXZ ENDP	; CEntityFactory<CPython>::GetEntitySize
_TEXT	ENDS
; Function compile flags: /Odtp /ZI
; File d:\!diffusion 2020\source code 2022\client-server\server\util.h
;	COMDAT ?Destroy@?$CEntityFactory@VCPython@@@@UAEXPAVCBaseEntity@@@Z
_TEXT	SEGMENT
_this$ = -4						; size = 4
_pEntity$ = 8						; size = 4
?Destroy@?$CEntityFactory@VCPython@@@@UAEXPAVCBaseEntity@@@Z PROC ; CEntityFactory<CPython>::Destroy, COMDAT
; _this$ = ecx

; 98   : 	{

	push	ebp
	mov	ebp, esp
	sub	esp, 68					; 00000044H
	push	ebx
	push	esi
	push	edi
	mov	DWORD PTR _this$[ebp], ecx

; 99   : 		UTIL_Remove( pEntity );

	mov	eax, DWORD PTR _pEntity$[ebp]
	push	eax
	call	?UTIL_Remove@@YAXPAVCBaseEntity@@@Z	; UTIL_Remove
	add	esp, 4

; 100  : 	}

	pop	edi
	pop	esi
	pop	ebx
	mov	esp, ebp
	pop	ebp
	ret	4
?Destroy@?$CEntityFactory@VCPython@@@@UAEXPAVCBaseEntity@@@Z ENDP ; CEntityFactory<CPython>::Destroy
_TEXT	ENDS
; Function compile flags: /Odtp /ZI
; File d:\!diffusion 2020\source code 2022\client-server\server\util.h
;	COMDAT ?Create@?$CEntityFactory@VCPython@@@@UAEPAVCBaseEntity@@PBDPAUentvars_s@@@Z
_TEXT	SEGMENT
_pEnt$ = -8						; size = 4
_this$ = -4						; size = 4
_pClassName$ = 8					; size = 4
_pev$ = 12						; size = 4
?Create@?$CEntityFactory@VCPython@@@@UAEPAVCBaseEntity@@PBDPAUentvars_s@@@Z PROC ; CEntityFactory<CPython>::Create, COMDAT
; _this$ = ecx

; 92   : 	{

	push	ebp
	mov	ebp, esp
	sub	esp, 72					; 00000048H
	push	ebx
	push	esi
	push	edi
	mov	DWORD PTR _this$[ebp], ecx

; 93   : 		T* pEnt = GetClassPtr((T*)pev, pClassName);

	mov	eax, DWORD PTR _pClassName$[ebp]
	push	eax
	mov	ecx, DWORD PTR _pev$[ebp]
	push	ecx
	call	??$GetClassPtr@VCPython@@@@YAPAVCPython@@PAV0@PBD@Z ; GetClassPtr<CPython>
	add	esp, 8
	mov	DWORD PTR _pEnt$[ebp], eax

; 94   : 		return pEnt;

	mov	eax, DWORD PTR _pEnt$[ebp]

; 95   : 	}

	pop	edi
	pop	esi
	pop	ebx
	mov	esp, ebp
	pop	ebp
	ret	8
?Create@?$CEntityFactory@VCPython@@@@UAEPAVCBaseEntity@@PBDPAUentvars_s@@@Z ENDP ; CEntityFactory<CPython>::Create
_TEXT	ENDS
; Function compile flags: /Odtp /ZI
; File d:\!diffusion 2020\source code 2022\client-server\server\util.h
;	COMDAT ??0?$CEntityFactory@VCPython@@@@QAE@PBD@Z
_TEXT	SEGMENT
tv76 = -72						; size = 4
_this$ = -4						; size = 4
_pClassName$ = 8					; size = 4
??0?$CEntityFactory@VCPython@@@@QAE@PBD@Z PROC		; CEntityFactory<CPython>::CEntityFactory<CPython>, COMDAT
; _this$ = ecx

; 86   : 	CEntityFactory( const char *pClassName )

	push	ebp
	mov	ebp, esp
	sub	esp, 72					; 00000048H
	push	ebx
	push	esi
	push	edi
	mov	DWORD PTR _this$[ebp], ecx

; 87   : 	{

	mov	ecx, DWORD PTR _this$[ebp]
	call	??0IEntityFactory@@QAE@XZ
	mov	eax, DWORD PTR _this$[ebp]
	mov	DWORD PTR [eax], OFFSET ??_7?$CEntityFactory@VCPython@@@@6B@

; 88   : 		EntityFactoryDictionary()->InstallFactory( this, pClassName );

	call	?EntityFactoryDictionary@@YAPAVIEntityFactoryDictionary@@XZ ; EntityFactoryDictionary
	mov	DWORD PTR tv76[ebp], eax
	mov	eax, DWORD PTR _pClassName$[ebp]
	push	eax
	mov	ecx, DWORD PTR _this$[ebp]
	push	ecx
	mov	edx, DWORD PTR tv76[ebp]
	mov	eax, DWORD PTR [edx]
	mov	ecx, DWORD PTR tv76[ebp]
	mov	edx, DWORD PTR [eax]
	call	edx

; 89   : 	}

	mov	eax, DWORD PTR _this$[ebp]
	pop	edi
	pop	esi
	pop	ebx
	mov	esp, ebp
	pop	ebp
	ret	4
??0?$CEntityFactory@VCPython@@@@QAE@PBD@Z ENDP		; CEntityFactory<CPython>::CEntityFactory<CPython>
_TEXT	ENDS
; Function compile flags: /Odtp /ZI
;	COMDAT ??0CPython@@QAE@XZ
_TEXT	SEGMENT
_this$ = -4						; size = 4
??0CPython@@QAE@XZ PROC					; CPython::CPython, COMDAT
; _this$ = ecx
	push	ebp
	mov	ebp, esp
	sub	esp, 68					; 00000044H
	push	ebx
	push	esi
	push	edi
	mov	DWORD PTR _this$[ebp], ecx
	mov	ecx, DWORD PTR _this$[ebp]
	call	??0CBasePlayerWeapon@@QAE@XZ
	mov	eax, DWORD PTR _this$[ebp]
	mov	DWORD PTR [eax], OFFSET ??_7CPython@@6B@
	mov	eax, DWORD PTR _this$[ebp]
	pop	edi
	pop	esi
	pop	ebx
	mov	esp, ebp
	pop	ebp
	ret	0
??0CPython@@QAE@XZ ENDP					; CPython::CPython
_TEXT	ENDS
; Function compile flags: /Odtp /ZI
; File d:\!diffusion 2020\source code 2022\client-server\server\weapons\weapon_deagle.cpp
;	COMDAT ?WeaponIdle@CPython@@UAEXXZ
_TEXT	SEGMENT
$T1 = -88						; size = 12
_flRand$ = -12						; size = 4
_iAnim$ = -8						; size = 4
_this$ = -4						; size = 4
?WeaponIdle@CPython@@UAEXXZ PROC			; CPython::WeaponIdle, COMDAT
; _this$ = ecx

; 229  : {

	push	ebp
	mov	ebp, esp
	sub	esp, 88					; 00000058H
	push	ebx
	push	esi
	push	edi
	mov	DWORD PTR _this$[ebp], ecx

; 230  : 	ResetEmptySound( );

	mov	eax, DWORD PTR _this$[ebp]
	mov	edx, DWORD PTR [eax]
	mov	ecx, DWORD PTR _this$[ebp]
	mov	eax, DWORD PTR [edx+468]
	call	eax

; 231  : 
; 232  : 	m_pPlayer->GetAutoaimVector( AUTOAIM_10DEGREES );

	push	ecx
	movss	xmm0, DWORD PTR __real@3e31d0d4
	movss	DWORD PTR [esp], xmm0
	lea	eax, DWORD PTR $T1[ebp]
	push	eax
	mov	ecx, DWORD PTR _this$[ebp]
	mov	ecx, DWORD PTR [ecx+1856]
	call	?GetAutoaimVector@CBasePlayer@@QAE?AVVector@@M@Z ; CBasePlayer::GetAutoaimVector

; 233  : 
; 234  : 	if (m_flTimeWeaponIdle > gpGlobals->time)

	mov	eax, DWORD PTR _this$[ebp]
	mov	ecx, DWORD PTR ?gpGlobals@@3PAUglobalvars_t@@A ; gpGlobals
	movss	xmm0, DWORD PTR [eax+1892]
	comiss	xmm0, DWORD PTR [ecx]
	jbe	SHORT $LN2@WeaponIdle

; 235  : 		return;

	jmp	$LN1@WeaponIdle
$LN2@WeaponIdle:

; 236  : 
; 237  : 	int iAnim;
; 238  : 	float flRand = RANDOM_FLOAT(0, 1);

	push	ecx
	movss	xmm0, DWORD PTR __real@3f800000
	movss	DWORD PTR [esp], xmm0
	push	ecx
	xorps	xmm0, xmm0
	movss	DWORD PTR [esp], xmm0
	call	DWORD PTR ?g_engfuncs@@3Uenginefuncs_s@@A+364
	add	esp, 8
	fstp	DWORD PTR _flRand$[ebp]

; 239  : 	if (flRand <= 0.5)

	cvtss2sd xmm0, DWORD PTR _flRand$[ebp]
	movsd	xmm1, QWORD PTR __real@3fe0000000000000
	comisd	xmm1, xmm0
	jb	SHORT $LN3@WeaponIdle

; 240  : 	{
; 241  : 		iAnim = PYTHON_IDLE1;

	mov	DWORD PTR _iAnim$[ebp], 0

; 242  : 		m_flTimeWeaponIdle = gpGlobals->time + (70.0/30.0);

	mov	eax, DWORD PTR ?gpGlobals@@3PAUglobalvars_t@@A ; gpGlobals
	cvtss2sd xmm0, DWORD PTR [eax]
	addsd	xmm0, QWORD PTR __real@4002aaaaaaaaaaab
	cvtsd2ss xmm0, xmm0
	mov	ecx, DWORD PTR _this$[ebp]
	movss	DWORD PTR [ecx+1892], xmm0
	jmp	$LN8@WeaponIdle
$LN3@WeaponIdle:

; 243  : 	}
; 244  : 	else if (flRand <= 0.7)

	cvtss2sd xmm0, DWORD PTR _flRand$[ebp]
	movsd	xmm1, QWORD PTR __real@3fe6666666666666
	comisd	xmm1, xmm0
	jb	SHORT $LN5@WeaponIdle

; 245  : 	{
; 246  : 		iAnim = PYTHON_IDLE2;

	mov	DWORD PTR _iAnim$[ebp], 7

; 247  : 		m_flTimeWeaponIdle = gpGlobals->time + (60.0/30.0);

	mov	eax, DWORD PTR ?gpGlobals@@3PAUglobalvars_t@@A ; gpGlobals
	cvtss2sd xmm0, DWORD PTR [eax]
	addsd	xmm0, QWORD PTR __real@4000000000000000
	cvtsd2ss xmm0, xmm0
	mov	ecx, DWORD PTR _this$[ebp]
	movss	DWORD PTR [ecx+1892], xmm0
	jmp	SHORT $LN8@WeaponIdle
$LN5@WeaponIdle:

; 248  : 	}
; 249  : 	else if (flRand <= 0.9)

	cvtss2sd xmm0, DWORD PTR _flRand$[ebp]
	movsd	xmm1, QWORD PTR __real@3feccccccccccccd
	comisd	xmm1, xmm0
	jb	SHORT $LN7@WeaponIdle

; 250  : 	{
; 251  : 		iAnim = PYTHON_IDLE3;

	mov	DWORD PTR _iAnim$[ebp], 8

; 252  : 		m_flTimeWeaponIdle = gpGlobals->time + (88.0/30.0);

	mov	eax, DWORD PTR ?gpGlobals@@3PAUglobalvars_t@@A ; gpGlobals
	cvtss2sd xmm0, DWORD PTR [eax]
	addsd	xmm0, QWORD PTR __real@4007777777777777
	cvtsd2ss xmm0, xmm0
	mov	ecx, DWORD PTR _this$[ebp]
	movss	DWORD PTR [ecx+1892], xmm0

; 253  : 	}
; 254  : 	else

	jmp	SHORT $LN8@WeaponIdle
$LN7@WeaponIdle:

; 255  : 	{
; 256  : 		iAnim = PYTHON_FIDGET;

	mov	DWORD PTR _iAnim$[ebp], 1

; 257  : 		m_flTimeWeaponIdle = gpGlobals->time + (170.0/30.0);

	mov	eax, DWORD PTR ?gpGlobals@@3PAUglobalvars_t@@A ; gpGlobals
	cvtss2sd xmm0, DWORD PTR [eax]
	addsd	xmm0, QWORD PTR __real@4016aaaaaaaaaaab
	cvtsd2ss xmm0, xmm0
	mov	ecx, DWORD PTR _this$[ebp]
	movss	DWORD PTR [ecx+1892], xmm0
$LN8@WeaponIdle:

; 258  : 	}
; 259  : 	SendWeaponAnim( iAnim );

	push	0
	push	0
	mov	eax, DWORD PTR _iAnim$[ebp]
	push	eax
	mov	ecx, DWORD PTR _this$[ebp]
	mov	edx, DWORD PTR [ecx]
	mov	ecx, DWORD PTR _this$[ebp]
	mov	eax, DWORD PTR [edx+472]
	call	eax
$LN1@WeaponIdle:

; 260  : }

	pop	edi
	pop	esi
	pop	ebx
	mov	esp, ebp
	pop	ebp
	ret	0
?WeaponIdle@CPython@@UAEXXZ ENDP			; CPython::WeaponIdle
_TEXT	ENDS
; Function compile flags: /Odtp /ZI
; File d:\!diffusion 2020\source code 2022\client-server\server\weapons\weapon_deagle.cpp
;	COMDAT ?Reload@CPython@@UAEXXZ
_TEXT	SEGMENT
_this$ = -4						; size = 4
?Reload@CPython@@UAEXXZ PROC				; CPython::Reload, COMDAT
; _this$ = ecx

; 217  : {

	push	ebp
	mov	ebp, esp
	sub	esp, 68					; 00000044H
	push	ebx
	push	esi
	push	edi
	mov	DWORD PTR _this$[ebp], ecx

; 218  : 	CLIENT_COMMAND(m_pPlayer->edict(), "-reload\n");

	push	OFFSET ??_C@_08PEMEPKH@?9reload?6?$AA@
	mov	eax, DWORD PTR _this$[ebp]
	mov	ecx, DWORD PTR [eax+1856]
	call	?edict@CBaseEntity@@QAEPAUedict_s@@XZ	; CBaseEntity::edict
	push	eax
	call	DWORD PTR ?g_engfuncs@@3Uenginefuncs_s@@A+164
	add	esp, 8

; 219  : //	EMIT_SOUND( ENT( m_pPlayer->pev ), CHAN_WEAPON, "weapons/357_reload1.wav", RANDOM_FLOAT( 0.8, 0.9 ), ATTN_NORM );
; 220  : 
; 221  : 	if( !m_iClip )

	mov	eax, DWORD PTR _this$[ebp]
	cmp	DWORD PTR [eax+1904], 0
	jne	SHORT $LN2@Reload

; 222  : 		DefaultReload( 7, PYTHON_RELOAD, 2.0 );

	push	0
	push	ecx
	movss	xmm0, DWORD PTR __real@40000000
	movss	DWORD PTR [esp], xmm0
	push	3
	push	7
	mov	ecx, DWORD PTR _this$[ebp]
	call	?DefaultReload@CBasePlayerWeapon@@QAEHHHMH@Z ; CBasePlayerWeapon::DefaultReload

; 223  : 	else

	jmp	SHORT $LN3@Reload
$LN2@Reload:

; 224  : 		DefaultReload( 7, PYTHON_RELOAD_NOSHOT, 1.8 );

	push	0
	push	ecx
	movss	xmm0, DWORD PTR __real@3fe66666
	movss	DWORD PTR [esp], xmm0
	push	4
	push	7
	mov	ecx, DWORD PTR _this$[ebp]
	call	?DefaultReload@CBasePlayerWeapon@@QAEHHHMH@Z ; CBasePlayerWeapon::DefaultReload
$LN3@Reload:

; 225  : }

	pop	edi
	pop	esi
	pop	ebx
	mov	esp, ebp
	pop	ebp
	ret	0
?Reload@CPython@@UAEXXZ ENDP				; CPython::Reload
_TEXT	ENDS
; Function compile flags: /Odtp /ZI
; File d:\!diffusion 2020\source code 2022\client-server\server\weapons\weapon_deagle.cpp
;	COMDAT ?Holster@CPython@@UAEXXZ
_TEXT	SEGMENT
tv149 = -76						; size = 4
tv155 = -72						; size = 4
_this$ = -4						; size = 4
?Holster@CPython@@UAEXXZ PROC				; CPython::Holster, COMDAT
; _this$ = ecx

; 126  : {

	push	ebp
	mov	ebp, esp
	sub	esp, 76					; 0000004cH
	push	ebx
	push	esi
	push	edi
	mov	DWORD PTR _this$[ebp], ecx

; 127  : 	m_pPlayer->m_flNextAttack = gpGlobals->time + 1.0;

	mov	eax, DWORD PTR ?gpGlobals@@3PAUglobalvars_t@@A ; gpGlobals
	cvtss2sd xmm0, DWORD PTR [eax]
	addsd	xmm0, QWORD PTR __real@3ff0000000000000
	cvtsd2ss xmm0, xmm0
	mov	ecx, DWORD PTR _this$[ebp]
	mov	edx, DWORD PTR [ecx+1856]
	movss	DWORD PTR [edx+2348], xmm0

; 128  : 	m_flTimeWeaponIdle = gpGlobals->time + 10 + RANDOM_FLOAT ( 0, 5 );

	mov	eax, DWORD PTR ?gpGlobals@@3PAUglobalvars_t@@A ; gpGlobals
	movss	xmm0, DWORD PTR [eax]
	addss	xmm0, DWORD PTR __real@41200000
	push	ecx
	movss	xmm1, DWORD PTR __real@40a00000
	movss	DWORD PTR [esp], xmm1
	push	ecx
	xorps	xmm1, xmm1
	movss	DWORD PTR [esp], xmm1
	movss	DWORD PTR tv155[ebp], xmm0
	call	DWORD PTR ?g_engfuncs@@3Uenginefuncs_s@@A+364
	add	esp, 8
	fstp	DWORD PTR tv149[ebp]
	movss	xmm0, DWORD PTR tv155[ebp]
	addss	xmm0, DWORD PTR tv149[ebp]
	mov	ecx, DWORD PTR _this$[ebp]
	movss	DWORD PTR [ecx+1892], xmm0

; 129  : 	SendWeaponAnim( PYTHON_HOLSTER );

	push	0
	push	0
	push	5
	mov	eax, DWORD PTR _this$[ebp]
	mov	edx, DWORD PTR [eax]
	mov	ecx, DWORD PTR _this$[ebp]
	mov	eax, DWORD PTR [edx+472]
	call	eax

; 130  : 	BaseClass::Holster();

	mov	ecx, DWORD PTR _this$[ebp]
	call	?Holster@CBasePlayerWeapon@@UAEXXZ	; CBasePlayerWeapon::Holster

; 131  : }

	pop	edi
	pop	esi
	pop	ebx
	mov	esp, ebp
	pop	ebp
	ret	0
?Holster@CPython@@UAEXXZ ENDP				; CPython::Holster
_TEXT	ENDS
; Function compile flags: /Odtp /ZI
; File d:\!diffusion 2020\source code 2022\client-server\server\weapons\weapon_deagle.cpp
;	COMDAT ?Deploy@CPython@@UAEHXZ
_TEXT	SEGMENT
tv84 = -72						; size = 4
_this$ = -4						; size = 4
?Deploy@CPython@@UAEHXZ PROC				; CPython::Deploy, COMDAT
; _this$ = ecx

; 118  : {

	push	ebp
	mov	ebp, esp
	sub	esp, 72					; 00000048H
	push	ebx
	push	esi
	push	edi
	mov	DWORD PTR _this$[ebp], ecx

; 119  : 	m_flTimeWeaponIdle = gpGlobals->time + 5.0;

	mov	eax, DWORD PTR ?gpGlobals@@3PAUglobalvars_t@@A ; gpGlobals
	cvtss2sd xmm0, DWORD PTR [eax]
	addsd	xmm0, QWORD PTR __real@4014000000000000
	cvtsd2ss xmm0, xmm0
	mov	ecx, DWORD PTR _this$[ebp]
	movss	DWORD PTR [ecx+1892], xmm0

; 120  : 	m_flNextPrimaryAttack = m_flNextSecondaryAttack = gpGlobals->time + 1;

	mov	eax, DWORD PTR ?gpGlobals@@3PAUglobalvars_t@@A ; gpGlobals
	movss	xmm0, DWORD PTR [eax]
	addss	xmm0, DWORD PTR __real@3f800000
	movss	DWORD PTR tv84[ebp], xmm0
	mov	ecx, DWORD PTR _this$[ebp]
	movss	xmm0, DWORD PTR tv84[ebp]
	movss	DWORD PTR [ecx+1888], xmm0
	mov	edx, DWORD PTR _this$[ebp]
	movss	xmm0, DWORD PTR tv84[ebp]
	movss	DWORD PTR [edx+1884], xmm0

; 121  : 	return DefaultDeploy( "models/v_357.mdl", "models/p_357.mdl", PYTHON_DRAW, "python" );

	push	0
	push	0
	push	OFFSET ??_C@_06OIODPPHE@python?$AA@
	push	6
	push	OFFSET ??_C@_0BB@HAMKIBDK@models?1p_357?4mdl?$AA@
	push	OFFSET ??_C@_0BB@HNNEPBHN@models?1v_357?4mdl?$AA@
	mov	ecx, DWORD PTR _this$[ebp]
	call	?DefaultDeploy@CBasePlayerWeapon@@QAEHPAD0H0HH@Z ; CBasePlayerWeapon::DefaultDeploy

; 122  : }

	pop	edi
	pop	esi
	pop	ebx
	mov	esp, ebp
	pop	ebp
	ret	0
?Deploy@CPython@@UAEHXZ ENDP				; CPython::Deploy
_TEXT	ENDS
; Function compile flags: /Odtp /ZI
; File d:\!diffusion 2020\source code 2022\client-server\server\weapons\weapon_deagle.cpp
;	COMDAT ?PrimaryAttack@CPython@@UAEXXZ
_TEXT	SEGMENT
tv708 = -280						; size = 4
tv693 = -280						; size = 4
$T1 = -276						; size = 12
$T2 = -264						; size = 12
$T3 = -252						; size = 12
$T4 = -240						; size = 12
$T5 = -228						; size = 12
$T6 = -216						; size = 12
$T7 = -204						; size = 12
$T8 = -192						; size = 12
$T9 = -180						; size = 12
$T10 = -168						; size = 12
$T11 = -156						; size = 12
$T12 = -144						; size = 12
$T13 = -120						; size = 12
_vecShellVelocity$ = -40				; size = 12
_vecAiming$ = -28					; size = 12
_vecSrc$ = -16						; size = 12
_this$ = -4						; size = 4
?PrimaryAttack@CPython@@UAEXXZ PROC			; CPython::PrimaryAttack, COMDAT
; _this$ = ecx

; 134  : {

	push	ebp
	mov	ebp, esp
	sub	esp, 280				; 00000118H
	push	ebx
	push	esi
	push	edi
	mov	DWORD PTR _this$[ebp], ecx

; 135  : 	// don't fire underwater
; 136  : 	if (m_pPlayer->pev->waterlevel == 3)

	mov	eax, DWORD PTR _this$[ebp]
	mov	ecx, DWORD PTR [eax+1856]
	mov	edx, DWORD PTR [ecx+4]
	cmp	DWORD PTR [edx+448], 3
	jne	SHORT $LN2@PrimaryAtt

; 137  : 	{
; 138  : 		PlayEmptySound( );

	mov	eax, DWORD PTR _this$[ebp]
	mov	edx, DWORD PTR [eax]
	mov	ecx, DWORD PTR _this$[ebp]
	mov	eax, DWORD PTR [edx+464]
	call	eax

; 139  : 		m_flNextPrimaryAttack = gpGlobals->time + 0.15;

	mov	eax, DWORD PTR ?gpGlobals@@3PAUglobalvars_t@@A ; gpGlobals
	cvtss2sd xmm0, DWORD PTR [eax]
	addsd	xmm0, QWORD PTR __real@3fc3333333333333
	cvtsd2ss xmm0, xmm0
	mov	ecx, DWORD PTR _this$[ebp]
	movss	DWORD PTR [ecx+1884], xmm0

; 140  : 		return;

	jmp	$LN1@PrimaryAtt
$LN2@PrimaryAtt:

; 141  : 	}
; 142  : 
; 143  : 	if (m_iClip <= 0)

	mov	eax, DWORD PTR _this$[ebp]
	cmp	DWORD PTR [eax+1904], 0
	jg	SHORT $LN3@PrimaryAtt

; 144  : 	{
; 145  : 		CLIENT_COMMAND(m_pPlayer->edict(), "-attack\n");

	push	OFFSET ??_C@_08MNDBFPDE@?9attack?6?$AA@
	mov	eax, DWORD PTR _this$[ebp]
	mov	ecx, DWORD PTR [eax+1856]
	call	?edict@CBaseEntity@@QAEPAUedict_s@@XZ	; CBaseEntity::edict
	push	eax
	call	DWORD PTR ?g_engfuncs@@3Uenginefuncs_s@@A+164
	add	esp, 8

; 146  : 	//	if (!m_fFireOnEmpty)
; 147  : 	//		Reload( );
; 148  : 	//	else
; 149  : 	//		EMIT_SOUND(ENT(m_pPlayer->pev), CHAN_WEAPON, "weapons/357_cock1.wav", 0.8, ATTN_NORM);
; 150  : 	//		m_flNextPrimaryAttack = gpGlobals->time + 0.15;
; 151  : 		PlayEmptySound();

	mov	eax, DWORD PTR _this$[ebp]
	mov	edx, DWORD PTR [eax]
	mov	ecx, DWORD PTR _this$[ebp]
	mov	eax, DWORD PTR [edx+464]
	call	eax

; 152  : 
; 153  : 		return;

	jmp	$LN1@PrimaryAtt
$LN3@PrimaryAtt:

; 154  : 	}
; 155  : 
; 156  : 	if (m_iClip <= 3)

	mov	eax, DWORD PTR _this$[ebp]
	cmp	DWORD PTR [eax+1904], 3
	jg	SHORT $LN4@PrimaryAtt

; 157  : 		LowAmmoMsg(m_pPlayer);

	mov	eax, DWORD PTR _this$[ebp]
	mov	ecx, DWORD PTR [eax+1856]
	push	ecx
	mov	edx, DWORD PTR _this$[ebp]
	mov	eax, DWORD PTR [edx]
	mov	ecx, DWORD PTR _this$[ebp]
	mov	edx, DWORD PTR [eax+508]
	call	edx
$LN4@PrimaryAtt:

; 158  : 
; 159  : 	m_pPlayer->m_iWeaponVolume = LOUD_GUN_VOLUME;

	mov	eax, DWORD PTR _this$[ebp]
	mov	ecx, DWORD PTR [eax+1856]
	mov	DWORD PTR [ecx+2504], 1000		; 000003e8H

; 160  : 	m_pPlayer->m_iWeaponFlash = BRIGHT_GUN_FLASH;

	mov	eax, DWORD PTR _this$[ebp]
	mov	ecx, DWORD PTR [eax+1856]
	mov	DWORD PTR [ecx+2512], 512		; 00000200H

; 161  : 
; 162  : 	m_iClip--;

	mov	eax, DWORD PTR _this$[ebp]
	mov	ecx, DWORD PTR [eax+1904]
	sub	ecx, 1
	mov	edx, DWORD PTR _this$[ebp]
	mov	DWORD PTR [edx+1904], ecx

; 163  : 
; 164  : 	SendWeaponAnim( PYTHON_FIRE1 );

	push	0
	push	0
	push	2
	mov	eax, DWORD PTR _this$[ebp]
	mov	edx, DWORD PTR [eax]
	mov	ecx, DWORD PTR _this$[ebp]
	mov	eax, DWORD PTR [edx+472]
	call	eax

; 165  : 
; 166  : 	// player "shoot" animation
; 167  : 	m_pPlayer->SetAnimation( PLAYER_ATTACK1 );

	push	5
	mov	eax, DWORD PTR _this$[ebp]
	mov	ecx, DWORD PTR [eax+1856]
	call	?SetAnimation@CBasePlayer@@QAEXW4PLAYER_ANIM@@@Z ; CBasePlayer::SetAnimation

; 168  : 	m_pPlayer->pev->effects |= EF_MUZZLEFLASH;

	mov	eax, DWORD PTR _this$[ebp]
	mov	ecx, DWORD PTR [eax+1856]
	mov	edx, DWORD PTR [ecx+4]
	mov	eax, DWORD PTR [edx+280]
	or	eax, 2
	mov	ecx, DWORD PTR _this$[ebp]
	mov	edx, DWORD PTR [ecx+1856]
	mov	ecx, DWORD PTR [edx+4]
	mov	DWORD PTR [ecx+280], eax

; 169  : 
; 170  : 	if( m_pPlayer->LoudWeaponsRestricted )

	mov	eax, DWORD PTR _this$[ebp]
	mov	ecx, DWORD PTR [eax+1856]
	movzx	edx, BYTE PTR [ecx+5004]
	test	edx, edx
	je	SHORT $LN5@PrimaryAtt

; 171  : 		m_pPlayer->FireLoudWeaponRestrictionEntity();

	mov	eax, DWORD PTR _this$[ebp]
	mov	ecx, DWORD PTR [eax+1856]
	call	?FireLoudWeaponRestrictionEntity@CBasePlayer@@QAEXXZ ; CBasePlayer::FireLoudWeaponRestrictionEntity
$LN5@PrimaryAtt:

; 172  : 
; 173  : //	switch(RANDOM_LONG(0,1))
; 174  : //	{
; 175  : //	case 0:
; 176  : //		EMIT_SOUND(ENT(m_pPlayer->pev), CHAN_WEAPON, "weapons/357_shot1.wav", RANDOM_FLOAT(0.8, 0.9), ATTN_NORM);
; 177  : //		break;
; 178  : //	case 1:
; 179  : //		EMIT_SOUND(ENT(m_pPlayer->pev), CHAN_WEAPON, "weapons/357_shot2.wav", RANDOM_FLOAT(0.8, 0.9), ATTN_NORM);
; 180  : //		break;
; 181  : //	}
; 182  : 	PlayClientSound( m_pPlayer, WEAPON_DEAGLE );

	sub	esp, 12					; 0000000cH
	mov	ecx, esp
	push	OFFSET ?g_vecZero@@3VVector@@B		; g_vecZero
	call	??0Vector@@QAE@ABV0@@Z			; Vector::Vector
	push	0
	push	0
	push	3
	mov	eax, DWORD PTR _this$[ebp]
	mov	ecx, DWORD PTR [eax+1856]
	push	ecx
	call	?PlayClientSound@@YAXPAVCBaseEntity@@HHHVVector@@@Z ; PlayClientSound
	add	esp, 28					; 0000001cH

; 183  : 
; 184  : 	UTIL_MakeVectors( m_pPlayer->pev->v_angle + m_pPlayer->pev->punchangle );

	mov	eax, DWORD PTR _this$[ebp]
	mov	ecx, DWORD PTR [eax+1856]
	mov	edx, DWORD PTR [ecx+4]
	add	edx, 104				; 00000068H
	push	edx
	lea	eax, DWORD PTR $T13[ebp]
	push	eax
	mov	ecx, DWORD PTR _this$[ebp]
	mov	edx, DWORD PTR [ecx+1856]
	mov	ecx, DWORD PTR [edx+4]
	add	ecx, 116				; 00000074H
	call	??HVector@@QBE?AV0@ABV0@@Z		; Vector::operator+
	push	eax
	call	?UTIL_MakeVectors@@YAXABVVector@@@Z	; UTIL_MakeVectors
	add	esp, 4

; 185  : 
; 186  : 	Vector vecSrc = m_pPlayer->GetGunPosition( );

	lea	eax, DWORD PTR _vecSrc$[ebp]
	push	eax
	mov	ecx, DWORD PTR _this$[ebp]
	mov	edx, DWORD PTR [ecx+1856]
	mov	eax, DWORD PTR _this$[ebp]
	mov	edx, DWORD PTR [edx]
	mov	ecx, DWORD PTR [eax+1856]
	mov	eax, DWORD PTR [edx+628]
	call	eax

; 187  : 	Vector vecAiming = m_pPlayer->GetAutoaimVector( AUTOAIM_10DEGREES );

	push	ecx
	movss	xmm0, DWORD PTR __real@3e31d0d4
	movss	DWORD PTR [esp], xmm0
	lea	eax, DWORD PTR _vecAiming$[ebp]
	push	eax
	mov	ecx, DWORD PTR _this$[ebp]
	mov	ecx, DWORD PTR [ecx+1856]
	call	?GetAutoaimVector@CBasePlayer@@QAE?AVVector@@M@Z ; CBasePlayer::GetAutoaimVector

; 188  : 	m_pPlayer->FireBullets( 1, vecSrc, vecAiming, VECTOR_CONE_1DEGREES, 8192, BULLET_PLAYER_357, 0 );

	push	0
	push	ecx
	xorps	xmm0, xmm0
	movss	DWORD PTR [esp], xmm0
	push	0
	push	4
	push	ecx
	movss	xmm0, DWORD PTR __real@46000000
	movss	DWORD PTR [esp], xmm0
	sub	esp, 12					; 0000000cH
	mov	ecx, esp
	push	ecx
	movss	xmm0, DWORD PTR __real@3c0f0846
	movss	DWORD PTR [esp], xmm0
	push	ecx
	movss	xmm0, DWORD PTR __real@3c0f0846
	movss	DWORD PTR [esp], xmm0
	push	ecx
	movss	xmm0, DWORD PTR __real@3c0f0846
	movss	DWORD PTR [esp], xmm0
	call	??0Vector@@QAE@MMM@Z			; Vector::Vector
	sub	esp, 12					; 0000000cH
	mov	ecx, esp
	lea	eax, DWORD PTR _vecAiming$[ebp]
	push	eax
	call	??0Vector@@QAE@ABV0@@Z			; Vector::Vector
	sub	esp, 12					; 0000000cH
	mov	ecx, esp
	lea	edx, DWORD PTR _vecSrc$[ebp]
	push	edx
	call	??0Vector@@QAE@ABV0@@Z			; Vector::Vector
	push	1
	mov	eax, DWORD PTR _this$[ebp]
	mov	ecx, DWORD PTR [eax+1856]
	call	?FireBullets@CBaseEntity@@QAEXKVVector@@00MHHMPAUentvars_s@@@Z ; CBaseEntity::FireBullets

; 189  : 		
; 190  : //	m_pPlayer->AchievementStats[ACH_BULLETSFIRED]++;
; 191  : 	m_pPlayer->SendAchievementStatToClient( ACH_BULLETSFIRED, 1, 0 );

	push	0
	push	1
	push	0
	mov	eax, DWORD PTR _this$[ebp]
	mov	ecx, DWORD PTR [eax+1856]
	call	?SendAchievementStatToClient@CBasePlayer@@QAEXHHH@Z ; CBasePlayer::SendAchievementStatToClient

; 192  : 
; 193  : 	if (!m_iClip && m_pPlayer->m_rgAmmo[m_iPrimaryAmmoType] <= 0)

	mov	eax, DWORD PTR _this$[ebp]
	cmp	DWORD PTR [eax+1904], 0
	jne	SHORT $LN6@PrimaryAtt
	mov	eax, DWORD PTR _this$[ebp]
	mov	ecx, DWORD PTR [eax+1856]
	mov	edx, DWORD PTR _this$[ebp]
	mov	eax, DWORD PTR [edx+1896]
	cmp	DWORD PTR [ecx+eax*4+3628], 0
	jg	SHORT $LN6@PrimaryAtt

; 194  : 		// HEV suit - indicate out of ammo condition
; 195  : 		m_pPlayer->SetSuitUpdate("!HEV_AMO0", FALSE, 0);

	push	0
	push	0
	push	OFFSET ??_C@_09KNGNPJEJ@?$CBHEV_AMO0?$AA@
	mov	eax, DWORD PTR _this$[ebp]
	mov	ecx, DWORD PTR [eax+1856]
	call	?SetSuitUpdate@CBasePlayer@@QAEXPADHH@Z	; CBasePlayer::SetSuitUpdate
$LN6@PrimaryAtt:

; 196  : 
; 197  : 	m_flNextPrimaryAttack = gpGlobals->time + 0.75;

	mov	eax, DWORD PTR ?gpGlobals@@3PAUglobalvars_t@@A ; gpGlobals
	cvtss2sd xmm0, DWORD PTR [eax]
	addsd	xmm0, QWORD PTR __real@3fe8000000000000
	cvtsd2ss xmm0, xmm0
	mov	ecx, DWORD PTR _this$[ebp]
	movss	DWORD PTR [ecx+1884], xmm0

; 198  : 	m_flTimeWeaponIdle = gpGlobals->time + RANDOM_FLOAT ( 10, 15 );

	push	ecx
	movss	xmm0, DWORD PTR __real@41700000
	movss	DWORD PTR [esp], xmm0
	push	ecx
	movss	xmm0, DWORD PTR __real@41200000
	movss	DWORD PTR [esp], xmm0
	call	DWORD PTR ?g_engfuncs@@3Uenginefuncs_s@@A+364
	add	esp, 8
	fstp	DWORD PTR tv693[ebp]
	mov	eax, DWORD PTR ?gpGlobals@@3PAUglobalvars_t@@A ; gpGlobals
	movss	xmm0, DWORD PTR tv693[ebp]
	addss	xmm0, DWORD PTR [eax]
	mov	ecx, DWORD PTR _this$[ebp]
	movss	DWORD PTR [ecx+1892], xmm0

; 199  : 
; 200  : 	m_pPlayer->pev->punchangle.x -= 10;

	mov	eax, DWORD PTR _this$[ebp]
	mov	ecx, DWORD PTR [eax+1856]
	mov	edx, DWORD PTR [ecx+4]
	movss	xmm0, DWORD PTR [edx+104]
	subss	xmm0, DWORD PTR __real@41200000
	mov	eax, DWORD PTR _this$[ebp]
	mov	ecx, DWORD PTR [eax+1856]
	mov	edx, DWORD PTR [ecx+4]
	movss	DWORD PTR [edx+104], xmm0

; 201  : 	m_pPlayer->pev->punchangle.y += RANDOM_FLOAT(-2,2);

	mov	eax, DWORD PTR _this$[ebp]
	mov	ecx, DWORD PTR [eax+1856]
	mov	esi, DWORD PTR [ecx+4]
	push	ecx
	movss	xmm0, DWORD PTR __real@40000000
	movss	DWORD PTR [esp], xmm0
	push	ecx
	movss	xmm0, DWORD PTR __real@c0000000
	movss	DWORD PTR [esp], xmm0
	call	DWORD PTR ?g_engfuncs@@3Uenginefuncs_s@@A+364
	add	esp, 8
	fstp	DWORD PTR tv708[ebp]
	movss	xmm0, DWORD PTR tv708[ebp]
	addss	xmm0, DWORD PTR [esi+108]
	mov	edx, DWORD PTR _this$[ebp]
	mov	eax, DWORD PTR [edx+1856]
	mov	ecx, DWORD PTR [eax+4]
	movss	DWORD PTR [ecx+108], xmm0

; 202  : 	m_pPlayer->pev->punchangle.z += 2;

	mov	eax, DWORD PTR _this$[ebp]
	mov	ecx, DWORD PTR [eax+1856]
	mov	edx, DWORD PTR [ecx+4]
	movss	xmm0, DWORD PTR [edx+112]
	addss	xmm0, DWORD PTR __real@40000000
	mov	eax, DWORD PTR _this$[ebp]
	mov	ecx, DWORD PTR [eax+1856]
	mov	edx, DWORD PTR [ecx+4]
	movss	DWORD PTR [edx+112], xmm0

; 203  : 
; 204  : 	MakeWeaponShake( m_pPlayer, WEAPON_DEAGLE, 0 );

	push	0
	push	3
	mov	eax, DWORD PTR _this$[ebp]
	mov	ecx, DWORD PTR [eax+1856]
	push	ecx
	call	?MakeWeaponShake@@YAXPAVCBaseEntity@@HH@Z ; MakeWeaponShake
	add	esp, 12					; 0000000cH

; 205  : 
; 206  : 	// diffusion - added shell for deagle
; 207  : 	Vector	vecShellVelocity = m_pPlayer->GetAbsVelocity() 
; 208  : 							 + gpGlobals->v_right * RANDOM_FLOAT(70,90) 
; 209  : 							 + gpGlobals->v_up * RANDOM_FLOAT(125,175) 
; 210  : 							 + gpGlobals->v_forward * 25;

	push	ecx
	movss	xmm0, DWORD PTR __real@41c80000
	movss	DWORD PTR [esp], xmm0
	lea	eax, DWORD PTR $T8[ebp]
	push	eax
	mov	ecx, DWORD PTR ?gpGlobals@@3PAUglobalvars_t@@A ; gpGlobals
	add	ecx, 40					; 00000028H
	call	??DVector@@QBE?AV0@M@Z			; Vector::operator*
	push	eax
	lea	ecx, DWORD PTR _vecShellVelocity$[ebp]
	push	ecx
	push	ecx
	movss	xmm0, DWORD PTR __real@432f0000
	movss	DWORD PTR [esp], xmm0
	push	ecx
	movss	xmm0, DWORD PTR __real@42fa0000
	movss	DWORD PTR [esp], xmm0
	call	DWORD PTR ?g_engfuncs@@3Uenginefuncs_s@@A+364
	add	esp, 4
	fstp	DWORD PTR [esp]
	lea	edx, DWORD PTR $T10[ebp]
	push	edx
	mov	ecx, DWORD PTR ?gpGlobals@@3PAUglobalvars_t@@A ; gpGlobals
	add	ecx, 52					; 00000034H
	call	??DVector@@QBE?AV0@M@Z			; Vector::operator*
	push	eax
	lea	eax, DWORD PTR $T9[ebp]
	push	eax
	push	ecx
	movss	xmm0, DWORD PTR __real@42b40000
	movss	DWORD PTR [esp], xmm0
	push	ecx
	movss	xmm0, DWORD PTR __real@428c0000
	movss	DWORD PTR [esp], xmm0
	call	DWORD PTR ?g_engfuncs@@3Uenginefuncs_s@@A+364
	add	esp, 4
	fstp	DWORD PTR [esp]
	lea	ecx, DWORD PTR $T12[ebp]
	push	ecx
	mov	ecx, DWORD PTR ?gpGlobals@@3PAUglobalvars_t@@A ; gpGlobals
	add	ecx, 64					; 00000040H
	call	??DVector@@QBE?AV0@M@Z			; Vector::operator*
	push	eax
	lea	edx, DWORD PTR $T11[ebp]
	push	edx
	mov	eax, DWORD PTR _this$[ebp]
	mov	ecx, DWORD PTR [eax+1856]
	call	?GetAbsVelocity@CBaseEntity@@QBEABVVector@@XZ ; CBaseEntity::GetAbsVelocity
	mov	ecx, eax
	call	??HVector@@QBE?AV0@ABV0@@Z		; Vector::operator+
	mov	ecx, eax
	call	??HVector@@QBE?AV0@ABV0@@Z		; Vector::operator+
	mov	ecx, eax
	call	??HVector@@QBE?AV0@ABV0@@Z		; Vector::operator+

; 211  : 	EjectBrass ( m_pPlayer->EyePosition() + gpGlobals->v_up * -12 + gpGlobals->v_forward * 32 + gpGlobals->v_right * 6,

	push	1
	mov	eax, DWORD PTR _this$[ebp]
	mov	ecx, DWORD PTR [eax+1924]
	push	ecx
	mov	edx, DWORD PTR _this$[ebp]
	mov	ecx, DWORD PTR [edx+1856]
	call	?GetAbsAngles@CBaseEntity@@QBEABVVector@@XZ ; CBaseEntity::GetAbsAngles
	push	ecx
	movss	xmm0, DWORD PTR [eax+4]
	movss	DWORD PTR [esp], xmm0
	lea	eax, DWORD PTR _vecShellVelocity$[ebp]
	push	eax
	push	ecx
	movss	xmm0, DWORD PTR __real@40c00000
	movss	DWORD PTR [esp], xmm0
	lea	ecx, DWORD PTR $T2[ebp]
	push	ecx
	mov	ecx, DWORD PTR ?gpGlobals@@3PAUglobalvars_t@@A ; gpGlobals
	add	ecx, 64					; 00000040H
	call	??DVector@@QBE?AV0@M@Z			; Vector::operator*
	push	eax
	lea	edx, DWORD PTR $T1[ebp]
	push	edx
	push	ecx
	movss	xmm0, DWORD PTR __real@42000000
	movss	DWORD PTR [esp], xmm0
	lea	eax, DWORD PTR $T4[ebp]
	push	eax
	mov	ecx, DWORD PTR ?gpGlobals@@3PAUglobalvars_t@@A ; gpGlobals
	add	ecx, 40					; 00000028H
	call	??DVector@@QBE?AV0@M@Z			; Vector::operator*
	push	eax
	lea	ecx, DWORD PTR $T3[ebp]
	push	ecx
	push	ecx
	movss	xmm0, DWORD PTR __real@c1400000
	movss	DWORD PTR [esp], xmm0
	lea	edx, DWORD PTR $T6[ebp]
	push	edx
	mov	ecx, DWORD PTR ?gpGlobals@@3PAUglobalvars_t@@A ; gpGlobals
	add	ecx, 52					; 00000034H
	call	??DVector@@QBE?AV0@M@Z			; Vector::operator*
	push	eax
	lea	eax, DWORD PTR $T5[ebp]
	push	eax
	lea	ecx, DWORD PTR $T7[ebp]
	push	ecx
	mov	edx, DWORD PTR _this$[ebp]
	mov	eax, DWORD PTR [edx+1856]
	mov	ecx, DWORD PTR _this$[ebp]
	mov	edx, DWORD PTR [eax]
	mov	ecx, DWORD PTR [ecx+1856]
	mov	eax, DWORD PTR [edx+340]
	call	eax
	mov	ecx, eax
	call	??HVector@@QBE?AV0@ABV0@@Z		; Vector::operator+
	mov	ecx, eax
	call	??HVector@@QBE?AV0@ABV0@@Z		; Vector::operator+
	mov	ecx, eax
	call	??HVector@@QBE?AV0@ABV0@@Z		; Vector::operator+
	push	eax
	call	?EjectBrass@@YAXABVVector@@0MHH@Z	; EjectBrass
	add	esp, 20					; 00000014H
$LN1@PrimaryAtt:

; 212  : 	vecShellVelocity, m_pPlayer->GetAbsAngles().y, m_iShell, TE_BOUNCE_SHELL ); 
; 213  : }

	pop	edi
	pop	esi
	pop	ebx
	mov	esp, ebp
	pop	ebp
	ret	0
?PrimaryAttack@CPython@@UAEXXZ ENDP			; CPython::PrimaryAttack
_TEXT	ENDS
; Function compile flags: /Odtp /ZI
; File d:\!diffusion 2020\source code 2022\client-server\server\weapons\weapon_deagle.cpp
;	COMDAT ?AddToPlayer@CPython@@UAEHPAVCBasePlayer@@@Z
_TEXT	SEGMENT
_this$ = -4						; size = 4
_pPlayer$ = 8						; size = 4
?AddToPlayer@CPython@@UAEHPAVCBasePlayer@@@Z PROC	; CPython::AddToPlayer, COMDAT
; _this$ = ecx

; 76   : {

	push	ebp
	mov	ebp, esp
	sub	esp, 68					; 00000044H
	push	ebx
	push	esi
	push	edi
	mov	DWORD PTR _this$[ebp], ecx

; 77   : 	if ( CBasePlayerWeapon::AddToPlayer( pPlayer ) )

	mov	eax, DWORD PTR _pPlayer$[ebp]
	push	eax
	mov	ecx, DWORD PTR _this$[ebp]
	call	?AddToPlayer@CBasePlayerWeapon@@UAEHPAVCBasePlayer@@@Z ; CBasePlayerWeapon::AddToPlayer
	test	eax, eax
	je	SHORT $LN2@AddToPlaye

; 78   : 	{
; 79   : 		MESSAGE_BEGIN( MSG_ONE, gmsgWeapPickup, NULL, pPlayer->pev );

	mov	eax, DWORD PTR _pPlayer$[ebp]
	mov	ecx, DWORD PTR [eax+4]
	push	ecx
	push	0
	mov	edx, DWORD PTR ?gmsgWeapPickup@@3HA	; gmsgWeapPickup
	push	edx
	push	1
	call	?MESSAGE_BEGIN@@YAXHHPBMPAUentvars_s@@@Z ; MESSAGE_BEGIN
	add	esp, 16					; 00000010H

; 80   : 			WRITE_BYTE( m_iId );

	mov	eax, DWORD PTR _this$[ebp]
	mov	ecx, DWORD PTR [eax+1864]
	push	ecx
	call	DWORD PTR ?g_engfuncs@@3Uenginefuncs_s@@A+192
	add	esp, 4

; 81   : 		MESSAGE_END();

	call	DWORD PTR ?g_engfuncs@@3Uenginefuncs_s@@A+188

; 82   : 		return TRUE;

	mov	eax, 1
	jmp	SHORT $LN1@AddToPlaye
$LN2@AddToPlaye:

; 83   : 	}
; 84   : 	return FALSE;

	xor	eax, eax
$LN1@AddToPlaye:

; 85   : }

	pop	edi
	pop	esi
	pop	ebx
	mov	esp, ebp
	pop	ebp
	ret	4
?AddToPlayer@CPython@@UAEHPAVCBasePlayer@@@Z ENDP	; CPython::AddToPlayer
_TEXT	ENDS
; Function compile flags: /Odtp /ZI
; File d:\!diffusion 2020\source code 2022\client-server\server\weapons\weapon_deagle.cpp
;	COMDAT ?GetItemInfo@CPython@@UAEHPAUItemInfo@@@Z
_TEXT	SEGMENT
_this$ = -4						; size = 4
_p$ = 8							; size = 4
?GetItemInfo@CPython@@UAEHPAUItemInfo@@@Z PROC		; CPython::GetItemInfo, COMDAT
; _this$ = ecx

; 59   : {

	push	ebp
	mov	ebp, esp
	sub	esp, 68					; 00000044H
	push	ebx
	push	esi
	push	edi
	mov	DWORD PTR _this$[ebp], ecx

; 60   : 	p->pszName = STRING(pev->classname);

	mov	eax, DWORD PTR _this$[ebp]
	mov	ecx, DWORD PTR [eax+4]
	mov	edx, DWORD PTR [ecx]
	push	edx
	call	DWORD PTR ?g_engfuncs@@3Uenginefuncs_s@@A+264
	add	esp, 4
	mov	ecx, DWORD PTR _p$[ebp]
	mov	DWORD PTR [ecx+24], eax

; 61   : 	p->pszAmmo1 = "357";

	mov	eax, DWORD PTR _p$[ebp]
	mov	DWORD PTR [eax+8], OFFSET ??_C@_03IOICPAOD@357?$AA@

; 62   : 	p->iMaxAmmo1 = _357_MAX_CARRY;

	mov	eax, DWORD PTR _p$[ebp]
	mov	DWORD PTR [eax+12], 21			; 00000015H

; 63   : 	p->pszAmmo2 = NULL;

	mov	eax, DWORD PTR _p$[ebp]
	mov	DWORD PTR [eax+16], 0

; 64   : 	p->iMaxAmmo2 = -1;

	mov	eax, DWORD PTR _p$[ebp]
	mov	DWORD PTR [eax+20], -1

; 65   : 	p->iMaxClip = DEAGLE_MAX_CLIP;

	mov	eax, DWORD PTR _p$[ebp]
	mov	DWORD PTR [eax+28], 7

; 66   : 	p->iFlags = 0;

	mov	eax, DWORD PTR _p$[ebp]
	mov	DWORD PTR [eax+36], 0

; 67   : 	p->iSlot = 1;

	mov	eax, DWORD PTR _p$[ebp]
	mov	DWORD PTR [eax], 1

; 68   : 	p->iPosition = 1;

	mov	eax, DWORD PTR _p$[ebp]
	mov	DWORD PTR [eax+4], 1

; 69   : 	p->iId = m_iId = WEAPON_DEAGLE;

	mov	eax, DWORD PTR _this$[ebp]
	mov	DWORD PTR [eax+1864], 3
	mov	ecx, DWORD PTR _p$[ebp]
	mov	DWORD PTR [ecx+32], 3

; 70   : 	p->iWeight = PYTHON_WEIGHT;

	mov	eax, DWORD PTR _p$[ebp]
	mov	DWORD PTR [eax+40], 15			; 0000000fH

; 71   : 
; 72   : 	return 1;

	mov	eax, 1

; 73   : }

	pop	edi
	pop	esi
	pop	ebx
	mov	esp, ebp
	pop	ebp
	ret	4
?GetItemInfo@CPython@@UAEHPAUItemInfo@@@Z ENDP		; CPython::GetItemInfo
_TEXT	ENDS
; Function compile flags: /Odtp /ZI
; File d:\!diffusion 2020\source code 2022\client-server\server\weapons\weapon_deagle.cpp
;	COMDAT ?iItemSlot@CPython@@UAEHXZ
_TEXT	SEGMENT
_this$ = -4						; size = 4
?iItemSlot@CPython@@UAEHXZ PROC				; CPython::iItemSlot, COMDAT
; _this$ = ecx

; 43   : 	int iItemSlot( void ) { return 2; }

	push	ebp
	mov	ebp, esp
	sub	esp, 68					; 00000044H
	push	ebx
	push	esi
	push	edi
	mov	DWORD PTR _this$[ebp], ecx
	mov	eax, 2
	pop	edi
	pop	esi
	pop	ebx
	mov	esp, ebp
	pop	ebp
	ret	0
?iItemSlot@CPython@@UAEHXZ ENDP				; CPython::iItemSlot
_TEXT	ENDS
; Function compile flags: /Odtp /ZI
; File d:\!diffusion 2020\source code 2022\client-server\server\weapons\weapon_deagle.cpp
;	COMDAT ?Precache@CPython@@UAEXXZ
_TEXT	SEGMENT
_this$ = -4						; size = 4
?Precache@CPython@@UAEXXZ PROC				; CPython::Precache, COMDAT
; _this$ = ecx

; 101  : {

	push	ebp
	mov	ebp, esp
	sub	esp, 68					; 00000044H
	push	ebx
	push	esi
	push	edi
	mov	DWORD PTR _this$[ebp], ecx

; 102  : 	PRECACHE_MODEL("models/v_357.mdl");

	push	OFFSET ??_C@_0BB@HNNEPBHN@models?1v_357?4mdl?$AA@
	call	DWORD PTR ?g_engfuncs@@3Uenginefuncs_s@@A
	add	esp, 4

; 103  : 	PRECACHE_MODEL("models/w_357.mdl");

	push	OFFSET ??_C@_0BB@JCBGJKED@models?1w_357?4mdl?$AA@
	call	DWORD PTR ?g_engfuncs@@3Uenginefuncs_s@@A
	add	esp, 4

; 104  : 	PRECACHE_MODEL("models/p_357.mdl");

	push	OFFSET ??_C@_0BB@HAMKIBDK@models?1p_357?4mdl?$AA@
	call	DWORD PTR ?g_engfuncs@@3Uenginefuncs_s@@A
	add	esp, 4

; 105  : 
; 106  : 	PRECACHE_MODEL("models/w_357ammobox.mdl");

	push	OFFSET ??_C@_0BI@IPPCMDMI@models?1w_357ammobox?4mdl?$AA@
	call	DWORD PTR ?g_engfuncs@@3Uenginefuncs_s@@A
	add	esp, 4

; 107  : 	PRECACHE_SOUND("items/9mmclip1.wav");              

	push	OFFSET ??_C@_0BD@BADMCPNB@items?19mmclip1?4wav?$AA@
	call	DWORD PTR ?g_engfuncs@@3Uenginefuncs_s@@A+4
	add	esp, 4

; 108  : 
; 109  : 	PRECACHE_SOUND ("weapons/357_reload1.wav");

	push	OFFSET ??_C@_0BI@DOMDMLDK@weapons?1357_reload1?4wav?$AA@
	call	DWORD PTR ?g_engfuncs@@3Uenginefuncs_s@@A+4
	add	esp, 4

; 110  : 	PRECACHE_SOUND ("weapons/357_cock1.wav");

	push	OFFSET ??_C@_0BG@FDJOBCGH@weapons?1357_cock1?4wav?$AA@
	call	DWORD PTR ?g_engfuncs@@3Uenginefuncs_s@@A+4
	add	esp, 4

; 111  : 	PRECACHE_SOUND ("weapons/deagle_shot1.wav");

	push	OFFSET ??_C@_0BJ@KHPOFAGN@weapons?1deagle_shot1?4wav?$AA@
	call	DWORD PTR ?g_engfuncs@@3Uenginefuncs_s@@A+4
	add	esp, 4

; 112  : 	PRECACHE_SOUND ("weapons/deagle_shot1_d.wav");

	push	OFFSET ??_C@_0BL@CGAKJPNA@weapons?1deagle_shot1_d?4wav?$AA@
	call	DWORD PTR ?g_engfuncs@@3Uenginefuncs_s@@A+4
	add	esp, 4

; 113  : 
; 114  : 	m_iShell = PRECACHE_MODEL ("models/shell.mdl");// brass shell

	push	OFFSET ??_C@_0BB@JCOADJDD@models?1shell?4mdl?$AA@
	call	DWORD PTR ?g_engfuncs@@3Uenginefuncs_s@@A
	add	esp, 4
	mov	ecx, DWORD PTR _this$[ebp]
	mov	DWORD PTR [ecx+1924], eax

; 115  : }

	pop	edi
	pop	esi
	pop	ebx
	mov	esp, ebp
	pop	ebp
	ret	0
?Precache@CPython@@UAEXXZ ENDP				; CPython::Precache
_TEXT	ENDS
; Function compile flags: /Odtp /ZI
; File d:\!diffusion 2020\source code 2022\client-server\server\weapons\weapon_deagle.cpp
;	COMDAT ?Spawn@CPython@@UAEXXZ
_TEXT	SEGMENT
_this$ = -4						; size = 4
?Spawn@CPython@@UAEXXZ PROC				; CPython::Spawn, COMDAT
; _this$ = ecx

; 88   : {

	push	ebp
	mov	ebp, esp
	sub	esp, 68					; 00000044H
	push	ebx
	push	esi
	push	edi
	mov	DWORD PTR _this$[ebp], ecx

; 89   : 	pev->classname = MAKE_STRING("weapon_357"); // hack to allow for old names

	push	OFFSET ??_C@_0L@DGJNBIBM@weapon_357?$AA@
	call	DWORD PTR ?g_engfuncs@@3Uenginefuncs_s@@A+268
	add	esp, 4
	mov	ecx, DWORD PTR _this$[ebp]
	mov	edx, DWORD PTR [ecx+4]
	mov	DWORD PTR [edx], eax

; 90   : 	Precache( );

	mov	eax, DWORD PTR _this$[ebp]
	mov	edx, DWORD PTR [eax]
	mov	ecx, DWORD PTR _this$[ebp]
	mov	eax, DWORD PTR [edx+8]
	call	eax

; 91   : 	m_iId = WEAPON_DEAGLE;

	mov	eax, DWORD PTR _this$[ebp]
	mov	DWORD PTR [eax+1864], 3

; 92   : 	SET_MODEL(ENT(pev), "models/w_357.mdl");

	push	OFFSET ??_C@_0BB@JCBGJKED@models?1w_357?4mdl?$AA@
	mov	eax, DWORD PTR _this$[ebp]
	mov	ecx, DWORD PTR [eax+4]
	push	ecx
	call	?ENT@@YAPAUedict_s@@PBUentvars_s@@@Z	; ENT
	add	esp, 4
	push	eax
	call	DWORD PTR ?g_engfuncs@@3Uenginefuncs_s@@A+8
	add	esp, 8

; 93   : 
; 94   : 	m_iDefaultAmmo = PYTHON_DEFAULT_GIVE;

	mov	eax, DWORD PTR _this$[ebp]
	mov	DWORD PTR [eax+1920], 7

; 95   : 
; 96   : 	FallInit();// get ready to fall down.

	mov	ecx, DWORD PTR _this$[ebp]
	call	?FallInit@CBasePlayerItem@@QAEXXZ	; CBasePlayerItem::FallInit

; 97   : }

	pop	edi
	pop	esi
	pop	ebx
	mov	esp, ebp
	pop	ebp
	ret	0
?Spawn@CPython@@UAEXXZ ENDP				; CPython::Spawn
_TEXT	ENDS
; Function compile flags: /Odtp /ZI
;	COMDAT ??0CBasePlayerAmmo@@QAE@XZ
_TEXT	SEGMENT
_this$ = -4						; size = 4
??0CBasePlayerAmmo@@QAE@XZ PROC				; CBasePlayerAmmo::CBasePlayerAmmo, COMDAT
; _this$ = ecx
	push	ebp
	mov	ebp, esp
	sub	esp, 68					; 00000044H
	push	ebx
	push	esi
	push	edi
	mov	DWORD PTR _this$[ebp], ecx
	mov	ecx, DWORD PTR _this$[ebp]
	call	??0CBaseEntity@@QAE@XZ
	mov	eax, DWORD PTR _this$[ebp]
	mov	DWORD PTR [eax], OFFSET ??_7CBasePlayerAmmo@@6B@
	mov	eax, DWORD PTR _this$[ebp]
	pop	edi
	pop	esi
	pop	ebx
	mov	esp, ebp
	pop	ebp
	ret	0
??0CBasePlayerAmmo@@QAE@XZ ENDP				; CBasePlayerAmmo::CBasePlayerAmmo
_TEXT	ENDS
; Function compile flags: /Odtp /ZI
; File d:\!diffusion 2020\source code 2022\client-server\server\weapons\weapons.h
;	COMDAT ?AddAmmo@CBasePlayerAmmo@@UAEHPAVCBaseEntity@@@Z
_TEXT	SEGMENT
_this$ = -4						; size = 4
_pOther$ = 8						; size = 4
?AddAmmo@CBasePlayerAmmo@@UAEHPAVCBaseEntity@@@Z PROC	; CBasePlayerAmmo::AddAmmo, COMDAT
; _this$ = ecx

; 407  : 	virtual BOOL AddAmmo( CBaseEntity *pOther ) { return TRUE; };

	push	ebp
	mov	ebp, esp
	sub	esp, 68					; 00000044H
	push	ebx
	push	esi
	push	edi
	mov	DWORD PTR _this$[ebp], ecx
	mov	eax, 1
	pop	edi
	pop	esi
	pop	ebx
	mov	esp, ebp
	pop	ebp
	ret	4
?AddAmmo@CBasePlayerAmmo@@UAEHPAVCBaseEntity@@@Z ENDP	; CBasePlayerAmmo::AddAmmo
_TEXT	ENDS
; Function compile flags: /Odtp /ZI
;	COMDAT ??0CBasePlayerWeapon@@QAE@XZ
_TEXT	SEGMENT
_this$ = -4						; size = 4
??0CBasePlayerWeapon@@QAE@XZ PROC			; CBasePlayerWeapon::CBasePlayerWeapon, COMDAT
; _this$ = ecx
	push	ebp
	mov	ebp, esp
	sub	esp, 68					; 00000044H
	push	ebx
	push	esi
	push	edi
	mov	DWORD PTR _this$[ebp], ecx
	mov	ecx, DWORD PTR _this$[ebp]
	call	??0CBasePlayerItem@@QAE@XZ
	mov	eax, DWORD PTR _this$[ebp]
	mov	DWORD PTR [eax], OFFSET ??_7CBasePlayerWeapon@@6B@
	mov	eax, DWORD PTR _this$[ebp]
	pop	edi
	pop	esi
	pop	ebx
	mov	esp, ebp
	pop	ebp
	ret	0
??0CBasePlayerWeapon@@QAE@XZ ENDP			; CBasePlayerWeapon::CBasePlayerWeapon
_TEXT	ENDS
; Function compile flags: /Odtp /ZI
; File d:\!diffusion 2020\source code 2022\client-server\server\weapons\weapons.h
;	COMDAT ?GetWeaponPtr@CBasePlayerWeapon@@UAEPAVCBasePlayerItem@@XZ
_TEXT	SEGMENT
_this$ = -4						; size = 4
?GetWeaponPtr@CBasePlayerWeapon@@UAEPAVCBasePlayerItem@@XZ PROC ; CBasePlayerWeapon::GetWeaponPtr, COMDAT
; _this$ = ecx

; 383  : 	virtual CBasePlayerItem *GetWeaponPtr( void ) { return (CBasePlayerItem *)this; };

	push	ebp
	mov	ebp, esp
	sub	esp, 68					; 00000044H
	push	ebx
	push	esi
	push	edi
	mov	DWORD PTR _this$[ebp], ecx
	mov	eax, DWORD PTR _this$[ebp]
	pop	edi
	pop	esi
	pop	ebx
	mov	esp, ebp
	pop	ebp
	ret	0
?GetWeaponPtr@CBasePlayerWeapon@@UAEPAVCBasePlayerItem@@XZ ENDP ; CBasePlayerWeapon::GetWeaponPtr
_TEXT	ENDS
; Function compile flags: /Odtp /ZI
; File d:\!diffusion 2020\source code 2022\client-server\server\weapons\weapons.h
;	COMDAT ?UseDecrement@CBasePlayerWeapon@@UAEHXZ
_TEXT	SEGMENT
_this$ = -4						; size = 4
?UseDecrement@CBasePlayerWeapon@@UAEHXZ PROC		; CBasePlayerWeapon::UseDecrement, COMDAT
; _this$ = ecx

; 375  : 	virtual BOOL UseDecrement( void ) { return FALSE; };

	push	ebp
	mov	ebp, esp
	sub	esp, 68					; 00000044H
	push	ebx
	push	esi
	push	edi
	mov	DWORD PTR _this$[ebp], ecx
	xor	eax, eax
	pop	edi
	pop	esi
	pop	ebx
	mov	esp, ebp
	pop	ebp
	ret	0
?UseDecrement@CBasePlayerWeapon@@UAEHXZ ENDP		; CBasePlayerWeapon::UseDecrement
_TEXT	ENDS
; Function compile flags: /Odtp /ZI
; File d:\!diffusion 2020\source code 2022\client-server\server\weapons\weapons.h
;	COMDAT ?ShouldWeaponIdle@CBasePlayerWeapon@@UAEHXZ
_TEXT	SEGMENT
_this$ = -4						; size = 4
?ShouldWeaponIdle@CBasePlayerWeapon@@UAEHXZ PROC	; CBasePlayerWeapon::ShouldWeaponIdle, COMDAT
; _this$ = ecx

; 373  : 	virtual BOOL ShouldWeaponIdle( void ) {return FALSE; };

	push	ebp
	mov	ebp, esp
	sub	esp, 68					; 00000044H
	push	ebx
	push	esi
	push	edi
	mov	DWORD PTR _this$[ebp], ecx
	xor	eax, eax
	pop	edi
	pop	esi
	pop	ebx
	mov	esp, ebp
	pop	ebp
	ret	0
?ShouldWeaponIdle@CBasePlayerWeapon@@UAEHXZ ENDP	; CBasePlayerWeapon::ShouldWeaponIdle
_TEXT	ENDS
; Function compile flags: /Odtp /ZI
; File d:\!diffusion 2020\source code 2022\client-server\server\weapons\weapons.h
;	COMDAT ?WeaponIdle@CBasePlayerWeapon@@UAEXXZ
_TEXT	SEGMENT
_this$ = -4						; size = 4
?WeaponIdle@CBasePlayerWeapon@@UAEXXZ PROC		; CBasePlayerWeapon::WeaponIdle, COMDAT
; _this$ = ecx

; 370  : 	virtual void WeaponIdle( void ) { return; }					// called when no buttons pressed

	push	ebp
	mov	ebp, esp
	sub	esp, 68					; 00000044H
	push	ebx
	push	esi
	push	edi
	mov	DWORD PTR _this$[ebp], ecx
	pop	edi
	pop	esi
	pop	ebx
	mov	esp, ebp
	pop	ebp
	ret	0
?WeaponIdle@CBasePlayerWeapon@@UAEXXZ ENDP		; CBasePlayerWeapon::WeaponIdle
_TEXT	ENDS
; Function compile flags: /Odtp /ZI
; File d:\!diffusion 2020\source code 2022\client-server\server\weapons\weapons.h
;	COMDAT ?Reload@CBasePlayerWeapon@@UAEXXZ
_TEXT	SEGMENT
_this$ = -4						; size = 4
?Reload@CBasePlayerWeapon@@UAEXXZ PROC			; CBasePlayerWeapon::Reload, COMDAT
; _this$ = ecx

; 369  : 	virtual void Reload( void ) { return; }						// do "+RELOAD"

	push	ebp
	mov	ebp, esp
	sub	esp, 68					; 00000044H
	push	ebx
	push	esi
	push	edi
	mov	DWORD PTR _this$[ebp], ecx
	pop	edi
	pop	esi
	pop	ebx
	mov	esp, ebp
	pop	ebp
	ret	0
?Reload@CBasePlayerWeapon@@UAEXXZ ENDP			; CBasePlayerWeapon::Reload
_TEXT	ENDS
; Function compile flags: /Odtp /ZI
; File d:\!diffusion 2020\source code 2022\client-server\server\weapons\weapons.h
;	COMDAT ?SecondaryAttack@CBasePlayerWeapon@@UAEXXZ
_TEXT	SEGMENT
_this$ = -4						; size = 4
?SecondaryAttack@CBasePlayerWeapon@@UAEXXZ PROC		; CBasePlayerWeapon::SecondaryAttack, COMDAT
; _this$ = ecx

; 368  : 	virtual void SecondaryAttack( void ) { return; }			// do "+ATTACK2"

	push	ebp
	mov	ebp, esp
	sub	esp, 68					; 00000044H
	push	ebx
	push	esi
	push	edi
	mov	DWORD PTR _this$[ebp], ecx
	pop	edi
	pop	esi
	pop	ebx
	mov	esp, ebp
	pop	ebp
	ret	0
?SecondaryAttack@CBasePlayerWeapon@@UAEXXZ ENDP		; CBasePlayerWeapon::SecondaryAttack
_TEXT	ENDS
; Function compile flags: /Odtp /ZI
; File d:\!diffusion 2020\source code 2022\client-server\server\weapons\weapons.h
;	COMDAT ?PrimaryAttack@CBasePlayerWeapon@@UAEXXZ
_TEXT	SEGMENT
_this$ = -4						; size = 4
?PrimaryAttack@CBasePlayerWeapon@@UAEXXZ PROC		; CBasePlayerWeapon::PrimaryAttack, COMDAT
; _this$ = ecx

; 367  : 	virtual void PrimaryAttack( void ) { return; }				// do "+ATTACK"

	push	ebp
	mov	ebp, esp
	sub	esp, 68					; 00000044H
	push	ebx
	push	esi
	push	edi
	mov	DWORD PTR _this$[ebp], ecx
	pop	edi
	pop	esi
	pop	ebx
	mov	esp, ebp
	pop	ebp
	ret	0
?PrimaryAttack@CBasePlayerWeapon@@UAEXXZ ENDP		; CBasePlayerWeapon::PrimaryAttack
_TEXT	ENDS
; Function compile flags: /Odtp /ZI
; File d:\!diffusion 2020\source code 2022\client-server\server\weapons\weapons.h
;	COMDAT ?UpdateItemInfo@CBasePlayerWeapon@@UAEXXZ
_TEXT	SEGMENT
_this$ = -4						; size = 4
?UpdateItemInfo@CBasePlayerWeapon@@UAEXXZ PROC		; CBasePlayerWeapon::UpdateItemInfo, COMDAT
; _this$ = ecx

; 350  : 	virtual void UpdateItemInfo( void ) {};	// updates HUD state

	push	ebp
	mov	ebp, esp
	sub	esp, 68					; 00000044H
	push	ebx
	push	esi
	push	edi
	mov	DWORD PTR _this$[ebp], ecx
	pop	edi
	pop	esi
	pop	ebx
	mov	esp, ebp
	pop	ebp
	ret	0
?UpdateItemInfo@CBasePlayerWeapon@@UAEXXZ ENDP		; CBasePlayerWeapon::UpdateItemInfo
_TEXT	ENDS
; Function compile flags: /Odtp /ZI
; File d:\!diffusion 2020\source code 2022\client-server\server\weapons\weapons.h
;	COMDAT ?AddWeapon@CBasePlayerWeapon@@UAEHXZ
_TEXT	SEGMENT
_this$ = -4						; size = 4
?AddWeapon@CBasePlayerWeapon@@UAEHXZ PROC		; CBasePlayerWeapon::AddWeapon, COMDAT
; _this$ = ecx

; 344  : 	virtual int AddWeapon( void ) { ExtractAmmo( this ); return TRUE; };	// Return TRUE if you want to add yourself to the player

	push	ebp
	mov	ebp, esp
	sub	esp, 68					; 00000044H
	push	ebx
	push	esi
	push	edi
	mov	DWORD PTR _this$[ebp], ecx
	mov	eax, DWORD PTR _this$[ebp]
	push	eax
	mov	ecx, DWORD PTR _this$[ebp]
	mov	edx, DWORD PTR [ecx]
	mov	ecx, DWORD PTR _this$[ebp]
	mov	eax, DWORD PTR [edx+452]
	call	eax
	mov	eax, 1
	pop	edi
	pop	esi
	pop	ebx
	mov	esp, ebp
	pop	ebp
	ret	0
?AddWeapon@CBasePlayerWeapon@@UAEHXZ ENDP		; CBasePlayerWeapon::AddWeapon
_TEXT	ENDS
; Function compile flags: /Odtp /ZI
;	COMDAT ??0CBasePlayerItem@@QAE@XZ
_TEXT	SEGMENT
_this$ = -4						; size = 4
??0CBasePlayerItem@@QAE@XZ PROC				; CBasePlayerItem::CBasePlayerItem, COMDAT
; _this$ = ecx
	push	ebp
	mov	ebp, esp
	sub	esp, 68					; 00000044H
	push	ebx
	push	esi
	push	edi
	mov	DWORD PTR _this$[ebp], ecx
	mov	ecx, DWORD PTR _this$[ebp]
	call	??0CBaseAnimating@@QAE@XZ
	mov	eax, DWORD PTR _this$[ebp]
	mov	DWORD PTR [eax], OFFSET ??_7CBasePlayerItem@@6B@
	mov	eax, DWORD PTR _this$[ebp]
	pop	edi
	pop	esi
	pop	ebx
	mov	esp, ebp
	pop	ebp
	ret	0
??0CBasePlayerItem@@QAE@XZ ENDP				; CBasePlayerItem::CBasePlayerItem
_TEXT	ENDS
; Function compile flags: /Odtp /ZI
; File d:\!diffusion 2020\source code 2022\client-server\server\weapons\weapons.h
;	COMDAT ?iItemSlot@CBasePlayerItem@@UAEHXZ
_TEXT	SEGMENT
_this$ = -4						; size = 4
?iItemSlot@CBasePlayerItem@@UAEHXZ PROC			; CBasePlayerItem::iItemSlot, COMDAT
; _this$ = ecx

; 317  : 	virtual int iItemSlot( void ) { return 0; }		// return 0 to MAX_ITEMS_SLOTS, used in hud

	push	ebp
	mov	ebp, esp
	sub	esp, 68					; 00000044H
	push	ebx
	push	esi
	push	edi
	mov	DWORD PTR _this$[ebp], ecx
	xor	eax, eax
	pop	edi
	pop	esi
	pop	ebx
	mov	esp, ebp
	pop	ebp
	ret	0
?iItemSlot@CBasePlayerItem@@UAEHXZ ENDP			; CBasePlayerItem::iItemSlot
_TEXT	ENDS
; Function compile flags: /Odtp /ZI
; File d:\!diffusion 2020\source code 2022\client-server\server\weapons\weapons.h
;	COMDAT ?GetWeaponPtr@CBasePlayerItem@@UAEPAV1@XZ
_TEXT	SEGMENT
_this$ = -4						; size = 4
?GetWeaponPtr@CBasePlayerItem@@UAEPAV1@XZ PROC		; CBasePlayerItem::GetWeaponPtr, COMDAT
; _this$ = ecx

; 308  : 	virtual CBasePlayerItem *GetWeaponPtr( void ) { return NULL; };

	push	ebp
	mov	ebp, esp
	sub	esp, 68					; 00000044H
	push	ebx
	push	esi
	push	edi
	mov	DWORD PTR _this$[ebp], ecx
	xor	eax, eax
	pop	edi
	pop	esi
	pop	ebx
	mov	esp, ebp
	pop	ebp
	ret	0
?GetWeaponPtr@CBasePlayerItem@@UAEPAV1@XZ ENDP		; CBasePlayerItem::GetWeaponPtr
_TEXT	ENDS
; Function compile flags: /Odtp /ZI
; File d:\!diffusion 2020\source code 2022\client-server\server\weapons\weapons.h
;	COMDAT ?UpdateClientData@CBasePlayerItem@@UAEHPAVCBasePlayer@@@Z
_TEXT	SEGMENT
_this$ = -4						; size = 4
_pPlayer$ = 8						; size = 4
?UpdateClientData@CBasePlayerItem@@UAEHPAVCBasePlayer@@@Z PROC ; CBasePlayerItem::UpdateClientData, COMDAT
; _this$ = ecx

; 306  : 	virtual int UpdateClientData( CBasePlayer *pPlayer ) { return 0; }

	push	ebp
	mov	ebp, esp
	sub	esp, 68					; 00000044H
	push	ebx
	push	esi
	push	edi
	mov	DWORD PTR _this$[ebp], ecx
	xor	eax, eax
	pop	edi
	pop	esi
	pop	ebx
	mov	esp, ebp
	pop	ebp
	ret	4
?UpdateClientData@CBasePlayerItem@@UAEHPAVCBasePlayer@@@Z ENDP ; CBasePlayerItem::UpdateClientData
_TEXT	ENDS
; Function compile flags: /Odtp /ZI
; File d:\!diffusion 2020\source code 2022\client-server\server\weapons\weapons.h
;	COMDAT ?SecondaryAmmoIndex@CBasePlayerItem@@UAEHXZ
_TEXT	SEGMENT
_this$ = -4						; size = 4
?SecondaryAmmoIndex@CBasePlayerItem@@UAEHXZ PROC	; CBasePlayerItem::SecondaryAmmoIndex, COMDAT
; _this$ = ecx

; 304  : 	virtual int SecondaryAmmoIndex() { return -1; };

	push	ebp
	mov	ebp, esp
	sub	esp, 68					; 00000044H
	push	ebx
	push	esi
	push	edi
	mov	DWORD PTR _this$[ebp], ecx
	or	eax, -1
	pop	edi
	pop	esi
	pop	ebx
	mov	esp, ebp
	pop	ebp
	ret	0
?SecondaryAmmoIndex@CBasePlayerItem@@UAEHXZ ENDP	; CBasePlayerItem::SecondaryAmmoIndex
_TEXT	ENDS
; Function compile flags: /Odtp /ZI
; File d:\!diffusion 2020\source code 2022\client-server\server\weapons\weapons.h
;	COMDAT ?PrimaryAmmoIndex@CBasePlayerItem@@UAEHXZ
_TEXT	SEGMENT
_this$ = -4						; size = 4
?PrimaryAmmoIndex@CBasePlayerItem@@UAEHXZ PROC		; CBasePlayerItem::PrimaryAmmoIndex, COMDAT
; _this$ = ecx

; 303  : 	virtual int PrimaryAmmoIndex() { return -1; };

	push	ebp
	mov	ebp, esp
	sub	esp, 68					; 00000044H
	push	ebx
	push	esi
	push	edi
	mov	DWORD PTR _this$[ebp], ecx
	or	eax, -1
	pop	edi
	pop	esi
	pop	ebx
	mov	esp, ebp
	pop	ebp
	ret	0
?PrimaryAmmoIndex@CBasePlayerItem@@UAEHXZ ENDP		; CBasePlayerItem::PrimaryAmmoIndex
_TEXT	ENDS
; Function compile flags: /Odtp /ZI
; File d:\!diffusion 2020\source code 2022\client-server\server\weapons\weapons.h
;	COMDAT ?ItemPostFrame@CBasePlayerItem@@UAEXXZ
_TEXT	SEGMENT
_this$ = -4						; size = 4
?ItemPostFrame@CBasePlayerItem@@UAEXXZ PROC		; CBasePlayerItem::ItemPostFrame, COMDAT
; _this$ = ecx

; 297  : 	virtual void ItemPostFrame( void ) { return; }		// called each frame by the player PostThink

	push	ebp
	mov	ebp, esp
	sub	esp, 68					; 00000044H
	push	ebx
	push	esi
	push	edi
	mov	DWORD PTR _this$[ebp], ecx
	pop	edi
	pop	esi
	pop	ebx
	mov	esp, ebp
	pop	ebp
	ret	0
?ItemPostFrame@CBasePlayerItem@@UAEXXZ ENDP		; CBasePlayerItem::ItemPostFrame
_TEXT	ENDS
; Function compile flags: /Odtp /ZI
; File d:\!diffusion 2020\source code 2022\client-server\server\weapons\weapons.h
;	COMDAT ?ItemPreFrame@CBasePlayerItem@@UAEXXZ
_TEXT	SEGMENT
_this$ = -4						; size = 4
?ItemPreFrame@CBasePlayerItem@@UAEXXZ PROC		; CBasePlayerItem::ItemPreFrame, COMDAT
; _this$ = ecx

; 296  : 	virtual void ItemPreFrame( void ) { return; }		// called each frame by the player PreThink

	push	ebp
	mov	ebp, esp
	sub	esp, 68					; 00000044H
	push	ebx
	push	esi
	push	edi
	mov	DWORD PTR _this$[ebp], ecx
	pop	edi
	pop	esi
	pop	ebx
	mov	esp, ebp
	pop	ebp
	ret	0
?ItemPreFrame@CBasePlayerItem@@UAEXXZ ENDP		; CBasePlayerItem::ItemPreFrame
_TEXT	ENDS
; Function compile flags: /Odtp /ZI
; File d:\!diffusion 2020\source code 2022\client-server\server\weapons\weapons.h
;	COMDAT ?UpdateItemInfo@CBasePlayerItem@@UAEXXZ
_TEXT	SEGMENT
_this$ = -4						; size = 4
?UpdateItemInfo@CBasePlayerItem@@UAEXXZ PROC		; CBasePlayerItem::UpdateItemInfo, COMDAT
; _this$ = ecx

; 294  : 	virtual void UpdateItemInfo( void ) { return; };

	push	ebp
	mov	ebp, esp
	sub	esp, 68					; 00000044H
	push	ebx
	push	esi
	push	edi
	mov	DWORD PTR _this$[ebp], ecx
	pop	edi
	pop	esi
	pop	ebx
	mov	esp, ebp
	pop	ebp
	ret	0
?UpdateItemInfo@CBasePlayerItem@@UAEXXZ ENDP		; CBasePlayerItem::UpdateItemInfo
_TEXT	ENDS
; Function compile flags: /Odtp /ZI
; File d:\!diffusion 2020\source code 2022\client-server\server\weapons\weapons.h
;	COMDAT ?CanHolster@CBasePlayerItem@@UAEHXZ
_TEXT	SEGMENT
_this$ = -4						; size = 4
?CanHolster@CBasePlayerItem@@UAEHXZ PROC		; CBasePlayerItem::CanHolster, COMDAT
; _this$ = ecx

; 292  : 	virtual BOOL CanHolster( void ) { return TRUE; };		// can this weapon be put away right now?

	push	ebp
	mov	ebp, esp
	sub	esp, 68					; 00000044H
	push	ebx
	push	esi
	push	edi
	mov	DWORD PTR _this$[ebp], ecx
	mov	eax, 1
	pop	edi
	pop	esi
	pop	ebx
	mov	esp, ebp
	pop	ebp
	ret	0
?CanHolster@CBasePlayerItem@@UAEHXZ ENDP		; CBasePlayerItem::CanHolster
_TEXT	ENDS
; Function compile flags: /Odtp /ZI
; File d:\!diffusion 2020\source code 2022\client-server\server\weapons\weapons.h
;	COMDAT ?Deploy@CBasePlayerItem@@UAEHXZ
_TEXT	SEGMENT
_this$ = -4						; size = 4
?Deploy@CBasePlayerItem@@UAEHXZ PROC			; CBasePlayerItem::Deploy, COMDAT
; _this$ = ecx

; 289  : 	virtual BOOL Deploy( ) { return TRUE; };		// returns is deploy was successful

	push	ebp
	mov	ebp, esp
	sub	esp, 68					; 00000044H
	push	ebx
	push	esi
	push	edi
	mov	DWORD PTR _this$[ebp], ecx
	mov	eax, 1
	pop	edi
	pop	esi
	pop	ebx
	mov	esp, ebp
	pop	ebp
	ret	0
?Deploy@CBasePlayerItem@@UAEHXZ ENDP			; CBasePlayerItem::Deploy
_TEXT	ENDS
; Function compile flags: /Odtp /ZI
; File d:\!diffusion 2020\source code 2022\client-server\server\weapons\weapons.h
;	COMDAT ?CanDeploy@CBasePlayerItem@@UAEHXZ
_TEXT	SEGMENT
_this$ = -4						; size = 4
?CanDeploy@CBasePlayerItem@@UAEHXZ PROC			; CBasePlayerItem::CanDeploy, COMDAT
; _this$ = ecx

; 288  : 	virtual BOOL CanDeploy( void ) { return TRUE; };

	push	ebp
	mov	ebp, esp
	sub	esp, 68					; 00000044H
	push	ebx
	push	esi
	push	edi
	mov	DWORD PTR _this$[ebp], ecx
	mov	eax, 1
	pop	edi
	pop	esi
	pop	ebx
	mov	esp, ebp
	pop	ebp
	ret	0
?CanDeploy@CBasePlayerItem@@UAEHXZ ENDP			; CBasePlayerItem::CanDeploy
_TEXT	ENDS
; Function compile flags: /Odtp /ZI
; File d:\!diffusion 2020\source code 2022\client-server\server\weapons\weapons.h
;	COMDAT ?GetItemInfo@CBasePlayerItem@@UAEHPAUItemInfo@@@Z
_TEXT	SEGMENT
_this$ = -4						; size = 4
_p$ = 8							; size = 4
?GetItemInfo@CBasePlayerItem@@UAEHPAUItemInfo@@@Z PROC	; CBasePlayerItem::GetItemInfo, COMDAT
; _this$ = ecx

; 287  : 	virtual int GetItemInfo(ItemInfo *p) { return 0; };	// returns 0 if struct not filled out

	push	ebp
	mov	ebp, esp
	sub	esp, 68					; 00000044H
	push	ebx
	push	esi
	push	edi
	mov	DWORD PTR _this$[ebp], ecx
	xor	eax, eax
	pop	edi
	pop	esi
	pop	ebx
	mov	esp, ebp
	pop	ebp
	ret	4
?GetItemInfo@CBasePlayerItem@@UAEHPAUItemInfo@@@Z ENDP	; CBasePlayerItem::GetItemInfo
_TEXT	ENDS
; Function compile flags: /Odtp /ZI
; File d:\!diffusion 2020\source code 2022\client-server\server\weapons\weapons.h
;	COMDAT ?AddDuplicate@CBasePlayerItem@@UAEHPAV1@@Z
_TEXT	SEGMENT
_this$ = -4						; size = 4
_pItem$ = 8						; size = 4
?AddDuplicate@CBasePlayerItem@@UAEHPAV1@@Z PROC		; CBasePlayerItem::AddDuplicate, COMDAT
; _this$ = ecx

; 278  : 	virtual int AddDuplicate( CBasePlayerItem *pItem ) { return FALSE; }	// return TRUE if you want your duplicate removed from world

	push	ebp
	mov	ebp, esp
	sub	esp, 68					; 00000044H
	push	ebx
	push	esi
	push	edi
	mov	DWORD PTR _this$[ebp], ecx
	xor	eax, eax
	pop	edi
	pop	esi
	pop	ebx
	mov	esp, ebp
	pop	ebp
	ret	4
?AddDuplicate@CBasePlayerItem@@UAEHPAV1@@Z ENDP		; CBasePlayerItem::AddDuplicate
_TEXT	ENDS
; Function compile flags: /Odtp /ZI
;	COMDAT ??0CBaseAnimating@@QAE@XZ
_TEXT	SEGMENT
_this$ = -4						; size = 4
??0CBaseAnimating@@QAE@XZ PROC				; CBaseAnimating::CBaseAnimating, COMDAT
; _this$ = ecx
	push	ebp
	mov	ebp, esp
	sub	esp, 68					; 00000044H
	push	ebx
	push	esi
	push	edi
	mov	DWORD PTR _this$[ebp], ecx
	mov	ecx, DWORD PTR _this$[ebp]
	call	??0CBaseDelay@@QAE@XZ
	mov	eax, DWORD PTR _this$[ebp]
	mov	DWORD PTR [eax], OFFSET ??_7CBaseAnimating@@6B@
	mov	eax, DWORD PTR _this$[ebp]
	pop	edi
	pop	esi
	pop	ebx
	mov	esp, ebp
	pop	ebp
	ret	0
??0CBaseAnimating@@QAE@XZ ENDP				; CBaseAnimating::CBaseAnimating
_TEXT	ENDS
; Function compile flags: /Odtp /ZI
; File d:\!diffusion 2020\source code 2022\client-server\server\cbase.h
;	COMDAT ?HandleAnimEvent@CBaseAnimating@@UAEXPAUMonsterEvent_t@@@Z
_TEXT	SEGMENT
_this$ = -4						; size = 4
_pEvent$ = 8						; size = 4
?HandleAnimEvent@CBaseAnimating@@UAEXPAUMonsterEvent_t@@@Z PROC ; CBaseAnimating::HandleAnimEvent, COMDAT
; _this$ = ecx

; 961  : 	virtual void HandleAnimEvent( MonsterEvent_t *pEvent ) { return; };

	push	ebp
	mov	ebp, esp
	sub	esp, 68					; 00000044H
	push	ebx
	push	esi
	push	edi
	mov	DWORD PTR _this$[ebp], ecx
	pop	edi
	pop	esi
	pop	ebx
	mov	esp, ebp
	pop	ebp
	ret	4
?HandleAnimEvent@CBaseAnimating@@UAEXPAUMonsterEvent_t@@@Z ENDP ; CBaseAnimating::HandleAnimEvent
_TEXT	ENDS
; Function compile flags: /Odtp /ZI
;	COMDAT ??0CBaseDelay@@QAE@XZ
_TEXT	SEGMENT
_this$ = -4						; size = 4
??0CBaseDelay@@QAE@XZ PROC				; CBaseDelay::CBaseDelay, COMDAT
; _this$ = ecx
	push	ebp
	mov	ebp, esp
	sub	esp, 68					; 00000044H
	push	ebx
	push	esi
	push	edi
	mov	DWORD PTR _this$[ebp], ecx
	mov	ecx, DWORD PTR _this$[ebp]
	call	??0CBaseEntity@@QAE@XZ
	mov	eax, DWORD PTR _this$[ebp]
	mov	DWORD PTR [eax], OFFSET ??_7CBaseDelay@@6B@
	mov	eax, DWORD PTR _this$[ebp]
	pop	edi
	pop	esi
	pop	ebx
	mov	esp, ebp
	pop	ebp
	ret	0
??0CBaseDelay@@QAE@XZ ENDP				; CBaseDelay::CBaseDelay
_TEXT	ENDS
; Function compile flags: /Odtp /ZI
; File d:\!diffusion 2020\source code 2022\client-server\server\cbase.h
;	COMDAT ?GetState@CBaseDelay@@UAE?AW4STATE@@XZ
_TEXT	SEGMENT
_this$ = -4						; size = 4
?GetState@CBaseDelay@@UAE?AW4STATE@@XZ PROC		; CBaseDelay::GetState, COMDAT
; _this$ = ecx

; 933  : 	virtual STATE GetState( void ) { return m_iState; };

	push	ebp
	mov	ebp, esp
	sub	esp, 68					; 00000044H
	push	ebx
	push	esi
	push	edi
	mov	DWORD PTR _this$[ebp], ecx
	mov	eax, DWORD PTR _this$[ebp]
	mov	eax, DWORD PTR [eax+1828]
	pop	edi
	pop	esi
	pop	ebx
	mov	esp, ebp
	pop	ebp
	ret	0
?GetState@CBaseDelay@@UAE?AW4STATE@@XZ ENDP		; CBaseDelay::GetState
_TEXT	ENDS
; Function compile flags: /Odtp /ZI
;	COMDAT ??0CBaseEntity@@QAE@XZ
_TEXT	SEGMENT
_this$ = -16						; size = 4
__$EHRec$ = -12						; size = 12
??0CBaseEntity@@QAE@XZ PROC				; CBaseEntity::CBaseEntity, COMDAT
; _this$ = ecx
	push	ebp
	mov	ebp, esp
	push	-1
	push	__ehhandler$??0CBaseEntity@@QAE@XZ
	mov	eax, DWORD PTR fs:0
	push	eax
	sub	esp, 68					; 00000044H
	push	ebx
	push	esi
	push	edi
	mov	eax, DWORD PTR ___security_cookie
	xor	eax, ebp
	push	eax
	lea	eax, DWORD PTR __$EHRec$[ebp]
	mov	DWORD PTR fs:0, eax
	mov	DWORD PTR _this$[ebp], ecx
	mov	eax, DWORD PTR _this$[ebp]
	mov	DWORD PTR [eax], OFFSET ??_7CBaseEntity@@6B@
	mov	ecx, DWORD PTR _this$[ebp]
	add	ecx, 84					; 00000054H
	call	??0Vector@@QAE@XZ			; Vector::Vector
	mov	ecx, DWORD PTR _this$[ebp]
	add	ecx, 96					; 00000060H
	call	??0Vector@@QAE@XZ			; Vector::Vector
	mov	ecx, DWORD PTR _this$[ebp]
	add	ecx, 108				; 0000006cH
	call	??0Vector@@QAE@XZ			; Vector::Vector
	mov	ecx, DWORD PTR _this$[ebp]
	add	ecx, 120				; 00000078H
	call	??0Vector@@QAE@XZ			; Vector::Vector
	mov	ecx, DWORD PTR _this$[ebp]
	add	ecx, 132				; 00000084H
	call	??0Vector@@QAE@XZ			; Vector::Vector
	mov	ecx, DWORD PTR _this$[ebp]
	add	ecx, 144				; 00000090H
	call	??0Vector@@QAE@XZ			; Vector::Vector
	mov	ecx, DWORD PTR _this$[ebp]
	add	ecx, 192				; 000000c0H
	call	??0matrix4x4@@QAE@XZ			; matrix4x4::matrix4x4
	mov	ecx, DWORD PTR _this$[ebp]
	add	ecx, 260				; 00000104H
	call	??0CMeshDesc@@QAE@XZ			; CMeshDesc::CMeshDesc
	mov	DWORD PTR __$EHRec$[ebp+8], 0
	mov	ecx, DWORD PTR _this$[ebp]
	add	ecx, 1644				; 0000066cH
	call	??0Vector@@QAE@XZ			; Vector::Vector
	mov	DWORD PTR __$EHRec$[ebp+8], -1
	mov	eax, DWORD PTR _this$[ebp]
	mov	ecx, DWORD PTR __$EHRec$[ebp]
	mov	DWORD PTR fs:0, ecx
	pop	ecx
	pop	edi
	pop	esi
	pop	ebx
	mov	esp, ebp
	pop	ebp
	ret	0
_TEXT	ENDS
;	COMDAT text$x
text$x	SEGMENT
__unwindfunclet$??0CBaseEntity@@QAE@XZ$0:
	mov	ecx, DWORD PTR _this$[ebp]
	add	ecx, 260				; 00000104H
	jmp	??1CMeshDesc@@QAE@XZ			; CMeshDesc::~CMeshDesc
__ehhandler$??0CBaseEntity@@QAE@XZ:
	mov	edx, DWORD PTR [esp+8]
	lea	eax, DWORD PTR [edx+12]
	mov	ecx, DWORD PTR [edx-84]
	xor	ecx, eax
	call	@__security_check_cookie@4
	mov	eax, OFFSET __ehfuncinfo$??0CBaseEntity@@QAE@XZ
	jmp	___CxxFrameHandler3
text$x	ENDS
??0CBaseEntity@@QAE@XZ ENDP				; CBaseEntity::CBaseEntity
; Function compile flags: /Odtp /ZI
; File d:\!diffusion 2020\source code 2022\client-server\server\cbase.h
;	COMDAT ?Illumination@CBaseEntity@@UAEHXZ
_TEXT	SEGMENT
_this$ = -4						; size = 4
?Illumination@CBaseEntity@@UAEHXZ PROC			; CBaseEntity::Illumination, COMDAT
; _this$ = ecx

; 757  : 	virtual int Illumination( ) { return GETENTITYILLUM( ENT( pev ) ); };

	push	ebp
	mov	ebp, esp
	sub	esp, 68					; 00000044H
	push	ebx
	push	esi
	push	edi
	mov	DWORD PTR _this$[ebp], ecx
	mov	eax, DWORD PTR _this$[ebp]
	mov	ecx, DWORD PTR [eax+4]
	push	ecx
	call	?ENT@@YAPAUedict_s@@PBUentvars_s@@@Z	; ENT
	add	esp, 4
	push	eax
	call	DWORD PTR ?g_engfuncs@@3Uenginefuncs_s@@A+60
	add	esp, 4
	pop	edi
	pop	esi
	pop	ebx
	mov	esp, ebp
	pop	ebp
	ret	0
?Illumination@CBaseEntity@@UAEHXZ ENDP			; CBaseEntity::Illumination
_TEXT	ENDS
; Function compile flags: /Odtp /ZI
; File d:\!diffusion 2020\source code 2022\client-server\server\cbase.h
;	COMDAT ?IsPointSized@CBaseEntity@@UBEHXZ
_TEXT	SEGMENT
tv70 = -69						; size = 1
_this$ = -4						; size = 4
?IsPointSized@CBaseEntity@@UBEHXZ PROC			; CBaseEntity::IsPointSized, COMDAT
; _this$ = ecx

; 755  : 	virtual BOOL IsPointSized() const { return (pev->size == g_vecZero) ? true : false; }

	push	ebp
	mov	ebp, esp
	sub	esp, 72					; 00000048H
	push	ebx
	push	esi
	push	edi
	mov	DWORD PTR _this$[ebp], ecx
	push	OFFSET ?g_vecZero@@3VVector@@B		; g_vecZero
	mov	eax, DWORD PTR _this$[ebp]
	mov	ecx, DWORD PTR [eax+4]
	add	ecx, 244				; 000000f4H
	call	??8Vector@@QBEHABV0@@Z			; Vector::operator==
	test	eax, eax
	je	SHORT $LN3@IsPointSiz
	mov	BYTE PTR tv70[ebp], 1
	jmp	SHORT $LN4@IsPointSiz
$LN3@IsPointSiz:
	mov	BYTE PTR tv70[ebp], 0
$LN4@IsPointSiz:
	movzx	eax, BYTE PTR tv70[ebp]
	pop	edi
	pop	esi
	pop	ebx
	mov	esp, ebp
	pop	ebp
	ret	0
?IsPointSized@CBaseEntity@@UBEHXZ ENDP			; CBaseEntity::IsPointSized
_TEXT	ENDS
; Function compile flags: /Odtp /ZI
; File d:\!diffusion 2020\source code 2022\client-server\server\cbase.h
;	COMDAT ?BodyTarget@CBaseEntity@@UAE?AVVector@@ABV2@@Z
_TEXT	SEGMENT
_this$ = -4						; size = 4
___$ReturnUdt$ = 8					; size = 4
_posSrc$ = 12						; size = 4
?BodyTarget@CBaseEntity@@UAE?AVVector@@ABV2@@Z PROC	; CBaseEntity::BodyTarget, COMDAT
; _this$ = ecx

; 754  : 	virtual Vector BodyTarget( const Vector &posSrc ) { return Center( ); };		// position to shoot at

	push	ebp
	mov	ebp, esp
	sub	esp, 68					; 00000044H
	push	ebx
	push	esi
	push	edi
	mov	DWORD PTR _this$[ebp], ecx
	mov	eax, DWORD PTR ___$ReturnUdt$[ebp]
	push	eax
	mov	ecx, DWORD PTR _this$[ebp]
	mov	edx, DWORD PTR [ecx]
	mov	ecx, DWORD PTR _this$[ebp]
	mov	eax, DWORD PTR [edx+336]
	call	eax
	mov	eax, DWORD PTR ___$ReturnUdt$[ebp]
	pop	edi
	pop	esi
	pop	ebx
	mov	esp, ebp
	pop	ebp
	ret	8
?BodyTarget@CBaseEntity@@UAE?AVVector@@ABV2@@Z ENDP	; CBaseEntity::BodyTarget
_TEXT	ENDS
; Function compile flags: /Odtp /ZI
; File d:\!diffusion 2020\source code 2022\client-server\server\cbase.h
;	COMDAT ?EarPosition@CBaseEntity@@UAE?AVVector@@XZ
_TEXT	SEGMENT
_this$ = -4						; size = 4
___$ReturnUdt$ = 8					; size = 4
?EarPosition@CBaseEntity@@UAE?AVVector@@XZ PROC		; CBaseEntity::EarPosition, COMDAT
; _this$ = ecx

; 751  : 	{ 

	push	ebp
	mov	ebp, esp
	sub	esp, 68					; 00000044H
	push	ebx
	push	esi
	push	edi
	mov	DWORD PTR _this$[ebp], ecx

; 752  : 		return GetAbsOrigin() + pev->view_ofs; 

	mov	eax, DWORD PTR _this$[ebp]
	mov	ecx, DWORD PTR [eax+4]
	add	ecx, 372				; 00000174H
	push	ecx
	mov	edx, DWORD PTR ___$ReturnUdt$[ebp]
	push	edx
	mov	ecx, DWORD PTR _this$[ebp]
	call	?GetAbsOrigin@CBaseEntity@@QBEABVVector@@XZ ; CBaseEntity::GetAbsOrigin
	mov	ecx, eax
	call	??HVector@@QBE?AV0@ABV0@@Z		; Vector::operator+
	mov	eax, DWORD PTR ___$ReturnUdt$[ebp]

; 753  : 	};			// position of ears

	pop	edi
	pop	esi
	pop	ebx
	mov	esp, ebp
	pop	ebp
	ret	4
?EarPosition@CBaseEntity@@UAE?AVVector@@XZ ENDP		; CBaseEntity::EarPosition
_TEXT	ENDS
; Function compile flags: /Odtp /ZI
; File d:\!diffusion 2020\source code 2022\client-server\server\cbase.h
;	COMDAT ?EyePosition@CBaseEntity@@UAE?AVVector@@XZ
_TEXT	SEGMENT
_this$ = -4						; size = 4
___$ReturnUdt$ = 8					; size = 4
?EyePosition@CBaseEntity@@UAE?AVVector@@XZ PROC		; CBaseEntity::EyePosition, COMDAT
; _this$ = ecx

; 747  : 	{

	push	ebp
	mov	ebp, esp
	sub	esp, 68					; 00000044H
	push	ebx
	push	esi
	push	edi
	mov	DWORD PTR _this$[ebp], ecx

; 748  : 		return GetAbsOrigin() + pev->view_ofs;

	mov	eax, DWORD PTR _this$[ebp]
	mov	ecx, DWORD PTR [eax+4]
	add	ecx, 372				; 00000174H
	push	ecx
	mov	edx, DWORD PTR ___$ReturnUdt$[ebp]
	push	edx
	mov	ecx, DWORD PTR _this$[ebp]
	call	?GetAbsOrigin@CBaseEntity@@QBEABVVector@@XZ ; CBaseEntity::GetAbsOrigin
	mov	ecx, eax
	call	??HVector@@QBE?AV0@ABV0@@Z		; Vector::operator+
	mov	eax, DWORD PTR ___$ReturnUdt$[ebp]

; 749  : 	};			// position of eyes

	pop	edi
	pop	esi
	pop	ebx
	mov	esp, ebp
	pop	ebp
	ret	4
?EyePosition@CBaseEntity@@UAE?AVVector@@XZ ENDP		; CBaseEntity::EyePosition
_TEXT	ENDS
; Function compile flags: /Odtp /ZI
; File d:\!diffusion 2020\source code 2022\client-server\server\cbase.h
;	COMDAT ?Center@CBaseEntity@@UAE?AVVector@@XZ
_TEXT	SEGMENT
$T1 = -80						; size = 12
_this$ = -4						; size = 4
___$ReturnUdt$ = 8					; size = 4
?Center@CBaseEntity@@UAE?AVVector@@XZ PROC		; CBaseEntity::Center, COMDAT
; _this$ = ecx

; 745  : 	virtual Vector Center( ) { return (pev->absmax + pev->absmin) * 0.5; }; // center point of entity

	push	ebp
	mov	ebp, esp
	sub	esp, 80					; 00000050H
	push	ebx
	push	esi
	push	edi
	mov	DWORD PTR _this$[ebp], ecx
	push	ecx
	movss	xmm0, DWORD PTR __real@3f000000
	movss	DWORD PTR [esp], xmm0
	mov	eax, DWORD PTR ___$ReturnUdt$[ebp]
	push	eax
	mov	ecx, DWORD PTR _this$[ebp]
	mov	edx, DWORD PTR [ecx+4]
	add	edx, 196				; 000000c4H
	push	edx
	lea	eax, DWORD PTR $T1[ebp]
	push	eax
	mov	ecx, DWORD PTR _this$[ebp]
	mov	ecx, DWORD PTR [ecx+4]
	add	ecx, 208				; 000000d0H
	call	??HVector@@QBE?AV0@ABV0@@Z		; Vector::operator+
	mov	ecx, eax
	call	??DVector@@QBE?AV0@M@Z			; Vector::operator*
	mov	eax, DWORD PTR ___$ReturnUdt$[ebp]
	pop	edi
	pop	esi
	pop	ebx
	mov	esp, ebp
	pop	ebp
	ret	4
?Center@CBaseEntity@@UAE?AVVector@@XZ ENDP		; CBaseEntity::Center
_TEXT	ENDS
; Function compile flags: /Odtp /ZI
; File d:\!diffusion 2020\source code 2022\client-server\server\cbase.h
;	COMDAT ?edict@CBaseEntity@@QAEPAUedict_s@@XZ
_TEXT	SEGMENT
_this$ = -4						; size = 4
?edict@CBaseEntity@@QAEPAUedict_s@@XZ PROC		; CBaseEntity::edict, COMDAT
; _this$ = ecx

; 741  : 	edict_t *edict() { return ENT( pev ); };

	push	ebp
	mov	ebp, esp
	sub	esp, 68					; 00000044H
	push	ebx
	push	esi
	push	edi
	mov	DWORD PTR _this$[ebp], ecx
	mov	eax, DWORD PTR _this$[ebp]
	mov	ecx, DWORD PTR [eax+4]
	push	ecx
	call	?ENT@@YAPAUedict_s@@PBUentvars_s@@@Z	; ENT
	add	esp, 4
	pop	edi
	pop	esi
	pop	ebx
	mov	esp, ebp
	pop	ebp
	ret	0
?edict@CBaseEntity@@QAEPAUedict_s@@XZ ENDP		; CBaseEntity::edict
_TEXT	ENDS
; Function compile flags: /Odtp /ZI
; File d:\!diffusion 2020\source code 2022\client-server\server\cbase.h
;	COMDAT ?FBecomeProne@CBaseEntity@@UAEHXZ
_TEXT	SEGMENT
_this$ = -4						; size = 4
?FBecomeProne@CBaseEntity@@UAEHXZ PROC			; CBaseEntity::FBecomeProne, COMDAT
; _this$ = ecx

; 740  : 	virtual BOOL FBecomeProne( void ) {return FALSE;};

	push	ebp
	mov	ebp, esp
	sub	esp, 68					; 00000044H
	push	ebx
	push	esi
	push	edi
	mov	DWORD PTR _this$[ebp], ecx
	xor	eax, eax
	pop	edi
	pop	esi
	pop	ebx
	mov	esp, ebp
	pop	ebp
	ret	0
?FBecomeProne@CBaseEntity@@UAEHXZ ENDP			; CBaseEntity::FBecomeProne
_TEXT	ENDS
; Function compile flags: /Odtp /ZI
; File d:\!diffusion 2020\source code 2022\client-server\server\cbase.h
;	COMDAT ?UpdateOwner@CBaseEntity@@UAEXXZ
_TEXT	SEGMENT
_this$ = -4						; size = 4
?UpdateOwner@CBaseEntity@@UAEXXZ PROC			; CBaseEntity::UpdateOwner, COMDAT
; _this$ = ecx

; 736  : 	virtual	void UpdateOwner( void ) { return; };

	push	ebp
	mov	ebp, esp
	sub	esp, 68					; 00000044H
	push	ebx
	push	esi
	push	edi
	mov	DWORD PTR _this$[ebp], ecx
	pop	edi
	pop	esi
	pop	ebx
	mov	esp, ebp
	pop	ebp
	ret	0
?UpdateOwner@CBaseEntity@@UAEXXZ ENDP			; CBaseEntity::UpdateOwner
_TEXT	ENDS
; Function compile flags: /Odtp /ZI
; File d:\!diffusion 2020\source code 2022\client-server\server\cbase.h
;	COMDAT ?Respawn@CBaseEntity@@UAEPAV1@XZ
_TEXT	SEGMENT
_this$ = -4						; size = 4
?Respawn@CBaseEntity@@UAEPAV1@XZ PROC			; CBaseEntity::Respawn, COMDAT
; _this$ = ecx

; 544  : 	virtual CBaseEntity *Respawn( void ) { return NULL; }

	push	ebp
	mov	ebp, esp
	sub	esp, 68					; 00000044H
	push	ebx
	push	esi
	push	edi
	mov	DWORD PTR _this$[ebp], ecx
	xor	eax, eax
	pop	edi
	pop	esi
	pop	ebx
	mov	esp, ebp
	pop	ebp
	ret	0
?Respawn@CBaseEntity@@UAEPAV1@XZ ENDP			; CBaseEntity::Respawn
_TEXT	ENDS
; Function compile flags: /Odtp /ZI
; File d:\!diffusion 2020\source code 2022\client-server\server\cbase.h
;	COMDAT ??3CBaseEntity@@SAXPAXPAUentvars_s@@@Z
_TEXT	SEGMENT
_pMem$ = 8						; size = 4
_pev$ = 12						; size = 4
??3CBaseEntity@@SAXPAXPAUentvars_s@@@Z PROC		; CBaseEntity::operator delete, COMDAT

; 527  : 	{

	push	ebp
	mov	ebp, esp
	sub	esp, 64					; 00000040H
	push	ebx
	push	esi
	push	edi

; 528  : 		pev->flags |= FL_KILLME;

	mov	eax, DWORD PTR _pev$[ebp]
	mov	ecx, DWORD PTR [eax+420]
	or	ecx, 1073741824				; 40000000H
	mov	edx, DWORD PTR _pev$[ebp]
	mov	DWORD PTR [edx+420], ecx

; 529  : 	};

	pop	edi
	pop	esi
	pop	ebx
	mov	esp, ebp
	pop	ebp
	ret	0
??3CBaseEntity@@SAXPAXPAUentvars_s@@@Z ENDP		; CBaseEntity::operator delete
_TEXT	ENDS
; Function compile flags: /Odtp /ZI
; File d:\!diffusion 2020\source code 2022\client-server\server\cbase.h
;	COMDAT ??2CBaseEntity@@SAPAXIPAUentvars_s@@@Z
_TEXT	SEGMENT
_stAllocateBlock$ = 8					; size = 4
_pev$ = 12						; size = 4
??2CBaseEntity@@SAPAXIPAUentvars_s@@@Z PROC		; CBaseEntity::operator new, COMDAT

; 520  : 	{

	push	ebp
	mov	ebp, esp
	sub	esp, 64					; 00000040H
	push	ebx
	push	esi
	push	edi

; 521  : 		return (void *)ALLOC_PRIVATE(ENT(pev), stAllocateBlock);

	mov	eax, DWORD PTR _stAllocateBlock$[ebp]
	push	eax
	mov	ecx, DWORD PTR _pev$[ebp]
	push	ecx
	call	?ENT@@YAPAUedict_s@@PBUentvars_s@@@Z	; ENT
	add	esp, 4
	push	eax
	call	DWORD PTR ?g_engfuncs@@3Uenginefuncs_s@@A+252
	add	esp, 8

; 522  : 	};

	pop	edi
	pop	esi
	pop	ebx
	mov	esp, ebp
	pop	ebp
	ret	0
??2CBaseEntity@@SAPAXIPAUentvars_s@@@Z ENDP		; CBaseEntity::operator new
_TEXT	ENDS
; Function compile flags: /Odtp /ZI
; File d:\!diffusion 2020\source code 2022\client-server\server\cbase.h
;	COMDAT ?MoveDone@CBaseEntity@@UAEXXZ
_TEXT	SEGMENT
_this$ = -4						; size = 4
?MoveDone@CBaseEntity@@UAEXXZ PROC			; CBaseEntity::MoveDone, COMDAT
; _this$ = ecx

; 516  : 	virtual void MoveDone( void ) { if( m_pfnMoveDone )(this->*m_pfnMoveDone)(); };

	push	ebp
	mov	ebp, esp
	sub	esp, 68					; 00000044H
	push	ebx
	push	esi
	push	edi
	mov	DWORD PTR _this$[ebp], ecx
	mov	eax, DWORD PTR _this$[ebp]
	cmp	DWORD PTR [eax+1772], 0
	je	SHORT $LN1@MoveDone
	mov	eax, DWORD PTR _this$[ebp]
	mov	ecx, DWORD PTR _this$[ebp]
	mov	edx, DWORD PTR [eax+1772]
	call	edx
$LN1@MoveDone:
	pop	edi
	pop	esi
	pop	ebx
	mov	esp, ebp
	pop	ebp
	ret	0
?MoveDone@CBaseEntity@@UAEXXZ ENDP			; CBaseEntity::MoveDone
_TEXT	ENDS
; Function compile flags: /Odtp /ZI
; File d:\!diffusion 2020\source code 2022\client-server\server\cbase.h
;	COMDAT ?Blocked@CBaseEntity@@UAEXPAV1@@Z
_TEXT	SEGMENT
tv77 = -72						; size = 4
_this$ = -4						; size = 4
_pOther$ = 8						; size = 4
?Blocked@CBaseEntity@@UAEXPAV1@@Z PROC			; CBaseEntity::Blocked, COMDAT
; _this$ = ecx

; 507  : 	{

	push	ebp
	mov	ebp, esp
	sub	esp, 72					; 00000048H
	push	ebx
	push	esi
	push	edi
	mov	DWORD PTR _this$[ebp], ecx

; 508  : 		if( m_pfnBlocked )

	mov	eax, DWORD PTR _this$[ebp]
	cmp	DWORD PTR [eax+1768], 0
	je	SHORT $LN2@Blocked

; 509  : 			(this->*m_pfnBlocked)( pOther );

	mov	eax, DWORD PTR _pOther$[ebp]
	push	eax
	mov	edx, DWORD PTR _this$[ebp]
	mov	ecx, DWORD PTR _this$[ebp]
	mov	eax, DWORD PTR [edx+1768]
	call	eax
$LN2@Blocked:

; 510  : 
; 511  : 		// forward the blocked event to our parent, if any.
; 512  : 		if( m_hParent != NULL )

	mov	ecx, DWORD PTR _this$[ebp]
	add	ecx, 160				; 000000a0H
	call	??BEHANDLE@@QAEHXZ			; EHANDLE::operator int
	test	eax, eax
	je	SHORT $LN1@Blocked

; 513  : 			m_hParent->Blocked( pOther );

	mov	ecx, DWORD PTR _this$[ebp]
	add	ecx, 160				; 000000a0H
	call	??CEHANDLE@@QAEPAVCBaseEntity@@XZ	; EHANDLE::operator->
	mov	DWORD PTR tv77[ebp], eax
	mov	eax, DWORD PTR _pOther$[ebp]
	push	eax
	mov	ecx, DWORD PTR tv77[ebp]
	mov	edx, DWORD PTR [ecx]
	mov	ecx, DWORD PTR tv77[ebp]
	mov	eax, DWORD PTR [edx+316]
	call	eax
$LN1@Blocked:

; 514  : 	}

	pop	edi
	pop	esi
	pop	ebx
	mov	esp, ebp
	pop	ebp
	ret	4
?Blocked@CBaseEntity@@UAEXPAV1@@Z ENDP			; CBaseEntity::Blocked
_TEXT	ENDS
; Function compile flags: /Odtp /ZI
; File d:\!diffusion 2020\source code 2022\client-server\server\cbase.h
;	COMDAT ?Touch@CBaseEntity@@UAEXPAV1@@Z
_TEXT	SEGMENT
tv80 = -72						; size = 4
_this$ = -4						; size = 4
_pOther$ = 8						; size = 4
?Touch@CBaseEntity@@UAEXPAV1@@Z PROC			; CBaseEntity::Touch, COMDAT
; _this$ = ecx

; 497  : 	{

	push	ebp
	mov	ebp, esp
	sub	esp, 72					; 00000048H
	push	ebx
	push	esi
	push	edi
	mov	DWORD PTR _this$[ebp], ecx

; 498  : 		if( m_pfnTouch )

	mov	eax, DWORD PTR _this$[ebp]
	cmp	DWORD PTR [eax+1760], 0
	je	SHORT $LN2@Touch

; 499  : 			(this->*m_pfnTouch)( pOther );

	mov	eax, DWORD PTR _pOther$[ebp]
	push	eax
	mov	edx, DWORD PTR _this$[ebp]
	mov	ecx, DWORD PTR _this$[ebp]
	mov	eax, DWORD PTR [edx+1760]
	call	eax
$LN2@Touch:

; 500  : 
; 501  : 		// forward the blocked event to our parent, if any.
; 502  : 		if( m_hParent != NULL && !m_isChaining )

	mov	ecx, DWORD PTR _this$[ebp]
	add	ecx, 160				; 000000a0H
	call	??BEHANDLE@@QAEHXZ			; EHANDLE::operator int
	test	eax, eax
	je	SHORT $LN1@Touch
	mov	eax, DWORD PTR _this$[ebp]
	movzx	ecx, BYTE PTR [eax+1640]
	test	ecx, ecx
	jne	SHORT $LN1@Touch

; 503  : 			m_hParent->Touch( pOther );

	mov	ecx, DWORD PTR _this$[ebp]
	add	ecx, 160				; 000000a0H
	call	??CEHANDLE@@QAEPAVCBaseEntity@@XZ	; EHANDLE::operator->
	mov	DWORD PTR tv80[ebp], eax
	mov	eax, DWORD PTR _pOther$[ebp]
	push	eax
	mov	ecx, DWORD PTR tv80[ebp]
	mov	edx, DWORD PTR [ecx]
	mov	ecx, DWORD PTR tv80[ebp]
	mov	eax, DWORD PTR [edx+312]
	call	eax
$LN1@Touch:

; 504  : 	}

	pop	edi
	pop	esi
	pop	ebx
	mov	esp, ebp
	pop	ebp
	ret	4
?Touch@CBaseEntity@@UAEXPAV1@@Z ENDP			; CBaseEntity::Touch
_TEXT	ENDS
; Function compile flags: /Odtp /ZI
; File d:\!diffusion 2020\source code 2022\client-server\server\cbase.h
;	COMDAT ?Use@CBaseEntity@@UAEXPAV1@0W4USE_TYPE@@M@Z
_TEXT	SEGMENT
_this$ = -4						; size = 4
_pActivator$ = 8					; size = 4
_pCaller$ = 12						; size = 4
_useType$ = 16						; size = 4
_value$ = 20						; size = 4
?Use@CBaseEntity@@UAEXPAV1@0W4USE_TYPE@@M@Z PROC	; CBaseEntity::Use, COMDAT
; _this$ = ecx

; 492  : 	{

	push	ebp
	mov	ebp, esp
	sub	esp, 68					; 00000044H
	push	ebx
	push	esi
	push	edi
	mov	DWORD PTR _this$[ebp], ecx

; 493  : 		if (m_pfnUse) (this->*m_pfnUse)( pActivator, pCaller, useType, value );

	mov	eax, DWORD PTR _this$[ebp]
	cmp	DWORD PTR [eax+1764], 0
	je	SHORT $LN2@Use
	push	ecx
	movss	xmm0, DWORD PTR _value$[ebp]
	movss	DWORD PTR [esp], xmm0
	mov	eax, DWORD PTR _useType$[ebp]
	push	eax
	mov	ecx, DWORD PTR _pCaller$[ebp]
	push	ecx
	mov	edx, DWORD PTR _pActivator$[ebp]
	push	edx
	mov	eax, DWORD PTR _this$[ebp]
	mov	ecx, DWORD PTR _this$[ebp]
	mov	edx, DWORD PTR [eax+1764]
	call	edx
$LN2@Use:

; 494  : 	}

	pop	edi
	pop	esi
	pop	ebx
	mov	esp, ebp
	pop	ebp
	ret	16					; 00000010H
?Use@CBaseEntity@@UAEXPAV1@0W4USE_TYPE@@M@Z ENDP	; CBaseEntity::Use
_TEXT	ENDS
; Function compile flags: /Odtp /ZI
; File d:\!diffusion 2020\source code 2022\client-server\server\cbase.h
;	COMDAT ?Think@CBaseEntity@@UAEXXZ
_TEXT	SEGMENT
_this$ = -4						; size = 4
?Think@CBaseEntity@@UAEXXZ PROC				; CBaseEntity::Think, COMDAT
; _this$ = ecx

; 489  : 	virtual void Think( void ) { if (m_pfnThink) (this->*m_pfnThink)(); };

	push	ebp
	mov	ebp, esp
	sub	esp, 68					; 00000044H
	push	ebx
	push	esi
	push	edi
	mov	DWORD PTR _this$[ebp], ecx
	mov	eax, DWORD PTR _this$[ebp]
	cmp	DWORD PTR [eax+1756], 0
	je	SHORT $LN1@Think
	mov	eax, DWORD PTR _this$[ebp]
	mov	ecx, DWORD PTR _this$[ebp]
	mov	edx, DWORD PTR [eax+1756]
	call	edx
$LN1@Think:
	pop	edi
	pop	esi
	pop	ebx
	mov	esp, ebp
	pop	ebp
	ret	0
?Think@CBaseEntity@@UAEXXZ ENDP				; CBaseEntity::Think
_TEXT	ENDS
; Function compile flags: /Odtp /ZI
; File d:\!diffusion 2020\source code 2022\client-server\server\cbase.h
;	COMDAT ?OnDropObject@CBaseEntity@@UAEXXZ
_TEXT	SEGMENT
_this$ = -4						; size = 4
?OnDropObject@CBaseEntity@@UAEXXZ PROC			; CBaseEntity::OnDropObject, COMDAT
; _this$ = ecx

; 478  : 	virtual void OnDropObject( void ){ };

	push	ebp
	mov	ebp, esp
	sub	esp, 68					; 00000044H
	push	ebx
	push	esi
	push	edi
	mov	DWORD PTR _this$[ebp], ecx
	pop	edi
	pop	esi
	pop	ebx
	mov	esp, ebp
	pop	ebp
	ret	0
?OnDropObject@CBaseEntity@@UAEXXZ ENDP			; CBaseEntity::OnDropObject
_TEXT	ENDS
; Function compile flags: /Odtp /ZI
; File d:\!diffusion 2020\source code 2022\client-server\server\cbase.h
;	COMDAT ?OnPickupObject@CBaseEntity@@UAEXXZ
_TEXT	SEGMENT
_this$ = -4						; size = 4
?OnPickupObject@CBaseEntity@@UAEXXZ PROC		; CBaseEntity::OnPickupObject, COMDAT
; _this$ = ecx

; 477  : 	virtual void OnPickupObject( void ) { };

	push	ebp
	mov	ebp, esp
	sub	esp, 68					; 00000044H
	push	ebx
	push	esi
	push	edi
	mov	DWORD PTR _this$[ebp], ecx
	pop	edi
	pop	esi
	pop	ebx
	mov	esp, ebp
	pop	ebp
	ret	0
?OnPickupObject@CBaseEntity@@UAEXXZ ENDP		; CBaseEntity::OnPickupObject
_TEXT	ENDS
; Function compile flags: /Odtp /ZI
; File d:\!diffusion 2020\source code 2022\client-server\server\cbase.h
;	COMDAT ?SetNullModel@CBaseEntity@@UAEXXZ
_TEXT	SEGMENT
_this$ = -4						; size = 4
?SetNullModel@CBaseEntity@@UAEXXZ PROC			; CBaseEntity::SetNullModel, COMDAT
; _this$ = ecx

; 1228 : {

	push	ebp
	mov	ebp, esp
	sub	esp, 68					; 00000044H
	push	ebx
	push	esi
	push	edi
	mov	DWORD PTR _this$[ebp], ecx

; 1229 : 	SET_MODEL( edict(), "sprites/null.spr" );

	push	OFFSET ??_C@_0BB@EMJBJDBM@sprites?1null?4spr?$AA@
	mov	ecx, DWORD PTR _this$[ebp]
	call	?edict@CBaseEntity@@QAEPAUedict_s@@XZ	; CBaseEntity::edict
	push	eax
	call	DWORD PTR ?g_engfuncs@@3Uenginefuncs_s@@A+8
	add	esp, 8

; 1230 : }

	pop	edi
	pop	esi
	pop	ebx
	mov	esp, ebp
	pop	ebp
	ret	0
?SetNullModel@CBaseEntity@@UAEXXZ ENDP			; CBaseEntity::SetNullModel
_TEXT	ENDS
; Function compile flags: /Odtp /ZI
; File d:\!diffusion 2020\source code 2022\client-server\server\cbase.h
;	COMDAT ?RemoveFlag@CBaseEntity@@UAEXH@Z
_TEXT	SEGMENT
_this$ = -4						; size = 4
_Flag$ = 8						; size = 4
?RemoveFlag@CBaseEntity@@UAEXH@Z PROC			; CBaseEntity::RemoveFlag, COMDAT
; _this$ = ecx

; 1223 : {

	push	ebp
	mov	ebp, esp
	sub	esp, 68					; 00000044H
	push	ebx
	push	esi
	push	edi
	mov	DWORD PTR _this$[ebp], ecx

; 1224 : 	m_iFlags2 &= ~Flag;

	mov	eax, DWORD PTR _Flag$[ebp]
	not	eax
	mov	ecx, DWORD PTR _this$[ebp]
	and	eax, DWORD PTR [ecx+28]
	mov	edx, DWORD PTR _this$[ebp]
	mov	DWORD PTR [edx+28], eax

; 1225 : }

	pop	edi
	pop	esi
	pop	ebx
	mov	esp, ebp
	pop	ebp
	ret	4
?RemoveFlag@CBaseEntity@@UAEXH@Z ENDP			; CBaseEntity::RemoveFlag
_TEXT	ENDS
; Function compile flags: /Odtp /ZI
; File d:\!diffusion 2020\source code 2022\client-server\server\cbase.h
;	COMDAT ?HasFlag@CBaseEntity@@UBE_NH@Z
_TEXT	SEGMENT
tv67 = -72						; size = 4
_this$ = -4						; size = 4
_Flag$ = 8						; size = 4
?HasFlag@CBaseEntity@@UBE_NH@Z PROC			; CBaseEntity::HasFlag, COMDAT
; _this$ = ecx

; 1213 : {

	push	ebp
	mov	ebp, esp
	sub	esp, 72					; 00000048H
	push	ebx
	push	esi
	push	edi
	mov	DWORD PTR _this$[ebp], ecx

; 1214 : 	return (m_iFlags2 & Flag) != 0;

	mov	eax, DWORD PTR _this$[ebp]
	mov	ecx, DWORD PTR [eax+28]
	and	ecx, DWORD PTR _Flag$[ebp]
	je	SHORT $LN3@HasFlag
	mov	DWORD PTR tv67[ebp], 1
	jmp	SHORT $LN4@HasFlag
$LN3@HasFlag:
	mov	DWORD PTR tv67[ebp], 0
$LN4@HasFlag:
	mov	al, BYTE PTR tv67[ebp]

; 1215 : }

	pop	edi
	pop	esi
	pop	ebx
	mov	esp, ebp
	pop	ebp
	ret	4
?HasFlag@CBaseEntity@@UBE_NH@Z ENDP			; CBaseEntity::HasFlag
_TEXT	ENDS
; Function compile flags: /Odtp /ZI
; File d:\!diffusion 2020\source code 2022\client-server\server\cbase.h
;	COMDAT ?SetFlag@CBaseEntity@@UAEXH@Z
_TEXT	SEGMENT
_this$ = -4						; size = 4
_Flag$ = 8						; size = 4
?SetFlag@CBaseEntity@@UAEXH@Z PROC			; CBaseEntity::SetFlag, COMDAT
; _this$ = ecx

; 1218 : {

	push	ebp
	mov	ebp, esp
	sub	esp, 68					; 00000044H
	push	ebx
	push	esi
	push	edi
	mov	DWORD PTR _this$[ebp], ecx

; 1219 : 	m_iFlags2 |= Flag;

	mov	eax, DWORD PTR _this$[ebp]
	mov	ecx, DWORD PTR [eax+28]
	or	ecx, DWORD PTR _Flag$[ebp]
	mov	edx, DWORD PTR _this$[ebp]
	mov	DWORD PTR [edx+28], ecx

; 1220 : }

	pop	edi
	pop	esi
	pop	ebx
	mov	esp, ebp
	pop	ebp
	ret	4
?SetFlag@CBaseEntity@@UAEXH@Z ENDP			; CBaseEntity::SetFlag
_TEXT	ENDS
; Function compile flags: /Odtp /ZI
; File d:\!diffusion 2020\source code 2022\client-server\server\cbase.h
;	COMDAT ?SetFadeDistance@CBaseEntity@@UAEXH@Z
_TEXT	SEGMENT
_this$ = -4						; size = 4
_Distance$ = 8						; size = 4
?SetFadeDistance@CBaseEntity@@UAEXH@Z PROC		; CBaseEntity::SetFadeDistance, COMDAT
; _this$ = ecx

; 1208 : {

	push	ebp
	mov	ebp, esp
	sub	esp, 68					; 00000044H
	push	ebx
	push	esi
	push	edi
	mov	DWORD PTR _this$[ebp], ecx

; 1209 : 	pev->iuser4 = Distance;

	mov	eax, DWORD PTR _this$[ebp]
	mov	ecx, DWORD PTR [eax+4]
	mov	edx, DWORD PTR _Distance$[ebp]
	mov	DWORD PTR [ecx+592], edx

; 1210 : }

	pop	edi
	pop	esi
	pop	ebx
	mov	esp, ebp
	pop	ebp
	ret	4
?SetFadeDistance@CBaseEntity@@UAEXH@Z ENDP		; CBaseEntity::SetFadeDistance
_TEXT	ENDS
; Function compile flags: /Odtp /ZI
; File d:\!diffusion 2020\source code 2022\client-server\server\cbase.h
;	COMDAT ?HasSpawnFlags@CBaseEntity@@UBE_NH@Z
_TEXT	SEGMENT
tv68 = -72						; size = 4
_this$ = -4						; size = 4
_nFlags$ = 8						; size = 4
?HasSpawnFlags@CBaseEntity@@UBE_NH@Z PROC		; CBaseEntity::HasSpawnFlags, COMDAT
; _this$ = ecx

; 1202 : {

	push	ebp
	mov	ebp, esp
	sub	esp, 72					; 00000048H
	push	ebx
	push	esi
	push	edi
	mov	DWORD PTR _this$[ebp], ecx

; 1203 : 	return (pev->spawnflags & nFlags) != 0;

	mov	eax, DWORD PTR _this$[ebp]
	mov	ecx, DWORD PTR [eax+4]
	mov	edx, DWORD PTR [ecx+416]
	and	edx, DWORD PTR _nFlags$[ebp]
	je	SHORT $LN3@HasSpawnFl
	mov	DWORD PTR tv68[ebp], 1
	jmp	SHORT $LN4@HasSpawnFl
$LN3@HasSpawnFl:
	mov	DWORD PTR tv68[ebp], 0
$LN4@HasSpawnFl:
	mov	al, BYTE PTR tv68[ebp]

; 1204 : }

	pop	edi
	pop	esi
	pop	ebx
	mov	esp, ebp
	pop	ebp
	ret	4
?HasSpawnFlags@CBaseEntity@@UBE_NH@Z ENDP		; CBaseEntity::HasSpawnFlags
_TEXT	ENDS
; Function compile flags: /Odtp /ZI
; File d:\!diffusion 2020\source code 2022\client-server\server\cbase.h
;	COMDAT ?AddSpawnFlags@CBaseEntity@@UAEXH@Z
_TEXT	SEGMENT
_this$ = -4						; size = 4
_nFlags$ = 8						; size = 4
?AddSpawnFlags@CBaseEntity@@UAEXH@Z PROC		; CBaseEntity::AddSpawnFlags, COMDAT
; _this$ = ecx

; 1197 : {

	push	ebp
	mov	ebp, esp
	sub	esp, 68					; 00000044H
	push	ebx
	push	esi
	push	edi
	mov	DWORD PTR _this$[ebp], ecx

; 1198 : 	pev->spawnflags |= nFlags;

	mov	eax, DWORD PTR _this$[ebp]
	mov	ecx, DWORD PTR [eax+4]
	mov	edx, DWORD PTR [ecx+416]
	or	edx, DWORD PTR _nFlags$[ebp]
	mov	eax, DWORD PTR _this$[ebp]
	mov	ecx, DWORD PTR [eax+4]
	mov	DWORD PTR [ecx+416], edx

; 1199 : }

	pop	edi
	pop	esi
	pop	ebx
	mov	esp, ebp
	pop	ebp
	ret	4
?AddSpawnFlags@CBaseEntity@@UAEXH@Z ENDP		; CBaseEntity::AddSpawnFlags
_TEXT	ENDS
; Function compile flags: /Odtp /ZI
; File d:\!diffusion 2020\source code 2022\client-server\server\cbase.h
;	COMDAT ?TeamID@CBaseEntity@@UAEPBDXZ
_TEXT	SEGMENT
_this$ = -4						; size = 4
?TeamID@CBaseEntity@@UAEPBDXZ PROC			; CBaseEntity::TeamID, COMDAT
; _this$ = ecx

; 466  : 	virtual const char	*TeamID( void ) { return ""; }

	push	ebp
	mov	ebp, esp
	sub	esp, 68					; 00000044H
	push	ebx
	push	esi
	push	edi
	mov	DWORD PTR _this$[ebp], ecx
	mov	eax, OFFSET ??_C@_00CNPNBAHC@?$AA@
	pop	edi
	pop	esi
	pop	ebx
	mov	esp, ebp
	pop	ebp
	ret	0
?TeamID@CBaseEntity@@UAEPBDXZ ENDP			; CBaseEntity::TeamID
_TEXT	ENDS
; Function compile flags: /Odtp /ZI
; File d:\!diffusion 2020\source code 2022\client-server\server\cbase.h
;	COMDAT ?IsBreakable@CBaseEntity@@UAEHXZ
_TEXT	SEGMENT
_this$ = -4						; size = 4
?IsBreakable@CBaseEntity@@UAEHXZ PROC			; CBaseEntity::IsBreakable, COMDAT
; _this$ = ecx

; 465  : 	virtual BOOL	IsBreakable( void ) { return FALSE; }

	push	ebp
	mov	ebp, esp
	sub	esp, 68					; 00000044H
	push	ebx
	push	esi
	push	edi
	mov	DWORD PTR _this$[ebp], ecx
	xor	eax, eax
	pop	edi
	pop	esi
	pop	ebx
	mov	esp, ebp
	pop	ebp
	ret	0
?IsBreakable@CBaseEntity@@UAEHXZ ENDP			; CBaseEntity::IsBreakable
_TEXT	ENDS
; Function compile flags: /Odtp /ZI
; File d:\!diffusion 2020\source code 2022\client-server\server\cbase.h
;	COMDAT ?IsMover@CBaseEntity@@UAEHXZ
_TEXT	SEGMENT
_this$ = -4						; size = 4
?IsMover@CBaseEntity@@UAEHXZ PROC			; CBaseEntity::IsMover, COMDAT
; _this$ = ecx

; 464  : 	virtual BOOL	IsMover( void ) { return FALSE; }

	push	ebp
	mov	ebp, esp
	sub	esp, 68					; 00000044H
	push	ebx
	push	esi
	push	edi
	mov	DWORD PTR _this$[ebp], ecx
	xor	eax, eax
	pop	edi
	pop	esi
	pop	ebx
	mov	esp, ebp
	pop	ebp
	ret	0
?IsMover@CBaseEntity@@UAEHXZ ENDP			; CBaseEntity::IsMover
_TEXT	ENDS
; Function compile flags: /Odtp /ZI
; File d:\!diffusion 2020\source code 2022\client-server\server\cbase.h
;	COMDAT ?IsTank@CBaseEntity@@UAEHXZ
_TEXT	SEGMENT
_this$ = -4						; size = 4
?IsTank@CBaseEntity@@UAEHXZ PROC			; CBaseEntity::IsTank, COMDAT
; _this$ = ecx

; 463  : 	virtual BOOL	IsTank( void ) { return FALSE; }

	push	ebp
	mov	ebp, esp
	sub	esp, 68					; 00000044H
	push	ebx
	push	esi
	push	edi
	mov	DWORD PTR _this$[ebp], ecx
	xor	eax, eax
	pop	edi
	pop	esi
	pop	ebx
	mov	esp, ebp
	pop	ebp
	ret	0
?IsTank@CBaseEntity@@UAEHXZ ENDP			; CBaseEntity::IsTank
_TEXT	ENDS
; Function compile flags: /Odtp /ZI
; File d:\!diffusion 2020\source code 2022\client-server\server\cbase.h
;	COMDAT ?IsPortal@CBaseEntity@@UAEHXZ
_TEXT	SEGMENT
_this$ = -4						; size = 4
?IsPortal@CBaseEntity@@UAEHXZ PROC			; CBaseEntity::IsPortal, COMDAT
; _this$ = ecx

; 462  : 	virtual BOOL	IsPortal( void ) { return FALSE; }

	push	ebp
	mov	ebp, esp
	sub	esp, 68					; 00000044H
	push	ebx
	push	esi
	push	edi
	mov	DWORD PTR _this$[ebp], ecx
	xor	eax, eax
	pop	edi
	pop	esi
	pop	ebx
	mov	esp, ebp
	pop	ebp
	ret	0
?IsPortal@CBaseEntity@@UAEHXZ ENDP			; CBaseEntity::IsPortal
_TEXT	ENDS
; Function compile flags: /Odtp /ZI
; File d:\!diffusion 2020\source code 2022\client-server\server\cbase.h
;	COMDAT ?IsFuncScreen@CBaseEntity@@UAEHXZ
_TEXT	SEGMENT
_this$ = -4						; size = 4
?IsFuncScreen@CBaseEntity@@UAEHXZ PROC			; CBaseEntity::IsFuncScreen, COMDAT
; _this$ = ecx

; 461  : 	virtual BOOL	IsFuncScreen( void ) { return FALSE; }

	push	ebp
	mov	ebp, esp
	sub	esp, 68					; 00000044H
	push	ebx
	push	esi
	push	edi
	mov	DWORD PTR _this$[ebp], ecx
	xor	eax, eax
	pop	edi
	pop	esi
	pop	ebx
	mov	esp, ebp
	pop	ebp
	ret	0
?IsFuncScreen@CBaseEntity@@UAEHXZ ENDP			; CBaseEntity::IsFuncScreen
_TEXT	ENDS
; Function compile flags: /Odtp /ZI
; File d:\!diffusion 2020\source code 2022\client-server\server\cbase.h
;	COMDAT ?IsProjectile@CBaseEntity@@UAEHXZ
_TEXT	SEGMENT
_this$ = -4						; size = 4
?IsProjectile@CBaseEntity@@UAEHXZ PROC			; CBaseEntity::IsProjectile, COMDAT
; _this$ = ecx

; 460  : 	virtual BOOL	IsProjectile( void ) { return FALSE; }

	push	ebp
	mov	ebp, esp
	sub	esp, 68					; 00000044H
	push	ebx
	push	esi
	push	edi
	mov	DWORD PTR _this$[ebp], ecx
	xor	eax, eax
	pop	edi
	pop	esi
	pop	ebx
	mov	esp, ebp
	pop	ebp
	ret	0
?IsProjectile@CBaseEntity@@UAEHXZ ENDP			; CBaseEntity::IsProjectile
_TEXT	ENDS
; Function compile flags: /Odtp /ZI
; File d:\!diffusion 2020\source code 2022\client-server\server\cbase.h
;	COMDAT ?IsPushable@CBaseEntity@@UAEHXZ
_TEXT	SEGMENT
_this$ = -4						; size = 4
?IsPushable@CBaseEntity@@UAEHXZ PROC			; CBaseEntity::IsPushable, COMDAT
; _this$ = ecx

; 459  : 	virtual BOOL	IsPushable( void ) { return FALSE; }

	push	ebp
	mov	ebp, esp
	sub	esp, 68					; 00000044H
	push	ebx
	push	esi
	push	edi
	mov	DWORD PTR _this$[ebp], ecx
	xor	eax, eax
	pop	edi
	pop	esi
	pop	ebx
	mov	esp, ebp
	pop	ebp
	ret	0
?IsPushable@CBaseEntity@@UAEHXZ ENDP			; CBaseEntity::IsPushable
_TEXT	ENDS
; Function compile flags: /Odtp /ZI
; File d:\!diffusion 2020\source code 2022\client-server\server\cbase.h
;	COMDAT ?IsMonster@CBaseEntity@@UAEHXZ
_TEXT	SEGMENT
tv68 = -72						; size = 4
_this$ = -4						; size = 4
?IsMonster@CBaseEntity@@UAEHXZ PROC			; CBaseEntity::IsMonster, COMDAT
; _this$ = ecx

; 458  : 	virtual BOOL	IsMonster( void ) { return (pev->flags & FL_MONSTER ? TRUE : FALSE); }

	push	ebp
	mov	ebp, esp
	sub	esp, 72					; 00000048H
	push	ebx
	push	esi
	push	edi
	mov	DWORD PTR _this$[ebp], ecx
	mov	eax, DWORD PTR _this$[ebp]
	mov	ecx, DWORD PTR [eax+4]
	mov	edx, DWORD PTR [ecx+420]
	and	edx, 32					; 00000020H
	je	SHORT $LN3@IsMonster
	mov	DWORD PTR tv68[ebp], 1
	jmp	SHORT $LN4@IsMonster
$LN3@IsMonster:
	mov	DWORD PTR tv68[ebp], 0
$LN4@IsMonster:
	mov	eax, DWORD PTR tv68[ebp]
	pop	edi
	pop	esi
	pop	ebx
	mov	esp, ebp
	pop	ebp
	ret	0
?IsMonster@CBaseEntity@@UAEHXZ ENDP			; CBaseEntity::IsMonster
_TEXT	ENDS
; Function compile flags: /Odtp /ZI
; File d:\!diffusion 2020\source code 2022\client-server\server\cbase.h
;	COMDAT ?IsNetClient@CBaseEntity@@UAEHXZ
_TEXT	SEGMENT
_this$ = -4						; size = 4
?IsNetClient@CBaseEntity@@UAEHXZ PROC			; CBaseEntity::IsNetClient, COMDAT
; _this$ = ecx

; 457  : 	virtual BOOL	IsNetClient( void ) { return FALSE; }

	push	ebp
	mov	ebp, esp
	sub	esp, 68					; 00000044H
	push	ebx
	push	esi
	push	edi
	mov	DWORD PTR _this$[ebp], ecx
	xor	eax, eax
	pop	edi
	pop	esi
	pop	ebx
	mov	esp, ebp
	pop	ebp
	ret	0
?IsNetClient@CBaseEntity@@UAEHXZ ENDP			; CBaseEntity::IsNetClient
_TEXT	ENDS
; Function compile flags: /Odtp /ZI
; File d:\!diffusion 2020\source code 2022\client-server\server\cbase.h
;	COMDAT ?IsPlayer@CBaseEntity@@UAEHXZ
_TEXT	SEGMENT
_this$ = -4						; size = 4
?IsPlayer@CBaseEntity@@UAEHXZ PROC			; CBaseEntity::IsPlayer, COMDAT
; _this$ = ecx

; 456  : 	virtual BOOL	IsPlayer( void ) { return FALSE; }

	push	ebp
	mov	ebp, esp
	sub	esp, 68					; 00000044H
	push	ebx
	push	esi
	push	edi
	mov	DWORD PTR _this$[ebp], ecx
	xor	eax, eax
	pop	edi
	pop	esi
	pop	ebx
	mov	esp, ebp
	pop	ebp
	ret	0
?IsPlayer@CBaseEntity@@UAEHXZ ENDP			; CBaseEntity::IsPlayer
_TEXT	ENDS
; Function compile flags: /Odtp /ZI
; File d:\!diffusion 2020\source code 2022\client-server\server\cbase.h
;	COMDAT ?HasTarget@CBaseEntity@@UAEHH@Z
_TEXT	SEGMENT
_this$ = -4						; size = 4
_targetname$ = 8					; size = 4
?HasTarget@CBaseEntity@@UAEHH@Z PROC			; CBaseEntity::HasTarget, COMDAT
; _this$ = ecx

; 454  : 	virtual BOOL	HasTarget( string_t targetname ) { return FStrEq(STRING(targetname), STRING(pev->target) ); }

	push	ebp
	mov	ebp, esp
	sub	esp, 68					; 00000044H
	push	ebx
	push	esi
	push	edi
	mov	DWORD PTR _this$[ebp], ecx
	mov	eax, DWORD PTR _this$[ebp]
	mov	ecx, DWORD PTR [eax+4]
	mov	edx, DWORD PTR [ecx+456]
	push	edx
	call	DWORD PTR ?g_engfuncs@@3Uenginefuncs_s@@A+264
	add	esp, 4
	push	eax
	mov	eax, DWORD PTR _targetname$[ebp]
	push	eax
	call	DWORD PTR ?g_engfuncs@@3Uenginefuncs_s@@A+264
	add	esp, 4
	push	eax
	call	?FStrEq@@YAHPBD0@Z			; FStrEq
	add	esp, 8
	pop	edi
	pop	esi
	pop	ebx
	mov	esp, ebp
	pop	ebp
	ret	4
?HasTarget@CBaseEntity@@UAEHH@Z ENDP			; CBaseEntity::HasTarget
_TEXT	ENDS
; Function compile flags: /Odtp /ZI
; File d:\!diffusion 2020\source code 2022\client-server\server\cbase.h
;	COMDAT ?ReflectGauss@CBaseEntity@@UAEHXZ
_TEXT	SEGMENT
tv77 = -72						; size = 4
_this$ = -4						; size = 4
?ReflectGauss@CBaseEntity@@UAEHXZ PROC			; CBaseEntity::ReflectGauss, COMDAT
; _this$ = ecx

; 453  : 	virtual BOOL	ReflectGauss( void ) { return (( IsBSPModel() || IsCustomModel()) && !pev->takedamage ); }

	push	ebp
	mov	ebp, esp
	sub	esp, 72					; 00000048H
	push	ebx
	push	esi
	push	edi
	mov	DWORD PTR _this$[ebp], ecx
	mov	eax, DWORD PTR _this$[ebp]
	mov	edx, DWORD PTR [eax]
	mov	ecx, DWORD PTR _this$[ebp]
	mov	eax, DWORD PTR [edx+200]
	call	eax
	test	eax, eax
	jne	SHORT $LN3@ReflectGau
	mov	ecx, DWORD PTR _this$[ebp]
	mov	edx, DWORD PTR [ecx]
	mov	ecx, DWORD PTR _this$[ebp]
	mov	eax, DWORD PTR [edx+204]
	call	eax
	test	eax, eax
	je	SHORT $LN4@ReflectGau
$LN3@ReflectGau:
	mov	ecx, DWORD PTR _this$[ebp]
	mov	edx, DWORD PTR [ecx+4]
	movss	xmm0, DWORD PTR [edx+364]
	ucomiss	xmm0, DWORD PTR __real@00000000
	lahf
	test	ah, 68					; 00000044H
	jp	SHORT $LN4@ReflectGau
	mov	DWORD PTR tv77[ebp], 1
	jmp	SHORT $LN5@ReflectGau
$LN4@ReflectGau:
	mov	DWORD PTR tv77[ebp], 0
$LN5@ReflectGau:
	mov	eax, DWORD PTR tv77[ebp]
	pop	edi
	pop	esi
	pop	ebx
	mov	esp, ebp
	pop	ebp
	ret	0
?ReflectGauss@CBaseEntity@@UAEHXZ ENDP			; CBaseEntity::ReflectGauss
_TEXT	ENDS
; Function compile flags: /Odtp /ZI
; File d:\!diffusion 2020\source code 2022\client-server\server\cbase.h
;	COMDAT ?IsCustomModel@CBaseEntity@@UAEHXZ
_TEXT	SEGMENT
tv67 = -72						; size = 4
_this$ = -4						; size = 4
?IsCustomModel@CBaseEntity@@UAEHXZ PROC			; CBaseEntity::IsCustomModel, COMDAT
; _this$ = ecx

; 452  : 	virtual BOOL	IsCustomModel( void ) { return pev->solid == SOLID_CUSTOM; }

	push	ebp
	mov	ebp, esp
	sub	esp, 72					; 00000048H
	push	ebx
	push	esi
	push	edi
	mov	DWORD PTR _this$[ebp], ecx
	mov	eax, DWORD PTR _this$[ebp]
	mov	ecx, DWORD PTR [eax+4]
	cmp	DWORD PTR [ecx+268], 5
	jne	SHORT $LN3@IsCustomMo
	mov	DWORD PTR tv67[ebp], 1
	jmp	SHORT $LN4@IsCustomMo
$LN3@IsCustomMo:
	mov	DWORD PTR tv67[ebp], 0
$LN4@IsCustomMo:
	mov	eax, DWORD PTR tv67[ebp]
	pop	edi
	pop	esi
	pop	ebx
	mov	esp, ebp
	pop	ebp
	ret	0
?IsCustomModel@CBaseEntity@@UAEHXZ ENDP			; CBaseEntity::IsCustomModel
_TEXT	ENDS
; Function compile flags: /Odtp /ZI
; File d:\!diffusion 2020\source code 2022\client-server\server\cbase.h
;	COMDAT ?IsBSPModel@CBaseEntity@@UAEHXZ
_TEXT	SEGMENT
tv69 = -72						; size = 4
_this$ = -4						; size = 4
?IsBSPModel@CBaseEntity@@UAEHXZ PROC			; CBaseEntity::IsBSPModel, COMDAT
; _this$ = ecx

; 451  : 	virtual BOOL	IsBSPModel( void ) { return UTIL_GetModelType( pev->modelindex ) == mod_brush; }

	push	ebp
	mov	ebp, esp
	sub	esp, 72					; 00000048H
	push	ebx
	push	esi
	push	edi
	mov	DWORD PTR _this$[ebp], ecx
	mov	eax, DWORD PTR _this$[ebp]
	mov	ecx, DWORD PTR [eax+4]
	mov	edx, DWORD PTR [ecx+180]
	push	edx
	call	?UTIL_GetModelType@@YA?AW4modtype_t@@H@Z ; UTIL_GetModelType
	add	esp, 4
	test	eax, eax
	jne	SHORT $LN3@IsBSPModel
	mov	DWORD PTR tv69[ebp], 1
	jmp	SHORT $LN4@IsBSPModel
$LN3@IsBSPModel:
	mov	DWORD PTR tv69[ebp], 0
$LN4@IsBSPModel:
	mov	eax, DWORD PTR tv69[ebp]
	pop	edi
	pop	esi
	pop	ebx
	mov	esp, ebp
	pop	ebp
	ret	0
?IsBSPModel@CBaseEntity@@UAEHXZ ENDP			; CBaseEntity::IsBSPModel
_TEXT	ENDS
; Function compile flags: /Odtp /ZI
; File d:\!diffusion 2020\source code 2022\client-server\server\cbase.h
;	COMDAT ?IsAlive@CBaseEntity@@UAEHXZ
_TEXT	SEGMENT
tv70 = -72						; size = 4
_this$ = -4						; size = 4
?IsAlive@CBaseEntity@@UAEHXZ PROC			; CBaseEntity::IsAlive, COMDAT
; _this$ = ecx

; 450  : 	virtual BOOL	IsAlive( void ) { return (pev->deadflag == DEAD_NO) && pev->health > 0; }

	push	ebp
	mov	ebp, esp
	sub	esp, 72					; 00000048H
	push	ebx
	push	esi
	push	edi
	mov	DWORD PTR _this$[ebp], ecx
	mov	eax, DWORD PTR _this$[ebp]
	mov	ecx, DWORD PTR [eax+4]
	cmp	DWORD PTR [ecx+368], 0
	jne	SHORT $LN3@IsAlive
	mov	edx, DWORD PTR _this$[ebp]
	mov	eax, DWORD PTR [edx+4]
	movss	xmm0, DWORD PTR [eax+352]
	comiss	xmm0, DWORD PTR __real@00000000
	jbe	SHORT $LN3@IsAlive
	mov	DWORD PTR tv70[ebp], 1
	jmp	SHORT $LN4@IsAlive
$LN3@IsAlive:
	mov	DWORD PTR tv70[ebp], 0
$LN4@IsAlive:
	mov	eax, DWORD PTR tv70[ebp]
	pop	edi
	pop	esi
	pop	ebx
	mov	esp, ebp
	pop	ebp
	ret	0
?IsAlive@CBaseEntity@@UAEHXZ ENDP			; CBaseEntity::IsAlive
_TEXT	ENDS
; Function compile flags: /Odtp /ZI
; File d:\!diffusion 2020\source code 2022\client-server\server\cbase.h
;	COMDAT ?IsSneaking@CBaseEntity@@UAEHXZ
_TEXT	SEGMENT
_this$ = -4						; size = 4
?IsSneaking@CBaseEntity@@UAEHXZ PROC			; CBaseEntity::IsSneaking, COMDAT
; _this$ = ecx

; 449  : 	virtual BOOL	IsSneaking( void ) { return FALSE; }

	push	ebp
	mov	ebp, esp
	sub	esp, 68					; 00000044H
	push	ebx
	push	esi
	push	edi
	mov	DWORD PTR _this$[ebp], ecx
	xor	eax, eax
	pop	edi
	pop	esi
	pop	ebx
	mov	esp, ebp
	pop	ebp
	ret	0
?IsSneaking@CBaseEntity@@UAEHXZ ENDP			; CBaseEntity::IsSneaking
_TEXT	ENDS
; Function compile flags: /Odtp /ZI
; File d:\!diffusion 2020\source code 2022\client-server\server\cbase.h
;	COMDAT ?OnControls@CBaseEntity@@UAEHPAV1@@Z
_TEXT	SEGMENT
_this$ = -4						; size = 4
_pTest$ = 8						; size = 4
?OnControls@CBaseEntity@@UAEHPAV1@@Z PROC		; CBaseEntity::OnControls, COMDAT
; _this$ = ecx

; 448  : 	virtual BOOL	OnControls( CBaseEntity *pTest ) { return FALSE; }

	push	ebp
	mov	ebp, esp
	sub	esp, 68					; 00000044H
	push	ebx
	push	esi
	push	edi
	mov	DWORD PTR _this$[ebp], ecx
	xor	eax, eax
	pop	edi
	pop	esi
	pop	ebx
	mov	esp, ebp
	pop	ebp
	ret	4
?OnControls@CBaseEntity@@UAEHPAV1@@Z ENDP		; CBaseEntity::OnControls
_TEXT	ENDS
; Function compile flags: /Odtp /ZI
; File d:\!diffusion 2020\source code 2022\client-server\server\cbase.h
;	COMDAT ?StopSneaking@CBaseEntity@@UAEXXZ
_TEXT	SEGMENT
_this$ = -4						; size = 4
?StopSneaking@CBaseEntity@@UAEXXZ PROC			; CBaseEntity::StopSneaking, COMDAT
; _this$ = ecx

; 447  : 	virtual void	StopSneaking( void ) {}

	push	ebp
	mov	ebp, esp
	sub	esp, 68					; 00000044H
	push	ebx
	push	esi
	push	edi
	mov	DWORD PTR _this$[ebp], ecx
	pop	edi
	pop	esi
	pop	ebx
	mov	esp, ebp
	pop	ebp
	ret	0
?StopSneaking@CBaseEntity@@UAEXXZ ENDP			; CBaseEntity::StopSneaking
_TEXT	ENDS
; Function compile flags: /Odtp /ZI
; File d:\!diffusion 2020\source code 2022\client-server\server\cbase.h
;	COMDAT ?StartSneaking@CBaseEntity@@UAEXXZ
_TEXT	SEGMENT
_this$ = -4						; size = 4
?StartSneaking@CBaseEntity@@UAEXXZ PROC			; CBaseEntity::StartSneaking, COMDAT
; _this$ = ecx

; 446  : 	virtual void	StartSneaking( void ) {}

	push	ebp
	mov	ebp, esp
	sub	esp, 68					; 00000044H
	push	ebx
	push	esi
	push	edi
	mov	DWORD PTR _this$[ebp], ecx
	pop	edi
	pop	esi
	pop	ebx
	mov	esp, ebp
	pop	ebp
	ret	0
?StartSneaking@CBaseEntity@@UAEXXZ ENDP			; CBaseEntity::StartSneaking
_TEXT	ENDS
; Function compile flags: /Odtp /ZI
; File d:\!diffusion 2020\source code 2022\client-server\server\cbase.h
;	COMDAT ?SetToggleState@CBaseEntity@@UAEXH@Z
_TEXT	SEGMENT
_this$ = -4						; size = 4
_state$ = 8						; size = 4
?SetToggleState@CBaseEntity@@UAEXH@Z PROC		; CBaseEntity::SetToggleState, COMDAT
; _this$ = ecx

; 445  : 	virtual void	SetToggleState( int state ) {}

	push	ebp
	mov	ebp, esp
	sub	esp, 68					; 00000044H
	push	ebx
	push	esi
	push	edi
	mov	DWORD PTR _this$[ebp], ecx
	pop	edi
	pop	esi
	pop	ebx
	mov	esp, ebp
	pop	ebp
	ret	4
?SetToggleState@CBaseEntity@@UAEXH@Z ENDP		; CBaseEntity::SetToggleState
_TEXT	ENDS
; Function compile flags: /Odtp /ZI
; File d:\!diffusion 2020\source code 2022\client-server\server\cbase.h
;	COMDAT ?TransferReset@CBaseEntity@@UAEXXZ
_TEXT	SEGMENT
_this$ = -4						; size = 4
?TransferReset@CBaseEntity@@UAEXXZ PROC			; CBaseEntity::TransferReset, COMDAT
; _this$ = ecx

; 442  : 	virtual void	TransferReset( void ) {}

	push	ebp
	mov	ebp, esp
	sub	esp, 68					; 00000044H
	push	ebx
	push	esi
	push	edi
	mov	DWORD PTR _this$[ebp], ecx
	pop	edi
	pop	esi
	pop	ebx
	mov	esp, ebp
	pop	ebp
	ret	0
?TransferReset@CBaseEntity@@UAEXXZ ENDP			; CBaseEntity::TransferReset
_TEXT	ENDS
; Function compile flags: /Odtp /ZI
; File d:\!diffusion 2020\source code 2022\client-server\server\cbase.h
;	COMDAT ?OverrideReset@CBaseEntity@@UAEXXZ
_TEXT	SEGMENT
_this$ = -4						; size = 4
?OverrideReset@CBaseEntity@@UAEXXZ PROC			; CBaseEntity::OverrideReset, COMDAT
; _this$ = ecx

; 441  : 	virtual void	OverrideReset( void ) {}

	push	ebp
	mov	ebp, esp
	sub	esp, 68					; 00000044H
	push	ebx
	push	esi
	push	edi
	mov	DWORD PTR _this$[ebp], ecx
	pop	edi
	pop	esi
	pop	ebx
	mov	esp, ebp
	pop	ebp
	ret	0
?OverrideReset@CBaseEntity@@UAEXXZ ENDP			; CBaseEntity::OverrideReset
_TEXT	ENDS
; Function compile flags: /Odtp /ZI
; File d:\!diffusion 2020\source code 2022\client-server\server\cbase.h
;	COMDAT ?IsMoving@CBaseEntity@@UAEHXZ
_TEXT	SEGMENT
_this$ = -4						; size = 4
?IsMoving@CBaseEntity@@UAEHXZ PROC			; CBaseEntity::IsMoving, COMDAT
; _this$ = ecx

; 440  : 	virtual int	IsMoving( void ) { return GetAbsVelocity() != g_vecZero; }

	push	ebp
	mov	ebp, esp
	sub	esp, 68					; 00000044H
	push	ebx
	push	esi
	push	edi
	mov	DWORD PTR _this$[ebp], ecx
	push	OFFSET ?g_vecZero@@3VVector@@B		; g_vecZero
	mov	ecx, DWORD PTR _this$[ebp]
	call	?GetAbsVelocity@CBaseEntity@@QBEABVVector@@XZ ; CBaseEntity::GetAbsVelocity
	mov	ecx, eax
	call	??9Vector@@QBEHABV0@@Z			; Vector::operator!=
	pop	edi
	pop	esi
	pop	ebx
	mov	esp, ebp
	pop	ebp
	ret	0
?IsMoving@CBaseEntity@@UAEHXZ ENDP			; CBaseEntity::IsMoving
_TEXT	ENDS
; Function compile flags: /Odtp /ZI
; File d:\!diffusion 2020\source code 2022\client-server\server\cbase.h
;	COMDAT ?GetDelay@CBaseEntity@@UAEMXZ
_TEXT	SEGMENT
_this$ = -4						; size = 4
?GetDelay@CBaseEntity@@UAEMXZ PROC			; CBaseEntity::GetDelay, COMDAT
; _this$ = ecx

; 439  : 	virtual float	GetDelay( void ) { return 0; }

	push	ebp
	mov	ebp, esp
	sub	esp, 68					; 00000044H
	push	ebx
	push	esi
	push	edi
	mov	DWORD PTR _this$[ebp], ecx
	fldz
	pop	edi
	pop	esi
	pop	ebx
	mov	esp, ebp
	pop	ebp
	ret	0
?GetDelay@CBaseEntity@@UAEMXZ ENDP			; CBaseEntity::GetDelay
_TEXT	ENDS
; Function compile flags: /Odtp /ZI
; File d:\!diffusion 2020\source code 2022\client-server\server\cbase.h
;	COMDAT ?GiveAmmo@CBaseEntity@@UAEHHPADH@Z
_TEXT	SEGMENT
_this$ = -4						; size = 4
_iAmount$ = 8						; size = 4
_szName$ = 12						; size = 4
_iMax$ = 16						; size = 4
?GiveAmmo@CBaseEntity@@UAEHHPADH@Z PROC			; CBaseEntity::GiveAmmo, COMDAT
; _this$ = ecx

; 438  : 	virtual int 	GiveAmmo( int iAmount, char *szName, int iMax ) { return -1; };

	push	ebp
	mov	ebp, esp
	sub	esp, 68					; 00000044H
	push	ebx
	push	esi
	push	edi
	mov	DWORD PTR _this$[ebp], ecx
	or	eax, -1
	pop	edi
	pop	esi
	pop	ebx
	mov	esp, ebp
	pop	ebp
	ret	12					; 0000000cH
?GiveAmmo@CBaseEntity@@UAEHHPADH@Z ENDP			; CBaseEntity::GiveAmmo
_TEXT	ENDS
; Function compile flags: /Odtp /ZI
; File d:\!diffusion 2020\source code 2022\client-server\server\cbase.h
;	COMDAT ?RemovePlayerItem@CBaseEntity@@UAEHPAVCBasePlayerItem@@@Z
_TEXT	SEGMENT
_this$ = -4						; size = 4
_pItem$ = 8						; size = 4
?RemovePlayerItem@CBaseEntity@@UAEHPAVCBasePlayerItem@@@Z PROC ; CBaseEntity::RemovePlayerItem, COMDAT
; _this$ = ecx

; 437  : 	virtual BOOL	RemovePlayerItem( CBasePlayerItem *pItem ) { return 0; }

	push	ebp
	mov	ebp, esp
	sub	esp, 68					; 00000044H
	push	ebx
	push	esi
	push	edi
	mov	DWORD PTR _this$[ebp], ecx
	xor	eax, eax
	pop	edi
	pop	esi
	pop	ebx
	mov	esp, ebp
	pop	ebp
	ret	4
?RemovePlayerItem@CBaseEntity@@UAEHPAVCBasePlayerItem@@@Z ENDP ; CBaseEntity::RemovePlayerItem
_TEXT	ENDS
; Function compile flags: /Odtp /ZI
; File d:\!diffusion 2020\source code 2022\client-server\server\cbase.h
;	COMDAT ?AddPlayerItem@CBaseEntity@@UAEHPAVCBasePlayerItem@@@Z
_TEXT	SEGMENT
_this$ = -4						; size = 4
_pItem$ = 8						; size = 4
?AddPlayerItem@CBaseEntity@@UAEHPAVCBasePlayerItem@@@Z PROC ; CBaseEntity::AddPlayerItem, COMDAT
; _this$ = ecx

; 436  : 	virtual BOOL	AddPlayerItem( CBasePlayerItem *pItem ) { return 0; }

	push	ebp
	mov	ebp, esp
	sub	esp, 68					; 00000044H
	push	ebx
	push	esi
	push	edi
	mov	DWORD PTR _this$[ebp], ecx
	xor	eax, eax
	pop	edi
	pop	esi
	pop	ebx
	mov	esp, ebp
	pop	ebp
	ret	4
?AddPlayerItem@CBaseEntity@@UAEHPAVCBasePlayerItem@@@Z ENDP ; CBaseEntity::AddPlayerItem
_TEXT	ENDS
; Function compile flags: /Odtp /ZI
; File d:\!diffusion 2020\source code 2022\client-server\server\cbase.h
;	COMDAT ?AddPointsToTeam@CBaseEntity@@UAEXHH@Z
_TEXT	SEGMENT
_this$ = -4						; size = 4
_score$ = 8						; size = 4
_bAllowNegativeScore$ = 12				; size = 4
?AddPointsToTeam@CBaseEntity@@UAEXHH@Z PROC		; CBaseEntity::AddPointsToTeam, COMDAT
; _this$ = ecx

; 435  : 	virtual void	AddPointsToTeam( int score, BOOL bAllowNegativeScore ) {}

	push	ebp
	mov	ebp, esp
	sub	esp, 68					; 00000044H
	push	ebx
	push	esi
	push	edi
	mov	DWORD PTR _this$[ebp], ecx
	pop	edi
	pop	esi
	pop	ebx
	mov	esp, ebp
	pop	ebp
	ret	8
?AddPointsToTeam@CBaseEntity@@UAEXHH@Z ENDP		; CBaseEntity::AddPointsToTeam
_TEXT	ENDS
; Function compile flags: /Odtp /ZI
; File d:\!diffusion 2020\source code 2022\client-server\server\cbase.h
;	COMDAT ?AddPoints@CBaseEntity@@UAEXHH@Z
_TEXT	SEGMENT
_this$ = -4						; size = 4
_score$ = 8						; size = 4
_bAllowNegativeScore$ = 12				; size = 4
?AddPoints@CBaseEntity@@UAEXHH@Z PROC			; CBaseEntity::AddPoints, COMDAT
; _this$ = ecx

; 434  : 	virtual void	AddPoints( int score, BOOL bAllowNegativeScore ) {}

	push	ebp
	mov	ebp, esp
	sub	esp, 68					; 00000044H
	push	ebx
	push	esi
	push	edi
	mov	DWORD PTR _this$[ebp], ecx
	pop	edi
	pop	esi
	pop	ebx
	mov	esp, ebp
	pop	ebp
	ret	8
?AddPoints@CBaseEntity@@UAEXHH@Z ENDP			; CBaseEntity::AddPoints
_TEXT	ENDS
; Function compile flags: /Odtp /ZI
; File d:\!diffusion 2020\source code 2022\client-server\server\cbase.h
;	COMDAT ?GetToggleState@CBaseEntity@@UAEHXZ
_TEXT	SEGMENT
_this$ = -4						; size = 4
?GetToggleState@CBaseEntity@@UAEHXZ PROC		; CBaseEntity::GetToggleState, COMDAT
; _this$ = ecx

; 433  : 	virtual int	GetToggleState( void ) { return TS_AT_TOP; }

	push	ebp
	mov	ebp, esp
	sub	esp, 68					; 00000044H
	push	ebx
	push	esi
	push	edi
	mov	DWORD PTR _this$[ebp], ecx
	xor	eax, eax
	pop	edi
	pop	esi
	pop	ebx
	mov	esp, ebp
	pop	ebp
	ret	0
?GetToggleState@CBaseEntity@@UAEHXZ ENDP		; CBaseEntity::GetToggleState
_TEXT	ENDS
; Function compile flags: /Odtp /ZI
; File d:\!diffusion 2020\source code 2022\client-server\server\cbase.h
;	COMDAT ?MySquadMonsterPointer@CBaseEntity@@UAEPAVCSquadMonster@@XZ
_TEXT	SEGMENT
_this$ = -4						; size = 4
?MySquadMonsterPointer@CBaseEntity@@UAEPAVCSquadMonster@@XZ PROC ; CBaseEntity::MySquadMonsterPointer, COMDAT
; _this$ = ecx

; 432  : 	virtual CSquadMonster *MySquadMonsterPointer( void ) { return NULL;}

	push	ebp
	mov	ebp, esp
	sub	esp, 68					; 00000044H
	push	ebx
	push	esi
	push	edi
	mov	DWORD PTR _this$[ebp], ecx
	xor	eax, eax
	pop	edi
	pop	esi
	pop	ebx
	mov	esp, ebp
	pop	ebp
	ret	0
?MySquadMonsterPointer@CBaseEntity@@UAEPAVCSquadMonster@@XZ ENDP ; CBaseEntity::MySquadMonsterPointer
_TEXT	ENDS
; Function compile flags: /Odtp /ZI
; File d:\!diffusion 2020\source code 2022\client-server\server\cbase.h
;	COMDAT ?MyMonsterPointer@CBaseEntity@@UAEPAVCBaseMonster@@XZ
_TEXT	SEGMENT
_this$ = -4						; size = 4
?MyMonsterPointer@CBaseEntity@@UAEPAVCBaseMonster@@XZ PROC ; CBaseEntity::MyMonsterPointer, COMDAT
; _this$ = ecx

; 431  : 	virtual CBaseMonster *MyMonsterPointer( void ) { return NULL;}

	push	ebp
	mov	ebp, esp
	sub	esp, 68					; 00000044H
	push	ebx
	push	esi
	push	edi
	mov	DWORD PTR _this$[ebp], ecx
	xor	eax, eax
	pop	edi
	pop	esi
	pop	ebx
	mov	esp, ebp
	pop	ebp
	ret	0
?MyMonsterPointer@CBaseEntity@@UAEPAVCBaseMonster@@XZ ENDP ; CBaseEntity::MyMonsterPointer
_TEXT	ENDS
; Function compile flags: /Odtp /ZI
; File d:\!diffusion 2020\source code 2022\client-server\server\cbase.h
;	COMDAT ?IsTriggered@CBaseEntity@@UAEHPAV1@@Z
_TEXT	SEGMENT
_this$ = -4						; size = 4
_pActivator$ = 8					; size = 4
?IsTriggered@CBaseEntity@@UAEHPAV1@@Z PROC		; CBaseEntity::IsTriggered, COMDAT
; _this$ = ecx

; 430  : 	virtual BOOL	IsTriggered( CBaseEntity *pActivator ) {return TRUE;}

	push	ebp
	mov	ebp, esp
	sub	esp, 68					; 00000044H
	push	ebx
	push	esi
	push	edi
	mov	DWORD PTR _this$[ebp], ecx
	mov	eax, 1
	pop	edi
	pop	esi
	pop	ebx
	mov	esp, ebp
	pop	ebp
	ret	4
?IsTriggered@CBaseEntity@@UAEHPAV1@@Z ENDP		; CBaseEntity::IsTriggered
_TEXT	ENDS
; Function compile flags: /Odtp /ZI
; File d:\!diffusion 2020\source code 2022\client-server\server\cbase.h
;	COMDAT ?BloodColor@CBaseEntity@@UAEHXZ
_TEXT	SEGMENT
_this$ = -4						; size = 4
?BloodColor@CBaseEntity@@UAEHXZ PROC			; CBaseEntity::BloodColor, COMDAT
; _this$ = ecx

; 428  : 	virtual int	BloodColor( void ) { return DONT_BLEED; }

	push	ebp
	mov	ebp, esp
	sub	esp, 68					; 00000044H
	push	ebx
	push	esi
	push	edi
	mov	DWORD PTR _this$[ebp], ecx
	or	eax, -1
	pop	edi
	pop	esi
	pop	ebx
	mov	esp, ebp
	pop	ebp
	ret	0
?BloodColor@CBaseEntity@@UAEHXZ ENDP			; CBaseEntity::BloodColor
_TEXT	ENDS
; Function compile flags: /Odtp /ZI
; File d:\!diffusion 2020\source code 2022\client-server\server\cbase.h
;	COMDAT ?GetState@CBaseEntity@@UAE?AW4STATE@@PAV1@@Z
_TEXT	SEGMENT
_this$ = -4						; size = 4
_pEnt$ = 8						; size = 4
?GetState@CBaseEntity@@UAE?AW4STATE@@PAV1@@Z PROC	; CBaseEntity::GetState, COMDAT
; _this$ = ecx

; 421  : 	virtual STATE GetState ( CBaseEntity* pEnt ) { return GetState(); };

	push	ebp
	mov	ebp, esp
	sub	esp, 68					; 00000044H
	push	ebx
	push	esi
	push	edi
	mov	DWORD PTR _this$[ebp], ecx
	mov	eax, DWORD PTR _this$[ebp]
	mov	edx, DWORD PTR [eax]
	mov	ecx, DWORD PTR _this$[ebp]
	mov	eax, DWORD PTR [edx+88]
	call	eax
	pop	edi
	pop	esi
	pop	ebx
	mov	esp, ebp
	pop	ebp
	ret	4
?GetState@CBaseEntity@@UAE?AW4STATE@@PAV1@@Z ENDP	; CBaseEntity::GetState
_TEXT	ENDS
; Function compile flags: /Odtp /ZI
; File d:\!diffusion 2020\source code 2022\client-server\server\cbase.h
;	COMDAT ?GetState@CBaseEntity@@UAE?AW4STATE@@XZ
_TEXT	SEGMENT
_this$ = -4						; size = 4
?GetState@CBaseEntity@@UAE?AW4STATE@@XZ PROC		; CBaseEntity::GetState, COMDAT
; _this$ = ecx

; 418  : 	virtual STATE GetState ( void ) { return STATE_OFF; };

	push	ebp
	mov	ebp, esp
	sub	esp, 68					; 00000044H
	push	ebx
	push	esi
	push	edi
	mov	DWORD PTR _this$[ebp], ecx
	xor	eax, eax
	pop	edi
	pop	esi
	pop	ebx
	mov	esp, ebp
	pop	ebp
	ret	0
?GetState@CBaseEntity@@UAE?AW4STATE@@XZ ENDP		; CBaseEntity::GetState
_TEXT	ENDS
; Function compile flags: /Odtp /ZI
; File d:\!diffusion 2020\source code 2022\client-server\server\cbase.h
;	COMDAT ?IsRigidBody@CBaseEntity@@UAEHXZ
_TEXT	SEGMENT
tv67 = -72						; size = 4
_this$ = -4						; size = 4
?IsRigidBody@CBaseEntity@@UAEHXZ PROC			; CBaseEntity::IsRigidBody, COMDAT
; _this$ = ecx

; 407  : 	virtual BOOL IsRigidBody( void ) { return (m_iActorType == ACTOR_DYNAMIC); } 

	push	ebp
	mov	ebp, esp
	sub	esp, 72					; 00000048H
	push	ebx
	push	esi
	push	edi
	mov	DWORD PTR _this$[ebp], ecx
	mov	eax, DWORD PTR _this$[ebp]
	movzx	ecx, BYTE PTR [eax+1616]
	cmp	ecx, 1
	jne	SHORT $LN3@IsRigidBod
	mov	DWORD PTR tv67[ebp], 1
	jmp	SHORT $LN4@IsRigidBod
$LN3@IsRigidBod:
	mov	DWORD PTR tv67[ebp], 0
$LN4@IsRigidBod:
	mov	eax, DWORD PTR tv67[ebp]
	pop	edi
	pop	esi
	pop	ebx
	mov	esp, ebp
	pop	ebp
	ret	0
?IsRigidBody@CBaseEntity@@UAEHXZ ENDP			; CBaseEntity::IsRigidBody
_TEXT	ENDS
; Function compile flags: /Odtp /ZI
; File d:\!diffusion 2020\source code 2022\client-server\server\cbase.h
;	COMDAT ?DeathNotice@CBaseEntity@@UAEXPAUentvars_s@@@Z
_TEXT	SEGMENT
_this$ = -4						; size = 4
_pevChild$ = 8						; size = 4
?DeathNotice@CBaseEntity@@UAEXPAUentvars_s@@@Z PROC	; CBaseEntity::DeathNotice, COMDAT
; _this$ = ecx

; 406  : 	virtual void DeathNotice ( entvars_t *pevChild ) { } // monster maker children use this to tell the monster maker that they have died.

	push	ebp
	mov	ebp, esp
	sub	esp, 68					; 00000044H
	push	ebx
	push	esi
	push	edi
	mov	DWORD PTR _this$[ebp], ecx
	pop	edi
	pop	esi
	pop	ebx
	mov	esp, ebp
	pop	ebp
	ret	4
?DeathNotice@CBaseEntity@@UAEXPAUentvars_s@@@Z ENDP	; CBaseEntity::DeathNotice
_TEXT	ENDS
; Function compile flags: /Odtp /ZI
; File d:\!diffusion 2020\source code 2022\client-server\server\cbase.h
;	COMDAT ?Classify@CBaseEntity@@UAEHXZ
_TEXT	SEGMENT
_this$ = -4						; size = 4
?Classify@CBaseEntity@@UAEHXZ PROC			; CBaseEntity::Classify, COMDAT
; _this$ = ecx

; 405  : 	virtual int Classify ( void ) { return CLASS_NONE; };

	push	ebp
	mov	ebp, esp
	sub	esp, 68					; 00000044H
	push	ebx
	push	esi
	push	edi
	mov	DWORD PTR _this$[ebp], ecx
	xor	eax, eax
	pop	edi
	pop	esi
	pop	ebx
	mov	esp, ebp
	pop	ebp
	ret	0
?Classify@CBaseEntity@@UAEHXZ ENDP			; CBaseEntity::Classify
_TEXT	ENDS
; Function compile flags: /Odtp /ZI
; File d:\!diffusion 2020\source code 2022\client-server\server\cbase.h
;	COMDAT ?OnRemove@CBaseEntity@@UAEXXZ
_TEXT	SEGMENT
_this$ = -4						; size = 4
?OnRemove@CBaseEntity@@UAEXXZ PROC			; CBaseEntity::OnRemove, COMDAT
; _this$ = ecx

; 393  : 	virtual void	OnRemove( void ) {}

	push	ebp
	mov	ebp, esp
	sub	esp, 68					; 00000044H
	push	ebx
	push	esi
	push	edi
	mov	DWORD PTR _this$[ebp], ecx
	pop	edi
	pop	esi
	pop	ebx
	mov	esp, ebp
	pop	ebp
	ret	0
?OnRemove@CBaseEntity@@UAEXXZ ENDP			; CBaseEntity::OnRemove
_TEXT	ENDS
; Function compile flags: /Odtp /ZI
; File d:\!diffusion 2020\source code 2022\client-server\server\cbase.h
;	COMDAT ?OnClearParent@CBaseEntity@@UAEXXZ
_TEXT	SEGMENT
_this$ = -4						; size = 4
?OnClearParent@CBaseEntity@@UAEXXZ PROC			; CBaseEntity::OnClearParent, COMDAT
; _this$ = ecx

; 392  : 	virtual void	OnClearParent( void ) {}

	push	ebp
	mov	ebp, esp
	sub	esp, 68					; 00000044H
	push	ebx
	push	esi
	push	edi
	mov	DWORD PTR _this$[ebp], ecx
	pop	edi
	pop	esi
	pop	ebx
	mov	esp, ebp
	pop	ebp
	ret	0
?OnClearParent@CBaseEntity@@UAEXXZ ENDP			; CBaseEntity::OnClearParent
_TEXT	ENDS
; Function compile flags: /Odtp /ZI
; File d:\!diffusion 2020\source code 2022\client-server\server\cbase.h
;	COMDAT ?OnChangeParent@CBaseEntity@@UAEXXZ
_TEXT	SEGMENT
_this$ = -4						; size = 4
?OnChangeParent@CBaseEntity@@UAEXXZ PROC		; CBaseEntity::OnChangeParent, COMDAT
; _this$ = ecx

; 391  : 	virtual void	OnChangeParent( void ) {}

	push	ebp
	mov	ebp, esp
	sub	esp, 68					; 00000044H
	push	ebx
	push	esi
	push	edi
	mov	DWORD PTR _this$[ebp], ecx
	pop	edi
	pop	esi
	pop	ebx
	mov	esp, ebp
	pop	ebp
	ret	0
?OnChangeParent@CBaseEntity@@UAEXXZ ENDP		; CBaseEntity::OnChangeParent
_TEXT	ENDS
; Function compile flags: /Odtp /ZI
; File d:\!diffusion 2020\source code 2022\client-server\server\cbase.h
;	COMDAT ?GetPosition@CBaseEntity@@UAEMXZ
_TEXT	SEGMENT
_this$ = -4						; size = 4
?GetPosition@CBaseEntity@@UAEMXZ PROC			; CBaseEntity::GetPosition, COMDAT
; _this$ = ecx

; 390  : 	virtual float	GetPosition( void ) { return 0.0f; }

	push	ebp
	mov	ebp, esp
	sub	esp, 68					; 00000044H
	push	ebx
	push	esi
	push	edi
	mov	DWORD PTR _this$[ebp], ecx
	fldz
	pop	edi
	pop	esi
	pop	ebx
	mov	esp, ebp
	pop	ebp
	ret	0
?GetPosition@CBaseEntity@@UAEMXZ ENDP			; CBaseEntity::GetPosition
_TEXT	ENDS
; Function compile flags: /Odtp /ZI
; File d:\!diffusion 2020\source code 2022\client-server\server\cbase.h
;	COMDAT ?StartMessage@CBaseEntity@@UAEXPAVCBasePlayer@@@Z
_TEXT	SEGMENT
_this$ = -4						; size = 4
_pPlayer$ = 8						; size = 4
?StartMessage@CBaseEntity@@UAEXPAVCBasePlayer@@@Z PROC	; CBaseEntity::StartMessage, COMDAT
; _this$ = ecx

; 389  :           virtual void	StartMessage( CBasePlayer *pPlayer ) {}

	push	ebp
	mov	ebp, esp
	sub	esp, 68					; 00000044H
	push	ebx
	push	esi
	push	edi
	mov	DWORD PTR _this$[ebp], ecx
	pop	edi
	pop	esi
	pop	ebx
	mov	esp, ebp
	pop	ebp
	ret	4
?StartMessage@CBaseEntity@@UAEXPAVCBasePlayer@@@Z ENDP	; CBaseEntity::StartMessage
_TEXT	ENDS
; Function compile flags: /Odtp /ZI
; File d:\!diffusion 2020\source code 2022\client-server\server\cbase.h
;	COMDAT ?PortalSleep@CBaseEntity@@UAEXM@Z
_TEXT	SEGMENT
_this$ = -4						; size = 4
_seconds$ = 8						; size = 4
?PortalSleep@CBaseEntity@@UAEXM@Z PROC			; CBaseEntity::PortalSleep, COMDAT
; _this$ = ecx

; 388  : 	virtual void	PortalSleep( float seconds ) {}

	push	ebp
	mov	ebp, esp
	sub	esp, 68					; 00000044H
	push	ebx
	push	esi
	push	edi
	mov	DWORD PTR _this$[ebp], ecx
	pop	edi
	pop	esi
	pop	ebx
	mov	esp, ebp
	pop	ebp
	ret	4
?PortalSleep@CBaseEntity@@UAEXM@Z ENDP			; CBaseEntity::PortalSleep
_TEXT	ENDS
; Function compile flags: /Odtp /ZI
; File d:\!diffusion 2020\source code 2022\client-server\server\cbase.h
;	COMDAT ?OnTeleport@CBaseEntity@@UAEXXZ
_TEXT	SEGMENT
_this$ = -4						; size = 4
?OnTeleport@CBaseEntity@@UAEXXZ PROC			; CBaseEntity::OnTeleport, COMDAT
; _this$ = ecx

; 387  : 	virtual void	OnTeleport( void ) {}

	push	ebp
	mov	ebp, esp
	sub	esp, 68					; 00000044H
	push	ebx
	push	esi
	push	edi
	mov	DWORD PTR _this$[ebp], ecx
	pop	edi
	pop	esi
	pop	ebx
	mov	esp, ebp
	pop	ebp
	ret	0
?OnTeleport@CBaseEntity@@UAEXXZ ENDP			; CBaseEntity::OnTeleport
_TEXT	ENDS
; Function compile flags: /Odtp /ZI
; File d:\!diffusion 2020\source code 2022\client-server\server\cbase.h
;	COMDAT ?OnChangeLevel@CBaseEntity@@UAEXXZ
_TEXT	SEGMENT
_this$ = -4						; size = 4
?OnChangeLevel@CBaseEntity@@UAEXXZ PROC			; CBaseEntity::OnChangeLevel, COMDAT
; _this$ = ecx

; 386  : 	virtual void	OnChangeLevel( void ) {}

	push	ebp
	mov	ebp, esp
	sub	esp, 68					; 00000044H
	push	ebx
	push	esi
	push	edi
	mov	DWORD PTR _this$[ebp], ecx
	pop	edi
	pop	esi
	pop	ebx
	mov	esp, ebp
	pop	ebp
	ret	0
?OnChangeLevel@CBaseEntity@@UAEXXZ ENDP			; CBaseEntity::OnChangeLevel
_TEXT	ENDS
; Function compile flags: /Odtp /ZI
; File d:\!diffusion 2020\source code 2022\client-server\server\cbase.h
;	COMDAT ?Activate@CBaseEntity@@UAEXXZ
_TEXT	SEGMENT
_this$ = -4						; size = 4
?Activate@CBaseEntity@@UAEXXZ PROC			; CBaseEntity::Activate, COMDAT
; _this$ = ecx

; 385  : 	virtual void	Activate( void ) {}

	push	ebp
	mov	ebp, esp
	sub	esp, 68					; 00000044H
	push	ebx
	push	esi
	push	edi
	mov	DWORD PTR _this$[ebp], ecx
	pop	edi
	pop	esi
	pop	ebx
	mov	esp, ebp
	pop	ebp
	ret	0
?Activate@CBaseEntity@@UAEXXZ ENDP			; CBaseEntity::Activate
_TEXT	ENDS
; Function compile flags: /Odtp /ZI
; File d:\!diffusion 2020\source code 2022\client-server\server\cbase.h
;	COMDAT ?ObjectCaps@CBaseEntity@@UAEHXZ
_TEXT	SEGMENT
_this$ = -4						; size = 4
?ObjectCaps@CBaseEntity@@UAEHXZ PROC			; CBaseEntity::ObjectCaps, COMDAT
; _this$ = ecx

; 384  : 	virtual int	ObjectCaps( void ) { return FCAP_ACROSS_TRANSITION; }

	push	ebp
	mov	ebp, esp
	sub	esp, 68					; 00000044H
	push	ebx
	push	esi
	push	edi
	mov	DWORD PTR _this$[ebp], ecx
	mov	eax, 2
	pop	edi
	pop	esi
	pop	ebx
	mov	esp, ebp
	pop	ebp
	ret	0
?ObjectCaps@CBaseEntity@@UAEHXZ ENDP			; CBaseEntity::ObjectCaps
_TEXT	ENDS
; Function compile flags: /Odtp /ZI
; File d:\!diffusion 2020\source code 2022\client-server\server\cbase.h
;	COMDAT ?KeyValue@CBaseEntity@@UAEXPAUKeyValueData_s@@@Z
_TEXT	SEGMENT
tv139 = -72						; size = 4
_this$ = -4						; size = 4
_pkvd$ = 8						; size = 4
?KeyValue@CBaseEntity@@UAEXPAUKeyValueData_s@@@Z PROC	; CBaseEntity::KeyValue, COMDAT
; _this$ = ecx

; 343  : 	{

	push	ebp
	mov	ebp, esp
	sub	esp, 72					; 00000048H
	push	ebx
	push	esi
	push	edi
	mov	DWORD PTR _this$[ebp], ecx

; 344  : 		// get support for spirit field too
; 345  : 		if( FStrEq( pkvd->szKeyName, "parent" ) || FStrEq( pkvd->szKeyName, "movewith" ))

	push	OFFSET ??_C@_06MLKDMCBD@parent?$AA@
	mov	eax, DWORD PTR _pkvd$[ebp]
	mov	ecx, DWORD PTR [eax+4]
	push	ecx
	call	?FStrEq@@YAHPBD0@Z			; FStrEq
	add	esp, 8
	test	eax, eax
	jne	SHORT $LN6@KeyValue
	push	OFFSET ??_C@_08JJJAOBDI@movewith?$AA@
	mov	eax, DWORD PTR _pkvd$[ebp]
	mov	ecx, DWORD PTR [eax+4]
	push	ecx
	call	?FStrEq@@YAHPBD0@Z			; FStrEq
	add	esp, 8
	test	eax, eax
	je	SHORT $LN4@KeyValue
$LN6@KeyValue:

; 346  : 		{
; 347  : 			m_iParent = ALLOC_STRING(pkvd->szValue);

	mov	eax, DWORD PTR _pkvd$[ebp]
	mov	ecx, DWORD PTR [eax+8]
	push	ecx
	call	DWORD PTR ?g_engfuncs@@3Uenginefuncs_s@@A+268
	add	esp, 4
	mov	edx, DWORD PTR _this$[ebp]
	mov	DWORD PTR [edx+184], eax

; 348  : 			pkvd->fHandled = TRUE;

	mov	eax, DWORD PTR _pkvd$[ebp]
	mov	DWORD PTR [eax+12], 1
	jmp	$LN1@KeyValue
$LN4@KeyValue:

; 349  : 		}
; 350  : 		else if( FStrEq( pkvd->szKeyName, "parentflags" ))

	push	OFFSET ??_C@_0M@EAELDHJO@parentflags?$AA@
	mov	eax, DWORD PTR _pkvd$[ebp]
	mov	ecx, DWORD PTR [eax+4]
	push	ecx
	call	?FStrEq@@YAHPBD0@Z			; FStrEq
	add	esp, 8
	test	eax, eax
	je	SHORT $LN7@KeyValue

; 351  : 		{
; 352  : 			m_iParentFlags = Q_atoi( pkvd->szValue );

	mov	eax, DWORD PTR _pkvd$[ebp]
	mov	ecx, DWORD PTR [eax+8]
	push	ecx
	call	?Q_atoi@@YAHPBD@Z			; Q_atoi
	add	esp, 4
	mov	edx, DWORD PTR _this$[ebp]
	mov	DWORD PTR [edx+188], eax

; 353  : 			pkvd->fHandled = TRUE;

	mov	eax, DWORD PTR _pkvd$[ebp]
	mov	DWORD PTR [eax+12], 1
	jmp	$LN1@KeyValue
$LN7@KeyValue:

; 354  : 		}
; 355  : 		else if( FStrEq( pkvd->szKeyName, "style" ))

	push	OFFSET ??_C@_05IAKJCFIM@style?$AA@
	mov	eax, DWORD PTR _pkvd$[ebp]
	mov	ecx, DWORD PTR [eax+4]
	push	ecx
	call	?FStrEq@@YAHPBD0@Z			; FStrEq
	add	esp, 8
	test	eax, eax
	je	SHORT $LN9@KeyValue

; 356  : 		{
; 357  : 			m_iStyle = Q_atoi( pkvd->szValue );

	mov	eax, DWORD PTR _pkvd$[ebp]
	mov	ecx, DWORD PTR [eax+8]
	push	ecx
	call	?Q_atoi@@YAHPBD@Z			; Q_atoi
	add	esp, 4
	mov	edx, DWORD PTR _this$[ebp]
	mov	DWORD PTR [edx+72], eax

; 358  : 			pkvd->fHandled = TRUE;

	mov	eax, DWORD PTR _pkvd$[ebp]
	mov	DWORD PTR [eax+12], 1
	jmp	$LN1@KeyValue
$LN9@KeyValue:

; 359  : 		}
; 360  : 		else if( FStrEq( pkvd->szKeyName, "reflection" ))

	push	OFFSET ??_C@_0L@IKCANML@reflection?$AA@
	mov	eax, DWORD PTR _pkvd$[ebp]
	mov	ecx, DWORD PTR [eax+4]
	push	ecx
	call	?FStrEq@@YAHPBD0@Z			; FStrEq
	add	esp, 8
	test	eax, eax
	je	SHORT $LN11@KeyValue

; 361  : 		{
; 362  : 			switch( Q_atoi( pkvd->szValue ))

	mov	eax, DWORD PTR _pkvd$[ebp]
	mov	ecx, DWORD PTR [eax+8]
	push	ecx
	call	?Q_atoi@@YAHPBD@Z			; Q_atoi
	add	esp, 4
	mov	DWORD PTR tv139[ebp], eax
	cmp	DWORD PTR tv139[ebp], 1
	je	SHORT $LN13@KeyValue
	cmp	DWORD PTR tv139[ebp], 2
	je	SHORT $LN14@KeyValue
	jmp	SHORT $LN2@KeyValue
$LN13@KeyValue:

; 363  : 			{
; 364  : 			case 1: pev->effects |= EF_NOREFLECT; break;

	mov	eax, DWORD PTR _this$[ebp]
	mov	ecx, DWORD PTR [eax+4]
	mov	edx, DWORD PTR [ecx+280]
	or	edx, 16777216				; 01000000H
	mov	eax, DWORD PTR _this$[ebp]
	mov	ecx, DWORD PTR [eax+4]
	mov	DWORD PTR [ecx+280], edx
	jmp	SHORT $LN2@KeyValue
$LN14@KeyValue:

; 365  : 			case 2: pev->effects |= EF_REFLECTONLY; break;

	mov	eax, DWORD PTR _this$[ebp]
	mov	ecx, DWORD PTR [eax+4]
	mov	edx, DWORD PTR [ecx+280]
	or	edx, 33554432				; 02000000H
	mov	eax, DWORD PTR _this$[ebp]
	mov	ecx, DWORD PTR [eax+4]
	mov	DWORD PTR [ecx+280], edx
$LN2@KeyValue:

; 366  : 			}
; 367  : 			pkvd->fHandled = TRUE;

	mov	eax, DWORD PTR _pkvd$[ebp]
	mov	DWORD PTR [eax+12], 1
	jmp	$LN1@KeyValue
$LN11@KeyValue:

; 368  : 		}
; 369  : 		else if( FStrEq(pkvd->szKeyName, "vlight_cache"))

	push	OFFSET ??_C@_0N@JILDNHAP@vlight_cache?$AA@
	mov	eax, DWORD PTR _pkvd$[ebp]
	mov	ecx, DWORD PTR [eax+4]
	push	ecx
	call	?FStrEq@@YAHPBD0@Z			; FStrEq
	add	esp, 8
	test	eax, eax
	je	SHORT $LN15@KeyValue

; 370  : 		{
; 371  : 			pev->iuser3 = atoi( pkvd->szValue );

	mov	eax, DWORD PTR _pkvd$[ebp]
	mov	ecx, DWORD PTR [eax+8]
	push	ecx
	call	_atoi
	add	esp, 4
	mov	edx, DWORD PTR _this$[ebp]
	mov	ecx, DWORD PTR [edx+4]
	mov	DWORD PTR [ecx+588], eax

; 372  : 			pkvd->fHandled = TRUE;

	mov	eax, DWORD PTR _pkvd$[ebp]
	mov	DWORD PTR [eax+12], 1
	jmp	SHORT $LN1@KeyValue
$LN15@KeyValue:

; 373  : 		}
; 374  : 		else if( FStrEq( pkvd->szKeyName, "customname" ) )

	push	OFFSET ??_C@_0L@JIJDCONP@customname?$AA@
	mov	eax, DWORD PTR _pkvd$[ebp]
	mov	ecx, DWORD PTR [eax+4]
	push	ecx
	call	?FStrEq@@YAHPBD0@Z			; FStrEq
	add	esp, 8
	test	eax, eax
	je	SHORT $LN17@KeyValue

; 375  : 		{
; 376  : 			CustomNameString = ALLOC_STRING( pkvd->szValue );

	mov	eax, DWORD PTR _pkvd$[ebp]
	mov	ecx, DWORD PTR [eax+8]
	push	ecx
	call	DWORD PTR ?g_engfuncs@@3Uenginefuncs_s@@A+268
	add	esp, 4
	mov	edx, DWORD PTR _this$[ebp]
	mov	DWORD PTR [edx+156], eax

; 377  : 			pkvd->fHandled = TRUE;

	mov	eax, DWORD PTR _pkvd$[ebp]
	mov	DWORD PTR [eax+12], 1
	jmp	SHORT $LN1@KeyValue
$LN17@KeyValue:

; 378  : 		}
; 379  : 		else pkvd->fHandled = FALSE;

	mov	eax, DWORD PTR _pkvd$[ebp]
	mov	DWORD PTR [eax+12], 0
$LN1@KeyValue:

; 380  : 	}

	pop	edi
	pop	esi
	pop	ebx
	mov	esp, ebp
	pop	ebp
	ret	4
?KeyValue@CBaseEntity@@UAEXPAUKeyValueData_s@@@Z ENDP	; CBaseEntity::KeyValue
_TEXT	ENDS
; Function compile flags: /Odtp /ZI
; File d:\!diffusion 2020\source code 2022\client-server\server\cbase.h
;	COMDAT ?Precache@CBaseEntity@@UAEXXZ
_TEXT	SEGMENT
_this$ = -4						; size = 4
?Precache@CBaseEntity@@UAEXXZ PROC			; CBaseEntity::Precache, COMDAT
; _this$ = ecx

; 341  : 	virtual void	Precache( void ) { }

	push	ebp
	mov	ebp, esp
	sub	esp, 68					; 00000044H
	push	ebx
	push	esi
	push	edi
	mov	DWORD PTR _this$[ebp], ecx
	pop	edi
	pop	esi
	pop	ebx
	mov	esp, ebp
	pop	ebp
	ret	0
?Precache@CBaseEntity@@UAEXXZ ENDP			; CBaseEntity::Precache
_TEXT	ENDS
; Function compile flags: /Odtp /ZI
; File d:\!diffusion 2020\source code 2022\client-server\server\cbase.h
;	COMDAT ?Spawn@CBaseEntity@@UAEXXZ
_TEXT	SEGMENT
_this$ = -4						; size = 4
?Spawn@CBaseEntity@@UAEXXZ PROC				; CBaseEntity::Spawn, COMDAT
; _this$ = ecx

; 340  : 	virtual void	Spawn( void ) { }

	push	ebp
	mov	ebp, esp
	sub	esp, 68					; 00000044H
	push	ebx
	push	esi
	push	edi
	mov	DWORD PTR _this$[ebp], ecx
	pop	edi
	pop	esi
	pop	ebx
	mov	esp, ebp
	pop	ebp
	ret	0
?Spawn@CBaseEntity@@UAEXXZ ENDP				; CBaseEntity::Spawn
_TEXT	ENDS
; Function compile flags: /Odtp /ZI
; File d:\!diffusion 2020\source code 2022\client-server\server\cbase.h
;	COMDAT ?SetClassname@CBaseEntity@@QAEXPBD@Z
_TEXT	SEGMENT
_this$ = -4						; size = 4
_pszClassName$ = 8					; size = 4
?SetClassname@CBaseEntity@@QAEXPBD@Z PROC		; CBaseEntity::SetClassname, COMDAT
; _this$ = ecx

; 317  : 	void		SetClassname( const char *pszClassName ) { pev->classname = MAKE_STRING( pszClassName ); }

	push	ebp
	mov	ebp, esp
	sub	esp, 68					; 00000044H
	push	ebx
	push	esi
	push	edi
	mov	DWORD PTR _this$[ebp], ecx
	mov	eax, DWORD PTR _pszClassName$[ebp]
	push	eax
	call	DWORD PTR ?g_engfuncs@@3Uenginefuncs_s@@A+268
	add	esp, 4
	mov	ecx, DWORD PTR _this$[ebp]
	mov	edx, DWORD PTR [ecx+4]
	mov	DWORD PTR [edx], eax
	pop	edi
	pop	esi
	pop	ebx
	mov	esp, ebp
	pop	ebp
	ret	4
?SetClassname@CBaseEntity@@QAEXPBD@Z ENDP		; CBaseEntity::SetClassname
_TEXT	ENDS
; Function compile flags: /Odtp /ZI
; File d:\!diffusion 2020\source code 2022\client-server\server\ehandle.h
;	COMDAT ??CEHANDLE@@QAEPAVCBaseEntity@@XZ
_TEXT	SEGMENT
_this$ = -4						; size = 4
??CEHANDLE@@QAEPAVCBaseEntity@@XZ PROC			; EHANDLE::operator->, COMDAT
; _this$ = ecx

; 90   : {

	push	ebp
	mov	ebp, esp
	sub	esp, 68					; 00000044H
	push	ebx
	push	esi
	push	edi
	mov	DWORD PTR _this$[ebp], ecx

; 91   : 	return (CBaseEntity *)GET_PRIVATE( Get( ) ); 

	mov	ecx, DWORD PTR _this$[ebp]
	call	?Get@EHANDLE@@QAEPAUedict_s@@XZ		; EHANDLE::Get
	push	eax
	call	?GET_PRIVATE@@YAPAXPAUedict_s@@@Z	; GET_PRIVATE
	add	esp, 4

; 92   : }

	pop	edi
	pop	esi
	pop	ebx
	mov	esp, ebp
	pop	ebp
	ret	0
??CEHANDLE@@QAEPAVCBaseEntity@@XZ ENDP			; EHANDLE::operator->
_TEXT	ENDS
; Function compile flags: /Odtp /ZI
; File d:\!diffusion 2020\source code 2022\client-server\server\ehandle.h
;	COMDAT ??BEHANDLE@@QAEHXZ
_TEXT	SEGMENT
tv67 = -72						; size = 4
_this$ = -4						; size = 4
??BEHANDLE@@QAEHXZ PROC					; EHANDLE::operator int, COMDAT
; _this$ = ecx

; 85   : {

	push	ebp
	mov	ebp, esp
	sub	esp, 72					; 00000048H
	push	ebx
	push	esi
	push	edi
	mov	DWORD PTR _this$[ebp], ecx

; 86   : 	return Get() != NULL;

	mov	ecx, DWORD PTR _this$[ebp]
	call	?Get@EHANDLE@@QAEPAUedict_s@@XZ		; EHANDLE::Get
	test	eax, eax
	je	SHORT $LN3@operator
	mov	DWORD PTR tv67[ebp], 1
	jmp	SHORT $LN4@operator
$LN3@operator:
	mov	DWORD PTR tv67[ebp], 0
$LN4@operator:
	mov	eax, DWORD PTR tv67[ebp]

; 87   : }

	pop	edi
	pop	esi
	pop	ebx
	mov	esp, ebp
	pop	ebp
	ret	0
??BEHANDLE@@QAEHXZ ENDP					; EHANDLE::operator int
_TEXT	ENDS
; Function compile flags: /Odtp /ZI
; File d:\!diffusion 2020\source code 2022\client-server\server\ehandle.h
;	COMDAT ?Get@EHANDLE@@QAEPAUedict_s@@XZ
_TEXT	SEGMENT
_this$ = -4						; size = 4
?Get@EHANDLE@@QAEPAUedict_s@@XZ PROC			; EHANDLE::Get, COMDAT
; _this$ = ecx

; 40   : { 

	push	ebp
	mov	ebp, esp
	sub	esp, 68					; 00000044H
	push	ebx
	push	esi
	push	edi
	mov	DWORD PTR _this$[ebp], ecx

; 41   : 	if( m_pent )

	mov	eax, DWORD PTR _this$[ebp]
	cmp	DWORD PTR [eax], 0
	je	SHORT $LN2@Get

; 42   : 	{
; 43   : #if 0
; 44   : 		// keep client entity always in actual state
; 45   : 		if( ENTINDEX( m_pent ) == 1 )
; 46   : 			m_serialnumber = m_pent->serialnumber;
; 47   : #endif
; 48   : 		if( m_pent->serialnumber == m_serialnumber ) 

	mov	eax, DWORD PTR _this$[ebp]
	mov	ecx, DWORD PTR [eax]
	mov	edx, DWORD PTR _this$[ebp]
	mov	eax, DWORD PTR [ecx+4]
	cmp	eax, DWORD PTR [edx+4]
	jne	SHORT $LN2@Get

; 49   : 			return m_pent; 

	mov	eax, DWORD PTR _this$[ebp]
	mov	eax, DWORD PTR [eax]
	jmp	SHORT $LN1@Get
$LN2@Get:

; 50   : 	}
; 51   : 
; 52   : 	return NULL; 

	xor	eax, eax
$LN1@Get:

; 53   : }

	pop	edi
	pop	esi
	pop	ebx
	mov	esp, ebp
	pop	ebp
	ret	0
?Get@EHANDLE@@QAEPAUedict_s@@XZ ENDP			; EHANDLE::Get
_TEXT	ENDS
; Function compile flags: /Odtp /ZI
; File d:\!diffusion 2020\source code 2022\client-server\server\util.h
;	COMDAT ?FStrEq@@YAHPBD0@Z
_TEXT	SEGMENT
tv69 = -68						; size = 4
_sz1$ = 8						; size = 4
_sz2$ = 12						; size = 4
?FStrEq@@YAHPBD0@Z PROC					; FStrEq, COMDAT

; 287  : {

	push	ebp
	mov	ebp, esp
	sub	esp, 68					; 00000044H
	push	ebx
	push	esi
	push	edi

; 288  : 	return (Q_strcmp( sz1, sz2 ) == 0);

	push	99999					; 0001869fH
	mov	eax, DWORD PTR _sz2$[ebp]
	push	eax
	mov	ecx, DWORD PTR _sz1$[ebp]
	push	ecx
	call	?Q_strncmp@@YAHPBD0H@Z			; Q_strncmp
	add	esp, 12					; 0000000cH
	test	eax, eax
	jne	SHORT $LN3@FStrEq
	mov	DWORD PTR tv69[ebp], 1
	jmp	SHORT $LN4@FStrEq
$LN3@FStrEq:
	mov	DWORD PTR tv69[ebp], 0
$LN4@FStrEq:
	mov	eax, DWORD PTR tv69[ebp]

; 289  : }

	pop	edi
	pop	esi
	pop	ebx
	mov	esp, ebp
	pop	ebp
	ret	0
?FStrEq@@YAHPBD0@Z ENDP					; FStrEq
_TEXT	ENDS
; Function compile flags: /Odtp /ZI
; File d:\!diffusion 2020\source code 2022\client-server\server\util.h
;	COMDAT ?VARS@@YAPAUentvars_s@@PAUedict_s@@@Z
_TEXT	SEGMENT
_pent$ = 8						; size = 4
?VARS@@YAPAUentvars_s@@PAUedict_s@@@Z PROC		; VARS, COMDAT

; 178  : { 

	push	ebp
	mov	ebp, esp
	sub	esp, 64					; 00000040H
	push	ebx
	push	esi
	push	edi

; 179  : 	if ( !pent )

	cmp	DWORD PTR _pent$[ebp], 0
	jne	SHORT $LN2@VARS

; 180  : 		return NULL;

	xor	eax, eax
	jmp	SHORT $LN1@VARS
$LN2@VARS:

; 181  : 
; 182  : 	return &pent->v; 

	mov	eax, DWORD PTR _pent$[ebp]
	add	eax, 128				; 00000080H
$LN1@VARS:

; 183  : }

	pop	edi
	pop	esi
	pop	ebx
	mov	esp, ebp
	pop	ebp
	ret	0
?VARS@@YAPAUentvars_s@@PAUedict_s@@@Z ENDP		; VARS
_TEXT	ENDS
; Function compile flags: /Odtp /ZI
; File d:\!diffusion 2020\source code 2022\client-server\server\util.h
;	COMDAT ?ENT@@YAPAUedict_s@@PBUentvars_s@@@Z
_TEXT	SEGMENT
_pev$ = 8						; size = 4
?ENT@@YAPAUedict_s@@PBUentvars_s@@@Z PROC		; ENT, COMDAT

; 151  : 	inline edict_t *ENT(const entvars_t *pev)	{ return DBG_EntOfVars(pev); }

	push	ebp
	mov	ebp, esp
	sub	esp, 64					; 00000040H
	push	ebx
	push	esi
	push	edi
	mov	eax, DWORD PTR _pev$[ebp]
	push	eax
	call	?DBG_EntOfVars@@YAPAUedict_s@@PBUentvars_s@@@Z ; DBG_EntOfVars
	add	esp, 4
	pop	edi
	pop	esi
	pop	ebx
	mov	esp, ebp
	pop	ebp
	ret	0
?ENT@@YAPAUedict_s@@PBUentvars_s@@@Z ENDP		; ENT
_TEXT	ENDS
; Function compile flags: /Odtp /ZI
;	COMDAT ??0IEntityFactory@@QAE@XZ
_TEXT	SEGMENT
_this$ = -4						; size = 4
??0IEntityFactory@@QAE@XZ PROC				; IEntityFactory::IEntityFactory, COMDAT
; _this$ = ecx
	push	ebp
	mov	ebp, esp
	sub	esp, 68					; 00000044H
	push	ebx
	push	esi
	push	edi
	mov	DWORD PTR _this$[ebp], ecx
	mov	eax, DWORD PTR _this$[ebp]
	mov	DWORD PTR [eax], OFFSET ??_7IEntityFactory@@6B@
	mov	eax, DWORD PTR _this$[ebp]
	pop	edi
	pop	esi
	pop	ebx
	mov	esp, ebp
	pop	ebp
	ret	0
??0IEntityFactory@@QAE@XZ ENDP				; IEntityFactory::IEntityFactory
_TEXT	ENDS
; Function compile flags: /Odtp /ZI
; File d:\!diffusion 2020\source code 2022\client-server\server\util.h
;	COMDAT ?MESSAGE_BEGIN@@YAXHHPBMPAUentvars_s@@@Z
_TEXT	SEGMENT
_msg_dest$ = 8						; size = 4
_msg_type$ = 12						; size = 4
_pOrigin$ = 16						; size = 4
_ent$ = 20						; size = 4
?MESSAGE_BEGIN@@YAXHHPBMPAUentvars_s@@@Z PROC		; MESSAGE_BEGIN, COMDAT

; 189  : inline void MESSAGE_BEGIN( int msg_dest, int msg_type, const float *pOrigin, entvars_t *ent ) {

	push	ebp
	mov	ebp, esp
	sub	esp, 64					; 00000040H
	push	ebx
	push	esi
	push	edi

; 190  : 	(*g_engfuncs.pfnMessageBegin)(msg_dest, msg_type, pOrigin, ENT(ent));

	mov	eax, DWORD PTR _ent$[ebp]
	push	eax
	call	?ENT@@YAPAUedict_s@@PBUentvars_s@@@Z	; ENT
	add	esp, 4
	push	eax
	mov	ecx, DWORD PTR _pOrigin$[ebp]
	push	ecx
	mov	edx, DWORD PTR _msg_type$[ebp]
	push	edx
	mov	eax, DWORD PTR _msg_dest$[ebp]
	push	eax
	call	DWORD PTR ?g_engfuncs@@3Uenginefuncs_s@@A+184
	add	esp, 16					; 00000010H

; 191  : }

	pop	edi
	pop	esi
	pop	ebx
	mov	esp, ebp
	pop	ebp
	ret	0
?MESSAGE_BEGIN@@YAXHHPBMPAUentvars_s@@@Z ENDP		; MESSAGE_BEGIN
_TEXT	ENDS
; Function compile flags: /Odtp /ZI
; File d:\!diffusion 2020\source code 2022\client-server\server\enginecallback.h
;	COMDAT ?GET_PRIVATE@@YAPAXPAUedict_s@@@Z
_TEXT	SEGMENT
_pent$ = 8						; size = 4
?GET_PRIVATE@@YAPAXPAUedict_s@@@Z PROC			; GET_PRIVATE, COMDAT

; 106  : {

	push	ebp
	mov	ebp, esp
	sub	esp, 64					; 00000040H
	push	ebx
	push	esi
	push	edi

; 107  : 	if ( pent )

	cmp	DWORD PTR _pent$[ebp], 0
	je	SHORT $LN2@GET_PRIVAT

; 108  : 		return pent->pvPrivateData;

	mov	eax, DWORD PTR _pent$[ebp]
	mov	eax, DWORD PTR [eax+124]
	jmp	SHORT $LN1@GET_PRIVAT
$LN2@GET_PRIVAT:

; 109  : 	return NULL;

	xor	eax, eax
$LN1@GET_PRIVAT:

; 110  : }

	pop	edi
	pop	esi
	pop	ebx
	mov	esp, ebp
	pop	ebp
	ret	0
?GET_PRIVATE@@YAPAXPAUedict_s@@@Z ENDP			; GET_PRIVATE
_TEXT	ENDS
; Function compile flags: /Odtp /ZI
; File d:\!diffusion 2020\source code 2022\client-server\game_shared\vector.h
;	COMDAT ??DVector@@QBE?AV0@M@Z
_TEXT	SEGMENT
_this$ = -4						; size = 4
___$ReturnUdt$ = 8					; size = 4
_fl$ = 12						; size = 4
??DVector@@QBE?AV0@M@Z PROC				; Vector::operator*, COMDAT
; _this$ = ecx

; 162  : 	inline Vector operator*(float fl) const		{ return Vector(x*fl, y*fl, z*fl);	   }

	push	ebp
	mov	ebp, esp
	sub	esp, 68					; 00000044H
	push	ebx
	push	esi
	push	edi
	mov	DWORD PTR _this$[ebp], ecx
	mov	eax, DWORD PTR _this$[ebp]
	movss	xmm0, DWORD PTR [eax+8]
	mulss	xmm0, DWORD PTR _fl$[ebp]
	push	ecx
	movss	DWORD PTR [esp], xmm0
	mov	ecx, DWORD PTR _this$[ebp]
	movss	xmm0, DWORD PTR [ecx+4]
	mulss	xmm0, DWORD PTR _fl$[ebp]
	push	ecx
	movss	DWORD PTR [esp], xmm0
	mov	edx, DWORD PTR _this$[ebp]
	movss	xmm0, DWORD PTR [edx]
	mulss	xmm0, DWORD PTR _fl$[ebp]
	push	ecx
	movss	DWORD PTR [esp], xmm0
	mov	ecx, DWORD PTR ___$ReturnUdt$[ebp]
	call	??0Vector@@QAE@MMM@Z			; Vector::Vector
	mov	eax, DWORD PTR ___$ReturnUdt$[ebp]
	pop	edi
	pop	esi
	pop	ebx
	mov	esp, ebp
	pop	ebp
	ret	8
??DVector@@QBE?AV0@M@Z ENDP				; Vector::operator*
_TEXT	ENDS
; Function compile flags: /Odtp /ZI
; File d:\!diffusion 2020\source code 2022\client-server\game_shared\vector.h
;	COMDAT ??HVector@@QBE?AV0@ABV0@@Z
_TEXT	SEGMENT
_this$ = -4						; size = 4
___$ReturnUdt$ = 8					; size = 4
_v$ = 12						; size = 4
??HVector@@QBE?AV0@ABV0@@Z PROC				; Vector::operator+, COMDAT
; _this$ = ecx

; 158  : 	inline Vector operator+(const Vector& v) const	{ return Vector(x+v.x, y+v.y, z+v.z);	   }

	push	ebp
	mov	ebp, esp
	sub	esp, 68					; 00000044H
	push	ebx
	push	esi
	push	edi
	mov	DWORD PTR _this$[ebp], ecx
	mov	eax, DWORD PTR _this$[ebp]
	mov	ecx, DWORD PTR _v$[ebp]
	movss	xmm0, DWORD PTR [eax+8]
	addss	xmm0, DWORD PTR [ecx+8]
	push	ecx
	movss	DWORD PTR [esp], xmm0
	mov	edx, DWORD PTR _this$[ebp]
	mov	eax, DWORD PTR _v$[ebp]
	movss	xmm0, DWORD PTR [edx+4]
	addss	xmm0, DWORD PTR [eax+4]
	push	ecx
	movss	DWORD PTR [esp], xmm0
	mov	ecx, DWORD PTR _this$[ebp]
	mov	edx, DWORD PTR _v$[ebp]
	movss	xmm0, DWORD PTR [ecx]
	addss	xmm0, DWORD PTR [edx]
	push	ecx
	movss	DWORD PTR [esp], xmm0
	mov	ecx, DWORD PTR ___$ReturnUdt$[ebp]
	call	??0Vector@@QAE@MMM@Z			; Vector::Vector
	mov	eax, DWORD PTR ___$ReturnUdt$[ebp]
	pop	edi
	pop	esi
	pop	ebx
	mov	esp, ebp
	pop	ebp
	ret	8
??HVector@@QBE?AV0@ABV0@@Z ENDP				; Vector::operator+
_TEXT	ENDS
; Function compile flags: /Odtp /ZI
; File d:\!diffusion 2020\source code 2022\client-server\game_shared\vector.h
;	COMDAT ??9Vector@@QBEHABV0@@Z
_TEXT	SEGMENT
tv68 = -72						; size = 4
_this$ = -4						; size = 4
_v$ = 8							; size = 4
??9Vector@@QBEHABV0@@Z PROC				; Vector::operator!=, COMDAT
; _this$ = ecx

; 157  : 	inline int operator!=(const Vector& v) const	{ return !(*this==v);		   }

	push	ebp
	mov	ebp, esp
	sub	esp, 72					; 00000048H
	push	ebx
	push	esi
	push	edi
	mov	DWORD PTR _this$[ebp], ecx
	mov	eax, DWORD PTR _v$[ebp]
	push	eax
	mov	ecx, DWORD PTR _this$[ebp]
	call	??8Vector@@QBEHABV0@@Z			; Vector::operator==
	test	eax, eax
	jne	SHORT $LN3@operator
	mov	DWORD PTR tv68[ebp], 1
	jmp	SHORT $LN4@operator
$LN3@operator:
	mov	DWORD PTR tv68[ebp], 0
$LN4@operator:
	mov	eax, DWORD PTR tv68[ebp]
	pop	edi
	pop	esi
	pop	ebx
	mov	esp, ebp
	pop	ebp
	ret	4
??9Vector@@QBEHABV0@@Z ENDP				; Vector::operator!=
_TEXT	ENDS
; Function compile flags: /Odtp /ZI
; File d:\!diffusion 2020\source code 2022\client-server\game_shared\vector.h
;	COMDAT ??8Vector@@QBEHABV0@@Z
_TEXT	SEGMENT
tv73 = -72						; size = 4
_this$ = -4						; size = 4
_v$ = 8							; size = 4
??8Vector@@QBEHABV0@@Z PROC				; Vector::operator==, COMDAT
; _this$ = ecx

; 156  : 	inline int operator==(const Vector& v) const	{ return x==v.x && y==v.y && z==v.z;	   }

	push	ebp
	mov	ebp, esp
	sub	esp, 72					; 00000048H
	push	ebx
	push	esi
	push	edi
	mov	DWORD PTR _this$[ebp], ecx
	mov	eax, DWORD PTR _this$[ebp]
	mov	ecx, DWORD PTR _v$[ebp]
	movss	xmm0, DWORD PTR [eax]
	ucomiss	xmm0, DWORD PTR [ecx]
	lahf
	test	ah, 68					; 00000044H
	jp	SHORT $LN3@operator
	mov	edx, DWORD PTR _this$[ebp]
	mov	eax, DWORD PTR _v$[ebp]
	movss	xmm0, DWORD PTR [edx+4]
	ucomiss	xmm0, DWORD PTR [eax+4]
	lahf
	test	ah, 68					; 00000044H
	jp	SHORT $LN3@operator
	mov	ecx, DWORD PTR _this$[ebp]
	mov	edx, DWORD PTR _v$[ebp]
	movss	xmm0, DWORD PTR [ecx+8]
	ucomiss	xmm0, DWORD PTR [edx+8]
	lahf
	test	ah, 68					; 00000044H
	jp	SHORT $LN3@operator
	mov	DWORD PTR tv73[ebp], 1
	jmp	SHORT $LN4@operator
$LN3@operator:
	mov	DWORD PTR tv73[ebp], 0
$LN4@operator:
	mov	eax, DWORD PTR tv73[ebp]
	pop	edi
	pop	esi
	pop	ebx
	mov	esp, ebp
	pop	ebp
	ret	4
??8Vector@@QBEHABV0@@Z ENDP				; Vector::operator==
_TEXT	ENDS
; Function compile flags: /Odtp /ZI
; File d:\!diffusion 2020\source code 2022\client-server\game_shared\vector.h
;	COMDAT ??0Vector@@QAE@ABV0@@Z
_TEXT	SEGMENT
_this$ = -4						; size = 4
_v$ = 8							; size = 4
??0Vector@@QAE@ABV0@@Z PROC				; Vector::Vector, COMDAT
; _this$ = ecx

; 145  : 	inline Vector(const Vector& v)		{ x = v.x; y = v.y; z = v.z;		   }

	push	ebp
	mov	ebp, esp
	sub	esp, 68					; 00000044H
	push	ebx
	push	esi
	push	edi
	mov	DWORD PTR _this$[ebp], ecx
	mov	eax, DWORD PTR _this$[ebp]
	mov	ecx, DWORD PTR _v$[ebp]
	mov	edx, DWORD PTR [ecx]
	mov	DWORD PTR [eax], edx
	mov	eax, DWORD PTR _this$[ebp]
	mov	ecx, DWORD PTR _v$[ebp]
	mov	edx, DWORD PTR [ecx+4]
	mov	DWORD PTR [eax+4], edx
	mov	eax, DWORD PTR _this$[ebp]
	mov	ecx, DWORD PTR _v$[ebp]
	mov	edx, DWORD PTR [ecx+8]
	mov	DWORD PTR [eax+8], edx
	mov	eax, DWORD PTR _this$[ebp]
	pop	edi
	pop	esi
	pop	ebx
	mov	esp, ebp
	pop	ebp
	ret	4
??0Vector@@QAE@ABV0@@Z ENDP				; Vector::Vector
_TEXT	ENDS
; Function compile flags: /Odtp /ZI
; File d:\!diffusion 2020\source code 2022\client-server\game_shared\vector.h
;	COMDAT ??0Vector@@QAE@MMM@Z
_TEXT	SEGMENT
_this$ = -4						; size = 4
_X$ = 8							; size = 4
_Y$ = 12						; size = 4
_Z$ = 16						; size = 4
??0Vector@@QAE@MMM@Z PROC				; Vector::Vector, COMDAT
; _this$ = ecx

; 144  : 	inline Vector(float X, float Y, float Z)	{ x = X; y = Y; z = Z;                     }

	push	ebp
	mov	ebp, esp
	sub	esp, 68					; 00000044H
	push	ebx
	push	esi
	push	edi
	mov	DWORD PTR _this$[ebp], ecx
	mov	eax, DWORD PTR _this$[ebp]
	movss	xmm0, DWORD PTR _X$[ebp]
	movss	DWORD PTR [eax], xmm0
	mov	eax, DWORD PTR _this$[ebp]
	movss	xmm0, DWORD PTR _Y$[ebp]
	movss	DWORD PTR [eax+4], xmm0
	mov	eax, DWORD PTR _this$[ebp]
	movss	xmm0, DWORD PTR _Z$[ebp]
	movss	DWORD PTR [eax+8], xmm0
	mov	eax, DWORD PTR _this$[ebp]
	pop	edi
	pop	esi
	pop	ebx
	mov	esp, ebp
	pop	ebp
	ret	12					; 0000000cH
??0Vector@@QAE@MMM@Z ENDP				; Vector::Vector
_TEXT	ENDS
; Function compile flags: /Odtp /ZI
; File d:\!diffusion 2020\source code 2022\client-server\game_shared\vector.h
;	COMDAT ??0Vector@@QAE@XZ
_TEXT	SEGMENT
_this$ = -4						; size = 4
??0Vector@@QAE@XZ PROC					; Vector::Vector, COMDAT
; _this$ = ecx

; 143  : 	inline Vector(void)				{ }

	push	ebp
	mov	ebp, esp
	sub	esp, 68					; 00000044H
	push	ebx
	push	esi
	push	edi
	mov	DWORD PTR _this$[ebp], ecx
	mov	eax, DWORD PTR _this$[ebp]
	pop	edi
	pop	esi
	pop	ebx
	mov	esp, ebp
	pop	ebp
	ret	0
??0Vector@@QAE@XZ ENDP					; Vector::Vector
_TEXT	ENDS
; Function compile flags: /Odtp /ZI
; File d:\!diffusion 2020\source code 2022\client-server\server\weapons\weapon_deagle.cpp
;	COMDAT ?__empty_global_delete@@YAXPAXI@Z
_TEXT	SEGMENT
___formal$ = 8						; size = 4
___formal$ = 12						; size = 4
?__empty_global_delete@@YAXPAXI@Z PROC			; __empty_global_delete, COMDAT

	push	ebp
	mov	ebp, esp
	sub	esp, 64					; 00000040H
	push	ebx
	push	esi
	push	edi
	pop	edi
	pop	esi
	pop	ebx
	mov	esp, ebp
	pop	ebp
	ret	0
?__empty_global_delete@@YAXPAXI@Z ENDP			; __empty_global_delete
_TEXT	ENDS
; Function compile flags: /Odtp /ZI
; File d:\!diffusion 2020\source code 2022\client-server\server\weapons\weapon_deagle.cpp
;	COMDAT ?__empty_global_delete@@YAXPAX@Z
_TEXT	SEGMENT
___formal$ = 8						; size = 4
?__empty_global_delete@@YAXPAX@Z PROC			; __empty_global_delete, COMDAT

; 290  : LINK_ENTITY_TO_CLASS( ammo_357, CPythonAmmo );

	push	ebp
	mov	ebp, esp
	sub	esp, 64					; 00000040H
	push	ebx
	push	esi
	push	edi
	pop	edi
	pop	esi
	pop	ebx
	mov	esp, ebp
	pop	ebp
	ret	0
?__empty_global_delete@@YAXPAX@Z ENDP			; __empty_global_delete
_TEXT	ENDS
; Function compile flags: /Odtp /ZI
;	COMDAT ??__G@YGXPAX0IIP6EPAX00@Z@Z
_TEXT	SEGMENT
tv66 = -68						; size = 4
___t$ = 8						; size = 4
___u$ = 12						; size = 4
___s$ = 16						; size = 4
___n$ = 20						; size = 4
___f$ = 24						; size = 4
??__G@YGXPAX0IIP6EPAX00@Z@Z PROC			; `vector copy constructor iterator', COMDAT
	push	ebp
	mov	ebp, esp
	sub	esp, 68					; 00000044H
	push	ebx
	push	esi
	push	edi
$LN2@vector:
	mov	eax, DWORD PTR ___n$[ebp]
	mov	DWORD PTR tv66[ebp], eax
	mov	ecx, DWORD PTR ___n$[ebp]
	sub	ecx, 1
	mov	DWORD PTR ___n$[ebp], ecx
	cmp	DWORD PTR tv66[ebp], 0
	jbe	SHORT $LN1@vector
	mov	eax, DWORD PTR ___u$[ebp]
	push	eax
	mov	ecx, DWORD PTR ___t$[ebp]
	call	DWORD PTR ___f$[ebp]
	mov	eax, DWORD PTR ___t$[ebp]
	add	eax, DWORD PTR ___s$[ebp]
	mov	DWORD PTR ___t$[ebp], eax
	mov	eax, DWORD PTR ___u$[ebp]
	add	eax, DWORD PTR ___s$[ebp]
	mov	DWORD PTR ___u$[ebp], eax
	jmp	SHORT $LN2@vector
$LN1@vector:
	pop	edi
	pop	esi
	pop	ebx
	mov	esp, ebp
	pop	ebp
	ret	20					; 00000014H
??__G@YGXPAX0IIP6EPAX00@Z@Z ENDP			; `vector copy constructor iterator'
_TEXT	ENDS
; Function compile flags: /Odtp /ZI
;	COMDAT ??_H@YGXPAXIIP6EPAX0@Z@Z
_TEXT	SEGMENT
tv66 = -68						; size = 4
___t$ = 8						; size = 4
___s$ = 12						; size = 4
___n$ = 16						; size = 4
___f$ = 20						; size = 4
??_H@YGXPAXIIP6EPAX0@Z@Z PROC				; `vector constructor iterator', COMDAT
	push	ebp
	mov	ebp, esp
	sub	esp, 68					; 00000044H
	push	ebx
	push	esi
	push	edi
$LN2@vector:
	mov	eax, DWORD PTR ___n$[ebp]
	mov	DWORD PTR tv66[ebp], eax
	mov	ecx, DWORD PTR ___n$[ebp]
	sub	ecx, 1
	mov	DWORD PTR ___n$[ebp], ecx
	cmp	DWORD PTR tv66[ebp], 0
	jbe	SHORT $LN1@vector
	mov	ecx, DWORD PTR ___t$[ebp]
	call	DWORD PTR ___f$[ebp]
	mov	eax, DWORD PTR ___t$[ebp]
	add	eax, DWORD PTR ___s$[ebp]
	mov	DWORD PTR ___t$[ebp], eax
	jmp	SHORT $LN2@vector
$LN1@vector:
	pop	edi
	pop	esi
	pop	ebx
	mov	esp, ebp
	pop	ebp
	ret	16					; 00000010H
??_H@YGXPAXIIP6EPAX0@Z@Z ENDP				; `vector constructor iterator'
_TEXT	ENDS
END
