; Listing generated by Microsoft (R) Optimizing Compiler Version 19.00.24247.2 

	TITLE	D:\!DIFFUSION 2020\source code 2022\client-server\server\weapons\weapons.cpp
	.686P
	.XMM
	include listing.inc
	.model	flat

INCLUDELIB LIBCMT
INCLUDELIB OLDNAMES

PUBLIC	?m_DataMap@CLaserSpot@@2Udatamap_s@@A		; CLaserSpot::m_DataMap
PUBLIC	??_C@_0L@CMBHIDNP@CWeaponBox?$AA@		; `string'
PUBLIC	??_C@_08FIGPODBE@m_rgAmmo?$AA@			; `string'
PUBLIC	??_C@_0M@KFAHOKOB@m_rgiszAmmo?$AA@		; `string'
PUBLIC	??_C@_0BB@GHEKCEGC@m_rgpPlayerItems?$AA@	; `string'
PUBLIC	??_C@_0N@JGCFPOCP@m_cAmmoTypes?$AA@		; `string'
PUBLIC	??_C@_0BG@LKPONKLB@sprites?1laserbeam?4spr?$AA@	; `string'
PUBLIC	??_C@_0L@LFKDDPKH@CLaserSpot?$AA@		; `string'
PUBLIC	?giAmmoIndex@@3HA				; giAmmoIndex
PUBLIC	??_C@_0BA@CLGFKBJP@CBasePlayerItem?$AA@		; `string'
PUBLIC	?m_DataMap@CBasePlayerItem@@2Udatamap_s@@A	; CBasePlayerItem::m_DataMap
PUBLIC	??_C@_09IEEEICLM@m_pPlayer?$AA@			; `string'
PUBLIC	??_C@_07PFAGGFGA@m_pNext?$AA@			; `string'
PUBLIC	??_C@_05HIOALKKH@m_iId?$AA@			; `string'
PUBLIC	??_C@_0BC@EHGFPLNF@CBasePlayerWeapon?$AA@	; `string'
PUBLIC	?ItemInfoArray@CBasePlayerItem@@2PAUItemInfo@@A	; CBasePlayerItem::ItemInfoArray
PUBLIC	?AmmoInfoArray@CBasePlayerItem@@2PAUAmmoInfo@@A	; CBasePlayerItem::AmmoInfoArray
PUBLIC	??_C@_0BG@IBOJPCLN@m_flNextPrimaryAttack?$AA@	; `string'
PUBLIC	??_C@_0BI@BCKKEFEG@m_flNextSecondaryAttack?$AA@	; `string'
PUBLIC	??_C@_0BD@BNHLCIGM@m_iPrimaryAmmoType?$AA@	; `string'
PUBLIC	??_C@_0BF@GEDBJCD@m_iSecondaryAmmoType?$AA@	; `string'
PUBLIC	??_C@_07CNMPLBEL@m_iClip?$AA@			; `string'
PUBLIC	??_C@_0P@NNECLEIB@m_iDefaultAmmo?$AA@		; `string'
PUBLIC	?m_DataMap@CBasePlayerWeapon@@2Udatamap_s@@A	; CBasePlayerWeapon::m_DataMap
PUBLIC	?m_DataMap@CBasePlayerAmmo@@2Udatamap_s@@A	; CBasePlayerAmmo::m_DataMap
PUBLIC	?g_sModelIndexLaser@@3FA			; g_sModelIndexLaser
PUBLIC	?g_pModelNameLaser@@3PBDB			; g_pModelNameLaser
PUBLIC	?g_sModelIndexLaserDot@@3FA			; g_sModelIndexLaserDot
PUBLIC	?g_sModelIndexFireball@@3FA			; g_sModelIndexFireball
PUBLIC	?g_sModelIndexSmoke@@3FA			; g_sModelIndexSmoke
PUBLIC	?g_sModelIndexWExplosion@@3FA			; g_sModelIndexWExplosion
PUBLIC	?g_sModelIndexBubbles@@3FA			; g_sModelIndexBubbles
PUBLIC	?g_sModelIndexBloodDrop@@3FA			; g_sModelIndexBloodDrop
PUBLIC	?g_sModelIndexBloodSpray@@3FA			; g_sModelIndexBloodSpray
PUBLIC	?g_sModelIndexFire@@3FA				; g_sModelIndexFire
PUBLIC	?g_sModelIndexMetalGibs@@3FA			; g_sModelIndexMetalGibs
PUBLIC	?g_sModelIndexSpore1@@3FA			; g_sModelIndexSpore1
PUBLIC	?g_sModelIndexSpore2@@3FA			; g_sModelIndexSpore2
PUBLIC	?g_sModelIndexSpore3@@3FA			; g_sModelIndexSpore3
PUBLIC	?g_sModelIndexBigSpit@@3FA			; g_sModelIndexBigSpit
PUBLIC	?g_sModelIndexTinySpit@@3FA			; g_sModelIndexTinySpit
PUBLIC	?g_sBlastTexture@@3FA				; g_sBlastTexture
PUBLIC	?gMultiDamage@@3UMULTIDAMAGE@@A			; gMultiDamage
PUBLIC	??_C@_0BA@KCBMBHB@CBasePlayerAmmo?$AA@		; `string'
PUBLIC	?m_DataMap@CWeaponBox@@2Udatamap_s@@A		; CWeaponBox::m_DataMap
_BSS	SEGMENT
?giAmmoIndex@@3HA DD 01H DUP (?)			; giAmmoIndex
?ItemInfoArray@CBasePlayerItem@@2PAUItemInfo@@A DB 0b00H DUP (?) ; CBasePlayerItem::ItemInfoArray
	ALIGN	8

?AmmoInfoArray@CBasePlayerItem@@2PAUAmmoInfo@@A DQ 020H DUP (?) ; CBasePlayerItem::AmmoInfoArray
?g_sModelIndexLaser@@3FA DW 01H DUP (?)			; g_sModelIndexLaser
	ALIGN	4

?g_sModelIndexLaserDot@@3FA DW 01H DUP (?)		; g_sModelIndexLaserDot
	ALIGN	4

?g_sModelIndexFireball@@3FA DW 01H DUP (?)		; g_sModelIndexFireball
	ALIGN	4

?g_sModelIndexSmoke@@3FA DW 01H DUP (?)			; g_sModelIndexSmoke
	ALIGN	4

?g_sModelIndexWExplosion@@3FA DW 01H DUP (?)		; g_sModelIndexWExplosion
	ALIGN	4

?g_sModelIndexBubbles@@3FA DW 01H DUP (?)		; g_sModelIndexBubbles
	ALIGN	4

?g_sModelIndexBloodDrop@@3FA DW 01H DUP (?)		; g_sModelIndexBloodDrop
	ALIGN	4

?g_sModelIndexBloodSpray@@3FA DW 01H DUP (?)		; g_sModelIndexBloodSpray
	ALIGN	4

?g_sModelIndexFire@@3FA DW 01H DUP (?)			; g_sModelIndexFire
	ALIGN	4

?g_sModelIndexMetalGibs@@3FA DW 01H DUP (?)		; g_sModelIndexMetalGibs
	ALIGN	4

?g_sModelIndexSpore1@@3FA DW 01H DUP (?)		; g_sModelIndexSpore1
	ALIGN	4

?g_sModelIndexSpore2@@3FA DW 01H DUP (?)		; g_sModelIndexSpore2
	ALIGN	4

?g_sModelIndexSpore3@@3FA DW 01H DUP (?)		; g_sModelIndexSpore3
	ALIGN	4

?g_sModelIndexBigSpit@@3FA DW 01H DUP (?)		; g_sModelIndexBigSpit
	ALIGN	4

?g_sModelIndexTinySpit@@3FA DW 01H DUP (?)		; g_sModelIndexTinySpit
	ALIGN	4

?g_sBlastTexture@@3FA DW 01H DUP (?)			; g_sBlastTexture
	ALIGN	4

?gMultiDamage@@3UMULTIDAMAGE@@A DB 0cH DUP (?)		; gMultiDamage
_BSS	ENDS
;	COMDAT ??_C@_0BA@KCBMBHB@CBasePlayerAmmo?$AA@
CONST	SEGMENT
??_C@_0BA@KCBMBHB@CBasePlayerAmmo?$AA@ DB 'CBasePlayerAmmo', 00H ; `string'
CONST	ENDS
;	COMDAT ??_C@_0P@NNECLEIB@m_iDefaultAmmo?$AA@
CONST	SEGMENT
??_C@_0P@NNECLEIB@m_iDefaultAmmo?$AA@ DB 'm_iDefaultAmmo', 00H ; `string'
CONST	ENDS
;	COMDAT ??_C@_07CNMPLBEL@m_iClip?$AA@
CONST	SEGMENT
??_C@_07CNMPLBEL@m_iClip?$AA@ DB 'm_iClip', 00H		; `string'
CONST	ENDS
;	COMDAT ??_C@_0BF@GEDBJCD@m_iSecondaryAmmoType?$AA@
CONST	SEGMENT
??_C@_0BF@GEDBJCD@m_iSecondaryAmmoType?$AA@ DB 'm_iSecondaryAmmoType', 00H ; `string'
CONST	ENDS
;	COMDAT ??_C@_0BD@BNHLCIGM@m_iPrimaryAmmoType?$AA@
CONST	SEGMENT
??_C@_0BD@BNHLCIGM@m_iPrimaryAmmoType?$AA@ DB 'm_iPrimaryAmmoType', 00H ; `string'
CONST	ENDS
;	COMDAT ??_C@_0BI@BCKKEFEG@m_flNextSecondaryAttack?$AA@
CONST	SEGMENT
??_C@_0BI@BCKKEFEG@m_flNextSecondaryAttack?$AA@ DB 'm_flNextSecondaryAtta'
	DB	'ck', 00H					; `string'
CONST	ENDS
;	COMDAT ??_C@_0BG@IBOJPCLN@m_flNextPrimaryAttack?$AA@
CONST	SEGMENT
??_C@_0BG@IBOJPCLN@m_flNextPrimaryAttack?$AA@ DB 'm_flNextPrimaryAttack', 00H ; `string'
CONST	ENDS
;	COMDAT ??_C@_0BC@EHGFPLNF@CBasePlayerWeapon?$AA@
CONST	SEGMENT
??_C@_0BC@EHGFPLNF@CBasePlayerWeapon?$AA@ DB 'CBasePlayerWeapon', 00H ; `string'
CONST	ENDS
;	COMDAT ??_C@_05HIOALKKH@m_iId?$AA@
CONST	SEGMENT
??_C@_05HIOALKKH@m_iId?$AA@ DB 'm_iId', 00H		; `string'
CONST	ENDS
;	COMDAT ??_C@_07PFAGGFGA@m_pNext?$AA@
CONST	SEGMENT
??_C@_07PFAGGFGA@m_pNext?$AA@ DB 'm_pNext', 00H		; `string'
CONST	ENDS
;	COMDAT ??_C@_09IEEEICLM@m_pPlayer?$AA@
CONST	SEGMENT
??_C@_09IEEEICLM@m_pPlayer?$AA@ DB 'm_pPlayer', 00H	; `string'
CONST	ENDS
;	COMDAT ??_C@_0BA@CLGFKBJP@CBasePlayerItem?$AA@
CONST	SEGMENT
??_C@_0BA@CLGFKBJP@CBasePlayerItem?$AA@ DB 'CBasePlayerItem', 00H ; `string'
CONST	ENDS
;	COMDAT ??_C@_0L@LFKDDPKH@CLaserSpot?$AA@
CONST	SEGMENT
??_C@_0L@LFKDDPKH@CLaserSpot?$AA@ DB 'CLaserSpot', 00H	; `string'
CONST	ENDS
;	COMDAT ??_C@_0BG@LKPONKLB@sprites?1laserbeam?4spr?$AA@
CONST	SEGMENT
??_C@_0BG@LKPONKLB@sprites?1laserbeam?4spr?$AA@ DB 'sprites/laserbeam.spr'
	DB	00H						; `string'
CONST	ENDS
;	COMDAT ??_C@_0N@JGCFPOCP@m_cAmmoTypes?$AA@
CONST	SEGMENT
??_C@_0N@JGCFPOCP@m_cAmmoTypes?$AA@ DB 'm_cAmmoTypes', 00H ; `string'
CONST	ENDS
;	COMDAT ??_C@_0BB@GHEKCEGC@m_rgpPlayerItems?$AA@
CONST	SEGMENT
??_C@_0BB@GHEKCEGC@m_rgpPlayerItems?$AA@ DB 'm_rgpPlayerItems', 00H ; `string'
CONST	ENDS
;	COMDAT ??_C@_0M@KFAHOKOB@m_rgiszAmmo?$AA@
CONST	SEGMENT
??_C@_0M@KFAHOKOB@m_rgiszAmmo?$AA@ DB 'm_rgiszAmmo', 00H ; `string'
CONST	ENDS
;	COMDAT ??_C@_08FIGPODBE@m_rgAmmo?$AA@
CONST	SEGMENT
??_C@_08FIGPODBE@m_rgAmmo?$AA@ DB 'm_rgAmmo', 00H	; `string'
CONST	ENDS
;	COMDAT ??_C@_0L@CMBHIDNP@CWeaponBox?$AA@
CONST	SEGMENT
??_C@_0L@CMBHIDNP@CWeaponBox?$AA@ DB 'CWeaponBox', 00H	; `string'
CONST	ENDS
_DATA	SEGMENT
?m_DataMap@CLaserSpot@@2Udatamap_s@@A DD 00H		; CLaserSpot::m_DataMap
	DD	00H
	DD	FLAT:??_C@_0L@LFKDDPKH@CLaserSpot?$AA@
	DD	00H
?dataDesc@?1???$DataMapInit@VCWeaponBox@@@@YAPAUdatamap_s@@PAVCWeaponBox@@@Z@4PAUtypedescription_s@@A DD 012H ; `DataMapInit<CWeaponBox>'::`2'::dataDesc
	DD	00H
	DD	00H
	DW	00H
	DW	00H
	DD	00H
	DD	00H
	DD	0aH
	DD	FLAT:??_C@_08FIGPODBE@m_rgAmmo?$AA@
	DD	07a4H
	DW	020H
	DW	02H
	DD	00H
	DD	00H
	DD	01H
	DD	FLAT:??_C@_0M@KFAHOKOB@m_rgiszAmmo?$AA@
	DD	0724H
	DW	020H
	DW	02H
	DD	00H
	DD	00H
	DD	03H
	DD	FLAT:??_C@_0BB@GHEKCEGC@m_rgpPlayerItems?$AA@
	DD	070cH
	DW	06H
	DW	02H
	DD	00H
	DD	00H
	DD	0aH
	DD	FLAT:??_C@_0N@JGCFPOCP@m_cAmmoTypes?$AA@
	DD	0824H
	DW	01H
	DW	02H
	DD	00H
	DD	00H
	DD	012H
	ORG $+20
?dataDesc@?1???$DataMapInit@VCLaserSpot@@@@YAPAUdatamap_s@@PAVCLaserSpot@@@Z@4PAUtypedescription_s@@A DD 012H ; `DataMapInit<CLaserSpot>'::`2'::dataDesc
	DD	00H
	DD	00H
	DW	00H
	DW	00H
	DD	00H
	DD	00H
	DD	012H
	ORG $+20
?dataDesc@?1???$DataMapInit@VCBasePlayerItem@@@@YAPAUdatamap_s@@PAVCBasePlayerItem@@@Z@4PAUtypedescription_s@@A DD 012H ; `DataMapInit<CBasePlayerItem>'::`2'::dataDesc
	DD	00H
	DD	00H
	DW	00H
	DW	00H
	DD	00H
	DD	00H
	DD	03H
	DD	FLAT:??_C@_09IEEEICLM@m_pPlayer?$AA@
	DD	0740H
	DW	01H
	DW	02H
	DD	00H
	DD	00H
	DD	03H
	DD	FLAT:??_C@_07PFAGGFGA@m_pNext?$AA@
	DD	0744H
	DW	01H
	DW	02H
	DD	00H
	DD	00H
	DD	0aH
	DD	FLAT:??_C@_05HIOALKKH@m_iId?$AA@
	DD	0748H
	DW	01H
	DW	02H
	DD	00H
	DD	00H
	DD	012H
	ORG $+116
?m_DataMap@CBasePlayerItem@@2Udatamap_s@@A DD 00H	; CBasePlayerItem::m_DataMap
	DD	00H
	DD	FLAT:??_C@_0BA@CLGFKBJP@CBasePlayerItem?$AA@
	DD	00H
?dataDesc@?1???$DataMapInit@VCBasePlayerWeapon@@@@YAPAUdatamap_s@@PAVCBasePlayerWeapon@@@Z@4PAUtypedescription_s@@A DD 012H ; `DataMapInit<CBasePlayerWeapon>'::`2'::dataDesc
	DD	00H
	DD	00H
	DW	00H
	DW	00H
	DD	00H
	DD	00H
	DD	0fH
	DD	FLAT:??_C@_0BG@IBOJPCLN@m_flNextPrimaryAttack?$AA@
	DD	075cH
	DW	01H
	DW	02H
	DD	00H
	DD	00H
	DD	0fH
	DD	FLAT:??_C@_0BI@BCKKEFEG@m_flNextSecondaryAttack?$AA@
	DD	0760H
	DW	01H
	DW	02H
	DD	00H
	DD	00H
	DD	0aH
	DD	FLAT:??_C@_0BD@BNHLCIGM@m_iPrimaryAmmoType?$AA@
	DD	0768H
	DW	01H
	DW	02H
	DD	00H
	DD	00H
	DD	0aH
	DD	FLAT:??_C@_0BF@GEDBJCD@m_iSecondaryAmmoType?$AA@
	DD	076cH
	DW	01H
	DW	02H
	DD	00H
	DD	00H
	DD	0aH
	DD	FLAT:??_C@_07CNMPLBEL@m_iClip?$AA@
	DD	0770H
	DW	01H
	DW	02H
	DD	00H
	DD	00H
	DD	0aH
	DD	FLAT:??_C@_0P@NNECLEIB@m_iDefaultAmmo?$AA@
	DD	0780H
	DW	01H
	DW	02H
	DD	00H
	DD	00H
?m_DataMap@CBasePlayerWeapon@@2Udatamap_s@@A DD 00H	; CBasePlayerWeapon::m_DataMap
	DD	00H
	DD	FLAT:??_C@_0BC@EHGFPLNF@CBasePlayerWeapon?$AA@
	DD	00H
?m_DataMap@CBasePlayerAmmo@@2Udatamap_s@@A DD 00H	; CBasePlayerAmmo::m_DataMap
	DD	00H
	DD	FLAT:??_C@_0BA@KCBMBHB@CBasePlayerAmmo?$AA@
	DD	00H
?g_pModelNameLaser@@3PBDB DD FLAT:??_C@_0BG@LKPONKLB@sprites?1laserbeam?4spr?$AA@ ; g_pModelNameLaser
?m_DataMap@CWeaponBox@@2Udatamap_s@@A DD 00H		; CWeaponBox::m_DataMap
	DD	00H
	DD	FLAT:??_C@_0L@CMBHIDNP@CWeaponBox?$AA@
	DD	00H
	ORG $+4
?dataDesc@?1???$DataMapInit@VCBasePlayerAmmo@@@@YAPAUdatamap_s@@PAVCBasePlayerAmmo@@@Z@4PAUtypedescription_s@@A DD 012H ; `DataMapInit<CBasePlayerAmmo>'::`2'::dataDesc
	DD	00H
	DD	00H
	DW	00H
	DW	00H
	DD	00H
	DD	00H
	DD	012H
	ORG $+44
_DATA	ENDS
PUBLIC	??_H@YGXPAXIIP6EPAX0@Z@Z			; `vector constructor iterator'
PUBLIC	??__G@YGXPAX0IIP6EPAX00@Z@Z			; `vector copy constructor iterator'
PUBLIC	?__empty_global_delete@@YAXPAX@Z		; __empty_global_delete
PUBLIC	?__empty_global_delete@@YAXPAXI@Z		; __empty_global_delete
PUBLIC	___local_stdio_printf_options
PUBLIC	??$__vcrt_va_start_verify_argument_type@QBD@@YAXXZ ; __vcrt_va_start_verify_argument_type<char const * const>
PUBLIC	__vsnprintf_l
PUBLIC	__vsprintf_l
PUBLIC	_sprintf
PUBLIC	??0Vector@@QAE@XZ				; Vector::Vector
PUBLIC	??0Vector@@QAE@MMM@Z				; Vector::Vector
PUBLIC	??0Vector@@QAE@ABV0@@Z				; Vector::Vector
PUBLIC	??8Vector@@QBEHABV0@@Z				; Vector::operator==
PUBLIC	??9Vector@@QBEHABV0@@Z				; Vector::operator!=
PUBLIC	??HVector@@QBE?AV0@ABV0@@Z			; Vector::operator+
PUBLIC	??DVector@@QBE?AV0@M@Z				; Vector::operator*
PUBLIC	??BVector@@QAEPAMXZ				; Vector::operator float *
PUBLIC	??BVector@@QBEPBMXZ				; Vector::operator float const *
PUBLIC	??0gametrace_s@@QAE@XZ				; gametrace_s::gametrace_s
PUBLIC	?MESSAGE_BEGIN@@YAXHHPBMPAUedict_s@@@Z		; MESSAGE_BEGIN
PUBLIC	?GET_PRIVATE@@YAPAXPAUedict_s@@@Z		; GET_PRIVATE
PUBLIC	??2@YAPAXIPAX@Z					; operator new
PUBLIC	?UtlMemory_CalcNewAllocationCount@@YAHHHHH@Z	; UtlMemory_CalcNewAllocationCount
PUBLIC	??0CDatadescGeneratedNameHolder@@QAE@PBD@Z	; CDatadescGeneratedNameHolder::CDatadescGeneratedNameHolder
PUBLIC	??1CDatadescGeneratedNameHolder@@QAE@XZ		; CDatadescGeneratedNameHolder::~CDatadescGeneratedNameHolder
PUBLIC	?GenerateName@CDatadescGeneratedNameHolder@@QAEPBDPBD@Z ; CDatadescGeneratedNameHolder::GenerateName
PUBLIC	??0?$CUtlArray@PADV?$CUtlMemory@PADH@@@@QAE@HH@Z ; CUtlArray<char *,CUtlMemory<char *,int> >::CUtlArray<char *,CUtlMemory<char *,int> >
PUBLIC	??1?$CUtlArray@PADV?$CUtlMemory@PADH@@@@QAE@XZ	; CUtlArray<char *,CUtlMemory<char *,int> >::~CUtlArray<char *,CUtlMemory<char *,int> >
PUBLIC	??A?$CUtlArray@PADV?$CUtlMemory@PADH@@@@QAEAAPADH@Z ; CUtlArray<char *,CUtlMemory<char *,int> >::operator[]
PUBLIC	?Element@?$CUtlArray@PADV?$CUtlMemory@PADH@@@@QAEAAPADH@Z ; CUtlArray<char *,CUtlMemory<char *,int> >::Element
PUBLIC	?Base@?$CUtlArray@PADV?$CUtlMemory@PADH@@@@QAEPAPADXZ ; CUtlArray<char *,CUtlMemory<char *,int> >::Base
PUBLIC	?Count@?$CUtlArray@PADV?$CUtlMemory@PADH@@@@QBEHXZ ; CUtlArray<char *,CUtlMemory<char *,int> >::Count
PUBLIC	?IsValidIndex@?$CUtlArray@PADV?$CUtlMemory@PADH@@@@QBE_NH@Z ; CUtlArray<char *,CUtlMemory<char *,int> >::IsValidIndex
PUBLIC	?AddToTail@?$CUtlArray@PADV?$CUtlMemory@PADH@@@@QAEHABQAD@Z ; CUtlArray<char *,CUtlMemory<char *,int> >::AddToTail
PUBLIC	?InsertBefore@?$CUtlArray@PADV?$CUtlMemory@PADH@@@@QAEHHABQAD@Z ; CUtlArray<char *,CUtlMemory<char *,int> >::InsertBefore
PUBLIC	?RemoveAll@?$CUtlArray@PADV?$CUtlMemory@PADH@@@@QAEXXZ ; CUtlArray<char *,CUtlMemory<char *,int> >::RemoveAll
PUBLIC	?Purge@?$CUtlArray@PADV?$CUtlMemory@PADH@@@@QAEXXZ ; CUtlArray<char *,CUtlMemory<char *,int> >::Purge
PUBLIC	?GrowVector@?$CUtlArray@PADV?$CUtlMemory@PADH@@@@IAEXH@Z ; CUtlArray<char *,CUtlMemory<char *,int> >::GrowVector
PUBLIC	?ShiftElementsRight@?$CUtlArray@PADV?$CUtlMemory@PADH@@@@IAEXHH@Z ; CUtlArray<char *,CUtlMemory<char *,int> >::ShiftElementsRight
PUBLIC	??0?$CUtlMemory@PADH@@QAE@HH@Z			; CUtlMemory<char *,int>::CUtlMemory<char *,int>
PUBLIC	??1?$CUtlMemory@PADH@@QAE@XZ			; CUtlMemory<char *,int>::~CUtlMemory<char *,int>
PUBLIC	??A?$CUtlMemory@PADH@@QAEAAPADH@Z		; CUtlMemory<char *,int>::operator[]
PUBLIC	?IsIdxValid@?$CUtlMemory@PADH@@QBE_NH@Z		; CUtlMemory<char *,int>::IsIdxValid
PUBLIC	?Base@?$CUtlMemory@PADH@@QAEPAPADXZ		; CUtlMemory<char *,int>::Base
PUBLIC	?NumAllocated@?$CUtlMemory@PADH@@QBEHXZ		; CUtlMemory<char *,int>::NumAllocated
PUBLIC	?Grow@?$CUtlMemory@PADH@@QAEXH@Z		; CUtlMemory<char *,int>::Grow
PUBLIC	?Purge@?$CUtlMemory@PADH@@QAEXXZ		; CUtlMemory<char *,int>::Purge
PUBLIC	?IsExternallyAllocated@?$CUtlMemory@PADH@@QBE_NXZ ; CUtlMemory<char *,int>::IsExternallyAllocated
PUBLIC	?IsReadOnly@?$CUtlMemory@PADH@@QBE_NXZ		; CUtlMemory<char *,int>::IsReadOnly
PUBLIC	?ValidateGrowSize@?$CUtlMemory@PADH@@IAEXXZ	; CUtlMemory<char *,int>::ValidateGrowSize
PUBLIC	?ResetDbgInfo@?$CUtlArray@PADV?$CUtlMemory@PADH@@@@IAEXXZ ; CUtlArray<char *,CUtlMemory<char *,int> >::ResetDbgInfo
PUBLIC	?MESSAGE_BEGIN@@YAXHHPBMPAUentvars_s@@@Z	; MESSAGE_BEGIN
PUBLIC	??0IEntityFactory@@QAE@XZ			; IEntityFactory::IEntityFactory
PUBLIC	?ENT@@YAPAUedict_s@@PBUentvars_s@@@Z		; ENT
PUBLIC	?ENT@@YAPAUedict_s@@H@Z				; ENT
PUBLIC	?OFFSET@@YAHPBUedict_s@@@Z			; OFFSET
PUBLIC	?OFFSET@@YAHPAUentvars_s@@@Z			; OFFSET
PUBLIC	?VARS@@YAPAUentvars_s@@PAUedict_s@@@Z		; VARS
PUBLIC	?ENTINDEX@@YAHPAUedict_s@@@Z			; ENTINDEX
PUBLIC	?FNullEnt@@YAHH@Z				; FNullEnt
PUBLIC	?FNullEnt@@YAHPBUedict_s@@@Z			; FNullEnt
PUBLIC	?FNullEnt@@YAHPAUentvars_s@@@Z			; FNullEnt
PUBLIC	?FStringNull@@YAHH@Z				; FStringNull
PUBLIC	?FStrEq@@YAHPBD0@Z				; FStrEq
PUBLIC	?FClassnameIs@@YAHPAUentvars_s@@PBD@Z		; FClassnameIs
PUBLIC	?EMIT_SOUND@@YAXPAUedict_s@@HPBDMM@Z		; EMIT_SOUND
PUBLIC	?Get@EHANDLE@@QAEPAUedict_s@@XZ			; EHANDLE::Get
PUBLIC	??BEHANDLE@@QAEHXZ				; EHANDLE::operator int
PUBLIC	??BEHANDLE@@QAEPAVCBaseEntity@@XZ		; EHANDLE::operator CBaseEntity *
PUBLIC	??CEHANDLE@@QAEPAVCBaseEntity@@XZ		; EHANDLE::operator->
PUBLIC	?GetClassname@CBaseEntity@@QAEPBDXZ		; CBaseEntity::GetClassname
PUBLIC	?SetClassname@CBaseEntity@@QAEXPBD@Z		; CBaseEntity::SetClassname
PUBLIC	?Spawn@CBaseEntity@@UAEXXZ			; CBaseEntity::Spawn
PUBLIC	?Precache@CBaseEntity@@UAEXXZ			; CBaseEntity::Precache
PUBLIC	?KeyValue@CBaseEntity@@UAEXPAUKeyValueData_s@@@Z ; CBaseEntity::KeyValue
PUBLIC	?ObjectCaps@CBaseEntity@@UAEHXZ			; CBaseEntity::ObjectCaps
PUBLIC	?Activate@CBaseEntity@@UAEXXZ			; CBaseEntity::Activate
PUBLIC	?OnChangeLevel@CBaseEntity@@UAEXXZ		; CBaseEntity::OnChangeLevel
PUBLIC	?OnTeleport@CBaseEntity@@UAEXXZ			; CBaseEntity::OnTeleport
PUBLIC	?PortalSleep@CBaseEntity@@UAEXM@Z		; CBaseEntity::PortalSleep
PUBLIC	?StartMessage@CBaseEntity@@UAEXPAVCBasePlayer@@@Z ; CBaseEntity::StartMessage
PUBLIC	?GetPosition@CBaseEntity@@UAEMXZ		; CBaseEntity::GetPosition
PUBLIC	?OnChangeParent@CBaseEntity@@UAEXXZ		; CBaseEntity::OnChangeParent
PUBLIC	?OnClearParent@CBaseEntity@@UAEXXZ		; CBaseEntity::OnClearParent
PUBLIC	?OnRemove@CBaseEntity@@UAEXXZ			; CBaseEntity::OnRemove
PUBLIC	?Classify@CBaseEntity@@UAEHXZ			; CBaseEntity::Classify
PUBLIC	?DeathNotice@CBaseEntity@@UAEXPAUentvars_s@@@Z	; CBaseEntity::DeathNotice
PUBLIC	?IsRigidBody@CBaseEntity@@UAEHXZ		; CBaseEntity::IsRigidBody
PUBLIC	?GetState@CBaseEntity@@UAE?AW4STATE@@XZ		; CBaseEntity::GetState
PUBLIC	?GetState@CBaseEntity@@UAE?AW4STATE@@PAV1@@Z	; CBaseEntity::GetState
PUBLIC	?BloodColor@CBaseEntity@@UAEHXZ			; CBaseEntity::BloodColor
PUBLIC	?IsTriggered@CBaseEntity@@UAEHPAV1@@Z		; CBaseEntity::IsTriggered
PUBLIC	?MyMonsterPointer@CBaseEntity@@UAEPAVCBaseMonster@@XZ ; CBaseEntity::MyMonsterPointer
PUBLIC	?MySquadMonsterPointer@CBaseEntity@@UAEPAVCSquadMonster@@XZ ; CBaseEntity::MySquadMonsterPointer
PUBLIC	?GetToggleState@CBaseEntity@@UAEHXZ		; CBaseEntity::GetToggleState
PUBLIC	?AddPoints@CBaseEntity@@UAEXHH@Z		; CBaseEntity::AddPoints
PUBLIC	?AddPointsToTeam@CBaseEntity@@UAEXHH@Z		; CBaseEntity::AddPointsToTeam
PUBLIC	?AddPlayerItem@CBaseEntity@@UAEHPAVCBasePlayerItem@@@Z ; CBaseEntity::AddPlayerItem
PUBLIC	?RemovePlayerItem@CBaseEntity@@UAEHPAVCBasePlayerItem@@@Z ; CBaseEntity::RemovePlayerItem
PUBLIC	?GiveAmmo@CBaseEntity@@UAEHHPADH@Z		; CBaseEntity::GiveAmmo
PUBLIC	?GetDelay@CBaseEntity@@UAEMXZ			; CBaseEntity::GetDelay
PUBLIC	?IsMoving@CBaseEntity@@UAEHXZ			; CBaseEntity::IsMoving
PUBLIC	?OverrideReset@CBaseEntity@@UAEXXZ		; CBaseEntity::OverrideReset
PUBLIC	?TransferReset@CBaseEntity@@UAEXXZ		; CBaseEntity::TransferReset
PUBLIC	?SetToggleState@CBaseEntity@@UAEXH@Z		; CBaseEntity::SetToggleState
PUBLIC	?StartSneaking@CBaseEntity@@UAEXXZ		; CBaseEntity::StartSneaking
PUBLIC	?StopSneaking@CBaseEntity@@UAEXXZ		; CBaseEntity::StopSneaking
PUBLIC	?OnControls@CBaseEntity@@UAEHPAV1@@Z		; CBaseEntity::OnControls
PUBLIC	?IsSneaking@CBaseEntity@@UAEHXZ			; CBaseEntity::IsSneaking
PUBLIC	?IsAlive@CBaseEntity@@UAEHXZ			; CBaseEntity::IsAlive
PUBLIC	?IsBSPModel@CBaseEntity@@UAEHXZ			; CBaseEntity::IsBSPModel
PUBLIC	?IsCustomModel@CBaseEntity@@UAEHXZ		; CBaseEntity::IsCustomModel
PUBLIC	?ReflectGauss@CBaseEntity@@UAEHXZ		; CBaseEntity::ReflectGauss
PUBLIC	?HasTarget@CBaseEntity@@UAEHH@Z			; CBaseEntity::HasTarget
PUBLIC	?IsPlayer@CBaseEntity@@UAEHXZ			; CBaseEntity::IsPlayer
PUBLIC	?IsNetClient@CBaseEntity@@UAEHXZ		; CBaseEntity::IsNetClient
PUBLIC	?IsMonster@CBaseEntity@@UAEHXZ			; CBaseEntity::IsMonster
PUBLIC	?IsPushable@CBaseEntity@@UAEHXZ			; CBaseEntity::IsPushable
PUBLIC	?IsProjectile@CBaseEntity@@UAEHXZ		; CBaseEntity::IsProjectile
PUBLIC	?IsFuncScreen@CBaseEntity@@UAEHXZ		; CBaseEntity::IsFuncScreen
PUBLIC	?IsPortal@CBaseEntity@@UAEHXZ			; CBaseEntity::IsPortal
PUBLIC	?IsTank@CBaseEntity@@UAEHXZ			; CBaseEntity::IsTank
PUBLIC	?IsMover@CBaseEntity@@UAEHXZ			; CBaseEntity::IsMover
PUBLIC	?IsBreakable@CBaseEntity@@UAEHXZ		; CBaseEntity::IsBreakable
PUBLIC	?TeamID@CBaseEntity@@UAEPBDXZ			; CBaseEntity::TeamID
PUBLIC	?AddSpawnFlags@CBaseEntity@@UAEXH@Z		; CBaseEntity::AddSpawnFlags
PUBLIC	?HasSpawnFlags@CBaseEntity@@UBE_NH@Z		; CBaseEntity::HasSpawnFlags
PUBLIC	?SetFadeDistance@CBaseEntity@@UAEXH@Z		; CBaseEntity::SetFadeDistance
PUBLIC	?SetFlag@CBaseEntity@@UAEXH@Z			; CBaseEntity::SetFlag
PUBLIC	?HasFlag@CBaseEntity@@UBE_NH@Z			; CBaseEntity::HasFlag
PUBLIC	?RemoveFlag@CBaseEntity@@UAEXH@Z		; CBaseEntity::RemoveFlag
PUBLIC	?SetNullModel@CBaseEntity@@UAEXXZ		; CBaseEntity::SetNullModel
PUBLIC	?OnPickupObject@CBaseEntity@@UAEXXZ		; CBaseEntity::OnPickupObject
PUBLIC	?OnDropObject@CBaseEntity@@UAEXXZ		; CBaseEntity::OnDropObject
PUBLIC	?Think@CBaseEntity@@UAEXXZ			; CBaseEntity::Think
PUBLIC	?Use@CBaseEntity@@UAEXPAV1@0W4USE_TYPE@@M@Z	; CBaseEntity::Use
PUBLIC	?Touch@CBaseEntity@@UAEXPAV1@@Z			; CBaseEntity::Touch
PUBLIC	?Blocked@CBaseEntity@@UAEXPAV1@@Z		; CBaseEntity::Blocked
PUBLIC	?MoveDone@CBaseEntity@@UAEXXZ			; CBaseEntity::MoveDone
PUBLIC	??2CBaseEntity@@SAPAXIPAUentvars_s@@@Z		; CBaseEntity::operator new
PUBLIC	??3CBaseEntity@@SAXPAXPAUentvars_s@@@Z		; CBaseEntity::operator delete
PUBLIC	?Respawn@CBaseEntity@@UAEPAV1@XZ		; CBaseEntity::Respawn
PUBLIC	?Instance@CBaseEntity@@SAPAV1@PAUedict_s@@@Z	; CBaseEntity::Instance
PUBLIC	?FunctionCheck@CBaseEntity@@QAEXPAXPAD@Z	; CBaseEntity::FunctionCheck
PUBLIC	?ThinkSet@CBaseEntity@@QAEP81@AEXXZP81@AEXXZPAD@Z ; CBaseEntity::ThinkSet
PUBLIC	?TouchSet@CBaseEntity@@QAEP81@AEXPAV1@@ZP81@AEX0@ZPAD@Z ; CBaseEntity::TouchSet
PUBLIC	?UpdateOwner@CBaseEntity@@UAEXXZ		; CBaseEntity::UpdateOwner
PUBLIC	?FBecomeProne@CBaseEntity@@UAEHXZ		; CBaseEntity::FBecomeProne
PUBLIC	?edict@CBaseEntity@@QAEPAUedict_s@@XZ		; CBaseEntity::edict
PUBLIC	?Center@CBaseEntity@@UAE?AVVector@@XZ		; CBaseEntity::Center
PUBLIC	?EyePosition@CBaseEntity@@UAE?AVVector@@XZ	; CBaseEntity::EyePosition
PUBLIC	?EarPosition@CBaseEntity@@UAE?AVVector@@XZ	; CBaseEntity::EarPosition
PUBLIC	?BodyTarget@CBaseEntity@@UAE?AVVector@@ABV2@@Z	; CBaseEntity::BodyTarget
PUBLIC	?IsPointSized@CBaseEntity@@UBEHXZ		; CBaseEntity::IsPointSized
PUBLIC	?Illumination@CBaseEntity@@UAEHXZ		; CBaseEntity::Illumination
PUBLIC	??0CBaseEntity@@QAE@XZ				; CBaseEntity::CBaseEntity
PUBLIC	?AddWeapon@CBaseMonster@@QAEXH@Z		; CBaseMonster::AddWeapon
PUBLIC	?IsObserver@CBasePlayer@@QAEHXZ			; CBasePlayer::IsObserver
PUBLIC	?EjectBrass@@YAXABVVector@@0MHH@Z		; EjectBrass
PUBLIC	?PlayPickupSound@@YAXPAVCBaseEntity@@H@Z	; PlayPickupSound
PUBLIC	?MakeWeaponShake@@YAXPAVCBaseEntity@@HH@Z	; MakeWeaponShake
PUBLIC	?PlayClientSound@@YAXPAVCBaseEntity@@HHHVVector@@@Z ; PlayClientSound
PUBLIC	?SetObjectCollisionBox@CBasePlayerItem@@UAEXXZ	; CBasePlayerItem::SetObjectCollisionBox
PUBLIC	?GetBaseMap@CBasePlayerItem@@SAPAUdatamap_s@@XZ	; CBasePlayerItem::GetBaseMap
PUBLIC	?GetDataDescMap@CBasePlayerItem@@UAEPAUdatamap_s@@XZ ; CBasePlayerItem::GetDataDescMap
PUBLIC	?AddToPlayer@CBasePlayerItem@@UAEHPAVCBasePlayer@@@Z ; CBasePlayerItem::AddToPlayer
PUBLIC	?DestroyItem@CBasePlayerItem@@QAEXXZ		; CBasePlayerItem::DestroyItem
PUBLIC	?DefaultTouch@CBasePlayerItem@@QAEXPAVCBaseEntity@@@Z ; CBasePlayerItem::DefaultTouch
PUBLIC	?FallThink@CBasePlayerItem@@QAEXXZ		; CBasePlayerItem::FallThink
PUBLIC	?Materialize@CBasePlayerItem@@QAEXXZ		; CBasePlayerItem::Materialize
PUBLIC	?AttemptToMaterialize@CBasePlayerItem@@QAEXXZ	; CBasePlayerItem::AttemptToMaterialize
PUBLIC	?Respawn@CBasePlayerItem@@UAEPAVCBaseEntity@@XZ	; CBasePlayerItem::Respawn
PUBLIC	?FallInit@CBasePlayerItem@@QAEXXZ		; CBasePlayerItem::FallInit
PUBLIC	?CheckRespawn@CBasePlayerItem@@QAEXXZ		; CBasePlayerItem::CheckRespawn
PUBLIC	?Holster@CBasePlayerItem@@UAEXXZ		; CBasePlayerItem::Holster
PUBLIC	?Drop@CBasePlayerItem@@UAEXXZ			; CBasePlayerItem::Drop
PUBLIC	?Kill@CBasePlayerItem@@UAEXXZ			; CBasePlayerItem::Kill
PUBLIC	?AttachToPlayer@CBasePlayerItem@@UAEXPAVCBasePlayer@@@Z ; CBasePlayerItem::AttachToPlayer
PUBLIC	?pszAmmo1@CBasePlayerItem@@QAEPBDXZ		; CBasePlayerItem::pszAmmo1
PUBLIC	?iMaxAmmo1@CBasePlayerItem@@QAEHXZ		; CBasePlayerItem::iMaxAmmo1
PUBLIC	?pszAmmo2@CBasePlayerItem@@QAEPBDXZ		; CBasePlayerItem::pszAmmo2
PUBLIC	?iMaxAmmo2@CBasePlayerItem@@QAEHXZ		; CBasePlayerItem::iMaxAmmo2
PUBLIC	?iMaxClip@CBasePlayerItem@@QAEHXZ		; CBasePlayerItem::iMaxClip
PUBLIC	?iFlags@CBasePlayerItem@@QAEHXZ			; CBasePlayerItem::iFlags
PUBLIC	?GetBaseMap@CBasePlayerWeapon@@SAPAUdatamap_s@@XZ ; CBasePlayerWeapon::GetBaseMap
PUBLIC	?GetDataDescMap@CBasePlayerWeapon@@UAEPAUdatamap_s@@XZ ; CBasePlayerWeapon::GetDataDescMap
PUBLIC	?AddToPlayer@CBasePlayerWeapon@@UAEHPAVCBasePlayer@@@Z ; CBasePlayerWeapon::AddToPlayer
PUBLIC	?AddDuplicate@CBasePlayerWeapon@@UAEHPAVCBasePlayerItem@@@Z ; CBasePlayerWeapon::AddDuplicate
PUBLIC	?ExtractAmmo@CBasePlayerWeapon@@UAEHPAV1@@Z	; CBasePlayerWeapon::ExtractAmmo
PUBLIC	?ExtractClipAmmo@CBasePlayerWeapon@@UAEHPAV1@@Z	; CBasePlayerWeapon::ExtractClipAmmo
PUBLIC	?AddPrimaryAmmo@CBasePlayerWeapon@@QAEHHPADHH@Z	; CBasePlayerWeapon::AddPrimaryAmmo
PUBLIC	?AddSecondaryAmmo@CBasePlayerWeapon@@QAEHHPADH@Z ; CBasePlayerWeapon::AddSecondaryAmmo
PUBLIC	?PlayEmptySound@CBasePlayerWeapon@@UAEHXZ	; CBasePlayerWeapon::PlayEmptySound
PUBLIC	?ResetEmptySound@CBasePlayerWeapon@@UAEXXZ	; CBasePlayerWeapon::ResetEmptySound
PUBLIC	?SendWeaponAnim@CBasePlayerWeapon@@UAEXHHH@Z	; CBasePlayerWeapon::SendWeaponAnim
PUBLIC	?CanDeploy@CBasePlayerWeapon@@UAEHXZ		; CBasePlayerWeapon::CanDeploy
PUBLIC	?IsUseable@CBasePlayerWeapon@@UAEHXZ		; CBasePlayerWeapon::IsUseable
PUBLIC	?DefaultDeploy@CBasePlayerWeapon@@QAEHPAD0H0HH@Z ; CBasePlayerWeapon::DefaultDeploy
PUBLIC	?DefaultReload@CBasePlayerWeapon@@QAEHHHMH@Z	; CBasePlayerWeapon::DefaultReload
PUBLIC	?ItemPostFrame@CBasePlayerWeapon@@UAEXXZ	; CBasePlayerWeapon::ItemPostFrame
PUBLIC	?UpdateClientData@CBasePlayerWeapon@@UAEHPAVCBasePlayer@@@Z ; CBasePlayerWeapon::UpdateClientData
PUBLIC	?RetireWeapon@CBasePlayerWeapon@@UAEXXZ		; CBasePlayerWeapon::RetireWeapon
PUBLIC	?Holster@CBasePlayerWeapon@@UAEXXZ		; CBasePlayerWeapon::Holster
PUBLIC	?LowAmmoMsg@CBasePlayerWeapon@@UAEXPAVCBasePlayer@@@Z ; CBasePlayerWeapon::LowAmmoMsg
PUBLIC	?PrimaryAmmoIndex@CBasePlayerWeapon@@UAEHXZ	; CBasePlayerWeapon::PrimaryAmmoIndex
PUBLIC	?SecondaryAmmoIndex@CBasePlayerWeapon@@UAEHXZ	; CBasePlayerWeapon::SecondaryAmmoIndex
PUBLIC	?PrintState@CBasePlayerWeapon@@QAEXXZ		; CBasePlayerWeapon::PrintState
PUBLIC	?Spawn@CBasePlayerAmmo@@UAEXXZ			; CBasePlayerAmmo::Spawn
PUBLIC	?DefaultTouch@CBasePlayerAmmo@@QAEXPAVCBaseEntity@@@Z ; CBasePlayerAmmo::DefaultTouch
PUBLIC	?Respawn@CBasePlayerAmmo@@UAEPAVCBaseEntity@@XZ	; CBasePlayerAmmo::Respawn
PUBLIC	?Materialize@CBasePlayerAmmo@@QAEXXZ		; CBasePlayerAmmo::Materialize
PUBLIC	?GetBaseMap@CBasePlayerAmmo@@SAPAUdatamap_s@@XZ	; CBasePlayerAmmo::GetBaseMap
PUBLIC	?GetDataDescMap@CBasePlayerAmmo@@UAEPAUdatamap_s@@XZ ; CBasePlayerAmmo::GetDataDescMap
PUBLIC	?ClearMultiDamage@@YAXXZ			; ClearMultiDamage
PUBLIC	?ApplyMultiDamage@@YAXPAUentvars_s@@0@Z		; ApplyMultiDamage
PUBLIC	?AddMultiDamage@@YAXPAUentvars_s@@PAVCBaseEntity@@MH@Z ; AddMultiDamage
PUBLIC	?DecalGunshot@@YAXPAUgametrace_s@@H@Z		; DecalGunshot
PUBLIC	?SpawnBlood@@YAXVVector@@HM@Z			; SpawnBlood
PUBLIC	?DamageDecal@@YAHPAVCBaseEntity@@H@Z		; DamageDecal
PUBLIC	?Precache@CWeaponBox@@EAEXXZ			; CWeaponBox::Precache
PUBLIC	?Spawn@CWeaponBox@@EAEXXZ			; CWeaponBox::Spawn
PUBLIC	?Touch@CWeaponBox@@EAEXPAVCBaseEntity@@@Z	; CWeaponBox::Touch
PUBLIC	?KeyValue@CWeaponBox@@EAEXPAUKeyValueData_s@@@Z	; CWeaponBox::KeyValue
PUBLIC	?IsEmpty@CWeaponBox@@AAEHXZ			; CWeaponBox::IsEmpty
PUBLIC	?GiveAmmo@CWeaponBox@@AAEHHPADHPAH@Z		; CWeaponBox::GiveAmmo
PUBLIC	?SetObjectCollisionBox@CWeaponBox@@EAEXXZ	; CWeaponBox::SetObjectCollisionBox
PUBLIC	?Kill@CWeaponBox@@QAEXXZ			; CWeaponBox::Kill
PUBLIC	?GetBaseMap@CWeaponBox@@SAPAUdatamap_s@@XZ	; CWeaponBox::GetBaseMap
PUBLIC	?GetDataDescMap@CWeaponBox@@UAEPAUdatamap_s@@XZ	; CWeaponBox::GetDataDescMap
PUBLIC	?HasWeapon@CWeaponBox@@QAEHPAVCBasePlayerItem@@@Z ; CWeaponBox::HasWeapon
PUBLIC	?PackWeapon@CWeaponBox@@QAEHPAVCBasePlayerItem@@@Z ; CWeaponBox::PackWeapon
PUBLIC	?PackAmmo@CWeaponBox@@QAEHHH@Z			; CWeaponBox::PackAmmo
PUBLIC	??0CWeaponBox@@QAE@XZ				; CWeaponBox::CWeaponBox
PUBLIC	?Spawn@CLaserSpot@@EAEXXZ			; CLaserSpot::Spawn
PUBLIC	?Precache@CLaserSpot@@EAEXXZ			; CLaserSpot::Precache
PUBLIC	?ObjectCaps@CLaserSpot@@EAEHXZ			; CLaserSpot::ObjectCaps
PUBLIC	?Suspend@CLaserSpot@@QAEXM@Z			; CLaserSpot::Suspend
PUBLIC	?Revive@CLaserSpot@@QAEXXZ			; CLaserSpot::Revive
PUBLIC	?GetBaseMap@CLaserSpot@@SAPAUdatamap_s@@XZ	; CLaserSpot::GetBaseMap
PUBLIC	?GetDataDescMap@CLaserSpot@@UAEPAUdatamap_s@@XZ	; CLaserSpot::GetDataDescMap
PUBLIC	?CreateSpot@CLaserSpot@@SAPAV1@XZ		; CLaserSpot::CreateSpot
PUBLIC	??0CLaserSpot@@QAE@XZ				; CLaserSpot::CLaserSpot
PUBLIC	?MaxAmmoCarry@@YAHH@Z				; MaxAmmoCarry
PUBLIC	?AddAmmoNameToAmmoRegistry@@YAXPBD@Z		; AddAmmoNameToAmmoRegistry
PUBLIC	?UTIL_PrecacheOtherWeapon@@YAXPBD@Z		; UTIL_PrecacheOtherWeapon
PUBLIC	?W_Precache@@YAXXZ				; W_Precache
PUBLIC	??$DataMapAccess@VCBaseAnimating@@@@YAXPAVCBaseAnimating@@PAPAUdatamap_s@@@Z ; DataMapAccess<CBaseAnimating>
PUBLIC	??$DataMapInit@VCBasePlayerItem@@@@YAPAUdatamap_s@@PAVCBasePlayerItem@@@Z ; DataMapInit<CBasePlayerItem>
PUBLIC	??$DataMapAccess@VCBasePlayerItem@@@@YAXPAVCBasePlayerItem@@PAPAUdatamap_s@@@Z ; DataMapAccess<CBasePlayerItem>
PUBLIC	??$DataMapInit@VCBasePlayerWeapon@@@@YAPAUdatamap_s@@PAVCBasePlayerWeapon@@@Z ; DataMapInit<CBasePlayerWeapon>
PUBLIC	??_9CBasePlayerItem@@$BBKI@AE			; CBasePlayerItem::`vcall'{424}'
PUBLIC	?CanAttack@@YAHMMH@Z				; CanAttack
PUBLIC	??$DataMapAccess@VCBaseEntity@@@@YAXPAVCBaseEntity@@PAPAUdatamap_s@@@Z ; DataMapAccess<CBaseEntity>
PUBLIC	??$DataMapInit@VCBasePlayerAmmo@@@@YAPAUdatamap_s@@PAVCBasePlayerAmmo@@@Z ; DataMapInit<CBasePlayerAmmo>
PUBLIC	??0?$CEntityFactory@VCWeaponBox@@@@QAE@PBD@Z	; CEntityFactory<CWeaponBox>::CEntityFactory<CWeaponBox>
PUBLIC	?Create@?$CEntityFactory@VCWeaponBox@@@@UAEPAVCBaseEntity@@PBDPAUentvars_s@@@Z ; CEntityFactory<CWeaponBox>::Create
PUBLIC	?Destroy@?$CEntityFactory@VCWeaponBox@@@@UAEXPAVCBaseEntity@@@Z ; CEntityFactory<CWeaponBox>::Destroy
PUBLIC	?GetEntitySize@?$CEntityFactory@VCWeaponBox@@@@UAEIXZ ; CEntityFactory<CWeaponBox>::GetEntitySize
PUBLIC	??$DataMapInit@VCWeaponBox@@@@YAPAUdatamap_s@@PAVCWeaponBox@@@Z ; DataMapInit<CWeaponBox>
PUBLIC	??$DataMapInit@VCLaserSpot@@@@YAPAUdatamap_s@@PAVCLaserSpot@@@Z ; DataMapInit<CLaserSpot>
PUBLIC	??$GetClassPtr@VCLaserSpot@@@@YAPAVCLaserSpot@@PAV0@@Z ; GetClassPtr<CLaserSpot>
PUBLIC	??0?$CEntityFactory@VCLaserSpot@@@@QAE@PBD@Z	; CEntityFactory<CLaserSpot>::CEntityFactory<CLaserSpot>
PUBLIC	?Create@?$CEntityFactory@VCLaserSpot@@@@UAEPAVCBaseEntity@@PBDPAUentvars_s@@@Z ; CEntityFactory<CLaserSpot>::Create
PUBLIC	?Destroy@?$CEntityFactory@VCLaserSpot@@@@UAEXPAVCBaseEntity@@@Z ; CEntityFactory<CLaserSpot>::Destroy
PUBLIC	?GetEntitySize@?$CEntityFactory@VCLaserSpot@@@@UAEIXZ ; CEntityFactory<CLaserSpot>::GetEntitySize
PUBLIC	??$GetClassPtr@VCLaserSpot@@@@YAPAVCLaserSpot@@PAV0@PBD@Z ; GetClassPtr<CLaserSpot>
PUBLIC	??$GetClassPtr@VCWeaponBox@@@@YAPAVCWeaponBox@@PAV0@PBD@Z ; GetClassPtr<CWeaponBox>
PUBLIC	??$CopyConstruct@PAD@@YAXPAPADABQAD@Z		; CopyConstruct<char *>
PUBLIC	??$Destruct@PAD@@YAXPAPAD@Z			; Destruct<char *>
PUBLIC	?_OptionsStorage@?1??__local_stdio_printf_options@@9@4_KA ; `__local_stdio_printf_options'::`2'::_OptionsStorage
PUBLIC	??_C@_00CNPNBAHC@?$AA@				; `string'
PUBLIC	??_C@_04EFCDBJNL@?$CFs?3?3?$AA@			; `string'
PUBLIC	??_7IEntityFactory@@6B@				; IEntityFactory::`vftable'
PUBLIC	??_C@_0BF@CPEPILID@Bad?5ent?5in?5OFFSET?$CI?$CJ?6?$AA@ ; `string'
PUBLIC	??_C@_0BF@DOONGEFO@Bad?5pev?5in?5OFFSET?$CI?$CJ?6?$AA@ ; `string'
PUBLIC	??_7CBaseEntity@@6B@				; CBaseEntity::`vftable'
PUBLIC	??_C@_06MLKDMCBD@parent?$AA@			; `string'
PUBLIC	??_C@_08JJJAOBDI@movewith?$AA@			; `string'
PUBLIC	??_C@_0M@EAELDHJO@parentflags?$AA@		; `string'
PUBLIC	??_C@_05IAKJCFIM@style?$AA@			; `string'
PUBLIC	??_C@_0L@IKCANML@reflection?$AA@		; `string'
PUBLIC	??_C@_0N@JILDNHAP@vlight_cache?$AA@		; `string'
PUBLIC	??_C@_0L@JIJDCONP@customname?$AA@		; `string'
PUBLIC	??_C@_0CH@HELFJPDL@FUNCTION?5NOT?5IN?5TABLE?$CB?3?5?$CFs?3?$CFs?5?$CI?$CF@ ; `string'
PUBLIC	??_C@_0BB@EMJBJDBM@sprites?1null?4spr?$AA@	; `string'
PUBLIC	??_C@_0BJ@EIFNLFLK@?$CGCBaseEntity?3?3SUB_Remove?$AA@ ; `string'
PUBLIC	??_7CWeaponBox@@6B@				; CWeaponBox::`vftable'
PUBLIC	??_7CLaserSpot@@6B@				; CLaserSpot::`vftable'
PUBLIC	??_C@_0CI@BEIKHBNH@MaxAmmoCarry?$CI?$CJ?5doesn?8t?5recognize@ ; `string'
PUBLIC	?__LINE__Var@?0??AddAmmoNameToAmmoRegistry@@YAXPBD@Z@4JA ; `AddAmmoNameToAmmoRegistry'::`1'::__LINE__Var
PUBLIC	??_C@_0EN@KEDJBJDH@d?3?2?$CBdiffusion?52020?2source?5code?52@ ; `string'
PUBLIC	??_C@_0BN@PGDBFCCH@giAmmoIndex?5?$DM?5MAX_AMMO_SLOTS?$AA@ ; `string'
PUBLIC	??_C@_0CG@PAFNIJCC@NULL?5Ent?5in?5UTIL_PrecacheOtherWe@ ; `string'
PUBLIC	??_C@_09PNLMJFNO@item_suit?$AA@			; `string'
PUBLIC	??_C@_0P@ILAKNOAG@weapon_shotgun?$AA@		; `string'
PUBLIC	??_C@_0BC@OCDMEOEA@weapon_shotgun_xm?$AA@	; `string'
PUBLIC	??_C@_0O@ENPHGKLB@ammo_buckshot?$AA@		; `string'
PUBLIC	??_C@_0N@CFAHNHDH@weapon_knife?$AA@		; `string'
PUBLIC	??_C@_0BC@GDALAHJA@weapon_9mmhandgun?$AA@	; `string'
PUBLIC	??_C@_0N@IAIGGIKN@ammo_9mmclip?$AA@		; `string'
PUBLIC	??_C@_0N@BIGGDBN@weapon_9mmAR?$AA@		; `string'
PUBLIC	??_C@_0L@CCAPNHPH@ammo_9mmAR?$AA@		; `string'
PUBLIC	??_C@_0BA@KLCOFANC@ammo_ARgrenades?$AA@		; `string'
PUBLIC	??_C@_0L@DGJNBIBM@weapon_357?$AA@		; `string'
PUBLIC	??_C@_08OALJNDGM@ammo_357?$AA@			; `string'
PUBLIC	??_C@_0BB@PMMHEOKD@weapon_gausniper?$AA@	; `string'
PUBLIC	??_C@_0P@BLGPJBGG@ammo_gaussclip?$AA@		; `string'
PUBLIC	??_C@_0L@NJNPDFDL@weapon_rpg?$AA@		; `string'
PUBLIC	??_C@_0N@FDODGIHO@ammo_rpgclip?$AA@		; `string'
PUBLIC	??_C@_0BA@IMEECLKD@weapon_crossbow?$AA@		; `string'
PUBLIC	??_C@_0O@DMPMCOMO@ammo_crossbow?$AA@		; `string'
PUBLIC	??_C@_0BA@NAEGPHIJ@weapon_tripmine?$AA@		; `string'
PUBLIC	??_C@_0P@NDDAPDLL@weapon_satchel?$AA@		; `string'
PUBLIC	??_C@_0BD@DKJAMAOF@weapon_handgrenade?$AA@	; `string'
PUBLIC	??_C@_0L@FPDLLADF@weapon_ar2?$AA@		; `string'
PUBLIC	??_C@_0N@FKDJBBAF@weapon_drone?$AA@		; `string'
PUBLIC	??_C@_0O@CJMKLEPM@weapon_sentry?$AA@		; `string'
PUBLIC	??_C@_0N@EGABDPCI@weapon_hkmp5?$AA@		; `string'
PUBLIC	??_C@_0BB@JLPINHFH@weapon_fiveseven?$AA@	; `string'
PUBLIC	??_C@_0O@IENCGDEG@weapon_sniper?$AA@		; `string'
PUBLIC	??_C@_0M@LDNNKFND@weapon_g36c?$AA@		; `string'
PUBLIC	??_C@_09ENPIJEF@weaponbox?$AA@			; `string'
PUBLIC	??_C@_0BI@OKNOKJPL@sprites?1zerogxplode?4spr?$AA@ ; `string'
PUBLIC	??_C@_0BD@PKIKCPOP@sprites?1WXplo1?4spr?$AA@	; `string'
PUBLIC	??_C@_0BD@HDGDDDCC@sprites?1steam1?4spr?$AA@	; `string'
PUBLIC	??_C@_0BD@CIFPGIGI@sprites?1bubble?4spr?$AA@	; `string'
PUBLIC	??_C@_0BH@KCADAOLD@sprites?1bloodspray?4spr?$AA@ ; `string'
PUBLIC	??_C@_0BC@NDANIGIC@sprites?1blood?4spr?$AA@	; `string'
PUBLIC	??_C@_0BC@MCDECAEM@sprites?1fire3?4spr?$AA@	; `string'
PUBLIC	??_C@_0BJ@CKJPBHMC@models?1npc?1dronegibs?4mdl?$AA@ ; `string'
PUBLIC	??_C@_0BF@LHKHEIDI@sprites?1laserdot?4spr?$AA@	; `string'
PUBLIC	??_C@_0BF@ILAFLNHD@sprites?1tinyspit?4spr?$AA@	; `string'
PUBLIC	??_C@_0BG@BLGGLBDG@sprites?1shockwave?4spr?$AA@	; `string'
PUBLIC	??_C@_0BD@HNJLMAMD@models?1grenade?4mdl?$AA@	; `string'
PUBLIC	??_C@_0BF@GCBOLJMB@sprites?1explode1?4spr?$AA@	; `string'
PUBLIC	??_C@_0BE@JJJKAAPC@weapons?1debris1?4wav?$AA@	; `string'
PUBLIC	??_C@_0BE@BPAOHCFM@weapons?1debris2?4wav?$AA@	; `string'
PUBLIC	??_C@_0BE@NEFCKBPJ@weapons?1debris3?4wav?$AA@	; `string'
PUBLIC	??_C@_0BJ@EONCICHB@weapons?1grenade_hit1?4wav?$AA@ ; `string'
PUBLIC	??_C@_0BJ@MIEGPANP@weapons?1grenade_hit2?4wav?$AA@ ; `string'
PUBLIC	??_C@_0BJ@DBKCDHK@weapons?1grenade_hit3?4wav?$AA@ ; `string'
PUBLIC	??_C@_0BI@EOPFENC@weapons?1bullet_hit1?4wav?$AA@ ; `string'
PUBLIC	??_C@_0BI@ICHLCGHM@weapons?1bullet_hit2?4wav?$AA@ ; `string'
PUBLIC	??_C@_0BG@CGGPMCHD@items?1weapondrop1?4wav?$AA@	; `string'
PUBLIC	??_C@_0BO@JJIOHFDC@weapons?1splauncher_impact?4wav?$AA@ ; `string'
PUBLIC	?g_DataMapHolder@CBasePlayerItem_DataDescInit@@3PAUdatamap_s@@A ; CBasePlayerItem_DataDescInit::g_DataMapHolder
PUBLIC	??_C@_0M@LGKKMEBN@DestroyItem?$AA@		; `string'
PUBLIC	??_C@_0N@KJHEMDDO@DefaultTouch?$AA@		; `string'
PUBLIC	??_C@_09LDKIHMEO@FallThink?$AA@			; `string'
PUBLIC	??_C@_0M@DKBJDEPK@Materialize?$AA@		; `string'
PUBLIC	??_C@_0BF@FNHCPPFE@AttemptToMaterialize?$AA@	; `string'
PUBLIC	?g_DataMapHolder@CBasePlayerWeapon_DataDescInit@@3PAUdatamap_s@@A ; CBasePlayerWeapon_DataDescInit::g_DataMapHolder
PUBLIC	??_C@_0BP@KLPMAHLN@?$CGCBasePlayerItem?3?3DefaultTouch?$AA@ ; `string'
PUBLIC	??_C@_0BM@IMJCHABI@?$CGCBasePlayerItem?3?3FallThink?$AA@ ; `string'
PUBLIC	??_C@_0BI@KOCMOAHK@items?1suitchargeok1?4wav?$AA@ ; `string'
PUBLIC	??_C@_04HIBGFPH@NULL?$AA@			; `string'
PUBLIC	??_C@_0BH@OEELEOCP@?$CGCBasePlayerItem?3?3Kill?$AA@ ; `string'
PUBLIC	??_C@_0CH@DALHADCA@?$CGCBasePlayerItem?3?3AttemptToMater@ ; `string'
PUBLIC	??_C@_0BO@FBKEEOOJ@Respawn?5failed?5to?5create?5?$CFs?$CB?6?$AA@ ; `string'
PUBLIC	??_C@_0DF@FFENENKD@DefaultDeploy?3?5Got?50?5at?5m_szAnim@ ; `string'
PUBLIC	??_C@_0BG@FDJOBCGH@weapons?1357_cock1?4wav?$AA@	; `string'
PUBLIC	??_C@_0N@IBIPEELC@UTIL_LOWAMMO?$AA@		; `string'
PUBLIC	?g_DataMapHolder@CBasePlayerAmmo_DataDescInit@@3PAUdatamap_s@@A ; CBasePlayerAmmo_DataDescInit::g_DataMapHolder
PUBLIC	??_C@_0BP@BFENDEDA@?$CGCBasePlayerAmmo?3?3DefaultTouch?$AA@ ; `string'
PUBLIC	??_C@_0BO@GFGNCAEL@?$CGCBasePlayerAmmo?3?3Materialize?$AA@ ; `string'
PUBLIC	??_7?$CEntityFactory@VCWeaponBox@@@@6B@		; CEntityFactory<CWeaponBox>::`vftable'
PUBLIC	?g_DataMapHolder@CWeaponBox_DataDescInit@@3PAUdatamap_s@@A ; CWeaponBox_DataDescInit::g_DataMapHolder
PUBLIC	??_C@_04NIFFMPNM@Kill?$AA@			; `string'
PUBLIC	??_C@_0BH@BOHLGHCG@models?1w_weaponbox?4mdl?$AA@ ; `string'
PUBLIC	??_C@_0CP@GGAKEPLH@WeaponBox?5too?5full?$CB?5only?5?$CFd?5ammo@ ; `string'
PUBLIC	??_C@_0BF@FIJIKGHL@items?1gunpickup2?4wav?$AA@	; `string'
PUBLIC	??_C@_0BK@IMKFEDKG@NULL?5String?5in?5PackAmmo?$CB?6?$AA@ ; `string'
PUBLIC	??_C@_0BJ@HGOABKLC@out?5of?5named?5ammo?5slots?6?$AA@ ; `string'
PUBLIC	??_C@_0O@IIHAKPII@primary?3?5?5?$CFf?6?$AA@	; `string'
PUBLIC	??_C@_0O@BBKDGOHF@idle?5?5?5?3?5?5?$CFf?6?$AA@	; `string'
PUBLIC	??_C@_0O@LOGEBMBD@m_finre?3?5?5?$CFi?6?$AA@	; `string'
PUBLIC	??_C@_0O@DAGEOIDI@m_iclip?3?5?5?$CFi?6?$AA@	; `string'
PUBLIC	?g_DataMapHolder@CLaserSpot_DataDescInit@@3PAUdatamap_s@@A ; CLaserSpot_DataDescInit::g_DataMapHolder
PUBLIC	??_C@_06PGKKGABA@Revive?$AA@			; `string'
PUBLIC	??_C@_0L@PKAMAFCB@laser_spot?$AA@		; `string'
PUBLIC	??_7?$CEntityFactory@VCLaserSpot@@@@6B@		; CEntityFactory<CLaserSpot>::`vftable'
PUBLIC	??_C@_0BE@MJCFAFFO@?$CGCLaserSpot?3?3Revive?$AA@ ; `string'
PUBLIC	??_C@_1JC@EMNIBBBG@?$AAd?$AA?3?$AA?2?$AA?$CB?$AAd?$AAi?$AAf?$AAf?$AAu?$AAs?$AAi?$AAo?$AAn?$AA?5?$AA2?$AA0?$AA2?$AA0?$AA?2?$AAs?$AAo?$AAu?$AAr?$AAc?$AAe?$AA?5?$AAc?$AAo?$AAd?$AAe?$AA?5?$AA2@ ; `string'
PUBLIC	??_C@_1IK@DGJDJNN@?$AA?$CI?$AAB?$AAa?$AAs?$AAe?$AA?$CI?$AA?$CJ?$AA?5?$AA?$DN?$AA?$DN?$AA?5?$AAN?$AAU?$AAL?$AAL?$AA?$CJ?$AA?5?$AA?$HM?$AA?$HM?$AA?5?$AA?$CI?$AA?$CG?$AAs?$AAr?$AAc?$AA?5?$AA?$DM?$AA?5?$AAB?$AAa?$AAs?$AAe@ ; `string'
PUBLIC	??_C@_1JE@CIIIAKCN@?$AAd?$AA?3?$AA?2?$AA?$CB?$AAd?$AAi?$AAf?$AAf?$AAu?$AAs?$AAi?$AAo?$AAn?$AA?5?$AA2?$AA0?$AA2?$AA0?$AA?2?$AAs?$AAo?$AAu?$AAr?$AAc?$AAe?$AA?5?$AAc?$AAo?$AAd?$AAe?$AA?5?$AA2@ ; `string'
PUBLIC	??_C@_1BO@FOOHAONO@?$AAn?$AAG?$AAr?$AAo?$AAw?$AAS?$AAi?$AAz?$AAe?$AA?5?$AA?$DO?$AA?$DN?$AA?5?$AA0?$AA?$AA@ ; `string'
PUBLIC	??_C@_1BM@PFNFCCHH@?$AA?$CB?$AAI?$AAs?$AAR?$AAe?$AAa?$AAd?$AAO?$AAn?$AAl?$AAy?$AA?$CI?$AA?$CJ?$AA?$AA@ ; `string'
PUBLIC	??_C@_1BM@CKILBAKK@?$AAI?$AAs?$AAI?$AAd?$AAx?$AAV?$AAa?$AAl?$AAi?$AAd?$AA?$CI?$AAi?$AA?$CJ?$AA?$AA@ ; `string'
PUBLIC	??_C@_1FA@BPFBJKPF@?$AA?$CI?$AAe?$AAl?$AAe?$AAm?$AA?5?$AA?$DN?$AA?$DN?$AA?5?$AAC?$AAo?$AAu?$AAn?$AAt?$AA?$CI?$AA?$CJ?$AA?$CJ?$AA?5?$AA?$HM?$AA?$HM?$AA?5?$AAI?$AAs?$AAV?$AAa?$AAl?$AAi?$AAd?$AAI?$AAn?$AAd?$AAe@ ; `string'
PUBLIC	??_C@_1GM@CDMJDFPA@?$AAI?$AAs?$AAV?$AAa?$AAl?$AAi?$AAd?$AAI?$AAn?$AAd?$AAe?$AAx?$AA?$CI?$AAe?$AAl?$AAe?$AAm?$AA?$CJ?$AA?5?$AA?$HM?$AA?$HM?$AA?5?$AA?$CI?$AA?5?$AAm?$AA_?$AAS?$AAi?$AAz?$AAe?$AA?5?$AA?$DN@ ; `string'
PUBLIC	??_C@_1BA@PKCLMAEA@?$AAn?$AAu?$AAm?$AA?5?$AA?$DO?$AA?5?$AA0?$AA?$AA@ ; `string'
PUBLIC	??_C@_13COJANIEC@?$AA0?$AA?$AA@			; `string'
PUBLIC	??_C@_1BE@OPPFELHC@?$AAm?$AA_?$AAp?$AAM?$AAe?$AAm?$AAo?$AAr?$AAy?$AA?$AA@ ; `string'
PUBLIC	??_R4CBaseEntity@@6B@				; CBaseEntity::`RTTI Complete Object Locator'
PUBLIC	??_R0?AVCBaseEntity@@@8				; CBaseEntity `RTTI Type Descriptor'
PUBLIC	??_R3CBaseEntity@@8				; CBaseEntity::`RTTI Class Hierarchy Descriptor'
PUBLIC	??_R2CBaseEntity@@8				; CBaseEntity::`RTTI Base Class Array'
PUBLIC	??_R1A@?0A@EA@CBaseEntity@@8			; CBaseEntity::`RTTI Base Class Descriptor at (0,-1,0,64)'
PUBLIC	??_R4IEntityFactory@@6B@			; IEntityFactory::`RTTI Complete Object Locator'
PUBLIC	??_R0?AVIEntityFactory@@@8			; IEntityFactory `RTTI Type Descriptor'
PUBLIC	??_R3IEntityFactory@@8				; IEntityFactory::`RTTI Class Hierarchy Descriptor'
PUBLIC	??_R2IEntityFactory@@8				; IEntityFactory::`RTTI Base Class Array'
PUBLIC	??_R1A@?0A@EA@IEntityFactory@@8			; IEntityFactory::`RTTI Base Class Descriptor at (0,-1,0,64)'
PUBLIC	??_R4CWeaponBox@@6B@				; CWeaponBox::`RTTI Complete Object Locator'
PUBLIC	??_R0?AVCWeaponBox@@@8				; CWeaponBox `RTTI Type Descriptor'
PUBLIC	??_R3CWeaponBox@@8				; CWeaponBox::`RTTI Class Hierarchy Descriptor'
PUBLIC	??_R2CWeaponBox@@8				; CWeaponBox::`RTTI Base Class Array'
PUBLIC	??_R1A@?0A@EA@CWeaponBox@@8			; CWeaponBox::`RTTI Base Class Descriptor at (0,-1,0,64)'
PUBLIC	??_R4CLaserSpot@@6B@				; CLaserSpot::`RTTI Complete Object Locator'
PUBLIC	??_R0?AVCLaserSpot@@@8				; CLaserSpot `RTTI Type Descriptor'
PUBLIC	??_R3CLaserSpot@@8				; CLaserSpot::`RTTI Class Hierarchy Descriptor'
PUBLIC	??_R2CLaserSpot@@8				; CLaserSpot::`RTTI Base Class Array'
PUBLIC	??_R1A@?0A@EA@CLaserSpot@@8			; CLaserSpot::`RTTI Base Class Descriptor at (0,-1,0,64)'
PUBLIC	??_R4?$CEntityFactory@VCWeaponBox@@@@6B@	; CEntityFactory<CWeaponBox>::`RTTI Complete Object Locator'
PUBLIC	??_R0?AV?$CEntityFactory@VCWeaponBox@@@@@8	; CEntityFactory<CWeaponBox> `RTTI Type Descriptor'
PUBLIC	??_R3?$CEntityFactory@VCWeaponBox@@@@8		; CEntityFactory<CWeaponBox>::`RTTI Class Hierarchy Descriptor'
PUBLIC	??_R2?$CEntityFactory@VCWeaponBox@@@@8		; CEntityFactory<CWeaponBox>::`RTTI Base Class Array'
PUBLIC	??_R1A@?0A@EA@?$CEntityFactory@VCWeaponBox@@@@8	; CEntityFactory<CWeaponBox>::`RTTI Base Class Descriptor at (0,-1,0,64)'
PUBLIC	??_R4?$CEntityFactory@VCLaserSpot@@@@6B@	; CEntityFactory<CLaserSpot>::`RTTI Complete Object Locator'
PUBLIC	??_R0?AV?$CEntityFactory@VCLaserSpot@@@@@8	; CEntityFactory<CLaserSpot> `RTTI Type Descriptor'
PUBLIC	??_R3?$CEntityFactory@VCLaserSpot@@@@8		; CEntityFactory<CLaserSpot>::`RTTI Class Hierarchy Descriptor'
PUBLIC	??_R2?$CEntityFactory@VCLaserSpot@@@@8		; CEntityFactory<CLaserSpot>::`RTTI Base Class Array'
PUBLIC	??_R1A@?0A@EA@?$CEntityFactory@VCLaserSpot@@@@8	; CEntityFactory<CLaserSpot>::`RTTI Base Class Descriptor at (0,-1,0,64)'
PUBLIC	__real@00000000
PUBLIC	__real@3dcccccd
PUBLIC	__real@3ecccccd
PUBLIC	__real@3f000000
PUBLIC	__real@3f4ccccd
PUBLIC	__real@3f800000
PUBLIC	__real@3fb999999999999a
PUBLIC	__real@3fd3333333333333
PUBLIC	__real@3fe0000000000000
PUBLIC	__real@40400000
PUBLIC	__real@41800000
PUBLIC	__real@41c00000
PUBLIC	__real@42480000
PUBLIC	__real@42700000
PUBLIC	__real@42a00000
PUBLIC	__real@437f0000
PUBLIC	__real@c1800000
PUBLIC	__real@c1c00000
EXTRN	__purecall:PROC
EXTRN	??3@YAXPAXI@Z:PROC				; operator delete
EXTRN	??_U@YAPAXI@Z:PROC				; operator new[]
EXTRN	_atexit:PROC
EXTRN	__Init_thread_header:PROC
EXTRN	__Init_thread_abort:PROC
EXTRN	__Init_thread_footer:PROC
EXTRN	_memmove:PROC
EXTRN	_memset:PROC
EXTRN	_strcat:PROC
EXTRN	_strcmp:PROC
EXTRN	_strcpy:PROC
EXTRN	_strlen:PROC
EXTRN	_stricmp:PROC
EXTRN	___stdio_common_vsprintf:PROC
EXTRN	_free:PROC
EXTRN	_malloc:PROC
EXTRN	_realloc:PROC
EXTRN	_atoi:PROC
EXTRN	??0matrix4x4@@QAE@XZ:PROC			; matrix4x4::matrix4x4
EXTRN	?Q_atoi@@YAHPBD@Z:PROC				; Q_atoi
EXTRN	?Q_strncmp@@YAHPBD0H@Z:PROC			; Q_strncmp
EXTRN	__wassert:PROC
EXTRN	?UTIL_Remove@@YAXPAVCBaseEntity@@@Z:PROC	; UTIL_Remove
EXTRN	?CreateEntityByName@@YAPAVCBaseEntity@@PBDPAUentvars_s@@@Z:PROC ; CreateEntityByName
EXTRN	?EntityFactoryDictionary@@YAPAVIEntityFactoryDictionary@@XZ:PROC ; EntityFactoryDictionary
EXTRN	?DBG_EntOfVars@@YAPAUedict_s@@PBUentvars_s@@@Z:PROC ; DBG_EntOfVars
EXTRN	?UTIL_SetSize@@YAXPAUentvars_s@@ABVVector@@1@Z:PROC ; UTIL_SetSize
EXTRN	?UTIL_PlayerByIndex@@YAPAVCBaseEntity@@H@Z:PROC	; UTIL_PlayerByIndex
EXTRN	?UTIL_SetOrigin@@YAXPAVCBaseEntity@@ABVVector@@@Z:PROC ; UTIL_SetOrigin
EXTRN	?UTIL_ShowMessage@@YAXPBDPAVCBaseEntity@@@Z:PROC ; UTIL_ShowMessage
EXTRN	?UTIL_BloodDrips@@YAXABVVector@@0HH@Z:PROC	; UTIL_BloodDrips
EXTRN	?UTIL_StudioDecalTrace@@YAXPAUgametrace_s@@HH@Z:PROC ; UTIL_StudioDecalTrace
EXTRN	?UTIL_GunshotDecalTrace@@YAXPAUgametrace_s@@H@Z:PROC ; UTIL_GunshotDecalTrace
EXTRN	?UTIL_IsValidEntity@@YAHPAUedict_s@@@Z:PROC	; UTIL_IsValidEntity
EXTRN	?UTIL_PrecacheOther@@YAXPBD@Z:PROC		; UTIL_PrecacheOther
EXTRN	?DBG_AssertFunction@@YAXHPBD0H0@Z:PROC		; DBG_AssertFunction
EXTRN	?EMIT_SOUND_DYN@@YAXPAUedict_s@@HPBDMMHH@Z:PROC	; EMIT_SOUND_DYN
EXTRN	?UTIL_GetModelType@@YA?AW4modtype_t@@H@Z:PROC	; UTIL_GetModelType
EXTRN	?UTIL_DropToFloor@@YAHPAVCBaseEntity@@@Z:PROC	; UTIL_DropToFloor
EXTRN	?UTIL_FunctionToName@@YAPBDPAUdatamap_s@@PAX@Z:PROC ; UTIL_FunctionToName
EXTRN	??0CMeshDesc@@QAE@XZ:PROC			; CMeshDesc::CMeshDesc
EXTRN	??1CMeshDesc@@QAE@XZ:PROC			; CMeshDesc::~CMeshDesc
EXTRN	?GetDataDescMap@CBaseEntity@@UAEPAUdatamap_s@@XZ:PROC ; CBaseEntity::GetDataDescMap
EXTRN	?SetAbsOrigin@CBaseEntity@@QAEXABVVector@@@Z:PROC ; CBaseEntity::SetAbsOrigin
EXTRN	?GetAbsOrigin@CBaseEntity@@QBEABVVector@@XZ:PROC ; CBaseEntity::GetAbsOrigin
EXTRN	?SetAbsAngles@CBaseEntity@@QAEXABVVector@@@Z:PROC ; CBaseEntity::SetAbsAngles
EXTRN	?GetAbsAngles@CBaseEntity@@QBEABVVector@@XZ:PROC ; CBaseEntity::GetAbsAngles
EXTRN	?GetAbsVelocity@CBaseEntity@@QBEABVVector@@XZ:PROC ; CBaseEntity::GetAbsVelocity
EXTRN	?SetParent@CBaseEntity@@QAEXHH@Z:PROC		; CBaseEntity::SetParent
EXTRN	?Save@CBaseEntity@@UAEHAAVCSave@@@Z:PROC	; CBaseEntity::Save
EXTRN	?Restore@CBaseEntity@@UAEHAAVCRestore@@@Z:PROC	; CBaseEntity::Restore
EXTRN	?SetObjectCollisionBox@CBaseEntity@@UAEXXZ:PROC	; CBaseEntity::SetObjectCollisionBox
EXTRN	?SetNextThink@CBaseEntity@@UAEXM@Z:PROC		; CBaseEntity::SetNextThink
EXTRN	?TraceAttack@CBaseEntity@@UAEXPAUentvars_s@@MVVector@@PAUgametrace_s@@H@Z:PROC ; CBaseEntity::TraceAttack
EXTRN	?TakeDamage@CBaseEntity@@UAEHPAUentvars_s@@0MH@Z:PROC ; CBaseEntity::TakeDamage
EXTRN	?TakeHealth@CBaseEntity@@UAEHMH@Z:PROC		; CBaseEntity::TakeHealth
EXTRN	?TakeArmor@CBaseEntity@@UAEHMH@Z:PROC		; CBaseEntity::TakeArmor
EXTRN	?Killed@CBaseEntity@@UAEXPAUentvars_s@@H@Z:PROC	; CBaseEntity::Killed
EXTRN	?TraceBleed@CBaseEntity@@UAEXMVVector@@PAUgametrace_s@@H@Z:PROC ; CBaseEntity::TraceBleed
EXTRN	?DamageDecal@CBaseEntity@@UAEHH@Z:PROC		; CBaseEntity::DamageDecal
EXTRN	?IsInWorld@CBaseEntity@@UAEHH@Z:PROC		; CBaseEntity::IsInWorld
EXTRN	?GetNextTarget@CBaseEntity@@UAEPAV1@XZ:PROC	; CBaseEntity::GetNextTarget
EXTRN	?SUB_Remove@CBaseEntity@@QAEXXZ:PROC		; CBaseEntity::SUB_Remove
EXTRN	?RelinkEntity@CBaseEntity@@QAEXHPBVVector@@H@Z:PROC ; CBaseEntity::RelinkEntity
EXTRN	?Create@CBaseEntity@@SAPAV1@PADABVVector@@1PAUedict_s@@@Z:PROC ; CBaseEntity::Create
EXTRN	?FVisible@CBaseEntity@@UAEHPAV1@@Z:PROC		; CBaseEntity::FVisible
EXTRN	?FVisible@CBaseEntity@@UAEHABVVector@@@Z:PROC	; CBaseEntity::FVisible
EXTRN	?ShouldCollide@CBaseEntity@@UAEHPAV1@@Z:PROC	; CBaseEntity::ShouldCollide
EXTRN	?ClearEffects@CBaseEntity@@UAEXXZ:PROC		; CBaseEntity::ClearEffects
EXTRN	?SUB_UseTargets@CBaseDelay@@QAEXPAVCBaseEntity@@W4USE_TYPE@@MH@Z:PROC ; CBaseDelay::SUB_UseTargets
EXTRN	?SetAnimation@CBasePlayer@@QAEXW4PLAYER_ANIM@@@Z:PROC ; CBasePlayer::SetAnimation
EXTRN	?HasPlayerItem@CBasePlayer@@QAEHPAVCBasePlayerItem@@@Z:PROC ; CBasePlayer::HasPlayerItem
EXTRN	?GetAmmoIndex@CBasePlayer@@SAHPBD@Z:PROC	; CBasePlayer::GetAmmoIndex
EXTRN	@__security_check_cookie@4:PROC
EXTRN	___CxxFrameHandler3:PROC
EXTRN	__Init_thread_epoch:DWORD
EXTRN	?g_vecZero@@3VVector@@B:BYTE			; g_vecZero
EXTRN	?g_engfuncs@@3Uenginefuncs_s@@A:BYTE		; g_engfuncs
EXTRN	??_7type_info@@6B@:QWORD			; type_info::`vftable'
EXTRN	?gpGlobals@@3PAUglobalvars_t@@A:DWORD		; gpGlobals
EXTRN	?m_DataMap@CBaseEntity@@2Udatamap_s@@A:BYTE	; CBaseEntity::m_DataMap
EXTRN	?m_DataMap@CBaseAnimating@@2Udatamap_s@@A:BYTE	; CBaseAnimating::m_DataMap
EXTRN	?gmsgTempEnt@@3HA:DWORD				; gmsgTempEnt
EXTRN	?g_vecAttackDir@@3VVector@@A:BYTE		; g_vecAttackDir
EXTRN	?g_pGameRules@@3PAVCGameRules@@A:DWORD		; g_pGameRules
EXTRN	?gEvilImpulse101@@3HA:DWORD			; gEvilImpulse101
EXTRN	?gmsgCurWeapon@@3HA:DWORD			; gmsgCurWeapon
EXTRN	?gmsgWeaponAnim@@3HA:DWORD			; gmsgWeaponAnim
EXTRN	___security_cookie:DWORD
EXTRN	__fltused:DWORD
EXTRN	__tls_array:DWORD
EXTRN	__tls_index:DWORD
;	COMDAT ?_OptionsStorage@?1??__local_stdio_printf_options@@9@4_KA
_BSS	SEGMENT
?_OptionsStorage@?1??__local_stdio_printf_options@@9@4_KA DQ 01H DUP (?) ; `__local_stdio_printf_options'::`2'::_OptionsStorage
_BSS	ENDS
_BSS	SEGMENT
?g_DataMapHolder@CBasePlayerItem_DataDescInit@@3PAUdatamap_s@@A DD 01H DUP (?) ; CBasePlayerItem_DataDescInit::g_DataMapHolder
?nameHolder@?1???$DataMapInit@VCBasePlayerItem@@@@YAPAUdatamap_s@@PAVCBasePlayerItem@@@Z@4VCDatadescGeneratedNameHolder@@A DB 01cH DUP (?) ; `DataMapInit<CBasePlayerItem>'::`2'::nameHolder
?$TSS0@?1???$DataMapInit@VCBasePlayerItem@@@@YAPAUdatamap_s@@PAVCBasePlayerItem@@@Z@4HA DD 01H DUP (?) ; `DataMapInit<CBasePlayerItem>'::`2'::$TSS0
?$TSS1@?1???$DataMapInit@VCBasePlayerItem@@@@YAPAUdatamap_s@@PAVCBasePlayerItem@@@Z@4HA DD 01H DUP (?) ; `DataMapInit<CBasePlayerItem>'::`2'::$TSS1
?g_DataMapHolder@CBasePlayerWeapon_DataDescInit@@3PAUdatamap_s@@A DD 01H DUP (?) ; CBasePlayerWeapon_DataDescInit::g_DataMapHolder
?nameHolder@?1???$DataMapInit@VCBasePlayerWeapon@@@@YAPAUdatamap_s@@PAVCBasePlayerWeapon@@@Z@4VCDatadescGeneratedNameHolder@@A DB 01cH DUP (?) ; `DataMapInit<CBasePlayerWeapon>'::`2'::nameHolder
?$TSS0@?1???$DataMapInit@VCBasePlayerWeapon@@@@YAPAUdatamap_s@@PAVCBasePlayerWeapon@@@Z@4HA DD 01H DUP (?) ; `DataMapInit<CBasePlayerWeapon>'::`2'::$TSS0
?g_DataMapHolder@CBasePlayerAmmo_DataDescInit@@3PAUdatamap_s@@A DD 01H DUP (?) ; CBasePlayerAmmo_DataDescInit::g_DataMapHolder
?nameHolder@?1???$DataMapInit@VCBasePlayerAmmo@@@@YAPAUdatamap_s@@PAVCBasePlayerAmmo@@@Z@4VCDatadescGeneratedNameHolder@@A DB 01cH DUP (?) ; `DataMapInit<CBasePlayerAmmo>'::`2'::nameHolder
?$TSS0@?1???$DataMapInit@VCBasePlayerAmmo@@@@YAPAUdatamap_s@@PAVCBasePlayerAmmo@@@Z@4HA DD 01H DUP (?) ; `DataMapInit<CBasePlayerAmmo>'::`2'::$TSS0
?$TSS1@?1???$DataMapInit@VCBasePlayerAmmo@@@@YAPAUdatamap_s@@PAVCBasePlayerAmmo@@@Z@4HA DD 01H DUP (?) ; `DataMapInit<CBasePlayerAmmo>'::`2'::$TSS1
?weaponbox@@3V?$CEntityFactory@VCWeaponBox@@@@A DD 01H DUP (?) ; weaponbox
?g_DataMapHolder@CWeaponBox_DataDescInit@@3PAUdatamap_s@@A DD 01H DUP (?) ; CWeaponBox_DataDescInit::g_DataMapHolder
?nameHolder@?1???$DataMapInit@VCWeaponBox@@@@YAPAUdatamap_s@@PAVCWeaponBox@@@Z@4VCDatadescGeneratedNameHolder@@A DB 01cH DUP (?) ; `DataMapInit<CWeaponBox>'::`2'::nameHolder
?$TSS0@?1???$DataMapInit@VCWeaponBox@@@@YAPAUdatamap_s@@PAVCWeaponBox@@@Z@4HA DD 01H DUP (?) ; `DataMapInit<CWeaponBox>'::`2'::$TSS0
?$TSS1@?1???$DataMapInit@VCWeaponBox@@@@YAPAUdatamap_s@@PAVCWeaponBox@@@Z@4HA DD 01H DUP (?) ; `DataMapInit<CWeaponBox>'::`2'::$TSS1
?g_DataMapHolder@CLaserSpot_DataDescInit@@3PAUdatamap_s@@A DD 01H DUP (?) ; CLaserSpot_DataDescInit::g_DataMapHolder
?nameHolder@?1???$DataMapInit@VCLaserSpot@@@@YAPAUdatamap_s@@PAVCLaserSpot@@@Z@4VCDatadescGeneratedNameHolder@@A DB 01cH DUP (?) ; `DataMapInit<CLaserSpot>'::`2'::nameHolder
?$TSS0@?1???$DataMapInit@VCLaserSpot@@@@YAPAUdatamap_s@@PAVCLaserSpot@@@Z@4HA DD 01H DUP (?) ; `DataMapInit<CLaserSpot>'::`2'::$TSS0
?$TSS1@?1???$DataMapInit@VCLaserSpot@@@@YAPAUdatamap_s@@PAVCLaserSpot@@@Z@4HA DD 01H DUP (?) ; `DataMapInit<CLaserSpot>'::`2'::$TSS1
?laser_spot@@3V?$CEntityFactory@VCLaserSpot@@@@A DD 01H DUP (?) ; laser_spot
_BSS	ENDS
CRT$XCU	SEGMENT
?g_DataMapHolder$initializer$@CBasePlayerItem_DataDescInit@@3P6AXXZA DD FLAT:??__Eg_DataMapHolder@CBasePlayerItem_DataDescInit@@YAXXZ ; CBasePlayerItem_DataDescInit::g_DataMapHolder$initializer$
CRT$XCU	ENDS
;	COMDAT __real@c1c00000
CONST	SEGMENT
__real@c1c00000 DD 0c1c00000r			; -24
CONST	ENDS
;	COMDAT __real@c1800000
CONST	SEGMENT
__real@c1800000 DD 0c1800000r			; -16
CONST	ENDS
;	COMDAT __real@437f0000
CONST	SEGMENT
__real@437f0000 DD 0437f0000r			; 255
CONST	ENDS
;	COMDAT __real@42a00000
CONST	SEGMENT
__real@42a00000 DD 042a00000r			; 80
CONST	ENDS
;	COMDAT __real@42700000
CONST	SEGMENT
__real@42700000 DD 042700000r			; 60
CONST	ENDS
;	COMDAT __real@42480000
CONST	SEGMENT
__real@42480000 DD 042480000r			; 50
CONST	ENDS
;	COMDAT __real@41c00000
CONST	SEGMENT
__real@41c00000 DD 041c00000r			; 24
CONST	ENDS
;	COMDAT __real@41800000
CONST	SEGMENT
__real@41800000 DD 041800000r			; 16
CONST	ENDS
;	COMDAT __real@40400000
CONST	SEGMENT
__real@40400000 DD 040400000r			; 3
CONST	ENDS
;	COMDAT __real@3fe0000000000000
CONST	SEGMENT
__real@3fe0000000000000 DQ 03fe0000000000000r	; 0.5
CONST	ENDS
;	COMDAT __real@3fd3333333333333
CONST	SEGMENT
__real@3fd3333333333333 DQ 03fd3333333333333r	; 0.3
CONST	ENDS
;	COMDAT __real@3fb999999999999a
CONST	SEGMENT
__real@3fb999999999999a DQ 03fb999999999999ar	; 0.1
CONST	ENDS
;	COMDAT __real@3f800000
CONST	SEGMENT
__real@3f800000 DD 03f800000r			; 1
CONST	ENDS
;	COMDAT __real@3f4ccccd
CONST	SEGMENT
__real@3f4ccccd DD 03f4ccccdr			; 0.8
CONST	ENDS
;	COMDAT __real@3f000000
CONST	SEGMENT
__real@3f000000 DD 03f000000r			; 0.5
CONST	ENDS
;	COMDAT __real@3ecccccd
CONST	SEGMENT
__real@3ecccccd DD 03ecccccdr			; 0.4
CONST	ENDS
;	COMDAT __real@3dcccccd
CONST	SEGMENT
__real@3dcccccd DD 03dcccccdr			; 0.1
CONST	ENDS
;	COMDAT __real@00000000
CONST	SEGMENT
__real@00000000 DD 000000000r			; 0
CONST	ENDS
;	COMDAT ??_R1A@?0A@EA@?$CEntityFactory@VCLaserSpot@@@@8
rdata$r	SEGMENT
??_R1A@?0A@EA@?$CEntityFactory@VCLaserSpot@@@@8 DD FLAT:??_R0?AV?$CEntityFactory@VCLaserSpot@@@@@8 ; CEntityFactory<CLaserSpot>::`RTTI Base Class Descriptor at (0,-1,0,64)'
	DD	01H
	DD	00H
	DD	0ffffffffH
	DD	00H
	DD	040H
	DD	FLAT:??_R3?$CEntityFactory@VCLaserSpot@@@@8
rdata$r	ENDS
;	COMDAT ??_R2?$CEntityFactory@VCLaserSpot@@@@8
rdata$r	SEGMENT
??_R2?$CEntityFactory@VCLaserSpot@@@@8 DD FLAT:??_R1A@?0A@EA@?$CEntityFactory@VCLaserSpot@@@@8 ; CEntityFactory<CLaserSpot>::`RTTI Base Class Array'
	DD	FLAT:??_R1A@?0A@EA@IEntityFactory@@8
rdata$r	ENDS
;	COMDAT ??_R3?$CEntityFactory@VCLaserSpot@@@@8
rdata$r	SEGMENT
??_R3?$CEntityFactory@VCLaserSpot@@@@8 DD 00H		; CEntityFactory<CLaserSpot>::`RTTI Class Hierarchy Descriptor'
	DD	00H
	DD	02H
	DD	FLAT:??_R2?$CEntityFactory@VCLaserSpot@@@@8
rdata$r	ENDS
;	COMDAT ??_R0?AV?$CEntityFactory@VCLaserSpot@@@@@8
data$r	SEGMENT
??_R0?AV?$CEntityFactory@VCLaserSpot@@@@@8 DD FLAT:??_7type_info@@6B@ ; CEntityFactory<CLaserSpot> `RTTI Type Descriptor'
	DD	00H
	DB	'.?AV?$CEntityFactory@VCLaserSpot@@@@', 00H
data$r	ENDS
;	COMDAT ??_R4?$CEntityFactory@VCLaserSpot@@@@6B@
rdata$r	SEGMENT
??_R4?$CEntityFactory@VCLaserSpot@@@@6B@ DD 00H		; CEntityFactory<CLaserSpot>::`RTTI Complete Object Locator'
	DD	00H
	DD	00H
	DD	FLAT:??_R0?AV?$CEntityFactory@VCLaserSpot@@@@@8
	DD	FLAT:??_R3?$CEntityFactory@VCLaserSpot@@@@8
rdata$r	ENDS
;	COMDAT ??_R1A@?0A@EA@?$CEntityFactory@VCWeaponBox@@@@8
rdata$r	SEGMENT
??_R1A@?0A@EA@?$CEntityFactory@VCWeaponBox@@@@8 DD FLAT:??_R0?AV?$CEntityFactory@VCWeaponBox@@@@@8 ; CEntityFactory<CWeaponBox>::`RTTI Base Class Descriptor at (0,-1,0,64)'
	DD	01H
	DD	00H
	DD	0ffffffffH
	DD	00H
	DD	040H
	DD	FLAT:??_R3?$CEntityFactory@VCWeaponBox@@@@8
rdata$r	ENDS
;	COMDAT ??_R2?$CEntityFactory@VCWeaponBox@@@@8
rdata$r	SEGMENT
??_R2?$CEntityFactory@VCWeaponBox@@@@8 DD FLAT:??_R1A@?0A@EA@?$CEntityFactory@VCWeaponBox@@@@8 ; CEntityFactory<CWeaponBox>::`RTTI Base Class Array'
	DD	FLAT:??_R1A@?0A@EA@IEntityFactory@@8
rdata$r	ENDS
;	COMDAT ??_R3?$CEntityFactory@VCWeaponBox@@@@8
rdata$r	SEGMENT
??_R3?$CEntityFactory@VCWeaponBox@@@@8 DD 00H		; CEntityFactory<CWeaponBox>::`RTTI Class Hierarchy Descriptor'
	DD	00H
	DD	02H
	DD	FLAT:??_R2?$CEntityFactory@VCWeaponBox@@@@8
rdata$r	ENDS
;	COMDAT ??_R0?AV?$CEntityFactory@VCWeaponBox@@@@@8
data$r	SEGMENT
??_R0?AV?$CEntityFactory@VCWeaponBox@@@@@8 DD FLAT:??_7type_info@@6B@ ; CEntityFactory<CWeaponBox> `RTTI Type Descriptor'
	DD	00H
	DB	'.?AV?$CEntityFactory@VCWeaponBox@@@@', 00H
data$r	ENDS
;	COMDAT ??_R4?$CEntityFactory@VCWeaponBox@@@@6B@
rdata$r	SEGMENT
??_R4?$CEntityFactory@VCWeaponBox@@@@6B@ DD 00H		; CEntityFactory<CWeaponBox>::`RTTI Complete Object Locator'
	DD	00H
	DD	00H
	DD	FLAT:??_R0?AV?$CEntityFactory@VCWeaponBox@@@@@8
	DD	FLAT:??_R3?$CEntityFactory@VCWeaponBox@@@@8
rdata$r	ENDS
;	COMDAT ??_R1A@?0A@EA@CLaserSpot@@8
rdata$r	SEGMENT
??_R1A@?0A@EA@CLaserSpot@@8 DD FLAT:??_R0?AVCLaserSpot@@@8 ; CLaserSpot::`RTTI Base Class Descriptor at (0,-1,0,64)'
	DD	01H
	DD	00H
	DD	0ffffffffH
	DD	00H
	DD	040H
	DD	FLAT:??_R3CLaserSpot@@8
rdata$r	ENDS
;	COMDAT ??_R2CLaserSpot@@8
rdata$r	SEGMENT
??_R2CLaserSpot@@8 DD FLAT:??_R1A@?0A@EA@CLaserSpot@@8	; CLaserSpot::`RTTI Base Class Array'
	DD	FLAT:??_R1A@?0A@EA@CBaseEntity@@8
rdata$r	ENDS
;	COMDAT ??_R3CLaserSpot@@8
rdata$r	SEGMENT
??_R3CLaserSpot@@8 DD 00H				; CLaserSpot::`RTTI Class Hierarchy Descriptor'
	DD	00H
	DD	02H
	DD	FLAT:??_R2CLaserSpot@@8
rdata$r	ENDS
;	COMDAT ??_R0?AVCLaserSpot@@@8
data$r	SEGMENT
??_R0?AVCLaserSpot@@@8 DD FLAT:??_7type_info@@6B@	; CLaserSpot `RTTI Type Descriptor'
	DD	00H
	DB	'.?AVCLaserSpot@@', 00H
data$r	ENDS
;	COMDAT ??_R4CLaserSpot@@6B@
rdata$r	SEGMENT
??_R4CLaserSpot@@6B@ DD 00H				; CLaserSpot::`RTTI Complete Object Locator'
	DD	00H
	DD	00H
	DD	FLAT:??_R0?AVCLaserSpot@@@8
	DD	FLAT:??_R3CLaserSpot@@8
rdata$r	ENDS
;	COMDAT ??_R1A@?0A@EA@CWeaponBox@@8
rdata$r	SEGMENT
??_R1A@?0A@EA@CWeaponBox@@8 DD FLAT:??_R0?AVCWeaponBox@@@8 ; CWeaponBox::`RTTI Base Class Descriptor at (0,-1,0,64)'
	DD	01H
	DD	00H
	DD	0ffffffffH
	DD	00H
	DD	040H
	DD	FLAT:??_R3CWeaponBox@@8
rdata$r	ENDS
;	COMDAT ??_R2CWeaponBox@@8
rdata$r	SEGMENT
??_R2CWeaponBox@@8 DD FLAT:??_R1A@?0A@EA@CWeaponBox@@8	; CWeaponBox::`RTTI Base Class Array'
	DD	FLAT:??_R1A@?0A@EA@CBaseEntity@@8
rdata$r	ENDS
;	COMDAT ??_R3CWeaponBox@@8
rdata$r	SEGMENT
??_R3CWeaponBox@@8 DD 00H				; CWeaponBox::`RTTI Class Hierarchy Descriptor'
	DD	00H
	DD	02H
	DD	FLAT:??_R2CWeaponBox@@8
rdata$r	ENDS
;	COMDAT ??_R0?AVCWeaponBox@@@8
data$r	SEGMENT
??_R0?AVCWeaponBox@@@8 DD FLAT:??_7type_info@@6B@	; CWeaponBox `RTTI Type Descriptor'
	DD	00H
	DB	'.?AVCWeaponBox@@', 00H
data$r	ENDS
;	COMDAT ??_R4CWeaponBox@@6B@
rdata$r	SEGMENT
??_R4CWeaponBox@@6B@ DD 00H				; CWeaponBox::`RTTI Complete Object Locator'
	DD	00H
	DD	00H
	DD	FLAT:??_R0?AVCWeaponBox@@@8
	DD	FLAT:??_R3CWeaponBox@@8
rdata$r	ENDS
;	COMDAT ??_R1A@?0A@EA@IEntityFactory@@8
rdata$r	SEGMENT
??_R1A@?0A@EA@IEntityFactory@@8 DD FLAT:??_R0?AVIEntityFactory@@@8 ; IEntityFactory::`RTTI Base Class Descriptor at (0,-1,0,64)'
	DD	00H
	DD	00H
	DD	0ffffffffH
	DD	00H
	DD	040H
	DD	FLAT:??_R3IEntityFactory@@8
rdata$r	ENDS
;	COMDAT ??_R2IEntityFactory@@8
rdata$r	SEGMENT
??_R2IEntityFactory@@8 DD FLAT:??_R1A@?0A@EA@IEntityFactory@@8 ; IEntityFactory::`RTTI Base Class Array'
rdata$r	ENDS
;	COMDAT ??_R3IEntityFactory@@8
rdata$r	SEGMENT
??_R3IEntityFactory@@8 DD 00H				; IEntityFactory::`RTTI Class Hierarchy Descriptor'
	DD	00H
	DD	01H
	DD	FLAT:??_R2IEntityFactory@@8
rdata$r	ENDS
;	COMDAT ??_R0?AVIEntityFactory@@@8
data$r	SEGMENT
??_R0?AVIEntityFactory@@@8 DD FLAT:??_7type_info@@6B@	; IEntityFactory `RTTI Type Descriptor'
	DD	00H
	DB	'.?AVIEntityFactory@@', 00H
data$r	ENDS
;	COMDAT ??_R4IEntityFactory@@6B@
rdata$r	SEGMENT
??_R4IEntityFactory@@6B@ DD 00H				; IEntityFactory::`RTTI Complete Object Locator'
	DD	00H
	DD	00H
	DD	FLAT:??_R0?AVIEntityFactory@@@8
	DD	FLAT:??_R3IEntityFactory@@8
rdata$r	ENDS
;	COMDAT ??_R1A@?0A@EA@CBaseEntity@@8
rdata$r	SEGMENT
??_R1A@?0A@EA@CBaseEntity@@8 DD FLAT:??_R0?AVCBaseEntity@@@8 ; CBaseEntity::`RTTI Base Class Descriptor at (0,-1,0,64)'
	DD	00H
	DD	00H
	DD	0ffffffffH
	DD	00H
	DD	040H
	DD	FLAT:??_R3CBaseEntity@@8
rdata$r	ENDS
;	COMDAT ??_R2CBaseEntity@@8
rdata$r	SEGMENT
??_R2CBaseEntity@@8 DD FLAT:??_R1A@?0A@EA@CBaseEntity@@8 ; CBaseEntity::`RTTI Base Class Array'
rdata$r	ENDS
;	COMDAT ??_R3CBaseEntity@@8
rdata$r	SEGMENT
??_R3CBaseEntity@@8 DD 00H				; CBaseEntity::`RTTI Class Hierarchy Descriptor'
	DD	00H
	DD	01H
	DD	FLAT:??_R2CBaseEntity@@8
rdata$r	ENDS
;	COMDAT ??_R0?AVCBaseEntity@@@8
data$r	SEGMENT
??_R0?AVCBaseEntity@@@8 DD FLAT:??_7type_info@@6B@	; CBaseEntity `RTTI Type Descriptor'
	DD	00H
	DB	'.?AVCBaseEntity@@', 00H
data$r	ENDS
;	COMDAT ??_R4CBaseEntity@@6B@
rdata$r	SEGMENT
??_R4CBaseEntity@@6B@ DD 00H				; CBaseEntity::`RTTI Complete Object Locator'
	DD	00H
	DD	00H
	DD	FLAT:??_R0?AVCBaseEntity@@@8
	DD	FLAT:??_R3CBaseEntity@@8
rdata$r	ENDS
;	COMDAT ??_C@_1BE@OPPFELHC@?$AAm?$AA_?$AAp?$AAM?$AAe?$AAm?$AAo?$AAr?$AAy?$AA?$AA@
CONST	SEGMENT
??_C@_1BE@OPPFELHC@?$AAm?$AA_?$AAp?$AAM?$AAe?$AAm?$AAo?$AAr?$AAy?$AA?$AA@ DB 'm'
	DB	00H, '_', 00H, 'p', 00H, 'M', 00H, 'e', 00H, 'm', 00H, 'o', 00H
	DB	'r', 00H, 'y', 00H, 00H, 00H			; `string'
CONST	ENDS
;	COMDAT ??_C@_13COJANIEC@?$AA0?$AA?$AA@
CONST	SEGMENT
??_C@_13COJANIEC@?$AA0?$AA?$AA@ DB '0', 00H, 00H, 00H	; `string'
CONST	ENDS
;	COMDAT ??_C@_1BA@PKCLMAEA@?$AAn?$AAu?$AAm?$AA?5?$AA?$DO?$AA?5?$AA0?$AA?$AA@
CONST	SEGMENT
??_C@_1BA@PKCLMAEA@?$AAn?$AAu?$AAm?$AA?5?$AA?$DO?$AA?5?$AA0?$AA?$AA@ DB 'n'
	DB	00H, 'u', 00H, 'm', 00H, ' ', 00H, '>', 00H, ' ', 00H, '0', 00H
	DB	00H, 00H					; `string'
CONST	ENDS
;	COMDAT ??_C@_1GM@CDMJDFPA@?$AAI?$AAs?$AAV?$AAa?$AAl?$AAi?$AAd?$AAI?$AAn?$AAd?$AAe?$AAx?$AA?$CI?$AAe?$AAl?$AAe?$AAm?$AA?$CJ?$AA?5?$AA?$HM?$AA?$HM?$AA?5?$AA?$CI?$AA?5?$AAm?$AA_?$AAS?$AAi?$AAz?$AAe?$AA?5?$AA?$DN@
CONST	SEGMENT
??_C@_1GM@CDMJDFPA@?$AAI?$AAs?$AAV?$AAa?$AAl?$AAi?$AAd?$AAI?$AAn?$AAd?$AAe?$AAx?$AA?$CI?$AAe?$AAl?$AAe?$AAm?$AA?$CJ?$AA?5?$AA?$HM?$AA?$HM?$AA?5?$AA?$CI?$AA?5?$AAm?$AA_?$AAS?$AAi?$AAz?$AAe?$AA?5?$AA?$DN@ DB 'I'
	DB	00H, 's', 00H, 'V', 00H, 'a', 00H, 'l', 00H, 'i', 00H, 'd', 00H
	DB	'I', 00H, 'n', 00H, 'd', 00H, 'e', 00H, 'x', 00H, '(', 00H, 'e'
	DB	00H, 'l', 00H, 'e', 00H, 'm', 00H, ')', 00H, ' ', 00H, '|', 00H
	DB	'|', 00H, ' ', 00H, '(', 00H, ' ', 00H, 'm', 00H, '_', 00H, 'S'
	DB	00H, 'i', 00H, 'z', 00H, 'e', 00H, ' ', 00H, '=', 00H, '=', 00H
	DB	' ', 00H, '0', 00H, ' ', 00H, ')', 00H, ' ', 00H, '|', 00H, '|'
	DB	00H, ' ', 00H, '(', 00H, ' ', 00H, 'n', 00H, 'u', 00H, 'm', 00H
	DB	' ', 00H, '=', 00H, '=', 00H, ' ', 00H, '0', 00H, ' ', 00H, ')'
	DB	00H, 00H, 00H				; `string'
CONST	ENDS
;	COMDAT ??_C@_1FA@BPFBJKPF@?$AA?$CI?$AAe?$AAl?$AAe?$AAm?$AA?5?$AA?$DN?$AA?$DN?$AA?5?$AAC?$AAo?$AAu?$AAn?$AAt?$AA?$CI?$AA?$CJ?$AA?$CJ?$AA?5?$AA?$HM?$AA?$HM?$AA?5?$AAI?$AAs?$AAV?$AAa?$AAl?$AAi?$AAd?$AAI?$AAn?$AAd?$AAe@
CONST	SEGMENT
??_C@_1FA@BPFBJKPF@?$AA?$CI?$AAe?$AAl?$AAe?$AAm?$AA?5?$AA?$DN?$AA?$DN?$AA?5?$AAC?$AAo?$AAu?$AAn?$AAt?$AA?$CI?$AA?$CJ?$AA?$CJ?$AA?5?$AA?$HM?$AA?$HM?$AA?5?$AAI?$AAs?$AAV?$AAa?$AAl?$AAi?$AAd?$AAI?$AAn?$AAd?$AAe@ DB '('
	DB	00H, 'e', 00H, 'l', 00H, 'e', 00H, 'm', 00H, ' ', 00H, '=', 00H
	DB	'=', 00H, ' ', 00H, 'C', 00H, 'o', 00H, 'u', 00H, 'n', 00H, 't'
	DB	00H, '(', 00H, ')', 00H, ')', 00H, ' ', 00H, '|', 00H, '|', 00H
	DB	' ', 00H, 'I', 00H, 's', 00H, 'V', 00H, 'a', 00H, 'l', 00H, 'i'
	DB	00H, 'd', 00H, 'I', 00H, 'n', 00H, 'd', 00H, 'e', 00H, 'x', 00H
	DB	'(', 00H, 'e', 00H, 'l', 00H, 'e', 00H, 'm', 00H, ')', 00H, 00H
	DB	00H						; `string'
CONST	ENDS
;	COMDAT ??_C@_1BM@CKILBAKK@?$AAI?$AAs?$AAI?$AAd?$AAx?$AAV?$AAa?$AAl?$AAi?$AAd?$AA?$CI?$AAi?$AA?$CJ?$AA?$AA@
CONST	SEGMENT
??_C@_1BM@CKILBAKK@?$AAI?$AAs?$AAI?$AAd?$AAx?$AAV?$AAa?$AAl?$AAi?$AAd?$AA?$CI?$AAi?$AA?$CJ?$AA?$AA@ DB 'I'
	DB	00H, 's', 00H, 'I', 00H, 'd', 00H, 'x', 00H, 'V', 00H, 'a', 00H
	DB	'l', 00H, 'i', 00H, 'd', 00H, '(', 00H, 'i', 00H, ')', 00H, 00H
	DB	00H						; `string'
CONST	ENDS
;	COMDAT ??_C@_1BM@PFNFCCHH@?$AA?$CB?$AAI?$AAs?$AAR?$AAe?$AAa?$AAd?$AAO?$AAn?$AAl?$AAy?$AA?$CI?$AA?$CJ?$AA?$AA@
CONST	SEGMENT
??_C@_1BM@PFNFCCHH@?$AA?$CB?$AAI?$AAs?$AAR?$AAe?$AAa?$AAd?$AAO?$AAn?$AAl?$AAy?$AA?$CI?$AA?$CJ?$AA?$AA@ DB '!'
	DB	00H, 'I', 00H, 's', 00H, 'R', 00H, 'e', 00H, 'a', 00H, 'd', 00H
	DB	'O', 00H, 'n', 00H, 'l', 00H, 'y', 00H, '(', 00H, ')', 00H, 00H
	DB	00H						; `string'
CONST	ENDS
;	COMDAT ??_C@_1BO@FOOHAONO@?$AAn?$AAG?$AAr?$AAo?$AAw?$AAS?$AAi?$AAz?$AAe?$AA?5?$AA?$DO?$AA?$DN?$AA?5?$AA0?$AA?$AA@
CONST	SEGMENT
??_C@_1BO@FOOHAONO@?$AAn?$AAG?$AAr?$AAo?$AAw?$AAS?$AAi?$AAz?$AAe?$AA?5?$AA?$DO?$AA?$DN?$AA?5?$AA0?$AA?$AA@ DB 'n'
	DB	00H, 'G', 00H, 'r', 00H, 'o', 00H, 'w', 00H, 'S', 00H, 'i', 00H
	DB	'z', 00H, 'e', 00H, ' ', 00H, '>', 00H, '=', 00H, ' ', 00H, '0'
	DB	00H, 00H, 00H				; `string'
CONST	ENDS
;	COMDAT ??_C@_1JE@CIIIAKCN@?$AAd?$AA?3?$AA?2?$AA?$CB?$AAd?$AAi?$AAf?$AAf?$AAu?$AAs?$AAi?$AAo?$AAn?$AA?5?$AA2?$AA0?$AA2?$AA0?$AA?2?$AAs?$AAo?$AAu?$AAr?$AAc?$AAe?$AA?5?$AAc?$AAo?$AAd?$AAe?$AA?5?$AA2@
CONST	SEGMENT
??_C@_1JE@CIIIAKCN@?$AAd?$AA?3?$AA?2?$AA?$CB?$AAd?$AAi?$AAf?$AAf?$AAu?$AAs?$AAi?$AAo?$AAn?$AA?5?$AA2?$AA0?$AA2?$AA0?$AA?2?$AAs?$AAo?$AAu?$AAr?$AAc?$AAe?$AA?5?$AAc?$AAo?$AAd?$AAe?$AA?5?$AA2@ DB 'd'
	DB	00H, ':', 00H, '\', 00H, '!', 00H, 'd', 00H, 'i', 00H, 'f', 00H
	DB	'f', 00H, 'u', 00H, 's', 00H, 'i', 00H, 'o', 00H, 'n', 00H, ' '
	DB	00H, '2', 00H, '0', 00H, '2', 00H, '0', 00H, '\', 00H, 's', 00H
	DB	'o', 00H, 'u', 00H, 'r', 00H, 'c', 00H, 'e', 00H, ' ', 00H, 'c'
	DB	00H, 'o', 00H, 'd', 00H, 'e', 00H, ' ', 00H, '2', 00H, '0', 00H
	DB	'2', 00H, '2', 00H, '\', 00H, 'c', 00H, 'l', 00H, 'i', 00H, 'e'
	DB	00H, 'n', 00H, 't', 00H, '-', 00H, 's', 00H, 'e', 00H, 'r', 00H
	DB	'v', 00H, 'e', 00H, 'r', 00H, '\', 00H, 'g', 00H, 'a', 00H, 'm'
	DB	00H, 'e', 00H, '_', 00H, 's', 00H, 'h', 00H, 'a', 00H, 'r', 00H
	DB	'e', 00H, 'd', 00H, '\', 00H, 'u', 00H, 't', 00H, 'l', 00H, 'm'
	DB	00H, 'e', 00H, 'm', 00H, 'o', 00H, 'r', 00H, 'y', 00H, '.', 00H
	DB	'h', 00H, 00H, 00H				; `string'
CONST	ENDS
;	COMDAT ??_C@_1IK@DGJDJNN@?$AA?$CI?$AAB?$AAa?$AAs?$AAe?$AA?$CI?$AA?$CJ?$AA?5?$AA?$DN?$AA?$DN?$AA?5?$AAN?$AAU?$AAL?$AAL?$AA?$CJ?$AA?5?$AA?$HM?$AA?$HM?$AA?5?$AA?$CI?$AA?$CG?$AAs?$AAr?$AAc?$AA?5?$AA?$DM?$AA?5?$AAB?$AAa?$AAs?$AAe@
CONST	SEGMENT
??_C@_1IK@DGJDJNN@?$AA?$CI?$AAB?$AAa?$AAs?$AAe?$AA?$CI?$AA?$CJ?$AA?5?$AA?$DN?$AA?$DN?$AA?5?$AAN?$AAU?$AAL?$AAL?$AA?$CJ?$AA?5?$AA?$HM?$AA?$HM?$AA?5?$AA?$CI?$AA?$CG?$AAs?$AAr?$AAc?$AA?5?$AA?$DM?$AA?5?$AAB?$AAa?$AAs?$AAe@ DB '('
	DB	00H, 'B', 00H, 'a', 00H, 's', 00H, 'e', 00H, '(', 00H, ')', 00H
	DB	' ', 00H, '=', 00H, '=', 00H, ' ', 00H, 'N', 00H, 'U', 00H, 'L'
	DB	00H, 'L', 00H, ')', 00H, ' ', 00H, '|', 00H, '|', 00H, ' ', 00H
	DB	'(', 00H, '&', 00H, 's', 00H, 'r', 00H, 'c', 00H, ' ', 00H, '<'
	DB	00H, ' ', 00H, 'B', 00H, 'a', 00H, 's', 00H, 'e', 00H, '(', 00H
	DB	')', 00H, ')', 00H, ' ', 00H, '|', 00H, '|', 00H, ' ', 00H, '('
	DB	00H, '&', 00H, 's', 00H, 'r', 00H, 'c', 00H, ' ', 00H, '>', 00H
	DB	'=', 00H, ' ', 00H, '(', 00H, 'B', 00H, 'a', 00H, 's', 00H, 'e'
	DB	00H, '(', 00H, ')', 00H, ' ', 00H, '+', 00H, ' ', 00H, 'C', 00H
	DB	'o', 00H, 'u', 00H, 'n', 00H, 't', 00H, '(', 00H, ')', 00H, ')'
	DB	00H, ' ', 00H, ')', 00H, 00H, 00H		; `string'
CONST	ENDS
;	COMDAT ??_C@_1JC@EMNIBBBG@?$AAd?$AA?3?$AA?2?$AA?$CB?$AAd?$AAi?$AAf?$AAf?$AAu?$AAs?$AAi?$AAo?$AAn?$AA?5?$AA2?$AA0?$AA2?$AA0?$AA?2?$AAs?$AAo?$AAu?$AAr?$AAc?$AAe?$AA?5?$AAc?$AAo?$AAd?$AAe?$AA?5?$AA2@
CONST	SEGMENT
??_C@_1JC@EMNIBBBG@?$AAd?$AA?3?$AA?2?$AA?$CB?$AAd?$AAi?$AAf?$AAf?$AAu?$AAs?$AAi?$AAo?$AAn?$AA?5?$AA2?$AA0?$AA2?$AA0?$AA?2?$AAs?$AAo?$AAu?$AAr?$AAc?$AAe?$AA?5?$AAc?$AAo?$AAd?$AAe?$AA?5?$AA2@ DB 'd'
	DB	00H, ':', 00H, '\', 00H, '!', 00H, 'd', 00H, 'i', 00H, 'f', 00H
	DB	'f', 00H, 'u', 00H, 's', 00H, 'i', 00H, 'o', 00H, 'n', 00H, ' '
	DB	00H, '2', 00H, '0', 00H, '2', 00H, '0', 00H, '\', 00H, 's', 00H
	DB	'o', 00H, 'u', 00H, 'r', 00H, 'c', 00H, 'e', 00H, ' ', 00H, 'c'
	DB	00H, 'o', 00H, 'd', 00H, 'e', 00H, ' ', 00H, '2', 00H, '0', 00H
	DB	'2', 00H, '2', 00H, '\', 00H, 'c', 00H, 'l', 00H, 'i', 00H, 'e'
	DB	00H, 'n', 00H, 't', 00H, '-', 00H, 's', 00H, 'e', 00H, 'r', 00H
	DB	'v', 00H, 'e', 00H, 'r', 00H, '\', 00H, 'g', 00H, 'a', 00H, 'm'
	DB	00H, 'e', 00H, '_', 00H, 's', 00H, 'h', 00H, 'a', 00H, 'r', 00H
	DB	'e', 00H, 'd', 00H, '\', 00H, 'u', 00H, 't', 00H, 'l', 00H, 'a'
	DB	00H, 'r', 00H, 'r', 00H, 'a', 00H, 'y', 00H, '.', 00H, 'h', 00H
	DB	00H, 00H					; `string'
CONST	ENDS
;	COMDAT ??_C@_0BE@MJCFAFFO@?$CGCLaserSpot?3?3Revive?$AA@
CONST	SEGMENT
??_C@_0BE@MJCFAFFO@?$CGCLaserSpot?3?3Revive?$AA@ DB '&CLaserSpot::Revive', 00H ; `string'
CONST	ENDS
;	COMDAT ??_7?$CEntityFactory@VCLaserSpot@@@@6B@
CONST	SEGMENT
??_7?$CEntityFactory@VCLaserSpot@@@@6B@ DD FLAT:??_R4?$CEntityFactory@VCLaserSpot@@@@6B@ ; CEntityFactory<CLaserSpot>::`vftable'
	DD	FLAT:?Create@?$CEntityFactory@VCLaserSpot@@@@UAEPAVCBaseEntity@@PBDPAUentvars_s@@@Z
	DD	FLAT:?Destroy@?$CEntityFactory@VCLaserSpot@@@@UAEXPAVCBaseEntity@@@Z
	DD	FLAT:?GetEntitySize@?$CEntityFactory@VCLaserSpot@@@@UAEIXZ
CONST	ENDS
;	COMDAT ??_C@_0L@PKAMAFCB@laser_spot?$AA@
CONST	SEGMENT
??_C@_0L@PKAMAFCB@laser_spot?$AA@ DB 'laser_spot', 00H	; `string'
CONST	ENDS
;	COMDAT ??_C@_06PGKKGABA@Revive?$AA@
CONST	SEGMENT
??_C@_06PGKKGABA@Revive?$AA@ DB 'Revive', 00H		; `string'
CONST	ENDS
;	COMDAT ??_C@_0O@DAGEOIDI@m_iclip?3?5?5?$CFi?6?$AA@
CONST	SEGMENT
??_C@_0O@DAGEOIDI@m_iclip?3?5?5?$CFi?6?$AA@ DB 'm_iclip:  %i', 0aH, 00H ; `string'
CONST	ENDS
;	COMDAT ??_C@_0O@LOGEBMBD@m_finre?3?5?5?$CFi?6?$AA@
CONST	SEGMENT
??_C@_0O@LOGEBMBD@m_finre?3?5?5?$CFi?6?$AA@ DB 'm_finre:  %i', 0aH, 00H ; `string'
CONST	ENDS
;	COMDAT ??_C@_0O@BBKDGOHF@idle?5?5?5?3?5?5?$CFf?6?$AA@
CONST	SEGMENT
??_C@_0O@BBKDGOHF@idle?5?5?5?3?5?5?$CFf?6?$AA@ DB 'idle   :  %f', 0aH, 00H ; `string'
CONST	ENDS
;	COMDAT ??_C@_0O@IIHAKPII@primary?3?5?5?$CFf?6?$AA@
CONST	SEGMENT
??_C@_0O@IIHAKPII@primary?3?5?5?$CFf?6?$AA@ DB 'primary:  %f', 0aH, 00H ; `string'
CONST	ENDS
;	COMDAT ??_C@_0BJ@HGOABKLC@out?5of?5named?5ammo?5slots?6?$AA@
CONST	SEGMENT
??_C@_0BJ@HGOABKLC@out?5of?5named?5ammo?5slots?6?$AA@ DB 'out of named am'
	DB	'mo slots', 0aH, 00H				; `string'
CONST	ENDS
;	COMDAT ??_C@_0BK@IMKFEDKG@NULL?5String?5in?5PackAmmo?$CB?6?$AA@
CONST	SEGMENT
??_C@_0BK@IMKFEDKG@NULL?5String?5in?5PackAmmo?$CB?6?$AA@ DB 'NULL String '
	DB	'in PackAmmo!', 0aH, 00H			; `string'
CONST	ENDS
;	COMDAT ??_C@_0BF@FIJIKGHL@items?1gunpickup2?4wav?$AA@
CONST	SEGMENT
??_C@_0BF@FIJIKGHL@items?1gunpickup2?4wav?$AA@ DB 'items/gunpickup2.wav', 00H ; `string'
CONST	ENDS
;	COMDAT ??_C@_0CP@GGAKEPLH@WeaponBox?5too?5full?$CB?5only?5?$CFd?5ammo@
CONST	SEGMENT
??_C@_0CP@GGAKEPLH@WeaponBox?5too?5full?$CB?5only?5?$CFd?5ammo@ DB 'Weapo'
	DB	'nBox too full! only %d ammotypes allowed', 0aH, 00H ; `string'
CONST	ENDS
;	COMDAT ??_C@_0BH@BOHLGHCG@models?1w_weaponbox?4mdl?$AA@
CONST	SEGMENT
??_C@_0BH@BOHLGHCG@models?1w_weaponbox?4mdl?$AA@ DB 'models/w_weaponbox.m'
	DB	'dl', 00H					; `string'
CONST	ENDS
;	COMDAT ??_C@_04NIFFMPNM@Kill?$AA@
CONST	SEGMENT
??_C@_04NIFFMPNM@Kill?$AA@ DB 'Kill', 00H		; `string'
CONST	ENDS
;	COMDAT ??_7?$CEntityFactory@VCWeaponBox@@@@6B@
CONST	SEGMENT
??_7?$CEntityFactory@VCWeaponBox@@@@6B@ DD FLAT:??_R4?$CEntityFactory@VCWeaponBox@@@@6B@ ; CEntityFactory<CWeaponBox>::`vftable'
	DD	FLAT:?Create@?$CEntityFactory@VCWeaponBox@@@@UAEPAVCBaseEntity@@PBDPAUentvars_s@@@Z
	DD	FLAT:?Destroy@?$CEntityFactory@VCWeaponBox@@@@UAEXPAVCBaseEntity@@@Z
	DD	FLAT:?GetEntitySize@?$CEntityFactory@VCWeaponBox@@@@UAEIXZ
CONST	ENDS
;	COMDAT ??_C@_0BO@GFGNCAEL@?$CGCBasePlayerAmmo?3?3Materialize?$AA@
CONST	SEGMENT
??_C@_0BO@GFGNCAEL@?$CGCBasePlayerAmmo?3?3Materialize?$AA@ DB '&CBasePlay'
	DB	'erAmmo::Materialize', 00H			; `string'
CONST	ENDS
;	COMDAT ??_C@_0BP@BFENDEDA@?$CGCBasePlayerAmmo?3?3DefaultTouch?$AA@
CONST	SEGMENT
??_C@_0BP@BFENDEDA@?$CGCBasePlayerAmmo?3?3DefaultTouch?$AA@ DB '&CBasePla'
	DB	'yerAmmo::DefaultTouch', 00H			; `string'
CONST	ENDS
;	COMDAT ??_C@_0N@IBIPEELC@UTIL_LOWAMMO?$AA@
CONST	SEGMENT
??_C@_0N@IBIPEELC@UTIL_LOWAMMO?$AA@ DB 'UTIL_LOWAMMO', 00H ; `string'
CONST	ENDS
;	COMDAT ??_C@_0BG@FDJOBCGH@weapons?1357_cock1?4wav?$AA@
CONST	SEGMENT
??_C@_0BG@FDJOBCGH@weapons?1357_cock1?4wav?$AA@ DB 'weapons/357_cock1.wav'
	DB	00H						; `string'
CONST	ENDS
;	COMDAT ??_C@_0DF@FFENENKD@DefaultDeploy?3?5Got?50?5at?5m_szAnim@
CONST	SEGMENT
??_C@_0DF@FFENENKD@DefaultDeploy?3?5Got?50?5at?5m_szAnim@ DB 'DefaultDepl'
	DB	'oy: Got 0 at m_szAnimExtention for "%s"!', 0aH, 00H ; `string'
CONST	ENDS
;	COMDAT ??_C@_0BO@FBKEEOOJ@Respawn?5failed?5to?5create?5?$CFs?$CB?6?$AA@
CONST	SEGMENT
??_C@_0BO@FBKEEOOJ@Respawn?5failed?5to?5create?5?$CFs?$CB?6?$AA@ DB 'Resp'
	DB	'awn failed to create %s!', 0aH, 00H		; `string'
CONST	ENDS
;	COMDAT ??_C@_0CH@DALHADCA@?$CGCBasePlayerItem?3?3AttemptToMater@
CONST	SEGMENT
??_C@_0CH@DALHADCA@?$CGCBasePlayerItem?3?3AttemptToMater@ DB '&CBasePlaye'
	DB	'rItem::AttemptToMaterialize', 00H		; `string'
CONST	ENDS
;	COMDAT ??_C@_0BH@OEELEOCP@?$CGCBasePlayerItem?3?3Kill?$AA@
CONST	SEGMENT
??_C@_0BH@OEELEOCP@?$CGCBasePlayerItem?3?3Kill?$AA@ DB '&CBasePlayerItem:'
	DB	':Kill', 00H					; `string'
CONST	ENDS
;	COMDAT ??_C@_04HIBGFPH@NULL?$AA@
CONST	SEGMENT
??_C@_04HIBGFPH@NULL?$AA@ DB 'NULL', 00H		; `string'
CONST	ENDS
;	COMDAT ??_C@_0BI@KOCMOAHK@items?1suitchargeok1?4wav?$AA@
CONST	SEGMENT
??_C@_0BI@KOCMOAHK@items?1suitchargeok1?4wav?$AA@ DB 'items/suitchargeok1'
	DB	'.wav', 00H					; `string'
CONST	ENDS
;	COMDAT ??_C@_0BM@IMJCHABI@?$CGCBasePlayerItem?3?3FallThink?$AA@
CONST	SEGMENT
??_C@_0BM@IMJCHABI@?$CGCBasePlayerItem?3?3FallThink?$AA@ DB '&CBasePlayer'
	DB	'Item::FallThink', 00H			; `string'
CONST	ENDS
;	COMDAT ??_C@_0BP@KLPMAHLN@?$CGCBasePlayerItem?3?3DefaultTouch?$AA@
CONST	SEGMENT
??_C@_0BP@KLPMAHLN@?$CGCBasePlayerItem?3?3DefaultTouch?$AA@ DB '&CBasePla'
	DB	'yerItem::DefaultTouch', 00H			; `string'
CONST	ENDS
;	COMDAT ??_C@_0BF@FNHCPPFE@AttemptToMaterialize?$AA@
CONST	SEGMENT
??_C@_0BF@FNHCPPFE@AttemptToMaterialize?$AA@ DB 'AttemptToMaterialize', 00H ; `string'
CONST	ENDS
;	COMDAT ??_C@_0M@DKBJDEPK@Materialize?$AA@
CONST	SEGMENT
??_C@_0M@DKBJDEPK@Materialize?$AA@ DB 'Materialize', 00H ; `string'
CONST	ENDS
;	COMDAT ??_C@_09LDKIHMEO@FallThink?$AA@
CONST	SEGMENT
??_C@_09LDKIHMEO@FallThink?$AA@ DB 'FallThink', 00H	; `string'
CONST	ENDS
;	COMDAT ??_C@_0N@KJHEMDDO@DefaultTouch?$AA@
CONST	SEGMENT
??_C@_0N@KJHEMDDO@DefaultTouch?$AA@ DB 'DefaultTouch', 00H ; `string'
CONST	ENDS
;	COMDAT ??_C@_0M@LGKKMEBN@DestroyItem?$AA@
CONST	SEGMENT
??_C@_0M@LGKKMEBN@DestroyItem?$AA@ DB 'DestroyItem', 00H ; `string'
CONST	ENDS
;	COMDAT ??_C@_0BO@JJIOHFDC@weapons?1splauncher_impact?4wav?$AA@
CONST	SEGMENT
??_C@_0BO@JJIOHFDC@weapons?1splauncher_impact?4wav?$AA@ DB 'weapons/splau'
	DB	'ncher_impact.wav', 00H			; `string'
CONST	ENDS
;	COMDAT ??_C@_0BG@CGGPMCHD@items?1weapondrop1?4wav?$AA@
CONST	SEGMENT
??_C@_0BG@CGGPMCHD@items?1weapondrop1?4wav?$AA@ DB 'items/weapondrop1.wav'
	DB	00H						; `string'
CONST	ENDS
;	COMDAT ??_C@_0BI@ICHLCGHM@weapons?1bullet_hit2?4wav?$AA@
CONST	SEGMENT
??_C@_0BI@ICHLCGHM@weapons?1bullet_hit2?4wav?$AA@ DB 'weapons/bullet_hit2'
	DB	'.wav', 00H					; `string'
CONST	ENDS
;	COMDAT ??_C@_0BI@EOPFENC@weapons?1bullet_hit1?4wav?$AA@
CONST	SEGMENT
??_C@_0BI@EOPFENC@weapons?1bullet_hit1?4wav?$AA@ DB 'weapons/bullet_hit1.'
	DB	'wav', 00H					; `string'
CONST	ENDS
;	COMDAT ??_C@_0BJ@DBKCDHK@weapons?1grenade_hit3?4wav?$AA@
CONST	SEGMENT
??_C@_0BJ@DBKCDHK@weapons?1grenade_hit3?4wav?$AA@ DB 'weapons/grenade_hit'
	DB	'3.wav', 00H					; `string'
CONST	ENDS
;	COMDAT ??_C@_0BJ@MIEGPANP@weapons?1grenade_hit2?4wav?$AA@
CONST	SEGMENT
??_C@_0BJ@MIEGPANP@weapons?1grenade_hit2?4wav?$AA@ DB 'weapons/grenade_hi'
	DB	't2.wav', 00H				; `string'
CONST	ENDS
;	COMDAT ??_C@_0BJ@EONCICHB@weapons?1grenade_hit1?4wav?$AA@
CONST	SEGMENT
??_C@_0BJ@EONCICHB@weapons?1grenade_hit1?4wav?$AA@ DB 'weapons/grenade_hi'
	DB	't1.wav', 00H				; `string'
CONST	ENDS
;	COMDAT ??_C@_0BE@NEFCKBPJ@weapons?1debris3?4wav?$AA@
CONST	SEGMENT
??_C@_0BE@NEFCKBPJ@weapons?1debris3?4wav?$AA@ DB 'weapons/debris3.wav', 00H ; `string'
CONST	ENDS
;	COMDAT ??_C@_0BE@BPAOHCFM@weapons?1debris2?4wav?$AA@
CONST	SEGMENT
??_C@_0BE@BPAOHCFM@weapons?1debris2?4wav?$AA@ DB 'weapons/debris2.wav', 00H ; `string'
CONST	ENDS
;	COMDAT ??_C@_0BE@JJJKAAPC@weapons?1debris1?4wav?$AA@
CONST	SEGMENT
??_C@_0BE@JJJKAAPC@weapons?1debris1?4wav?$AA@ DB 'weapons/debris1.wav', 00H ; `string'
CONST	ENDS
;	COMDAT ??_C@_0BF@GCBOLJMB@sprites?1explode1?4spr?$AA@
CONST	SEGMENT
??_C@_0BF@GCBOLJMB@sprites?1explode1?4spr?$AA@ DB 'sprites/explode1.spr', 00H ; `string'
CONST	ENDS
;	COMDAT ??_C@_0BD@HNJLMAMD@models?1grenade?4mdl?$AA@
CONST	SEGMENT
??_C@_0BD@HNJLMAMD@models?1grenade?4mdl?$AA@ DB 'models/grenade.mdl', 00H ; `string'
CONST	ENDS
;	COMDAT ??_C@_0BG@BLGGLBDG@sprites?1shockwave?4spr?$AA@
CONST	SEGMENT
??_C@_0BG@BLGGLBDG@sprites?1shockwave?4spr?$AA@ DB 'sprites/shockwave.spr'
	DB	00H						; `string'
CONST	ENDS
;	COMDAT ??_C@_0BF@ILAFLNHD@sprites?1tinyspit?4spr?$AA@
CONST	SEGMENT
??_C@_0BF@ILAFLNHD@sprites?1tinyspit?4spr?$AA@ DB 'sprites/tinyspit.spr', 00H ; `string'
CONST	ENDS
;	COMDAT ??_C@_0BF@LHKHEIDI@sprites?1laserdot?4spr?$AA@
CONST	SEGMENT
??_C@_0BF@LHKHEIDI@sprites?1laserdot?4spr?$AA@ DB 'sprites/laserdot.spr', 00H ; `string'
CONST	ENDS
;	COMDAT ??_C@_0BJ@CKJPBHMC@models?1npc?1dronegibs?4mdl?$AA@
CONST	SEGMENT
??_C@_0BJ@CKJPBHMC@models?1npc?1dronegibs?4mdl?$AA@ DB 'models/npc/droneg'
	DB	'ibs.mdl', 00H				; `string'
CONST	ENDS
;	COMDAT ??_C@_0BC@MCDECAEM@sprites?1fire3?4spr?$AA@
CONST	SEGMENT
??_C@_0BC@MCDECAEM@sprites?1fire3?4spr?$AA@ DB 'sprites/fire3.spr', 00H ; `string'
CONST	ENDS
;	COMDAT ??_C@_0BC@NDANIGIC@sprites?1blood?4spr?$AA@
CONST	SEGMENT
??_C@_0BC@NDANIGIC@sprites?1blood?4spr?$AA@ DB 'sprites/blood.spr', 00H ; `string'
CONST	ENDS
;	COMDAT ??_C@_0BH@KCADAOLD@sprites?1bloodspray?4spr?$AA@
CONST	SEGMENT
??_C@_0BH@KCADAOLD@sprites?1bloodspray?4spr?$AA@ DB 'sprites/bloodspray.s'
	DB	'pr', 00H					; `string'
CONST	ENDS
;	COMDAT ??_C@_0BD@CIFPGIGI@sprites?1bubble?4spr?$AA@
CONST	SEGMENT
??_C@_0BD@CIFPGIGI@sprites?1bubble?4spr?$AA@ DB 'sprites/bubble.spr', 00H ; `string'
CONST	ENDS
;	COMDAT ??_C@_0BD@HDGDDDCC@sprites?1steam1?4spr?$AA@
CONST	SEGMENT
??_C@_0BD@HDGDDDCC@sprites?1steam1?4spr?$AA@ DB 'sprites/steam1.spr', 00H ; `string'
CONST	ENDS
;	COMDAT ??_C@_0BD@PKIKCPOP@sprites?1WXplo1?4spr?$AA@
CONST	SEGMENT
??_C@_0BD@PKIKCPOP@sprites?1WXplo1?4spr?$AA@ DB 'sprites/WXplo1.spr', 00H ; `string'
CONST	ENDS
;	COMDAT ??_C@_0BI@OKNOKJPL@sprites?1zerogxplode?4spr?$AA@
CONST	SEGMENT
??_C@_0BI@OKNOKJPL@sprites?1zerogxplode?4spr?$AA@ DB 'sprites/zerogxplode'
	DB	'.spr', 00H					; `string'
CONST	ENDS
;	COMDAT ??_C@_09ENPIJEF@weaponbox?$AA@
CONST	SEGMENT
??_C@_09ENPIJEF@weaponbox?$AA@ DB 'weaponbox', 00H	; `string'
CONST	ENDS
;	COMDAT ??_C@_0M@LDNNKFND@weapon_g36c?$AA@
CONST	SEGMENT
??_C@_0M@LDNNKFND@weapon_g36c?$AA@ DB 'weapon_g36c', 00H ; `string'
CONST	ENDS
;	COMDAT ??_C@_0O@IENCGDEG@weapon_sniper?$AA@
CONST	SEGMENT
??_C@_0O@IENCGDEG@weapon_sniper?$AA@ DB 'weapon_sniper', 00H ; `string'
CONST	ENDS
;	COMDAT ??_C@_0BB@JLPINHFH@weapon_fiveseven?$AA@
CONST	SEGMENT
??_C@_0BB@JLPINHFH@weapon_fiveseven?$AA@ DB 'weapon_fiveseven', 00H ; `string'
CONST	ENDS
;	COMDAT ??_C@_0N@EGABDPCI@weapon_hkmp5?$AA@
CONST	SEGMENT
??_C@_0N@EGABDPCI@weapon_hkmp5?$AA@ DB 'weapon_hkmp5', 00H ; `string'
CONST	ENDS
;	COMDAT ??_C@_0O@CJMKLEPM@weapon_sentry?$AA@
CONST	SEGMENT
??_C@_0O@CJMKLEPM@weapon_sentry?$AA@ DB 'weapon_sentry', 00H ; `string'
CONST	ENDS
;	COMDAT ??_C@_0N@FKDJBBAF@weapon_drone?$AA@
CONST	SEGMENT
??_C@_0N@FKDJBBAF@weapon_drone?$AA@ DB 'weapon_drone', 00H ; `string'
CONST	ENDS
;	COMDAT ??_C@_0L@FPDLLADF@weapon_ar2?$AA@
CONST	SEGMENT
??_C@_0L@FPDLLADF@weapon_ar2?$AA@ DB 'weapon_ar2', 00H	; `string'
CONST	ENDS
;	COMDAT ??_C@_0BD@DKJAMAOF@weapon_handgrenade?$AA@
CONST	SEGMENT
??_C@_0BD@DKJAMAOF@weapon_handgrenade?$AA@ DB 'weapon_handgrenade', 00H ; `string'
CONST	ENDS
;	COMDAT ??_C@_0P@NDDAPDLL@weapon_satchel?$AA@
CONST	SEGMENT
??_C@_0P@NDDAPDLL@weapon_satchel?$AA@ DB 'weapon_satchel', 00H ; `string'
CONST	ENDS
;	COMDAT ??_C@_0BA@NAEGPHIJ@weapon_tripmine?$AA@
CONST	SEGMENT
??_C@_0BA@NAEGPHIJ@weapon_tripmine?$AA@ DB 'weapon_tripmine', 00H ; `string'
CONST	ENDS
;	COMDAT ??_C@_0O@DMPMCOMO@ammo_crossbow?$AA@
CONST	SEGMENT
??_C@_0O@DMPMCOMO@ammo_crossbow?$AA@ DB 'ammo_crossbow', 00H ; `string'
CONST	ENDS
;	COMDAT ??_C@_0BA@IMEECLKD@weapon_crossbow?$AA@
CONST	SEGMENT
??_C@_0BA@IMEECLKD@weapon_crossbow?$AA@ DB 'weapon_crossbow', 00H ; `string'
CONST	ENDS
;	COMDAT ??_C@_0N@FDODGIHO@ammo_rpgclip?$AA@
CONST	SEGMENT
??_C@_0N@FDODGIHO@ammo_rpgclip?$AA@ DB 'ammo_rpgclip', 00H ; `string'
CONST	ENDS
;	COMDAT ??_C@_0L@NJNPDFDL@weapon_rpg?$AA@
CONST	SEGMENT
??_C@_0L@NJNPDFDL@weapon_rpg?$AA@ DB 'weapon_rpg', 00H	; `string'
CONST	ENDS
;	COMDAT ??_C@_0P@BLGPJBGG@ammo_gaussclip?$AA@
CONST	SEGMENT
??_C@_0P@BLGPJBGG@ammo_gaussclip?$AA@ DB 'ammo_gaussclip', 00H ; `string'
CONST	ENDS
;	COMDAT ??_C@_0BB@PMMHEOKD@weapon_gausniper?$AA@
CONST	SEGMENT
??_C@_0BB@PMMHEOKD@weapon_gausniper?$AA@ DB 'weapon_gausniper', 00H ; `string'
CONST	ENDS
;	COMDAT ??_C@_08OALJNDGM@ammo_357?$AA@
CONST	SEGMENT
??_C@_08OALJNDGM@ammo_357?$AA@ DB 'ammo_357', 00H	; `string'
CONST	ENDS
;	COMDAT ??_C@_0L@DGJNBIBM@weapon_357?$AA@
CONST	SEGMENT
??_C@_0L@DGJNBIBM@weapon_357?$AA@ DB 'weapon_357', 00H	; `string'
CONST	ENDS
;	COMDAT ??_C@_0BA@KLCOFANC@ammo_ARgrenades?$AA@
CONST	SEGMENT
??_C@_0BA@KLCOFANC@ammo_ARgrenades?$AA@ DB 'ammo_ARgrenades', 00H ; `string'
CONST	ENDS
;	COMDAT ??_C@_0L@CCAPNHPH@ammo_9mmAR?$AA@
CONST	SEGMENT
??_C@_0L@CCAPNHPH@ammo_9mmAR?$AA@ DB 'ammo_9mmAR', 00H	; `string'
CONST	ENDS
;	COMDAT ??_C@_0N@BIGGDBN@weapon_9mmAR?$AA@
CONST	SEGMENT
??_C@_0N@BIGGDBN@weapon_9mmAR?$AA@ DB 'weapon_9mmAR', 00H ; `string'
CONST	ENDS
;	COMDAT ??_C@_0N@IAIGGIKN@ammo_9mmclip?$AA@
CONST	SEGMENT
??_C@_0N@IAIGGIKN@ammo_9mmclip?$AA@ DB 'ammo_9mmclip', 00H ; `string'
CONST	ENDS
;	COMDAT ??_C@_0BC@GDALAHJA@weapon_9mmhandgun?$AA@
CONST	SEGMENT
??_C@_0BC@GDALAHJA@weapon_9mmhandgun?$AA@ DB 'weapon_9mmhandgun', 00H ; `string'
CONST	ENDS
;	COMDAT ??_C@_0N@CFAHNHDH@weapon_knife?$AA@
CONST	SEGMENT
??_C@_0N@CFAHNHDH@weapon_knife?$AA@ DB 'weapon_knife', 00H ; `string'
CONST	ENDS
;	COMDAT ??_C@_0O@ENPHGKLB@ammo_buckshot?$AA@
CONST	SEGMENT
??_C@_0O@ENPHGKLB@ammo_buckshot?$AA@ DB 'ammo_buckshot', 00H ; `string'
CONST	ENDS
;	COMDAT ??_C@_0BC@OCDMEOEA@weapon_shotgun_xm?$AA@
CONST	SEGMENT
??_C@_0BC@OCDMEOEA@weapon_shotgun_xm?$AA@ DB 'weapon_shotgun_xm', 00H ; `string'
CONST	ENDS
;	COMDAT ??_C@_0P@ILAKNOAG@weapon_shotgun?$AA@
CONST	SEGMENT
??_C@_0P@ILAKNOAG@weapon_shotgun?$AA@ DB 'weapon_shotgun', 00H ; `string'
CONST	ENDS
;	COMDAT ??_C@_09PNLMJFNO@item_suit?$AA@
CONST	SEGMENT
??_C@_09PNLMJFNO@item_suit?$AA@ DB 'item_suit', 00H	; `string'
CONST	ENDS
;	COMDAT ??_C@_0CG@PAFNIJCC@NULL?5Ent?5in?5UTIL_PrecacheOtherWe@
CONST	SEGMENT
??_C@_0CG@PAFNIJCC@NULL?5Ent?5in?5UTIL_PrecacheOtherWe@ DB 'NULL Ent in U'
	DB	'TIL_PrecacheOtherWeapon', 0aH, 00H		; `string'
CONST	ENDS
;	COMDAT ??_C@_0BN@PGDBFCCH@giAmmoIndex?5?$DM?5MAX_AMMO_SLOTS?$AA@
CONST	SEGMENT
??_C@_0BN@PGDBFCCH@giAmmoIndex?5?$DM?5MAX_AMMO_SLOTS?$AA@ DB 'giAmmoIndex'
	DB	' < MAX_AMMO_SLOTS', 00H			; `string'
CONST	ENDS
;	COMDAT ??_C@_0EN@KEDJBJDH@d?3?2?$CBdiffusion?52020?2source?5code?52@
CONST	SEGMENT
??_C@_0EN@KEDJBJDH@d?3?2?$CBdiffusion?52020?2source?5code?52@ DB 'd:\!dif'
	DB	'fusion 2020\source code 2022\client-server\server\weapons\wea'
	DB	'pons.cpp', 00H				; `string'
CONST	ENDS
;	COMDAT ?__LINE__Var@?0??AddAmmoNameToAmmoRegistry@@YAXPBD@Z@4JA
_DATA	SEGMENT
?__LINE__Var@?0??AddAmmoNameToAmmoRegistry@@YAXPBD@Z@4JA DD 0146H ; `AddAmmoNameToAmmoRegistry'::`1'::__LINE__Var
_DATA	ENDS
;	COMDAT ??_C@_0CI@BEIKHBNH@MaxAmmoCarry?$CI?$CJ?5doesn?8t?5recognize@
CONST	SEGMENT
??_C@_0CI@BEIKHBNH@MaxAmmoCarry?$CI?$CJ?5doesn?8t?5recognize@ DB 'MaxAmmo'
	DB	'Carry() doesn''t recognize ''%s''!', 0aH, 00H ; `string'
CONST	ENDS
;	COMDAT ??_7CLaserSpot@@6B@
CONST	SEGMENT
??_7CLaserSpot@@6B@ DD FLAT:??_R4CLaserSpot@@6B@	; CLaserSpot::`vftable'
	DD	FLAT:?GetDataDescMap@CLaserSpot@@UAEPAUdatamap_s@@XZ
	DD	FLAT:?Spawn@CLaserSpot@@EAEXXZ
	DD	FLAT:?Precache@CLaserSpot@@EAEXXZ
	DD	FLAT:?KeyValue@CBaseEntity@@UAEXPAUKeyValueData_s@@@Z
	DD	FLAT:?Save@CBaseEntity@@UAEHAAVCSave@@@Z
	DD	FLAT:?Restore@CBaseEntity@@UAEHAAVCRestore@@@Z
	DD	FLAT:?ObjectCaps@CLaserSpot@@EAEHXZ
	DD	FLAT:?Activate@CBaseEntity@@UAEXXZ
	DD	FLAT:?OnChangeLevel@CBaseEntity@@UAEXXZ
	DD	FLAT:?OnTeleport@CBaseEntity@@UAEXXZ
	DD	FLAT:?PortalSleep@CBaseEntity@@UAEXM@Z
	DD	FLAT:?StartMessage@CBaseEntity@@UAEXPAVCBasePlayer@@@Z
	DD	FLAT:?GetPosition@CBaseEntity@@UAEMXZ
	DD	FLAT:?OnChangeParent@CBaseEntity@@UAEXXZ
	DD	FLAT:?OnClearParent@CBaseEntity@@UAEXXZ
	DD	FLAT:?OnRemove@CBaseEntity@@UAEXXZ
	DD	FLAT:?SetObjectCollisionBox@CBaseEntity@@UAEXXZ
	DD	FLAT:?Classify@CBaseEntity@@UAEHXZ
	DD	FLAT:?DeathNotice@CBaseEntity@@UAEXPAUentvars_s@@@Z
	DD	FLAT:?IsRigidBody@CBaseEntity@@UAEHXZ
	DD	FLAT:?SetNextThink@CBaseEntity@@UAEXM@Z
	DD	FLAT:?GetState@CBaseEntity@@UAE?AW4STATE@@PAV1@@Z
	DD	FLAT:?GetState@CBaseEntity@@UAE?AW4STATE@@XZ
	DD	FLAT:?TraceAttack@CBaseEntity@@UAEXPAUentvars_s@@MVVector@@PAUgametrace_s@@H@Z
	DD	FLAT:?TakeDamage@CBaseEntity@@UAEHPAUentvars_s@@0MH@Z
	DD	FLAT:?TakeHealth@CBaseEntity@@UAEHMH@Z
	DD	FLAT:?TakeArmor@CBaseEntity@@UAEHMH@Z
	DD	FLAT:?Killed@CBaseEntity@@UAEXPAUentvars_s@@H@Z
	DD	FLAT:?BloodColor@CBaseEntity@@UAEHXZ
	DD	FLAT:?TraceBleed@CBaseEntity@@UAEXMVVector@@PAUgametrace_s@@H@Z
	DD	FLAT:?IsTriggered@CBaseEntity@@UAEHPAV1@@Z
	DD	FLAT:?MyMonsterPointer@CBaseEntity@@UAEPAVCBaseMonster@@XZ
	DD	FLAT:?MySquadMonsterPointer@CBaseEntity@@UAEPAVCSquadMonster@@XZ
	DD	FLAT:?GetToggleState@CBaseEntity@@UAEHXZ
	DD	FLAT:?AddPoints@CBaseEntity@@UAEXHH@Z
	DD	FLAT:?AddPointsToTeam@CBaseEntity@@UAEXHH@Z
	DD	FLAT:?AddPlayerItem@CBaseEntity@@UAEHPAVCBasePlayerItem@@@Z
	DD	FLAT:?RemovePlayerItem@CBaseEntity@@UAEHPAVCBasePlayerItem@@@Z
	DD	FLAT:?GiveAmmo@CBaseEntity@@UAEHHPADH@Z
	DD	FLAT:?GetDelay@CBaseEntity@@UAEMXZ
	DD	FLAT:?IsMoving@CBaseEntity@@UAEHXZ
	DD	FLAT:?OverrideReset@CBaseEntity@@UAEXXZ
	DD	FLAT:?TransferReset@CBaseEntity@@UAEXXZ
	DD	FLAT:?DamageDecal@CBaseEntity@@UAEHH@Z
	DD	FLAT:?SetToggleState@CBaseEntity@@UAEXH@Z
	DD	FLAT:?StartSneaking@CBaseEntity@@UAEXXZ
	DD	FLAT:?StopSneaking@CBaseEntity@@UAEXXZ
	DD	FLAT:?OnControls@CBaseEntity@@UAEHPAV1@@Z
	DD	FLAT:?IsSneaking@CBaseEntity@@UAEHXZ
	DD	FLAT:?IsAlive@CBaseEntity@@UAEHXZ
	DD	FLAT:?IsBSPModel@CBaseEntity@@UAEHXZ
	DD	FLAT:?IsCustomModel@CBaseEntity@@UAEHXZ
	DD	FLAT:?ReflectGauss@CBaseEntity@@UAEHXZ
	DD	FLAT:?HasTarget@CBaseEntity@@UAEHH@Z
	DD	FLAT:?IsInWorld@CBaseEntity@@UAEHH@Z
	DD	FLAT:?IsPlayer@CBaseEntity@@UAEHXZ
	DD	FLAT:?IsNetClient@CBaseEntity@@UAEHXZ
	DD	FLAT:?IsMonster@CBaseEntity@@UAEHXZ
	DD	FLAT:?IsPushable@CBaseEntity@@UAEHXZ
	DD	FLAT:?IsProjectile@CBaseEntity@@UAEHXZ
	DD	FLAT:?IsFuncScreen@CBaseEntity@@UAEHXZ
	DD	FLAT:?IsPortal@CBaseEntity@@UAEHXZ
	DD	FLAT:?IsTank@CBaseEntity@@UAEHXZ
	DD	FLAT:?IsMover@CBaseEntity@@UAEHXZ
	DD	FLAT:?IsBreakable@CBaseEntity@@UAEHXZ
	DD	FLAT:?TeamID@CBaseEntity@@UAEPBDXZ
	DD	FLAT:?AddSpawnFlags@CBaseEntity@@UAEXH@Z
	DD	FLAT:?HasSpawnFlags@CBaseEntity@@UBE_NH@Z
	DD	FLAT:?SetFadeDistance@CBaseEntity@@UAEXH@Z
	DD	FLAT:?SetFlag@CBaseEntity@@UAEXH@Z
	DD	FLAT:?HasFlag@CBaseEntity@@UBE_NH@Z
	DD	FLAT:?RemoveFlag@CBaseEntity@@UAEXH@Z
	DD	FLAT:?SetNullModel@CBaseEntity@@UAEXXZ
	DD	FLAT:?OnPickupObject@CBaseEntity@@UAEXXZ
	DD	FLAT:?OnDropObject@CBaseEntity@@UAEXXZ
	DD	FLAT:?GetNextTarget@CBaseEntity@@UAEPAV1@XZ
	DD	FLAT:?Think@CBaseEntity@@UAEXXZ
	DD	FLAT:?Use@CBaseEntity@@UAEXPAV1@0W4USE_TYPE@@M@Z
	DD	FLAT:?Touch@CBaseEntity@@UAEXPAV1@@Z
	DD	FLAT:?Blocked@CBaseEntity@@UAEXPAV1@@Z
	DD	FLAT:?MoveDone@CBaseEntity@@UAEXXZ
	DD	FLAT:?Respawn@CBaseEntity@@UAEPAV1@XZ
	DD	FLAT:?UpdateOwner@CBaseEntity@@UAEXXZ
	DD	FLAT:?FBecomeProne@CBaseEntity@@UAEHXZ
	DD	FLAT:?Center@CBaseEntity@@UAE?AVVector@@XZ
	DD	FLAT:?EyePosition@CBaseEntity@@UAE?AVVector@@XZ
	DD	FLAT:?EarPosition@CBaseEntity@@UAE?AVVector@@XZ
	DD	FLAT:?BodyTarget@CBaseEntity@@UAE?AVVector@@ABV2@@Z
	DD	FLAT:?IsPointSized@CBaseEntity@@UBEHXZ
	DD	FLAT:?Illumination@CBaseEntity@@UAEHXZ
	DD	FLAT:?FVisible@CBaseEntity@@UAEHABVVector@@@Z
	DD	FLAT:?FVisible@CBaseEntity@@UAEHPAV1@@Z
	DD	FLAT:?ShouldCollide@CBaseEntity@@UAEHPAV1@@Z
	DD	FLAT:?ClearEffects@CBaseEntity@@UAEXXZ
CONST	ENDS
;	COMDAT ??_7CWeaponBox@@6B@
CONST	SEGMENT
??_7CWeaponBox@@6B@ DD FLAT:??_R4CWeaponBox@@6B@	; CWeaponBox::`vftable'
	DD	FLAT:?GetDataDescMap@CWeaponBox@@UAEPAUdatamap_s@@XZ
	DD	FLAT:?Spawn@CWeaponBox@@EAEXXZ
	DD	FLAT:?Precache@CWeaponBox@@EAEXXZ
	DD	FLAT:?KeyValue@CWeaponBox@@EAEXPAUKeyValueData_s@@@Z
	DD	FLAT:?Save@CBaseEntity@@UAEHAAVCSave@@@Z
	DD	FLAT:?Restore@CBaseEntity@@UAEHAAVCRestore@@@Z
	DD	FLAT:?ObjectCaps@CBaseEntity@@UAEHXZ
	DD	FLAT:?Activate@CBaseEntity@@UAEXXZ
	DD	FLAT:?OnChangeLevel@CBaseEntity@@UAEXXZ
	DD	FLAT:?OnTeleport@CBaseEntity@@UAEXXZ
	DD	FLAT:?PortalSleep@CBaseEntity@@UAEXM@Z
	DD	FLAT:?StartMessage@CBaseEntity@@UAEXPAVCBasePlayer@@@Z
	DD	FLAT:?GetPosition@CBaseEntity@@UAEMXZ
	DD	FLAT:?OnChangeParent@CBaseEntity@@UAEXXZ
	DD	FLAT:?OnClearParent@CBaseEntity@@UAEXXZ
	DD	FLAT:?OnRemove@CBaseEntity@@UAEXXZ
	DD	FLAT:?SetObjectCollisionBox@CWeaponBox@@EAEXXZ
	DD	FLAT:?Classify@CBaseEntity@@UAEHXZ
	DD	FLAT:?DeathNotice@CBaseEntity@@UAEXPAUentvars_s@@@Z
	DD	FLAT:?IsRigidBody@CBaseEntity@@UAEHXZ
	DD	FLAT:?SetNextThink@CBaseEntity@@UAEXM@Z
	DD	FLAT:?GetState@CBaseEntity@@UAE?AW4STATE@@PAV1@@Z
	DD	FLAT:?GetState@CBaseEntity@@UAE?AW4STATE@@XZ
	DD	FLAT:?TraceAttack@CBaseEntity@@UAEXPAUentvars_s@@MVVector@@PAUgametrace_s@@H@Z
	DD	FLAT:?TakeDamage@CBaseEntity@@UAEHPAUentvars_s@@0MH@Z
	DD	FLAT:?TakeHealth@CBaseEntity@@UAEHMH@Z
	DD	FLAT:?TakeArmor@CBaseEntity@@UAEHMH@Z
	DD	FLAT:?Killed@CBaseEntity@@UAEXPAUentvars_s@@H@Z
	DD	FLAT:?BloodColor@CBaseEntity@@UAEHXZ
	DD	FLAT:?TraceBleed@CBaseEntity@@UAEXMVVector@@PAUgametrace_s@@H@Z
	DD	FLAT:?IsTriggered@CBaseEntity@@UAEHPAV1@@Z
	DD	FLAT:?MyMonsterPointer@CBaseEntity@@UAEPAVCBaseMonster@@XZ
	DD	FLAT:?MySquadMonsterPointer@CBaseEntity@@UAEPAVCSquadMonster@@XZ
	DD	FLAT:?GetToggleState@CBaseEntity@@UAEHXZ
	DD	FLAT:?AddPoints@CBaseEntity@@UAEXHH@Z
	DD	FLAT:?AddPointsToTeam@CBaseEntity@@UAEXHH@Z
	DD	FLAT:?AddPlayerItem@CBaseEntity@@UAEHPAVCBasePlayerItem@@@Z
	DD	FLAT:?RemovePlayerItem@CBaseEntity@@UAEHPAVCBasePlayerItem@@@Z
	DD	FLAT:?GiveAmmo@CBaseEntity@@UAEHHPADH@Z
	DD	FLAT:?GetDelay@CBaseEntity@@UAEMXZ
	DD	FLAT:?IsMoving@CBaseEntity@@UAEHXZ
	DD	FLAT:?OverrideReset@CBaseEntity@@UAEXXZ
	DD	FLAT:?TransferReset@CBaseEntity@@UAEXXZ
	DD	FLAT:?DamageDecal@CBaseEntity@@UAEHH@Z
	DD	FLAT:?SetToggleState@CBaseEntity@@UAEXH@Z
	DD	FLAT:?StartSneaking@CBaseEntity@@UAEXXZ
	DD	FLAT:?StopSneaking@CBaseEntity@@UAEXXZ
	DD	FLAT:?OnControls@CBaseEntity@@UAEHPAV1@@Z
	DD	FLAT:?IsSneaking@CBaseEntity@@UAEHXZ
	DD	FLAT:?IsAlive@CBaseEntity@@UAEHXZ
	DD	FLAT:?IsBSPModel@CBaseEntity@@UAEHXZ
	DD	FLAT:?IsCustomModel@CBaseEntity@@UAEHXZ
	DD	FLAT:?ReflectGauss@CBaseEntity@@UAEHXZ
	DD	FLAT:?HasTarget@CBaseEntity@@UAEHH@Z
	DD	FLAT:?IsInWorld@CBaseEntity@@UAEHH@Z
	DD	FLAT:?IsPlayer@CBaseEntity@@UAEHXZ
	DD	FLAT:?IsNetClient@CBaseEntity@@UAEHXZ
	DD	FLAT:?IsMonster@CBaseEntity@@UAEHXZ
	DD	FLAT:?IsPushable@CBaseEntity@@UAEHXZ
	DD	FLAT:?IsProjectile@CBaseEntity@@UAEHXZ
	DD	FLAT:?IsFuncScreen@CBaseEntity@@UAEHXZ
	DD	FLAT:?IsPortal@CBaseEntity@@UAEHXZ
	DD	FLAT:?IsTank@CBaseEntity@@UAEHXZ
	DD	FLAT:?IsMover@CBaseEntity@@UAEHXZ
	DD	FLAT:?IsBreakable@CBaseEntity@@UAEHXZ
	DD	FLAT:?TeamID@CBaseEntity@@UAEPBDXZ
	DD	FLAT:?AddSpawnFlags@CBaseEntity@@UAEXH@Z
	DD	FLAT:?HasSpawnFlags@CBaseEntity@@UBE_NH@Z
	DD	FLAT:?SetFadeDistance@CBaseEntity@@UAEXH@Z
	DD	FLAT:?SetFlag@CBaseEntity@@UAEXH@Z
	DD	FLAT:?HasFlag@CBaseEntity@@UBE_NH@Z
	DD	FLAT:?RemoveFlag@CBaseEntity@@UAEXH@Z
	DD	FLAT:?SetNullModel@CBaseEntity@@UAEXXZ
	DD	FLAT:?OnPickupObject@CBaseEntity@@UAEXXZ
	DD	FLAT:?OnDropObject@CBaseEntity@@UAEXXZ
	DD	FLAT:?GetNextTarget@CBaseEntity@@UAEPAV1@XZ
	DD	FLAT:?Think@CBaseEntity@@UAEXXZ
	DD	FLAT:?Use@CBaseEntity@@UAEXPAV1@0W4USE_TYPE@@M@Z
	DD	FLAT:?Touch@CWeaponBox@@EAEXPAVCBaseEntity@@@Z
	DD	FLAT:?Blocked@CBaseEntity@@UAEXPAV1@@Z
	DD	FLAT:?MoveDone@CBaseEntity@@UAEXXZ
	DD	FLAT:?Respawn@CBaseEntity@@UAEPAV1@XZ
	DD	FLAT:?UpdateOwner@CBaseEntity@@UAEXXZ
	DD	FLAT:?FBecomeProne@CBaseEntity@@UAEHXZ
	DD	FLAT:?Center@CBaseEntity@@UAE?AVVector@@XZ
	DD	FLAT:?EyePosition@CBaseEntity@@UAE?AVVector@@XZ
	DD	FLAT:?EarPosition@CBaseEntity@@UAE?AVVector@@XZ
	DD	FLAT:?BodyTarget@CBaseEntity@@UAE?AVVector@@ABV2@@Z
	DD	FLAT:?IsPointSized@CBaseEntity@@UBEHXZ
	DD	FLAT:?Illumination@CBaseEntity@@UAEHXZ
	DD	FLAT:?FVisible@CBaseEntity@@UAEHABVVector@@@Z
	DD	FLAT:?FVisible@CBaseEntity@@UAEHPAV1@@Z
	DD	FLAT:?ShouldCollide@CBaseEntity@@UAEHPAV1@@Z
	DD	FLAT:?ClearEffects@CBaseEntity@@UAEXXZ
CONST	ENDS
;	COMDAT ??_C@_0BJ@EIFNLFLK@?$CGCBaseEntity?3?3SUB_Remove?$AA@
CONST	SEGMENT
??_C@_0BJ@EIFNLFLK@?$CGCBaseEntity?3?3SUB_Remove?$AA@ DB '&CBaseEntity::S'
	DB	'UB_Remove', 00H				; `string'
CONST	ENDS
;	COMDAT ??_C@_0BB@EMJBJDBM@sprites?1null?4spr?$AA@
CONST	SEGMENT
??_C@_0BB@EMJBJDBM@sprites?1null?4spr?$AA@ DB 'sprites/null.spr', 00H ; `string'
CONST	ENDS
;	COMDAT ??_C@_0CH@HELFJPDL@FUNCTION?5NOT?5IN?5TABLE?$CB?3?5?$CFs?3?$CFs?5?$CI?$CF@
CONST	SEGMENT
??_C@_0CH@HELFJPDL@FUNCTION?5NOT?5IN?5TABLE?$CB?3?5?$CFs?3?$CFs?5?$CI?$CF@ DB 'F'
	DB	'UNCTION NOT IN TABLE!: %s:%s (%08lx)', 0aH, 00H ; `string'
CONST	ENDS
;	COMDAT ??_C@_0L@JIJDCONP@customname?$AA@
CONST	SEGMENT
??_C@_0L@JIJDCONP@customname?$AA@ DB 'customname', 00H	; `string'
CONST	ENDS
;	COMDAT ??_C@_0N@JILDNHAP@vlight_cache?$AA@
CONST	SEGMENT
??_C@_0N@JILDNHAP@vlight_cache?$AA@ DB 'vlight_cache', 00H ; `string'
CONST	ENDS
;	COMDAT ??_C@_0L@IKCANML@reflection?$AA@
CONST	SEGMENT
??_C@_0L@IKCANML@reflection?$AA@ DB 'reflection', 00H	; `string'
CONST	ENDS
;	COMDAT ??_C@_05IAKJCFIM@style?$AA@
CONST	SEGMENT
??_C@_05IAKJCFIM@style?$AA@ DB 'style', 00H		; `string'
CONST	ENDS
;	COMDAT ??_C@_0M@EAELDHJO@parentflags?$AA@
CONST	SEGMENT
??_C@_0M@EAELDHJO@parentflags?$AA@ DB 'parentflags', 00H ; `string'
CONST	ENDS
;	COMDAT ??_C@_08JJJAOBDI@movewith?$AA@
CONST	SEGMENT
??_C@_08JJJAOBDI@movewith?$AA@ DB 'movewith', 00H	; `string'
CONST	ENDS
;	COMDAT ??_C@_06MLKDMCBD@parent?$AA@
CONST	SEGMENT
??_C@_06MLKDMCBD@parent?$AA@ DB 'parent', 00H		; `string'
CONST	ENDS
;	COMDAT ??_7CBaseEntity@@6B@
CONST	SEGMENT
??_7CBaseEntity@@6B@ DD FLAT:??_R4CBaseEntity@@6B@	; CBaseEntity::`vftable'
	DD	FLAT:?GetDataDescMap@CBaseEntity@@UAEPAUdatamap_s@@XZ
	DD	FLAT:?Spawn@CBaseEntity@@UAEXXZ
	DD	FLAT:?Precache@CBaseEntity@@UAEXXZ
	DD	FLAT:?KeyValue@CBaseEntity@@UAEXPAUKeyValueData_s@@@Z
	DD	FLAT:?Save@CBaseEntity@@UAEHAAVCSave@@@Z
	DD	FLAT:?Restore@CBaseEntity@@UAEHAAVCRestore@@@Z
	DD	FLAT:?ObjectCaps@CBaseEntity@@UAEHXZ
	DD	FLAT:?Activate@CBaseEntity@@UAEXXZ
	DD	FLAT:?OnChangeLevel@CBaseEntity@@UAEXXZ
	DD	FLAT:?OnTeleport@CBaseEntity@@UAEXXZ
	DD	FLAT:?PortalSleep@CBaseEntity@@UAEXM@Z
	DD	FLAT:?StartMessage@CBaseEntity@@UAEXPAVCBasePlayer@@@Z
	DD	FLAT:?GetPosition@CBaseEntity@@UAEMXZ
	DD	FLAT:?OnChangeParent@CBaseEntity@@UAEXXZ
	DD	FLAT:?OnClearParent@CBaseEntity@@UAEXXZ
	DD	FLAT:?OnRemove@CBaseEntity@@UAEXXZ
	DD	FLAT:?SetObjectCollisionBox@CBaseEntity@@UAEXXZ
	DD	FLAT:?Classify@CBaseEntity@@UAEHXZ
	DD	FLAT:?DeathNotice@CBaseEntity@@UAEXPAUentvars_s@@@Z
	DD	FLAT:?IsRigidBody@CBaseEntity@@UAEHXZ
	DD	FLAT:?SetNextThink@CBaseEntity@@UAEXM@Z
	DD	FLAT:?GetState@CBaseEntity@@UAE?AW4STATE@@PAV1@@Z
	DD	FLAT:?GetState@CBaseEntity@@UAE?AW4STATE@@XZ
	DD	FLAT:?TraceAttack@CBaseEntity@@UAEXPAUentvars_s@@MVVector@@PAUgametrace_s@@H@Z
	DD	FLAT:?TakeDamage@CBaseEntity@@UAEHPAUentvars_s@@0MH@Z
	DD	FLAT:?TakeHealth@CBaseEntity@@UAEHMH@Z
	DD	FLAT:?TakeArmor@CBaseEntity@@UAEHMH@Z
	DD	FLAT:?Killed@CBaseEntity@@UAEXPAUentvars_s@@H@Z
	DD	FLAT:?BloodColor@CBaseEntity@@UAEHXZ
	DD	FLAT:?TraceBleed@CBaseEntity@@UAEXMVVector@@PAUgametrace_s@@H@Z
	DD	FLAT:?IsTriggered@CBaseEntity@@UAEHPAV1@@Z
	DD	FLAT:?MyMonsterPointer@CBaseEntity@@UAEPAVCBaseMonster@@XZ
	DD	FLAT:?MySquadMonsterPointer@CBaseEntity@@UAEPAVCSquadMonster@@XZ
	DD	FLAT:?GetToggleState@CBaseEntity@@UAEHXZ
	DD	FLAT:?AddPoints@CBaseEntity@@UAEXHH@Z
	DD	FLAT:?AddPointsToTeam@CBaseEntity@@UAEXHH@Z
	DD	FLAT:?AddPlayerItem@CBaseEntity@@UAEHPAVCBasePlayerItem@@@Z
	DD	FLAT:?RemovePlayerItem@CBaseEntity@@UAEHPAVCBasePlayerItem@@@Z
	DD	FLAT:?GiveAmmo@CBaseEntity@@UAEHHPADH@Z
	DD	FLAT:?GetDelay@CBaseEntity@@UAEMXZ
	DD	FLAT:?IsMoving@CBaseEntity@@UAEHXZ
	DD	FLAT:?OverrideReset@CBaseEntity@@UAEXXZ
	DD	FLAT:?TransferReset@CBaseEntity@@UAEXXZ
	DD	FLAT:?DamageDecal@CBaseEntity@@UAEHH@Z
	DD	FLAT:?SetToggleState@CBaseEntity@@UAEXH@Z
	DD	FLAT:?StartSneaking@CBaseEntity@@UAEXXZ
	DD	FLAT:?StopSneaking@CBaseEntity@@UAEXXZ
	DD	FLAT:?OnControls@CBaseEntity@@UAEHPAV1@@Z
	DD	FLAT:?IsSneaking@CBaseEntity@@UAEHXZ
	DD	FLAT:?IsAlive@CBaseEntity@@UAEHXZ
	DD	FLAT:?IsBSPModel@CBaseEntity@@UAEHXZ
	DD	FLAT:?IsCustomModel@CBaseEntity@@UAEHXZ
	DD	FLAT:?ReflectGauss@CBaseEntity@@UAEHXZ
	DD	FLAT:?HasTarget@CBaseEntity@@UAEHH@Z
	DD	FLAT:?IsInWorld@CBaseEntity@@UAEHH@Z
	DD	FLAT:?IsPlayer@CBaseEntity@@UAEHXZ
	DD	FLAT:?IsNetClient@CBaseEntity@@UAEHXZ
	DD	FLAT:?IsMonster@CBaseEntity@@UAEHXZ
	DD	FLAT:?IsPushable@CBaseEntity@@UAEHXZ
	DD	FLAT:?IsProjectile@CBaseEntity@@UAEHXZ
	DD	FLAT:?IsFuncScreen@CBaseEntity@@UAEHXZ
	DD	FLAT:?IsPortal@CBaseEntity@@UAEHXZ
	DD	FLAT:?IsTank@CBaseEntity@@UAEHXZ
	DD	FLAT:?IsMover@CBaseEntity@@UAEHXZ
	DD	FLAT:?IsBreakable@CBaseEntity@@UAEHXZ
	DD	FLAT:?TeamID@CBaseEntity@@UAEPBDXZ
	DD	FLAT:?AddSpawnFlags@CBaseEntity@@UAEXH@Z
	DD	FLAT:?HasSpawnFlags@CBaseEntity@@UBE_NH@Z
	DD	FLAT:?SetFadeDistance@CBaseEntity@@UAEXH@Z
	DD	FLAT:?SetFlag@CBaseEntity@@UAEXH@Z
	DD	FLAT:?HasFlag@CBaseEntity@@UBE_NH@Z
	DD	FLAT:?RemoveFlag@CBaseEntity@@UAEXH@Z
	DD	FLAT:?SetNullModel@CBaseEntity@@UAEXXZ
	DD	FLAT:?OnPickupObject@CBaseEntity@@UAEXXZ
	DD	FLAT:?OnDropObject@CBaseEntity@@UAEXXZ
	DD	FLAT:?GetNextTarget@CBaseEntity@@UAEPAV1@XZ
	DD	FLAT:?Think@CBaseEntity@@UAEXXZ
	DD	FLAT:?Use@CBaseEntity@@UAEXPAV1@0W4USE_TYPE@@M@Z
	DD	FLAT:?Touch@CBaseEntity@@UAEXPAV1@@Z
	DD	FLAT:?Blocked@CBaseEntity@@UAEXPAV1@@Z
	DD	FLAT:?MoveDone@CBaseEntity@@UAEXXZ
	DD	FLAT:?Respawn@CBaseEntity@@UAEPAV1@XZ
	DD	FLAT:?UpdateOwner@CBaseEntity@@UAEXXZ
	DD	FLAT:?FBecomeProne@CBaseEntity@@UAEHXZ
	DD	FLAT:?Center@CBaseEntity@@UAE?AVVector@@XZ
	DD	FLAT:?EyePosition@CBaseEntity@@UAE?AVVector@@XZ
	DD	FLAT:?EarPosition@CBaseEntity@@UAE?AVVector@@XZ
	DD	FLAT:?BodyTarget@CBaseEntity@@UAE?AVVector@@ABV2@@Z
	DD	FLAT:?IsPointSized@CBaseEntity@@UBEHXZ
	DD	FLAT:?Illumination@CBaseEntity@@UAEHXZ
	DD	FLAT:?FVisible@CBaseEntity@@UAEHABVVector@@@Z
	DD	FLAT:?FVisible@CBaseEntity@@UAEHPAV1@@Z
	DD	FLAT:?ShouldCollide@CBaseEntity@@UAEHPAV1@@Z
	DD	FLAT:?ClearEffects@CBaseEntity@@UAEXXZ
CONST	ENDS
;	COMDAT ??_C@_0BF@DOONGEFO@Bad?5pev?5in?5OFFSET?$CI?$CJ?6?$AA@
CONST	SEGMENT
??_C@_0BF@DOONGEFO@Bad?5pev?5in?5OFFSET?$CI?$CJ?6?$AA@ DB 'Bad pev in OFF'
	DB	'SET()', 0aH, 00H				; `string'
CONST	ENDS
;	COMDAT ??_C@_0BF@CPEPILID@Bad?5ent?5in?5OFFSET?$CI?$CJ?6?$AA@
CONST	SEGMENT
??_C@_0BF@CPEPILID@Bad?5ent?5in?5OFFSET?$CI?$CJ?6?$AA@ DB 'Bad ent in OFF'
	DB	'SET()', 0aH, 00H				; `string'
CONST	ENDS
;	COMDAT ??_7IEntityFactory@@6B@
CONST	SEGMENT
??_7IEntityFactory@@6B@ DD FLAT:??_R4IEntityFactory@@6B@ ; IEntityFactory::`vftable'
	DD	FLAT:__purecall
	DD	FLAT:__purecall
	DD	FLAT:__purecall
CONST	ENDS
;	COMDAT ??_C@_04EFCDBJNL@?$CFs?3?3?$AA@
CONST	SEGMENT
??_C@_04EFCDBJNL@?$CFs?3?3?$AA@ DB '%s::', 00H		; `string'
CONST	ENDS
;	COMDAT ??_C@_00CNPNBAHC@?$AA@
CONST	SEGMENT
??_C@_00CNPNBAHC@?$AA@ DB 00H				; `string'
CONST	ENDS
;	COMDAT xdata$x
xdata$x	SEGMENT
__unwindtable$??$GetClassPtr@VCWeaponBox@@@@YAPAVCWeaponBox@@PAV0@PBD@Z DD 0ffffffffH
	DD	FLAT:__unwindfunclet$??$GetClassPtr@VCWeaponBox@@@@YAPAVCWeaponBox@@PAV0@PBD@Z$0
__ehfuncinfo$??$GetClassPtr@VCWeaponBox@@@@YAPAVCWeaponBox@@PAV0@PBD@Z DD 019930522H
	DD	01H
	DD	FLAT:__unwindtable$??$GetClassPtr@VCWeaponBox@@@@YAPAVCWeaponBox@@PAV0@PBD@Z
	DD	2 DUP(00H)
	DD	2 DUP(00H)
	DD	00H
	DD	01H
xdata$x	ENDS
;	COMDAT xdata$x
xdata$x	SEGMENT
__unwindtable$??$GetClassPtr@VCLaserSpot@@@@YAPAVCLaserSpot@@PAV0@PBD@Z DD 0ffffffffH
	DD	FLAT:__unwindfunclet$??$GetClassPtr@VCLaserSpot@@@@YAPAVCLaserSpot@@PAV0@PBD@Z$0
__ehfuncinfo$??$GetClassPtr@VCLaserSpot@@@@YAPAVCLaserSpot@@PAV0@PBD@Z DD 019930522H
	DD	01H
	DD	FLAT:__unwindtable$??$GetClassPtr@VCLaserSpot@@@@YAPAVCLaserSpot@@PAV0@PBD@Z
	DD	2 DUP(00H)
	DD	2 DUP(00H)
	DD	00H
	DD	01H
xdata$x	ENDS
;	COMDAT xdata$x
xdata$x	SEGMENT
__unwindtable$??$GetClassPtr@VCLaserSpot@@@@YAPAVCLaserSpot@@PAV0@@Z DD 0ffffffffH
	DD	FLAT:__unwindfunclet$??$GetClassPtr@VCLaserSpot@@@@YAPAVCLaserSpot@@PAV0@@Z$0
__ehfuncinfo$??$GetClassPtr@VCLaserSpot@@@@YAPAVCLaserSpot@@PAV0@@Z DD 019930522H
	DD	01H
	DD	FLAT:__unwindtable$??$GetClassPtr@VCLaserSpot@@@@YAPAVCLaserSpot@@PAV0@@Z
	DD	2 DUP(00H)
	DD	2 DUP(00H)
	DD	00H
	DD	01H
xdata$x	ENDS
;	COMDAT xdata$x
xdata$x	SEGMENT
__unwindtable$??$DataMapInit@VCLaserSpot@@@@YAPAUdatamap_s@@PAVCLaserSpot@@@Z DD 0ffffffffH
	DD	FLAT:__unwindfunclet$??$DataMapInit@VCLaserSpot@@@@YAPAUdatamap_s@@PAVCLaserSpot@@@Z$0
	DD	0ffffffffH
	DD	FLAT:__unwindfunclet$??$DataMapInit@VCLaserSpot@@@@YAPAUdatamap_s@@PAVCLaserSpot@@@Z$1
__ehfuncinfo$??$DataMapInit@VCLaserSpot@@@@YAPAUdatamap_s@@PAVCLaserSpot@@@Z DD 019930522H
	DD	02H
	DD	FLAT:__unwindtable$??$DataMapInit@VCLaserSpot@@@@YAPAUdatamap_s@@PAVCLaserSpot@@@Z
	DD	2 DUP(00H)
	DD	2 DUP(00H)
	DD	00H
	DD	01H
xdata$x	ENDS
;	COMDAT xdata$x
xdata$x	SEGMENT
__unwindtable$??$DataMapInit@VCWeaponBox@@@@YAPAUdatamap_s@@PAVCWeaponBox@@@Z DD 0ffffffffH
	DD	FLAT:__unwindfunclet$??$DataMapInit@VCWeaponBox@@@@YAPAUdatamap_s@@PAVCWeaponBox@@@Z$0
	DD	0ffffffffH
	DD	FLAT:__unwindfunclet$??$DataMapInit@VCWeaponBox@@@@YAPAUdatamap_s@@PAVCWeaponBox@@@Z$1
__ehfuncinfo$??$DataMapInit@VCWeaponBox@@@@YAPAUdatamap_s@@PAVCWeaponBox@@@Z DD 019930522H
	DD	02H
	DD	FLAT:__unwindtable$??$DataMapInit@VCWeaponBox@@@@YAPAUdatamap_s@@PAVCWeaponBox@@@Z
	DD	2 DUP(00H)
	DD	2 DUP(00H)
	DD	00H
	DD	01H
xdata$x	ENDS
;	COMDAT xdata$x
xdata$x	SEGMENT
__unwindtable$??$DataMapInit@VCBasePlayerAmmo@@@@YAPAUdatamap_s@@PAVCBasePlayerAmmo@@@Z DD 0ffffffffH
	DD	FLAT:__unwindfunclet$??$DataMapInit@VCBasePlayerAmmo@@@@YAPAUdatamap_s@@PAVCBasePlayerAmmo@@@Z$0
	DD	0ffffffffH
	DD	FLAT:__unwindfunclet$??$DataMapInit@VCBasePlayerAmmo@@@@YAPAUdatamap_s@@PAVCBasePlayerAmmo@@@Z$1
__ehfuncinfo$??$DataMapInit@VCBasePlayerAmmo@@@@YAPAUdatamap_s@@PAVCBasePlayerAmmo@@@Z DD 019930522H
	DD	02H
	DD	FLAT:__unwindtable$??$DataMapInit@VCBasePlayerAmmo@@@@YAPAUdatamap_s@@PAVCBasePlayerAmmo@@@Z
	DD	2 DUP(00H)
	DD	2 DUP(00H)
	DD	00H
	DD	01H
xdata$x	ENDS
;	COMDAT xdata$x
xdata$x	SEGMENT
__unwindtable$??$DataMapInit@VCBasePlayerWeapon@@@@YAPAUdatamap_s@@PAVCBasePlayerWeapon@@@Z DD 0ffffffffH
	DD	FLAT:__unwindfunclet$??$DataMapInit@VCBasePlayerWeapon@@@@YAPAUdatamap_s@@PAVCBasePlayerWeapon@@@Z$0
__ehfuncinfo$??$DataMapInit@VCBasePlayerWeapon@@@@YAPAUdatamap_s@@PAVCBasePlayerWeapon@@@Z DD 019930522H
	DD	01H
	DD	FLAT:__unwindtable$??$DataMapInit@VCBasePlayerWeapon@@@@YAPAUdatamap_s@@PAVCBasePlayerWeapon@@@Z
	DD	2 DUP(00H)
	DD	2 DUP(00H)
	DD	00H
	DD	01H
xdata$x	ENDS
;	COMDAT xdata$x
xdata$x	SEGMENT
__unwindtable$??$DataMapInit@VCBasePlayerItem@@@@YAPAUdatamap_s@@PAVCBasePlayerItem@@@Z DD 0ffffffffH
	DD	FLAT:__unwindfunclet$??$DataMapInit@VCBasePlayerItem@@@@YAPAUdatamap_s@@PAVCBasePlayerItem@@@Z$0
	DD	0ffffffffH
	DD	FLAT:__unwindfunclet$??$DataMapInit@VCBasePlayerItem@@@@YAPAUdatamap_s@@PAVCBasePlayerItem@@@Z$1
__ehfuncinfo$??$DataMapInit@VCBasePlayerItem@@@@YAPAUdatamap_s@@PAVCBasePlayerItem@@@Z DD 019930522H
	DD	02H
	DD	FLAT:__unwindtable$??$DataMapInit@VCBasePlayerItem@@@@YAPAUdatamap_s@@PAVCBasePlayerItem@@@Z
	DD	2 DUP(00H)
	DD	2 DUP(00H)
	DD	00H
	DD	01H
xdata$x	ENDS
;	COMDAT xdata$x
xdata$x	SEGMENT
__unwindtable$??0CBaseEntity@@QAE@XZ DD 0ffffffffH
	DD	FLAT:__unwindfunclet$??0CBaseEntity@@QAE@XZ$0
__ehfuncinfo$??0CBaseEntity@@QAE@XZ DD 019930522H
	DD	01H
	DD	FLAT:__unwindtable$??0CBaseEntity@@QAE@XZ
	DD	2 DUP(00H)
	DD	2 DUP(00H)
	DD	00H
	DD	01H
xdata$x	ENDS
;	COMDAT xdata$x
xdata$x	SEGMENT
__ehfuncinfo$??1?$CUtlMemory@PADH@@QAE@XZ DD 019930522H
	DD	00H
	DD	00H
	DD	2 DUP(00H)
	DD	2 DUP(00H)
	DD	00H
	DD	05H
xdata$x	ENDS
;	COMDAT xdata$x
xdata$x	SEGMENT
__ehfuncinfo$??1?$CUtlArray@PADV?$CUtlMemory@PADH@@@@QAE@XZ DD 019930522H
	DD	00H
	DD	00H
	DD	2 DUP(00H)
	DD	2 DUP(00H)
	DD	00H
	DD	05H
xdata$x	ENDS
;	COMDAT xdata$x
xdata$x	SEGMENT
__unwindtable$??0?$CUtlArray@PADV?$CUtlMemory@PADH@@@@QAE@HH@Z DD 0ffffffffH
	DD	FLAT:__unwindfunclet$??0?$CUtlArray@PADV?$CUtlMemory@PADH@@@@QAE@HH@Z$0
__ehfuncinfo$??0?$CUtlArray@PADV?$CUtlMemory@PADH@@@@QAE@HH@Z DD 019930522H
	DD	01H
	DD	FLAT:__unwindtable$??0?$CUtlArray@PADV?$CUtlMemory@PADH@@@@QAE@HH@Z
	DD	2 DUP(00H)
	DD	2 DUP(00H)
	DD	00H
	DD	01H
xdata$x	ENDS
;	COMDAT xdata$x
xdata$x	SEGMENT
__ehfuncinfo$??1CDatadescGeneratedNameHolder@@QAE@XZ DD 019930522H
	DD	00H
	DD	00H
	DD	2 DUP(00H)
	DD	2 DUP(00H)
	DD	00H
	DD	05H
xdata$x	ENDS
CRT$XCU	SEGMENT
?g_DataMapHolder$initializer$@CBasePlayerWeapon_DataDescInit@@3P6AXXZA DD FLAT:??__Eg_DataMapHolder@CBasePlayerWeapon_DataDescInit@@YAXXZ ; CBasePlayerWeapon_DataDescInit::g_DataMapHolder$initializer$
CRT$XCU	ENDS
CRT$XCU	SEGMENT
?g_DataMapHolder$initializer$@CBasePlayerAmmo_DataDescInit@@3P6AXXZA DD FLAT:??__Eg_DataMapHolder@CBasePlayerAmmo_DataDescInit@@YAXXZ ; CBasePlayerAmmo_DataDescInit::g_DataMapHolder$initializer$
CRT$XCU	ENDS
CRT$XCU	SEGMENT
?weaponbox$initializer$@@3P6AXXZA DD FLAT:??__Eweaponbox@@YAXXZ ; weaponbox$initializer$
CRT$XCU	ENDS
CRT$XCU	SEGMENT
?g_DataMapHolder$initializer$@CWeaponBox_DataDescInit@@3P6AXXZA DD FLAT:??__Eg_DataMapHolder@CWeaponBox_DataDescInit@@YAXXZ ; CWeaponBox_DataDescInit::g_DataMapHolder$initializer$
CRT$XCU	ENDS
CRT$XCU	SEGMENT
?g_DataMapHolder$initializer$@CLaserSpot_DataDescInit@@3P6AXXZA DD FLAT:??__Eg_DataMapHolder@CLaserSpot_DataDescInit@@YAXXZ ; CLaserSpot_DataDescInit::g_DataMapHolder$initializer$
CRT$XCU	ENDS
CRT$XCU	SEGMENT
?laser_spot$initializer$@@3P6AXXZA DD FLAT:??__Elaser_spot@@YAXXZ ; laser_spot$initializer$
CRT$XCU	ENDS
; Function compile flags: /Odtp /ZI
; File d:\!diffusion 2020\source code 2022\client-server\game_shared\utlmemory.h
;	COMDAT ??$Destruct@PAD@@YAXPAPAD@Z
_TEXT	SEGMENT
_pMemory$ = 8						; size = 4
??$Destruct@PAD@@YAXPAPAD@Z PROC			; Destruct<char *>, COMDAT

; 49   : {

	push	ebp
	mov	ebp, esp
	sub	esp, 64					; 00000040H
	push	ebx
	push	esi
	push	edi

; 50   : 	pMemory->~T();
; 51   : 
; 52   : #ifdef _DEBUG
; 53   : 	memset( pMemory, 0xDD, sizeof(T) );

	push	4
	push	221					; 000000ddH
	mov	eax, DWORD PTR _pMemory$[ebp]
	push	eax
	call	_memset
	add	esp, 12					; 0000000cH

; 54   : #endif
; 55   : }

	pop	edi
	pop	esi
	pop	ebx
	mov	esp, ebp
	pop	ebp
	ret	0
??$Destruct@PAD@@YAXPAPAD@Z ENDP			; Destruct<char *>
_TEXT	ENDS
; Function compile flags: /Odtp /ZI
; File d:\!diffusion 2020\source code 2022\client-server\game_shared\utlmemory.h
;	COMDAT ??$CopyConstruct@PAD@@YAXPAPADABQAD@Z
_TEXT	SEGMENT
tv71 = -72						; size = 4
$T1 = -68						; size = 4
_pMemory$ = 8						; size = 4
_src$ = 12						; size = 4
??$CopyConstruct@PAD@@YAXPAPADABQAD@Z PROC		; CopyConstruct<char *>, COMDAT

; 43   : {

	push	ebp
	mov	ebp, esp
	sub	esp, 72					; 00000048H
	push	ebx
	push	esi
	push	edi

; 44   : 	new( pMemory ) T(src);

	mov	eax, DWORD PTR _pMemory$[ebp]
	push	eax
	push	4
	call	??2@YAPAXIPAX@Z				; operator new
	add	esp, 8
	mov	DWORD PTR $T1[ebp], eax
	cmp	DWORD PTR $T1[ebp], 0
	je	SHORT $LN3@CopyConstr
	mov	ecx, DWORD PTR $T1[ebp]
	mov	edx, DWORD PTR _src$[ebp]
	mov	eax, DWORD PTR [edx]
	mov	DWORD PTR [ecx], eax
	mov	ecx, DWORD PTR $T1[ebp]
	mov	DWORD PTR tv71[ebp], ecx
	jmp	SHORT $LN1@CopyConstr
$LN3@CopyConstr:
	mov	DWORD PTR tv71[ebp], 0
$LN1@CopyConstr:

; 45   : }

	pop	edi
	pop	esi
	pop	ebx
	mov	esp, ebp
	pop	ebp
	ret	0
??$CopyConstruct@PAD@@YAXPAPADABQAD@Z ENDP		; CopyConstruct<char *>
_TEXT	ENDS
; Function compile flags: /Odtp /ZI
; File d:\!diffusion 2020\source code 2022\client-server\server\cbase.h
;	COMDAT ??$GetClassPtr@VCWeaponBox@@@@YAPAVCWeaponBox@@PAV0@PBD@Z
_TEXT	SEGMENT
tv85 = -92						; size = 4
$T2 = -88						; size = 4
$T3 = -84						; size = 4
_pev$ = -16						; size = 4
__$EHRec$ = -12						; size = 12
_newEnt$ = 8						; size = 4
_className$ = 12					; size = 4
??$GetClassPtr@VCWeaponBox@@@@YAPAVCWeaponBox@@PAV0@PBD@Z PROC ; GetClassPtr<CWeaponBox>, COMDAT

; 1146 : {

	push	ebp
	mov	ebp, esp
	push	-1
	push	__ehhandler$??$GetClassPtr@VCWeaponBox@@@@YAPAVCWeaponBox@@PAV0@PBD@Z
	mov	eax, DWORD PTR fs:0
	push	eax
	sub	esp, 80					; 00000050H
	push	ebx
	push	esi
	push	edi
	mov	eax, DWORD PTR ___security_cookie
	xor	eax, ebp
	push	eax
	lea	eax, DWORD PTR __$EHRec$[ebp]
	mov	DWORD PTR fs:0, eax

; 1147 : 	entvars_t *pev = (entvars_t *)newEnt;

	mov	eax, DWORD PTR _newEnt$[ebp]
	mov	DWORD PTR _pev$[ebp], eax

; 1148 : 
; 1149 : 	// allocate entity if necessary
; 1150 : 	if (pev == NULL)

	cmp	DWORD PTR _pev$[ebp], 0
	jne	SHORT $LN2@GetClassPt

; 1151 : 		pev = VARS(CREATE_ENTITY());

	call	DWORD PTR ?g_engfuncs@@3Uenginefuncs_s@@A+84
	push	eax
	call	?VARS@@YAPAUentvars_s@@PAUedict_s@@@Z	; VARS
	add	esp, 4
	mov	DWORD PTR _pev$[ebp], eax
$LN2@GetClassPt:

; 1152 : 
; 1153 : 	// get the private data
; 1154 : 	newEnt = (T *)GET_PRIVATE(ENT(pev));

	mov	eax, DWORD PTR _pev$[ebp]
	push	eax
	call	?ENT@@YAPAUedict_s@@PBUentvars_s@@@Z	; ENT
	add	esp, 4
	push	eax
	call	?GET_PRIVATE@@YAPAXPAUedict_s@@@Z	; GET_PRIVATE
	add	esp, 4
	mov	DWORD PTR _newEnt$[ebp], eax

; 1155 : 
; 1156 : 	if (newEnt == NULL) 

	cmp	DWORD PTR _newEnt$[ebp], 0
	jne	SHORT $LN3@GetClassPt

; 1157 : 	{
; 1158 : 		// allocate private data 
; 1159 : 		newEnt = new(pev) T;

	mov	eax, DWORD PTR _pev$[ebp]
	push	eax
	push	2088					; 00000828H
	call	??2CBaseEntity@@SAPAXIPAUentvars_s@@@Z	; CBaseEntity::operator new
	add	esp, 8
	mov	DWORD PTR $T2[ebp], eax
	mov	DWORD PTR __$EHRec$[ebp+8], 0
	cmp	DWORD PTR $T2[ebp], 0
	je	SHORT $LN5@GetClassPt
	mov	ecx, DWORD PTR $T2[ebp]
	call	??0CWeaponBox@@QAE@XZ
	mov	DWORD PTR tv85[ebp], eax
	jmp	SHORT $LN6@GetClassPt
$LN5@GetClassPt:
	mov	DWORD PTR tv85[ebp], 0
$LN6@GetClassPt:
	mov	ecx, DWORD PTR tv85[ebp]
	mov	DWORD PTR $T3[ebp], ecx
	mov	DWORD PTR __$EHRec$[ebp+8], -1
	mov	edx, DWORD PTR $T3[ebp]
	mov	DWORD PTR _newEnt$[ebp], edx

; 1160 : 		newEnt->pev = pev;

	mov	eax, DWORD PTR _newEnt$[ebp]
	mov	ecx, DWORD PTR _pev$[ebp]
	mov	DWORD PTR [eax+4], ecx
$LN3@GetClassPt:

; 1161 : 	}
; 1162 : 	newEnt->SetClassname( className );

	mov	eax, DWORD PTR _className$[ebp]
	push	eax
	mov	ecx, DWORD PTR _newEnt$[ebp]
	call	?SetClassname@CBaseEntity@@QAEXPBD@Z	; CBaseEntity::SetClassname

; 1163 : 
; 1164 : 	return newEnt;

	mov	eax, DWORD PTR _newEnt$[ebp]

; 1165 : }

	mov	ecx, DWORD PTR __$EHRec$[ebp]
	mov	DWORD PTR fs:0, ecx
	pop	ecx
	pop	edi
	pop	esi
	pop	ebx
	mov	esp, ebp
	pop	ebp
	ret	0
_TEXT	ENDS
;	COMDAT text$x
text$x	SEGMENT
__unwindfunclet$??$GetClassPtr@VCWeaponBox@@@@YAPAVCWeaponBox@@PAV0@PBD@Z$0:
	mov	eax, DWORD PTR _pev$[ebp]
	push	eax
	mov	eax, DWORD PTR $T2[ebp]
	push	eax
	call	??3CBaseEntity@@SAXPAXPAUentvars_s@@@Z	; CBaseEntity::operator delete
	add	esp, 8
	ret	0
__ehhandler$??$GetClassPtr@VCWeaponBox@@@@YAPAVCWeaponBox@@PAV0@PBD@Z:
	mov	edx, DWORD PTR [esp+8]
	lea	eax, DWORD PTR [edx+12]
	mov	ecx, DWORD PTR [edx-96]
	xor	ecx, eax
	call	@__security_check_cookie@4
	mov	eax, OFFSET __ehfuncinfo$??$GetClassPtr@VCWeaponBox@@@@YAPAVCWeaponBox@@PAV0@PBD@Z
	jmp	___CxxFrameHandler3
text$x	ENDS
??$GetClassPtr@VCWeaponBox@@@@YAPAVCWeaponBox@@PAV0@PBD@Z ENDP ; GetClassPtr<CWeaponBox>
; Function compile flags: /Odtp /ZI
; File d:\!diffusion 2020\source code 2022\client-server\server\cbase.h
;	COMDAT ??$GetClassPtr@VCLaserSpot@@@@YAPAVCLaserSpot@@PAV0@PBD@Z
_TEXT	SEGMENT
tv85 = -92						; size = 4
$T2 = -88						; size = 4
$T3 = -84						; size = 4
_pev$ = -16						; size = 4
__$EHRec$ = -12						; size = 12
_newEnt$ = 8						; size = 4
_className$ = 12					; size = 4
??$GetClassPtr@VCLaserSpot@@@@YAPAVCLaserSpot@@PAV0@PBD@Z PROC ; GetClassPtr<CLaserSpot>, COMDAT

; 1146 : {

	push	ebp
	mov	ebp, esp
	push	-1
	push	__ehhandler$??$GetClassPtr@VCLaserSpot@@@@YAPAVCLaserSpot@@PAV0@PBD@Z
	mov	eax, DWORD PTR fs:0
	push	eax
	sub	esp, 80					; 00000050H
	push	ebx
	push	esi
	push	edi
	mov	eax, DWORD PTR ___security_cookie
	xor	eax, ebp
	push	eax
	lea	eax, DWORD PTR __$EHRec$[ebp]
	mov	DWORD PTR fs:0, eax

; 1147 : 	entvars_t *pev = (entvars_t *)newEnt;

	mov	eax, DWORD PTR _newEnt$[ebp]
	mov	DWORD PTR _pev$[ebp], eax

; 1148 : 
; 1149 : 	// allocate entity if necessary
; 1150 : 	if (pev == NULL)

	cmp	DWORD PTR _pev$[ebp], 0
	jne	SHORT $LN2@GetClassPt

; 1151 : 		pev = VARS(CREATE_ENTITY());

	call	DWORD PTR ?g_engfuncs@@3Uenginefuncs_s@@A+84
	push	eax
	call	?VARS@@YAPAUentvars_s@@PAUedict_s@@@Z	; VARS
	add	esp, 4
	mov	DWORD PTR _pev$[ebp], eax
$LN2@GetClassPt:

; 1152 : 
; 1153 : 	// get the private data
; 1154 : 	newEnt = (T *)GET_PRIVATE(ENT(pev));

	mov	eax, DWORD PTR _pev$[ebp]
	push	eax
	call	?ENT@@YAPAUedict_s@@PBUentvars_s@@@Z	; ENT
	add	esp, 4
	push	eax
	call	?GET_PRIVATE@@YAPAXPAUedict_s@@@Z	; GET_PRIVATE
	add	esp, 4
	mov	DWORD PTR _newEnt$[ebp], eax

; 1155 : 
; 1156 : 	if (newEnt == NULL) 

	cmp	DWORD PTR _newEnt$[ebp], 0
	jne	SHORT $LN3@GetClassPt

; 1157 : 	{
; 1158 : 		// allocate private data 
; 1159 : 		newEnt = new(pev) T;

	mov	eax, DWORD PTR _pev$[ebp]
	push	eax
	push	1804					; 0000070cH
	call	??2CBaseEntity@@SAPAXIPAUentvars_s@@@Z	; CBaseEntity::operator new
	add	esp, 8
	mov	DWORD PTR $T2[ebp], eax
	mov	DWORD PTR __$EHRec$[ebp+8], 0
	cmp	DWORD PTR $T2[ebp], 0
	je	SHORT $LN5@GetClassPt
	mov	ecx, DWORD PTR $T2[ebp]
	call	??0CLaserSpot@@QAE@XZ
	mov	DWORD PTR tv85[ebp], eax
	jmp	SHORT $LN6@GetClassPt
$LN5@GetClassPt:
	mov	DWORD PTR tv85[ebp], 0
$LN6@GetClassPt:
	mov	ecx, DWORD PTR tv85[ebp]
	mov	DWORD PTR $T3[ebp], ecx
	mov	DWORD PTR __$EHRec$[ebp+8], -1
	mov	edx, DWORD PTR $T3[ebp]
	mov	DWORD PTR _newEnt$[ebp], edx

; 1160 : 		newEnt->pev = pev;

	mov	eax, DWORD PTR _newEnt$[ebp]
	mov	ecx, DWORD PTR _pev$[ebp]
	mov	DWORD PTR [eax+4], ecx
$LN3@GetClassPt:

; 1161 : 	}
; 1162 : 	newEnt->SetClassname( className );

	mov	eax, DWORD PTR _className$[ebp]
	push	eax
	mov	ecx, DWORD PTR _newEnt$[ebp]
	call	?SetClassname@CBaseEntity@@QAEXPBD@Z	; CBaseEntity::SetClassname

; 1163 : 
; 1164 : 	return newEnt;

	mov	eax, DWORD PTR _newEnt$[ebp]

; 1165 : }

	mov	ecx, DWORD PTR __$EHRec$[ebp]
	mov	DWORD PTR fs:0, ecx
	pop	ecx
	pop	edi
	pop	esi
	pop	ebx
	mov	esp, ebp
	pop	ebp
	ret	0
_TEXT	ENDS
;	COMDAT text$x
text$x	SEGMENT
__unwindfunclet$??$GetClassPtr@VCLaserSpot@@@@YAPAVCLaserSpot@@PAV0@PBD@Z$0:
	mov	eax, DWORD PTR _pev$[ebp]
	push	eax
	mov	eax, DWORD PTR $T2[ebp]
	push	eax
	call	??3CBaseEntity@@SAXPAXPAUentvars_s@@@Z	; CBaseEntity::operator delete
	add	esp, 8
	ret	0
__ehhandler$??$GetClassPtr@VCLaserSpot@@@@YAPAVCLaserSpot@@PAV0@PBD@Z:
	mov	edx, DWORD PTR [esp+8]
	lea	eax, DWORD PTR [edx+12]
	mov	ecx, DWORD PTR [edx-96]
	xor	ecx, eax
	call	@__security_check_cookie@4
	mov	eax, OFFSET __ehfuncinfo$??$GetClassPtr@VCLaserSpot@@@@YAPAVCLaserSpot@@PAV0@PBD@Z
	jmp	___CxxFrameHandler3
text$x	ENDS
??$GetClassPtr@VCLaserSpot@@@@YAPAVCLaserSpot@@PAV0@PBD@Z ENDP ; GetClassPtr<CLaserSpot>
; Function compile flags: /Odtp /ZI
; File d:\!diffusion 2020\source code 2022\client-server\server\weapons\weapons.cpp
;	COMDAT ??__Elaser_spot@@YAXXZ
text$di	SEGMENT
??__Elaser_spot@@YAXXZ PROC				; `dynamic initializer for 'laser_spot'', COMDAT

; 1679 : LINK_ENTITY_TO_CLASS( laser_spot, CLaserSpot );

	push	ebp
	mov	ebp, esp
	sub	esp, 64					; 00000040H
	push	ebx
	push	esi
	push	edi
	push	OFFSET ??_C@_0L@PKAMAFCB@laser_spot?$AA@
	mov	ecx, OFFSET ?laser_spot@@3V?$CEntityFactory@VCLaserSpot@@@@A
	call	??0?$CEntityFactory@VCLaserSpot@@@@QAE@PBD@Z ; CEntityFactory<CLaserSpot>::CEntityFactory<CLaserSpot>
	pop	edi
	pop	esi
	pop	ebx
	mov	esp, ebp
	pop	ebp
	ret	0
??__Elaser_spot@@YAXXZ ENDP				; `dynamic initializer for 'laser_spot''
text$di	ENDS
; Function compile flags: /Odtp /ZI
; File d:\!diffusion 2020\source code 2022\client-server\server\util.h
;	COMDAT ?GetEntitySize@?$CEntityFactory@VCLaserSpot@@@@UAEIXZ
_TEXT	SEGMENT
_this$ = -4						; size = 4
?GetEntitySize@?$CEntityFactory@VCLaserSpot@@@@UAEIXZ PROC ; CEntityFactory<CLaserSpot>::GetEntitySize, COMDAT
; _this$ = ecx

; 103  : 	{

	push	ebp
	mov	ebp, esp
	sub	esp, 68					; 00000044H
	push	ebx
	push	esi
	push	edi
	mov	DWORD PTR _this$[ebp], ecx

; 104  : 		return sizeof(T);

	mov	eax, 1804				; 0000070cH

; 105  : 	}

	pop	edi
	pop	esi
	pop	ebx
	mov	esp, ebp
	pop	ebp
	ret	0
?GetEntitySize@?$CEntityFactory@VCLaserSpot@@@@UAEIXZ ENDP ; CEntityFactory<CLaserSpot>::GetEntitySize
_TEXT	ENDS
; Function compile flags: /Odtp /ZI
; File d:\!diffusion 2020\source code 2022\client-server\server\util.h
;	COMDAT ?Destroy@?$CEntityFactory@VCLaserSpot@@@@UAEXPAVCBaseEntity@@@Z
_TEXT	SEGMENT
_this$ = -4						; size = 4
_pEntity$ = 8						; size = 4
?Destroy@?$CEntityFactory@VCLaserSpot@@@@UAEXPAVCBaseEntity@@@Z PROC ; CEntityFactory<CLaserSpot>::Destroy, COMDAT
; _this$ = ecx

; 98   : 	{

	push	ebp
	mov	ebp, esp
	sub	esp, 68					; 00000044H
	push	ebx
	push	esi
	push	edi
	mov	DWORD PTR _this$[ebp], ecx

; 99   : 		UTIL_Remove( pEntity );

	mov	eax, DWORD PTR _pEntity$[ebp]
	push	eax
	call	?UTIL_Remove@@YAXPAVCBaseEntity@@@Z	; UTIL_Remove
	add	esp, 4

; 100  : 	}

	pop	edi
	pop	esi
	pop	ebx
	mov	esp, ebp
	pop	ebp
	ret	4
?Destroy@?$CEntityFactory@VCLaserSpot@@@@UAEXPAVCBaseEntity@@@Z ENDP ; CEntityFactory<CLaserSpot>::Destroy
_TEXT	ENDS
; Function compile flags: /Odtp /ZI
; File d:\!diffusion 2020\source code 2022\client-server\server\util.h
;	COMDAT ?Create@?$CEntityFactory@VCLaserSpot@@@@UAEPAVCBaseEntity@@PBDPAUentvars_s@@@Z
_TEXT	SEGMENT
_pEnt$ = -8						; size = 4
_this$ = -4						; size = 4
_pClassName$ = 8					; size = 4
_pev$ = 12						; size = 4
?Create@?$CEntityFactory@VCLaserSpot@@@@UAEPAVCBaseEntity@@PBDPAUentvars_s@@@Z PROC ; CEntityFactory<CLaserSpot>::Create, COMDAT
; _this$ = ecx

; 92   : 	{

	push	ebp
	mov	ebp, esp
	sub	esp, 72					; 00000048H
	push	ebx
	push	esi
	push	edi
	mov	DWORD PTR _this$[ebp], ecx

; 93   : 		T* pEnt = GetClassPtr((T*)pev, pClassName);

	mov	eax, DWORD PTR _pClassName$[ebp]
	push	eax
	mov	ecx, DWORD PTR _pev$[ebp]
	push	ecx
	call	??$GetClassPtr@VCLaserSpot@@@@YAPAVCLaserSpot@@PAV0@PBD@Z ; GetClassPtr<CLaserSpot>
	add	esp, 8
	mov	DWORD PTR _pEnt$[ebp], eax

; 94   : 		return pEnt;

	mov	eax, DWORD PTR _pEnt$[ebp]

; 95   : 	}

	pop	edi
	pop	esi
	pop	ebx
	mov	esp, ebp
	pop	ebp
	ret	8
?Create@?$CEntityFactory@VCLaserSpot@@@@UAEPAVCBaseEntity@@PBDPAUentvars_s@@@Z ENDP ; CEntityFactory<CLaserSpot>::Create
_TEXT	ENDS
; Function compile flags: /Odtp /ZI
; File d:\!diffusion 2020\source code 2022\client-server\server\util.h
;	COMDAT ??0?$CEntityFactory@VCLaserSpot@@@@QAE@PBD@Z
_TEXT	SEGMENT
tv76 = -72						; size = 4
_this$ = -4						; size = 4
_pClassName$ = 8					; size = 4
??0?$CEntityFactory@VCLaserSpot@@@@QAE@PBD@Z PROC	; CEntityFactory<CLaserSpot>::CEntityFactory<CLaserSpot>, COMDAT
; _this$ = ecx

; 86   : 	CEntityFactory( const char *pClassName )

	push	ebp
	mov	ebp, esp
	sub	esp, 72					; 00000048H
	push	ebx
	push	esi
	push	edi
	mov	DWORD PTR _this$[ebp], ecx

; 87   : 	{

	mov	ecx, DWORD PTR _this$[ebp]
	call	??0IEntityFactory@@QAE@XZ
	mov	eax, DWORD PTR _this$[ebp]
	mov	DWORD PTR [eax], OFFSET ??_7?$CEntityFactory@VCLaserSpot@@@@6B@

; 88   : 		EntityFactoryDictionary()->InstallFactory( this, pClassName );

	call	?EntityFactoryDictionary@@YAPAVIEntityFactoryDictionary@@XZ ; EntityFactoryDictionary
	mov	DWORD PTR tv76[ebp], eax
	mov	eax, DWORD PTR _pClassName$[ebp]
	push	eax
	mov	ecx, DWORD PTR _this$[ebp]
	push	ecx
	mov	edx, DWORD PTR tv76[ebp]
	mov	eax, DWORD PTR [edx]
	mov	ecx, DWORD PTR tv76[ebp]
	mov	edx, DWORD PTR [eax]
	call	edx

; 89   : 	}

	mov	eax, DWORD PTR _this$[ebp]
	pop	edi
	pop	esi
	pop	ebx
	mov	esp, ebp
	pop	ebp
	ret	4
??0?$CEntityFactory@VCLaserSpot@@@@QAE@PBD@Z ENDP	; CEntityFactory<CLaserSpot>::CEntityFactory<CLaserSpot>
_TEXT	ENDS
; Function compile flags: /Odtp /ZI
; File d:\!diffusion 2020\source code 2022\client-server\server\cbase.h
;	COMDAT ??$GetClassPtr@VCLaserSpot@@@@YAPAVCLaserSpot@@PAV0@@Z
_TEXT	SEGMENT
tv85 = -92						; size = 4
$T2 = -88						; size = 4
$T3 = -84						; size = 4
_pev$ = -16						; size = 4
__$EHRec$ = -12						; size = 12
_a$ = 8							; size = 4
??$GetClassPtr@VCLaserSpot@@@@YAPAVCLaserSpot@@PAV0@@Z PROC ; GetClassPtr<CLaserSpot>, COMDAT

; 1126 : {

	push	ebp
	mov	ebp, esp
	push	-1
	push	__ehhandler$??$GetClassPtr@VCLaserSpot@@@@YAPAVCLaserSpot@@PAV0@@Z
	mov	eax, DWORD PTR fs:0
	push	eax
	sub	esp, 80					; 00000050H
	push	ebx
	push	esi
	push	edi
	mov	eax, DWORD PTR ___security_cookie
	xor	eax, ebp
	push	eax
	lea	eax, DWORD PTR __$EHRec$[ebp]
	mov	DWORD PTR fs:0, eax

; 1127 : 	entvars_t *pev = (entvars_t *)a;

	mov	eax, DWORD PTR _a$[ebp]
	mov	DWORD PTR _pev$[ebp], eax

; 1128 : 
; 1129 : 	// allocate entity if necessary
; 1130 : 	if (pev == NULL)

	cmp	DWORD PTR _pev$[ebp], 0
	jne	SHORT $LN2@GetClassPt

; 1131 : 		pev = VARS(CREATE_ENTITY());

	call	DWORD PTR ?g_engfuncs@@3Uenginefuncs_s@@A+84
	push	eax
	call	?VARS@@YAPAUentvars_s@@PAUedict_s@@@Z	; VARS
	add	esp, 4
	mov	DWORD PTR _pev$[ebp], eax
$LN2@GetClassPt:

; 1132 : 
; 1133 : 	// get the private data
; 1134 : 	a = (T *)GET_PRIVATE(ENT(pev));

	mov	eax, DWORD PTR _pev$[ebp]
	push	eax
	call	?ENT@@YAPAUedict_s@@PBUentvars_s@@@Z	; ENT
	add	esp, 4
	push	eax
	call	?GET_PRIVATE@@YAPAXPAUedict_s@@@Z	; GET_PRIVATE
	add	esp, 4
	mov	DWORD PTR _a$[ebp], eax

; 1135 : 
; 1136 : 	if (a == NULL) 

	cmp	DWORD PTR _a$[ebp], 0
	jne	SHORT $LN3@GetClassPt

; 1137 : 	{
; 1138 : 		// allocate private data 
; 1139 : 		a = new(pev) T;

	mov	eax, DWORD PTR _pev$[ebp]
	push	eax
	push	1804					; 0000070cH
	call	??2CBaseEntity@@SAPAXIPAUentvars_s@@@Z	; CBaseEntity::operator new
	add	esp, 8
	mov	DWORD PTR $T2[ebp], eax
	mov	DWORD PTR __$EHRec$[ebp+8], 0
	cmp	DWORD PTR $T2[ebp], 0
	je	SHORT $LN5@GetClassPt
	mov	ecx, DWORD PTR $T2[ebp]
	call	??0CLaserSpot@@QAE@XZ
	mov	DWORD PTR tv85[ebp], eax
	jmp	SHORT $LN6@GetClassPt
$LN5@GetClassPt:
	mov	DWORD PTR tv85[ebp], 0
$LN6@GetClassPt:
	mov	ecx, DWORD PTR tv85[ebp]
	mov	DWORD PTR $T3[ebp], ecx
	mov	DWORD PTR __$EHRec$[ebp+8], -1
	mov	edx, DWORD PTR $T3[ebp]
	mov	DWORD PTR _a$[ebp], edx

; 1140 : 		a->pev = pev;

	mov	eax, DWORD PTR _a$[ebp]
	mov	ecx, DWORD PTR _pev$[ebp]
	mov	DWORD PTR [eax+4], ecx
$LN3@GetClassPt:

; 1141 : 	}
; 1142 : 	return a;

	mov	eax, DWORD PTR _a$[ebp]

; 1143 : }

	mov	ecx, DWORD PTR __$EHRec$[ebp]
	mov	DWORD PTR fs:0, ecx
	pop	ecx
	pop	edi
	pop	esi
	pop	ebx
	mov	esp, ebp
	pop	ebp
	ret	0
_TEXT	ENDS
;	COMDAT text$x
text$x	SEGMENT
__unwindfunclet$??$GetClassPtr@VCLaserSpot@@@@YAPAVCLaserSpot@@PAV0@@Z$0:
	mov	eax, DWORD PTR _pev$[ebp]
	push	eax
	mov	eax, DWORD PTR $T2[ebp]
	push	eax
	call	??3CBaseEntity@@SAXPAXPAUentvars_s@@@Z	; CBaseEntity::operator delete
	add	esp, 8
	ret	0
__ehhandler$??$GetClassPtr@VCLaserSpot@@@@YAPAVCLaserSpot@@PAV0@@Z:
	mov	edx, DWORD PTR [esp+8]
	lea	eax, DWORD PTR [edx+12]
	mov	ecx, DWORD PTR [edx-96]
	xor	ecx, eax
	call	@__security_check_cookie@4
	mov	eax, OFFSET __ehfuncinfo$??$GetClassPtr@VCLaserSpot@@@@YAPAVCLaserSpot@@PAV0@@Z
	jmp	___CxxFrameHandler3
text$x	ENDS
??$GetClassPtr@VCLaserSpot@@@@YAPAVCLaserSpot@@PAV0@@Z ENDP ; GetClassPtr<CLaserSpot>
; Function compile flags: /Odtp /ZI
;	COMDAT ??__FnameHolder@?1???$DataMapInit@VCLaserSpot@@@@YAPAUdatamap_s@@PAVCLaserSpot@@@Z@YAXXZ
text$yd	SEGMENT
??__FnameHolder@?1???$DataMapInit@VCLaserSpot@@@@YAPAUdatamap_s@@PAVCLaserSpot@@@Z@YAXXZ PROC ; `DataMapInit<CLaserSpot>'::`2'::`dynamic atexit destructor for 'nameHolder'', COMDAT
	push	ebp
	mov	ebp, esp
	sub	esp, 64					; 00000040H
	push	ebx
	push	esi
	push	edi
	mov	ecx, OFFSET ?nameHolder@?1???$DataMapInit@VCLaserSpot@@@@YAPAUdatamap_s@@PAVCLaserSpot@@@Z@4VCDatadescGeneratedNameHolder@@A
	call	??1CDatadescGeneratedNameHolder@@QAE@XZ	; CDatadescGeneratedNameHolder::~CDatadescGeneratedNameHolder
	pop	edi
	pop	esi
	pop	ebx
	mov	esp, ebp
	pop	ebp
	ret	0
??__FnameHolder@?1???$DataMapInit@VCLaserSpot@@@@YAPAUdatamap_s@@PAVCLaserSpot@@@Z@YAXXZ ENDP ; `DataMapInit<CLaserSpot>'::`2'::`dynamic atexit destructor for 'nameHolder''
text$yd	ENDS
; Function compile flags: /Odtp /ZI
; File d:\!diffusion 2020\source code 2022\client-server\server\weapons\weapons.cpp
;	COMDAT ??__Eg_DataMapHolder@CLaserSpot_DataDescInit@@YAXXZ
text$di	SEGMENT
??__Eg_DataMapHolder@CLaserSpot_DataDescInit@@YAXXZ PROC ; CLaserSpot_DataDescInit::`dynamic initializer for 'g_DataMapHolder'', COMDAT

; 1663 : BEGIN_DATADESC( CLaserSpot )

	push	ebp
	mov	ebp, esp
	sub	esp, 64					; 00000040H
	push	ebx
	push	esi
	push	edi
	push	0
	call	??$DataMapInit@VCLaserSpot@@@@YAPAUdatamap_s@@PAVCLaserSpot@@@Z ; DataMapInit<CLaserSpot>
	add	esp, 4
	mov	DWORD PTR ?g_DataMapHolder@CLaserSpot_DataDescInit@@3PAUdatamap_s@@A, eax ; CLaserSpot_DataDescInit::g_DataMapHolder
	pop	edi
	pop	esi
	pop	ebx
	mov	esp, ebp
	pop	ebp
	ret	0
??__Eg_DataMapHolder@CLaserSpot_DataDescInit@@YAXXZ ENDP ; CLaserSpot_DataDescInit::`dynamic initializer for 'g_DataMapHolder''
text$di	ENDS
; Function compile flags: /Odtp /ZI
; File d:\!diffusion 2020\source code 2022\client-server\server\weapons\weapons.cpp
;	COMDAT ??$DataMapInit@VCLaserSpot@@@@YAPAUdatamap_s@@PAVCLaserSpot@@@Z
_TEXT	SEGMENT
__$EHRec$ = -12						; size = 12
___formal$ = 8						; size = 4
??$DataMapInit@VCLaserSpot@@@@YAPAUdatamap_s@@PAVCLaserSpot@@@Z PROC ; DataMapInit<CLaserSpot>, COMDAT

; 1663 : BEGIN_DATADESC( CLaserSpot )

	push	ebp
	mov	ebp, esp
	push	-1
	push	__ehhandler$??$DataMapInit@VCLaserSpot@@@@YAPAUdatamap_s@@PAVCLaserSpot@@@Z
	mov	eax, DWORD PTR fs:0
	push	eax
	sub	esp, 64					; 00000040H
	push	ebx
	push	esi
	push	edi
	mov	eax, DWORD PTR ___security_cookie
	xor	eax, ebp
	push	eax
	lea	eax, DWORD PTR __$EHRec$[ebp]
	mov	DWORD PTR fs:0, eax
	mov	eax, DWORD PTR __tls_index
	mov	ecx, DWORD PTR fs:__tls_array
	mov	edx, DWORD PTR [ecx+eax*4]
	mov	eax, DWORD PTR ?$TSS0@?1???$DataMapInit@VCLaserSpot@@@@YAPAUdatamap_s@@PAVCLaserSpot@@@Z@4HA
	cmp	eax, DWORD PTR __Init_thread_epoch[edx]
	jle	SHORT $LN2@DataMapIni
	push	OFFSET ?$TSS0@?1???$DataMapInit@VCLaserSpot@@@@YAPAUdatamap_s@@PAVCLaserSpot@@@Z@4HA
	call	__Init_thread_header
	add	esp, 4
	cmp	DWORD PTR ?$TSS0@?1???$DataMapInit@VCLaserSpot@@@@YAPAUdatamap_s@@PAVCLaserSpot@@@Z@4HA, -1
	jne	SHORT $LN2@DataMapIni
	mov	DWORD PTR __$EHRec$[ebp+8], 0
	push	OFFSET ??_C@_0L@LFKDDPKH@CLaserSpot?$AA@
	mov	ecx, OFFSET ?nameHolder@?1???$DataMapInit@VCLaserSpot@@@@YAPAUdatamap_s@@PAVCLaserSpot@@@Z@4VCDatadescGeneratedNameHolder@@A
	call	??0CDatadescGeneratedNameHolder@@QAE@PBD@Z ; CDatadescGeneratedNameHolder::CDatadescGeneratedNameHolder
	push	OFFSET ??__FnameHolder@?1???$DataMapInit@VCLaserSpot@@@@YAPAUdatamap_s@@PAVCLaserSpot@@@Z@YAXXZ ; `DataMapInit<CLaserSpot>'::`2'::`dynamic atexit destructor for 'nameHolder''
	call	_atexit
	add	esp, 4
	mov	DWORD PTR __$EHRec$[ebp+8], -1
	push	OFFSET ?$TSS0@?1???$DataMapInit@VCLaserSpot@@@@YAPAUdatamap_s@@PAVCLaserSpot@@@Z@4HA
	call	__Init_thread_footer
	add	esp, 4
$LN2@DataMapIni:

; 1665 : END_DATADESC()

	call	?GetBaseMap@CLaserSpot@@SAPAUdatamap_s@@XZ ; CLaserSpot::GetBaseMap
	mov	DWORD PTR ?m_DataMap@CLaserSpot@@2Udatamap_s@@A+12, eax

; 1663 : BEGIN_DATADESC( CLaserSpot )

	mov	eax, DWORD PTR __tls_index
	mov	ecx, DWORD PTR fs:__tls_array
	mov	edx, DWORD PTR [ecx+eax*4]
	mov	eax, DWORD PTR ?$TSS1@?1???$DataMapInit@VCLaserSpot@@@@YAPAUdatamap_s@@PAVCLaserSpot@@@Z@4HA
	cmp	eax, DWORD PTR __Init_thread_epoch[edx]
	jle	SHORT $LN3@DataMapIni
	push	OFFSET ?$TSS1@?1???$DataMapInit@VCLaserSpot@@@@YAPAUdatamap_s@@PAVCLaserSpot@@@Z@4HA
	call	__Init_thread_header
	add	esp, 4
	cmp	DWORD PTR ?$TSS1@?1???$DataMapInit@VCLaserSpot@@@@YAPAUdatamap_s@@PAVCLaserSpot@@@Z@4HA, -1
	jne	SHORT $LN3@DataMapIni
	mov	DWORD PTR __$EHRec$[ebp+8], 1

; 1664 : 	DEFINE_FUNCTION( Revive ),

	push	OFFSET ??_C@_06PGKKGABA@Revive?$AA@
	mov	ecx, OFFSET ?nameHolder@?1???$DataMapInit@VCLaserSpot@@@@YAPAUdatamap_s@@PAVCLaserSpot@@@Z@4VCDatadescGeneratedNameHolder@@A
	call	?GenerateName@CDatadescGeneratedNameHolder@@QAEPBDPBD@Z ; CDatadescGeneratedNameHolder::GenerateName
	mov	DWORD PTR ?dataDesc@?1???$DataMapInit@VCLaserSpot@@@@YAPAUdatamap_s@@PAVCLaserSpot@@@Z@4PAUtypedescription_s@@A+28, eax
	mov	DWORD PTR ?dataDesc@?1???$DataMapInit@VCLaserSpot@@@@YAPAUdatamap_s@@PAVCLaserSpot@@@Z@4PAUtypedescription_s@@A+32, 0
	mov	eax, 1
	mov	WORD PTR ?dataDesc@?1???$DataMapInit@VCLaserSpot@@@@YAPAUdatamap_s@@PAVCLaserSpot@@@Z@4PAUtypedescription_s@@A+36, ax
	mov	eax, 8
	mov	WORD PTR ?dataDesc@?1???$DataMapInit@VCLaserSpot@@@@YAPAUdatamap_s@@PAVCLaserSpot@@@Z@4PAUtypedescription_s@@A+38, ax
	mov	DWORD PTR ?dataDesc@?1???$DataMapInit@VCLaserSpot@@@@YAPAUdatamap_s@@PAVCLaserSpot@@@Z@4PAUtypedescription_s@@A+40, 0
	mov	DWORD PTR ?dataDesc@?1???$DataMapInit@VCLaserSpot@@@@YAPAUdatamap_s@@PAVCLaserSpot@@@Z@4PAUtypedescription_s@@A+44, OFFSET ?Revive@CLaserSpot@@QAEXXZ ; CLaserSpot::Revive
	mov	DWORD PTR __$EHRec$[ebp+8], -1
	push	OFFSET ?$TSS1@?1???$DataMapInit@VCLaserSpot@@@@YAPAUdatamap_s@@PAVCLaserSpot@@@Z@4HA
	call	__Init_thread_footer
	add	esp, 4
$LN3@DataMapIni:

; 1665 : END_DATADESC()

	mov	eax, 1
	test	eax, eax
	je	SHORT $LN4@DataMapIni
	mov	DWORD PTR ?m_DataMap@CLaserSpot@@2Udatamap_s@@A+4, 1
	mov	eax, 24					; 00000018H
	shl	eax, 0
	add	eax, OFFSET ?dataDesc@?1???$DataMapInit@VCLaserSpot@@@@YAPAUdatamap_s@@PAVCLaserSpot@@@Z@4PAUtypedescription_s@@A
	mov	DWORD PTR ?m_DataMap@CLaserSpot@@2Udatamap_s@@A, eax
	jmp	SHORT $LN5@DataMapIni
$LN4@DataMapIni:
	mov	DWORD PTR ?m_DataMap@CLaserSpot@@2Udatamap_s@@A+4, 1
	mov	DWORD PTR ?m_DataMap@CLaserSpot@@2Udatamap_s@@A, OFFSET ?dataDesc@?1???$DataMapInit@VCLaserSpot@@@@YAPAUdatamap_s@@PAVCLaserSpot@@@Z@4PAUtypedescription_s@@A
$LN5@DataMapIni:
	mov	eax, OFFSET ?m_DataMap@CLaserSpot@@2Udatamap_s@@A ; CLaserSpot::m_DataMap
	mov	ecx, DWORD PTR __$EHRec$[ebp]
	mov	DWORD PTR fs:0, ecx
	pop	ecx
	pop	edi
	pop	esi
	pop	ebx
	mov	esp, ebp
	pop	ebp
	ret	0
_TEXT	ENDS
;	COMDAT text$x
text$x	SEGMENT
__unwindfunclet$??$DataMapInit@VCLaserSpot@@@@YAPAUdatamap_s@@PAVCLaserSpot@@@Z$0:
	push	OFFSET ?$TSS0@?1???$DataMapInit@VCLaserSpot@@@@YAPAUdatamap_s@@PAVCLaserSpot@@@Z@4HA
	call	__Init_thread_abort
	pop	ecx
	ret	0
__unwindfunclet$??$DataMapInit@VCLaserSpot@@@@YAPAUdatamap_s@@PAVCLaserSpot@@@Z$1:
	push	OFFSET ?$TSS1@?1???$DataMapInit@VCLaserSpot@@@@YAPAUdatamap_s@@PAVCLaserSpot@@@Z@4HA
	call	__Init_thread_abort
	pop	ecx
	ret	0
__ehhandler$??$DataMapInit@VCLaserSpot@@@@YAPAUdatamap_s@@PAVCLaserSpot@@@Z:
	mov	edx, DWORD PTR [esp+8]
	lea	eax, DWORD PTR [edx+12]
	mov	ecx, DWORD PTR [edx-80]
	xor	ecx, eax
	call	@__security_check_cookie@4
	mov	eax, OFFSET __ehfuncinfo$??$DataMapInit@VCLaserSpot@@@@YAPAUdatamap_s@@PAVCLaserSpot@@@Z
	jmp	___CxxFrameHandler3
text$x	ENDS
??$DataMapInit@VCLaserSpot@@@@YAPAUdatamap_s@@PAVCLaserSpot@@@Z ENDP ; DataMapInit<CLaserSpot>
; Function compile flags: /Odtp /ZI
;	COMDAT ??__FnameHolder@?1???$DataMapInit@VCWeaponBox@@@@YAPAUdatamap_s@@PAVCWeaponBox@@@Z@YAXXZ
text$yd	SEGMENT
??__FnameHolder@?1???$DataMapInit@VCWeaponBox@@@@YAPAUdatamap_s@@PAVCWeaponBox@@@Z@YAXXZ PROC ; `DataMapInit<CWeaponBox>'::`2'::`dynamic atexit destructor for 'nameHolder'', COMDAT
	push	ebp
	mov	ebp, esp
	sub	esp, 64					; 00000040H
	push	ebx
	push	esi
	push	edi
	mov	ecx, OFFSET ?nameHolder@?1???$DataMapInit@VCWeaponBox@@@@YAPAUdatamap_s@@PAVCWeaponBox@@@Z@4VCDatadescGeneratedNameHolder@@A
	call	??1CDatadescGeneratedNameHolder@@QAE@XZ	; CDatadescGeneratedNameHolder::~CDatadescGeneratedNameHolder
	pop	edi
	pop	esi
	pop	ebx
	mov	esp, ebp
	pop	ebp
	ret	0
??__FnameHolder@?1???$DataMapInit@VCWeaponBox@@@@YAPAUdatamap_s@@PAVCWeaponBox@@@Z@YAXXZ ENDP ; `DataMapInit<CWeaponBox>'::`2'::`dynamic atexit destructor for 'nameHolder''
text$yd	ENDS
; Function compile flags: /Odtp /ZI
; File d:\!diffusion 2020\source code 2022\client-server\server\weapons\weapons.cpp
;	COMDAT ??__Eg_DataMapHolder@CWeaponBox_DataDescInit@@YAXXZ
text$di	SEGMENT
??__Eg_DataMapHolder@CWeaponBox_DataDescInit@@YAXXZ PROC ; CWeaponBox_DataDescInit::`dynamic initializer for 'g_DataMapHolder'', COMDAT

; 1316 : BEGIN_DATADESC( CWeaponBox )

	push	ebp
	mov	ebp, esp
	sub	esp, 64					; 00000040H
	push	ebx
	push	esi
	push	edi
	push	0
	call	??$DataMapInit@VCWeaponBox@@@@YAPAUdatamap_s@@PAVCWeaponBox@@@Z ; DataMapInit<CWeaponBox>
	add	esp, 4
	mov	DWORD PTR ?g_DataMapHolder@CWeaponBox_DataDescInit@@3PAUdatamap_s@@A, eax ; CWeaponBox_DataDescInit::g_DataMapHolder
	pop	edi
	pop	esi
	pop	ebx
	mov	esp, ebp
	pop	ebp
	ret	0
??__Eg_DataMapHolder@CWeaponBox_DataDescInit@@YAXXZ ENDP ; CWeaponBox_DataDescInit::`dynamic initializer for 'g_DataMapHolder''
text$di	ENDS
; Function compile flags: /Odtp /ZI
; File d:\!diffusion 2020\source code 2022\client-server\server\weapons\weapons.cpp
;	COMDAT ??$DataMapInit@VCWeaponBox@@@@YAPAUdatamap_s@@PAVCWeaponBox@@@Z
_TEXT	SEGMENT
__$EHRec$ = -12						; size = 12
___formal$ = 8						; size = 4
??$DataMapInit@VCWeaponBox@@@@YAPAUdatamap_s@@PAVCWeaponBox@@@Z PROC ; DataMapInit<CWeaponBox>, COMDAT

; 1316 : BEGIN_DATADESC( CWeaponBox )

	push	ebp
	mov	ebp, esp
	push	-1
	push	__ehhandler$??$DataMapInit@VCWeaponBox@@@@YAPAUdatamap_s@@PAVCWeaponBox@@@Z
	mov	eax, DWORD PTR fs:0
	push	eax
	sub	esp, 64					; 00000040H
	push	ebx
	push	esi
	push	edi
	mov	eax, DWORD PTR ___security_cookie
	xor	eax, ebp
	push	eax
	lea	eax, DWORD PTR __$EHRec$[ebp]
	mov	DWORD PTR fs:0, eax
	mov	eax, DWORD PTR __tls_index
	mov	ecx, DWORD PTR fs:__tls_array
	mov	edx, DWORD PTR [ecx+eax*4]
	mov	eax, DWORD PTR ?$TSS0@?1???$DataMapInit@VCWeaponBox@@@@YAPAUdatamap_s@@PAVCWeaponBox@@@Z@4HA
	cmp	eax, DWORD PTR __Init_thread_epoch[edx]
	jle	SHORT $LN2@DataMapIni
	push	OFFSET ?$TSS0@?1???$DataMapInit@VCWeaponBox@@@@YAPAUdatamap_s@@PAVCWeaponBox@@@Z@4HA
	call	__Init_thread_header
	add	esp, 4
	cmp	DWORD PTR ?$TSS0@?1???$DataMapInit@VCWeaponBox@@@@YAPAUdatamap_s@@PAVCWeaponBox@@@Z@4HA, -1
	jne	SHORT $LN2@DataMapIni
	mov	DWORD PTR __$EHRec$[ebp+8], 0
	push	OFFSET ??_C@_0L@CMBHIDNP@CWeaponBox?$AA@
	mov	ecx, OFFSET ?nameHolder@?1???$DataMapInit@VCWeaponBox@@@@YAPAUdatamap_s@@PAVCWeaponBox@@@Z@4VCDatadescGeneratedNameHolder@@A
	call	??0CDatadescGeneratedNameHolder@@QAE@PBD@Z ; CDatadescGeneratedNameHolder::CDatadescGeneratedNameHolder
	push	OFFSET ??__FnameHolder@?1???$DataMapInit@VCWeaponBox@@@@YAPAUdatamap_s@@PAVCWeaponBox@@@Z@YAXXZ ; `DataMapInit<CWeaponBox>'::`2'::`dynamic atexit destructor for 'nameHolder''
	call	_atexit
	add	esp, 4
	mov	DWORD PTR __$EHRec$[ebp+8], -1
	push	OFFSET ?$TSS0@?1???$DataMapInit@VCWeaponBox@@@@YAPAUdatamap_s@@PAVCWeaponBox@@@Z@4HA
	call	__Init_thread_footer
	add	esp, 4
$LN2@DataMapIni:

; 1322 : END_DATADESC()

	call	?GetBaseMap@CWeaponBox@@SAPAUdatamap_s@@XZ ; CWeaponBox::GetBaseMap
	mov	DWORD PTR ?m_DataMap@CWeaponBox@@2Udatamap_s@@A+12, eax

; 1316 : BEGIN_DATADESC( CWeaponBox )

	mov	eax, DWORD PTR __tls_index
	mov	ecx, DWORD PTR fs:__tls_array
	mov	edx, DWORD PTR [ecx+eax*4]
	mov	eax, DWORD PTR ?$TSS1@?1???$DataMapInit@VCWeaponBox@@@@YAPAUdatamap_s@@PAVCWeaponBox@@@Z@4HA
	cmp	eax, DWORD PTR __Init_thread_epoch[edx]
	jle	SHORT $LN3@DataMapIni
	push	OFFSET ?$TSS1@?1???$DataMapInit@VCWeaponBox@@@@YAPAUdatamap_s@@PAVCWeaponBox@@@Z@4HA
	call	__Init_thread_header
	add	esp, 4
	cmp	DWORD PTR ?$TSS1@?1???$DataMapInit@VCWeaponBox@@@@YAPAUdatamap_s@@PAVCWeaponBox@@@Z@4HA, -1
	jne	SHORT $LN3@DataMapIni
	mov	DWORD PTR __$EHRec$[ebp+8], 1

; 1317 : 	DEFINE_ARRAY( m_rgAmmo, FIELD_INTEGER, MAX_AMMO_SLOTS ),
; 1318 : 	DEFINE_ARRAY( m_rgiszAmmo, FIELD_STRING, MAX_AMMO_SLOTS ),
; 1319 : 	DEFINE_ARRAY( m_rgpPlayerItems, FIELD_CLASSPTR, MAX_ITEM_TYPES ),
; 1320 : 	DEFINE_FIELD( m_cAmmoTypes, FIELD_INTEGER ),
; 1321 : 	DEFINE_FUNCTION( Kill ),

	push	OFFSET ??_C@_04NIFFMPNM@Kill?$AA@
	mov	ecx, OFFSET ?nameHolder@?1???$DataMapInit@VCWeaponBox@@@@YAPAUdatamap_s@@PAVCWeaponBox@@@Z@4VCDatadescGeneratedNameHolder@@A
	call	?GenerateName@CDatadescGeneratedNameHolder@@QAEPBDPBD@Z ; CDatadescGeneratedNameHolder::GenerateName
	mov	DWORD PTR ?dataDesc@?1???$DataMapInit@VCWeaponBox@@@@YAPAUdatamap_s@@PAVCWeaponBox@@@Z@4PAUtypedescription_s@@A+124, eax
	mov	DWORD PTR ?dataDesc@?1???$DataMapInit@VCWeaponBox@@@@YAPAUdatamap_s@@PAVCWeaponBox@@@Z@4PAUtypedescription_s@@A+128, 0
	mov	eax, 1
	mov	WORD PTR ?dataDesc@?1???$DataMapInit@VCWeaponBox@@@@YAPAUdatamap_s@@PAVCWeaponBox@@@Z@4PAUtypedescription_s@@A+132, ax
	mov	eax, 8
	mov	WORD PTR ?dataDesc@?1???$DataMapInit@VCWeaponBox@@@@YAPAUdatamap_s@@PAVCWeaponBox@@@Z@4PAUtypedescription_s@@A+134, ax
	mov	DWORD PTR ?dataDesc@?1???$DataMapInit@VCWeaponBox@@@@YAPAUdatamap_s@@PAVCWeaponBox@@@Z@4PAUtypedescription_s@@A+136, 0
	mov	DWORD PTR ?dataDesc@?1???$DataMapInit@VCWeaponBox@@@@YAPAUdatamap_s@@PAVCWeaponBox@@@Z@4PAUtypedescription_s@@A+140, OFFSET ?Kill@CWeaponBox@@QAEXXZ ; CWeaponBox::Kill
	mov	DWORD PTR __$EHRec$[ebp+8], -1
	push	OFFSET ?$TSS1@?1???$DataMapInit@VCWeaponBox@@@@YAPAUdatamap_s@@PAVCWeaponBox@@@Z@4HA
	call	__Init_thread_footer
	add	esp, 4
$LN3@DataMapIni:

; 1322 : END_DATADESC()

	mov	eax, 1
	test	eax, eax
	je	SHORT $LN4@DataMapIni
	mov	DWORD PTR ?m_DataMap@CWeaponBox@@2Udatamap_s@@A+4, 5
	mov	eax, 24					; 00000018H
	shl	eax, 0
	add	eax, OFFSET ?dataDesc@?1???$DataMapInit@VCWeaponBox@@@@YAPAUdatamap_s@@PAVCWeaponBox@@@Z@4PAUtypedescription_s@@A
	mov	DWORD PTR ?m_DataMap@CWeaponBox@@2Udatamap_s@@A, eax
	jmp	SHORT $LN5@DataMapIni
$LN4@DataMapIni:
	mov	DWORD PTR ?m_DataMap@CWeaponBox@@2Udatamap_s@@A+4, 1
	mov	DWORD PTR ?m_DataMap@CWeaponBox@@2Udatamap_s@@A, OFFSET ?dataDesc@?1???$DataMapInit@VCWeaponBox@@@@YAPAUdatamap_s@@PAVCWeaponBox@@@Z@4PAUtypedescription_s@@A
$LN5@DataMapIni:
	mov	eax, OFFSET ?m_DataMap@CWeaponBox@@2Udatamap_s@@A ; CWeaponBox::m_DataMap
	mov	ecx, DWORD PTR __$EHRec$[ebp]
	mov	DWORD PTR fs:0, ecx
	pop	ecx
	pop	edi
	pop	esi
	pop	ebx
	mov	esp, ebp
	pop	ebp
	ret	0
_TEXT	ENDS
;	COMDAT text$x
text$x	SEGMENT
__unwindfunclet$??$DataMapInit@VCWeaponBox@@@@YAPAUdatamap_s@@PAVCWeaponBox@@@Z$0:
	push	OFFSET ?$TSS0@?1???$DataMapInit@VCWeaponBox@@@@YAPAUdatamap_s@@PAVCWeaponBox@@@Z@4HA
	call	__Init_thread_abort
	pop	ecx
	ret	0
__unwindfunclet$??$DataMapInit@VCWeaponBox@@@@YAPAUdatamap_s@@PAVCWeaponBox@@@Z$1:
	push	OFFSET ?$TSS1@?1???$DataMapInit@VCWeaponBox@@@@YAPAUdatamap_s@@PAVCWeaponBox@@@Z@4HA
	call	__Init_thread_abort
	pop	ecx
	ret	0
__ehhandler$??$DataMapInit@VCWeaponBox@@@@YAPAUdatamap_s@@PAVCWeaponBox@@@Z:
	mov	edx, DWORD PTR [esp+8]
	lea	eax, DWORD PTR [edx+12]
	mov	ecx, DWORD PTR [edx-80]
	xor	ecx, eax
	call	@__security_check_cookie@4
	mov	eax, OFFSET __ehfuncinfo$??$DataMapInit@VCWeaponBox@@@@YAPAUdatamap_s@@PAVCWeaponBox@@@Z
	jmp	___CxxFrameHandler3
text$x	ENDS
??$DataMapInit@VCWeaponBox@@@@YAPAUdatamap_s@@PAVCWeaponBox@@@Z ENDP ; DataMapInit<CWeaponBox>
; Function compile flags: /Odtp /ZI
; File d:\!diffusion 2020\source code 2022\client-server\server\weapons\weapons.cpp
;	COMDAT ??__Eweaponbox@@YAXXZ
text$di	SEGMENT
??__Eweaponbox@@YAXXZ PROC				; `dynamic initializer for 'weaponbox'', COMDAT

; 1314 : LINK_ENTITY_TO_CLASS( weaponbox, CWeaponBox );

	push	ebp
	mov	ebp, esp
	sub	esp, 64					; 00000040H
	push	ebx
	push	esi
	push	edi
	push	OFFSET ??_C@_09ENPIJEF@weaponbox?$AA@
	mov	ecx, OFFSET ?weaponbox@@3V?$CEntityFactory@VCWeaponBox@@@@A
	call	??0?$CEntityFactory@VCWeaponBox@@@@QAE@PBD@Z ; CEntityFactory<CWeaponBox>::CEntityFactory<CWeaponBox>
	pop	edi
	pop	esi
	pop	ebx
	mov	esp, ebp
	pop	ebp
	ret	0
??__Eweaponbox@@YAXXZ ENDP				; `dynamic initializer for 'weaponbox''
text$di	ENDS
; Function compile flags: /Odtp /ZI
; File d:\!diffusion 2020\source code 2022\client-server\server\util.h
;	COMDAT ?GetEntitySize@?$CEntityFactory@VCWeaponBox@@@@UAEIXZ
_TEXT	SEGMENT
_this$ = -4						; size = 4
?GetEntitySize@?$CEntityFactory@VCWeaponBox@@@@UAEIXZ PROC ; CEntityFactory<CWeaponBox>::GetEntitySize, COMDAT
; _this$ = ecx

; 103  : 	{

	push	ebp
	mov	ebp, esp
	sub	esp, 68					; 00000044H
	push	ebx
	push	esi
	push	edi
	mov	DWORD PTR _this$[ebp], ecx

; 104  : 		return sizeof(T);

	mov	eax, 2088				; 00000828H

; 105  : 	}

	pop	edi
	pop	esi
	pop	ebx
	mov	esp, ebp
	pop	ebp
	ret	0
?GetEntitySize@?$CEntityFactory@VCWeaponBox@@@@UAEIXZ ENDP ; CEntityFactory<CWeaponBox>::GetEntitySize
_TEXT	ENDS
; Function compile flags: /Odtp /ZI
; File d:\!diffusion 2020\source code 2022\client-server\server\util.h
;	COMDAT ?Destroy@?$CEntityFactory@VCWeaponBox@@@@UAEXPAVCBaseEntity@@@Z
_TEXT	SEGMENT
_this$ = -4						; size = 4
_pEntity$ = 8						; size = 4
?Destroy@?$CEntityFactory@VCWeaponBox@@@@UAEXPAVCBaseEntity@@@Z PROC ; CEntityFactory<CWeaponBox>::Destroy, COMDAT
; _this$ = ecx

; 98   : 	{

	push	ebp
	mov	ebp, esp
	sub	esp, 68					; 00000044H
	push	ebx
	push	esi
	push	edi
	mov	DWORD PTR _this$[ebp], ecx

; 99   : 		UTIL_Remove( pEntity );

	mov	eax, DWORD PTR _pEntity$[ebp]
	push	eax
	call	?UTIL_Remove@@YAXPAVCBaseEntity@@@Z	; UTIL_Remove
	add	esp, 4

; 100  : 	}

	pop	edi
	pop	esi
	pop	ebx
	mov	esp, ebp
	pop	ebp
	ret	4
?Destroy@?$CEntityFactory@VCWeaponBox@@@@UAEXPAVCBaseEntity@@@Z ENDP ; CEntityFactory<CWeaponBox>::Destroy
_TEXT	ENDS
; Function compile flags: /Odtp /ZI
; File d:\!diffusion 2020\source code 2022\client-server\server\util.h
;	COMDAT ?Create@?$CEntityFactory@VCWeaponBox@@@@UAEPAVCBaseEntity@@PBDPAUentvars_s@@@Z
_TEXT	SEGMENT
_pEnt$ = -8						; size = 4
_this$ = -4						; size = 4
_pClassName$ = 8					; size = 4
_pev$ = 12						; size = 4
?Create@?$CEntityFactory@VCWeaponBox@@@@UAEPAVCBaseEntity@@PBDPAUentvars_s@@@Z PROC ; CEntityFactory<CWeaponBox>::Create, COMDAT
; _this$ = ecx

; 92   : 	{

	push	ebp
	mov	ebp, esp
	sub	esp, 72					; 00000048H
	push	ebx
	push	esi
	push	edi
	mov	DWORD PTR _this$[ebp], ecx

; 93   : 		T* pEnt = GetClassPtr((T*)pev, pClassName);

	mov	eax, DWORD PTR _pClassName$[ebp]
	push	eax
	mov	ecx, DWORD PTR _pev$[ebp]
	push	ecx
	call	??$GetClassPtr@VCWeaponBox@@@@YAPAVCWeaponBox@@PAV0@PBD@Z ; GetClassPtr<CWeaponBox>
	add	esp, 8
	mov	DWORD PTR _pEnt$[ebp], eax

; 94   : 		return pEnt;

	mov	eax, DWORD PTR _pEnt$[ebp]

; 95   : 	}

	pop	edi
	pop	esi
	pop	ebx
	mov	esp, ebp
	pop	ebp
	ret	8
?Create@?$CEntityFactory@VCWeaponBox@@@@UAEPAVCBaseEntity@@PBDPAUentvars_s@@@Z ENDP ; CEntityFactory<CWeaponBox>::Create
_TEXT	ENDS
; Function compile flags: /Odtp /ZI
; File d:\!diffusion 2020\source code 2022\client-server\server\util.h
;	COMDAT ??0?$CEntityFactory@VCWeaponBox@@@@QAE@PBD@Z
_TEXT	SEGMENT
tv76 = -72						; size = 4
_this$ = -4						; size = 4
_pClassName$ = 8					; size = 4
??0?$CEntityFactory@VCWeaponBox@@@@QAE@PBD@Z PROC	; CEntityFactory<CWeaponBox>::CEntityFactory<CWeaponBox>, COMDAT
; _this$ = ecx

; 86   : 	CEntityFactory( const char *pClassName )

	push	ebp
	mov	ebp, esp
	sub	esp, 72					; 00000048H
	push	ebx
	push	esi
	push	edi
	mov	DWORD PTR _this$[ebp], ecx

; 87   : 	{

	mov	ecx, DWORD PTR _this$[ebp]
	call	??0IEntityFactory@@QAE@XZ
	mov	eax, DWORD PTR _this$[ebp]
	mov	DWORD PTR [eax], OFFSET ??_7?$CEntityFactory@VCWeaponBox@@@@6B@

; 88   : 		EntityFactoryDictionary()->InstallFactory( this, pClassName );

	call	?EntityFactoryDictionary@@YAPAVIEntityFactoryDictionary@@XZ ; EntityFactoryDictionary
	mov	DWORD PTR tv76[ebp], eax
	mov	eax, DWORD PTR _pClassName$[ebp]
	push	eax
	mov	ecx, DWORD PTR _this$[ebp]
	push	ecx
	mov	edx, DWORD PTR tv76[ebp]
	mov	eax, DWORD PTR [edx]
	mov	ecx, DWORD PTR tv76[ebp]
	mov	edx, DWORD PTR [eax]
	call	edx

; 89   : 	}

	mov	eax, DWORD PTR _this$[ebp]
	pop	edi
	pop	esi
	pop	ebx
	mov	esp, ebp
	pop	ebp
	ret	4
??0?$CEntityFactory@VCWeaponBox@@@@QAE@PBD@Z ENDP	; CEntityFactory<CWeaponBox>::CEntityFactory<CWeaponBox>
_TEXT	ENDS
; Function compile flags: /Odtp /ZI
;	COMDAT ??__FnameHolder@?1???$DataMapInit@VCBasePlayerAmmo@@@@YAPAUdatamap_s@@PAVCBasePlayerAmmo@@@Z@YAXXZ
text$yd	SEGMENT
??__FnameHolder@?1???$DataMapInit@VCBasePlayerAmmo@@@@YAPAUdatamap_s@@PAVCBasePlayerAmmo@@@Z@YAXXZ PROC ; `DataMapInit<CBasePlayerAmmo>'::`2'::`dynamic atexit destructor for 'nameHolder'', COMDAT
	push	ebp
	mov	ebp, esp
	sub	esp, 64					; 00000040H
	push	ebx
	push	esi
	push	edi
	mov	ecx, OFFSET ?nameHolder@?1???$DataMapInit@VCBasePlayerAmmo@@@@YAPAUdatamap_s@@PAVCBasePlayerAmmo@@@Z@4VCDatadescGeneratedNameHolder@@A
	call	??1CDatadescGeneratedNameHolder@@QAE@XZ	; CDatadescGeneratedNameHolder::~CDatadescGeneratedNameHolder
	pop	edi
	pop	esi
	pop	ebx
	mov	esp, ebp
	pop	ebp
	ret	0
??__FnameHolder@?1???$DataMapInit@VCBasePlayerAmmo@@@@YAPAUdatamap_s@@PAVCBasePlayerAmmo@@@Z@YAXXZ ENDP ; `DataMapInit<CBasePlayerAmmo>'::`2'::`dynamic atexit destructor for 'nameHolder''
text$yd	ENDS
; Function compile flags: /Odtp /ZI
; File d:\!diffusion 2020\source code 2022\client-server\server\weapons\weapons.cpp
;	COMDAT ??__Eg_DataMapHolder@CBasePlayerAmmo_DataDescInit@@YAXXZ
text$di	SEGMENT
??__Eg_DataMapHolder@CBasePlayerAmmo_DataDescInit@@YAXXZ PROC ; CBasePlayerAmmo_DataDescInit::`dynamic initializer for 'g_DataMapHolder'', COMDAT

; 1189 : BEGIN_DATADESC( CBasePlayerAmmo )

	push	ebp
	mov	ebp, esp
	sub	esp, 64					; 00000040H
	push	ebx
	push	esi
	push	edi
	push	0
	call	??$DataMapInit@VCBasePlayerAmmo@@@@YAPAUdatamap_s@@PAVCBasePlayerAmmo@@@Z ; DataMapInit<CBasePlayerAmmo>
	add	esp, 4
	mov	DWORD PTR ?g_DataMapHolder@CBasePlayerAmmo_DataDescInit@@3PAUdatamap_s@@A, eax ; CBasePlayerAmmo_DataDescInit::g_DataMapHolder
	pop	edi
	pop	esi
	pop	ebx
	mov	esp, ebp
	pop	ebp
	ret	0
??__Eg_DataMapHolder@CBasePlayerAmmo_DataDescInit@@YAXXZ ENDP ; CBasePlayerAmmo_DataDescInit::`dynamic initializer for 'g_DataMapHolder''
text$di	ENDS
; Function compile flags: /Odtp /ZI
; File d:\!diffusion 2020\source code 2022\client-server\server\weapons\weapons.cpp
;	COMDAT ??$DataMapInit@VCBasePlayerAmmo@@@@YAPAUdatamap_s@@PAVCBasePlayerAmmo@@@Z
_TEXT	SEGMENT
__$EHRec$ = -12						; size = 12
___formal$ = 8						; size = 4
??$DataMapInit@VCBasePlayerAmmo@@@@YAPAUdatamap_s@@PAVCBasePlayerAmmo@@@Z PROC ; DataMapInit<CBasePlayerAmmo>, COMDAT

; 1189 : BEGIN_DATADESC( CBasePlayerAmmo )

	push	ebp
	mov	ebp, esp
	push	-1
	push	__ehhandler$??$DataMapInit@VCBasePlayerAmmo@@@@YAPAUdatamap_s@@PAVCBasePlayerAmmo@@@Z
	mov	eax, DWORD PTR fs:0
	push	eax
	sub	esp, 64					; 00000040H
	push	ebx
	push	esi
	push	edi
	mov	eax, DWORD PTR ___security_cookie
	xor	eax, ebp
	push	eax
	lea	eax, DWORD PTR __$EHRec$[ebp]
	mov	DWORD PTR fs:0, eax
	mov	eax, DWORD PTR __tls_index
	mov	ecx, DWORD PTR fs:__tls_array
	mov	edx, DWORD PTR [ecx+eax*4]
	mov	eax, DWORD PTR ?$TSS0@?1???$DataMapInit@VCBasePlayerAmmo@@@@YAPAUdatamap_s@@PAVCBasePlayerAmmo@@@Z@4HA
	cmp	eax, DWORD PTR __Init_thread_epoch[edx]
	jle	SHORT $LN2@DataMapIni
	push	OFFSET ?$TSS0@?1???$DataMapInit@VCBasePlayerAmmo@@@@YAPAUdatamap_s@@PAVCBasePlayerAmmo@@@Z@4HA
	call	__Init_thread_header
	add	esp, 4
	cmp	DWORD PTR ?$TSS0@?1???$DataMapInit@VCBasePlayerAmmo@@@@YAPAUdatamap_s@@PAVCBasePlayerAmmo@@@Z@4HA, -1
	jne	SHORT $LN2@DataMapIni
	mov	DWORD PTR __$EHRec$[ebp+8], 0
	push	OFFSET ??_C@_0BA@KCBMBHB@CBasePlayerAmmo?$AA@
	mov	ecx, OFFSET ?nameHolder@?1???$DataMapInit@VCBasePlayerAmmo@@@@YAPAUdatamap_s@@PAVCBasePlayerAmmo@@@Z@4VCDatadescGeneratedNameHolder@@A
	call	??0CDatadescGeneratedNameHolder@@QAE@PBD@Z ; CDatadescGeneratedNameHolder::CDatadescGeneratedNameHolder
	push	OFFSET ??__FnameHolder@?1???$DataMapInit@VCBasePlayerAmmo@@@@YAPAUdatamap_s@@PAVCBasePlayerAmmo@@@Z@YAXXZ ; `DataMapInit<CBasePlayerAmmo>'::`2'::`dynamic atexit destructor for 'nameHolder''
	call	_atexit
	add	esp, 4
	mov	DWORD PTR __$EHRec$[ebp+8], -1
	push	OFFSET ?$TSS0@?1???$DataMapInit@VCBasePlayerAmmo@@@@YAPAUdatamap_s@@PAVCBasePlayerAmmo@@@Z@4HA
	call	__Init_thread_footer
	add	esp, 4
$LN2@DataMapIni:

; 1192 : END_DATADESC()

	call	?GetBaseMap@CBasePlayerAmmo@@SAPAUdatamap_s@@XZ ; CBasePlayerAmmo::GetBaseMap
	mov	DWORD PTR ?m_DataMap@CBasePlayerAmmo@@2Udatamap_s@@A+12, eax

; 1189 : BEGIN_DATADESC( CBasePlayerAmmo )

	mov	eax, DWORD PTR __tls_index
	mov	ecx, DWORD PTR fs:__tls_array
	mov	edx, DWORD PTR [ecx+eax*4]
	mov	eax, DWORD PTR ?$TSS1@?1???$DataMapInit@VCBasePlayerAmmo@@@@YAPAUdatamap_s@@PAVCBasePlayerAmmo@@@Z@4HA
	cmp	eax, DWORD PTR __Init_thread_epoch[edx]
	jle	$LN3@DataMapIni
	push	OFFSET ?$TSS1@?1???$DataMapInit@VCBasePlayerAmmo@@@@YAPAUdatamap_s@@PAVCBasePlayerAmmo@@@Z@4HA
	call	__Init_thread_header
	add	esp, 4
	cmp	DWORD PTR ?$TSS1@?1???$DataMapInit@VCBasePlayerAmmo@@@@YAPAUdatamap_s@@PAVCBasePlayerAmmo@@@Z@4HA, -1
	jne	$LN3@DataMapIni
	mov	DWORD PTR __$EHRec$[ebp+8], 1

; 1190 : 	DEFINE_FUNCTION( DefaultTouch ),

	push	OFFSET ??_C@_0N@KJHEMDDO@DefaultTouch?$AA@
	mov	ecx, OFFSET ?nameHolder@?1???$DataMapInit@VCBasePlayerAmmo@@@@YAPAUdatamap_s@@PAVCBasePlayerAmmo@@@Z@4VCDatadescGeneratedNameHolder@@A
	call	?GenerateName@CDatadescGeneratedNameHolder@@QAEPBDPBD@Z ; CDatadescGeneratedNameHolder::GenerateName
	mov	DWORD PTR ?dataDesc@?1???$DataMapInit@VCBasePlayerAmmo@@@@YAPAUdatamap_s@@PAVCBasePlayerAmmo@@@Z@4PAUtypedescription_s@@A+28, eax
	mov	DWORD PTR ?dataDesc@?1???$DataMapInit@VCBasePlayerAmmo@@@@YAPAUdatamap_s@@PAVCBasePlayerAmmo@@@Z@4PAUtypedescription_s@@A+32, 0
	mov	eax, 1
	mov	WORD PTR ?dataDesc@?1???$DataMapInit@VCBasePlayerAmmo@@@@YAPAUdatamap_s@@PAVCBasePlayerAmmo@@@Z@4PAUtypedescription_s@@A+36, ax
	mov	eax, 8
	mov	WORD PTR ?dataDesc@?1???$DataMapInit@VCBasePlayerAmmo@@@@YAPAUdatamap_s@@PAVCBasePlayerAmmo@@@Z@4PAUtypedescription_s@@A+38, ax
	mov	DWORD PTR ?dataDesc@?1???$DataMapInit@VCBasePlayerAmmo@@@@YAPAUdatamap_s@@PAVCBasePlayerAmmo@@@Z@4PAUtypedescription_s@@A+40, 0
	mov	DWORD PTR ?dataDesc@?1???$DataMapInit@VCBasePlayerAmmo@@@@YAPAUdatamap_s@@PAVCBasePlayerAmmo@@@Z@4PAUtypedescription_s@@A+44, OFFSET ?DefaultTouch@CBasePlayerAmmo@@QAEXPAVCBaseEntity@@@Z ; CBasePlayerAmmo::DefaultTouch

; 1191 : 	DEFINE_FUNCTION( Materialize ),

	mov	DWORD PTR ?dataDesc@?1???$DataMapInit@VCBasePlayerAmmo@@@@YAPAUdatamap_s@@PAVCBasePlayerAmmo@@@Z@4PAUtypedescription_s@@A+48, 18 ; 00000012H
	push	OFFSET ??_C@_0M@DKBJDEPK@Materialize?$AA@
	mov	ecx, OFFSET ?nameHolder@?1???$DataMapInit@VCBasePlayerAmmo@@@@YAPAUdatamap_s@@PAVCBasePlayerAmmo@@@Z@4VCDatadescGeneratedNameHolder@@A
	call	?GenerateName@CDatadescGeneratedNameHolder@@QAEPBDPBD@Z ; CDatadescGeneratedNameHolder::GenerateName
	mov	DWORD PTR ?dataDesc@?1???$DataMapInit@VCBasePlayerAmmo@@@@YAPAUdatamap_s@@PAVCBasePlayerAmmo@@@Z@4PAUtypedescription_s@@A+52, eax
	mov	DWORD PTR ?dataDesc@?1???$DataMapInit@VCBasePlayerAmmo@@@@YAPAUdatamap_s@@PAVCBasePlayerAmmo@@@Z@4PAUtypedescription_s@@A+56, 0
	mov	eax, 1
	mov	WORD PTR ?dataDesc@?1???$DataMapInit@VCBasePlayerAmmo@@@@YAPAUdatamap_s@@PAVCBasePlayerAmmo@@@Z@4PAUtypedescription_s@@A+60, ax
	mov	eax, 8
	mov	WORD PTR ?dataDesc@?1???$DataMapInit@VCBasePlayerAmmo@@@@YAPAUdatamap_s@@PAVCBasePlayerAmmo@@@Z@4PAUtypedescription_s@@A+62, ax
	mov	DWORD PTR ?dataDesc@?1???$DataMapInit@VCBasePlayerAmmo@@@@YAPAUdatamap_s@@PAVCBasePlayerAmmo@@@Z@4PAUtypedescription_s@@A+64, 0
	mov	DWORD PTR ?dataDesc@?1???$DataMapInit@VCBasePlayerAmmo@@@@YAPAUdatamap_s@@PAVCBasePlayerAmmo@@@Z@4PAUtypedescription_s@@A+68, OFFSET ?Materialize@CBasePlayerAmmo@@QAEXXZ ; CBasePlayerAmmo::Materialize
	mov	DWORD PTR __$EHRec$[ebp+8], -1
	push	OFFSET ?$TSS1@?1???$DataMapInit@VCBasePlayerAmmo@@@@YAPAUdatamap_s@@PAVCBasePlayerAmmo@@@Z@4HA
	call	__Init_thread_footer
	add	esp, 4
$LN3@DataMapIni:

; 1192 : END_DATADESC()

	mov	eax, 1
	test	eax, eax
	je	SHORT $LN4@DataMapIni
	mov	DWORD PTR ?m_DataMap@CBasePlayerAmmo@@2Udatamap_s@@A+4, 2
	mov	eax, 24					; 00000018H
	shl	eax, 0
	add	eax, OFFSET ?dataDesc@?1???$DataMapInit@VCBasePlayerAmmo@@@@YAPAUdatamap_s@@PAVCBasePlayerAmmo@@@Z@4PAUtypedescription_s@@A
	mov	DWORD PTR ?m_DataMap@CBasePlayerAmmo@@2Udatamap_s@@A, eax
	jmp	SHORT $LN5@DataMapIni
$LN4@DataMapIni:
	mov	DWORD PTR ?m_DataMap@CBasePlayerAmmo@@2Udatamap_s@@A+4, 1
	mov	DWORD PTR ?m_DataMap@CBasePlayerAmmo@@2Udatamap_s@@A, OFFSET ?dataDesc@?1???$DataMapInit@VCBasePlayerAmmo@@@@YAPAUdatamap_s@@PAVCBasePlayerAmmo@@@Z@4PAUtypedescription_s@@A
$LN5@DataMapIni:
	mov	eax, OFFSET ?m_DataMap@CBasePlayerAmmo@@2Udatamap_s@@A ; CBasePlayerAmmo::m_DataMap
	mov	ecx, DWORD PTR __$EHRec$[ebp]
	mov	DWORD PTR fs:0, ecx
	pop	ecx
	pop	edi
	pop	esi
	pop	ebx
	mov	esp, ebp
	pop	ebp
	ret	0
_TEXT	ENDS
;	COMDAT text$x
text$x	SEGMENT
__unwindfunclet$??$DataMapInit@VCBasePlayerAmmo@@@@YAPAUdatamap_s@@PAVCBasePlayerAmmo@@@Z$0:
	push	OFFSET ?$TSS0@?1???$DataMapInit@VCBasePlayerAmmo@@@@YAPAUdatamap_s@@PAVCBasePlayerAmmo@@@Z@4HA
	call	__Init_thread_abort
	pop	ecx
	ret	0
__unwindfunclet$??$DataMapInit@VCBasePlayerAmmo@@@@YAPAUdatamap_s@@PAVCBasePlayerAmmo@@@Z$1:
	push	OFFSET ?$TSS1@?1???$DataMapInit@VCBasePlayerAmmo@@@@YAPAUdatamap_s@@PAVCBasePlayerAmmo@@@Z@4HA
	call	__Init_thread_abort
	pop	ecx
	ret	0
__ehhandler$??$DataMapInit@VCBasePlayerAmmo@@@@YAPAUdatamap_s@@PAVCBasePlayerAmmo@@@Z:
	mov	edx, DWORD PTR [esp+8]
	lea	eax, DWORD PTR [edx+12]
	mov	ecx, DWORD PTR [edx-80]
	xor	ecx, eax
	call	@__security_check_cookie@4
	mov	eax, OFFSET __ehfuncinfo$??$DataMapInit@VCBasePlayerAmmo@@@@YAPAUdatamap_s@@PAVCBasePlayerAmmo@@@Z
	jmp	___CxxFrameHandler3
text$x	ENDS
??$DataMapInit@VCBasePlayerAmmo@@@@YAPAUdatamap_s@@PAVCBasePlayerAmmo@@@Z ENDP ; DataMapInit<CBasePlayerAmmo>
; Function compile flags: /Odtp /ZI
; File d:\!diffusion 2020\source code 2022\client-server\common\datamap.h
;	COMDAT ??$DataMapAccess@VCBaseEntity@@@@YAXPAVCBaseEntity@@PAPAUdatamap_s@@@Z
_TEXT	SEGMENT
_ignored$ = 8						; size = 4
_p$ = 12						; size = 4
??$DataMapAccess@VCBaseEntity@@@@YAXPAVCBaseEntity@@PAPAUdatamap_s@@@Z PROC ; DataMapAccess<CBaseEntity>, COMDAT

; 184  : {

	push	ebp
	mov	ebp, esp
	sub	esp, 64					; 00000040H
	push	ebx
	push	esi
	push	edi

; 185  : 	*p = &T::m_DataMap;

	mov	eax, DWORD PTR _p$[ebp]
	mov	DWORD PTR [eax], OFFSET ?m_DataMap@CBaseEntity@@2Udatamap_s@@A ; CBaseEntity::m_DataMap

; 186  : }

	pop	edi
	pop	esi
	pop	ebx
	mov	esp, ebp
	pop	ebp
	ret	0
??$DataMapAccess@VCBaseEntity@@@@YAXPAVCBaseEntity@@PAPAUdatamap_s@@@Z ENDP ; DataMapAccess<CBaseEntity>
_TEXT	ENDS
; Function compile flags: /Odtp /ZI
; File d:\!diffusion 2020\source code 2022\client-server\server\weapons\weapons.cpp
;	COMDAT ?CanAttack@@YAHMMH@Z
_TEXT	SEGMENT
tv65 = -68						; size = 4
_attack_time$ = 8					; size = 4
_curtime$ = 12						; size = 4
_isPredicted$ = 16					; size = 4
?CanAttack@@YAHMMH@Z PROC				; CanAttack, COMDAT

; 740  : {

	push	ebp
	mov	ebp, esp
	sub	esp, 68					; 00000044H
	push	ebx
	push	esi
	push	edi

; 741  : 	return ( attack_time <= curtime ) ? TRUE : FALSE;

	movss	xmm0, DWORD PTR _curtime$[ebp]
	comiss	xmm0, DWORD PTR _attack_time$[ebp]
	jb	SHORT $LN3@CanAttack
	mov	DWORD PTR tv65[ebp], 1
	jmp	SHORT $LN4@CanAttack
$LN3@CanAttack:
	mov	DWORD PTR tv65[ebp], 0
$LN4@CanAttack:
	mov	eax, DWORD PTR tv65[ebp]

; 742  : }

	pop	edi
	pop	esi
	pop	ebx
	mov	esp, ebp
	pop	ebp
	ret	0
?CanAttack@@YAHMMH@Z ENDP				; CanAttack
_TEXT	ENDS
; Function compile flags: /Odsp /ZI
;	COMDAT ??_9CBasePlayerItem@@$BBKI@AE
_TEXT	SEGMENT
??_9CBasePlayerItem@@$BBKI@AE PROC			; CBasePlayerItem::`vcall'{424}', COMDAT
	mov	eax, DWORD PTR [ecx]
	jmp	DWORD PTR [eax+424]
??_9CBasePlayerItem@@$BBKI@AE ENDP			; CBasePlayerItem::`vcall'{424}'
_TEXT	ENDS
; Function compile flags: /Odtp /ZI
;	COMDAT ??__FnameHolder@?1???$DataMapInit@VCBasePlayerWeapon@@@@YAPAUdatamap_s@@PAVCBasePlayerWeapon@@@Z@YAXXZ
text$yd	SEGMENT
??__FnameHolder@?1???$DataMapInit@VCBasePlayerWeapon@@@@YAPAUdatamap_s@@PAVCBasePlayerWeapon@@@Z@YAXXZ PROC ; `DataMapInit<CBasePlayerWeapon>'::`2'::`dynamic atexit destructor for 'nameHolder'', COMDAT
	push	ebp
	mov	ebp, esp
	sub	esp, 64					; 00000040H
	push	ebx
	push	esi
	push	edi
	mov	ecx, OFFSET ?nameHolder@?1???$DataMapInit@VCBasePlayerWeapon@@@@YAPAUdatamap_s@@PAVCBasePlayerWeapon@@@Z@4VCDatadescGeneratedNameHolder@@A
	call	??1CDatadescGeneratedNameHolder@@QAE@XZ	; CDatadescGeneratedNameHolder::~CDatadescGeneratedNameHolder
	pop	edi
	pop	esi
	pop	ebx
	mov	esp, ebp
	pop	ebp
	ret	0
??__FnameHolder@?1???$DataMapInit@VCBasePlayerWeapon@@@@YAPAUdatamap_s@@PAVCBasePlayerWeapon@@@Z@YAXXZ ENDP ; `DataMapInit<CBasePlayerWeapon>'::`2'::`dynamic atexit destructor for 'nameHolder''
text$yd	ENDS
; Function compile flags: /Odtp /ZI
; File d:\!diffusion 2020\source code 2022\client-server\server\weapons\weapons.cpp
;	COMDAT ??__Eg_DataMapHolder@CBasePlayerWeapon_DataDescInit@@YAXXZ
text$di	SEGMENT
??__Eg_DataMapHolder@CBasePlayerWeapon_DataDescInit@@YAXXZ PROC ; CBasePlayerWeapon_DataDescInit::`dynamic initializer for 'g_DataMapHolder'', COMDAT

; 536  : BEGIN_DATADESC( CBasePlayerWeapon )

	push	ebp
	mov	ebp, esp
	sub	esp, 64					; 00000040H
	push	ebx
	push	esi
	push	edi
	push	0
	call	??$DataMapInit@VCBasePlayerWeapon@@@@YAPAUdatamap_s@@PAVCBasePlayerWeapon@@@Z ; DataMapInit<CBasePlayerWeapon>
	add	esp, 4
	mov	DWORD PTR ?g_DataMapHolder@CBasePlayerWeapon_DataDescInit@@3PAUdatamap_s@@A, eax ; CBasePlayerWeapon_DataDescInit::g_DataMapHolder
	pop	edi
	pop	esi
	pop	ebx
	mov	esp, ebp
	pop	ebp
	ret	0
??__Eg_DataMapHolder@CBasePlayerWeapon_DataDescInit@@YAXXZ ENDP ; CBasePlayerWeapon_DataDescInit::`dynamic initializer for 'g_DataMapHolder''
text$di	ENDS
; Function compile flags: /Odtp /ZI
; File d:\!diffusion 2020\source code 2022\client-server\server\weapons\weapons.cpp
;	COMDAT ??$DataMapInit@VCBasePlayerWeapon@@@@YAPAUdatamap_s@@PAVCBasePlayerWeapon@@@Z
_TEXT	SEGMENT
__$EHRec$ = -12						; size = 12
___formal$ = 8						; size = 4
??$DataMapInit@VCBasePlayerWeapon@@@@YAPAUdatamap_s@@PAVCBasePlayerWeapon@@@Z PROC ; DataMapInit<CBasePlayerWeapon>, COMDAT

; 536  : BEGIN_DATADESC( CBasePlayerWeapon )

	push	ebp
	mov	ebp, esp
	push	-1
	push	__ehhandler$??$DataMapInit@VCBasePlayerWeapon@@@@YAPAUdatamap_s@@PAVCBasePlayerWeapon@@@Z
	mov	eax, DWORD PTR fs:0
	push	eax
	sub	esp, 64					; 00000040H
	push	ebx
	push	esi
	push	edi
	mov	eax, DWORD PTR ___security_cookie
	xor	eax, ebp
	push	eax
	lea	eax, DWORD PTR __$EHRec$[ebp]
	mov	DWORD PTR fs:0, eax
	mov	eax, DWORD PTR __tls_index
	mov	ecx, DWORD PTR fs:__tls_array
	mov	edx, DWORD PTR [ecx+eax*4]
	mov	eax, DWORD PTR ?$TSS0@?1???$DataMapInit@VCBasePlayerWeapon@@@@YAPAUdatamap_s@@PAVCBasePlayerWeapon@@@Z@4HA
	cmp	eax, DWORD PTR __Init_thread_epoch[edx]
	jle	SHORT $LN2@DataMapIni
	push	OFFSET ?$TSS0@?1???$DataMapInit@VCBasePlayerWeapon@@@@YAPAUdatamap_s@@PAVCBasePlayerWeapon@@@Z@4HA
	call	__Init_thread_header
	add	esp, 4
	cmp	DWORD PTR ?$TSS0@?1???$DataMapInit@VCBasePlayerWeapon@@@@YAPAUdatamap_s@@PAVCBasePlayerWeapon@@@Z@4HA, -1
	jne	SHORT $LN2@DataMapIni
	mov	DWORD PTR __$EHRec$[ebp+8], 0
	push	OFFSET ??_C@_0BC@EHGFPLNF@CBasePlayerWeapon?$AA@
	mov	ecx, OFFSET ?nameHolder@?1???$DataMapInit@VCBasePlayerWeapon@@@@YAPAUdatamap_s@@PAVCBasePlayerWeapon@@@Z@4VCDatadescGeneratedNameHolder@@A
	call	??0CDatadescGeneratedNameHolder@@QAE@PBD@Z ; CDatadescGeneratedNameHolder::CDatadescGeneratedNameHolder
	push	OFFSET ??__FnameHolder@?1???$DataMapInit@VCBasePlayerWeapon@@@@YAPAUdatamap_s@@PAVCBasePlayerWeapon@@@Z@YAXXZ ; `DataMapInit<CBasePlayerWeapon>'::`2'::`dynamic atexit destructor for 'nameHolder''
	call	_atexit
	add	esp, 4
	mov	DWORD PTR __$EHRec$[ebp+8], -1
	push	OFFSET ?$TSS0@?1???$DataMapInit@VCBasePlayerWeapon@@@@YAPAUdatamap_s@@PAVCBasePlayerWeapon@@@Z@4HA
	call	__Init_thread_footer
	add	esp, 4
$LN2@DataMapIni:

; 537  : 	DEFINE_FIELD( m_flNextPrimaryAttack, FIELD_TIME ),
; 538  : 	DEFINE_FIELD( m_flNextSecondaryAttack, FIELD_TIME ),
; 539  : //	DEFINE_FIELD( m_flTimeWeaponIdle, FIELD_TIME ), // diffusion - experiment, do not save this, allow idle anim after saverestore
; 540  : 	DEFINE_FIELD( m_iPrimaryAmmoType, FIELD_INTEGER ),
; 541  : 	DEFINE_FIELD( m_iSecondaryAmmoType, FIELD_INTEGER ),
; 542  : 	DEFINE_FIELD( m_iClip, FIELD_INTEGER ),
; 543  : 	DEFINE_FIELD( m_iDefaultAmmo, FIELD_INTEGER ),
; 544  : END_DATADESC()

	call	?GetBaseMap@CBasePlayerWeapon@@SAPAUdatamap_s@@XZ ; CBasePlayerWeapon::GetBaseMap
	mov	DWORD PTR ?m_DataMap@CBasePlayerWeapon@@2Udatamap_s@@A+12, eax
	mov	eax, 1
	test	eax, eax
	je	SHORT $LN3@DataMapIni
	mov	DWORD PTR ?m_DataMap@CBasePlayerWeapon@@2Udatamap_s@@A+4, 6
	mov	eax, 24					; 00000018H
	shl	eax, 0
	add	eax, OFFSET ?dataDesc@?1???$DataMapInit@VCBasePlayerWeapon@@@@YAPAUdatamap_s@@PAVCBasePlayerWeapon@@@Z@4PAUtypedescription_s@@A
	mov	DWORD PTR ?m_DataMap@CBasePlayerWeapon@@2Udatamap_s@@A, eax
	jmp	SHORT $LN4@DataMapIni
$LN3@DataMapIni:
	mov	DWORD PTR ?m_DataMap@CBasePlayerWeapon@@2Udatamap_s@@A+4, 1
	mov	DWORD PTR ?m_DataMap@CBasePlayerWeapon@@2Udatamap_s@@A, OFFSET ?dataDesc@?1???$DataMapInit@VCBasePlayerWeapon@@@@YAPAUdatamap_s@@PAVCBasePlayerWeapon@@@Z@4PAUtypedescription_s@@A
$LN4@DataMapIni:
	mov	eax, OFFSET ?m_DataMap@CBasePlayerWeapon@@2Udatamap_s@@A ; CBasePlayerWeapon::m_DataMap
	mov	ecx, DWORD PTR __$EHRec$[ebp]
	mov	DWORD PTR fs:0, ecx
	pop	ecx
	pop	edi
	pop	esi
	pop	ebx
	mov	esp, ebp
	pop	ebp
	ret	0
_TEXT	ENDS
;	COMDAT text$x
text$x	SEGMENT
__unwindfunclet$??$DataMapInit@VCBasePlayerWeapon@@@@YAPAUdatamap_s@@PAVCBasePlayerWeapon@@@Z$0:
	push	OFFSET ?$TSS0@?1???$DataMapInit@VCBasePlayerWeapon@@@@YAPAUdatamap_s@@PAVCBasePlayerWeapon@@@Z@4HA
	call	__Init_thread_abort
	pop	ecx
	ret	0
__ehhandler$??$DataMapInit@VCBasePlayerWeapon@@@@YAPAUdatamap_s@@PAVCBasePlayerWeapon@@@Z:
	mov	edx, DWORD PTR [esp+8]
	lea	eax, DWORD PTR [edx+12]
	mov	ecx, DWORD PTR [edx-80]
	xor	ecx, eax
	call	@__security_check_cookie@4
	mov	eax, OFFSET __ehfuncinfo$??$DataMapInit@VCBasePlayerWeapon@@@@YAPAUdatamap_s@@PAVCBasePlayerWeapon@@@Z
	jmp	___CxxFrameHandler3
text$x	ENDS
??$DataMapInit@VCBasePlayerWeapon@@@@YAPAUdatamap_s@@PAVCBasePlayerWeapon@@@Z ENDP ; DataMapInit<CBasePlayerWeapon>
; Function compile flags: /Odtp /ZI
; File d:\!diffusion 2020\source code 2022\client-server\common\datamap.h
;	COMDAT ??$DataMapAccess@VCBasePlayerItem@@@@YAXPAVCBasePlayerItem@@PAPAUdatamap_s@@@Z
_TEXT	SEGMENT
_ignored$ = 8						; size = 4
_p$ = 12						; size = 4
??$DataMapAccess@VCBasePlayerItem@@@@YAXPAVCBasePlayerItem@@PAPAUdatamap_s@@@Z PROC ; DataMapAccess<CBasePlayerItem>, COMDAT

; 184  : {

	push	ebp
	mov	ebp, esp
	sub	esp, 64					; 00000040H
	push	ebx
	push	esi
	push	edi

; 185  : 	*p = &T::m_DataMap;

	mov	eax, DWORD PTR _p$[ebp]
	mov	DWORD PTR [eax], OFFSET ?m_DataMap@CBasePlayerItem@@2Udatamap_s@@A ; CBasePlayerItem::m_DataMap

; 186  : }

	pop	edi
	pop	esi
	pop	ebx
	mov	esp, ebp
	pop	ebp
	ret	0
??$DataMapAccess@VCBasePlayerItem@@@@YAXPAVCBasePlayerItem@@PAPAUdatamap_s@@@Z ENDP ; DataMapAccess<CBasePlayerItem>
_TEXT	ENDS
; Function compile flags: /Odtp /ZI
;	COMDAT ??__FnameHolder@?1???$DataMapInit@VCBasePlayerItem@@@@YAPAUdatamap_s@@PAVCBasePlayerItem@@@Z@YAXXZ
text$yd	SEGMENT
??__FnameHolder@?1???$DataMapInit@VCBasePlayerItem@@@@YAPAUdatamap_s@@PAVCBasePlayerItem@@@Z@YAXXZ PROC ; `DataMapInit<CBasePlayerItem>'::`2'::`dynamic atexit destructor for 'nameHolder'', COMDAT
	push	ebp
	mov	ebp, esp
	sub	esp, 64					; 00000040H
	push	ebx
	push	esi
	push	edi
	mov	ecx, OFFSET ?nameHolder@?1???$DataMapInit@VCBasePlayerItem@@@@YAPAUdatamap_s@@PAVCBasePlayerItem@@@Z@4VCDatadescGeneratedNameHolder@@A
	call	??1CDatadescGeneratedNameHolder@@QAE@XZ	; CDatadescGeneratedNameHolder::~CDatadescGeneratedNameHolder
	pop	edi
	pop	esi
	pop	ebx
	mov	esp, ebp
	pop	ebp
	ret	0
??__FnameHolder@?1???$DataMapInit@VCBasePlayerItem@@@@YAPAUdatamap_s@@PAVCBasePlayerItem@@@Z@YAXXZ ENDP ; `DataMapInit<CBasePlayerItem>'::`2'::`dynamic atexit destructor for 'nameHolder''
text$yd	ENDS
; Function compile flags: /Odtp /ZI
; File d:\!diffusion 2020\source code 2022\client-server\server\weapons\weapons.cpp
;	COMDAT ??__Eg_DataMapHolder@CBasePlayerItem_DataDescInit@@YAXXZ
text$di	SEGMENT
??__Eg_DataMapHolder@CBasePlayerItem_DataDescInit@@YAXXZ PROC ; CBasePlayerItem_DataDescInit::`dynamic initializer for 'g_DataMapHolder'', COMDAT

; 525  : BEGIN_DATADESC( CBasePlayerItem )

	push	ebp
	mov	ebp, esp
	sub	esp, 64					; 00000040H
	push	ebx
	push	esi
	push	edi
	push	0
	call	??$DataMapInit@VCBasePlayerItem@@@@YAPAUdatamap_s@@PAVCBasePlayerItem@@@Z ; DataMapInit<CBasePlayerItem>
	add	esp, 4
	mov	DWORD PTR ?g_DataMapHolder@CBasePlayerItem_DataDescInit@@3PAUdatamap_s@@A, eax ; CBasePlayerItem_DataDescInit::g_DataMapHolder
	pop	edi
	pop	esi
	pop	ebx
	mov	esp, ebp
	pop	ebp
	ret	0
??__Eg_DataMapHolder@CBasePlayerItem_DataDescInit@@YAXXZ ENDP ; CBasePlayerItem_DataDescInit::`dynamic initializer for 'g_DataMapHolder''
text$di	ENDS
; Function compile flags: /Odtp /ZI
; File d:\!diffusion 2020\source code 2022\client-server\server\weapons\weapons.cpp
;	COMDAT ??$DataMapInit@VCBasePlayerItem@@@@YAPAUdatamap_s@@PAVCBasePlayerItem@@@Z
_TEXT	SEGMENT
__$EHRec$ = -12						; size = 12
___formal$ = 8						; size = 4
??$DataMapInit@VCBasePlayerItem@@@@YAPAUdatamap_s@@PAVCBasePlayerItem@@@Z PROC ; DataMapInit<CBasePlayerItem>, COMDAT

; 525  : BEGIN_DATADESC( CBasePlayerItem )

	push	ebp
	mov	ebp, esp
	push	-1
	push	__ehhandler$??$DataMapInit@VCBasePlayerItem@@@@YAPAUdatamap_s@@PAVCBasePlayerItem@@@Z
	mov	eax, DWORD PTR fs:0
	push	eax
	sub	esp, 64					; 00000040H
	push	ebx
	push	esi
	push	edi
	mov	eax, DWORD PTR ___security_cookie
	xor	eax, ebp
	push	eax
	lea	eax, DWORD PTR __$EHRec$[ebp]
	mov	DWORD PTR fs:0, eax
	mov	eax, DWORD PTR __tls_index
	mov	ecx, DWORD PTR fs:__tls_array
	mov	edx, DWORD PTR [ecx+eax*4]
	mov	eax, DWORD PTR ?$TSS0@?1???$DataMapInit@VCBasePlayerItem@@@@YAPAUdatamap_s@@PAVCBasePlayerItem@@@Z@4HA
	cmp	eax, DWORD PTR __Init_thread_epoch[edx]
	jle	SHORT $LN2@DataMapIni
	push	OFFSET ?$TSS0@?1???$DataMapInit@VCBasePlayerItem@@@@YAPAUdatamap_s@@PAVCBasePlayerItem@@@Z@4HA
	call	__Init_thread_header
	add	esp, 4
	cmp	DWORD PTR ?$TSS0@?1???$DataMapInit@VCBasePlayerItem@@@@YAPAUdatamap_s@@PAVCBasePlayerItem@@@Z@4HA, -1
	jne	SHORT $LN2@DataMapIni
	mov	DWORD PTR __$EHRec$[ebp+8], 0
	push	OFFSET ??_C@_0BA@CLGFKBJP@CBasePlayerItem?$AA@
	mov	ecx, OFFSET ?nameHolder@?1???$DataMapInit@VCBasePlayerItem@@@@YAPAUdatamap_s@@PAVCBasePlayerItem@@@Z@4VCDatadescGeneratedNameHolder@@A
	call	??0CDatadescGeneratedNameHolder@@QAE@PBD@Z ; CDatadescGeneratedNameHolder::CDatadescGeneratedNameHolder
	push	OFFSET ??__FnameHolder@?1???$DataMapInit@VCBasePlayerItem@@@@YAPAUdatamap_s@@PAVCBasePlayerItem@@@Z@YAXXZ ; `DataMapInit<CBasePlayerItem>'::`2'::`dynamic atexit destructor for 'nameHolder''
	call	_atexit
	add	esp, 4
	mov	DWORD PTR __$EHRec$[ebp+8], -1
	push	OFFSET ?$TSS0@?1???$DataMapInit@VCBasePlayerItem@@@@YAPAUdatamap_s@@PAVCBasePlayerItem@@@Z@4HA
	call	__Init_thread_footer
	add	esp, 4
$LN2@DataMapIni:

; 534  : END_DATADESC()

	call	?GetBaseMap@CBasePlayerItem@@SAPAUdatamap_s@@XZ ; CBasePlayerItem::GetBaseMap
	mov	DWORD PTR ?m_DataMap@CBasePlayerItem@@2Udatamap_s@@A+12, eax

; 525  : BEGIN_DATADESC( CBasePlayerItem )

	mov	eax, DWORD PTR __tls_index
	mov	ecx, DWORD PTR fs:__tls_array
	mov	edx, DWORD PTR [ecx+eax*4]
	mov	eax, DWORD PTR ?$TSS1@?1???$DataMapInit@VCBasePlayerItem@@@@YAPAUdatamap_s@@PAVCBasePlayerItem@@@Z@4HA
	cmp	eax, DWORD PTR __Init_thread_epoch[edx]
	jle	$LN3@DataMapIni
	push	OFFSET ?$TSS1@?1???$DataMapInit@VCBasePlayerItem@@@@YAPAUdatamap_s@@PAVCBasePlayerItem@@@Z@4HA
	call	__Init_thread_header
	add	esp, 4
	cmp	DWORD PTR ?$TSS1@?1???$DataMapInit@VCBasePlayerItem@@@@YAPAUdatamap_s@@PAVCBasePlayerItem@@@Z@4HA, -1
	jne	$LN3@DataMapIni
	mov	DWORD PTR __$EHRec$[ebp+8], 1

; 526  : 	DEFINE_FIELD( m_pPlayer, FIELD_CLASSPTR ),
; 527  : 	DEFINE_FIELD( m_pNext, FIELD_CLASSPTR ),
; 528  : 	DEFINE_FIELD( m_iId, FIELD_INTEGER ),
; 529  : 	DEFINE_FUNCTION( DestroyItem ),

	push	OFFSET ??_C@_0M@LGKKMEBN@DestroyItem?$AA@
	mov	ecx, OFFSET ?nameHolder@?1???$DataMapInit@VCBasePlayerItem@@@@YAPAUdatamap_s@@PAVCBasePlayerItem@@@Z@4VCDatadescGeneratedNameHolder@@A
	call	?GenerateName@CDatadescGeneratedNameHolder@@QAEPBDPBD@Z ; CDatadescGeneratedNameHolder::GenerateName
	mov	DWORD PTR ?dataDesc@?1???$DataMapInit@VCBasePlayerItem@@@@YAPAUdatamap_s@@PAVCBasePlayerItem@@@Z@4PAUtypedescription_s@@A+100, eax
	mov	DWORD PTR ?dataDesc@?1???$DataMapInit@VCBasePlayerItem@@@@YAPAUdatamap_s@@PAVCBasePlayerItem@@@Z@4PAUtypedescription_s@@A+104, 0
	mov	eax, 1
	mov	WORD PTR ?dataDesc@?1???$DataMapInit@VCBasePlayerItem@@@@YAPAUdatamap_s@@PAVCBasePlayerItem@@@Z@4PAUtypedescription_s@@A+108, ax
	mov	eax, 8
	mov	WORD PTR ?dataDesc@?1???$DataMapInit@VCBasePlayerItem@@@@YAPAUdatamap_s@@PAVCBasePlayerItem@@@Z@4PAUtypedescription_s@@A+110, ax
	mov	DWORD PTR ?dataDesc@?1???$DataMapInit@VCBasePlayerItem@@@@YAPAUdatamap_s@@PAVCBasePlayerItem@@@Z@4PAUtypedescription_s@@A+112, 0
	mov	DWORD PTR ?dataDesc@?1???$DataMapInit@VCBasePlayerItem@@@@YAPAUdatamap_s@@PAVCBasePlayerItem@@@Z@4PAUtypedescription_s@@A+116, OFFSET ?DestroyItem@CBasePlayerItem@@QAEXXZ ; CBasePlayerItem::DestroyItem

; 530  : 	DEFINE_FUNCTION( DefaultTouch ),

	mov	DWORD PTR ?dataDesc@?1???$DataMapInit@VCBasePlayerItem@@@@YAPAUdatamap_s@@PAVCBasePlayerItem@@@Z@4PAUtypedescription_s@@A+120, 18 ; 00000012H
	push	OFFSET ??_C@_0N@KJHEMDDO@DefaultTouch?$AA@
	mov	ecx, OFFSET ?nameHolder@?1???$DataMapInit@VCBasePlayerItem@@@@YAPAUdatamap_s@@PAVCBasePlayerItem@@@Z@4VCDatadescGeneratedNameHolder@@A
	call	?GenerateName@CDatadescGeneratedNameHolder@@QAEPBDPBD@Z ; CDatadescGeneratedNameHolder::GenerateName
	mov	DWORD PTR ?dataDesc@?1???$DataMapInit@VCBasePlayerItem@@@@YAPAUdatamap_s@@PAVCBasePlayerItem@@@Z@4PAUtypedescription_s@@A+124, eax
	mov	DWORD PTR ?dataDesc@?1???$DataMapInit@VCBasePlayerItem@@@@YAPAUdatamap_s@@PAVCBasePlayerItem@@@Z@4PAUtypedescription_s@@A+128, 0
	mov	eax, 1
	mov	WORD PTR ?dataDesc@?1???$DataMapInit@VCBasePlayerItem@@@@YAPAUdatamap_s@@PAVCBasePlayerItem@@@Z@4PAUtypedescription_s@@A+132, ax
	mov	eax, 8
	mov	WORD PTR ?dataDesc@?1???$DataMapInit@VCBasePlayerItem@@@@YAPAUdatamap_s@@PAVCBasePlayerItem@@@Z@4PAUtypedescription_s@@A+134, ax
	mov	DWORD PTR ?dataDesc@?1???$DataMapInit@VCBasePlayerItem@@@@YAPAUdatamap_s@@PAVCBasePlayerItem@@@Z@4PAUtypedescription_s@@A+136, 0
	mov	DWORD PTR ?dataDesc@?1???$DataMapInit@VCBasePlayerItem@@@@YAPAUdatamap_s@@PAVCBasePlayerItem@@@Z@4PAUtypedescription_s@@A+140, OFFSET ?DefaultTouch@CBasePlayerItem@@QAEXPAVCBaseEntity@@@Z ; CBasePlayerItem::DefaultTouch

; 531  : 	DEFINE_FUNCTION( FallThink ),

	mov	DWORD PTR ?dataDesc@?1???$DataMapInit@VCBasePlayerItem@@@@YAPAUdatamap_s@@PAVCBasePlayerItem@@@Z@4PAUtypedescription_s@@A+144, 18 ; 00000012H
	push	OFFSET ??_C@_09LDKIHMEO@FallThink?$AA@
	mov	ecx, OFFSET ?nameHolder@?1???$DataMapInit@VCBasePlayerItem@@@@YAPAUdatamap_s@@PAVCBasePlayerItem@@@Z@4VCDatadescGeneratedNameHolder@@A
	call	?GenerateName@CDatadescGeneratedNameHolder@@QAEPBDPBD@Z ; CDatadescGeneratedNameHolder::GenerateName
	mov	DWORD PTR ?dataDesc@?1???$DataMapInit@VCBasePlayerItem@@@@YAPAUdatamap_s@@PAVCBasePlayerItem@@@Z@4PAUtypedescription_s@@A+148, eax
	mov	DWORD PTR ?dataDesc@?1???$DataMapInit@VCBasePlayerItem@@@@YAPAUdatamap_s@@PAVCBasePlayerItem@@@Z@4PAUtypedescription_s@@A+152, 0
	mov	eax, 1
	mov	WORD PTR ?dataDesc@?1???$DataMapInit@VCBasePlayerItem@@@@YAPAUdatamap_s@@PAVCBasePlayerItem@@@Z@4PAUtypedescription_s@@A+156, ax
	mov	eax, 8
	mov	WORD PTR ?dataDesc@?1???$DataMapInit@VCBasePlayerItem@@@@YAPAUdatamap_s@@PAVCBasePlayerItem@@@Z@4PAUtypedescription_s@@A+158, ax
	mov	DWORD PTR ?dataDesc@?1???$DataMapInit@VCBasePlayerItem@@@@YAPAUdatamap_s@@PAVCBasePlayerItem@@@Z@4PAUtypedescription_s@@A+160, 0
	mov	DWORD PTR ?dataDesc@?1???$DataMapInit@VCBasePlayerItem@@@@YAPAUdatamap_s@@PAVCBasePlayerItem@@@Z@4PAUtypedescription_s@@A+164, OFFSET ?FallThink@CBasePlayerItem@@QAEXXZ ; CBasePlayerItem::FallThink

; 532  : 	DEFINE_FUNCTION( Materialize ),

	mov	DWORD PTR ?dataDesc@?1???$DataMapInit@VCBasePlayerItem@@@@YAPAUdatamap_s@@PAVCBasePlayerItem@@@Z@4PAUtypedescription_s@@A+168, 18 ; 00000012H
	push	OFFSET ??_C@_0M@DKBJDEPK@Materialize?$AA@
	mov	ecx, OFFSET ?nameHolder@?1???$DataMapInit@VCBasePlayerItem@@@@YAPAUdatamap_s@@PAVCBasePlayerItem@@@Z@4VCDatadescGeneratedNameHolder@@A
	call	?GenerateName@CDatadescGeneratedNameHolder@@QAEPBDPBD@Z ; CDatadescGeneratedNameHolder::GenerateName
	mov	DWORD PTR ?dataDesc@?1???$DataMapInit@VCBasePlayerItem@@@@YAPAUdatamap_s@@PAVCBasePlayerItem@@@Z@4PAUtypedescription_s@@A+172, eax
	mov	DWORD PTR ?dataDesc@?1???$DataMapInit@VCBasePlayerItem@@@@YAPAUdatamap_s@@PAVCBasePlayerItem@@@Z@4PAUtypedescription_s@@A+176, 0
	mov	eax, 1
	mov	WORD PTR ?dataDesc@?1???$DataMapInit@VCBasePlayerItem@@@@YAPAUdatamap_s@@PAVCBasePlayerItem@@@Z@4PAUtypedescription_s@@A+180, ax
	mov	eax, 8
	mov	WORD PTR ?dataDesc@?1???$DataMapInit@VCBasePlayerItem@@@@YAPAUdatamap_s@@PAVCBasePlayerItem@@@Z@4PAUtypedescription_s@@A+182, ax
	mov	DWORD PTR ?dataDesc@?1???$DataMapInit@VCBasePlayerItem@@@@YAPAUdatamap_s@@PAVCBasePlayerItem@@@Z@4PAUtypedescription_s@@A+184, 0
	mov	DWORD PTR ?dataDesc@?1???$DataMapInit@VCBasePlayerItem@@@@YAPAUdatamap_s@@PAVCBasePlayerItem@@@Z@4PAUtypedescription_s@@A+188, OFFSET ?Materialize@CBasePlayerItem@@QAEXXZ ; CBasePlayerItem::Materialize

; 533  : 	DEFINE_FUNCTION( AttemptToMaterialize ),

	mov	DWORD PTR ?dataDesc@?1???$DataMapInit@VCBasePlayerItem@@@@YAPAUdatamap_s@@PAVCBasePlayerItem@@@Z@4PAUtypedescription_s@@A+192, 18 ; 00000012H
	push	OFFSET ??_C@_0BF@FNHCPPFE@AttemptToMaterialize?$AA@
	mov	ecx, OFFSET ?nameHolder@?1???$DataMapInit@VCBasePlayerItem@@@@YAPAUdatamap_s@@PAVCBasePlayerItem@@@Z@4VCDatadescGeneratedNameHolder@@A
	call	?GenerateName@CDatadescGeneratedNameHolder@@QAEPBDPBD@Z ; CDatadescGeneratedNameHolder::GenerateName
	mov	DWORD PTR ?dataDesc@?1???$DataMapInit@VCBasePlayerItem@@@@YAPAUdatamap_s@@PAVCBasePlayerItem@@@Z@4PAUtypedescription_s@@A+196, eax
	mov	DWORD PTR ?dataDesc@?1???$DataMapInit@VCBasePlayerItem@@@@YAPAUdatamap_s@@PAVCBasePlayerItem@@@Z@4PAUtypedescription_s@@A+200, 0
	mov	eax, 1
	mov	WORD PTR ?dataDesc@?1???$DataMapInit@VCBasePlayerItem@@@@YAPAUdatamap_s@@PAVCBasePlayerItem@@@Z@4PAUtypedescription_s@@A+204, ax
	mov	eax, 8
	mov	WORD PTR ?dataDesc@?1???$DataMapInit@VCBasePlayerItem@@@@YAPAUdatamap_s@@PAVCBasePlayerItem@@@Z@4PAUtypedescription_s@@A+206, ax
	mov	DWORD PTR ?dataDesc@?1???$DataMapInit@VCBasePlayerItem@@@@YAPAUdatamap_s@@PAVCBasePlayerItem@@@Z@4PAUtypedescription_s@@A+208, 0
	mov	DWORD PTR ?dataDesc@?1???$DataMapInit@VCBasePlayerItem@@@@YAPAUdatamap_s@@PAVCBasePlayerItem@@@Z@4PAUtypedescription_s@@A+212, OFFSET ?AttemptToMaterialize@CBasePlayerItem@@QAEXXZ ; CBasePlayerItem::AttemptToMaterialize
	mov	DWORD PTR __$EHRec$[ebp+8], -1
	push	OFFSET ?$TSS1@?1???$DataMapInit@VCBasePlayerItem@@@@YAPAUdatamap_s@@PAVCBasePlayerItem@@@Z@4HA
	call	__Init_thread_footer
	add	esp, 4
$LN3@DataMapIni:

; 534  : END_DATADESC()

	mov	eax, 1
	test	eax, eax
	je	SHORT $LN4@DataMapIni
	mov	DWORD PTR ?m_DataMap@CBasePlayerItem@@2Udatamap_s@@A+4, 8
	mov	eax, 24					; 00000018H
	shl	eax, 0
	add	eax, OFFSET ?dataDesc@?1???$DataMapInit@VCBasePlayerItem@@@@YAPAUdatamap_s@@PAVCBasePlayerItem@@@Z@4PAUtypedescription_s@@A
	mov	DWORD PTR ?m_DataMap@CBasePlayerItem@@2Udatamap_s@@A, eax
	jmp	SHORT $LN5@DataMapIni
$LN4@DataMapIni:
	mov	DWORD PTR ?m_DataMap@CBasePlayerItem@@2Udatamap_s@@A+4, 1
	mov	DWORD PTR ?m_DataMap@CBasePlayerItem@@2Udatamap_s@@A, OFFSET ?dataDesc@?1???$DataMapInit@VCBasePlayerItem@@@@YAPAUdatamap_s@@PAVCBasePlayerItem@@@Z@4PAUtypedescription_s@@A
$LN5@DataMapIni:
	mov	eax, OFFSET ?m_DataMap@CBasePlayerItem@@2Udatamap_s@@A ; CBasePlayerItem::m_DataMap
	mov	ecx, DWORD PTR __$EHRec$[ebp]
	mov	DWORD PTR fs:0, ecx
	pop	ecx
	pop	edi
	pop	esi
	pop	ebx
	mov	esp, ebp
	pop	ebp
	ret	0
_TEXT	ENDS
;	COMDAT text$x
text$x	SEGMENT
__unwindfunclet$??$DataMapInit@VCBasePlayerItem@@@@YAPAUdatamap_s@@PAVCBasePlayerItem@@@Z$0:
	push	OFFSET ?$TSS0@?1???$DataMapInit@VCBasePlayerItem@@@@YAPAUdatamap_s@@PAVCBasePlayerItem@@@Z@4HA
	call	__Init_thread_abort
	pop	ecx
	ret	0
__unwindfunclet$??$DataMapInit@VCBasePlayerItem@@@@YAPAUdatamap_s@@PAVCBasePlayerItem@@@Z$1:
	push	OFFSET ?$TSS1@?1???$DataMapInit@VCBasePlayerItem@@@@YAPAUdatamap_s@@PAVCBasePlayerItem@@@Z@4HA
	call	__Init_thread_abort
	pop	ecx
	ret	0
__ehhandler$??$DataMapInit@VCBasePlayerItem@@@@YAPAUdatamap_s@@PAVCBasePlayerItem@@@Z:
	mov	edx, DWORD PTR [esp+8]
	lea	eax, DWORD PTR [edx+12]
	mov	ecx, DWORD PTR [edx-80]
	xor	ecx, eax
	call	@__security_check_cookie@4
	mov	eax, OFFSET __ehfuncinfo$??$DataMapInit@VCBasePlayerItem@@@@YAPAUdatamap_s@@PAVCBasePlayerItem@@@Z
	jmp	___CxxFrameHandler3
text$x	ENDS
??$DataMapInit@VCBasePlayerItem@@@@YAPAUdatamap_s@@PAVCBasePlayerItem@@@Z ENDP ; DataMapInit<CBasePlayerItem>
; Function compile flags: /Odtp /ZI
; File d:\!diffusion 2020\source code 2022\client-server\common\datamap.h
;	COMDAT ??$DataMapAccess@VCBaseAnimating@@@@YAXPAVCBaseAnimating@@PAPAUdatamap_s@@@Z
_TEXT	SEGMENT
_ignored$ = 8						; size = 4
_p$ = 12						; size = 4
??$DataMapAccess@VCBaseAnimating@@@@YAXPAVCBaseAnimating@@PAPAUdatamap_s@@@Z PROC ; DataMapAccess<CBaseAnimating>, COMDAT

; 184  : {

	push	ebp
	mov	ebp, esp
	sub	esp, 64					; 00000040H
	push	ebx
	push	esi
	push	edi

; 185  : 	*p = &T::m_DataMap;

	mov	eax, DWORD PTR _p$[ebp]
	mov	DWORD PTR [eax], OFFSET ?m_DataMap@CBaseAnimating@@2Udatamap_s@@A ; CBaseAnimating::m_DataMap

; 186  : }

	pop	edi
	pop	esi
	pop	ebx
	mov	esp, ebp
	pop	ebp
	ret	0
??$DataMapAccess@VCBaseAnimating@@@@YAXPAVCBaseAnimating@@PAPAUdatamap_s@@@Z ENDP ; DataMapAccess<CBaseAnimating>
_TEXT	ENDS
; Function compile flags: /Odtp /ZI
; File d:\!diffusion 2020\source code 2022\client-server\server\weapons\weapons.cpp
;	COMDAT ?W_Precache@@YAXXZ
_TEXT	SEGMENT
?W_Precache@@YAXXZ PROC					; W_Precache, COMDAT

; 388  : {

	push	ebp
	mov	ebp, esp
	sub	esp, 64					; 00000040H
	push	ebx
	push	esi
	push	edi

; 389  : 	memset( CBasePlayerItem::ItemInfoArray, 0, sizeof(CBasePlayerItem::ItemInfoArray) );

	push	2816					; 00000b00H
	push	0
	push	OFFSET ?ItemInfoArray@CBasePlayerItem@@2PAUItemInfo@@A ; CBasePlayerItem::ItemInfoArray
	call	_memset
	add	esp, 12					; 0000000cH

; 390  : 	memset( CBasePlayerItem::AmmoInfoArray, 0, sizeof(CBasePlayerItem::AmmoInfoArray) );

	push	256					; 00000100H
	push	0
	push	OFFSET ?AmmoInfoArray@CBasePlayerItem@@2PAUAmmoInfo@@A ; CBasePlayerItem::AmmoInfoArray
	call	_memset
	add	esp, 12					; 0000000cH

; 391  : 	giAmmoIndex = 0;

	mov	DWORD PTR ?giAmmoIndex@@3HA, 0		; giAmmoIndex

; 392  : 
; 393  : 	// custom items...
; 394  : 
; 395  : 	// common world objects
; 396  : 	UTIL_PrecacheOther( "item_suit" );

	push	OFFSET ??_C@_09PNLMJFNO@item_suit?$AA@
	call	?UTIL_PrecacheOther@@YAXPBD@Z		; UTIL_PrecacheOther
	add	esp, 4

; 397  : //	UTIL_PrecacheOther( "item_battery" );
; 398  : //	UTIL_PrecacheOther( "item_antidote" );
; 399  : //	UTIL_PrecacheOther( "item_security" );
; 400  : //	UTIL_PrecacheOther( "item_longjump" );
; 401  : 
; 402  : 	// shotgun
; 403  : 	UTIL_PrecacheOtherWeapon( "weapon_shotgun" );

	push	OFFSET ??_C@_0P@ILAKNOAG@weapon_shotgun?$AA@
	call	?UTIL_PrecacheOtherWeapon@@YAXPBD@Z	; UTIL_PrecacheOtherWeapon
	add	esp, 4

; 404  : 	UTIL_PrecacheOtherWeapon( "weapon_shotgun_xm" );

	push	OFFSET ??_C@_0BC@OCDMEOEA@weapon_shotgun_xm?$AA@
	call	?UTIL_PrecacheOtherWeapon@@YAXPBD@Z	; UTIL_PrecacheOtherWeapon
	add	esp, 4

; 405  : 	UTIL_PrecacheOther( "ammo_buckshot" );

	push	OFFSET ??_C@_0O@ENPHGKLB@ammo_buckshot?$AA@
	call	?UTIL_PrecacheOther@@YAXPBD@Z		; UTIL_PrecacheOther
	add	esp, 4

; 406  : 
; 407  : 	// crowbar
; 408  : 	UTIL_PrecacheOtherWeapon( "weapon_knife" );

	push	OFFSET ??_C@_0N@CFAHNHDH@weapon_knife?$AA@
	call	?UTIL_PrecacheOtherWeapon@@YAXPBD@Z	; UTIL_PrecacheOtherWeapon
	add	esp, 4

; 409  : 
; 410  : 	// glock
; 411  : 	UTIL_PrecacheOtherWeapon( "weapon_9mmhandgun" );

	push	OFFSET ??_C@_0BC@GDALAHJA@weapon_9mmhandgun?$AA@
	call	?UTIL_PrecacheOtherWeapon@@YAXPBD@Z	; UTIL_PrecacheOtherWeapon
	add	esp, 4

; 412  : 	UTIL_PrecacheOther( "ammo_9mmclip" );

	push	OFFSET ??_C@_0N@IAIGGIKN@ammo_9mmclip?$AA@
	call	?UTIL_PrecacheOther@@YAXPBD@Z		; UTIL_PrecacheOther
	add	esp, 4

; 413  : 
; 414  : 	// mp5
; 415  : 	UTIL_PrecacheOtherWeapon( "weapon_9mmAR" );

	push	OFFSET ??_C@_0N@BIGGDBN@weapon_9mmAR?$AA@
	call	?UTIL_PrecacheOtherWeapon@@YAXPBD@Z	; UTIL_PrecacheOtherWeapon
	add	esp, 4

; 416  : 	UTIL_PrecacheOther( "ammo_9mmAR" );

	push	OFFSET ??_C@_0L@CCAPNHPH@ammo_9mmAR?$AA@
	call	?UTIL_PrecacheOther@@YAXPBD@Z		; UTIL_PrecacheOther
	add	esp, 4

; 417  : 	UTIL_PrecacheOther( "ammo_ARgrenades" );

	push	OFFSET ??_C@_0BA@KLCOFANC@ammo_ARgrenades?$AA@
	call	?UTIL_PrecacheOther@@YAXPBD@Z		; UTIL_PrecacheOther
	add	esp, 4

; 418  : 
; 419  : 	// python
; 420  : 	UTIL_PrecacheOtherWeapon( "weapon_357" );

	push	OFFSET ??_C@_0L@DGJNBIBM@weapon_357?$AA@
	call	?UTIL_PrecacheOtherWeapon@@YAXPBD@Z	; UTIL_PrecacheOtherWeapon
	add	esp, 4

; 421  : 	UTIL_PrecacheOther( "ammo_357" );

	push	OFFSET ??_C@_08OALJNDGM@ammo_357?$AA@
	call	?UTIL_PrecacheOther@@YAXPBD@Z		; UTIL_PrecacheOther
	add	esp, 4

; 422  : 
; 423  : 	// gauss
; 424  : 	UTIL_PrecacheOtherWeapon( "weapon_gausniper" );

	push	OFFSET ??_C@_0BB@PMMHEOKD@weapon_gausniper?$AA@
	call	?UTIL_PrecacheOtherWeapon@@YAXPBD@Z	; UTIL_PrecacheOtherWeapon
	add	esp, 4

; 425  : 	UTIL_PrecacheOther( "ammo_gaussclip" );

	push	OFFSET ??_C@_0P@BLGPJBGG@ammo_gaussclip?$AA@
	call	?UTIL_PrecacheOther@@YAXPBD@Z		; UTIL_PrecacheOther
	add	esp, 4

; 426  : 
; 427  : 	// rpg
; 428  : 	UTIL_PrecacheOtherWeapon( "weapon_rpg" );

	push	OFFSET ??_C@_0L@NJNPDFDL@weapon_rpg?$AA@
	call	?UTIL_PrecacheOtherWeapon@@YAXPBD@Z	; UTIL_PrecacheOtherWeapon
	add	esp, 4

; 429  : 	UTIL_PrecacheOther( "ammo_rpgclip" );

	push	OFFSET ??_C@_0N@FDODGIHO@ammo_rpgclip?$AA@
	call	?UTIL_PrecacheOther@@YAXPBD@Z		; UTIL_PrecacheOther
	add	esp, 4

; 430  : 
; 431  : 	// crossbow
; 432  : 	UTIL_PrecacheOtherWeapon( "weapon_crossbow" );

	push	OFFSET ??_C@_0BA@IMEECLKD@weapon_crossbow?$AA@
	call	?UTIL_PrecacheOtherWeapon@@YAXPBD@Z	; UTIL_PrecacheOtherWeapon
	add	esp, 4

; 433  : 	UTIL_PrecacheOther( "ammo_crossbow" );

	push	OFFSET ??_C@_0O@DMPMCOMO@ammo_crossbow?$AA@
	call	?UTIL_PrecacheOther@@YAXPBD@Z		; UTIL_PrecacheOther
	add	esp, 4

; 434  : 
; 435  : 	// egon
; 436  : //	UTIL_PrecacheOtherWeapon( "weapon_egon" );
; 437  : 
; 438  : 	// tripmine
; 439  : 	UTIL_PrecacheOtherWeapon( "weapon_tripmine" );

	push	OFFSET ??_C@_0BA@NAEGPHIJ@weapon_tripmine?$AA@
	call	?UTIL_PrecacheOtherWeapon@@YAXPBD@Z	; UTIL_PrecacheOtherWeapon
	add	esp, 4

; 440  : 
; 441  : 	// satchel charge
; 442  : 	UTIL_PrecacheOtherWeapon( "weapon_satchel" );

	push	OFFSET ??_C@_0P@NDDAPDLL@weapon_satchel?$AA@
	call	?UTIL_PrecacheOtherWeapon@@YAXPBD@Z	; UTIL_PrecacheOtherWeapon
	add	esp, 4

; 443  : 
; 444  : 	// hand grenade
; 445  : 	UTIL_PrecacheOtherWeapon("weapon_handgrenade");

	push	OFFSET ??_C@_0BD@DKJAMAOF@weapon_handgrenade?$AA@
	call	?UTIL_PrecacheOtherWeapon@@YAXPBD@Z	; UTIL_PrecacheOtherWeapon
	add	esp, 4

; 446  : 
; 447  : 	// squeak grenade
; 448  : //	UTIL_PrecacheOtherWeapon( "weapon_snark" );
; 449  : 
; 450  : 	// hornetgun
; 451  : //	UTIL_PrecacheOtherWeapon( "weapon_hornetgun" );
; 452  : 
; 453  : 	// alien blaster rifle
; 454  : 	UTIL_PrecacheOtherWeapon( "weapon_ar2" );

	push	OFFSET ??_C@_0L@FPDLLADF@weapon_ar2?$AA@
	call	?UTIL_PrecacheOtherWeapon@@YAXPBD@Z	; UTIL_PrecacheOtherWeapon
	add	esp, 4

; 455  : 
; 456  : 	// pocket drones :)
; 457  : 	UTIL_PrecacheOtherWeapon( "weapon_drone" );

	push	OFFSET ??_C@_0N@FKDJBBAF@weapon_drone?$AA@
	call	?UTIL_PrecacheOtherWeapon@@YAXPBD@Z	; UTIL_PrecacheOtherWeapon
	add	esp, 4

; 458  : 	
; 459  : 	// and a sentry!
; 460  : 	UTIL_PrecacheOtherWeapon( "weapon_sentry" );

	push	OFFSET ??_C@_0O@CJMKLEPM@weapon_sentry?$AA@
	call	?UTIL_PrecacheOtherWeapon@@YAXPBD@Z	; UTIL_PrecacheOtherWeapon
	add	esp, 4

; 461  : 
; 462  : 	// MP5
; 463  : 	UTIL_PrecacheOtherWeapon( "weapon_hkmp5" );

	push	OFFSET ??_C@_0N@EGABDPCI@weapon_hkmp5?$AA@
	call	?UTIL_PrecacheOtherWeapon@@YAXPBD@Z	; UTIL_PrecacheOtherWeapon
	add	esp, 4

; 464  : 
; 465  : 	// FiveSeven pistol
; 466  : 	UTIL_PrecacheOtherWeapon( "weapon_fiveseven" );

	push	OFFSET ??_C@_0BB@JLPINHFH@weapon_fiveseven?$AA@
	call	?UTIL_PrecacheOtherWeapon@@YAXPBD@Z	; UTIL_PrecacheOtherWeapon
	add	esp, 4

; 467  : 
; 468  : 	// sniper
; 469  : 	UTIL_PrecacheOtherWeapon( "weapon_sniper" );

	push	OFFSET ??_C@_0O@IENCGDEG@weapon_sniper?$AA@
	call	?UTIL_PrecacheOtherWeapon@@YAXPBD@Z	; UTIL_PrecacheOtherWeapon
	add	esp, 4

; 470  : 
; 471  : 	UTIL_PrecacheOtherWeapon( "weapon_g36c" );

	push	OFFSET ??_C@_0M@LDNNKFND@weapon_g36c?$AA@
	call	?UTIL_PrecacheOtherWeapon@@YAXPBD@Z	; UTIL_PrecacheOtherWeapon
	add	esp, 4

; 472  : 
; 473  : 	if ( g_pGameRules->IsDeathmatch() )

	mov	eax, DWORD PTR ?g_pGameRules@@3PAVCGameRules@@A ; g_pGameRules
	mov	edx, DWORD PTR [eax]
	mov	ecx, DWORD PTR ?g_pGameRules@@3PAVCGameRules@@A ; g_pGameRules
	mov	eax, DWORD PTR [edx+28]
	call	eax
	test	eax, eax
	je	SHORT $LN2@W_Precache

; 474  : 		UTIL_PrecacheOther( "weaponbox" );// container for dropped deathmatch weapons

	push	OFFSET ??_C@_09ENPIJEF@weaponbox?$AA@
	call	?UTIL_PrecacheOther@@YAXPBD@Z		; UTIL_PrecacheOther
	add	esp, 4
$LN2@W_Precache:

; 475  : 
; 476  : 	g_sModelIndexFireball = PRECACHE_MODEL ("sprites/zerogxplode.spr");// fireball

	push	OFFSET ??_C@_0BI@OKNOKJPL@sprites?1zerogxplode?4spr?$AA@
	call	DWORD PTR ?g_engfuncs@@3Uenginefuncs_s@@A
	add	esp, 4
	mov	WORD PTR ?g_sModelIndexFireball@@3FA, ax ; g_sModelIndexFireball

; 477  : 	g_sModelIndexWExplosion = PRECACHE_MODEL ("sprites/WXplo1.spr");// underwater fireball

	push	OFFSET ??_C@_0BD@PKIKCPOP@sprites?1WXplo1?4spr?$AA@
	call	DWORD PTR ?g_engfuncs@@3Uenginefuncs_s@@A
	add	esp, 4
	mov	WORD PTR ?g_sModelIndexWExplosion@@3FA, ax ; g_sModelIndexWExplosion

; 478  : 	g_sModelIndexSmoke = PRECACHE_MODEL ("sprites/steam1.spr");// smoke

	push	OFFSET ??_C@_0BD@HDGDDDCC@sprites?1steam1?4spr?$AA@
	call	DWORD PTR ?g_engfuncs@@3Uenginefuncs_s@@A
	add	esp, 4
	mov	WORD PTR ?g_sModelIndexSmoke@@3FA, ax	; g_sModelIndexSmoke

; 479  : 	g_sModelIndexBubbles = PRECACHE_MODEL ("sprites/bubble.spr");//bubbles

	push	OFFSET ??_C@_0BD@CIFPGIGI@sprites?1bubble?4spr?$AA@
	call	DWORD PTR ?g_engfuncs@@3Uenginefuncs_s@@A
	add	esp, 4
	mov	WORD PTR ?g_sModelIndexBubbles@@3FA, ax	; g_sModelIndexBubbles

; 480  : 	g_sModelIndexBloodSpray = PRECACHE_MODEL ("sprites/bloodspray.spr"); // initial blood

	push	OFFSET ??_C@_0BH@KCADAOLD@sprites?1bloodspray?4spr?$AA@
	call	DWORD PTR ?g_engfuncs@@3Uenginefuncs_s@@A
	add	esp, 4
	mov	WORD PTR ?g_sModelIndexBloodSpray@@3FA, ax ; g_sModelIndexBloodSpray

; 481  : 	g_sModelIndexBloodDrop = PRECACHE_MODEL ("sprites/blood.spr"); // splattered blood 

	push	OFFSET ??_C@_0BC@NDANIGIC@sprites?1blood?4spr?$AA@
	call	DWORD PTR ?g_engfuncs@@3Uenginefuncs_s@@A
	add	esp, 4
	mov	WORD PTR ?g_sModelIndexBloodDrop@@3FA, ax ; g_sModelIndexBloodDrop

; 482  : 	g_sModelIndexFire = PRECACHE_MODEL("sprites/fire3.spr"); // caught fire

	push	OFFSET ??_C@_0BC@MCDECAEM@sprites?1fire3?4spr?$AA@
	call	DWORD PTR ?g_engfuncs@@3Uenginefuncs_s@@A
	add	esp, 4
	mov	WORD PTR ?g_sModelIndexFire@@3FA, ax	; g_sModelIndexFire

; 483  : 	g_sModelIndexMetalGibs = PRECACHE_MODEL( "models/npc/dronegibs.mdl" );

	push	OFFSET ??_C@_0BJ@CKJPBHMC@models?1npc?1dronegibs?4mdl?$AA@
	call	DWORD PTR ?g_engfuncs@@3Uenginefuncs_s@@A
	add	esp, 4
	mov	WORD PTR ?g_sModelIndexMetalGibs@@3FA, ax ; g_sModelIndexMetalGibs

; 484  : 
; 485  : 	g_sModelIndexLaser = PRECACHE_MODEL( (char *)g_pModelNameLaser );

	mov	eax, DWORD PTR ?g_pModelNameLaser@@3PBDB ; g_pModelNameLaser
	push	eax
	call	DWORD PTR ?g_engfuncs@@3Uenginefuncs_s@@A
	add	esp, 4
	mov	WORD PTR ?g_sModelIndexLaser@@3FA, ax	; g_sModelIndexLaser

; 486  : 	g_sModelIndexLaserDot = PRECACHE_MODEL("sprites/laserdot.spr");

	push	OFFSET ??_C@_0BF@LHKHEIDI@sprites?1laserdot?4spr?$AA@
	call	DWORD PTR ?g_engfuncs@@3Uenginefuncs_s@@A
	add	esp, 4
	mov	WORD PTR ?g_sModelIndexLaserDot@@3FA, ax ; g_sModelIndexLaserDot

; 487  : 
; 488  : 	g_sModelIndexTinySpit = PRECACHE_MODEL( "sprites/tinyspit.spr" );

	push	OFFSET ??_C@_0BF@ILAFLNHD@sprites?1tinyspit?4spr?$AA@
	call	DWORD PTR ?g_engfuncs@@3Uenginefuncs_s@@A
	add	esp, 4
	mov	WORD PTR ?g_sModelIndexTinySpit@@3FA, ax ; g_sModelIndexTinySpit

; 489  : 	g_sBlastTexture = PRECACHE_MODEL( "sprites/shockwave.spr" );

	push	OFFSET ??_C@_0BG@BLGGLBDG@sprites?1shockwave?4spr?$AA@
	call	DWORD PTR ?g_engfuncs@@3Uenginefuncs_s@@A
	add	esp, 4
	mov	WORD PTR ?g_sBlastTexture@@3FA, ax	; g_sBlastTexture

; 490  : 
; 491  : 	// used by explosions
; 492  : 	PRECACHE_MODEL ("models/grenade.mdl");

	push	OFFSET ??_C@_0BD@HNJLMAMD@models?1grenade?4mdl?$AA@
	call	DWORD PTR ?g_engfuncs@@3Uenginefuncs_s@@A
	add	esp, 4

; 493  : 	PRECACHE_MODEL ("sprites/explode1.spr");

	push	OFFSET ??_C@_0BF@GCBOLJMB@sprites?1explode1?4spr?$AA@
	call	DWORD PTR ?g_engfuncs@@3Uenginefuncs_s@@A
	add	esp, 4

; 494  : 
; 495  : 	PRECACHE_SOUND ("weapons/debris1.wav");// explosion aftermaths

	push	OFFSET ??_C@_0BE@JJJKAAPC@weapons?1debris1?4wav?$AA@
	call	DWORD PTR ?g_engfuncs@@3Uenginefuncs_s@@A+4
	add	esp, 4

; 496  : 	PRECACHE_SOUND ("weapons/debris2.wav");// explosion aftermaths

	push	OFFSET ??_C@_0BE@BPAOHCFM@weapons?1debris2?4wav?$AA@
	call	DWORD PTR ?g_engfuncs@@3Uenginefuncs_s@@A+4
	add	esp, 4

; 497  : 	PRECACHE_SOUND ("weapons/debris3.wav");// explosion aftermaths

	push	OFFSET ??_C@_0BE@NEFCKBPJ@weapons?1debris3?4wav?$AA@
	call	DWORD PTR ?g_engfuncs@@3Uenginefuncs_s@@A+4
	add	esp, 4

; 498  : 
; 499  : 	PRECACHE_SOUND ("weapons/grenade_hit1.wav");//grenade

	push	OFFSET ??_C@_0BJ@EONCICHB@weapons?1grenade_hit1?4wav?$AA@
	call	DWORD PTR ?g_engfuncs@@3Uenginefuncs_s@@A+4
	add	esp, 4

; 500  : 	PRECACHE_SOUND ("weapons/grenade_hit2.wav");//grenade

	push	OFFSET ??_C@_0BJ@MIEGPANP@weapons?1grenade_hit2?4wav?$AA@
	call	DWORD PTR ?g_engfuncs@@3Uenginefuncs_s@@A+4
	add	esp, 4

; 501  : 	PRECACHE_SOUND ("weapons/grenade_hit3.wav");//grenade

	push	OFFSET ??_C@_0BJ@DBKCDHK@weapons?1grenade_hit3?4wav?$AA@
	call	DWORD PTR ?g_engfuncs@@3Uenginefuncs_s@@A+4
	add	esp, 4

; 502  : 
; 503  : 	PRECACHE_SOUND ("weapons/bullet_hit1.wav");	// hit by bullet

	push	OFFSET ??_C@_0BI@EOPFENC@weapons?1bullet_hit1?4wav?$AA@
	call	DWORD PTR ?g_engfuncs@@3Uenginefuncs_s@@A+4
	add	esp, 4

; 504  : 	PRECACHE_SOUND ("weapons/bullet_hit2.wav");	// hit by bullet

	push	OFFSET ??_C@_0BI@ICHLCGHM@weapons?1bullet_hit2?4wav?$AA@
	call	DWORD PTR ?g_engfuncs@@3Uenginefuncs_s@@A+4
	add	esp, 4

; 505  : 	
; 506  : 	PRECACHE_SOUND ("items/weapondrop1.wav");// weapon falls to the ground

	push	OFFSET ??_C@_0BG@CGGPMCHD@items?1weapondrop1?4wav?$AA@
	call	DWORD PTR ?g_engfuncs@@3Uenginefuncs_s@@A+4
	add	esp, 4

; 507  : 
; 508  : 	//Shock trooper
; 509  : //	PRECACHE_MODEL( "models/spore.mdl" );
; 510  : //	g_sModelIndexSpore1 = PRECACHE_MODEL( "sprites/spore_exp_01.spr" );
; 511  : //	g_sModelIndexSpore2 = PRECACHE_MODEL( "sprites/spore_exp_b_01.spr" );
; 512  : //	g_sModelIndexSpore3 = PRECACHE_MODEL( "sprites/spore_exp_c_01.spr" );
; 513  : 
; 514  : //	g_sModelIndexBigSpit = PRECACHE_MODEL( "sprites/bigspit.spr" );
; 515  : //	g_sModelIndexTinySpit = PRECACHE_MODEL( "sprites/tinyspit.spr" );
; 516  : 
; 517  : 	PRECACHE_SOUND( "weapons/splauncher_impact.wav" );//explosion aftermaths

	push	OFFSET ??_C@_0BO@JJIOHFDC@weapons?1splauncher_impact?4wav?$AA@
	call	DWORD PTR ?g_engfuncs@@3Uenginefuncs_s@@A+4
	add	esp, 4

; 518  : 
; 519  : //	PRECACHE_SOUND( "weapons/spore_hit1.wav" );//sporegrenade
; 520  : //	PRECACHE_SOUND( "weapons/spore_hit2.wav" );//sporegrenade
; 521  : //	PRECACHE_SOUND( "weapons/spore_hit3.wav" );//sporegrenade
; 522  : 
; 523  : }

	pop	edi
	pop	esi
	pop	ebx
	mov	esp, ebp
	pop	ebp
	ret	0
?W_Precache@@YAXXZ ENDP					; W_Precache
_TEXT	ENDS
; Function compile flags: /Odtp /ZI
; File d:\!diffusion 2020\source code 2022\client-server\server\weapons\weapons.cpp
;	COMDAT ?UTIL_PrecacheOtherWeapon@@YAXPBD@Z
_TEXT	SEGMENT
_II$ = -48						; size = 44
_pEntity$ = -4						; size = 4
_szClassname$ = 8					; size = 4
?UTIL_PrecacheOtherWeapon@@YAXPBD@Z PROC		; UTIL_PrecacheOtherWeapon, COMDAT

; 351  : {

	push	ebp
	mov	ebp, esp
	sub	esp, 112				; 00000070H
	push	ebx
	push	esi
	push	edi

; 352  : 	CBaseEntity *pEntity = CreateEntityByName( szClassname );

	push	0
	mov	eax, DWORD PTR _szClassname$[ebp]
	push	eax
	call	?CreateEntityByName@@YAPAVCBaseEntity@@PBDPAUentvars_s@@@Z ; CreateEntityByName
	add	esp, 8
	mov	DWORD PTR _pEntity$[ebp], eax

; 353  : 
; 354  : 	if( !pEntity )

	cmp	DWORD PTR _pEntity$[ebp], 0
	jne	SHORT $LN2@UTIL_Preca

; 355  : 	{
; 356  : 		ALERT ( at_console, "NULL Ent in UTIL_PrecacheOtherWeapon\n" );

	push	OFFSET ??_C@_0CG@PAFNIJCC@NULL?5Ent?5in?5UTIL_PrecacheOtherWe@
	push	1
	call	DWORD PTR ?g_engfuncs@@3Uenginefuncs_s@@A+244
	add	esp, 8

; 357  : 		return;

	jmp	$LN1@UTIL_Preca
$LN2@UTIL_Preca:

; 358  : 	}
; 359  : 	
; 360  : 	ItemInfo II;
; 361  : 	pEntity->Precache( );

	mov	eax, DWORD PTR _pEntity$[ebp]
	mov	edx, DWORD PTR [eax]
	mov	ecx, DWORD PTR _pEntity$[ebp]
	mov	eax, DWORD PTR [edx+8]
	call	eax

; 362  : 	memset( &II, 0, sizeof II );

	push	44					; 0000002cH
	push	0
	lea	eax, DWORD PTR _II$[ebp]
	push	eax
	call	_memset
	add	esp, 12					; 0000000cH

; 363  : 
; 364  : 	if ( ((CBasePlayerItem*)pEntity)->GetItemInfo( &II ) )

	lea	eax, DWORD PTR _II$[ebp]
	push	eax
	mov	ecx, DWORD PTR _pEntity$[ebp]
	mov	edx, DWORD PTR [ecx]
	mov	ecx, DWORD PTR _pEntity$[ebp]
	mov	eax, DWORD PTR [edx+388]
	call	eax
	test	eax, eax
	je	SHORT $LN3@UTIL_Preca

; 365  : 	{
; 366  : 		CBasePlayerItem::ItemInfoArray[II.iId] = II;

	imul	edi, DWORD PTR _II$[ebp+32], 44
	add	edi, OFFSET ?ItemInfoArray@CBasePlayerItem@@2PAUItemInfo@@A ; CBasePlayerItem::ItemInfoArray
	mov	ecx, 11					; 0000000bH
	lea	esi, DWORD PTR _II$[ebp]
	rep movsd

; 367  : 
; 368  : 		if ( II.pszAmmo1 && *II.pszAmmo1 )

	cmp	DWORD PTR _II$[ebp+8], 0
	je	SHORT $LN4@UTIL_Preca
	mov	eax, DWORD PTR _II$[ebp+8]
	movsx	ecx, BYTE PTR [eax]
	test	ecx, ecx
	je	SHORT $LN4@UTIL_Preca

; 369  : 		{
; 370  : 			AddAmmoNameToAmmoRegistry( II.pszAmmo1 );

	mov	eax, DWORD PTR _II$[ebp+8]
	push	eax
	call	?AddAmmoNameToAmmoRegistry@@YAXPBD@Z	; AddAmmoNameToAmmoRegistry
	add	esp, 4
$LN4@UTIL_Preca:

; 371  : 		}
; 372  : 
; 373  : 		if ( II.pszAmmo2 && *II.pszAmmo2 )

	cmp	DWORD PTR _II$[ebp+16], 0
	je	SHORT $LN5@UTIL_Preca
	mov	eax, DWORD PTR _II$[ebp+16]
	movsx	ecx, BYTE PTR [eax]
	test	ecx, ecx
	je	SHORT $LN5@UTIL_Preca

; 374  : 		{
; 375  : 			AddAmmoNameToAmmoRegistry( II.pszAmmo2 );

	mov	eax, DWORD PTR _II$[ebp+16]
	push	eax
	call	?AddAmmoNameToAmmoRegistry@@YAXPBD@Z	; AddAmmoNameToAmmoRegistry
	add	esp, 4
$LN5@UTIL_Preca:

; 376  : 		}
; 377  : 
; 378  : 		memset( &II, 0, sizeof II );

	push	44					; 0000002cH
	push	0
	lea	eax, DWORD PTR _II$[ebp]
	push	eax
	call	_memset
	add	esp, 12					; 0000000cH
$LN3@UTIL_Preca:

; 379  : 	}
; 380  : 
; 381  : 	REMOVE_ENTITY(pEntity->edict());

	mov	ecx, DWORD PTR _pEntity$[ebp]
	call	?edict@CBaseEntity@@QAEPAUedict_s@@XZ	; CBaseEntity::edict
	push	eax
	call	DWORD PTR ?g_engfuncs@@3Uenginefuncs_s@@A+88
	add	esp, 4
$LN1@UTIL_Preca:

; 382  : }

	pop	edi
	pop	esi
	pop	ebx
	mov	esp, ebp
	pop	ebp
	ret	0
?UTIL_PrecacheOtherWeapon@@YAXPBD@Z ENDP		; UTIL_PrecacheOtherWeapon
_TEXT	ENDS
; Function compile flags: /Odtp /ZI
; File d:\!diffusion 2020\source code 2022\client-server\server\weapons\weapons.cpp
;	COMDAT ?AddAmmoNameToAmmoRegistry@@YAXPBD@Z
_TEXT	SEGMENT
tv84 = -72						; size = 4
_i$1 = -4						; size = 4
_szAmmoname$ = 8					; size = 4
?AddAmmoNameToAmmoRegistry@@YAXPBD@Z PROC		; AddAmmoNameToAmmoRegistry, COMDAT

; 326  : {

	push	ebp
	mov	ebp, esp
	sub	esp, 72					; 00000048H
	push	ebx
	push	esi
	push	edi

; 327  : 	// make sure it's not already in the registry
; 328  : 	for ( int i = 0; i < MAX_AMMO_SLOTS; i++ )

	mov	DWORD PTR _i$1[ebp], 0
	jmp	SHORT $LN4@AddAmmoNam
$LN2@AddAmmoNam:
	mov	eax, DWORD PTR _i$1[ebp]
	add	eax, 1
	mov	DWORD PTR _i$1[ebp], eax
$LN4@AddAmmoNam:
	cmp	DWORD PTR _i$1[ebp], 32			; 00000020H
	jge	SHORT $LN3@AddAmmoNam

; 329  : 	{
; 330  : 		if ( !CBasePlayerItem::AmmoInfoArray[i].pszName)

	mov	eax, DWORD PTR _i$1[ebp]
	cmp	DWORD PTR ?AmmoInfoArray@CBasePlayerItem@@2PAUAmmoInfo@@A[eax*8], 0
	jne	SHORT $LN5@AddAmmoNam

; 331  : 			continue;

	jmp	SHORT $LN2@AddAmmoNam
$LN5@AddAmmoNam:

; 332  : 
; 333  : 		if ( stricmp( CBasePlayerItem::AmmoInfoArray[i].pszName, szAmmoname ) == 0 )

	mov	eax, DWORD PTR _szAmmoname$[ebp]
	push	eax
	mov	ecx, DWORD PTR _i$1[ebp]
	mov	edx, DWORD PTR ?AmmoInfoArray@CBasePlayerItem@@2PAUAmmoInfo@@A[ecx*8]
	push	edx
	call	_stricmp
	add	esp, 8
	test	eax, eax
	jne	SHORT $LN6@AddAmmoNam

; 334  : 			return; // ammo already in registry, just quite

	jmp	SHORT $LN1@AddAmmoNam
$LN6@AddAmmoNam:

; 335  : 	}

	jmp	SHORT $LN2@AddAmmoNam
$LN3@AddAmmoNam:

; 336  : 
; 337  : 
; 338  : 	giAmmoIndex++;

	mov	eax, DWORD PTR ?giAmmoIndex@@3HA	; giAmmoIndex
	add	eax, 1
	mov	DWORD PTR ?giAmmoIndex@@3HA, eax	; giAmmoIndex

; 339  : 	ASSERT( giAmmoIndex < MAX_AMMO_SLOTS );

	cmp	DWORD PTR ?giAmmoIndex@@3HA, 32		; giAmmoIndex, 00000020H
	jge	SHORT $LN9@AddAmmoNam
	mov	DWORD PTR tv84[ebp], 1
	jmp	SHORT $LN10@AddAmmoNam
$LN9@AddAmmoNam:
	mov	DWORD PTR tv84[ebp], 0
$LN10@AddAmmoNam:
	push	0
	mov	eax, DWORD PTR ?__LINE__Var@?0??AddAmmoNameToAmmoRegistry@@YAXPBD@Z@4JA
	add	eax, 13					; 0000000dH
	push	eax
	push	OFFSET ??_C@_0EN@KEDJBJDH@d?3?2?$CBdiffusion?52020?2source?5code?52@
	push	OFFSET ??_C@_0BN@PGDBFCCH@giAmmoIndex?5?$DM?5MAX_AMMO_SLOTS?$AA@
	mov	ecx, DWORD PTR tv84[ebp]
	push	ecx
	call	?DBG_AssertFunction@@YAXHPBD0H0@Z	; DBG_AssertFunction
	add	esp, 20					; 00000014H

; 340  : 	if ( giAmmoIndex >= MAX_AMMO_SLOTS )

	cmp	DWORD PTR ?giAmmoIndex@@3HA, 32		; giAmmoIndex, 00000020H
	jl	SHORT $LN7@AddAmmoNam

; 341  : 		giAmmoIndex = 0;

	mov	DWORD PTR ?giAmmoIndex@@3HA, 0		; giAmmoIndex
$LN7@AddAmmoNam:

; 342  : 
; 343  : 	CBasePlayerItem::AmmoInfoArray[giAmmoIndex].pszName = szAmmoname;

	mov	eax, DWORD PTR ?giAmmoIndex@@3HA	; giAmmoIndex
	mov	ecx, DWORD PTR _szAmmoname$[ebp]
	mov	DWORD PTR ?AmmoInfoArray@CBasePlayerItem@@2PAUAmmoInfo@@A[eax*8], ecx

; 344  : 	CBasePlayerItem::AmmoInfoArray[giAmmoIndex].iId = giAmmoIndex;   // yes, this info is redundant

	mov	eax, DWORD PTR ?giAmmoIndex@@3HA	; giAmmoIndex
	mov	ecx, DWORD PTR ?giAmmoIndex@@3HA	; giAmmoIndex
	mov	DWORD PTR ?AmmoInfoArray@CBasePlayerItem@@2PAUAmmoInfo@@A[eax*8+4], ecx
$LN1@AddAmmoNam:

; 345  : }

	pop	edi
	pop	esi
	pop	ebx
	mov	esp, ebp
	pop	ebp
	ret	0
?AddAmmoNameToAmmoRegistry@@YAXPBD@Z ENDP		; AddAmmoNameToAmmoRegistry
_TEXT	ENDS
; Function compile flags: /Odtp /ZI
; File d:\!diffusion 2020\source code 2022\client-server\server\weapons\weapons.cpp
;	COMDAT ?MaxAmmoCarry@@YAHH@Z
_TEXT	SEGMENT
_i$1 = -4						; size = 4
_iszName$ = 8						; size = 4
?MaxAmmoCarry@@YAHH@Z PROC				; MaxAmmoCarry, COMDAT

; 132  : {

	push	ebp
	mov	ebp, esp
	sub	esp, 68					; 00000044H
	push	ebx
	push	esi
	push	edi

; 133  : 	for ( int i = 0;  i < MAX_WEAPONS; i++ )

	mov	DWORD PTR _i$1[ebp], 0
	jmp	SHORT $LN4@MaxAmmoCar
$LN2@MaxAmmoCar:
	mov	eax, DWORD PTR _i$1[ebp]
	add	eax, 1
	mov	DWORD PTR _i$1[ebp], eax
$LN4@MaxAmmoCar:
	cmp	DWORD PTR _i$1[ebp], 64			; 00000040H
	jge	$LN3@MaxAmmoCar

; 134  : 	{
; 135  : 		if ( CBasePlayerItem::ItemInfoArray[i].pszAmmo1 && !strcmp( STRING(iszName), CBasePlayerItem::ItemInfoArray[i].pszAmmo1 ) )

	imul	eax, DWORD PTR _i$1[ebp], 44
	cmp	DWORD PTR ?ItemInfoArray@CBasePlayerItem@@2PAUItemInfo@@A[eax+8], 0
	je	SHORT $LN5@MaxAmmoCar
	imul	eax, DWORD PTR _i$1[ebp], 44
	mov	ecx, DWORD PTR ?ItemInfoArray@CBasePlayerItem@@2PAUItemInfo@@A[eax+8]
	push	ecx
	mov	edx, DWORD PTR _iszName$[ebp]
	push	edx
	call	DWORD PTR ?g_engfuncs@@3Uenginefuncs_s@@A+264
	add	esp, 4
	push	eax
	call	_strcmp
	add	esp, 8
	test	eax, eax
	jne	SHORT $LN5@MaxAmmoCar

; 136  : 			return CBasePlayerItem::ItemInfoArray[i].iMaxAmmo1;

	imul	eax, DWORD PTR _i$1[ebp], 44
	mov	eax, DWORD PTR ?ItemInfoArray@CBasePlayerItem@@2PAUItemInfo@@A[eax+12]
	jmp	SHORT $LN1@MaxAmmoCar
$LN5@MaxAmmoCar:

; 137  : 		if ( CBasePlayerItem::ItemInfoArray[i].pszAmmo2 && !strcmp( STRING(iszName), CBasePlayerItem::ItemInfoArray[i].pszAmmo2 ) )

	imul	eax, DWORD PTR _i$1[ebp], 44
	cmp	DWORD PTR ?ItemInfoArray@CBasePlayerItem@@2PAUItemInfo@@A[eax+16], 0
	je	SHORT $LN6@MaxAmmoCar
	imul	eax, DWORD PTR _i$1[ebp], 44
	mov	ecx, DWORD PTR ?ItemInfoArray@CBasePlayerItem@@2PAUItemInfo@@A[eax+16]
	push	ecx
	mov	edx, DWORD PTR _iszName$[ebp]
	push	edx
	call	DWORD PTR ?g_engfuncs@@3Uenginefuncs_s@@A+264
	add	esp, 4
	push	eax
	call	_strcmp
	add	esp, 8
	test	eax, eax
	jne	SHORT $LN6@MaxAmmoCar

; 138  : 			return CBasePlayerItem::ItemInfoArray[i].iMaxAmmo2;

	imul	eax, DWORD PTR _i$1[ebp], 44
	mov	eax, DWORD PTR ?ItemInfoArray@CBasePlayerItem@@2PAUItemInfo@@A[eax+20]
	jmp	SHORT $LN1@MaxAmmoCar
$LN6@MaxAmmoCar:

; 139  : 	}

	jmp	$LN2@MaxAmmoCar
$LN3@MaxAmmoCar:

; 140  : 
; 141  : 	ALERT( at_console, "MaxAmmoCarry() doesn't recognize '%s'!\n", STRING( iszName ) );

	mov	eax, DWORD PTR _iszName$[ebp]
	push	eax
	call	DWORD PTR ?g_engfuncs@@3Uenginefuncs_s@@A+264
	add	esp, 4
	push	eax
	push	OFFSET ??_C@_0CI@BEIKHBNH@MaxAmmoCarry?$CI?$CJ?5doesn?8t?5recognize@
	push	1
	call	DWORD PTR ?g_engfuncs@@3Uenginefuncs_s@@A+244
	add	esp, 12					; 0000000cH

; 142  : 	return -1;

	or	eax, -1
$LN1@MaxAmmoCar:

; 143  : }

	pop	edi
	pop	esi
	pop	ebx
	mov	esp, ebp
	pop	ebp
	ret	0
?MaxAmmoCarry@@YAHH@Z ENDP				; MaxAmmoCarry
_TEXT	ENDS
; Function compile flags: /Odtp /ZI
;	COMDAT ??0CLaserSpot@@QAE@XZ
_TEXT	SEGMENT
_this$ = -4						; size = 4
??0CLaserSpot@@QAE@XZ PROC				; CLaserSpot::CLaserSpot, COMDAT
; _this$ = ecx
	push	ebp
	mov	ebp, esp
	sub	esp, 68					; 00000044H
	push	ebx
	push	esi
	push	edi
	mov	DWORD PTR _this$[ebp], ecx
	mov	ecx, DWORD PTR _this$[ebp]
	call	??0CBaseEntity@@QAE@XZ
	mov	eax, DWORD PTR _this$[ebp]
	mov	DWORD PTR [eax], OFFSET ??_7CLaserSpot@@6B@
	mov	eax, DWORD PTR _this$[ebp]
	pop	edi
	pop	esi
	pop	ebx
	mov	esp, ebp
	pop	ebp
	ret	0
??0CLaserSpot@@QAE@XZ ENDP				; CLaserSpot::CLaserSpot
_TEXT	ENDS
; Function compile flags: /Odtp /ZI
; File d:\!diffusion 2020\source code 2022\client-server\server\weapons\weapons.cpp
;	COMDAT ?CreateSpot@CLaserSpot@@SAPAV1@XZ
_TEXT	SEGMENT
_pSpot$ = -4						; size = 4
?CreateSpot@CLaserSpot@@SAPAV1@XZ PROC			; CLaserSpot::CreateSpot, COMDAT

; 1668 : {

	push	ebp
	mov	ebp, esp
	sub	esp, 68					; 00000044H
	push	ebx
	push	esi
	push	edi

; 1669 : 	CLaserSpot *pSpot = GetClassPtr( (CLaserSpot *)NULL );

	push	0
	call	??$GetClassPtr@VCLaserSpot@@@@YAPAVCLaserSpot@@PAV0@@Z ; GetClassPtr<CLaserSpot>
	add	esp, 4
	mov	DWORD PTR _pSpot$[ebp], eax

; 1670 : 	pSpot->Spawn();

	mov	eax, DWORD PTR _pSpot$[ebp]
	mov	edx, DWORD PTR [eax]
	mov	ecx, DWORD PTR _pSpot$[ebp]
	mov	eax, DWORD PTR [edx+4]
	call	eax

; 1671 : 
; 1672 : 	pSpot->pev->classname = MAKE_STRING("laser_spot");

	push	OFFSET ??_C@_0L@PKAMAFCB@laser_spot?$AA@
	call	DWORD PTR ?g_engfuncs@@3Uenginefuncs_s@@A+268
	add	esp, 4
	mov	ecx, DWORD PTR _pSpot$[ebp]
	mov	edx, DWORD PTR [ecx+4]
	mov	DWORD PTR [edx], eax

; 1673 : 
; 1674 : 	return pSpot;

	mov	eax, DWORD PTR _pSpot$[ebp]

; 1675 : }

	pop	edi
	pop	esi
	pop	ebx
	mov	esp, ebp
	pop	ebp
	ret	0
?CreateSpot@CLaserSpot@@SAPAV1@XZ ENDP			; CLaserSpot::CreateSpot
_TEXT	ENDS
; Function compile flags: /Odtp /ZI
; File d:\!diffusion 2020\source code 2022\client-server\server\weapons\weapons.cpp
;	COMDAT ?GetDataDescMap@CLaserSpot@@UAEPAUdatamap_s@@XZ
_TEXT	SEGMENT
_this$ = -4						; size = 4
?GetDataDescMap@CLaserSpot@@UAEPAUdatamap_s@@XZ PROC	; CLaserSpot::GetDataDescMap, COMDAT
; _this$ = ecx

; 1663 : BEGIN_DATADESC( CLaserSpot )

	push	ebp
	mov	ebp, esp
	sub	esp, 68					; 00000044H
	push	ebx
	push	esi
	push	edi
	mov	DWORD PTR _this$[ebp], ecx
	mov	eax, OFFSET ?m_DataMap@CLaserSpot@@2Udatamap_s@@A ; CLaserSpot::m_DataMap
	pop	edi
	pop	esi
	pop	ebx
	mov	esp, ebp
	pop	ebp
	ret	0
?GetDataDescMap@CLaserSpot@@UAEPAUdatamap_s@@XZ ENDP	; CLaserSpot::GetDataDescMap
_TEXT	ENDS
; Function compile flags: /Odtp /ZI
; File d:\!diffusion 2020\source code 2022\client-server\server\weapons\weapons.cpp
;	COMDAT ?GetBaseMap@CLaserSpot@@SAPAUdatamap_s@@XZ
_TEXT	SEGMENT
_pResult$ = -4						; size = 4
?GetBaseMap@CLaserSpot@@SAPAUdatamap_s@@XZ PROC		; CLaserSpot::GetBaseMap, COMDAT

; 1663 : BEGIN_DATADESC( CLaserSpot )

	push	ebp
	mov	ebp, esp
	sub	esp, 68					; 00000044H
	push	ebx
	push	esi
	push	edi
	lea	eax, DWORD PTR _pResult$[ebp]
	push	eax
	push	0
	call	??$DataMapAccess@VCBaseEntity@@@@YAXPAVCBaseEntity@@PAPAUdatamap_s@@@Z ; DataMapAccess<CBaseEntity>
	add	esp, 8
	mov	eax, DWORD PTR _pResult$[ebp]
	pop	edi
	pop	esi
	pop	ebx
	mov	esp, ebp
	pop	ebp
	ret	0
?GetBaseMap@CLaserSpot@@SAPAUdatamap_s@@XZ ENDP		; CLaserSpot::GetBaseMap
_TEXT	ENDS
; Function compile flags: /Odtp /ZI
; File d:\!diffusion 2020\source code 2022\client-server\server\weapons\weapons.cpp
;	COMDAT ?Revive@CLaserSpot@@QAEXXZ
_TEXT	SEGMENT
_this$ = -4						; size = 4
?Revive@CLaserSpot@@QAEXXZ PROC				; CLaserSpot::Revive, COMDAT
; _this$ = ecx

; 1711 : {

	push	ebp
	mov	ebp, esp
	sub	esp, 68					; 00000044H
	push	ebx
	push	esi
	push	edi
	mov	DWORD PTR _this$[ebp], ecx

; 1712 : 	pev->effects &= ~EF_NODRAW;

	mov	eax, DWORD PTR _this$[ebp]
	mov	ecx, DWORD PTR [eax+4]
	mov	edx, DWORD PTR [ecx+280]
	and	edx, -129				; ffffff7fH
	mov	eax, DWORD PTR _this$[ebp]
	mov	ecx, DWORD PTR [eax+4]
	mov	DWORD PTR [ecx+280], edx

; 1713 : 
; 1714 : 	SetThink( NULL );

	push	OFFSET ??_C@_04HIBGFPH@NULL?$AA@
	push	0
	mov	ecx, DWORD PTR _this$[ebp]
	call	?ThinkSet@CBaseEntity@@QAEP81@AEXXZP81@AEXXZPAD@Z ; CBaseEntity::ThinkSet

; 1715 : }

	pop	edi
	pop	esi
	pop	ebx
	mov	esp, ebp
	pop	ebp
	ret	0
?Revive@CLaserSpot@@QAEXXZ ENDP				; CLaserSpot::Revive
_TEXT	ENDS
; Function compile flags: /Odtp /ZI
; File d:\!diffusion 2020\source code 2022\client-server\server\weapons\weapons.cpp
;	COMDAT ?Suspend@CLaserSpot@@QAEXM@Z
_TEXT	SEGMENT
_this$ = -4						; size = 4
_flSuspendTime$ = 8					; size = 4
?Suspend@CLaserSpot@@QAEXM@Z PROC			; CLaserSpot::Suspend, COMDAT
; _this$ = ecx

; 1700 : {

	push	ebp
	mov	ebp, esp
	sub	esp, 68					; 00000044H
	push	ebx
	push	esi
	push	edi
	mov	DWORD PTR _this$[ebp], ecx

; 1701 : 	pev->effects |= EF_NODRAW;

	mov	eax, DWORD PTR _this$[ebp]
	mov	ecx, DWORD PTR [eax+4]
	mov	edx, DWORD PTR [ecx+280]
	or	edx, 128				; 00000080H
	mov	eax, DWORD PTR _this$[ebp]
	mov	ecx, DWORD PTR [eax+4]
	mov	DWORD PTR [ecx+280], edx

; 1702 : 	
; 1703 : 	SetThink( &CLaserSpot::Revive );

	push	OFFSET ??_C@_0BE@MJCFAFFO@?$CGCLaserSpot?3?3Revive?$AA@
	push	OFFSET ?Revive@CLaserSpot@@QAEXXZ	; CLaserSpot::Revive
	mov	ecx, DWORD PTR _this$[ebp]
	call	?ThinkSet@CBaseEntity@@QAEP81@AEXXZP81@AEXXZPAD@Z ; CBaseEntity::ThinkSet

; 1704 : 	pev->nextthink = gpGlobals->time + flSuspendTime;

	mov	eax, DWORD PTR ?gpGlobals@@3PAUglobalvars_t@@A ; gpGlobals
	movss	xmm0, DWORD PTR [eax]
	addss	xmm0, DWORD PTR _flSuspendTime$[ebp]
	mov	ecx, DWORD PTR _this$[ebp]
	mov	edx, DWORD PTR [ecx+4]
	movss	DWORD PTR [edx+260], xmm0

; 1705 : }

	pop	edi
	pop	esi
	pop	ebx
	mov	esp, ebp
	pop	ebp
	ret	4
?Suspend@CLaserSpot@@QAEXM@Z ENDP			; CLaserSpot::Suspend
_TEXT	ENDS
; Function compile flags: /Odtp /ZI
; File d:\!diffusion 2020\source code 2022\client-server\server\weapons\weapons.h
;	COMDAT ?ObjectCaps@CLaserSpot@@EAEHXZ
_TEXT	SEGMENT
_this$ = -4						; size = 4
?ObjectCaps@CLaserSpot@@EAEHXZ PROC			; CLaserSpot::ObjectCaps, COMDAT
; _this$ = ecx

; 522  : 	int ObjectCaps( void ) { return FCAP_DONT_SAVE; }

	push	ebp
	mov	ebp, esp
	sub	esp, 68					; 00000044H
	push	ebx
	push	esi
	push	edi
	mov	DWORD PTR _this$[ebp], ecx
	mov	eax, -2147483648			; 80000000H
	pop	edi
	pop	esi
	pop	ebx
	mov	esp, ebp
	pop	ebp
	ret	0
?ObjectCaps@CLaserSpot@@EAEHXZ ENDP			; CLaserSpot::ObjectCaps
_TEXT	ENDS
; Function compile flags: /Odtp /ZI
; File d:\!diffusion 2020\source code 2022\client-server\server\weapons\weapons.cpp
;	COMDAT ?Precache@CLaserSpot@@EAEXXZ
_TEXT	SEGMENT
_this$ = -4						; size = 4
?Precache@CLaserSpot@@EAEXXZ PROC			; CLaserSpot::Precache, COMDAT
; _this$ = ecx

; 1718 : {

	push	ebp
	mov	ebp, esp
	sub	esp, 68					; 00000044H
	push	ebx
	push	esi
	push	edi
	mov	DWORD PTR _this$[ebp], ecx

; 1719 : 	PRECACHE_MODEL("sprites/laserdot.spr");

	push	OFFSET ??_C@_0BF@LHKHEIDI@sprites?1laserdot?4spr?$AA@
	call	DWORD PTR ?g_engfuncs@@3Uenginefuncs_s@@A
	add	esp, 4

; 1720 : }

	pop	edi
	pop	esi
	pop	ebx
	mov	esp, ebp
	pop	ebp
	ret	0
?Precache@CLaserSpot@@EAEXXZ ENDP			; CLaserSpot::Precache
_TEXT	ENDS
; Function compile flags: /Odtp /ZI
; File d:\!diffusion 2020\source code 2022\client-server\server\weapons\weapons.cpp
;	COMDAT ?Spawn@CLaserSpot@@EAEXXZ
_TEXT	SEGMENT
_this$ = -4						; size = 4
?Spawn@CLaserSpot@@EAEXXZ PROC				; CLaserSpot::Spawn, COMDAT
; _this$ = ecx

; 1682 : {

	push	ebp
	mov	ebp, esp
	sub	esp, 68					; 00000044H
	push	ebx
	push	esi
	push	edi
	mov	DWORD PTR _this$[ebp], ecx

; 1683 : 	Precache( );

	mov	eax, DWORD PTR _this$[ebp]
	mov	edx, DWORD PTR [eax]
	mov	ecx, DWORD PTR _this$[ebp]
	mov	eax, DWORD PTR [edx+8]
	call	eax

; 1684 : 	pev->movetype = MOVETYPE_NONE;

	mov	eax, DWORD PTR _this$[ebp]
	mov	ecx, DWORD PTR [eax+4]
	mov	DWORD PTR [ecx+264], 0

; 1685 : 	pev->solid = SOLID_NOT;

	mov	eax, DWORD PTR _this$[ebp]
	mov	ecx, DWORD PTR [eax+4]
	mov	DWORD PTR [ecx+268], 0

; 1686 : 
; 1687 : 	pev->rendermode = kRenderGlow;

	mov	eax, DWORD PTR _this$[ebp]
	mov	ecx, DWORD PTR [eax+4]
	mov	DWORD PTR [ecx+328], 3

; 1688 : 	pev->renderfx = kRenderFxNoDissipation;

	mov	eax, DWORD PTR _this$[ebp]
	mov	ecx, DWORD PTR [eax+4]
	mov	DWORD PTR [ecx+348], 14			; 0000000eH

; 1689 : 	pev->renderamt = 255;

	mov	eax, DWORD PTR _this$[ebp]
	mov	ecx, DWORD PTR [eax+4]
	movss	xmm0, DWORD PTR __real@437f0000
	movss	DWORD PTR [ecx+332], xmm0

; 1690 : 	pev->scale = 0.1; // Diffusion: fix for better look :)

	mov	eax, DWORD PTR _this$[ebp]
	mov	ecx, DWORD PTR [eax+4]
	movss	xmm0, DWORD PTR __real@3dcccccd
	movss	DWORD PTR [ecx+324], xmm0

; 1691 : 	SetFadeDistance(1500);

	push	1500					; 000005dcH
	mov	eax, DWORD PTR _this$[ebp]
	mov	edx, DWORD PTR [eax]
	mov	ecx, DWORD PTR _this$[ebp]
	mov	eax, DWORD PTR [edx+272]
	call	eax

; 1692 : 
; 1693 : 	SET_MODEL(edict(), "sprites/laserdot.spr");

	push	OFFSET ??_C@_0BF@LHKHEIDI@sprites?1laserdot?4spr?$AA@
	mov	ecx, DWORD PTR _this$[ebp]
	call	?edict@CBaseEntity@@QAEPAUedict_s@@XZ	; CBaseEntity::edict
	push	eax
	call	DWORD PTR ?g_engfuncs@@3Uenginefuncs_s@@A+8
	add	esp, 8

; 1694 : }

	pop	edi
	pop	esi
	pop	ebx
	mov	esp, ebp
	pop	ebp
	ret	0
?Spawn@CLaserSpot@@EAEXXZ ENDP				; CLaserSpot::Spawn
_TEXT	ENDS
; Function compile flags: /Odtp /ZI
;	COMDAT ??0CWeaponBox@@QAE@XZ
_TEXT	SEGMENT
_this$ = -4						; size = 4
??0CWeaponBox@@QAE@XZ PROC				; CWeaponBox::CWeaponBox, COMDAT
; _this$ = ecx
	push	ebp
	mov	ebp, esp
	sub	esp, 68					; 00000044H
	push	ebx
	push	esi
	push	edi
	mov	DWORD PTR _this$[ebp], ecx
	mov	ecx, DWORD PTR _this$[ebp]
	call	??0CBaseEntity@@QAE@XZ
	mov	eax, DWORD PTR _this$[ebp]
	mov	DWORD PTR [eax], OFFSET ??_7CWeaponBox@@6B@
	mov	eax, DWORD PTR _this$[ebp]
	pop	edi
	pop	esi
	pop	ebx
	mov	esp, ebp
	pop	ebp
	ret	0
??0CWeaponBox@@QAE@XZ ENDP				; CWeaponBox::CWeaponBox
_TEXT	ENDS
; Function compile flags: /Odtp /ZI
; File d:\!diffusion 2020\source code 2022\client-server\server\weapons\weapons.cpp
;	COMDAT ?PackAmmo@CWeaponBox@@QAEHHH@Z
_TEXT	SEGMENT
_iMaxCarry$ = -8					; size = 4
_this$ = -4						; size = 4
_iszName$ = 8						; size = 4
_iCount$ = 12						; size = 4
?PackAmmo@CWeaponBox@@QAEHHH@Z PROC			; CWeaponBox::PackAmmo, COMDAT
; _this$ = ecx

; 1531 : {

	push	ebp
	mov	ebp, esp
	sub	esp, 72					; 00000048H
	push	ebx
	push	esi
	push	edi
	mov	DWORD PTR _this$[ebp], ecx

; 1532 : 	int iMaxCarry;
; 1533 : 
; 1534 : 	if ( FStringNull( iszName ) )

	mov	eax, DWORD PTR _iszName$[ebp]
	push	eax
	call	?FStringNull@@YAHH@Z			; FStringNull
	add	esp, 4
	test	eax, eax
	je	SHORT $LN2@PackAmmo

; 1535 : 	{
; 1536 : 		// error here
; 1537 : 		ALERT ( at_console, "NULL String in PackAmmo!\n" );

	push	OFFSET ??_C@_0BK@IMKFEDKG@NULL?5String?5in?5PackAmmo?$CB?6?$AA@
	push	1
	call	DWORD PTR ?g_engfuncs@@3Uenginefuncs_s@@A+244
	add	esp, 8

; 1538 : 		return FALSE;

	xor	eax, eax
	jmp	SHORT $LN1@PackAmmo
$LN2@PackAmmo:

; 1539 : 	}
; 1540 : 	
; 1541 : 	iMaxCarry = MaxAmmoCarry( iszName );

	mov	eax, DWORD PTR _iszName$[ebp]
	push	eax
	call	?MaxAmmoCarry@@YAHH@Z			; MaxAmmoCarry
	add	esp, 4
	mov	DWORD PTR _iMaxCarry$[ebp], eax

; 1542 : 
; 1543 : 	if ( iMaxCarry != -1 && iCount > 0 )

	cmp	DWORD PTR _iMaxCarry$[ebp], -1
	je	SHORT $LN3@PackAmmo
	cmp	DWORD PTR _iCount$[ebp], 0
	jle	SHORT $LN3@PackAmmo

; 1544 : 	{
; 1545 : 		//ALERT ( at_console, "Packed %d rounds of %s\n", iCount, STRING(iszName) );
; 1546 : 		GiveAmmo( iCount, (char *)STRING( iszName ), iMaxCarry );

	push	0
	mov	eax, DWORD PTR _iMaxCarry$[ebp]
	push	eax
	mov	ecx, DWORD PTR _iszName$[ebp]
	push	ecx
	call	DWORD PTR ?g_engfuncs@@3Uenginefuncs_s@@A+264
	add	esp, 4
	push	eax
	mov	edx, DWORD PTR _iCount$[ebp]
	push	edx
	mov	ecx, DWORD PTR _this$[ebp]
	call	?GiveAmmo@CWeaponBox@@AAEHHPADHPAH@Z	; CWeaponBox::GiveAmmo

; 1547 : 		return TRUE;

	mov	eax, 1
	jmp	SHORT $LN1@PackAmmo
$LN3@PackAmmo:

; 1548 : 	}
; 1549 : 
; 1550 : 	return FALSE;

	xor	eax, eax
$LN1@PackAmmo:

; 1551 : }

	pop	edi
	pop	esi
	pop	ebx
	mov	esp, ebp
	pop	ebp
	ret	8
?PackAmmo@CWeaponBox@@QAEHHH@Z ENDP			; CWeaponBox::PackAmmo
_TEXT	ENDS
; Function compile flags: /Odtp /ZI
; File d:\!diffusion 2020\source code 2022\client-server\server\weapons\weapons.cpp
;	COMDAT ?PackWeapon@CWeaponBox@@QAEHPAVCBasePlayerItem@@@Z
_TEXT	SEGMENT
_iWeaponSlot$ = -8					; size = 4
_this$ = -4						; size = 4
_pWeapon$ = 8						; size = 4
?PackWeapon@CWeaponBox@@QAEHPAVCBasePlayerItem@@@Z PROC	; CWeaponBox::PackWeapon, COMDAT
; _this$ = ecx

; 1480 : {

	push	ebp
	mov	ebp, esp
	sub	esp, 72					; 00000048H
	push	ebx
	push	esi
	push	edi
	mov	DWORD PTR _this$[ebp], ecx

; 1481 : 	// is one of these weapons already packed in this box?
; 1482 : 	if ( HasWeapon( pWeapon ) )

	mov	eax, DWORD PTR _pWeapon$[ebp]
	push	eax
	mov	ecx, DWORD PTR _this$[ebp]
	call	?HasWeapon@CWeaponBox@@QAEHPAVCBasePlayerItem@@@Z ; CWeaponBox::HasWeapon
	test	eax, eax
	je	SHORT $LN2@PackWeapon

; 1483 : 	{
; 1484 : 		return FALSE;// box can only hold one of each weapon type

	xor	eax, eax
	jmp	$LN1@PackWeapon
$LN2@PackWeapon:

; 1485 : 	}
; 1486 : 
; 1487 : 	if ( pWeapon->m_pPlayer )

	mov	eax, DWORD PTR _pWeapon$[ebp]
	cmp	DWORD PTR [eax+1856], 0
	je	SHORT $LN3@PackWeapon

; 1488 : 	{
; 1489 : 		if ( !pWeapon->m_pPlayer->RemovePlayerItem( pWeapon ) )

	mov	eax, DWORD PTR _pWeapon$[ebp]
	push	eax
	mov	ecx, DWORD PTR _pWeapon$[ebp]
	mov	edx, DWORD PTR [ecx+1856]
	mov	eax, DWORD PTR _pWeapon$[ebp]
	mov	edx, DWORD PTR [edx]
	mov	ecx, DWORD PTR [eax+1856]
	mov	eax, DWORD PTR [edx+148]
	call	eax
	test	eax, eax
	jne	SHORT $LN3@PackWeapon

; 1490 : 		{
; 1491 : 			// failed to unhook the weapon from the player!
; 1492 : 			return FALSE;

	xor	eax, eax
	jmp	$LN1@PackWeapon
$LN3@PackWeapon:

; 1493 : 		}
; 1494 : 	}
; 1495 : 
; 1496 : 	int iWeaponSlot = pWeapon->iItemSlot();

	mov	eax, DWORD PTR _pWeapon$[ebp]
	mov	edx, DWORD PTR [eax]
	mov	ecx, DWORD PTR _pWeapon$[ebp]
	mov	eax, DWORD PTR [edx+448]
	call	eax
	mov	DWORD PTR _iWeaponSlot$[ebp], eax

; 1497 : 	
; 1498 : 	if ( m_rgpPlayerItems[ iWeaponSlot ] )

	mov	eax, DWORD PTR _iWeaponSlot$[ebp]
	mov	ecx, DWORD PTR _this$[ebp]
	cmp	DWORD PTR [ecx+eax*4+1804], 0
	je	SHORT $LN5@PackWeapon

; 1499 : 	{
; 1500 : 		// there's already one weapon in this slot, so link this into the slot's column
; 1501 : 		pWeapon->m_pNext = m_rgpPlayerItems[ iWeaponSlot ];	

	mov	eax, DWORD PTR _pWeapon$[ebp]
	mov	ecx, DWORD PTR _iWeaponSlot$[ebp]
	mov	edx, DWORD PTR _this$[ebp]
	mov	ecx, DWORD PTR [edx+ecx*4+1804]
	mov	DWORD PTR [eax+1860], ecx

; 1502 : 		m_rgpPlayerItems[ iWeaponSlot ] = pWeapon;

	mov	eax, DWORD PTR _iWeaponSlot$[ebp]
	mov	ecx, DWORD PTR _this$[ebp]
	mov	edx, DWORD PTR _pWeapon$[ebp]
	mov	DWORD PTR [ecx+eax*4+1804], edx

; 1503 : 	}
; 1504 : 	else

	jmp	SHORT $LN6@PackWeapon
$LN5@PackWeapon:

; 1505 : 	{
; 1506 : 		// first weapon we have for this slot
; 1507 : 		m_rgpPlayerItems[ iWeaponSlot ] = pWeapon;

	mov	eax, DWORD PTR _iWeaponSlot$[ebp]
	mov	ecx, DWORD PTR _this$[ebp]
	mov	edx, DWORD PTR _pWeapon$[ebp]
	mov	DWORD PTR [ecx+eax*4+1804], edx

; 1508 : 		pWeapon->m_pNext = NULL;	

	mov	eax, DWORD PTR _pWeapon$[ebp]
	mov	DWORD PTR [eax+1860], 0
$LN6@PackWeapon:

; 1509 : 	}
; 1510 : 
; 1511 : 	pWeapon->pev->spawnflags |= SF_NORESPAWN;// never respawn

	mov	eax, DWORD PTR _pWeapon$[ebp]
	mov	ecx, DWORD PTR [eax+4]
	mov	edx, DWORD PTR [ecx+416]
	or	edx, 1073741824				; 40000000H
	mov	eax, DWORD PTR _pWeapon$[ebp]
	mov	ecx, DWORD PTR [eax+4]
	mov	DWORD PTR [ecx+416], edx

; 1512 : 	pWeapon->pev->movetype = MOVETYPE_NONE;

	mov	eax, DWORD PTR _pWeapon$[ebp]
	mov	ecx, DWORD PTR [eax+4]
	mov	DWORD PTR [ecx+264], 0

; 1513 : 	pWeapon->pev->solid = SOLID_NOT;

	mov	eax, DWORD PTR _pWeapon$[ebp]
	mov	ecx, DWORD PTR [eax+4]
	mov	DWORD PTR [ecx+268], 0

; 1514 : 	pWeapon->pev->effects = EF_NODRAW;

	mov	eax, DWORD PTR _pWeapon$[ebp]
	mov	ecx, DWORD PTR [eax+4]
	mov	DWORD PTR [ecx+280], 128		; 00000080H

; 1515 : 	pWeapon->pev->modelindex = 0;

	mov	eax, DWORD PTR _pWeapon$[ebp]
	mov	ecx, DWORD PTR [eax+4]
	mov	DWORD PTR [ecx+180], 0

; 1516 : 	pWeapon->pev->model = iStringNull;

	mov	eax, DWORD PTR _pWeapon$[ebp]
	mov	ecx, DWORD PTR [eax+4]
	mov	DWORD PTR [ecx+184], 0

; 1517 : 	pWeapon->pev->owner = edict();

	mov	ecx, DWORD PTR _this$[ebp]
	call	?edict@CBaseEntity@@QAEPAUedict_s@@XZ	; CBaseEntity::edict
	mov	ecx, DWORD PTR _pWeapon$[ebp]
	mov	edx, DWORD PTR [ecx+4]
	mov	DWORD PTR [edx+408], eax

; 1518 : 	pWeapon->SetThink( NULL );// crowbar may be trying to swing again, etc.

	push	OFFSET ??_C@_04HIBGFPH@NULL?$AA@
	push	0
	mov	ecx, DWORD PTR _pWeapon$[ebp]
	call	?ThinkSet@CBaseEntity@@QAEP81@AEXXZP81@AEXXZPAD@Z ; CBaseEntity::ThinkSet

; 1519 : 	pWeapon->SetTouch( NULL );

	push	OFFSET ??_C@_04HIBGFPH@NULL?$AA@
	push	0
	mov	ecx, DWORD PTR _pWeapon$[ebp]
	call	?TouchSet@CBaseEntity@@QAEP81@AEXPAV1@@ZP81@AEX0@ZPAD@Z ; CBaseEntity::TouchSet

; 1520 : 	pWeapon->m_pPlayer = NULL;

	mov	eax, DWORD PTR _pWeapon$[ebp]
	mov	DWORD PTR [eax+1856], 0

; 1521 : 
; 1522 : 	//ALERT ( at_console, "packed %s\n", STRING(pWeapon->pev->classname) );
; 1523 : 
; 1524 : 	return TRUE;

	mov	eax, 1
$LN1@PackWeapon:

; 1525 : }

	pop	edi
	pop	esi
	pop	ebx
	mov	esp, ebp
	pop	ebp
	ret	4
?PackWeapon@CWeaponBox@@QAEHPAVCBasePlayerItem@@@Z ENDP	; CWeaponBox::PackWeapon
_TEXT	ENDS
; Function compile flags: /Odtp /ZI
; File d:\!diffusion 2020\source code 2022\client-server\server\weapons\weapons.cpp
;	COMDAT ?HasWeapon@CWeaponBox@@QAEHPAVCBasePlayerItem@@@Z
_TEXT	SEGMENT
_pItem$ = -8						; size = 4
_this$ = -4						; size = 4
_pCheckItem$ = 8					; size = 4
?HasWeapon@CWeaponBox@@QAEHPAVCBasePlayerItem@@@Z PROC	; CWeaponBox::HasWeapon, COMDAT
; _this$ = ecx

; 1596 : {

	push	ebp
	mov	ebp, esp
	sub	esp, 72					; 00000048H
	push	ebx
	push	esi
	push	edi
	mov	DWORD PTR _this$[ebp], ecx

; 1597 : 	CBasePlayerItem *pItem = m_rgpPlayerItems[pCheckItem->iItemSlot()];

	mov	eax, DWORD PTR _pCheckItem$[ebp]
	mov	edx, DWORD PTR [eax]
	mov	ecx, DWORD PTR _pCheckItem$[ebp]
	mov	eax, DWORD PTR [edx+448]
	call	eax
	mov	ecx, DWORD PTR _this$[ebp]
	mov	edx, DWORD PTR [ecx+eax*4+1804]
	mov	DWORD PTR _pItem$[ebp], edx
$LN2@HasWeapon:

; 1598 : 
; 1599 : 	while (pItem)

	cmp	DWORD PTR _pItem$[ebp], 0
	je	SHORT $LN3@HasWeapon

; 1600 : 	{
; 1601 : 		if (FClassnameIs( pItem->pev, STRING( pCheckItem->pev->classname) ))

	mov	eax, DWORD PTR _pCheckItem$[ebp]
	mov	ecx, DWORD PTR [eax+4]
	mov	edx, DWORD PTR [ecx]
	push	edx
	call	DWORD PTR ?g_engfuncs@@3Uenginefuncs_s@@A+264
	add	esp, 4
	push	eax
	mov	eax, DWORD PTR _pItem$[ebp]
	mov	ecx, DWORD PTR [eax+4]
	push	ecx
	call	?FClassnameIs@@YAHPAUentvars_s@@PBD@Z	; FClassnameIs
	add	esp, 8
	test	eax, eax
	je	SHORT $LN4@HasWeapon

; 1602 : 		{
; 1603 : 			return TRUE;

	mov	eax, 1
	jmp	SHORT $LN1@HasWeapon
$LN4@HasWeapon:

; 1604 : 		}
; 1605 : 		pItem = pItem->m_pNext;

	mov	eax, DWORD PTR _pItem$[ebp]
	mov	ecx, DWORD PTR [eax+1860]
	mov	DWORD PTR _pItem$[ebp], ecx

; 1606 : 	}

	jmp	SHORT $LN2@HasWeapon
$LN3@HasWeapon:

; 1607 : 
; 1608 : 	return FALSE;

	xor	eax, eax
$LN1@HasWeapon:

; 1609 : }

	pop	edi
	pop	esi
	pop	ebx
	mov	esp, ebp
	pop	ebp
	ret	4
?HasWeapon@CWeaponBox@@QAEHPAVCBasePlayerItem@@@Z ENDP	; CWeaponBox::HasWeapon
_TEXT	ENDS
; Function compile flags: /Odtp /ZI
; File d:\!diffusion 2020\source code 2022\client-server\server\weapons\weapons.cpp
;	COMDAT ?GetDataDescMap@CWeaponBox@@UAEPAUdatamap_s@@XZ
_TEXT	SEGMENT
_this$ = -4						; size = 4
?GetDataDescMap@CWeaponBox@@UAEPAUdatamap_s@@XZ PROC	; CWeaponBox::GetDataDescMap, COMDAT
; _this$ = ecx

; 1316 : BEGIN_DATADESC( CWeaponBox )

	push	ebp
	mov	ebp, esp
	sub	esp, 68					; 00000044H
	push	ebx
	push	esi
	push	edi
	mov	DWORD PTR _this$[ebp], ecx
	mov	eax, OFFSET ?m_DataMap@CWeaponBox@@2Udatamap_s@@A ; CWeaponBox::m_DataMap
	pop	edi
	pop	esi
	pop	ebx
	mov	esp, ebp
	pop	ebp
	ret	0
?GetDataDescMap@CWeaponBox@@UAEPAUdatamap_s@@XZ ENDP	; CWeaponBox::GetDataDescMap
_TEXT	ENDS
; Function compile flags: /Odtp /ZI
; File d:\!diffusion 2020\source code 2022\client-server\server\weapons\weapons.cpp
;	COMDAT ?GetBaseMap@CWeaponBox@@SAPAUdatamap_s@@XZ
_TEXT	SEGMENT
_pResult$ = -4						; size = 4
?GetBaseMap@CWeaponBox@@SAPAUdatamap_s@@XZ PROC		; CWeaponBox::GetBaseMap, COMDAT

; 1316 : BEGIN_DATADESC( CWeaponBox )

	push	ebp
	mov	ebp, esp
	sub	esp, 68					; 00000044H
	push	ebx
	push	esi
	push	edi
	lea	eax, DWORD PTR _pResult$[ebp]
	push	eax
	push	0
	call	??$DataMapAccess@VCBaseEntity@@@@YAXPAVCBaseEntity@@PAPAUdatamap_s@@@Z ; DataMapAccess<CBaseEntity>
	add	esp, 8
	mov	eax, DWORD PTR _pResult$[ebp]
	pop	edi
	pop	esi
	pop	ebx
	mov	esp, ebp
	pop	ebp
	ret	0
?GetBaseMap@CWeaponBox@@SAPAUdatamap_s@@XZ ENDP		; CWeaponBox::GetBaseMap
_TEXT	ENDS
; Function compile flags: /Odtp /ZI
; File d:\!diffusion 2020\source code 2022\client-server\server\weapons\weapons.cpp
;	COMDAT ?Kill@CWeaponBox@@QAEXXZ
_TEXT	SEGMENT
_i$ = -12						; size = 4
_pWeapon$ = -8						; size = 4
_this$ = -4						; size = 4
?Kill@CWeaponBox@@QAEXXZ PROC				; CWeaponBox::Kill, COMDAT
; _this$ = ecx

; 1383 : {

	push	ebp
	mov	ebp, esp
	sub	esp, 76					; 0000004cH
	push	ebx
	push	esi
	push	edi
	mov	DWORD PTR _this$[ebp], ecx

; 1384 : 	CBasePlayerItem *pWeapon;
; 1385 : 	int i;
; 1386 : 
; 1387 : 	// destroy the weapons
; 1388 : 	for ( i = 0 ; i < MAX_ITEM_TYPES ; i++ )

	mov	DWORD PTR _i$[ebp], 0
	jmp	SHORT $LN4@Kill
$LN2@Kill:
	mov	eax, DWORD PTR _i$[ebp]
	add	eax, 1
	mov	DWORD PTR _i$[ebp], eax
$LN4@Kill:
	cmp	DWORD PTR _i$[ebp], 6
	jge	SHORT $LN3@Kill

; 1389 : 	{
; 1390 : 		pWeapon = m_rgpPlayerItems[ i ];

	mov	eax, DWORD PTR _i$[ebp]
	mov	ecx, DWORD PTR _this$[ebp]
	mov	edx, DWORD PTR [ecx+eax*4+1804]
	mov	DWORD PTR _pWeapon$[ebp], edx
$LN5@Kill:

; 1391 : 
; 1392 : 		while ( pWeapon )

	cmp	DWORD PTR _pWeapon$[ebp], 0
	je	SHORT $LN6@Kill

; 1393 : 		{
; 1394 : 			pWeapon->SetThink(&CBaseEntity::SUB_Remove);

	push	OFFSET ??_C@_0BJ@EIFNLFLK@?$CGCBaseEntity?3?3SUB_Remove?$AA@
	push	OFFSET ?SUB_Remove@CBaseEntity@@QAEXXZ	; CBaseEntity::SUB_Remove
	mov	ecx, DWORD PTR _pWeapon$[ebp]
	call	?ThinkSet@CBaseEntity@@QAEP81@AEXXZP81@AEXXZPAD@Z ; CBaseEntity::ThinkSet

; 1395 : 			pWeapon->pev->nextthink = gpGlobals->time + 0.1;

	mov	eax, DWORD PTR ?gpGlobals@@3PAUglobalvars_t@@A ; gpGlobals
	cvtss2sd xmm0, DWORD PTR [eax]
	addsd	xmm0, QWORD PTR __real@3fb999999999999a
	cvtsd2ss xmm0, xmm0
	mov	ecx, DWORD PTR _pWeapon$[ebp]
	mov	edx, DWORD PTR [ecx+4]
	movss	DWORD PTR [edx+260], xmm0

; 1396 : 			pWeapon = pWeapon->m_pNext;

	mov	eax, DWORD PTR _pWeapon$[ebp]
	mov	ecx, DWORD PTR [eax+1860]
	mov	DWORD PTR _pWeapon$[ebp], ecx

; 1397 : 		}

	jmp	SHORT $LN5@Kill
$LN6@Kill:

; 1398 : 	}

	jmp	SHORT $LN2@Kill
$LN3@Kill:

; 1399 : 
; 1400 : 	// remove the box
; 1401 : 	UTIL_Remove( this );

	mov	eax, DWORD PTR _this$[ebp]
	push	eax
	call	?UTIL_Remove@@YAXPAVCBaseEntity@@@Z	; UTIL_Remove
	add	esp, 4

; 1402 : }

	pop	edi
	pop	esi
	pop	ebx
	mov	esp, ebp
	pop	ebp
	ret	0
?Kill@CWeaponBox@@QAEXXZ ENDP				; CWeaponBox::Kill
_TEXT	ENDS
; Function compile flags: /Odtp /ZI
; File d:\!diffusion 2020\source code 2022\client-server\server\weapons\weapons.cpp
;	COMDAT ?SetObjectCollisionBox@CWeaponBox@@EAEXXZ
_TEXT	SEGMENT
$T1 = -116						; size = 12
$T2 = -104						; size = 12
$T3 = -92						; size = 12
$T4 = -80						; size = 12
_this$ = -4						; size = 4
?SetObjectCollisionBox@CWeaponBox@@EAEXXZ PROC		; CWeaponBox::SetObjectCollisionBox, COMDAT
; _this$ = ecx

; 1641 : {

	push	ebp
	mov	ebp, esp
	sub	esp, 116				; 00000074H
	push	ebx
	push	esi
	push	edi
	mov	DWORD PTR _this$[ebp], ecx

; 1642 : 	pev->absmin = GetAbsOrigin() + Vector(-16, -16, 0);

	push	ecx
	xorps	xmm0, xmm0
	movss	DWORD PTR [esp], xmm0
	push	ecx
	movss	xmm0, DWORD PTR __real@c1800000
	movss	DWORD PTR [esp], xmm0
	push	ecx
	movss	xmm0, DWORD PTR __real@c1800000
	movss	DWORD PTR [esp], xmm0
	lea	ecx, DWORD PTR $T4[ebp]
	call	??0Vector@@QAE@MMM@Z			; Vector::Vector
	push	eax
	lea	eax, DWORD PTR $T3[ebp]
	push	eax
	mov	ecx, DWORD PTR _this$[ebp]
	call	?GetAbsOrigin@CBaseEntity@@QBEABVVector@@XZ ; CBaseEntity::GetAbsOrigin
	mov	ecx, eax
	call	??HVector@@QBE?AV0@ABV0@@Z		; Vector::operator+
	mov	ecx, DWORD PTR _this$[ebp]
	mov	edx, DWORD PTR [ecx+4]
	add	edx, 196				; 000000c4H
	mov	ecx, DWORD PTR [eax]
	mov	DWORD PTR [edx], ecx
	mov	ecx, DWORD PTR [eax+4]
	mov	DWORD PTR [edx+4], ecx
	mov	eax, DWORD PTR [eax+8]
	mov	DWORD PTR [edx+8], eax

; 1643 : 	pev->absmax = GetAbsOrigin() + Vector( 16, 16, 16); 

	push	ecx
	movss	xmm0, DWORD PTR __real@41800000
	movss	DWORD PTR [esp], xmm0
	push	ecx
	movss	xmm0, DWORD PTR __real@41800000
	movss	DWORD PTR [esp], xmm0
	push	ecx
	movss	xmm0, DWORD PTR __real@41800000
	movss	DWORD PTR [esp], xmm0
	lea	ecx, DWORD PTR $T2[ebp]
	call	??0Vector@@QAE@MMM@Z			; Vector::Vector
	push	eax
	lea	eax, DWORD PTR $T1[ebp]
	push	eax
	mov	ecx, DWORD PTR _this$[ebp]
	call	?GetAbsOrigin@CBaseEntity@@QBEABVVector@@XZ ; CBaseEntity::GetAbsOrigin
	mov	ecx, eax
	call	??HVector@@QBE?AV0@ABV0@@Z		; Vector::operator+
	mov	ecx, DWORD PTR _this$[ebp]
	mov	edx, DWORD PTR [ecx+4]
	add	edx, 208				; 000000d0H
	mov	ecx, DWORD PTR [eax]
	mov	DWORD PTR [edx], ecx
	mov	ecx, DWORD PTR [eax+4]
	mov	DWORD PTR [edx+4], ecx
	mov	eax, DWORD PTR [eax+8]
	mov	DWORD PTR [edx+8], eax

; 1644 : }

	pop	edi
	pop	esi
	pop	ebx
	mov	esp, ebp
	pop	ebp
	ret	0
?SetObjectCollisionBox@CWeaponBox@@EAEXXZ ENDP		; CWeaponBox::SetObjectCollisionBox
_TEXT	ENDS
; Function compile flags: /Odtp /ZI
; File d:\!diffusion 2020\source code 2022\client-server\server\weapons\weapons.cpp
;	COMDAT ?GiveAmmo@CWeaponBox@@AAEHHPADHPAH@Z
_TEXT	SEGMENT
tv91 = -80						; size = 4
_iAdd$1 = -12						; size = 4
_i$ = -8						; size = 4
_this$ = -4						; size = 4
_iCount$ = 8						; size = 4
_szName$ = 12						; size = 4
_iMax$ = 16						; size = 4
_pIndex$ = 20						; size = 4
?GiveAmmo@CWeaponBox@@AAEHHPADHPAH@Z PROC		; CWeaponBox::GiveAmmo, COMDAT
; _this$ = ecx

; 1557 : {

	push	ebp
	mov	ebp, esp
	sub	esp, 80					; 00000050H
	push	ebx
	push	esi
	push	edi
	mov	DWORD PTR _this$[ebp], ecx

; 1558 : 	int i;
; 1559 : 
; 1560 : 	for (i = 1; i < MAX_AMMO_SLOTS && !FStringNull( m_rgiszAmmo[i] ); i++)

	mov	DWORD PTR _i$[ebp], 1
	jmp	SHORT $LN4@GiveAmmo
$LN2@GiveAmmo:
	mov	eax, DWORD PTR _i$[ebp]
	add	eax, 1
	mov	DWORD PTR _i$[ebp], eax
$LN4@GiveAmmo:
	cmp	DWORD PTR _i$[ebp], 32			; 00000020H
	jge	$LN3@GiveAmmo
	mov	eax, DWORD PTR _i$[ebp]
	mov	ecx, DWORD PTR _this$[ebp]
	mov	edx, DWORD PTR [ecx+eax*4+1828]
	push	edx
	call	?FStringNull@@YAHH@Z			; FStringNull
	add	esp, 4
	test	eax, eax
	jne	$LN3@GiveAmmo

; 1561 : 	{
; 1562 : 		if (stricmp( szName, STRING( m_rgiszAmmo[i])) == 0)

	mov	eax, DWORD PTR _i$[ebp]
	mov	ecx, DWORD PTR _this$[ebp]
	mov	edx, DWORD PTR [ecx+eax*4+1828]
	push	edx
	call	DWORD PTR ?g_engfuncs@@3Uenginefuncs_s@@A+264
	add	esp, 4
	push	eax
	mov	eax, DWORD PTR _szName$[ebp]
	push	eax
	call	_stricmp
	add	esp, 8
	test	eax, eax
	jne	SHORT $LN5@GiveAmmo

; 1563 : 		{
; 1564 : 			if (pIndex)

	cmp	DWORD PTR _pIndex$[ebp], 0
	je	SHORT $LN6@GiveAmmo

; 1565 : 				*pIndex = i;

	mov	eax, DWORD PTR _pIndex$[ebp]
	mov	ecx, DWORD PTR _i$[ebp]
	mov	DWORD PTR [eax], ecx
$LN6@GiveAmmo:

; 1566 : 
; 1567 : 			int iAdd = Q_min( iCount, iMax - m_rgAmmo[i]);

	mov	eax, DWORD PTR _i$[ebp]
	mov	ecx, DWORD PTR _this$[ebp]
	mov	edx, DWORD PTR _iMax$[ebp]
	sub	edx, DWORD PTR [ecx+eax*4+1956]
	cmp	DWORD PTR _iCount$[ebp], edx
	jge	SHORT $LN12@GiveAmmo
	mov	eax, DWORD PTR _iCount$[ebp]
	mov	DWORD PTR tv91[ebp], eax
	jmp	SHORT $LN13@GiveAmmo
$LN12@GiveAmmo:
	mov	ecx, DWORD PTR _i$[ebp]
	mov	edx, DWORD PTR _this$[ebp]
	mov	eax, DWORD PTR _iMax$[ebp]
	sub	eax, DWORD PTR [edx+ecx*4+1956]
	mov	DWORD PTR tv91[ebp], eax
$LN13@GiveAmmo:
	mov	ecx, DWORD PTR tv91[ebp]
	mov	DWORD PTR _iAdd$1[ebp], ecx

; 1568 : 			if (iCount == 0 || iAdd > 0)

	cmp	DWORD PTR _iCount$[ebp], 0
	je	SHORT $LN8@GiveAmmo
	cmp	DWORD PTR _iAdd$1[ebp], 0
	jle	SHORT $LN7@GiveAmmo
$LN8@GiveAmmo:

; 1569 : 			{
; 1570 : 				m_rgAmmo[i] += iAdd;

	mov	eax, DWORD PTR _i$[ebp]
	mov	ecx, DWORD PTR _this$[ebp]
	mov	edx, DWORD PTR [ecx+eax*4+1956]
	add	edx, DWORD PTR _iAdd$1[ebp]
	mov	eax, DWORD PTR _i$[ebp]
	mov	ecx, DWORD PTR _this$[ebp]
	mov	DWORD PTR [ecx+eax*4+1956], edx

; 1571 : 
; 1572 : 				return i;

	mov	eax, DWORD PTR _i$[ebp]
	jmp	SHORT $LN1@GiveAmmo
$LN7@GiveAmmo:

; 1573 : 			}
; 1574 : 			return -1;

	or	eax, -1
	jmp	SHORT $LN1@GiveAmmo
$LN5@GiveAmmo:

; 1575 : 		}
; 1576 : 	}

	jmp	$LN2@GiveAmmo
$LN3@GiveAmmo:

; 1577 : 	if (i < MAX_AMMO_SLOTS)

	cmp	DWORD PTR _i$[ebp], 32			; 00000020H
	jge	SHORT $LN9@GiveAmmo

; 1578 : 	{
; 1579 : 		if (pIndex)

	cmp	DWORD PTR _pIndex$[ebp], 0
	je	SHORT $LN10@GiveAmmo

; 1580 : 			*pIndex = i;

	mov	eax, DWORD PTR _pIndex$[ebp]
	mov	ecx, DWORD PTR _i$[ebp]
	mov	DWORD PTR [eax], ecx
$LN10@GiveAmmo:

; 1581 : 
; 1582 : 		m_rgiszAmmo[i] = MAKE_STRING( szName );

	mov	eax, DWORD PTR _szName$[ebp]
	push	eax
	call	DWORD PTR ?g_engfuncs@@3Uenginefuncs_s@@A+268
	add	esp, 4
	mov	ecx, DWORD PTR _i$[ebp]
	mov	edx, DWORD PTR _this$[ebp]
	mov	DWORD PTR [edx+ecx*4+1828], eax

; 1583 : 		m_rgAmmo[i] = iCount;

	mov	eax, DWORD PTR _i$[ebp]
	mov	ecx, DWORD PTR _this$[ebp]
	mov	edx, DWORD PTR _iCount$[ebp]
	mov	DWORD PTR [ecx+eax*4+1956], edx

; 1584 : 
; 1585 : 		return i;

	mov	eax, DWORD PTR _i$[ebp]
	jmp	SHORT $LN1@GiveAmmo
$LN9@GiveAmmo:

; 1586 : 	}
; 1587 : 	ALERT( at_console, "out of named ammo slots\n");

	push	OFFSET ??_C@_0BJ@HGOABKLC@out?5of?5named?5ammo?5slots?6?$AA@
	push	1
	call	DWORD PTR ?g_engfuncs@@3Uenginefuncs_s@@A+244
	add	esp, 8

; 1588 : 	return i;

	mov	eax, DWORD PTR _i$[ebp]
$LN1@GiveAmmo:

; 1589 : }

	pop	edi
	pop	esi
	pop	ebx
	mov	esp, ebp
	pop	ebp
	ret	16					; 00000010H
?GiveAmmo@CWeaponBox@@AAEHHPADHPAH@Z ENDP		; CWeaponBox::GiveAmmo
_TEXT	ENDS
; Function compile flags: /Odtp /ZI
; File d:\!diffusion 2020\source code 2022\client-server\server\weapons\weapons.cpp
;	COMDAT ?IsEmpty@CWeaponBox@@AAEHXZ
_TEXT	SEGMENT
_i$ = -8						; size = 4
_this$ = -4						; size = 4
?IsEmpty@CWeaponBox@@AAEHXZ PROC			; CWeaponBox::IsEmpty, COMDAT
; _this$ = ecx

; 1615 : {

	push	ebp
	mov	ebp, esp
	sub	esp, 72					; 00000048H
	push	ebx
	push	esi
	push	edi
	mov	DWORD PTR _this$[ebp], ecx

; 1616 : 	int i;
; 1617 : 
; 1618 : 	for ( i = 0 ; i < MAX_ITEM_TYPES ; i++ )

	mov	DWORD PTR _i$[ebp], 0
	jmp	SHORT $LN4@IsEmpty
$LN2@IsEmpty:
	mov	eax, DWORD PTR _i$[ebp]
	add	eax, 1
	mov	DWORD PTR _i$[ebp], eax
$LN4@IsEmpty:
	cmp	DWORD PTR _i$[ebp], 6
	jge	SHORT $LN3@IsEmpty

; 1619 : 	{
; 1620 : 		if ( m_rgpPlayerItems[ i ] )

	mov	eax, DWORD PTR _i$[ebp]
	mov	ecx, DWORD PTR _this$[ebp]
	cmp	DWORD PTR [ecx+eax*4+1804], 0
	je	SHORT $LN8@IsEmpty

; 1621 : 		{
; 1622 : 			return FALSE;

	xor	eax, eax
	jmp	SHORT $LN1@IsEmpty
$LN8@IsEmpty:

; 1623 : 		}
; 1624 : 	}

	jmp	SHORT $LN2@IsEmpty
$LN3@IsEmpty:

; 1625 : 
; 1626 : 	for ( i = 0 ; i < MAX_AMMO_SLOTS ; i++ )

	mov	DWORD PTR _i$[ebp], 0
	jmp	SHORT $LN7@IsEmpty
$LN5@IsEmpty:
	mov	eax, DWORD PTR _i$[ebp]
	add	eax, 1
	mov	DWORD PTR _i$[ebp], eax
$LN7@IsEmpty:
	cmp	DWORD PTR _i$[ebp], 32			; 00000020H
	jge	SHORT $LN6@IsEmpty

; 1627 : 	{
; 1628 : 		if ( !FStringNull( m_rgiszAmmo[ i ] ) )

	mov	eax, DWORD PTR _i$[ebp]
	mov	ecx, DWORD PTR _this$[ebp]
	mov	edx, DWORD PTR [ecx+eax*4+1828]
	push	edx
	call	?FStringNull@@YAHH@Z			; FStringNull
	add	esp, 4
	test	eax, eax
	jne	SHORT $LN9@IsEmpty

; 1629 : 		{
; 1630 : 			// still have a bit of this type of ammo
; 1631 : 			return FALSE;

	xor	eax, eax
	jmp	SHORT $LN1@IsEmpty
$LN9@IsEmpty:

; 1632 : 		}
; 1633 : 	}

	jmp	SHORT $LN5@IsEmpty
$LN6@IsEmpty:

; 1634 : 
; 1635 : 	return TRUE;

	mov	eax, 1
$LN1@IsEmpty:

; 1636 : }

	pop	edi
	pop	esi
	pop	ebx
	mov	esp, ebp
	pop	ebp
	ret	0
?IsEmpty@CWeaponBox@@AAEHXZ ENDP			; CWeaponBox::IsEmpty
_TEXT	ENDS
; Function compile flags: /Odtp /ZI
; File d:\!diffusion 2020\source code 2022\client-server\server\weapons\weapons.cpp
;	COMDAT ?KeyValue@CWeaponBox@@EAEXPAUKeyValueData_s@@@Z
_TEXT	SEGMENT
tv91 = -72						; size = 4
_this$ = -4						; size = 4
_pkvd$ = 8						; size = 4
?KeyValue@CWeaponBox@@EAEXPAUKeyValueData_s@@@Z PROC	; CWeaponBox::KeyValue, COMDAT
; _this$ = ecx

; 1335 : {

	push	ebp
	mov	ebp, esp
	sub	esp, 72					; 00000048H
	push	ebx
	push	esi
	push	edi
	mov	DWORD PTR _this$[ebp], ecx

; 1336 : 	// get support for spirit field too
; 1337 : 	if( FStrEq( pkvd->szKeyName, "parent" ) || FStrEq( pkvd->szKeyName, "movewith" ))

	push	OFFSET ??_C@_06MLKDMCBD@parent?$AA@
	mov	eax, DWORD PTR _pkvd$[ebp]
	mov	ecx, DWORD PTR [eax+4]
	push	ecx
	call	?FStrEq@@YAHPBD0@Z			; FStrEq
	add	esp, 8
	test	eax, eax
	jne	SHORT $LN6@KeyValue
	push	OFFSET ??_C@_08JJJAOBDI@movewith?$AA@
	mov	eax, DWORD PTR _pkvd$[ebp]
	mov	ecx, DWORD PTR [eax+4]
	push	ecx
	call	?FStrEq@@YAHPBD0@Z			; FStrEq
	add	esp, 8
	test	eax, eax
	je	SHORT $LN4@KeyValue
$LN6@KeyValue:

; 1338 : 	{
; 1339 : 		m_iParent = ALLOC_STRING(pkvd->szValue);

	mov	eax, DWORD PTR _pkvd$[ebp]
	mov	ecx, DWORD PTR [eax+8]
	push	ecx
	call	DWORD PTR ?g_engfuncs@@3Uenginefuncs_s@@A+268
	add	esp, 4
	mov	edx, DWORD PTR _this$[ebp]
	mov	DWORD PTR [edx+184], eax

; 1340 : 		pkvd->fHandled = TRUE;

	mov	eax, DWORD PTR _pkvd$[ebp]
	mov	DWORD PTR [eax+12], 1
	jmp	$LN1@KeyValue
$LN4@KeyValue:

; 1341 : 	}
; 1342 : 	else if( FStrEq( pkvd->szKeyName, "reflection" ))

	push	OFFSET ??_C@_0L@IKCANML@reflection?$AA@
	mov	eax, DWORD PTR _pkvd$[ebp]
	mov	ecx, DWORD PTR [eax+4]
	push	ecx
	call	?FStrEq@@YAHPBD0@Z			; FStrEq
	add	esp, 8
	test	eax, eax
	je	SHORT $LN7@KeyValue

; 1343 : 	{
; 1344 : 		switch(Q_atoi(pkvd->szValue))

	mov	eax, DWORD PTR _pkvd$[ebp]
	mov	ecx, DWORD PTR [eax+8]
	push	ecx
	call	?Q_atoi@@YAHPBD@Z			; Q_atoi
	add	esp, 4
	mov	DWORD PTR tv91[ebp], eax
	cmp	DWORD PTR tv91[ebp], 1
	je	SHORT $LN9@KeyValue
	cmp	DWORD PTR tv91[ebp], 2
	je	SHORT $LN10@KeyValue
	jmp	SHORT $LN2@KeyValue
$LN9@KeyValue:

; 1345 : 		{
; 1346 : 		case 1: pev->effects |= EF_NOREFLECT; break;

	mov	eax, DWORD PTR _this$[ebp]
	mov	ecx, DWORD PTR [eax+4]
	mov	edx, DWORD PTR [ecx+280]
	or	edx, 16777216				; 01000000H
	mov	eax, DWORD PTR _this$[ebp]
	mov	ecx, DWORD PTR [eax+4]
	mov	DWORD PTR [ecx+280], edx
	jmp	SHORT $LN2@KeyValue
$LN10@KeyValue:

; 1347 : 		case 2: pev->effects |= EF_REFLECTONLY; break;

	mov	eax, DWORD PTR _this$[ebp]
	mov	ecx, DWORD PTR [eax+4]
	mov	edx, DWORD PTR [ecx+280]
	or	edx, 33554432				; 02000000H
	mov	eax, DWORD PTR _this$[ebp]
	mov	ecx, DWORD PTR [eax+4]
	mov	DWORD PTR [ecx+280], edx
$LN2@KeyValue:

; 1348 : 		}
; 1349 : 	}
; 1350 : 	else if ( m_cAmmoTypes < MAX_AMMO_SLOTS )

	jmp	SHORT $LN1@KeyValue
$LN7@KeyValue:
	mov	eax, DWORD PTR _this$[ebp]
	cmp	DWORD PTR [eax+2084], 32		; 00000020H
	jge	SHORT $LN11@KeyValue

; 1351 : 	{
; 1352 : 		PackAmmo( ALLOC_STRING(pkvd->szKeyName), atoi(pkvd->szValue) );

	mov	eax, DWORD PTR _pkvd$[ebp]
	mov	ecx, DWORD PTR [eax+8]
	push	ecx
	call	_atoi
	add	esp, 4
	push	eax
	mov	edx, DWORD PTR _pkvd$[ebp]
	mov	eax, DWORD PTR [edx+4]
	push	eax
	call	DWORD PTR ?g_engfuncs@@3Uenginefuncs_s@@A+268
	add	esp, 4
	push	eax
	mov	ecx, DWORD PTR _this$[ebp]
	call	?PackAmmo@CWeaponBox@@QAEHHH@Z		; CWeaponBox::PackAmmo

; 1353 : 		m_cAmmoTypes++;// count this new ammo type.

	mov	eax, DWORD PTR _this$[ebp]
	mov	ecx, DWORD PTR [eax+2084]
	add	ecx, 1
	mov	edx, DWORD PTR _this$[ebp]
	mov	DWORD PTR [edx+2084], ecx

; 1354 : 
; 1355 : 		pkvd->fHandled = TRUE;

	mov	eax, DWORD PTR _pkvd$[ebp]
	mov	DWORD PTR [eax+12], 1

; 1356 : 	}
; 1357 : 	else

	jmp	SHORT $LN1@KeyValue
$LN11@KeyValue:

; 1358 : 	{
; 1359 : 		ALERT ( at_console, "WeaponBox too full! only %d ammotypes allowed\n", MAX_AMMO_SLOTS );

	push	32					; 00000020H
	push	OFFSET ??_C@_0CP@GGAKEPLH@WeaponBox?5too?5full?$CB?5only?5?$CFd?5ammo@
	push	1
	call	DWORD PTR ?g_engfuncs@@3Uenginefuncs_s@@A+244
	add	esp, 12					; 0000000cH
$LN1@KeyValue:

; 1360 : 	}
; 1361 : }

	pop	edi
	pop	esi
	pop	ebx
	mov	esp, ebp
	pop	ebp
	ret	4
?KeyValue@CWeaponBox@@EAEXPAUKeyValueData_s@@@Z ENDP	; CWeaponBox::KeyValue
_TEXT	ENDS
; Function compile flags: /Odtp /ZI
; File d:\!diffusion 2020\source code 2022\client-server\server\weapons\weapons.cpp
;	COMDAT ?Touch@CWeaponBox@@EAEXPAVCBaseEntity@@@Z
_TEXT	SEGMENT
_pItem$1 = -16						; size = 4
_i$ = -12						; size = 4
_pPlayer$ = -8						; size = 4
_this$ = -4						; size = 4
_pOther$ = 8						; size = 4
?Touch@CWeaponBox@@EAEXPAVCBaseEntity@@@Z PROC		; CWeaponBox::Touch, COMDAT
; _this$ = ecx

; 1409 : {

	push	ebp
	mov	ebp, esp
	sub	esp, 80					; 00000050H
	push	ebx
	push	esi
	push	edi
	mov	DWORD PTR _this$[ebp], ecx

; 1410 : 	if ( !(pev->flags & FL_ONGROUND ) )

	mov	eax, DWORD PTR _this$[ebp]
	mov	ecx, DWORD PTR [eax+4]
	mov	edx, DWORD PTR [ecx+420]
	and	edx, 512				; 00000200H
	jne	SHORT $LN10@Touch

; 1411 : 	{
; 1412 : 		return;

	jmp	$LN1@Touch
$LN10@Touch:

; 1413 : 	}
; 1414 : 
; 1415 : 	if ( !pOther->IsPlayer() )

	mov	eax, DWORD PTR _pOther$[ebp]
	mov	edx, DWORD PTR [eax]
	mov	ecx, DWORD PTR _pOther$[ebp]
	mov	eax, DWORD PTR [edx+220]
	call	eax
	test	eax, eax
	jne	SHORT $LN11@Touch

; 1416 : 	{
; 1417 : 		// only players may touch a weaponbox.
; 1418 : 		return;

	jmp	$LN1@Touch
$LN11@Touch:

; 1419 : 	}
; 1420 : 
; 1421 : 	if ( !pOther->IsAlive() )

	mov	eax, DWORD PTR _pOther$[ebp]
	mov	edx, DWORD PTR [eax]
	mov	ecx, DWORD PTR _pOther$[ebp]
	mov	eax, DWORD PTR [edx+196]
	call	eax
	test	eax, eax
	jne	SHORT $LN12@Touch

; 1422 : 	{
; 1423 : 		// no dead guys.
; 1424 : 		return;

	jmp	$LN1@Touch
$LN12@Touch:

; 1425 : 	}
; 1426 : 
; 1427 : 	CBasePlayer *pPlayer = (CBasePlayer *)pOther;

	mov	eax, DWORD PTR _pOther$[ebp]
	mov	DWORD PTR _pPlayer$[ebp], eax

; 1428 : 	int i;
; 1429 : 
; 1430 : // dole out ammo
; 1431 : 	for ( i = 0 ; i < MAX_AMMO_SLOTS ; i++ )

	mov	DWORD PTR _i$[ebp], 0
	jmp	SHORT $LN4@Touch
$LN2@Touch:
	mov	eax, DWORD PTR _i$[ebp]
	add	eax, 1
	mov	DWORD PTR _i$[ebp], eax
$LN4@Touch:
	cmp	DWORD PTR _i$[ebp], 32			; 00000020H
	jge	$LN3@Touch

; 1432 : 	{
; 1433 : 		if ( !FStringNull( m_rgiszAmmo[ i ] ) )

	mov	eax, DWORD PTR _i$[ebp]
	mov	ecx, DWORD PTR _this$[ebp]
	mov	edx, DWORD PTR [ecx+eax*4+1828]
	push	edx
	call	?FStringNull@@YAHH@Z			; FStringNull
	add	esp, 4
	test	eax, eax
	jne	SHORT $LN13@Touch

; 1434 : 		{
; 1435 : 			// there's some ammo of this type. 
; 1436 : 			pPlayer->GiveAmmo( m_rgAmmo[ i ], (char *)STRING( m_rgiszAmmo[ i ] ), MaxAmmoCarry( m_rgiszAmmo[ i ] ) );

	mov	eax, DWORD PTR _i$[ebp]
	mov	ecx, DWORD PTR _this$[ebp]
	mov	edx, DWORD PTR [ecx+eax*4+1828]
	push	edx
	call	?MaxAmmoCarry@@YAHH@Z			; MaxAmmoCarry
	add	esp, 4
	push	eax
	mov	eax, DWORD PTR _i$[ebp]
	mov	ecx, DWORD PTR _this$[ebp]
	mov	edx, DWORD PTR [ecx+eax*4+1828]
	push	edx
	call	DWORD PTR ?g_engfuncs@@3Uenginefuncs_s@@A+264
	add	esp, 4
	push	eax
	mov	eax, DWORD PTR _i$[ebp]
	mov	ecx, DWORD PTR _this$[ebp]
	mov	edx, DWORD PTR [ecx+eax*4+1956]
	push	edx
	mov	eax, DWORD PTR _pPlayer$[ebp]
	mov	edx, DWORD PTR [eax]
	mov	ecx, DWORD PTR _pPlayer$[ebp]
	mov	eax, DWORD PTR [edx+152]
	call	eax

; 1437 : 
; 1438 : 			//ALERT ( at_console, "Gave %d rounds of %s\n", m_rgAmmo[i], STRING(m_rgiszAmmo[i]) );
; 1439 : 
; 1440 : 			// now empty the ammo from the weaponbox since we just gave it to the player
; 1441 : 			m_rgiszAmmo[ i ] = iStringNull;

	mov	eax, DWORD PTR _i$[ebp]
	mov	ecx, DWORD PTR _this$[ebp]
	mov	DWORD PTR [ecx+eax*4+1828], 0

; 1442 : 			m_rgAmmo[ i ] = 0;

	mov	eax, DWORD PTR _i$[ebp]
	mov	ecx, DWORD PTR _this$[ebp]
	mov	DWORD PTR [ecx+eax*4+1956], 0
$LN13@Touch:

; 1443 : 		}
; 1444 : 	}

	jmp	$LN2@Touch
$LN3@Touch:

; 1445 : 
; 1446 : // go through my weapons and try to give the usable ones to the player. 
; 1447 : // it's important the the player be given ammo first, so the weapons code doesn't refuse 
; 1448 : // to deploy a better weapon that the player may pick up because he has no ammo for it.
; 1449 : 	for ( i = 0 ; i < MAX_ITEM_TYPES ; i++ )

	mov	DWORD PTR _i$[ebp], 0
	jmp	SHORT $LN7@Touch
$LN5@Touch:
	mov	eax, DWORD PTR _i$[ebp]
	add	eax, 1
	mov	DWORD PTR _i$[ebp], eax
$LN7@Touch:
	cmp	DWORD PTR _i$[ebp], 6
	jge	$LN6@Touch

; 1450 : 	{
; 1451 : 		if ( m_rgpPlayerItems[ i ] )

	mov	eax, DWORD PTR _i$[ebp]
	mov	ecx, DWORD PTR _this$[ebp]
	cmp	DWORD PTR [ecx+eax*4+1804], 0
	je	SHORT $LN9@Touch
$LN8@Touch:

; 1452 : 		{
; 1453 : 			CBasePlayerItem *pItem;
; 1454 : 
; 1455 : 			// have at least one weapon in this slot
; 1456 : 			while ( m_rgpPlayerItems[ i ] )

	mov	eax, DWORD PTR _i$[ebp]
	mov	ecx, DWORD PTR _this$[ebp]
	cmp	DWORD PTR [ecx+eax*4+1804], 0
	je	SHORT $LN9@Touch

; 1457 : 			{
; 1458 : 				//ALERT ( at_console, "trying to give %s\n", STRING( m_rgpPlayerItems[ i ]->pev->classname ) );
; 1459 : 
; 1460 : 				pItem = m_rgpPlayerItems[ i ];

	mov	eax, DWORD PTR _i$[ebp]
	mov	ecx, DWORD PTR _this$[ebp]
	mov	edx, DWORD PTR [ecx+eax*4+1804]
	mov	DWORD PTR _pItem$1[ebp], edx

; 1461 : 				m_rgpPlayerItems[ i ] = m_rgpPlayerItems[ i ]->m_pNext;// unlink this weapon from the box

	mov	eax, DWORD PTR _i$[ebp]
	mov	ecx, DWORD PTR _this$[ebp]
	mov	edx, DWORD PTR [ecx+eax*4+1804]
	mov	eax, DWORD PTR _i$[ebp]
	mov	ecx, DWORD PTR _this$[ebp]
	mov	edx, DWORD PTR [edx+1860]
	mov	DWORD PTR [ecx+eax*4+1804], edx

; 1462 : 
; 1463 : 				if ( pPlayer->AddPlayerItem( pItem ) )

	mov	eax, DWORD PTR _pItem$1[ebp]
	push	eax
	mov	ecx, DWORD PTR _pPlayer$[ebp]
	mov	edx, DWORD PTR [ecx]
	mov	ecx, DWORD PTR _pPlayer$[ebp]
	mov	eax, DWORD PTR [edx+144]
	call	eax
	test	eax, eax
	je	SHORT $LN15@Touch

; 1464 : 				{
; 1465 : 					pItem->AttachToPlayer( pPlayer );

	mov	eax, DWORD PTR _pPlayer$[ebp]
	push	eax
	mov	ecx, DWORD PTR _pItem$1[ebp]
	mov	edx, DWORD PTR [ecx]
	mov	ecx, DWORD PTR _pItem$1[ebp]
	mov	eax, DWORD PTR [edx+428]
	call	eax
$LN15@Touch:

; 1466 : 				}
; 1467 : 			}

	jmp	SHORT $LN8@Touch
$LN9@Touch:

; 1468 : 		}
; 1469 : 	}

	jmp	$LN5@Touch
$LN6@Touch:

; 1470 : 
; 1471 : 	EMIT_SOUND( pOther->edict(), CHAN_ITEM, "items/gunpickup2.wav", 1, ATTN_NORM );

	push	ecx
	movss	xmm0, DWORD PTR __real@3f4ccccd
	movss	DWORD PTR [esp], xmm0
	push	ecx
	movss	xmm0, DWORD PTR __real@3f800000
	movss	DWORD PTR [esp], xmm0
	push	OFFSET ??_C@_0BF@FIJIKGHL@items?1gunpickup2?4wav?$AA@
	push	3
	mov	ecx, DWORD PTR _pOther$[ebp]
	call	?edict@CBaseEntity@@QAEPAUedict_s@@XZ	; CBaseEntity::edict
	push	eax
	call	?EMIT_SOUND@@YAXPAUedict_s@@HPBDMM@Z	; EMIT_SOUND
	add	esp, 20					; 00000014H

; 1472 : 	SetTouch(NULL);

	push	OFFSET ??_C@_04HIBGFPH@NULL?$AA@
	push	0
	mov	ecx, DWORD PTR _this$[ebp]
	call	?TouchSet@CBaseEntity@@QAEP81@AEXPAV1@@ZP81@AEX0@ZPAD@Z ; CBaseEntity::TouchSet

; 1473 : 	UTIL_Remove(this);

	mov	eax, DWORD PTR _this$[ebp]
	push	eax
	call	?UTIL_Remove@@YAXPAVCBaseEntity@@@Z	; UTIL_Remove
	add	esp, 4
$LN1@Touch:

; 1474 : }

	pop	edi
	pop	esi
	pop	ebx
	mov	esp, ebp
	pop	ebp
	ret	4
?Touch@CWeaponBox@@EAEXPAVCBaseEntity@@@Z ENDP		; CWeaponBox::Touch
_TEXT	ENDS
; Function compile flags: /Odtp /ZI
; File d:\!diffusion 2020\source code 2022\client-server\server\weapons\weapons.cpp
;	COMDAT ?Spawn@CWeaponBox@@EAEXXZ
_TEXT	SEGMENT
_this$ = -4						; size = 4
?Spawn@CWeaponBox@@EAEXXZ PROC				; CWeaponBox::Spawn, COMDAT
; _this$ = ecx

; 1367 : {

	push	ebp
	mov	ebp, esp
	sub	esp, 68					; 00000044H
	push	ebx
	push	esi
	push	edi
	mov	DWORD PTR _this$[ebp], ecx

; 1368 : 	Precache( );

	mov	eax, DWORD PTR _this$[ebp]
	mov	edx, DWORD PTR [eax]
	mov	ecx, DWORD PTR _this$[ebp]
	mov	eax, DWORD PTR [edx+8]
	call	eax

; 1369 : 
; 1370 : 	pev->movetype = MOVETYPE_TOSS;

	mov	eax, DWORD PTR _this$[ebp]
	mov	ecx, DWORD PTR [eax+4]
	mov	DWORD PTR [ecx+264], 6

; 1371 : 	pev->solid = SOLID_TRIGGER;

	mov	eax, DWORD PTR _this$[ebp]
	mov	ecx, DWORD PTR [eax+4]
	mov	DWORD PTR [ecx+268], 1

; 1372 : 
; 1373 : 	UTIL_SetSize( pev, g_vecZero, g_vecZero );

	push	OFFSET ?g_vecZero@@3VVector@@B		; g_vecZero
	push	OFFSET ?g_vecZero@@3VVector@@B		; g_vecZero
	mov	eax, DWORD PTR _this$[ebp]
	mov	ecx, DWORD PTR [eax+4]
	push	ecx
	call	?UTIL_SetSize@@YAXPAUentvars_s@@ABVVector@@1@Z ; UTIL_SetSize
	add	esp, 12					; 0000000cH

; 1374 : 
; 1375 : 	SET_MODEL( ENT(pev), "models/w_weaponbox.mdl");

	push	OFFSET ??_C@_0BH@BOHLGHCG@models?1w_weaponbox?4mdl?$AA@
	mov	eax, DWORD PTR _this$[ebp]
	mov	ecx, DWORD PTR [eax+4]
	push	ecx
	call	?ENT@@YAPAUedict_s@@PBUentvars_s@@@Z	; ENT
	add	esp, 4
	push	eax
	call	DWORD PTR ?g_engfuncs@@3Uenginefuncs_s@@A+8
	add	esp, 8

; 1376 : }

	pop	edi
	pop	esi
	pop	ebx
	mov	esp, ebp
	pop	ebp
	ret	0
?Spawn@CWeaponBox@@EAEXXZ ENDP				; CWeaponBox::Spawn
_TEXT	ENDS
; Function compile flags: /Odtp /ZI
; File d:\!diffusion 2020\source code 2022\client-server\server\weapons\weapons.cpp
;	COMDAT ?Precache@CWeaponBox@@EAEXXZ
_TEXT	SEGMENT
_this$ = -4						; size = 4
?Precache@CWeaponBox@@EAEXXZ PROC			; CWeaponBox::Precache, COMDAT
; _this$ = ecx

; 1328 : {

	push	ebp
	mov	ebp, esp
	sub	esp, 68					; 00000044H
	push	ebx
	push	esi
	push	edi
	mov	DWORD PTR _this$[ebp], ecx

; 1329 : 	PRECACHE_MODEL("models/w_weaponbox.mdl");

	push	OFFSET ??_C@_0BH@BOHLGHCG@models?1w_weaponbox?4mdl?$AA@
	call	DWORD PTR ?g_engfuncs@@3Uenginefuncs_s@@A
	add	esp, 4

; 1330 : }

	pop	edi
	pop	esi
	pop	ebx
	mov	esp, ebp
	pop	ebp
	ret	0
?Precache@CWeaponBox@@EAEXXZ ENDP			; CWeaponBox::Precache
_TEXT	ENDS
; Function compile flags: /Odtp /ZI
; File d:\!diffusion 2020\source code 2022\client-server\server\weapons\weapons.cpp
;	COMDAT ?DamageDecal@@YAHPAVCBaseEntity@@H@Z
_TEXT	SEGMENT
_pEntity$ = 8						; size = 4
_bitsDamageType$ = 12					; size = 4
?DamageDecal@@YAHPAVCBaseEntity@@H@Z PROC		; DamageDecal, COMDAT

; 218  : {

	push	ebp
	mov	ebp, esp
	sub	esp, 64					; 00000040H
	push	ebx
	push	esi
	push	edi

; 219  : 	if( bitsDamageType & DMG_SLASH )

	mov	eax, DWORD PTR _bitsDamageType$[ebp]
	and	eax, 4
	je	SHORT $LN2@DamageDeca

; 220  : 		return DECAL_GUNSHOT5; // diffusion - knife line decal

	mov	eax, 4
	jmp	SHORT $LN1@DamageDeca
$LN2@DamageDeca:

; 221  : 	
; 222  : 	if ( !pEntity )

	cmp	DWORD PTR _pEntity$[ebp], 0
	jne	SHORT $LN3@DamageDeca

; 223  : 		return (DECAL_GUNSHOT1 + RANDOM_LONG(0,3));

	push	3
	push	0
	call	DWORD PTR ?g_engfuncs@@3Uenginefuncs_s@@A+360
	add	esp, 8
	jmp	SHORT $LN1@DamageDeca
$LN3@DamageDeca:

; 224  : 	
; 225  : 	return pEntity->DamageDecal( bitsDamageType );

	mov	eax, DWORD PTR _bitsDamageType$[ebp]
	push	eax
	mov	ecx, DWORD PTR _pEntity$[ebp]
	mov	edx, DWORD PTR [ecx]
	mov	ecx, DWORD PTR _pEntity$[ebp]
	mov	eax, DWORD PTR [edx+172]
	call	eax
$LN1@DamageDeca:

; 226  : }

	pop	edi
	pop	esi
	pop	ebx
	mov	esp, ebp
	pop	ebp
	ret	0
?DamageDecal@@YAHPAVCBaseEntity@@H@Z ENDP		; DamageDecal
_TEXT	ENDS
; Function compile flags: /Odtp /ZI
; File d:\!diffusion 2020\source code 2022\client-server\server\weapons\weapons.cpp
;	COMDAT ?SpawnBlood@@YAXVVector@@HM@Z
_TEXT	SEGMENT
_vecSpot$ = 8						; size = 12
_bloodColor$ = 20					; size = 4
_flDamage$ = 24						; size = 4
?SpawnBlood@@YAXVVector@@HM@Z PROC			; SpawnBlood, COMDAT

; 212  : {

	push	ebp
	mov	ebp, esp
	sub	esp, 64					; 00000040H
	push	ebx
	push	esi
	push	edi

; 213  : 	UTIL_BloodDrips( vecSpot, g_vecAttackDir, bloodColor, (int)flDamage );

	cvttss2si eax, DWORD PTR _flDamage$[ebp]
	push	eax
	mov	ecx, DWORD PTR _bloodColor$[ebp]
	push	ecx
	push	OFFSET ?g_vecAttackDir@@3VVector@@A	; g_vecAttackDir
	lea	edx, DWORD PTR _vecSpot$[ebp]
	push	edx
	call	?UTIL_BloodDrips@@YAXABVVector@@0HH@Z	; UTIL_BloodDrips
	add	esp, 16					; 00000010H

; 214  : }

	pop	edi
	pop	esi
	pop	ebx
	mov	esp, ebp
	pop	ebp
	ret	0
?SpawnBlood@@YAXVVector@@HM@Z ENDP			; SpawnBlood
_TEXT	ENDS
; Function compile flags: /Odtp /ZI
; File d:\!diffusion 2020\source code 2022\client-server\server\weapons\weapons.cpp
;	COMDAT ?DecalGunshot@@YAXPAUgametrace_s@@H@Z
_TEXT	SEGMENT
tv145 = -80						; size = 4
tv82 = -80						; size = 4
_pEntity$1 = -12					; size = 4
_pEntity$2 = -8						; size = 4
_pev$ = -4						; size = 4
_pTrace$ = 8						; size = 4
_iBulletType$ = 12					; size = 4
?DecalGunshot@@YAXPAUgametrace_s@@H@Z PROC		; DecalGunshot, COMDAT

; 229  : {

	push	ebp
	mov	ebp, esp
	sub	esp, 80					; 00000050H
	push	ebx
	push	esi
	push	edi

; 230  : 	// Is the entity valid
; 231  : 	if ( !UTIL_IsValidEntity( pTrace->pHit ) )

	mov	eax, DWORD PTR _pTrace$[ebp]
	mov	ecx, DWORD PTR [eax+48]
	push	ecx
	call	?UTIL_IsValidEntity@@YAHPAUedict_s@@@Z	; UTIL_IsValidEntity
	add	esp, 4
	test	eax, eax
	jne	SHORT $LN6@DecalGunsh

; 232  : 		return;

	jmp	$LN1@DecalGunsh
$LN6@DecalGunsh:

; 233  : 
; 234  : 	entvars_t *pev = VARS(pTrace->pHit);

	mov	eax, DWORD PTR _pTrace$[ebp]
	mov	ecx, DWORD PTR [eax+48]
	push	ecx
	call	?VARS@@YAPAUentvars_s@@PAUedict_s@@@Z	; VARS
	add	esp, 4
	mov	DWORD PTR _pev$[ebp], eax

; 235  : 
; 236  : 	if( UTIL_GetModelType( pev->modelindex ) == mod_brush )

	mov	eax, DWORD PTR _pev$[ebp]
	mov	ecx, DWORD PTR [eax+180]
	push	ecx
	call	?UTIL_GetModelType@@YA?AW4modtype_t@@H@Z ; UTIL_GetModelType
	add	esp, 4
	test	eax, eax
	jne	$LN7@DecalGunsh

; 237  : 	{
; 238  : 		CBaseEntity *pEntity = NULL;

	mov	DWORD PTR _pEntity$2[ebp], 0

; 239  : 		// Decal the wall with a gunshot
; 240  : 		if ( !FNullEnt(pTrace->pHit) )

	mov	eax, DWORD PTR _pTrace$[ebp]
	mov	ecx, DWORD PTR [eax+48]
	push	ecx
	call	?FNullEnt@@YAHPBUedict_s@@@Z		; FNullEnt
	add	esp, 4
	test	eax, eax
	jne	SHORT $LN9@DecalGunsh

; 241  : 			pEntity = CBaseEntity::Instance(pTrace->pHit);

	mov	eax, DWORD PTR _pTrace$[ebp]
	mov	ecx, DWORD PTR [eax+48]
	push	ecx
	call	?Instance@CBaseEntity@@SAPAV1@PAUedict_s@@@Z ; CBaseEntity::Instance
	add	esp, 4
	mov	DWORD PTR _pEntity$2[ebp], eax
$LN9@DecalGunsh:

; 242  : 
; 243  : 		switch( iBulletType )

	mov	eax, DWORD PTR _iBulletType$[ebp]
	mov	DWORD PTR tv82[ebp], eax
	cmp	DWORD PTR tv82[ebp], 2
	je	SHORT $LN11@DecalGunsh
	cmp	DWORD PTR tv82[ebp], 6
	je	SHORT $LN12@DecalGunsh
	cmp	DWORD PTR tv82[ebp], 9
	je	SHORT $LN11@DecalGunsh

; 244  : 		{
; 245  : 		case BULLET_PLAYER_9MM:
; 246  : 		case BULLET_MONSTER_9MM:
; 247  : 		case BULLET_PLAYER_MP5:
; 248  : 		case BULLET_MONSTER_MP5:
; 249  : 		case BULLET_PLAYER_BUCKSHOT:
; 250  : 		case BULLET_PLAYER_357:
; 251  : 		default:
; 252  : 			// smoke and decal
; 253  : 			UTIL_GunshotDecalTrace( pTrace, DamageDecal( pEntity, DMG_BULLET ) );

	push	2
	mov	eax, DWORD PTR _pEntity$2[ebp]
	push	eax
	call	?DamageDecal@@YAHPAVCBaseEntity@@H@Z	; DamageDecal
	add	esp, 8
	push	eax
	mov	ecx, DWORD PTR _pTrace$[ebp]
	push	ecx
	call	?UTIL_GunshotDecalTrace@@YAXPAUgametrace_s@@H@Z ; UTIL_GunshotDecalTrace
	add	esp, 8

; 254  : 			break;

	jmp	SHORT $LN2@DecalGunsh
$LN11@DecalGunsh:

; 255  : 		case BULLET_MONSTER_12MM:
; 256  : 		case BULLET_PLAYER_12MM:
; 257  : 			// smoke and decal
; 258  : 			UTIL_GunshotDecalTrace( pTrace, DamageDecal( pEntity, DMG_BULLET ) );

	push	2
	mov	eax, DWORD PTR _pEntity$2[ebp]
	push	eax
	call	?DamageDecal@@YAHPAVCBaseEntity@@H@Z	; DamageDecal
	add	esp, 8
	push	eax
	mov	ecx, DWORD PTR _pTrace$[ebp]
	push	ecx
	call	?UTIL_GunshotDecalTrace@@YAXPAUgametrace_s@@H@Z ; UTIL_GunshotDecalTrace
	add	esp, 8

; 259  : 			break;

	jmp	SHORT $LN2@DecalGunsh
$LN12@DecalGunsh:

; 260  : 		case BULLET_PLAYER_CROWBAR:
; 261  : 			// wall decal
; 262  : 			UTIL_GunshotDecalTrace( pTrace, DamageDecal( pEntity, DMG_SLASH ) );

	push	4
	mov	eax, DWORD PTR _pEntity$2[ebp]
	push	eax
	call	?DamageDecal@@YAHPAVCBaseEntity@@H@Z	; DamageDecal
	add	esp, 8
	push	eax
	mov	ecx, DWORD PTR _pTrace$[ebp]
	push	ecx
	call	?UTIL_GunshotDecalTrace@@YAXPAUgametrace_s@@H@Z ; UTIL_GunshotDecalTrace
	add	esp, 8
$LN2@DecalGunsh:

; 263  : 			break;
; 264  : 		}
; 265  : 	}
; 266  : 	else if( pev->flags & ( FL_MONSTER|FL_CLIENT ) || pev->solid == SOLID_CUSTOM )

	jmp	$LN1@DecalGunsh
$LN7@DecalGunsh:
	mov	eax, DWORD PTR _pev$[ebp]
	mov	ecx, DWORD PTR [eax+420]
	and	ecx, 40					; 00000028H
	jne	SHORT $LN14@DecalGunsh
	mov	eax, DWORD PTR _pev$[ebp]
	cmp	DWORD PTR [eax+268], 5
	jne	$LN1@DecalGunsh
$LN14@DecalGunsh:

; 267  : 	{
; 268  : 		CBaseEntity *pEntity = NULL;

	mov	DWORD PTR _pEntity$1[ebp], 0

; 269  : 		// Decal the model with a blood
; 270  : 		if ( !FNullEnt(pTrace->pHit) )

	mov	eax, DWORD PTR _pTrace$[ebp]
	mov	ecx, DWORD PTR [eax+48]
	push	ecx
	call	?FNullEnt@@YAHPBUedict_s@@@Z		; FNullEnt
	add	esp, 4
	test	eax, eax
	jne	SHORT $LN15@DecalGunsh

; 271  : 			pEntity = CBaseEntity::Instance(pTrace->pHit);

	mov	eax, DWORD PTR _pTrace$[ebp]
	mov	ecx, DWORD PTR [eax+48]
	push	ecx
	call	?Instance@CBaseEntity@@SAPAV1@PAUedict_s@@@Z ; CBaseEntity::Instance
	add	esp, 4
	mov	DWORD PTR _pEntity$1[ebp], eax
$LN15@DecalGunsh:

; 272  : 
; 273  : 		switch( iBulletType )

	mov	eax, DWORD PTR _iBulletType$[ebp]
	mov	DWORD PTR tv145[ebp], eax
	cmp	DWORD PTR tv145[ebp], 2
	je	SHORT $LN17@DecalGunsh
	cmp	DWORD PTR tv145[ebp], 6
	je	SHORT $LN18@DecalGunsh
	cmp	DWORD PTR tv145[ebp], 9
	je	SHORT $LN17@DecalGunsh

; 274  : 		{
; 275  : 		case BULLET_PLAYER_9MM:
; 276  : 		case BULLET_MONSTER_9MM:
; 277  : 		case BULLET_PLAYER_MP5:
; 278  : 		case BULLET_MONSTER_MP5:
; 279  : 		case BULLET_PLAYER_BUCKSHOT:
; 280  : 		case BULLET_PLAYER_357:
; 281  : 		default:
; 282  : 			// smoke and decal
; 283  : 			UTIL_StudioDecalTrace( pTrace, DamageDecal( pEntity, DMG_BULLET ));

	push	0
	push	2
	mov	eax, DWORD PTR _pEntity$1[ebp]
	push	eax
	call	?DamageDecal@@YAHPAVCBaseEntity@@H@Z	; DamageDecal
	add	esp, 8
	push	eax
	mov	ecx, DWORD PTR _pTrace$[ebp]
	push	ecx
	call	?UTIL_StudioDecalTrace@@YAXPAUgametrace_s@@HH@Z ; UTIL_StudioDecalTrace
	add	esp, 12					; 0000000cH

; 284  : 			break;

	jmp	SHORT $LN1@DecalGunsh
$LN17@DecalGunsh:

; 285  : 		case BULLET_MONSTER_12MM:
; 286  : 		case BULLET_PLAYER_12MM:
; 287  : 			// smoke and decal
; 288  : 			UTIL_StudioDecalTrace( pTrace, DamageDecal( pEntity, DMG_BULLET ));

	push	0
	push	2
	mov	eax, DWORD PTR _pEntity$1[ebp]
	push	eax
	call	?DamageDecal@@YAHPAVCBaseEntity@@H@Z	; DamageDecal
	add	esp, 8
	push	eax
	mov	ecx, DWORD PTR _pTrace$[ebp]
	push	ecx
	call	?UTIL_StudioDecalTrace@@YAXPAUgametrace_s@@HH@Z ; UTIL_StudioDecalTrace
	add	esp, 12					; 0000000cH

; 289  : 			break;

	jmp	SHORT $LN1@DecalGunsh
$LN18@DecalGunsh:

; 290  : 		case BULLET_PLAYER_CROWBAR:
; 291  : 			// wall decal
; 292  : 			UTIL_StudioDecalTrace( pTrace, DamageDecal( pEntity, DMG_CLUB ));

	push	0
	push	128					; 00000080H
	mov	eax, DWORD PTR _pEntity$1[ebp]
	push	eax
	call	?DamageDecal@@YAHPAVCBaseEntity@@H@Z	; DamageDecal
	add	esp, 8
	push	eax
	mov	ecx, DWORD PTR _pTrace$[ebp]
	push	ecx
	call	?UTIL_StudioDecalTrace@@YAXPAUgametrace_s@@HH@Z ; UTIL_StudioDecalTrace
	add	esp, 12					; 0000000cH
$LN1@DecalGunsh:

; 293  : 			break;
; 294  : 		}
; 295  : 	}
; 296  : }

	pop	edi
	pop	esi
	pop	ebx
	mov	esp, ebp
	pop	ebp
	ret	0
?DecalGunshot@@YAXPAUgametrace_s@@H@Z ENDP		; DecalGunshot
_TEXT	ENDS
; Function compile flags: /Odtp /ZI
; File d:\!diffusion 2020\source code 2022\client-server\server\weapons\weapons.cpp
;	COMDAT ?AddMultiDamage@@YAXPAUentvars_s@@PAVCBaseEntity@@MH@Z
_TEXT	SEGMENT
_pevInflictor$ = 8					; size = 4
_pEntity$ = 12						; size = 4
_flDamage$ = 16						; size = 4
_bitsDamageType$ = 20					; size = 4
?AddMultiDamage@@YAXPAUentvars_s@@PAVCBaseEntity@@MH@Z PROC ; AddMultiDamage, COMDAT

; 190  : {

	push	ebp
	mov	ebp, esp
	sub	esp, 64					; 00000040H
	push	ebx
	push	esi
	push	edi

; 191  : 	if ( !pEntity )

	cmp	DWORD PTR _pEntity$[ebp], 0
	jne	SHORT $LN2@AddMultiDa

; 192  : 		return;

	jmp	SHORT $LN1@AddMultiDa
$LN2@AddMultiDa:

; 193  : 	
; 194  : 	gMultiDamage.type |= bitsDamageType;

	mov	eax, DWORD PTR ?gMultiDamage@@3UMULTIDAMAGE@@A+8
	or	eax, DWORD PTR _bitsDamageType$[ebp]
	mov	DWORD PTR ?gMultiDamage@@3UMULTIDAMAGE@@A+8, eax

; 195  : 
; 196  : 	if ( pEntity != gMultiDamage.pEntity )

	mov	eax, DWORD PTR _pEntity$[ebp]
	cmp	eax, DWORD PTR ?gMultiDamage@@3UMULTIDAMAGE@@A
	je	SHORT $LN3@AddMultiDa

; 197  : 	{
; 198  : 		ApplyMultiDamage(pevInflictor,pevInflictor); // UNDONE: wrong attacker!

	mov	eax, DWORD PTR _pevInflictor$[ebp]
	push	eax
	mov	ecx, DWORD PTR _pevInflictor$[ebp]
	push	ecx
	call	?ApplyMultiDamage@@YAXPAUentvars_s@@0@Z	; ApplyMultiDamage
	add	esp, 8

; 199  : 		gMultiDamage.pEntity	= pEntity;

	mov	eax, DWORD PTR _pEntity$[ebp]
	mov	DWORD PTR ?gMultiDamage@@3UMULTIDAMAGE@@A, eax

; 200  : 		gMultiDamage.amount		= 0;

	xorps	xmm0, xmm0
	movss	DWORD PTR ?gMultiDamage@@3UMULTIDAMAGE@@A+4, xmm0
$LN3@AddMultiDa:

; 201  : 	}
; 202  : 
; 203  : 	gMultiDamage.amount += flDamage;

	movss	xmm0, DWORD PTR ?gMultiDamage@@3UMULTIDAMAGE@@A+4
	addss	xmm0, DWORD PTR _flDamage$[ebp]
	movss	DWORD PTR ?gMultiDamage@@3UMULTIDAMAGE@@A+4, xmm0
$LN1@AddMultiDa:

; 204  : }

	pop	edi
	pop	esi
	pop	ebx
	mov	esp, ebp
	pop	ebp
	ret	0
?AddMultiDamage@@YAXPAUentvars_s@@PAVCBaseEntity@@MH@Z ENDP ; AddMultiDamage
_TEXT	ENDS
; Function compile flags: /Odtp /ZI
; File d:\!diffusion 2020\source code 2022\client-server\server\weapons\weapons.cpp
;	COMDAT ?ApplyMultiDamage@@YAXPAUentvars_s@@0@Z
_TEXT	SEGMENT
_tr$ = -80						; size = 56
_vecDir$ = -24						; size = 12
_vecSpot1$ = -12					; size = 12
_pevInflictor$ = 8					; size = 4
_pevAttacker$ = 12					; size = 4
?ApplyMultiDamage@@YAXPAUentvars_s@@0@Z PROC		; ApplyMultiDamage, COMDAT

; 174  : {

	push	ebp
	mov	ebp, esp
	sub	esp, 144				; 00000090H
	push	ebx
	push	esi
	push	edi

; 175  : 	Vector		vecSpot1;//where blood comes from

	lea	ecx, DWORD PTR _vecSpot1$[ebp]
	call	??0Vector@@QAE@XZ			; Vector::Vector

; 176  : 	Vector		vecDir;//direction blood should go

	lea	ecx, DWORD PTR _vecDir$[ebp]
	call	??0Vector@@QAE@XZ			; Vector::Vector

; 177  : 	TraceResult	tr;

	lea	ecx, DWORD PTR _tr$[ebp]
	call	??0gametrace_s@@QAE@XZ

; 178  : 	
; 179  : 	if ( !gMultiDamage.pEntity )

	cmp	DWORD PTR ?gMultiDamage@@3UMULTIDAMAGE@@A, 0
	jne	SHORT $LN2@ApplyMulti

; 180  : 		return;

	jmp	SHORT $LN1@ApplyMulti
$LN2@ApplyMulti:

; 181  : 
; 182  : 	gMultiDamage.pEntity->TakeDamage(pevInflictor, pevAttacker, gMultiDamage.amount, gMultiDamage.type );

	mov	eax, DWORD PTR ?gMultiDamage@@3UMULTIDAMAGE@@A+8
	push	eax
	push	ecx
	movss	xmm0, DWORD PTR ?gMultiDamage@@3UMULTIDAMAGE@@A+4
	movss	DWORD PTR [esp], xmm0
	mov	ecx, DWORD PTR _pevAttacker$[ebp]
	push	ecx
	mov	edx, DWORD PTR _pevInflictor$[ebp]
	push	edx
	mov	eax, DWORD PTR ?gMultiDamage@@3UMULTIDAMAGE@@A
	mov	edx, DWORD PTR [eax]
	mov	ecx, DWORD PTR ?gMultiDamage@@3UMULTIDAMAGE@@A
	mov	eax, DWORD PTR [edx+96]
	call	eax
$LN1@ApplyMulti:

; 183  : }

	pop	edi
	pop	esi
	pop	ebx
	mov	esp, ebp
	pop	ebp
	ret	0
?ApplyMultiDamage@@YAXPAUentvars_s@@0@Z ENDP		; ApplyMultiDamage
_TEXT	ENDS
; Function compile flags: /Odtp /ZI
; File d:\!diffusion 2020\source code 2022\client-server\server\weapons\weapons.cpp
;	COMDAT ?ClearMultiDamage@@YAXXZ
_TEXT	SEGMENT
?ClearMultiDamage@@YAXXZ PROC				; ClearMultiDamage, COMDAT

; 160  : {

	push	ebp
	mov	ebp, esp
	sub	esp, 64					; 00000040H
	push	ebx
	push	esi
	push	edi

; 161  : 	gMultiDamage.pEntity = NULL;

	mov	DWORD PTR ?gMultiDamage@@3UMULTIDAMAGE@@A, 0

; 162  : 	gMultiDamage.amount	= 0;

	xorps	xmm0, xmm0
	movss	DWORD PTR ?gMultiDamage@@3UMULTIDAMAGE@@A+4, xmm0

; 163  : 	gMultiDamage.type = 0;

	mov	DWORD PTR ?gMultiDamage@@3UMULTIDAMAGE@@A+8, 0

; 164  : }

	pop	edi
	pop	esi
	pop	ebx
	mov	esp, ebp
	pop	ebp
	ret	0
?ClearMultiDamage@@YAXXZ ENDP				; ClearMultiDamage
_TEXT	ENDS
; Function compile flags: /Odtp /ZI
; File d:\!diffusion 2020\source code 2022\client-server\server\weapons\weapons.cpp
;	COMDAT ?GetDataDescMap@CBasePlayerAmmo@@UAEPAUdatamap_s@@XZ
_TEXT	SEGMENT
_this$ = -4						; size = 4
?GetDataDescMap@CBasePlayerAmmo@@UAEPAUdatamap_s@@XZ PROC ; CBasePlayerAmmo::GetDataDescMap, COMDAT
; _this$ = ecx

; 1189 : BEGIN_DATADESC( CBasePlayerAmmo )

	push	ebp
	mov	ebp, esp
	sub	esp, 68					; 00000044H
	push	ebx
	push	esi
	push	edi
	mov	DWORD PTR _this$[ebp], ecx
	mov	eax, OFFSET ?m_DataMap@CBasePlayerAmmo@@2Udatamap_s@@A ; CBasePlayerAmmo::m_DataMap
	pop	edi
	pop	esi
	pop	ebx
	mov	esp, ebp
	pop	ebp
	ret	0
?GetDataDescMap@CBasePlayerAmmo@@UAEPAUdatamap_s@@XZ ENDP ; CBasePlayerAmmo::GetDataDescMap
_TEXT	ENDS
; Function compile flags: /Odtp /ZI
; File d:\!diffusion 2020\source code 2022\client-server\server\weapons\weapons.cpp
;	COMDAT ?GetBaseMap@CBasePlayerAmmo@@SAPAUdatamap_s@@XZ
_TEXT	SEGMENT
_pResult$ = -4						; size = 4
?GetBaseMap@CBasePlayerAmmo@@SAPAUdatamap_s@@XZ PROC	; CBasePlayerAmmo::GetBaseMap, COMDAT

; 1189 : BEGIN_DATADESC( CBasePlayerAmmo )

	push	ebp
	mov	ebp, esp
	sub	esp, 68					; 00000044H
	push	ebx
	push	esi
	push	edi
	lea	eax, DWORD PTR _pResult$[ebp]
	push	eax
	push	0
	call	??$DataMapAccess@VCBaseEntity@@@@YAXPAVCBaseEntity@@PAPAUdatamap_s@@@Z ; DataMapAccess<CBaseEntity>
	add	esp, 8
	mov	eax, DWORD PTR _pResult$[ebp]
	pop	edi
	pop	esi
	pop	ebx
	mov	esp, ebp
	pop	ebp
	ret	0
?GetBaseMap@CBasePlayerAmmo@@SAPAUdatamap_s@@XZ ENDP	; CBasePlayerAmmo::GetBaseMap
_TEXT	ENDS
; Function compile flags: /Odtp /ZI
; File d:\!diffusion 2020\source code 2022\client-server\server\weapons\weapons.cpp
;	COMDAT ?Materialize@CBasePlayerAmmo@@QAEXXZ
_TEXT	SEGMENT
_this$ = -4						; size = 4
?Materialize@CBasePlayerAmmo@@QAEXXZ PROC		; CBasePlayerAmmo::Materialize, COMDAT
; _this$ = ecx

; 1221 : {

	push	ebp
	mov	ebp, esp
	sub	esp, 68					; 00000044H
	push	ebx
	push	esi
	push	edi
	mov	DWORD PTR _this$[ebp], ecx

; 1222 : 	if ( pev->effects & EF_NODRAW )

	mov	eax, DWORD PTR _this$[ebp]
	mov	ecx, DWORD PTR [eax+4]
	mov	edx, DWORD PTR [ecx+280]
	and	edx, 128				; 00000080H
	je	SHORT $LN2@Materializ

; 1223 : 	{
; 1224 : 		// changing from invisible state to visible.
; 1225 : 		EMIT_SOUND_DYN( ENT(pev), CHAN_WEAPON, SND_AMMO_RESPAWN, 1, ATTN_NORM, 0, 150 );

	push	150					; 00000096H
	push	0
	push	ecx
	movss	xmm0, DWORD PTR __real@3f4ccccd
	movss	DWORD PTR [esp], xmm0
	push	ecx
	movss	xmm0, DWORD PTR __real@3f800000
	movss	DWORD PTR [esp], xmm0
	push	OFFSET ??_C@_0BI@KOCMOAHK@items?1suitchargeok1?4wav?$AA@
	push	1
	mov	eax, DWORD PTR _this$[ebp]
	mov	ecx, DWORD PTR [eax+4]
	push	ecx
	call	?ENT@@YAPAUedict_s@@PBUentvars_s@@@Z	; ENT
	add	esp, 4
	push	eax
	call	?EMIT_SOUND_DYN@@YAXPAUedict_s@@HPBDMMHH@Z ; EMIT_SOUND_DYN
	add	esp, 28					; 0000001cH

; 1226 : 		pev->effects &= ~EF_NODRAW;

	mov	eax, DWORD PTR _this$[ebp]
	mov	ecx, DWORD PTR [eax+4]
	mov	edx, DWORD PTR [ecx+280]
	and	edx, -129				; ffffff7fH
	mov	eax, DWORD PTR _this$[ebp]
	mov	ecx, DWORD PTR [eax+4]
	mov	DWORD PTR [ecx+280], edx

; 1227 : 		pev->effects |= EF_MUZZLEFLASH;

	mov	eax, DWORD PTR _this$[ebp]
	mov	ecx, DWORD PTR [eax+4]
	mov	edx, DWORD PTR [ecx+280]
	or	edx, 2
	mov	eax, DWORD PTR _this$[ebp]
	mov	ecx, DWORD PTR [eax+4]
	mov	DWORD PTR [ecx+280], edx
$LN2@Materializ:

; 1228 : 	}
; 1229 : 
; 1230 : 	SetTouch(&CBasePlayerAmmo::DefaultTouch );

	push	OFFSET ??_C@_0BP@BFENDEDA@?$CGCBasePlayerAmmo?3?3DefaultTouch?$AA@
	push	OFFSET ?DefaultTouch@CBasePlayerAmmo@@QAEXPAVCBaseEntity@@@Z ; CBasePlayerAmmo::DefaultTouch
	mov	ecx, DWORD PTR _this$[ebp]
	call	?TouchSet@CBaseEntity@@QAEP81@AEXPAV1@@ZP81@AEX0@ZPAD@Z ; CBaseEntity::TouchSet

; 1231 : }

	pop	edi
	pop	esi
	pop	ebx
	mov	esp, ebp
	pop	ebp
	ret	0
?Materialize@CBasePlayerAmmo@@QAEXXZ ENDP		; CBasePlayerAmmo::Materialize
_TEXT	ENDS
; Function compile flags: /Odtp /ZI
; File d:\!diffusion 2020\source code 2022\client-server\server\weapons\weapons.cpp
;	COMDAT ?Respawn@CBasePlayerAmmo@@UAEPAVCBaseEntity@@XZ
_TEXT	SEGMENT
$T1 = -80						; size = 12
_this$ = -4						; size = 4
?Respawn@CBasePlayerAmmo@@UAEPAVCBaseEntity@@XZ PROC	; CBasePlayerAmmo::Respawn, COMDAT
; _this$ = ecx

; 1208 : {

	push	ebp
	mov	ebp, esp
	sub	esp, 80					; 00000050H
	push	ebx
	push	esi
	push	edi
	mov	DWORD PTR _this$[ebp], ecx

; 1209 : 	pev->effects |= EF_NODRAW;

	mov	eax, DWORD PTR _this$[ebp]
	mov	ecx, DWORD PTR [eax+4]
	mov	edx, DWORD PTR [ecx+280]
	or	edx, 128				; 00000080H
	mov	eax, DWORD PTR _this$[ebp]
	mov	ecx, DWORD PTR [eax+4]
	mov	DWORD PTR [ecx+280], edx

; 1210 : 	SetTouch( NULL );

	push	OFFSET ??_C@_04HIBGFPH@NULL?$AA@
	push	0
	mov	ecx, DWORD PTR _this$[ebp]
	call	?TouchSet@CBaseEntity@@QAEP81@AEXPAV1@@ZP81@AEX0@ZPAD@Z ; CBaseEntity::TouchSet

; 1211 : 
; 1212 : 	UTIL_SetOrigin( this, g_pGameRules->VecAmmoRespawnSpot( this ) );// move to wherever I'm supposed to repawn.

	mov	eax, DWORD PTR _this$[ebp]
	push	eax
	lea	ecx, DWORD PTR $T1[ebp]
	push	ecx
	mov	edx, DWORD PTR ?g_pGameRules@@3PAVCGameRules@@A ; g_pGameRules
	mov	eax, DWORD PTR [edx]
	mov	ecx, DWORD PTR ?g_pGameRules@@3PAVCGameRules@@A ; g_pGameRules
	mov	edx, DWORD PTR [eax+176]
	call	edx
	push	eax
	mov	eax, DWORD PTR _this$[ebp]
	push	eax
	call	?UTIL_SetOrigin@@YAXPAVCBaseEntity@@ABVVector@@@Z ; UTIL_SetOrigin
	add	esp, 8

; 1213 : 
; 1214 : 	SetThink(&CBasePlayerAmmo::Materialize );

	push	OFFSET ??_C@_0BO@GFGNCAEL@?$CGCBasePlayerAmmo?3?3Materialize?$AA@
	push	OFFSET ?Materialize@CBasePlayerAmmo@@QAEXXZ ; CBasePlayerAmmo::Materialize
	mov	ecx, DWORD PTR _this$[ebp]
	call	?ThinkSet@CBaseEntity@@QAEP81@AEXXZP81@AEXXZPAD@Z ; CBaseEntity::ThinkSet

; 1215 : 	pev->nextthink = g_pGameRules->FlAmmoRespawnTime( this );

	mov	eax, DWORD PTR _this$[ebp]
	push	eax
	mov	ecx, DWORD PTR ?g_pGameRules@@3PAVCGameRules@@A ; g_pGameRules
	mov	edx, DWORD PTR [ecx]
	mov	ecx, DWORD PTR ?g_pGameRules@@3PAVCGameRules@@A ; g_pGameRules
	mov	eax, DWORD PTR [edx+172]
	call	eax
	mov	ecx, DWORD PTR _this$[ebp]
	mov	edx, DWORD PTR [ecx+4]
	fstp	DWORD PTR [edx+260]

; 1216 : 
; 1217 : 	return this;

	mov	eax, DWORD PTR _this$[ebp]

; 1218 : }

	pop	edi
	pop	esi
	pop	ebx
	mov	esp, ebp
	pop	ebp
	ret	0
?Respawn@CBasePlayerAmmo@@UAEPAVCBaseEntity@@XZ ENDP	; CBasePlayerAmmo::Respawn
_TEXT	ENDS
; Function compile flags: /Odtp /ZI
; File d:\!diffusion 2020\source code 2022\client-server\server\weapons\weapons.cpp
;	COMDAT ?DefaultTouch@CBasePlayerAmmo@@QAEXPAVCBaseEntity@@@Z
_TEXT	SEGMENT
_this$ = -4						; size = 4
_pOther$ = 8						; size = 4
?DefaultTouch@CBasePlayerAmmo@@QAEXPAVCBaseEntity@@@Z PROC ; CBasePlayerAmmo::DefaultTouch, COMDAT
; _this$ = ecx

; 1234 : {

	push	ebp
	mov	ebp, esp
	sub	esp, 68					; 00000044H
	push	ebx
	push	esi
	push	edi
	mov	DWORD PTR _this$[ebp], ecx

; 1235 : 	if ( !pOther->IsPlayer() )

	mov	eax, DWORD PTR _pOther$[ebp]
	mov	edx, DWORD PTR [eax]
	mov	ecx, DWORD PTR _pOther$[ebp]
	mov	eax, DWORD PTR [edx+220]
	call	eax
	test	eax, eax
	jne	SHORT $LN2@DefaultTou

; 1236 : 		return;

	jmp	$LN1@DefaultTou
$LN2@DefaultTou:

; 1237 : 
; 1238 : 	if (AddAmmo( pOther ))

	mov	eax, DWORD PTR _pOther$[ebp]
	push	eax
	mov	ecx, DWORD PTR _this$[ebp]
	mov	edx, DWORD PTR [ecx]
	mov	ecx, DWORD PTR _this$[ebp]
	mov	eax, DWORD PTR [edx+376]
	call	eax
	test	eax, eax
	je	SHORT $LN3@DefaultTou

; 1239 : 	{
; 1240 : 		if ( g_pGameRules->AmmoShouldRespawn( this ) == GR_AMMO_RESPAWN_YES )

	mov	eax, DWORD PTR _this$[ebp]
	push	eax
	mov	ecx, DWORD PTR ?g_pGameRules@@3PAVCGameRules@@A ; g_pGameRules
	mov	edx, DWORD PTR [ecx]
	mov	ecx, DWORD PTR ?g_pGameRules@@3PAVCGameRules@@A ; g_pGameRules
	mov	eax, DWORD PTR [edx+168]
	call	eax
	cmp	eax, 3
	jne	SHORT $LN5@DefaultTou

; 1241 : 			Respawn();

	mov	eax, DWORD PTR _this$[ebp]
	mov	edx, DWORD PTR [eax]
	mov	ecx, DWORD PTR _this$[ebp]
	mov	eax, DWORD PTR [edx+324]
	call	eax

; 1242 : 		else

	jmp	SHORT $LN6@DefaultTou
$LN5@DefaultTou:

; 1243 : 		{
; 1244 : 			SetTouch( NULL );

	push	OFFSET ??_C@_04HIBGFPH@NULL?$AA@
	push	0
	mov	ecx, DWORD PTR _this$[ebp]
	call	?TouchSet@CBaseEntity@@QAEP81@AEXPAV1@@ZP81@AEX0@ZPAD@Z ; CBaseEntity::TouchSet

; 1245 : 			SetThink(&CBaseEntity::SUB_Remove);

	push	OFFSET ??_C@_0BJ@EIFNLFLK@?$CGCBaseEntity?3?3SUB_Remove?$AA@
	push	OFFSET ?SUB_Remove@CBaseEntity@@QAEXXZ	; CBaseEntity::SUB_Remove
	mov	ecx, DWORD PTR _this$[ebp]
	call	?ThinkSet@CBaseEntity@@QAEP81@AEXXZP81@AEXXZPAD@Z ; CBaseEntity::ThinkSet

; 1246 : 			SetNextThink(0.1);

	push	ecx
	movss	xmm0, DWORD PTR __real@3dcccccd
	movss	DWORD PTR [esp], xmm0
	mov	eax, DWORD PTR _this$[ebp]
	mov	edx, DWORD PTR [eax]
	mov	ecx, DWORD PTR _this$[ebp]
	mov	eax, DWORD PTR [edx+80]
	call	eax
$LN6@DefaultTou:

; 1247 : 		}

	jmp	SHORT $LN9@DefaultTou
$LN3@DefaultTou:

; 1248 : 	}
; 1249 : 	else if( gEvilImpulse101 )

	cmp	DWORD PTR ?gEvilImpulse101@@3HA, 0	; gEvilImpulse101
	je	SHORT $LN7@DefaultTou

; 1250 : 		// evil impulse 101 hack, kill always
; 1251 : 		UTIL_Remove( this );

	mov	eax, DWORD PTR _this$[ebp]
	push	eax
	call	?UTIL_Remove@@YAXPAVCBaseEntity@@@Z	; UTIL_Remove
	add	esp, 4
	jmp	SHORT $LN9@DefaultTou
$LN7@DefaultTou:

; 1252 : 	else if( HasFlag(F_FROM_AMMOBOX) )

	push	8192					; 00002000H
	mov	eax, DWORD PTR _this$[ebp]
	mov	edx, DWORD PTR [eax]
	mov	ecx, DWORD PTR _this$[ebp]
	mov	eax, DWORD PTR [edx+280]
	call	eax
	movzx	ecx, al
	test	ecx, ecx
	je	SHORT $LN9@DefaultTou

; 1253 : 		UTIL_Remove( this );

	mov	eax, DWORD PTR _this$[ebp]
	push	eax
	call	?UTIL_Remove@@YAXPAVCBaseEntity@@@Z	; UTIL_Remove
	add	esp, 4
$LN9@DefaultTou:
$LN1@DefaultTou:

; 1254 : }

	pop	edi
	pop	esi
	pop	ebx
	mov	esp, ebp
	pop	ebp
	ret	4
?DefaultTouch@CBasePlayerAmmo@@QAEXPAVCBaseEntity@@@Z ENDP ; CBasePlayerAmmo::DefaultTouch
_TEXT	ENDS
; Function compile flags: /Odtp /ZI
; File d:\!diffusion 2020\source code 2022\client-server\server\weapons\weapons.cpp
;	COMDAT ?Spawn@CBasePlayerAmmo@@UAEXXZ
_TEXT	SEGMENT
$T1 = -92						; size = 12
$T2 = -80						; size = 12
_this$ = -4						; size = 4
?Spawn@CBasePlayerAmmo@@UAEXXZ PROC			; CBasePlayerAmmo::Spawn, COMDAT
; _this$ = ecx

; 1195 : {

	push	ebp
	mov	ebp, esp
	sub	esp, 92					; 0000005cH
	push	ebx
	push	esi
	push	edi
	mov	DWORD PTR _this$[ebp], ecx

; 1196 : 	if( !HasSpawnFlags( SF_AMMO_DONTFALL ) ) // diffusion - stop falling through the floor!!!

	push	1
	mov	eax, DWORD PTR _this$[ebp]
	mov	edx, DWORD PTR [eax]
	mov	ecx, DWORD PTR _this$[ebp]
	mov	eax, DWORD PTR [edx+268]
	call	eax
	movzx	ecx, al
	test	ecx, ecx
	jne	SHORT $LN2@Spawn

; 1197 : 		pev->movetype = MOVETYPE_TOSS;

	mov	eax, DWORD PTR _this$[ebp]
	mov	ecx, DWORD PTR [eax+4]
	mov	DWORD PTR [ecx+264], 6
$LN2@Spawn:

; 1198 : 
; 1199 : 	pev->solid = SOLID_TRIGGER;

	mov	eax, DWORD PTR _this$[ebp]
	mov	ecx, DWORD PTR [eax+4]
	mov	DWORD PTR [ecx+268], 1

; 1200 : 	UTIL_SetSize(pev, Vector(-16, -16, 0), Vector(16, 16, 16));

	push	ecx
	movss	xmm0, DWORD PTR __real@41800000
	movss	DWORD PTR [esp], xmm0
	push	ecx
	movss	xmm0, DWORD PTR __real@41800000
	movss	DWORD PTR [esp], xmm0
	push	ecx
	movss	xmm0, DWORD PTR __real@41800000
	movss	DWORD PTR [esp], xmm0
	lea	ecx, DWORD PTR $T2[ebp]
	call	??0Vector@@QAE@MMM@Z			; Vector::Vector
	push	eax
	push	ecx
	xorps	xmm0, xmm0
	movss	DWORD PTR [esp], xmm0
	push	ecx
	movss	xmm0, DWORD PTR __real@c1800000
	movss	DWORD PTR [esp], xmm0
	push	ecx
	movss	xmm0, DWORD PTR __real@c1800000
	movss	DWORD PTR [esp], xmm0
	lea	ecx, DWORD PTR $T1[ebp]
	call	??0Vector@@QAE@MMM@Z			; Vector::Vector
	push	eax
	mov	eax, DWORD PTR _this$[ebp]
	mov	ecx, DWORD PTR [eax+4]
	push	ecx
	call	?UTIL_SetSize@@YAXPAUentvars_s@@ABVVector@@1@Z ; UTIL_SetSize
	add	esp, 12					; 0000000cH

; 1201 : 
; 1202 : 	SetFadeDistance( 1000 ); // diffusion UNDONE - cvar?

	push	1000					; 000003e8H
	mov	eax, DWORD PTR _this$[ebp]
	mov	edx, DWORD PTR [eax]
	mov	ecx, DWORD PTR _this$[ebp]
	mov	eax, DWORD PTR [edx+272]
	call	eax

; 1203 : 
; 1204 : 	SetTouch(&CBasePlayerAmmo::DefaultTouch );

	push	OFFSET ??_C@_0BP@BFENDEDA@?$CGCBasePlayerAmmo?3?3DefaultTouch?$AA@
	push	OFFSET ?DefaultTouch@CBasePlayerAmmo@@QAEXPAVCBaseEntity@@@Z ; CBasePlayerAmmo::DefaultTouch
	mov	ecx, DWORD PTR _this$[ebp]
	call	?TouchSet@CBaseEntity@@QAEP81@AEXPAV1@@ZP81@AEX0@ZPAD@Z ; CBaseEntity::TouchSet

; 1205 : }

	pop	edi
	pop	esi
	pop	ebx
	mov	esp, ebp
	pop	ebp
	ret	0
?Spawn@CBasePlayerAmmo@@UAEXXZ ENDP			; CBasePlayerAmmo::Spawn
_TEXT	ENDS
; Function compile flags: /Odtp /ZI
; File d:\!diffusion 2020\source code 2022\client-server\server\weapons\weapons.cpp
;	COMDAT ?PrintState@CBasePlayerWeapon@@QAEXXZ
_TEXT	SEGMENT
_this$ = -4						; size = 4
?PrintState@CBasePlayerWeapon@@QAEXXZ PROC		; CBasePlayerWeapon::PrintState, COMDAT
; _this$ = ecx

; 1647 : {

	push	ebp
	mov	ebp, esp
	sub	esp, 68					; 00000044H
	push	ebx
	push	esi
	push	edi
	mov	DWORD PTR _this$[ebp], ecx

; 1648 : 	ALERT( at_console, "primary:  %f\n", m_flNextPrimaryAttack );

	mov	eax, DWORD PTR _this$[ebp]
	cvtss2sd xmm0, DWORD PTR [eax+1884]
	sub	esp, 8
	movsd	QWORD PTR [esp], xmm0
	push	OFFSET ??_C@_0O@IIHAKPII@primary?3?5?5?$CFf?6?$AA@
	push	1
	call	DWORD PTR ?g_engfuncs@@3Uenginefuncs_s@@A+244
	add	esp, 16					; 00000010H

; 1649 : 	ALERT( at_console, "idle   :  %f\n", m_flTimeWeaponIdle );

	mov	eax, DWORD PTR _this$[ebp]
	cvtss2sd xmm0, DWORD PTR [eax+1892]
	sub	esp, 8
	movsd	QWORD PTR [esp], xmm0
	push	OFFSET ??_C@_0O@BBKDGOHF@idle?5?5?5?3?5?5?$CFf?6?$AA@
	push	1
	call	DWORD PTR ?g_engfuncs@@3Uenginefuncs_s@@A+244
	add	esp, 16					; 00000010H

; 1650 : 
; 1651 : //	ALERT( at_console, "nextrl :  %f\n", m_flNextReload );
; 1652 : //	ALERT( at_console, "nextpum:  %f\n", m_flPumpTime );
; 1653 : 
; 1654 : //	ALERT( at_console, "m_frt  :  %f\n", m_fReloadTime );
; 1655 : 	ALERT( at_console, "m_finre:  %i\n", m_fInReload );

	mov	eax, DWORD PTR _this$[ebp]
	mov	ecx, DWORD PTR [eax+1916]
	push	ecx
	push	OFFSET ??_C@_0O@LOGEBMBD@m_finre?3?5?5?$CFi?6?$AA@
	push	1
	call	DWORD PTR ?g_engfuncs@@3Uenginefuncs_s@@A+244
	add	esp, 12					; 0000000cH

; 1656 : //	ALERT( at_console, "m_finsr:  %i\n", m_fInSpecialReload );
; 1657 : 
; 1658 : 	ALERT( at_console, "m_iclip:  %i\n", m_iClip );

	mov	eax, DWORD PTR _this$[ebp]
	mov	ecx, DWORD PTR [eax+1904]
	push	ecx
	push	OFFSET ??_C@_0O@DAGEOIDI@m_iclip?3?5?5?$CFi?6?$AA@
	push	1
	call	DWORD PTR ?g_engfuncs@@3Uenginefuncs_s@@A+244
	add	esp, 12					; 0000000cH

; 1659 : }

	pop	edi
	pop	esi
	pop	ebx
	mov	esp, ebp
	pop	ebp
	ret	0
?PrintState@CBasePlayerWeapon@@QAEXXZ ENDP		; CBasePlayerWeapon::PrintState
_TEXT	ENDS
; Function compile flags: /Odtp /ZI
; File d:\!diffusion 2020\source code 2022\client-server\server\weapons\weapons.cpp
;	COMDAT ?SecondaryAmmoIndex@CBasePlayerWeapon@@UAEHXZ
_TEXT	SEGMENT
_this$ = -4						; size = 4
?SecondaryAmmoIndex@CBasePlayerWeapon@@UAEHXZ PROC	; CBasePlayerWeapon::SecondaryAmmoIndex, COMDAT
; _this$ = ecx

; 1178 : {

	push	ebp
	mov	ebp, esp
	sub	esp, 68					; 00000044H
	push	ebx
	push	esi
	push	edi
	mov	DWORD PTR _this$[ebp], ecx

; 1179 : 	return -1;

	or	eax, -1

; 1180 : }

	pop	edi
	pop	esi
	pop	ebx
	mov	esp, ebp
	pop	ebp
	ret	0
?SecondaryAmmoIndex@CBasePlayerWeapon@@UAEHXZ ENDP	; CBasePlayerWeapon::SecondaryAmmoIndex
_TEXT	ENDS
; Function compile flags: /Odtp /ZI
; File d:\!diffusion 2020\source code 2022\client-server\server\weapons\weapons.cpp
;	COMDAT ?PrimaryAmmoIndex@CBasePlayerWeapon@@UAEHXZ
_TEXT	SEGMENT
_this$ = -4						; size = 4
?PrimaryAmmoIndex@CBasePlayerWeapon@@UAEHXZ PROC	; CBasePlayerWeapon::PrimaryAmmoIndex, COMDAT
; _this$ = ecx

; 1171 : {

	push	ebp
	mov	ebp, esp
	sub	esp, 68					; 00000044H
	push	ebx
	push	esi
	push	edi
	mov	DWORD PTR _this$[ebp], ecx

; 1172 : 	return m_iPrimaryAmmoType;

	mov	eax, DWORD PTR _this$[ebp]
	mov	eax, DWORD PTR [eax+1896]

; 1173 : }

	pop	edi
	pop	esi
	pop	ebx
	mov	esp, ebp
	pop	ebp
	ret	0
?PrimaryAmmoIndex@CBasePlayerWeapon@@UAEHXZ ENDP	; CBasePlayerWeapon::PrimaryAmmoIndex
_TEXT	ENDS
; Function compile flags: /Odtp /ZI
; File d:\!diffusion 2020\source code 2022\client-server\server\weapons\weapons.cpp
;	COMDAT ?LowAmmoMsg@CBasePlayerWeapon@@UAEXPAVCBasePlayer@@@Z
_TEXT	SEGMENT
_this$ = -4						; size = 4
_pPlayer$ = 8						; size = 4
?LowAmmoMsg@CBasePlayerWeapon@@UAEXPAVCBasePlayer@@@Z PROC ; CBasePlayerWeapon::LowAmmoMsg, COMDAT
; _this$ = ecx

; 1160 : {

	push	ebp
	mov	ebp, esp
	sub	esp, 68					; 00000044H
	push	ebx
	push	esi
	push	edi
	mov	DWORD PTR _this$[ebp], ecx

; 1161 : 	if( gpGlobals->time > pPlayer->HUDtextTime + HUD_TEXT_DELAY )

	mov	eax, DWORD PTR _pPlayer$[ebp]
	movss	xmm0, DWORD PTR [eax+4772]
	addss	xmm0, DWORD PTR __real@3ecccccd
	mov	ecx, DWORD PTR ?gpGlobals@@3PAUglobalvars_t@@A ; gpGlobals
	movss	xmm1, DWORD PTR [ecx]
	comiss	xmm1, xmm0
	jbe	SHORT $LN2@LowAmmoMsg

; 1162 : 	{
; 1163 : 		UTIL_ShowMessage( "UTIL_LOWAMMO", pPlayer );

	mov	eax, DWORD PTR _pPlayer$[ebp]
	push	eax
	push	OFFSET ??_C@_0N@IBIPEELC@UTIL_LOWAMMO?$AA@
	call	?UTIL_ShowMessage@@YAXPBDPAVCBaseEntity@@@Z ; UTIL_ShowMessage
	add	esp, 8

; 1164 : 		pPlayer->HUDtextTime = gpGlobals->time; // should be set only once

	mov	eax, DWORD PTR _pPlayer$[ebp]
	mov	ecx, DWORD PTR ?gpGlobals@@3PAUglobalvars_t@@A ; gpGlobals
	mov	edx, DWORD PTR [ecx]
	mov	DWORD PTR [eax+4772], edx
$LN2@LowAmmoMsg:

; 1165 : 	}
; 1166 : }

	pop	edi
	pop	esi
	pop	ebx
	mov	esp, ebp
	pop	ebp
	ret	4
?LowAmmoMsg@CBasePlayerWeapon@@UAEXPAVCBasePlayer@@@Z ENDP ; CBasePlayerWeapon::LowAmmoMsg
_TEXT	ENDS
; Function compile flags: /Odtp /ZI
; File d:\!diffusion 2020\source code 2022\client-server\server\weapons\weapons.cpp
;	COMDAT ?Holster@CBasePlayerWeapon@@UAEXXZ
_TEXT	SEGMENT
_this$ = -4						; size = 4
?Holster@CBasePlayerWeapon@@UAEXXZ PROC			; CBasePlayerWeapon::Holster, COMDAT
; _this$ = ecx

; 1183 : { 

	push	ebp
	mov	ebp, esp
	sub	esp, 68					; 00000044H
	push	ebx
	push	esi
	push	edi
	mov	DWORD PTR _this$[ebp], ecx

; 1184 : 	m_fInReload = FALSE; // cancel any reload in progress.

	mov	eax, DWORD PTR _this$[ebp]
	mov	DWORD PTR [eax+1916], 0

; 1185 : 	m_pPlayer->pev->viewmodel = 0; 

	mov	eax, DWORD PTR _this$[ebp]
	mov	ecx, DWORD PTR [eax+1856]
	mov	edx, DWORD PTR [ecx+4]
	mov	DWORD PTR [edx+188], 0

; 1186 : 	m_pPlayer->pev->weaponmodel = 0;

	mov	eax, DWORD PTR _this$[ebp]
	mov	ecx, DWORD PTR [eax+1856]
	mov	edx, DWORD PTR [ecx+4]
	mov	DWORD PTR [edx+192], 0

; 1187 : }

	pop	edi
	pop	esi
	pop	ebx
	mov	esp, ebp
	pop	ebp
	ret	0
?Holster@CBasePlayerWeapon@@UAEXXZ ENDP			; CBasePlayerWeapon::Holster
_TEXT	ENDS
; Function compile flags: /Odtp /ZI
; File d:\!diffusion 2020\source code 2022\client-server\server\weapons\weapons.cpp
;	COMDAT ?RetireWeapon@CBasePlayerWeapon@@UAEXXZ
_TEXT	SEGMENT
_this$ = -4						; size = 4
?RetireWeapon@CBasePlayerWeapon@@UAEXXZ PROC		; CBasePlayerWeapon::RetireWeapon, COMDAT
; _this$ = ecx

; 1301 : {

	push	ebp
	mov	ebp, esp
	sub	esp, 68					; 00000044H
	push	ebx
	push	esi
	push	edi
	mov	DWORD PTR _this$[ebp], ecx

; 1302 : 	// first, no viewmodel at all.
; 1303 : 	m_pPlayer->pev->viewmodel = iStringNull;

	mov	eax, DWORD PTR _this$[ebp]
	mov	ecx, DWORD PTR [eax+1856]
	mov	edx, DWORD PTR [ecx+4]
	mov	DWORD PTR [edx+188], 0

; 1304 : 	m_pPlayer->pev->weaponmodel = iStringNull;

	mov	eax, DWORD PTR _this$[ebp]
	mov	ecx, DWORD PTR [eax+1856]
	mov	edx, DWORD PTR [ecx+4]
	mov	DWORD PTR [edx+192], 0

; 1305 : 	//m_pPlayer->pev->viewmodelindex = NULL;
; 1306 : 
; 1307 : 	g_pGameRules->GetNextBestWeapon( m_pPlayer, this );

	mov	eax, DWORD PTR _this$[ebp]
	push	eax
	mov	ecx, DWORD PTR _this$[ebp]
	mov	edx, DWORD PTR [ecx+1856]
	push	edx
	mov	eax, DWORD PTR ?g_pGameRules@@3PAVCGameRules@@A ; g_pGameRules
	mov	edx, DWORD PTR [eax]
	mov	ecx, DWORD PTR ?g_pGameRules@@3PAVCGameRules@@A ; g_pGameRules
	mov	eax, DWORD PTR [edx+20]
	call	eax

; 1308 : }

	pop	edi
	pop	esi
	pop	ebx
	mov	esp, ebp
	pop	ebp
	ret	0
?RetireWeapon@CBasePlayerWeapon@@UAEXXZ ENDP		; CBasePlayerWeapon::RetireWeapon
_TEXT	ENDS
; Function compile flags: /Odtp /ZI
; File d:\!diffusion 2020\source code 2022\client-server\server\weapons\weapons.cpp
;	COMDAT ?UpdateClientData@CBasePlayerWeapon@@UAEHPAVCBasePlayer@@@Z
_TEXT	SEGMENT
_i$1 = -20						; size = 4
_plr$2 = -16						; size = 4
_state$ = -12						; size = 4
_bSend$ = -8						; size = 4
_this$ = -4						; size = 4
_pPlayer$ = 8						; size = 4
?UpdateClientData@CBasePlayerWeapon@@UAEHPAVCBasePlayer@@@Z PROC ; CBasePlayerWeapon::UpdateClientData, COMDAT
; _this$ = ecx

; 910  : {

	push	ebp
	mov	ebp, esp
	sub	esp, 84					; 00000054H
	push	ebx
	push	esi
	push	edi
	mov	DWORD PTR _this$[ebp], ecx

; 911  : 	BOOL bSend = FALSE;

	mov	DWORD PTR _bSend$[ebp], 0

; 912  : 	int state = 0;

	mov	DWORD PTR _state$[ebp], 0

; 913  : 	if ( pPlayer->m_pActiveItem == this )

	mov	eax, DWORD PTR _pPlayer$[ebp]
	mov	ecx, DWORD PTR [eax+3100]
	cmp	ecx, DWORD PTR _this$[ebp]
	jne	SHORT $LN7@UpdateClie

; 914  : 	{
; 915  : 		if ( pPlayer->m_fOnTarget )

	mov	eax, DWORD PTR _pPlayer$[ebp]
	cmp	DWORD PTR [eax+3896], 0
	je	SHORT $LN6@UpdateClie

; 916  : 			state = WEAPON_IS_ONTARGET;

	mov	DWORD PTR _state$[ebp], 64		; 00000040H

; 917  : 		else

	jmp	SHORT $LN7@UpdateClie
$LN6@UpdateClie:

; 918  : 			state = 1;

	mov	DWORD PTR _state$[ebp], 1
$LN7@UpdateClie:

; 919  : 	}
; 920  : 
; 921  : 	// Forcing send of all data!
; 922  : 	if ( !pPlayer->m_fWeapon )

	mov	eax, DWORD PTR _pPlayer$[ebp]
	cmp	DWORD PTR [eax+2964], 0
	jne	SHORT $LN8@UpdateClie

; 923  : 		bSend = TRUE;

	mov	DWORD PTR _bSend$[ebp], 1
$LN8@UpdateClie:

; 924  : 	
; 925  : 	// This is the current or last weapon, so the state will need to be updated
; 926  : 	if ( this == pPlayer->m_pActiveItem ||

	mov	eax, DWORD PTR _pPlayer$[ebp]
	mov	ecx, DWORD PTR _this$[ebp]
	cmp	ecx, DWORD PTR [eax+3100]
	je	SHORT $LN10@UpdateClie
	mov	eax, DWORD PTR _pPlayer$[ebp]
	mov	ecx, DWORD PTR _this$[ebp]
	cmp	ecx, DWORD PTR [eax+3104]
	jne	SHORT $LN11@UpdateClie
$LN10@UpdateClie:

; 927  : 		 this == pPlayer->m_pClientActiveItem )
; 928  : 	{
; 929  : 		if ( pPlayer->m_pActiveItem != pPlayer->m_pClientActiveItem )

	mov	eax, DWORD PTR _pPlayer$[ebp]
	mov	ecx, DWORD PTR _pPlayer$[ebp]
	mov	edx, DWORD PTR [eax+3100]
	cmp	edx, DWORD PTR [ecx+3104]
	je	SHORT $LN11@UpdateClie

; 930  : 			bSend = TRUE;

	mov	DWORD PTR _bSend$[ebp], 1
$LN11@UpdateClie:

; 931  : 	}
; 932  : 
; 933  : 	// If the ammo, state, or fov has changed, update the weapon
; 934  : 	if ( m_iClip != m_iClientClip || 
; 935  : 		 state != m_iClientWeaponState || 

	mov	eax, DWORD PTR _this$[ebp]
	mov	ecx, DWORD PTR _this$[ebp]
	mov	edx, DWORD PTR [eax+1904]
	cmp	edx, DWORD PTR [ecx+1908]
	jne	SHORT $LN13@UpdateClie
	mov	eax, DWORD PTR _this$[ebp]
	mov	ecx, DWORD PTR _state$[ebp]
	cmp	ecx, DWORD PTR [eax+1912]
	jne	SHORT $LN13@UpdateClie
	mov	eax, DWORD PTR _pPlayer$[ebp]
	cvttss2si ecx, DWORD PTR [eax+3056]
	mov	edx, DWORD PTR _pPlayer$[ebp]
	cmp	ecx, DWORD PTR [edx+3060]
	je	SHORT $LN12@UpdateClie
$LN13@UpdateClie:

; 936  : 		 (int)pPlayer->m_flFOV != pPlayer->m_iClientFOV )
; 937  : 	{
; 938  : 		bSend = TRUE;

	mov	DWORD PTR _bSend$[ebp], 1
$LN12@UpdateClie:

; 939  : 	}
; 940  : 
; 941  : 	if ( bSend )

	cmp	DWORD PTR _bSend$[ebp], 0
	je	$LN14@UpdateClie

; 942  : 	{
; 943  : 		// Send this player's current weapon to all his spectators
; 944  : 		CBasePlayer* plr;
; 945  : 		for (int i = 1; i <= gpGlobals->maxClients; i++)

	mov	DWORD PTR _i$1[ebp], 1
	jmp	SHORT $LN4@UpdateClie
$LN2@UpdateClie:
	mov	eax, DWORD PTR _i$1[ebp]
	add	eax, 1
	mov	DWORD PTR _i$1[ebp], eax
$LN4@UpdateClie:
	mov	eax, DWORD PTR ?gpGlobals@@3PAUglobalvars_t@@A ; gpGlobals
	mov	ecx, DWORD PTR _i$1[ebp]
	cmp	ecx, DWORD PTR [eax+144]
	jg	$LN3@UpdateClie

; 946  : 		{
; 947  : 			plr = (CBasePlayer*)UTIL_PlayerByIndex(i);

	mov	eax, DWORD PTR _i$1[ebp]
	push	eax
	call	?UTIL_PlayerByIndex@@YAPAVCBaseEntity@@H@Z ; UTIL_PlayerByIndex
	add	esp, 4
	mov	DWORD PTR _plr$2[ebp], eax

; 948  : 			if (!plr || !plr->IsObserver() || plr->m_hObserverTarget != pPlayer)

	cmp	DWORD PTR _plr$2[ebp], 0
	je	SHORT $LN16@UpdateClie
	mov	ecx, DWORD PTR _plr$2[ebp]
	call	?IsObserver@CBasePlayer@@QAEHXZ		; CBasePlayer::IsObserver
	test	eax, eax
	je	SHORT $LN16@UpdateClie
	mov	ecx, DWORD PTR _plr$2[ebp]
	add	ecx, 3984				; 00000f90H
	call	??BEHANDLE@@QAEPAVCBaseEntity@@XZ	; EHANDLE::operator CBaseEntity *
	cmp	eax, DWORD PTR _pPlayer$[ebp]
	je	SHORT $LN15@UpdateClie
$LN16@UpdateClie:

; 949  : 				continue;

	jmp	SHORT $LN2@UpdateClie
$LN15@UpdateClie:

; 950  : 
; 951  : 			MESSAGE_BEGIN(MSG_ONE, gmsgCurWeapon, NULL, plr->pev);

	mov	eax, DWORD PTR _plr$2[ebp]
	mov	ecx, DWORD PTR [eax+4]
	push	ecx
	push	0
	mov	edx, DWORD PTR ?gmsgCurWeapon@@3HA	; gmsgCurWeapon
	push	edx
	push	1
	call	?MESSAGE_BEGIN@@YAXHHPBMPAUentvars_s@@@Z ; MESSAGE_BEGIN
	add	esp, 16					; 00000010H

; 952  : 			WRITE_BYTE(state);

	mov	eax, DWORD PTR _state$[ebp]
	push	eax
	call	DWORD PTR ?g_engfuncs@@3Uenginefuncs_s@@A+192
	add	esp, 4

; 953  : 			WRITE_BYTE(m_iId);

	mov	eax, DWORD PTR _this$[ebp]
	mov	ecx, DWORD PTR [eax+1864]
	push	ecx
	call	DWORD PTR ?g_engfuncs@@3Uenginefuncs_s@@A+192
	add	esp, 4

; 954  : 			WRITE_BYTE(m_iClip);

	mov	eax, DWORD PTR _this$[ebp]
	mov	ecx, DWORD PTR [eax+1904]
	push	ecx
	call	DWORD PTR ?g_engfuncs@@3Uenginefuncs_s@@A+192
	add	esp, 4

; 955  : 			MESSAGE_END();

	call	DWORD PTR ?g_engfuncs@@3Uenginefuncs_s@@A+188

; 956  : 		}

	jmp	$LN2@UpdateClie
$LN3@UpdateClie:

; 957  : 		
; 958  : 		MESSAGE_BEGIN( MSG_ONE, gmsgCurWeapon, NULL, pPlayer->pev );

	mov	eax, DWORD PTR _pPlayer$[ebp]
	mov	ecx, DWORD PTR [eax+4]
	push	ecx
	push	0
	mov	edx, DWORD PTR ?gmsgCurWeapon@@3HA	; gmsgCurWeapon
	push	edx
	push	1
	call	?MESSAGE_BEGIN@@YAXHHPBMPAUentvars_s@@@Z ; MESSAGE_BEGIN
	add	esp, 16					; 00000010H

; 959  : 			WRITE_BYTE( state );

	mov	eax, DWORD PTR _state$[ebp]
	push	eax
	call	DWORD PTR ?g_engfuncs@@3Uenginefuncs_s@@A+192
	add	esp, 4

; 960  : 			WRITE_BYTE( m_iId );

	mov	eax, DWORD PTR _this$[ebp]
	mov	ecx, DWORD PTR [eax+1864]
	push	ecx
	call	DWORD PTR ?g_engfuncs@@3Uenginefuncs_s@@A+192
	add	esp, 4

; 961  : 			WRITE_BYTE( m_iClip );

	mov	eax, DWORD PTR _this$[ebp]
	mov	ecx, DWORD PTR [eax+1904]
	push	ecx
	call	DWORD PTR ?g_engfuncs@@3Uenginefuncs_s@@A+192
	add	esp, 4

; 962  : 		MESSAGE_END();

	call	DWORD PTR ?g_engfuncs@@3Uenginefuncs_s@@A+188

; 963  : 
; 964  : 		m_iClientClip = m_iClip;

	mov	eax, DWORD PTR _this$[ebp]
	mov	ecx, DWORD PTR _this$[ebp]
	mov	edx, DWORD PTR [ecx+1904]
	mov	DWORD PTR [eax+1908], edx

; 965  : 		m_iClientWeaponState = state;

	mov	eax, DWORD PTR _this$[ebp]
	mov	ecx, DWORD PTR _state$[ebp]
	mov	DWORD PTR [eax+1912], ecx

; 966  : 		pPlayer->m_fWeapon = TRUE;

	mov	eax, DWORD PTR _pPlayer$[ebp]
	mov	DWORD PTR [eax+2964], 1
$LN14@UpdateClie:

; 967  : 	}
; 968  : 
; 969  : 	if ( m_pNext )

	mov	eax, DWORD PTR _this$[ebp]
	cmp	DWORD PTR [eax+1860], 0
	je	SHORT $LN17@UpdateClie

; 970  : 		m_pNext->UpdateClientData( pPlayer );

	mov	eax, DWORD PTR _pPlayer$[ebp]
	push	eax
	mov	ecx, DWORD PTR _this$[ebp]
	mov	edx, DWORD PTR [ecx+1860]
	mov	eax, DWORD PTR _this$[ebp]
	mov	edx, DWORD PTR [edx]
	mov	ecx, DWORD PTR [eax+1860]
	mov	eax, DWORD PTR [edx+440]
	call	eax
$LN17@UpdateClie:

; 971  : 
; 972  : 	return 1;

	mov	eax, 1

; 973  : }

	pop	edi
	pop	esi
	pop	ebx
	mov	esp, ebp
	pop	ebp
	ret	4
?UpdateClientData@CBasePlayerWeapon@@UAEHPAVCBasePlayer@@@Z ENDP ; CBasePlayerWeapon::UpdateClientData
_TEXT	ENDS
; Function compile flags: /Odtp /ZI
; File d:\!diffusion 2020\source code 2022\client-server\server\weapons\weapons.cpp
;	COMDAT ?ItemPostFrame@CBasePlayerWeapon@@UAEXXZ
_TEXT	SEGMENT
tv441 = -80						; size = 8
tv419 = -80						; size = 8
tv385 = -80						; size = 8
tv147 = -76						; size = 4
_j$1 = -8						; size = 4
_this$ = -4						; size = 4
?ItemPostFrame@CBasePlayerWeapon@@UAEXXZ PROC		; CBasePlayerWeapon::ItemPostFrame, COMDAT
; _this$ = ecx

; 745  : {

	push	ebp
	mov	ebp, esp
	sub	esp, 80					; 00000050H
	push	ebx
	push	esi
	push	edi
	mov	DWORD PTR _this$[ebp], ecx

; 746  : 	if ((m_fInReload) && ( m_pPlayer->m_flNextAttack <= gpGlobals->time ))

	mov	eax, DWORD PTR _this$[ebp]
	cmp	DWORD PTR [eax+1916], 0
	je	$LN2@ItemPostFr
	mov	eax, DWORD PTR _this$[ebp]
	mov	ecx, DWORD PTR [eax+1856]
	mov	edx, DWORD PTR ?gpGlobals@@3PAUglobalvars_t@@A ; gpGlobals
	movss	xmm0, DWORD PTR [edx]
	comiss	xmm0, DWORD PTR [ecx+2348]
	jb	$LN2@ItemPostFr

; 747  : 	{
; 748  : 		// complete the reload. 
; 749  : 		int j = Q_min( iMaxClip() - m_iClip, m_pPlayer->m_rgAmmo[m_iPrimaryAmmoType]);	

	mov	ecx, DWORD PTR _this$[ebp]
	call	?iMaxClip@CBasePlayerItem@@QAEHXZ	; CBasePlayerItem::iMaxClip
	mov	ecx, DWORD PTR _this$[ebp]
	sub	eax, DWORD PTR [ecx+1904]
	mov	edx, DWORD PTR _this$[ebp]
	mov	ecx, DWORD PTR [edx+1856]
	mov	edx, DWORD PTR _this$[ebp]
	mov	edx, DWORD PTR [edx+1896]
	cmp	eax, DWORD PTR [ecx+edx*4+3628]
	jge	SHORT $LN22@ItemPostFr
	mov	ecx, DWORD PTR _this$[ebp]
	call	?iMaxClip@CBasePlayerItem@@QAEHXZ	; CBasePlayerItem::iMaxClip
	mov	ecx, DWORD PTR _this$[ebp]
	sub	eax, DWORD PTR [ecx+1904]
	mov	DWORD PTR tv147[ebp], eax
	jmp	SHORT $LN23@ItemPostFr
$LN22@ItemPostFr:
	mov	edx, DWORD PTR _this$[ebp]
	mov	eax, DWORD PTR [edx+1856]
	mov	ecx, DWORD PTR _this$[ebp]
	mov	edx, DWORD PTR [ecx+1896]
	mov	eax, DWORD PTR [eax+edx*4+3628]
	mov	DWORD PTR tv147[ebp], eax
$LN23@ItemPostFr:
	mov	ecx, DWORD PTR tv147[ebp]
	mov	DWORD PTR _j$1[ebp], ecx

; 750  : 
; 751  : 		// Add them to the clip
; 752  : 		m_iClip += j;

	mov	eax, DWORD PTR _this$[ebp]
	mov	ecx, DWORD PTR [eax+1904]
	add	ecx, DWORD PTR _j$1[ebp]
	mov	edx, DWORD PTR _this$[ebp]
	mov	DWORD PTR [edx+1904], ecx

; 753  : 		m_pPlayer->m_rgAmmo[m_iPrimaryAmmoType] -= j;

	mov	eax, DWORD PTR _this$[ebp]
	mov	ecx, DWORD PTR [eax+1856]
	mov	edx, DWORD PTR _this$[ebp]
	mov	eax, DWORD PTR [edx+1896]
	mov	ecx, DWORD PTR [ecx+eax*4+3628]
	sub	ecx, DWORD PTR _j$1[ebp]
	mov	edx, DWORD PTR _this$[ebp]
	mov	eax, DWORD PTR [edx+1896]
	mov	edx, DWORD PTR _this$[ebp]
	mov	edx, DWORD PTR [edx+1856]
	mov	DWORD PTR [edx+eax*4+3628], ecx

; 754  : 
; 755  : 		m_fInReload = FALSE;

	mov	eax, DWORD PTR _this$[ebp]
	mov	DWORD PTR [eax+1916], 0
$LN2@ItemPostFr:

; 756  : 	}
; 757  : 	
; 758  : 	if ((m_pPlayer->pev->button & IN_ATTACK2) && CanAttack( m_flNextSecondaryAttack, gpGlobals->time, UseDecrement() ))

	mov	eax, DWORD PTR _this$[ebp]
	mov	ecx, DWORD PTR [eax+1856]
	mov	edx, DWORD PTR [ecx+4]
	mov	eax, DWORD PTR [edx+384]
	and	eax, 2048				; 00000800H
	je	$LN3@ItemPostFr
	mov	eax, DWORD PTR _this$[ebp]
	mov	edx, DWORD PTR [eax]
	mov	ecx, DWORD PTR _this$[ebp]
	mov	eax, DWORD PTR [edx+504]
	call	eax
	push	eax
	mov	ecx, DWORD PTR ?gpGlobals@@3PAUglobalvars_t@@A ; gpGlobals
	push	ecx
	movss	xmm0, DWORD PTR [ecx]
	movss	DWORD PTR [esp], xmm0
	mov	edx, DWORD PTR _this$[ebp]
	push	ecx
	movss	xmm0, DWORD PTR [edx+1888]
	movss	DWORD PTR [esp], xmm0
	call	?CanAttack@@YAHMMH@Z			; CanAttack
	add	esp, 12					; 0000000cH
	test	eax, eax
	je	$LN3@ItemPostFr

; 759  : 	{
; 760  : 		
; 761  : 		if ( pszAmmo2() && !m_pPlayer->m_rgAmmo[SecondaryAmmoIndex()] )

	mov	ecx, DWORD PTR _this$[ebp]
	call	?pszAmmo2@CBasePlayerItem@@QAEPBDXZ	; CBasePlayerItem::pszAmmo2
	test	eax, eax
	je	SHORT $LN5@ItemPostFr
	mov	eax, DWORD PTR _this$[ebp]
	mov	esi, DWORD PTR [eax+1856]
	mov	ecx, DWORD PTR _this$[ebp]
	mov	edx, DWORD PTR [ecx]
	mov	ecx, DWORD PTR _this$[ebp]
	mov	eax, DWORD PTR [edx+436]
	call	eax
	cmp	DWORD PTR [esi+eax*4+3628], 0
	jne	SHORT $LN5@ItemPostFr

; 762  : 			m_fFireOnEmpty = TRUE;

	mov	eax, DWORD PTR _this$[ebp]
	mov	DWORD PTR [eax+1872], 1
$LN5@ItemPostFr:

; 763  : 
; 764  : 		if( m_pPlayer->CanShoot )

	mov	eax, DWORD PTR _this$[ebp]
	mov	ecx, DWORD PTR [eax+1856]
	movzx	edx, BYTE PTR [ecx+4478]
	test	edx, edx
	je	SHORT $LN6@ItemPostFr

; 765  : 			SecondaryAttack();

	mov	eax, DWORD PTR _this$[ebp]
	mov	edx, DWORD PTR [eax]
	mov	ecx, DWORD PTR _this$[ebp]
	mov	eax, DWORD PTR [edx+484]
	call	eax
$LN6@ItemPostFr:

; 766  : 		m_pPlayer->pev->button &= ~IN_ATTACK2;

	mov	eax, DWORD PTR _this$[ebp]
	mov	ecx, DWORD PTR [eax+1856]
	mov	edx, DWORD PTR [ecx+4]
	mov	eax, DWORD PTR [edx+384]
	and	eax, -2049				; fffff7ffH
	mov	ecx, DWORD PTR _this$[ebp]
	mov	edx, DWORD PTR [ecx+1856]
	mov	ecx, DWORD PTR [edx+4]
	mov	DWORD PTR [ecx+384], eax
	jmp	$LN15@ItemPostFr
$LN3@ItemPostFr:

; 767  : 		
; 768  : 	}
; 769  : 	else if ((m_pPlayer->pev->button & IN_ATTACK) && CanAttack( m_flNextPrimaryAttack, gpGlobals->time, UseDecrement() ) )

	mov	eax, DWORD PTR _this$[ebp]
	mov	ecx, DWORD PTR [eax+1856]
	mov	edx, DWORD PTR [ecx+4]
	mov	eax, DWORD PTR [edx+384]
	and	eax, 1
	je	$LN7@ItemPostFr
	mov	eax, DWORD PTR _this$[ebp]
	mov	edx, DWORD PTR [eax]
	mov	ecx, DWORD PTR _this$[ebp]
	mov	eax, DWORD PTR [edx+504]
	call	eax
	push	eax
	mov	ecx, DWORD PTR ?gpGlobals@@3PAUglobalvars_t@@A ; gpGlobals
	push	ecx
	movss	xmm0, DWORD PTR [ecx]
	movss	DWORD PTR [esp], xmm0
	mov	edx, DWORD PTR _this$[ebp]
	push	ecx
	movss	xmm0, DWORD PTR [edx+1884]
	movss	DWORD PTR [esp], xmm0
	call	?CanAttack@@YAHMMH@Z			; CanAttack
	add	esp, 12					; 0000000cH
	test	eax, eax
	je	$LN7@ItemPostFr

; 770  : 	{
; 771  : 		if ( (m_iClip == 0 && pszAmmo1()) || (iMaxClip() == -1 && !m_pPlayer->m_rgAmmo[PrimaryAmmoIndex()] ) )

	mov	eax, DWORD PTR _this$[ebp]
	cmp	DWORD PTR [eax+1904], 0
	jne	SHORT $LN11@ItemPostFr
	mov	ecx, DWORD PTR _this$[ebp]
	call	?pszAmmo1@CBasePlayerItem@@QAEPBDXZ	; CBasePlayerItem::pszAmmo1
	test	eax, eax
	jne	SHORT $LN10@ItemPostFr
$LN11@ItemPostFr:
	mov	ecx, DWORD PTR _this$[ebp]
	call	?iMaxClip@CBasePlayerItem@@QAEHXZ	; CBasePlayerItem::iMaxClip
	cmp	eax, -1
	jne	SHORT $LN9@ItemPostFr
	mov	eax, DWORD PTR _this$[ebp]
	mov	esi, DWORD PTR [eax+1856]
	mov	ecx, DWORD PTR _this$[ebp]
	mov	edx, DWORD PTR [ecx]
	mov	ecx, DWORD PTR _this$[ebp]
	mov	eax, DWORD PTR [edx+432]
	call	eax
	cmp	DWORD PTR [esi+eax*4+3628], 0
	jne	SHORT $LN9@ItemPostFr
$LN10@ItemPostFr:

; 772  : 			m_fFireOnEmpty = TRUE;

	mov	eax, DWORD PTR _this$[ebp]
	mov	DWORD PTR [eax+1872], 1
$LN9@ItemPostFr:

; 773  : 		
; 774  : 		if( m_pPlayer->CanShoot )

	mov	eax, DWORD PTR _this$[ebp]
	mov	ecx, DWORD PTR [eax+1856]
	movzx	edx, BYTE PTR [ecx+4478]
	test	edx, edx
	je	SHORT $LN12@ItemPostFr

; 775  : 			PrimaryAttack();

	mov	eax, DWORD PTR _this$[ebp]
	mov	edx, DWORD PTR [eax]
	mov	ecx, DWORD PTR _this$[ebp]
	mov	eax, DWORD PTR [edx+480]
	call	eax
$LN12@ItemPostFr:

; 776  : 		m_pPlayer->pev->button &= ~IN_ATTACK;

	mov	eax, DWORD PTR _this$[ebp]
	mov	ecx, DWORD PTR [eax+1856]
	mov	edx, DWORD PTR [ecx+4]
	mov	eax, DWORD PTR [edx+384]
	and	eax, -2					; fffffffeH
	mov	ecx, DWORD PTR _this$[ebp]
	mov	edx, DWORD PTR [ecx+1856]
	mov	ecx, DWORD PTR [edx+4]
	mov	DWORD PTR [ecx+384], eax
	jmp	$LN15@ItemPostFr
$LN7@ItemPostFr:

; 777  : 	}
; 778  : 	else if ( m_pPlayer->pev->button & IN_RELOAD && iMaxClip() != WEAPON_NOCLIP && !m_fInReload ) 

	mov	eax, DWORD PTR _this$[ebp]
	mov	ecx, DWORD PTR [eax+1856]
	mov	edx, DWORD PTR [ecx+4]
	mov	eax, DWORD PTR [edx+384]
	and	eax, 8192				; 00002000H
	je	SHORT $LN13@ItemPostFr
	mov	ecx, DWORD PTR _this$[ebp]
	call	?iMaxClip@CBasePlayerItem@@QAEHXZ	; CBasePlayerItem::iMaxClip
	cmp	eax, -1
	je	SHORT $LN13@ItemPostFr
	mov	eax, DWORD PTR _this$[ebp]
	cmp	DWORD PTR [eax+1916], 0
	jne	SHORT $LN13@ItemPostFr

; 779  : 	{
; 780  : 		// reload when reload is pressed, or if no buttons are down and weapon is empty.
; 781  : 		Reload();

	mov	eax, DWORD PTR _this$[ebp]
	mov	edx, DWORD PTR [eax]
	mov	ecx, DWORD PTR _this$[ebp]
	mov	eax, DWORD PTR [edx+488]
	call	eax
	jmp	$LN15@ItemPostFr
$LN13@ItemPostFr:

; 782  : 	}
; 783  : 	else if ( !(m_pPlayer->pev->button & (IN_ATTACK|IN_ATTACK2) ) )

	mov	eax, DWORD PTR _this$[ebp]
	mov	ecx, DWORD PTR [eax+1856]
	mov	edx, DWORD PTR [ecx+4]
	mov	eax, DWORD PTR [edx+384]
	and	eax, 2049				; 00000801H
	jne	$LN15@ItemPostFr

; 784  : 	{
; 785  : 		// no fire buttons down
; 786  : 
; 787  : 		m_fFireOnEmpty = FALSE;

	mov	eax, DWORD PTR _this$[ebp]
	mov	DWORD PTR [eax+1872], 0

; 788  : 
; 789  : 		if ( !IsUseable() && m_flNextPrimaryAttack < ( UseDecrement() ? 0.0 : gpGlobals->time ) ) 

	mov	eax, DWORD PTR _this$[ebp]
	mov	edx, DWORD PTR [eax]
	mov	ecx, DWORD PTR _this$[ebp]
	mov	eax, DWORD PTR [edx+476]
	call	eax
	test	eax, eax
	jne	$LN16@ItemPostFr
	mov	eax, DWORD PTR _this$[ebp]
	mov	edx, DWORD PTR [eax]
	mov	ecx, DWORD PTR _this$[ebp]
	mov	eax, DWORD PTR [edx+504]
	call	eax
	test	eax, eax
	je	SHORT $LN24@ItemPostFr
	xorps	xmm0, xmm0
	movsd	QWORD PTR tv385[ebp], xmm0
	jmp	SHORT $LN25@ItemPostFr
$LN24@ItemPostFr:
	mov	ecx, DWORD PTR ?gpGlobals@@3PAUglobalvars_t@@A ; gpGlobals
	cvtss2sd xmm0, DWORD PTR [ecx]
	movsd	QWORD PTR tv385[ebp], xmm0
$LN25@ItemPostFr:
	mov	edx, DWORD PTR _this$[ebp]
	cvtss2sd xmm0, DWORD PTR [edx+1884]
	movsd	xmm1, QWORD PTR tv385[ebp]
	comisd	xmm1, xmm0
	jbe	$LN16@ItemPostFr

; 790  : 		{
; 791  : 			// weapon isn't useable, switch.
; 792  : 			if ( !(iFlags() & ITEM_FLAG_NOAUTOSWITCHEMPTY) && g_pGameRules->GetNextBestWeapon( m_pPlayer, this ) )

	mov	ecx, DWORD PTR _this$[ebp]
	call	?iFlags@CBasePlayerItem@@QAEHXZ		; CBasePlayerItem::iFlags
	and	eax, 4
	jne	SHORT $LN18@ItemPostFr
	mov	eax, DWORD PTR _this$[ebp]
	push	eax
	mov	ecx, DWORD PTR _this$[ebp]
	mov	edx, DWORD PTR [ecx+1856]
	push	edx
	mov	eax, DWORD PTR ?g_pGameRules@@3PAVCGameRules@@A ; g_pGameRules
	mov	edx, DWORD PTR [eax]
	mov	ecx, DWORD PTR ?g_pGameRules@@3PAVCGameRules@@A ; g_pGameRules
	mov	eax, DWORD PTR [edx+20]
	call	eax
	test	eax, eax
	je	SHORT $LN18@ItemPostFr

; 793  : 			{
; 794  : 				m_flNextPrimaryAttack = ( UseDecrement() ? 0.0 : gpGlobals->time ) + 0.3;

	mov	eax, DWORD PTR _this$[ebp]
	mov	edx, DWORD PTR [eax]
	mov	ecx, DWORD PTR _this$[ebp]
	mov	eax, DWORD PTR [edx+504]
	call	eax
	test	eax, eax
	je	SHORT $LN26@ItemPostFr
	xorps	xmm0, xmm0
	movsd	QWORD PTR tv419[ebp], xmm0
	jmp	SHORT $LN27@ItemPostFr
$LN26@ItemPostFr:
	mov	ecx, DWORD PTR ?gpGlobals@@3PAUglobalvars_t@@A ; gpGlobals
	cvtss2sd xmm0, DWORD PTR [ecx]
	movsd	QWORD PTR tv419[ebp], xmm0
$LN27@ItemPostFr:
	movsd	xmm0, QWORD PTR tv419[ebp]
	addsd	xmm0, QWORD PTR __real@3fd3333333333333
	cvtsd2ss xmm0, xmm0
	mov	edx, DWORD PTR _this$[ebp]
	movss	DWORD PTR [edx+1884], xmm0

; 795  : 				return;

	jmp	$LN1@ItemPostFr
$LN18@ItemPostFr:

; 796  : 			}
; 797  : 		}
; 798  : 		else

	jmp	SHORT $LN19@ItemPostFr
$LN16@ItemPostFr:

; 799  : 		{
; 800  : 			// weapon is useable. Reload if empty and weapon has waited as long as it has to after firing
; 801  : 			if ( m_iClip == 0 && !(iFlags() & ITEM_FLAG_NOAUTORELOAD) && m_flNextPrimaryAttack < ( UseDecrement() ? 0.0 : gpGlobals->time ) )

	mov	eax, DWORD PTR _this$[ebp]
	cmp	DWORD PTR [eax+1904], 0
	jne	SHORT $LN19@ItemPostFr
	mov	ecx, DWORD PTR _this$[ebp]
	call	?iFlags@CBasePlayerItem@@QAEHXZ		; CBasePlayerItem::iFlags
	and	eax, 2
	jne	SHORT $LN19@ItemPostFr
	mov	eax, DWORD PTR _this$[ebp]
	mov	edx, DWORD PTR [eax]
	mov	ecx, DWORD PTR _this$[ebp]
	mov	eax, DWORD PTR [edx+504]
	call	eax
	test	eax, eax
	je	SHORT $LN28@ItemPostFr
	xorps	xmm0, xmm0
	movsd	QWORD PTR tv441[ebp], xmm0
	jmp	SHORT $LN29@ItemPostFr
$LN28@ItemPostFr:
	mov	ecx, DWORD PTR ?gpGlobals@@3PAUglobalvars_t@@A ; gpGlobals
	cvtss2sd xmm0, DWORD PTR [ecx]
	movsd	QWORD PTR tv441[ebp], xmm0
$LN29@ItemPostFr:
	mov	edx, DWORD PTR _this$[ebp]
	cvtss2sd xmm0, DWORD PTR [edx+1884]
	movsd	xmm1, QWORD PTR tv441[ebp]
	comisd	xmm1, xmm0
	jbe	SHORT $LN19@ItemPostFr

; 802  : 			{
; 803  : 				Reload();

	mov	eax, DWORD PTR _this$[ebp]
	mov	edx, DWORD PTR [eax]
	mov	ecx, DWORD PTR _this$[ebp]
	mov	eax, DWORD PTR [edx+488]
	call	eax

; 804  : 				return;

	jmp	SHORT $LN1@ItemPostFr
$LN19@ItemPostFr:

; 805  : 			}
; 806  : 		}
; 807  : 
; 808  : 		WeaponIdle( );

	mov	eax, DWORD PTR _this$[ebp]
	mov	edx, DWORD PTR [eax]
	mov	ecx, DWORD PTR _this$[ebp]
	mov	eax, DWORD PTR [edx+492]
	call	eax

; 809  : 		return;

	jmp	SHORT $LN1@ItemPostFr
$LN15@ItemPostFr:

; 810  : 	}
; 811  : 	
; 812  : 	// catch all
; 813  : 	if ( ShouldWeaponIdle() )

	mov	eax, DWORD PTR _this$[ebp]
	mov	edx, DWORD PTR [eax]
	mov	ecx, DWORD PTR _this$[ebp]
	mov	eax, DWORD PTR [edx+500]
	call	eax
	test	eax, eax
	je	SHORT $LN20@ItemPostFr

; 814  : 		WeaponIdle();

	mov	eax, DWORD PTR _this$[ebp]
	mov	edx, DWORD PTR [eax]
	mov	ecx, DWORD PTR _this$[ebp]
	mov	eax, DWORD PTR [edx+492]
	call	eax
$LN20@ItemPostFr:
$LN1@ItemPostFr:

; 815  : }

	pop	edi
	pop	esi
	pop	ebx
	mov	esp, ebp
	pop	ebp
	ret	0
?ItemPostFrame@CBasePlayerWeapon@@UAEXXZ ENDP		; CBasePlayerWeapon::ItemPostFrame
_TEXT	ENDS
; Function compile flags: /Odtp /ZI
; File d:\!diffusion 2020\source code 2022\client-server\server\weapons\weapons.cpp
;	COMDAT ?DefaultReload@CBasePlayerWeapon@@QAEHHHMH@Z
_TEXT	SEGMENT
tv155 = -76						; size = 4
tv132 = -76						; size = 4
_j$ = -8						; size = 4
_this$ = -4						; size = 4
_iClipSize$ = 8						; size = 4
_iAnim$ = 12						; size = 4
_fDelay$ = 16						; size = 4
_body$ = 20						; size = 4
?DefaultReload@CBasePlayerWeapon@@QAEHHHMH@Z PROC	; CBasePlayerWeapon::DefaultReload, COMDAT
; _this$ = ecx

; 1121 : {

	push	ebp
	mov	ebp, esp
	sub	esp, 76					; 0000004cH
	push	ebx
	push	esi
	push	edi
	mov	DWORD PTR _this$[ebp], ecx

; 1122 : 	if (m_pPlayer->m_rgAmmo[m_iPrimaryAmmoType] <= 0)

	mov	eax, DWORD PTR _this$[ebp]
	mov	ecx, DWORD PTR [eax+1856]
	mov	edx, DWORD PTR _this$[ebp]
	mov	eax, DWORD PTR [edx+1896]
	cmp	DWORD PTR [ecx+eax*4+3628], 0
	jg	SHORT $LN2@DefaultRel

; 1123 : 		return FALSE;

	xor	eax, eax
	jmp	$LN1@DefaultRel
$LN2@DefaultRel:

; 1124 : 
; 1125 : 	int j = Q_min(iClipSize - m_iClip, m_pPlayer->m_rgAmmo[m_iPrimaryAmmoType]);	

	mov	eax, DWORD PTR _this$[ebp]
	mov	ecx, DWORD PTR _iClipSize$[ebp]
	sub	ecx, DWORD PTR [eax+1904]
	mov	edx, DWORD PTR _this$[ebp]
	mov	eax, DWORD PTR [edx+1856]
	mov	edx, DWORD PTR _this$[ebp]
	mov	edx, DWORD PTR [edx+1896]
	cmp	ecx, DWORD PTR [eax+edx*4+3628]
	jge	SHORT $LN5@DefaultRel
	mov	eax, DWORD PTR _this$[ebp]
	mov	ecx, DWORD PTR _iClipSize$[ebp]
	sub	ecx, DWORD PTR [eax+1904]
	mov	DWORD PTR tv132[ebp], ecx
	jmp	SHORT $LN6@DefaultRel
$LN5@DefaultRel:
	mov	edx, DWORD PTR _this$[ebp]
	mov	eax, DWORD PTR [edx+1856]
	mov	ecx, DWORD PTR _this$[ebp]
	mov	edx, DWORD PTR [ecx+1896]
	mov	eax, DWORD PTR [eax+edx*4+3628]
	mov	DWORD PTR tv132[ebp], eax
$LN6@DefaultRel:
	mov	ecx, DWORD PTR tv132[ebp]
	mov	DWORD PTR _j$[ebp], ecx

; 1126 : 
; 1127 : 	if (j == 0)

	cmp	DWORD PTR _j$[ebp], 0
	jne	SHORT $LN3@DefaultRel

; 1128 : 		return FALSE;

	xor	eax, eax
	jmp	$LN1@DefaultRel
$LN3@DefaultRel:

; 1129 : 
; 1130 : 	m_pPlayer->m_flNextAttack = gpGlobals->time + fDelay;

	mov	eax, DWORD PTR ?gpGlobals@@3PAUglobalvars_t@@A ; gpGlobals
	movss	xmm0, DWORD PTR [eax]
	addss	xmm0, DWORD PTR _fDelay$[ebp]
	mov	ecx, DWORD PTR _this$[ebp]
	mov	edx, DWORD PTR [ecx+1856]
	movss	DWORD PTR [edx+2348], xmm0

; 1131 : 
; 1132 : 	//!!UNDONE -- reload sound goes here !!!
; 1133 : 	SendWeaponAnim( iAnim, UseDecrement() ? 1 : 0 );

	mov	eax, DWORD PTR _this$[ebp]
	mov	edx, DWORD PTR [eax]
	mov	ecx, DWORD PTR _this$[ebp]
	mov	eax, DWORD PTR [edx+504]
	call	eax
	test	eax, eax
	je	SHORT $LN7@DefaultRel
	mov	DWORD PTR tv155[ebp], 1
	jmp	SHORT $LN8@DefaultRel
$LN7@DefaultRel:
	mov	DWORD PTR tv155[ebp], 0
$LN8@DefaultRel:
	push	0
	mov	ecx, DWORD PTR tv155[ebp]
	push	ecx
	mov	edx, DWORD PTR _iAnim$[ebp]
	push	edx
	mov	eax, DWORD PTR _this$[ebp]
	mov	edx, DWORD PTR [eax]
	mov	ecx, DWORD PTR _this$[ebp]
	mov	eax, DWORD PTR [edx+472]
	call	eax

; 1134 : 
; 1135 : 	m_pPlayer->SetAnimation( PLAYER_RELOAD ); // nextday

	push	6
	mov	eax, DWORD PTR _this$[ebp]
	mov	ecx, DWORD PTR [eax+1856]
	call	?SetAnimation@CBasePlayer@@QAEXW4PLAYER_ANIM@@@Z ; CBasePlayer::SetAnimation

; 1136 : 
; 1137 : 	m_fInReload = TRUE;

	mov	eax, DWORD PTR _this$[ebp]
	mov	DWORD PTR [eax+1916], 1

; 1138 : 
; 1139 : 	m_flTimeWeaponIdle = gpGlobals->time + 3;

	mov	eax, DWORD PTR ?gpGlobals@@3PAUglobalvars_t@@A ; gpGlobals
	movss	xmm0, DWORD PTR [eax]
	addss	xmm0, DWORD PTR __real@40400000
	mov	ecx, DWORD PTR _this$[ebp]
	movss	DWORD PTR [ecx+1892], xmm0

; 1140 : 	return TRUE;

	mov	eax, 1
$LN1@DefaultRel:

; 1141 : }

	pop	edi
	pop	esi
	pop	ebx
	mov	esp, ebp
	pop	ebp
	ret	16					; 00000010H
?DefaultReload@CBasePlayerWeapon@@QAEHHHMH@Z ENDP	; CBasePlayerWeapon::DefaultReload
_TEXT	ENDS
; Function compile flags: /Odtp /ZI
; File d:\!diffusion 2020\source code 2022\client-server\server\weapons\weapons.cpp
;	COMDAT ?DefaultDeploy@CBasePlayerWeapon@@QAEHPAD0H0HH@Z
_TEXT	SEGMENT
_this$ = -4						; size = 4
_szViewModel$ = 8					; size = 4
_szWeaponModel$ = 12					; size = 4
_iAnim$ = 16						; size = 4
_szAnimExt$ = 20					; size = 4
_skiplocal$ = 24					; size = 4
_body$ = 28						; size = 4
?DefaultDeploy@CBasePlayerWeapon@@QAEHPAD0H0HH@Z PROC	; CBasePlayerWeapon::DefaultDeploy, COMDAT
; _this$ = ecx

; 1101 : {

	push	ebp
	mov	ebp, esp
	sub	esp, 68					; 00000044H
	push	ebx
	push	esi
	push	edi
	mov	DWORD PTR _this$[ebp], ecx

; 1102 : 	if (!CanDeploy( ))

	mov	eax, DWORD PTR _this$[ebp]
	mov	edx, DWORD PTR [eax]
	mov	ecx, DWORD PTR _this$[ebp]
	mov	eax, DWORD PTR [edx+392]
	call	eax
	test	eax, eax
	jne	SHORT $LN2@DefaultDep

; 1103 : 		return FALSE;

	xor	eax, eax
	jmp	$LN1@DefaultDep
$LN2@DefaultDep:

; 1104 : 
; 1105 : 	m_pPlayer->pev->viewmodel = MAKE_STRING(szViewModel);

	mov	eax, DWORD PTR _szViewModel$[ebp]
	push	eax
	call	DWORD PTR ?g_engfuncs@@3Uenginefuncs_s@@A+268
	add	esp, 4
	mov	ecx, DWORD PTR _this$[ebp]
	mov	edx, DWORD PTR [ecx+1856]
	mov	ecx, DWORD PTR [edx+4]
	mov	DWORD PTR [ecx+188], eax

; 1106 : 	m_pPlayer->pev->weaponmodel = MAKE_STRING(szWeaponModel);

	mov	eax, DWORD PTR _szWeaponModel$[ebp]
	push	eax
	call	DWORD PTR ?g_engfuncs@@3Uenginefuncs_s@@A+268
	add	esp, 4
	mov	ecx, DWORD PTR _this$[ebp]
	mov	edx, DWORD PTR [ecx+1856]
	mov	ecx, DWORD PTR [edx+4]
	mov	DWORD PTR [ecx+192], eax

; 1107 : 	if( szAnimExt ) // diffusion - this could cause crash

	cmp	DWORD PTR _szAnimExt$[ebp], 0
	je	SHORT $LN3@DefaultDep

; 1108 : 		strcpy( m_pPlayer->m_szAnimExtention, szAnimExt );

	mov	eax, DWORD PTR _szAnimExt$[ebp]
	push	eax
	mov	ecx, DWORD PTR _this$[ebp]
	mov	edx, DWORD PTR [ecx+1856]
	add	edx, 3940				; 00000f64H
	push	edx
	call	_strcpy
	add	esp, 8

; 1109 : 	else

	jmp	SHORT $LN4@DefaultDep
$LN3@DefaultDep:

; 1110 : 		ALERT(at_warning, "DefaultDeploy: Got 0 at m_szAnimExtention for \"%s\"!\n", szViewModel);

	mov	eax, DWORD PTR _szViewModel$[ebp]
	push	eax
	push	OFFSET ??_C@_0DF@FFENENKD@DefaultDeploy?3?5Got?50?5at?5m_szAnim@
	push	3
	call	DWORD PTR ?g_engfuncs@@3Uenginefuncs_s@@A+244
	add	esp, 12					; 0000000cH
$LN4@DefaultDep:

; 1111 : 
; 1112 : 	SendWeaponAnim( iAnim, skiplocal, body );

	mov	eax, DWORD PTR _body$[ebp]
	push	eax
	mov	ecx, DWORD PTR _skiplocal$[ebp]
	push	ecx
	mov	edx, DWORD PTR _iAnim$[ebp]
	push	edx
	mov	eax, DWORD PTR _this$[ebp]
	mov	edx, DWORD PTR [eax]
	mov	ecx, DWORD PTR _this$[ebp]
	mov	eax, DWORD PTR [edx+472]
	call	eax

; 1113 : 
; 1114 : 	m_pPlayer->m_flNextAttack = gpGlobals->time + 0.5;

	mov	eax, DWORD PTR ?gpGlobals@@3PAUglobalvars_t@@A ; gpGlobals
	cvtss2sd xmm0, DWORD PTR [eax]
	addsd	xmm0, QWORD PTR __real@3fe0000000000000
	cvtsd2ss xmm0, xmm0
	mov	ecx, DWORD PTR _this$[ebp]
	mov	edx, DWORD PTR [ecx+1856]
	movss	DWORD PTR [edx+2348], xmm0

; 1115 : 
; 1116 : 	return TRUE;

	mov	eax, 1
$LN1@DefaultDep:

; 1117 : }

	pop	edi
	pop	esi
	pop	ebx
	mov	esp, ebp
	pop	ebp
	ret	24					; 00000018H
?DefaultDeploy@CBasePlayerWeapon@@QAEHPAD0H0HH@Z ENDP	; CBasePlayerWeapon::DefaultDeploy
_TEXT	ENDS
; Function compile flags: /Odtp /ZI
; File d:\!diffusion 2020\source code 2022\client-server\server\weapons\weapons.cpp
;	COMDAT ?IsUseable@CBasePlayerWeapon@@UAEHXZ
_TEXT	SEGMENT
_this$ = -4						; size = 4
?IsUseable@CBasePlayerWeapon@@UAEHXZ PROC		; CBasePlayerWeapon::IsUseable, COMDAT
; _this$ = ecx

; 1055 : {

	push	ebp
	mov	ebp, esp
	sub	esp, 68					; 00000044H
	push	ebx
	push	esi
	push	edi
	mov	DWORD PTR _this$[ebp], ecx

; 1056 : 	if( m_pPlayer->CanSelectEmptyWeapon )

	mov	eax, DWORD PTR _this$[ebp]
	mov	ecx, DWORD PTR [eax+1856]
	movzx	edx, BYTE PTR [ecx+4471]
	test	edx, edx
	je	SHORT $LN2@IsUseable

; 1057 : 		return TRUE;

	mov	eax, 1
	jmp	SHORT $LN1@IsUseable
$LN2@IsUseable:

; 1058 : 	
; 1059 : 	if ( m_iClip <= 0 )

	mov	eax, DWORD PTR _this$[ebp]
	cmp	DWORD PTR [eax+1904], 0
	jg	SHORT $LN3@IsUseable

; 1060 : 	{
; 1061 : 		if ( m_pPlayer->m_rgAmmo[ PrimaryAmmoIndex() ] <= 0 && iMaxAmmo1() != -1 )			

	mov	eax, DWORD PTR _this$[ebp]
	mov	esi, DWORD PTR [eax+1856]
	mov	ecx, DWORD PTR _this$[ebp]
	mov	edx, DWORD PTR [ecx]
	mov	ecx, DWORD PTR _this$[ebp]
	mov	eax, DWORD PTR [edx+432]
	call	eax
	cmp	DWORD PTR [esi+eax*4+3628], 0
	jg	SHORT $LN3@IsUseable
	mov	ecx, DWORD PTR _this$[ebp]
	call	?iMaxAmmo1@CBasePlayerItem@@QAEHXZ	; CBasePlayerItem::iMaxAmmo1
	cmp	eax, -1
	je	SHORT $LN3@IsUseable

; 1062 : 		{
; 1063 : 			// clip is empty (or nonexistant) and the player has no more ammo of this type.
; 1064 : 			if ( m_pPlayer->m_rgAmmo[ SecondaryAmmoIndex() ] <= 0  ) // diffusion - also check secondary ammo

	mov	eax, DWORD PTR _this$[ebp]
	mov	esi, DWORD PTR [eax+1856]
	mov	ecx, DWORD PTR _this$[ebp]
	mov	edx, DWORD PTR [ecx]
	mov	ecx, DWORD PTR _this$[ebp]
	mov	eax, DWORD PTR [edx+436]
	call	eax
	cmp	DWORD PTR [esi+eax*4+3628], 0
	jg	SHORT $LN3@IsUseable

; 1065 : 				return FALSE;

	xor	eax, eax
	jmp	SHORT $LN1@IsUseable
$LN3@IsUseable:

; 1066 : 		}
; 1067 : 	}
; 1068 : 
; 1069 : 	return TRUE;

	mov	eax, 1
$LN1@IsUseable:

; 1070 : }

	pop	edi
	pop	esi
	pop	ebx
	mov	esp, ebp
	pop	ebp
	ret	0
?IsUseable@CBasePlayerWeapon@@UAEHXZ ENDP		; CBasePlayerWeapon::IsUseable
_TEXT	ENDS
; Function compile flags: /Odtp /ZI
; File d:\!diffusion 2020\source code 2022\client-server\server\weapons\weapons.cpp
;	COMDAT ?CanDeploy@CBasePlayerWeapon@@UAEHXZ
_TEXT	SEGMENT
tv157 = -76						; size = 4
tv137 = -76						; size = 4
_bHasAmmo$ = -8						; size = 4
_this$ = -4						; size = 4
?CanDeploy@CBasePlayerWeapon@@UAEHXZ PROC		; CBasePlayerWeapon::CanDeploy, COMDAT
; _this$ = ecx

; 1073 : {

	push	ebp
	mov	ebp, esp
	sub	esp, 76					; 0000004cH
	push	ebx
	push	esi
	push	edi
	mov	DWORD PTR _this$[ebp], ecx

; 1074 : 	BOOL bHasAmmo = 0;

	mov	DWORD PTR _bHasAmmo$[ebp], 0

; 1075 : 
; 1076 : 	if( m_pPlayer->m_iHideHUD & (HIDEHUD_WPNS|HIDEHUD_ALL|HIDEHUD_WPNS_HOLDABLEITEM|HIDEHUD_WPNS_CUSTOM) )

	mov	eax, DWORD PTR _this$[ebp]
	mov	ecx, DWORD PTR [eax+1856]
	mov	edx, DWORD PTR [ecx+3020]
	and	edx, 53					; 00000035H
	je	SHORT $LN2@CanDeploy

; 1077 : 		return FALSE;

	xor	eax, eax
	jmp	$LN1@CanDeploy
$LN2@CanDeploy:

; 1078 : 
; 1079 : 	if( m_pPlayer->CanSelectEmptyWeapon )

	mov	eax, DWORD PTR _this$[ebp]
	mov	ecx, DWORD PTR [eax+1856]
	movzx	edx, BYTE PTR [ecx+4471]
	test	edx, edx
	je	SHORT $LN3@CanDeploy

; 1080 : 		return TRUE;

	mov	eax, 1
	jmp	$LN1@CanDeploy
$LN3@CanDeploy:

; 1081 : 
; 1082 : 	if ( !pszAmmo1() )

	mov	ecx, DWORD PTR _this$[ebp]
	call	?pszAmmo1@CBasePlayerItem@@QAEPBDXZ	; CBasePlayerItem::pszAmmo1
	test	eax, eax
	jne	SHORT $LN4@CanDeploy

; 1083 : 		return TRUE; // this weapon doesn't use ammo, can always deploy.

	mov	eax, 1
	jmp	$LN1@CanDeploy
$LN4@CanDeploy:

; 1084 : 
; 1085 : 	if ( pszAmmo1() )

	mov	ecx, DWORD PTR _this$[ebp]
	call	?pszAmmo1@CBasePlayerItem@@QAEPBDXZ	; CBasePlayerItem::pszAmmo1
	test	eax, eax
	je	SHORT $LN5@CanDeploy

; 1086 : 		bHasAmmo |= (m_pPlayer->m_rgAmmo[m_iPrimaryAmmoType] != 0);

	mov	eax, DWORD PTR _this$[ebp]
	mov	ecx, DWORD PTR [eax+1856]
	mov	edx, DWORD PTR _this$[ebp]
	mov	eax, DWORD PTR [edx+1896]
	cmp	DWORD PTR [ecx+eax*4+3628], 0
	je	SHORT $LN10@CanDeploy
	mov	DWORD PTR tv137[ebp], 1
	jmp	SHORT $LN11@CanDeploy
$LN10@CanDeploy:
	mov	DWORD PTR tv137[ebp], 0
$LN11@CanDeploy:
	mov	ecx, DWORD PTR _bHasAmmo$[ebp]
	or	ecx, DWORD PTR tv137[ebp]
	mov	DWORD PTR _bHasAmmo$[ebp], ecx
$LN5@CanDeploy:

; 1087 : 
; 1088 : 	if ( pszAmmo2() )

	mov	ecx, DWORD PTR _this$[ebp]
	call	?pszAmmo2@CBasePlayerItem@@QAEPBDXZ	; CBasePlayerItem::pszAmmo2
	test	eax, eax
	je	SHORT $LN6@CanDeploy

; 1089 : 		bHasAmmo |= (m_pPlayer->m_rgAmmo[m_iSecondaryAmmoType] != 0);

	mov	eax, DWORD PTR _this$[ebp]
	mov	ecx, DWORD PTR [eax+1856]
	mov	edx, DWORD PTR _this$[ebp]
	mov	eax, DWORD PTR [edx+1900]
	cmp	DWORD PTR [ecx+eax*4+3628], 0
	je	SHORT $LN12@CanDeploy
	mov	DWORD PTR tv157[ebp], 1
	jmp	SHORT $LN13@CanDeploy
$LN12@CanDeploy:
	mov	DWORD PTR tv157[ebp], 0
$LN13@CanDeploy:
	mov	ecx, DWORD PTR _bHasAmmo$[ebp]
	or	ecx, DWORD PTR tv157[ebp]
	mov	DWORD PTR _bHasAmmo$[ebp], ecx
$LN6@CanDeploy:

; 1090 : 
; 1091 : 	if (m_iClip > 0)

	mov	eax, DWORD PTR _this$[ebp]
	cmp	DWORD PTR [eax+1904], 0
	jle	SHORT $LN7@CanDeploy

; 1092 : 		bHasAmmo |= 1;

	mov	eax, DWORD PTR _bHasAmmo$[ebp]
	or	eax, 1
	mov	DWORD PTR _bHasAmmo$[ebp], eax
$LN7@CanDeploy:

; 1093 : 
; 1094 : 	if (!bHasAmmo)

	cmp	DWORD PTR _bHasAmmo$[ebp], 0
	jne	SHORT $LN8@CanDeploy

; 1095 : 		return FALSE;

	xor	eax, eax
	jmp	SHORT $LN1@CanDeploy
$LN8@CanDeploy:

; 1096 : 
; 1097 : 	return TRUE;

	mov	eax, 1
$LN1@CanDeploy:

; 1098 : }

	pop	edi
	pop	esi
	pop	ebx
	mov	esp, ebp
	pop	ebp
	ret	0
?CanDeploy@CBasePlayerWeapon@@UAEHXZ ENDP		; CBasePlayerWeapon::CanDeploy
_TEXT	ENDS
; Function compile flags: /Odtp /ZI
; File d:\!diffusion 2020\source code 2022\client-server\server\weapons\weapons.cpp
;	COMDAT ?SendWeaponAnim@CBasePlayerWeapon@@UAEXHHH@Z
_TEXT	SEGMENT
_this$ = -4						; size = 4
_iAnim$ = 8						; size = 4
_skiplocal$ = 12					; size = 4
_body$ = 16						; size = 4
?SendWeaponAnim@CBasePlayerWeapon@@UAEXHHH@Z PROC	; CBasePlayerWeapon::SendWeaponAnim, COMDAT
; _this$ = ecx

; 977  : {

	push	ebp
	mov	ebp, esp
	sub	esp, 68					; 00000044H
	push	ebx
	push	esi
	push	edi
	mov	DWORD PTR _this$[ebp], ecx

; 978  : //	if ( UseDecrement() )
; 979  : //		skiplocal = 1;
; 980  : //	else
; 981  : //		skiplocal = 0;
; 982  : 
; 983  : 	m_pPlayer->pev->weaponanim = iAnim;

	mov	eax, DWORD PTR _this$[ebp]
	mov	ecx, DWORD PTR [eax+1856]
	mov	edx, DWORD PTR [ecx+4]
	mov	eax, DWORD PTR _iAnim$[ebp]
	mov	DWORD PTR [edx+536], eax

; 984  : 
; 985  : 	MESSAGE_BEGIN( MSG_ONE, gmsgWeaponAnim, NULL, m_pPlayer->pev );

	mov	eax, DWORD PTR _this$[ebp]
	mov	ecx, DWORD PTR [eax+1856]
	mov	edx, DWORD PTR [ecx+4]
	push	edx
	push	0
	mov	eax, DWORD PTR ?gmsgWeaponAnim@@3HA	; gmsgWeaponAnim
	push	eax
	push	1
	call	?MESSAGE_BEGIN@@YAXHHPBMPAUentvars_s@@@Z ; MESSAGE_BEGIN
	add	esp, 16					; 00000010H

; 986  : 		WRITE_BYTE( iAnim );						// sequence number

	mov	eax, DWORD PTR _iAnim$[ebp]
	push	eax
	call	DWORD PTR ?g_engfuncs@@3Uenginefuncs_s@@A+192
	add	esp, 4

; 987  : 		WRITE_BYTE( pev->body );					// weaponmodel bodygroup.

	mov	eax, DWORD PTR _this$[ebp]
	mov	ecx, DWORD PTR [eax+4]
	mov	edx, DWORD PTR [ecx+276]
	push	edx
	call	DWORD PTR ?g_engfuncs@@3Uenginefuncs_s@@A+192
	add	esp, 4

; 988  : 		WRITE_BYTE( m_iId ); // diffusion - also send weapon info...

	mov	eax, DWORD PTR _this$[ebp]
	mov	ecx, DWORD PTR [eax+1864]
	push	ecx
	call	DWORD PTR ?g_engfuncs@@3Uenginefuncs_s@@A+192
	add	esp, 4

; 989  : 	MESSAGE_END();

	call	DWORD PTR ?g_engfuncs@@3Uenginefuncs_s@@A+188

; 990  : }

	pop	edi
	pop	esi
	pop	ebx
	mov	esp, ebp
	pop	ebp
	ret	12					; 0000000cH
?SendWeaponAnim@CBasePlayerWeapon@@UAEXHHH@Z ENDP	; CBasePlayerWeapon::SendWeaponAnim
_TEXT	ENDS
; Function compile flags: /Odtp /ZI
; File d:\!diffusion 2020\source code 2022\client-server\server\weapons\weapons.cpp
;	COMDAT ?ResetEmptySound@CBasePlayerWeapon@@UAEXXZ
_TEXT	SEGMENT
_this$ = -4						; size = 4
?ResetEmptySound@CBasePlayerWeapon@@UAEXXZ PROC		; CBasePlayerWeapon::ResetEmptySound, COMDAT
; _this$ = ecx

; 1155 : {

	push	ebp
	mov	ebp, esp
	sub	esp, 68					; 00000044H
	push	ebx
	push	esi
	push	edi
	mov	DWORD PTR _this$[ebp], ecx

; 1156 : 	m_iPlayEmptySound = 1;

	mov	eax, DWORD PTR _this$[ebp]
	mov	DWORD PTR [eax+1868], 1

; 1157 : }

	pop	edi
	pop	esi
	pop	ebx
	mov	esp, ebp
	pop	ebp
	ret	0
?ResetEmptySound@CBasePlayerWeapon@@UAEXXZ ENDP		; CBasePlayerWeapon::ResetEmptySound
_TEXT	ENDS
; Function compile flags: /Odtp /ZI
; File d:\!diffusion 2020\source code 2022\client-server\server\weapons\weapons.cpp
;	COMDAT ?PlayEmptySound@CBasePlayerWeapon@@UAEHXZ
_TEXT	SEGMENT
_this$ = -4						; size = 4
?PlayEmptySound@CBasePlayerWeapon@@UAEHXZ PROC		; CBasePlayerWeapon::PlayEmptySound, COMDAT
; _this$ = ecx

; 1144 : {

	push	ebp
	mov	ebp, esp
	sub	esp, 68					; 00000044H
	push	ebx
	push	esi
	push	edi
	mov	DWORD PTR _this$[ebp], ecx

; 1145 : 	if (m_iPlayEmptySound)

	mov	eax, DWORD PTR _this$[ebp]
	cmp	DWORD PTR [eax+1868], 0
	je	SHORT $LN2@PlayEmptyS

; 1146 : 	{
; 1147 : 		EMIT_SOUND(ENT(m_pPlayer->pev), CHAN_WEAPON, "weapons/357_cock1.wav", 0.8, ATTN_NORM);

	push	ecx
	movss	xmm0, DWORD PTR __real@3f4ccccd
	movss	DWORD PTR [esp], xmm0
	push	ecx
	movss	xmm0, DWORD PTR __real@3f4ccccd
	movss	DWORD PTR [esp], xmm0
	push	OFFSET ??_C@_0BG@FDJOBCGH@weapons?1357_cock1?4wav?$AA@
	push	1
	mov	eax, DWORD PTR _this$[ebp]
	mov	ecx, DWORD PTR [eax+1856]
	mov	edx, DWORD PTR [ecx+4]
	push	edx
	call	?ENT@@YAPAUedict_s@@PBUentvars_s@@@Z	; ENT
	add	esp, 4
	push	eax
	call	?EMIT_SOUND@@YAXPAUedict_s@@HPBDMM@Z	; EMIT_SOUND
	add	esp, 20					; 00000014H

; 1148 : 		m_iPlayEmptySound = 0;

	mov	eax, DWORD PTR _this$[ebp]
	mov	DWORD PTR [eax+1868], 0

; 1149 : 		return 0;

	xor	eax, eax
	jmp	SHORT $LN1@PlayEmptyS
$LN2@PlayEmptyS:

; 1150 : 	}
; 1151 : 	return 0;

	xor	eax, eax
$LN1@PlayEmptyS:

; 1152 : }

	pop	edi
	pop	esi
	pop	ebx
	mov	esp, ebp
	pop	ebp
	ret	0
?PlayEmptySound@CBasePlayerWeapon@@UAEHXZ ENDP		; CBasePlayerWeapon::PlayEmptySound
_TEXT	ENDS
; Function compile flags: /Odtp /ZI
; File d:\!diffusion 2020\source code 2022\client-server\server\weapons\weapons.cpp
;	COMDAT ?AddSecondaryAmmo@CBasePlayerWeapon@@QAEHHPADH@Z
_TEXT	SEGMENT
tv129 = -76						; size = 4
_iIdAmmo$ = -8						; size = 4
_this$ = -4						; size = 4
_iCount$ = 8						; size = 4
_szName$ = 12						; size = 4
_iMax$ = 16						; size = 4
?AddSecondaryAmmo@CBasePlayerWeapon@@QAEHHPADH@Z PROC	; CBasePlayerWeapon::AddSecondaryAmmo, COMDAT
; _this$ = ecx

; 1032 : {

	push	ebp
	mov	ebp, esp
	sub	esp, 76					; 0000004cH
	push	ebx
	push	esi
	push	edi
	mov	DWORD PTR _this$[ebp], ecx

; 1033 : 	int iIdAmmo;
; 1034 : 
; 1035 : 	iIdAmmo = m_pPlayer->GiveAmmo( iCount, szName, iMax );

	mov	eax, DWORD PTR _iMax$[ebp]
	push	eax
	mov	ecx, DWORD PTR _szName$[ebp]
	push	ecx
	mov	edx, DWORD PTR _iCount$[ebp]
	push	edx
	mov	eax, DWORD PTR _this$[ebp]
	mov	ecx, DWORD PTR [eax+1856]
	mov	edx, DWORD PTR _this$[ebp]
	mov	eax, DWORD PTR [ecx]
	mov	ecx, DWORD PTR [edx+1856]
	mov	edx, DWORD PTR [eax+152]
	call	edx
	mov	DWORD PTR _iIdAmmo$[ebp], eax

; 1036 : 
; 1037 : 	//m_pPlayer->m_rgAmmo[m_iSecondaryAmmoType] = iMax; // hack for testing
; 1038 : 
; 1039 : 	if (iIdAmmo > 0)

	cmp	DWORD PTR _iIdAmmo$[ebp], 0
	jle	SHORT $LN2@AddSeconda

; 1040 : 	{
; 1041 : 		m_iSecondaryAmmoType = iIdAmmo;

	mov	eax, DWORD PTR _this$[ebp]
	mov	ecx, DWORD PTR _iIdAmmo$[ebp]
	mov	DWORD PTR [eax+1900], ecx

; 1042 : 	//	EMIT_SOUND(ENT(pev), CHAN_ITEM, "items/9mmclip1.wav", 1, ATTN_NORM);
; 1043 : 		PlayPickupSound( m_pPlayer );

	push	250					; 000000faH
	mov	eax, DWORD PTR _this$[ebp]
	mov	ecx, DWORD PTR [eax+1856]
	push	ecx
	call	?PlayPickupSound@@YAXPAVCBaseEntity@@H@Z ; PlayPickupSound
	add	esp, 8
$LN2@AddSeconda:

; 1044 : 	}
; 1045 : 	return iIdAmmo > 0 ? TRUE : FALSE;

	cmp	DWORD PTR _iIdAmmo$[ebp], 0
	jle	SHORT $LN4@AddSeconda
	mov	DWORD PTR tv129[ebp], 1
	jmp	SHORT $LN5@AddSeconda
$LN4@AddSeconda:
	mov	DWORD PTR tv129[ebp], 0
$LN5@AddSeconda:
	mov	eax, DWORD PTR tv129[ebp]

; 1046 : }

	pop	edi
	pop	esi
	pop	ebx
	mov	esp, ebp
	pop	ebp
	ret	12					; 0000000cH
?AddSecondaryAmmo@CBasePlayerWeapon@@QAEHHPADH@Z ENDP	; CBasePlayerWeapon::AddSecondaryAmmo
_TEXT	ENDS
; Function compile flags: /Odtp /ZI
; File d:\!diffusion 2020\source code 2022\client-server\server\weapons\weapons.cpp
;	COMDAT ?AddPrimaryAmmo@CBasePlayerWeapon@@QAEHHPADHH@Z
_TEXT	SEGMENT
tv209 = -80						; size = 4
tv137 = -80						; size = 4
_i$1 = -12						; size = 4
_iIdAmmo$ = -8						; size = 4
_this$ = -4						; size = 4
_iCount$ = 8						; size = 4
_szName$ = 12						; size = 4
_iMaxClip$ = 16						; size = 4
_iMaxCarry$ = 20					; size = 4
?AddPrimaryAmmo@CBasePlayerWeapon@@QAEHHPADHH@Z PROC	; CBasePlayerWeapon::AddPrimaryAmmo, COMDAT
; _this$ = ecx

; 993  : {

	push	ebp
	mov	ebp, esp
	sub	esp, 80					; 00000050H
	push	ebx
	push	esi
	push	edi
	mov	DWORD PTR _this$[ebp], ecx

; 994  : 	int iIdAmmo;
; 995  : 
; 996  : 	if (iMaxClip < 1)

	cmp	DWORD PTR _iMaxClip$[ebp], 1
	jge	SHORT $LN2@AddPrimary

; 997  : 	{
; 998  : 		m_iClip = -1;

	mov	eax, DWORD PTR _this$[ebp]
	mov	DWORD PTR [eax+1904], -1

; 999  : 		iIdAmmo = m_pPlayer->GiveAmmo( iCount, szName, iMaxCarry );

	mov	eax, DWORD PTR _iMaxCarry$[ebp]
	push	eax
	mov	ecx, DWORD PTR _szName$[ebp]
	push	ecx
	mov	edx, DWORD PTR _iCount$[ebp]
	push	edx
	mov	eax, DWORD PTR _this$[ebp]
	mov	ecx, DWORD PTR [eax+1856]
	mov	edx, DWORD PTR _this$[ebp]
	mov	eax, DWORD PTR [ecx]
	mov	ecx, DWORD PTR [edx+1856]
	mov	edx, DWORD PTR [eax+152]
	call	edx
	mov	DWORD PTR _iIdAmmo$[ebp], eax
	jmp	$LN3@AddPrimary
$LN2@AddPrimary:

; 1000 : 	}
; 1001 : 	else if (m_iClip == 0 && !m_pPlayer->HasPlayerItem( this ) ) // diffusion - added weapon check: fixed a bug when player picks up a weapon with empty clip, which leads to instant reloading

	mov	eax, DWORD PTR _this$[ebp]
	cmp	DWORD PTR [eax+1904], 0
	jne	$LN4@AddPrimary
	mov	eax, DWORD PTR _this$[ebp]
	push	eax
	mov	ecx, DWORD PTR _this$[ebp]
	mov	ecx, DWORD PTR [ecx+1856]
	call	?HasPlayerItem@CBasePlayer@@QAEHPAVCBasePlayerItem@@@Z ; CBasePlayer::HasPlayerItem
	test	eax, eax
	jne	SHORT $LN4@AddPrimary

; 1002 : 	{
; 1003 : 		int i;
; 1004 : 		i = Q_min( m_iClip + iCount, iMaxClip ) - m_iClip;

	mov	eax, DWORD PTR _this$[ebp]
	mov	ecx, DWORD PTR [eax+1904]
	add	ecx, DWORD PTR _iCount$[ebp]
	cmp	ecx, DWORD PTR _iMaxClip$[ebp]
	jge	SHORT $LN9@AddPrimary
	mov	edx, DWORD PTR _this$[ebp]
	mov	eax, DWORD PTR [edx+1904]
	add	eax, DWORD PTR _iCount$[ebp]
	mov	DWORD PTR tv137[ebp], eax
	jmp	SHORT $LN10@AddPrimary
$LN9@AddPrimary:
	mov	ecx, DWORD PTR _iMaxClip$[ebp]
	mov	DWORD PTR tv137[ebp], ecx
$LN10@AddPrimary:
	mov	edx, DWORD PTR _this$[ebp]
	mov	eax, DWORD PTR tv137[ebp]
	sub	eax, DWORD PTR [edx+1904]
	mov	DWORD PTR _i$1[ebp], eax

; 1005 : 		m_iClip += i;

	mov	eax, DWORD PTR _this$[ebp]
	mov	ecx, DWORD PTR [eax+1904]
	add	ecx, DWORD PTR _i$1[ebp]
	mov	edx, DWORD PTR _this$[ebp]
	mov	DWORD PTR [edx+1904], ecx

; 1006 : 		iIdAmmo = m_pPlayer->GiveAmmo( iCount - i, szName, iMaxCarry );

	mov	eax, DWORD PTR _iMaxCarry$[ebp]
	push	eax
	mov	ecx, DWORD PTR _szName$[ebp]
	push	ecx
	mov	edx, DWORD PTR _iCount$[ebp]
	sub	edx, DWORD PTR _i$1[ebp]
	push	edx
	mov	eax, DWORD PTR _this$[ebp]
	mov	ecx, DWORD PTR [eax+1856]
	mov	edx, DWORD PTR _this$[ebp]
	mov	eax, DWORD PTR [ecx]
	mov	ecx, DWORD PTR [edx+1856]
	mov	edx, DWORD PTR [eax+152]
	call	edx
	mov	DWORD PTR _iIdAmmo$[ebp], eax

; 1007 : 	}
; 1008 : 	else

	jmp	SHORT $LN3@AddPrimary
$LN4@AddPrimary:

; 1009 : 	{
; 1010 : 		iIdAmmo = m_pPlayer->GiveAmmo( iCount, szName, iMaxCarry );

	mov	eax, DWORD PTR _iMaxCarry$[ebp]
	push	eax
	mov	ecx, DWORD PTR _szName$[ebp]
	push	ecx
	mov	edx, DWORD PTR _iCount$[ebp]
	push	edx
	mov	eax, DWORD PTR _this$[ebp]
	mov	ecx, DWORD PTR [eax+1856]
	mov	edx, DWORD PTR _this$[ebp]
	mov	eax, DWORD PTR [ecx]
	mov	ecx, DWORD PTR [edx+1856]
	mov	edx, DWORD PTR [eax+152]
	call	edx
	mov	DWORD PTR _iIdAmmo$[ebp], eax
$LN3@AddPrimary:

; 1011 : 	}
; 1012 : 	
; 1013 : 	// m_pPlayer->m_rgAmmo[m_iPrimaryAmmoType] = iMaxCarry; // hack for testing
; 1014 : 
; 1015 : 	if (iIdAmmo > 0)

	cmp	DWORD PTR _iIdAmmo$[ebp], 0
	jle	SHORT $LN6@AddPrimary

; 1016 : 	{
; 1017 : 		m_iPrimaryAmmoType = iIdAmmo;

	mov	eax, DWORD PTR _this$[ebp]
	mov	ecx, DWORD PTR _iIdAmmo$[ebp]
	mov	DWORD PTR [eax+1896], ecx

; 1018 : 		if (m_pPlayer->HasPlayerItem( this ) )

	mov	eax, DWORD PTR _this$[ebp]
	push	eax
	mov	ecx, DWORD PTR _this$[ebp]
	mov	ecx, DWORD PTR [ecx+1856]
	call	?HasPlayerItem@CBasePlayer@@QAEHPAVCBasePlayerItem@@@Z ; CBasePlayer::HasPlayerItem
	test	eax, eax
	je	SHORT $LN6@AddPrimary

; 1019 : 		{
; 1020 : 			// play the "got ammo" sound only if we gave some ammo to a player that already had this gun.
; 1021 : 			// if the player is just getting this gun for the first time, DefaultTouch will play the "picked up gun" sound for us.
; 1022 : 		//	EMIT_SOUND(ENT(pev), CHAN_ITEM, "items/9mmclip1.wav", 1, ATTN_NORM);
; 1023 : 			PlayPickupSound( m_pPlayer );

	push	250					; 000000faH
	mov	eax, DWORD PTR _this$[ebp]
	mov	ecx, DWORD PTR [eax+1856]
	push	ecx
	call	?PlayPickupSound@@YAXPAVCBaseEntity@@H@Z ; PlayPickupSound
	add	esp, 8
$LN6@AddPrimary:

; 1024 : 		}
; 1025 : 	}
; 1026 : 
; 1027 : 	return iIdAmmo > 0 ? TRUE : FALSE;

	cmp	DWORD PTR _iIdAmmo$[ebp], 0
	jle	SHORT $LN11@AddPrimary
	mov	DWORD PTR tv209[ebp], 1
	jmp	SHORT $LN12@AddPrimary
$LN11@AddPrimary:
	mov	DWORD PTR tv209[ebp], 0
$LN12@AddPrimary:
	mov	eax, DWORD PTR tv209[ebp]

; 1028 : }

	pop	edi
	pop	esi
	pop	ebx
	mov	esp, ebp
	pop	ebp
	ret	16					; 00000010H
?AddPrimaryAmmo@CBasePlayerWeapon@@QAEHHPADHH@Z ENDP	; CBasePlayerWeapon::AddPrimaryAmmo
_TEXT	ENDS
; Function compile flags: /Odtp /ZI
; File d:\!diffusion 2020\source code 2022\client-server\server\weapons\weapons.cpp
;	COMDAT ?ExtractClipAmmo@CBasePlayerWeapon@@UAEHPAV1@@Z
_TEXT	SEGMENT
_iAmmo$ = -8						; size = 4
_this$ = -4						; size = 4
_pWeapon$ = 8						; size = 4
?ExtractClipAmmo@CBasePlayerWeapon@@UAEHPAV1@@Z PROC	; CBasePlayerWeapon::ExtractClipAmmo, COMDAT
; _this$ = ecx

; 1286 : {

	push	ebp
	mov	ebp, esp
	sub	esp, 72					; 00000048H
	push	ebx
	push	esi
	push	edi
	mov	DWORD PTR _this$[ebp], ecx

; 1287 : 	int			iAmmo;
; 1288 : 
; 1289 : 	if ( m_iClip == WEAPON_NOCLIP )

	mov	eax, DWORD PTR _this$[ebp]
	cmp	DWORD PTR [eax+1904], -1
	jne	SHORT $LN2@ExtractCli

; 1290 : 		iAmmo = 0;// guns with no clips always come empty if they are second-hand

	mov	DWORD PTR _iAmmo$[ebp], 0

; 1291 : 	else

	jmp	SHORT $LN3@ExtractCli
$LN2@ExtractCli:

; 1292 : 		iAmmo = m_iClip;

	mov	eax, DWORD PTR _this$[ebp]
	mov	ecx, DWORD PTR [eax+1904]
	mov	DWORD PTR _iAmmo$[ebp], ecx
$LN3@ExtractCli:

; 1293 : 	
; 1294 : 	return pWeapon->m_pPlayer->GiveAmmo( iAmmo, (char *)pszAmmo1(), iMaxAmmo1() ); // , &m_iPrimaryAmmoType

	mov	ecx, DWORD PTR _this$[ebp]
	call	?iMaxAmmo1@CBasePlayerItem@@QAEHXZ	; CBasePlayerItem::iMaxAmmo1
	push	eax
	mov	ecx, DWORD PTR _this$[ebp]
	call	?pszAmmo1@CBasePlayerItem@@QAEPBDXZ	; CBasePlayerItem::pszAmmo1
	push	eax
	mov	eax, DWORD PTR _iAmmo$[ebp]
	push	eax
	mov	ecx, DWORD PTR _pWeapon$[ebp]
	mov	edx, DWORD PTR [ecx+1856]
	mov	eax, DWORD PTR _pWeapon$[ebp]
	mov	edx, DWORD PTR [edx]
	mov	ecx, DWORD PTR [eax+1856]
	mov	eax, DWORD PTR [edx+152]
	call	eax

; 1295 : }

	pop	edi
	pop	esi
	pop	ebx
	mov	esp, ebp
	pop	ebp
	ret	4
?ExtractClipAmmo@CBasePlayerWeapon@@UAEHPAV1@@Z ENDP	; CBasePlayerWeapon::ExtractClipAmmo
_TEXT	ENDS
; Function compile flags: /Odtp /ZI
; File d:\!diffusion 2020\source code 2022\client-server\server\weapons\weapons.cpp
;	COMDAT ?ExtractAmmo@CBasePlayerWeapon@@UAEHPAV1@@Z
_TEXT	SEGMENT
_iReturn$ = -8						; size = 4
_this$ = -4						; size = 4
_pWeapon$ = 8						; size = 4
?ExtractAmmo@CBasePlayerWeapon@@UAEHPAV1@@Z PROC	; CBasePlayerWeapon::ExtractAmmo, COMDAT
; _this$ = ecx

; 1265 : {

	push	ebp
	mov	ebp, esp
	sub	esp, 72					; 00000048H
	push	ebx
	push	esi
	push	edi
	mov	DWORD PTR _this$[ebp], ecx

; 1266 : 	int iReturn = 0;

	mov	DWORD PTR _iReturn$[ebp], 0

; 1267 : 
; 1268 : 	if ( pszAmmo1() != NULL )

	mov	ecx, DWORD PTR _this$[ebp]
	call	?pszAmmo1@CBasePlayerItem@@QAEPBDXZ	; CBasePlayerItem::pszAmmo1
	test	eax, eax
	je	SHORT $LN2@ExtractAmm

; 1269 : 	{
; 1270 : 		// blindly call with m_iDefaultAmmo. It's either going to be a value or zero. If it is zero,
; 1271 : 		// we only get the ammo in the weapon's clip, which is what we want. 
; 1272 : 		iReturn = pWeapon->AddPrimaryAmmo( m_iDefaultAmmo, (char *)pszAmmo1(), iMaxClip(), iMaxAmmo1() );

	mov	ecx, DWORD PTR _this$[ebp]
	call	?iMaxAmmo1@CBasePlayerItem@@QAEHXZ	; CBasePlayerItem::iMaxAmmo1
	push	eax
	mov	ecx, DWORD PTR _this$[ebp]
	call	?iMaxClip@CBasePlayerItem@@QAEHXZ	; CBasePlayerItem::iMaxClip
	push	eax
	mov	ecx, DWORD PTR _this$[ebp]
	call	?pszAmmo1@CBasePlayerItem@@QAEPBDXZ	; CBasePlayerItem::pszAmmo1
	push	eax
	mov	eax, DWORD PTR _this$[ebp]
	mov	ecx, DWORD PTR [eax+1920]
	push	ecx
	mov	ecx, DWORD PTR _pWeapon$[ebp]
	call	?AddPrimaryAmmo@CBasePlayerWeapon@@QAEHHPADHH@Z ; CBasePlayerWeapon::AddPrimaryAmmo
	mov	DWORD PTR _iReturn$[ebp], eax

; 1273 : 		m_iDefaultAmmo = 0;

	mov	eax, DWORD PTR _this$[ebp]
	mov	DWORD PTR [eax+1920], 0
$LN2@ExtractAmm:

; 1274 : 	}
; 1275 : 
; 1276 : 	if ( pszAmmo2() != NULL )

	mov	ecx, DWORD PTR _this$[ebp]
	call	?pszAmmo2@CBasePlayerItem@@QAEPBDXZ	; CBasePlayerItem::pszAmmo2
	test	eax, eax
	je	SHORT $LN3@ExtractAmm

; 1277 : 		iReturn = pWeapon->AddSecondaryAmmo( 0, (char *)pszAmmo2(), iMaxAmmo2() );

	mov	ecx, DWORD PTR _this$[ebp]
	call	?iMaxAmmo2@CBasePlayerItem@@QAEHXZ	; CBasePlayerItem::iMaxAmmo2
	push	eax
	mov	ecx, DWORD PTR _this$[ebp]
	call	?pszAmmo2@CBasePlayerItem@@QAEPBDXZ	; CBasePlayerItem::pszAmmo2
	push	eax
	push	0
	mov	ecx, DWORD PTR _pWeapon$[ebp]
	call	?AddSecondaryAmmo@CBasePlayerWeapon@@QAEHHPADH@Z ; CBasePlayerWeapon::AddSecondaryAmmo
	mov	DWORD PTR _iReturn$[ebp], eax
$LN3@ExtractAmm:

; 1278 : 
; 1279 : 	return iReturn;

	mov	eax, DWORD PTR _iReturn$[ebp]

; 1280 : }

	pop	edi
	pop	esi
	pop	ebx
	mov	esp, ebp
	pop	ebp
	ret	4
?ExtractAmmo@CBasePlayerWeapon@@UAEHPAV1@@Z ENDP	; CBasePlayerWeapon::ExtractAmmo
_TEXT	ENDS
; Function compile flags: /Odtp /ZI
; File d:\!diffusion 2020\source code 2022\client-server\server\weapons\weapons.cpp
;	COMDAT ?AddDuplicate@CBasePlayerWeapon@@UAEHPAVCBasePlayerItem@@@Z
_TEXT	SEGMENT
_this$ = -4						; size = 4
_pOriginal$ = 8						; size = 4
?AddDuplicate@CBasePlayerWeapon@@UAEHPAVCBasePlayerItem@@@Z PROC ; CBasePlayerWeapon::AddDuplicate, COMDAT
; _this$ = ecx

; 878  : {

	push	ebp
	mov	ebp, esp
	sub	esp, 68					; 00000044H
	push	ebx
	push	esi
	push	edi
	mov	DWORD PTR _this$[ebp], ecx

; 879  : 	if ( m_iDefaultAmmo )

	mov	eax, DWORD PTR _this$[ebp]
	cmp	DWORD PTR [eax+1920], 0
	je	SHORT $LN2@AddDuplica

; 880  : 	{
; 881  : 		return ExtractAmmo( (CBasePlayerWeapon *)pOriginal );

	mov	eax, DWORD PTR _pOriginal$[ebp]
	push	eax
	mov	ecx, DWORD PTR _this$[ebp]
	mov	edx, DWORD PTR [ecx]
	mov	ecx, DWORD PTR _this$[ebp]
	mov	eax, DWORD PTR [edx+452]
	call	eax
	jmp	SHORT $LN1@AddDuplica

; 882  : 	}
; 883  : 	else

	jmp	SHORT $LN1@AddDuplica
$LN2@AddDuplica:

; 884  : 	{
; 885  : 		// a dead player dropped this.
; 886  : 		return ExtractClipAmmo( (CBasePlayerWeapon *)pOriginal );

	mov	eax, DWORD PTR _pOriginal$[ebp]
	push	eax
	mov	ecx, DWORD PTR _this$[ebp]
	mov	edx, DWORD PTR [ecx]
	mov	ecx, DWORD PTR _this$[ebp]
	mov	eax, DWORD PTR [edx+456]
	call	eax
$LN1@AddDuplica:

; 887  : 	}
; 888  : }

	pop	edi
	pop	esi
	pop	ebx
	mov	esp, ebp
	pop	ebp
	ret	4
?AddDuplicate@CBasePlayerWeapon@@UAEHPAVCBasePlayerItem@@@Z ENDP ; CBasePlayerWeapon::AddDuplicate
_TEXT	ENDS
; Function compile flags: /Odtp /ZI
; File d:\!diffusion 2020\source code 2022\client-server\server\weapons\weapons.cpp
;	COMDAT ?AddToPlayer@CBasePlayerWeapon@@UAEHPAVCBasePlayer@@@Z
_TEXT	SEGMENT
_bResult$ = -8						; size = 4
_this$ = -4						; size = 4
_pPlayer$ = 8						; size = 4
?AddToPlayer@CBasePlayerWeapon@@UAEHPAVCBasePlayer@@@Z PROC ; CBasePlayerWeapon::AddToPlayer, COMDAT
; _this$ = ecx

; 892  : {	

	push	ebp
	mov	ebp, esp
	sub	esp, 72					; 00000048H
	push	ebx
	push	esi
	push	edi
	mov	DWORD PTR _this$[ebp], ecx

; 893  : 	int bResult = CBasePlayerItem::AddToPlayer( pPlayer );

	mov	eax, DWORD PTR _pPlayer$[ebp]
	push	eax
	mov	ecx, DWORD PTR _this$[ebp]
	call	?AddToPlayer@CBasePlayerItem@@UAEHPAVCBasePlayer@@@Z ; CBasePlayerItem::AddToPlayer
	mov	DWORD PTR _bResult$[ebp], eax

; 894  : 
; 895  : 	pPlayer->AddWeapon( m_iId );

	mov	eax, DWORD PTR _this$[ebp]
	mov	ecx, DWORD PTR [eax+1864]
	push	ecx
	mov	ecx, DWORD PTR _pPlayer$[ebp]
	call	?AddWeapon@CBaseMonster@@QAEXH@Z	; CBaseMonster::AddWeapon

; 896  : 
; 897  : 	if ( !m_iPrimaryAmmoType )

	mov	eax, DWORD PTR _this$[ebp]
	cmp	DWORD PTR [eax+1896], 0
	jne	SHORT $LN2@AddToPlaye

; 898  : 	{
; 899  : 		m_iPrimaryAmmoType = pPlayer->GetAmmoIndex( pszAmmo1() );

	mov	ecx, DWORD PTR _this$[ebp]
	call	?pszAmmo1@CBasePlayerItem@@QAEPBDXZ	; CBasePlayerItem::pszAmmo1
	push	eax
	call	?GetAmmoIndex@CBasePlayer@@SAHPBD@Z	; CBasePlayer::GetAmmoIndex
	add	esp, 4
	mov	ecx, DWORD PTR _this$[ebp]
	mov	DWORD PTR [ecx+1896], eax

; 900  : 		m_iSecondaryAmmoType = pPlayer->GetAmmoIndex( pszAmmo2() );

	mov	ecx, DWORD PTR _this$[ebp]
	call	?pszAmmo2@CBasePlayerItem@@QAEPBDXZ	; CBasePlayerItem::pszAmmo2
	push	eax
	call	?GetAmmoIndex@CBasePlayer@@SAHPBD@Z	; CBasePlayer::GetAmmoIndex
	add	esp, 4
	mov	ecx, DWORD PTR _this$[ebp]
	mov	DWORD PTR [ecx+1900], eax
$LN2@AddToPlaye:

; 901  : 	}
; 902  : 
; 903  : 	if (bResult)

	cmp	DWORD PTR _bResult$[ebp], 0
	je	SHORT $LN3@AddToPlaye

; 904  : 		return AddWeapon( );

	mov	eax, DWORD PTR _this$[ebp]
	mov	edx, DWORD PTR [eax]
	mov	ecx, DWORD PTR _this$[ebp]
	mov	eax, DWORD PTR [edx+460]
	call	eax
	jmp	SHORT $LN1@AddToPlaye
$LN3@AddToPlaye:

; 905  : 
; 906  : 	return FALSE;

	xor	eax, eax
$LN1@AddToPlaye:

; 907  : }

	pop	edi
	pop	esi
	pop	ebx
	mov	esp, ebp
	pop	ebp
	ret	4
?AddToPlayer@CBasePlayerWeapon@@UAEHPAVCBasePlayer@@@Z ENDP ; CBasePlayerWeapon::AddToPlayer
_TEXT	ENDS
; Function compile flags: /Odtp /ZI
; File d:\!diffusion 2020\source code 2022\client-server\server\weapons\weapons.cpp
;	COMDAT ?GetDataDescMap@CBasePlayerWeapon@@UAEPAUdatamap_s@@XZ
_TEXT	SEGMENT
_this$ = -4						; size = 4
?GetDataDescMap@CBasePlayerWeapon@@UAEPAUdatamap_s@@XZ PROC ; CBasePlayerWeapon::GetDataDescMap, COMDAT
; _this$ = ecx

; 536  : BEGIN_DATADESC( CBasePlayerWeapon )

	push	ebp
	mov	ebp, esp
	sub	esp, 68					; 00000044H
	push	ebx
	push	esi
	push	edi
	mov	DWORD PTR _this$[ebp], ecx
	mov	eax, OFFSET ?m_DataMap@CBasePlayerWeapon@@2Udatamap_s@@A ; CBasePlayerWeapon::m_DataMap
	pop	edi
	pop	esi
	pop	ebx
	mov	esp, ebp
	pop	ebp
	ret	0
?GetDataDescMap@CBasePlayerWeapon@@UAEPAUdatamap_s@@XZ ENDP ; CBasePlayerWeapon::GetDataDescMap
_TEXT	ENDS
; Function compile flags: /Odtp /ZI
; File d:\!diffusion 2020\source code 2022\client-server\server\weapons\weapons.cpp
;	COMDAT ?GetBaseMap@CBasePlayerWeapon@@SAPAUdatamap_s@@XZ
_TEXT	SEGMENT
_pResult$ = -4						; size = 4
?GetBaseMap@CBasePlayerWeapon@@SAPAUdatamap_s@@XZ PROC	; CBasePlayerWeapon::GetBaseMap, COMDAT

; 536  : BEGIN_DATADESC( CBasePlayerWeapon )

	push	ebp
	mov	ebp, esp
	sub	esp, 68					; 00000044H
	push	ebx
	push	esi
	push	edi
	lea	eax, DWORD PTR _pResult$[ebp]
	push	eax
	push	0
	call	??$DataMapAccess@VCBasePlayerItem@@@@YAXPAVCBasePlayerItem@@PAPAUdatamap_s@@@Z ; DataMapAccess<CBasePlayerItem>
	add	esp, 8
	mov	eax, DWORD PTR _pResult$[ebp]
	pop	edi
	pop	esi
	pop	ebx
	mov	esp, ebp
	pop	ebp
	ret	0
?GetBaseMap@CBasePlayerWeapon@@SAPAUdatamap_s@@XZ ENDP	; CBasePlayerWeapon::GetBaseMap
_TEXT	ENDS
; Function compile flags: /Odtp /ZI
; File d:\!diffusion 2020\source code 2022\client-server\server\weapons\weapons.h
;	COMDAT ?iFlags@CBasePlayerItem@@QAEHXZ
_TEXT	SEGMENT
_this$ = -4						; size = 4
?iFlags@CBasePlayerItem@@QAEHXZ PROC			; CBasePlayerItem::iFlags, COMDAT
; _this$ = ecx

; 327  : 	int		iFlags( void )	{ return ItemInfoArray[ m_iId ].iFlags; }

	push	ebp
	mov	ebp, esp
	sub	esp, 68					; 00000044H
	push	ebx
	push	esi
	push	edi
	mov	DWORD PTR _this$[ebp], ecx
	mov	eax, DWORD PTR _this$[ebp]
	imul	ecx, DWORD PTR [eax+1864], 44
	mov	eax, DWORD PTR ?ItemInfoArray@CBasePlayerItem@@2PAUItemInfo@@A[ecx+36]
	pop	edi
	pop	esi
	pop	ebx
	mov	esp, ebp
	pop	ebp
	ret	0
?iFlags@CBasePlayerItem@@QAEHXZ ENDP			; CBasePlayerItem::iFlags
_TEXT	ENDS
; Function compile flags: /Odtp /ZI
; File d:\!diffusion 2020\source code 2022\client-server\server\weapons\weapons.h
;	COMDAT ?iMaxClip@CBasePlayerItem@@QAEHXZ
_TEXT	SEGMENT
_this$ = -4						; size = 4
?iMaxClip@CBasePlayerItem@@QAEHXZ PROC			; CBasePlayerItem::iMaxClip, COMDAT
; _this$ = ecx

; 325  : 	int		iMaxClip( void )	{ return ItemInfoArray[ m_iId ].iMaxClip; }

	push	ebp
	mov	ebp, esp
	sub	esp, 68					; 00000044H
	push	ebx
	push	esi
	push	edi
	mov	DWORD PTR _this$[ebp], ecx
	mov	eax, DWORD PTR _this$[ebp]
	imul	ecx, DWORD PTR [eax+1864], 44
	mov	eax, DWORD PTR ?ItemInfoArray@CBasePlayerItem@@2PAUItemInfo@@A[ecx+28]
	pop	edi
	pop	esi
	pop	ebx
	mov	esp, ebp
	pop	ebp
	ret	0
?iMaxClip@CBasePlayerItem@@QAEHXZ ENDP			; CBasePlayerItem::iMaxClip
_TEXT	ENDS
; Function compile flags: /Odtp /ZI
; File d:\!diffusion 2020\source code 2022\client-server\server\weapons\weapons.h
;	COMDAT ?iMaxAmmo2@CBasePlayerItem@@QAEHXZ
_TEXT	SEGMENT
_this$ = -4						; size = 4
?iMaxAmmo2@CBasePlayerItem@@QAEHXZ PROC			; CBasePlayerItem::iMaxAmmo2, COMDAT
; _this$ = ecx

; 323  : 	int		iMaxAmmo2( void )	{ return ItemInfoArray[ m_iId ].iMaxAmmo2; }

	push	ebp
	mov	ebp, esp
	sub	esp, 68					; 00000044H
	push	ebx
	push	esi
	push	edi
	mov	DWORD PTR _this$[ebp], ecx
	mov	eax, DWORD PTR _this$[ebp]
	imul	ecx, DWORD PTR [eax+1864], 44
	mov	eax, DWORD PTR ?ItemInfoArray@CBasePlayerItem@@2PAUItemInfo@@A[ecx+20]
	pop	edi
	pop	esi
	pop	ebx
	mov	esp, ebp
	pop	ebp
	ret	0
?iMaxAmmo2@CBasePlayerItem@@QAEHXZ ENDP			; CBasePlayerItem::iMaxAmmo2
_TEXT	ENDS
; Function compile flags: /Odtp /ZI
; File d:\!diffusion 2020\source code 2022\client-server\server\weapons\weapons.h
;	COMDAT ?pszAmmo2@CBasePlayerItem@@QAEPBDXZ
_TEXT	SEGMENT
_this$ = -4						; size = 4
?pszAmmo2@CBasePlayerItem@@QAEPBDXZ PROC		; CBasePlayerItem::pszAmmo2, COMDAT
; _this$ = ecx

; 322  : 	const char	*pszAmmo2( void )	{ return ItemInfoArray[ m_iId ].pszAmmo2; }

	push	ebp
	mov	ebp, esp
	sub	esp, 68					; 00000044H
	push	ebx
	push	esi
	push	edi
	mov	DWORD PTR _this$[ebp], ecx
	mov	eax, DWORD PTR _this$[ebp]
	imul	ecx, DWORD PTR [eax+1864], 44
	mov	eax, DWORD PTR ?ItemInfoArray@CBasePlayerItem@@2PAUItemInfo@@A[ecx+16]
	pop	edi
	pop	esi
	pop	ebx
	mov	esp, ebp
	pop	ebp
	ret	0
?pszAmmo2@CBasePlayerItem@@QAEPBDXZ ENDP		; CBasePlayerItem::pszAmmo2
_TEXT	ENDS
; Function compile flags: /Odtp /ZI
; File d:\!diffusion 2020\source code 2022\client-server\server\weapons\weapons.h
;	COMDAT ?iMaxAmmo1@CBasePlayerItem@@QAEHXZ
_TEXT	SEGMENT
_this$ = -4						; size = 4
?iMaxAmmo1@CBasePlayerItem@@QAEHXZ PROC			; CBasePlayerItem::iMaxAmmo1, COMDAT
; _this$ = ecx

; 321  : 	int		iMaxAmmo1( void )	{ return ItemInfoArray[ m_iId ].iMaxAmmo1; }

	push	ebp
	mov	ebp, esp
	sub	esp, 68					; 00000044H
	push	ebx
	push	esi
	push	edi
	mov	DWORD PTR _this$[ebp], ecx
	mov	eax, DWORD PTR _this$[ebp]
	imul	ecx, DWORD PTR [eax+1864], 44
	mov	eax, DWORD PTR ?ItemInfoArray@CBasePlayerItem@@2PAUItemInfo@@A[ecx+12]
	pop	edi
	pop	esi
	pop	ebx
	mov	esp, ebp
	pop	ebp
	ret	0
?iMaxAmmo1@CBasePlayerItem@@QAEHXZ ENDP			; CBasePlayerItem::iMaxAmmo1
_TEXT	ENDS
; Function compile flags: /Odtp /ZI
; File d:\!diffusion 2020\source code 2022\client-server\server\weapons\weapons.h
;	COMDAT ?pszAmmo1@CBasePlayerItem@@QAEPBDXZ
_TEXT	SEGMENT
_this$ = -4						; size = 4
?pszAmmo1@CBasePlayerItem@@QAEPBDXZ PROC		; CBasePlayerItem::pszAmmo1, COMDAT
; _this$ = ecx

; 320  : 	const char	*pszAmmo1( void )	{ return ItemInfoArray[ m_iId ].pszAmmo1; }

	push	ebp
	mov	ebp, esp
	sub	esp, 68					; 00000044H
	push	ebx
	push	esi
	push	edi
	mov	DWORD PTR _this$[ebp], ecx
	mov	eax, DWORD PTR _this$[ebp]
	imul	ecx, DWORD PTR [eax+1864], 44
	mov	eax, DWORD PTR ?ItemInfoArray@CBasePlayerItem@@2PAUItemInfo@@A[ecx+8]
	pop	edi
	pop	esi
	pop	ebx
	mov	esp, ebp
	pop	ebp
	ret	0
?pszAmmo1@CBasePlayerItem@@QAEPBDXZ ENDP		; CBasePlayerItem::pszAmmo1
_TEXT	ENDS
; Function compile flags: /Odtp /ZI
; File d:\!diffusion 2020\source code 2022\client-server\server\weapons\weapons.cpp
;	COMDAT ?AttachToPlayer@CBasePlayerItem@@UAEXPAVCBasePlayer@@@Z
_TEXT	SEGMENT
_this$ = -4						; size = 4
_pPlayer$ = 8						; size = 4
?AttachToPlayer@CBasePlayerItem@@UAEXPAVCBasePlayer@@@Z PROC ; CBasePlayerItem::AttachToPlayer, COMDAT
; _this$ = ecx

; 861  : {

	push	ebp
	mov	ebp, esp
	sub	esp, 68					; 00000044H
	push	ebx
	push	esi
	push	edi
	mov	DWORD PTR _this$[ebp], ecx

; 862  : 	pev->movetype = MOVETYPE_FOLLOW;

	mov	eax, DWORD PTR _this$[ebp]
	mov	ecx, DWORD PTR [eax+4]
	mov	DWORD PTR [ecx+264], 12			; 0000000cH

; 863  : 	pev->solid = SOLID_NOT;

	mov	eax, DWORD PTR _this$[ebp]
	mov	ecx, DWORD PTR [eax+4]
	mov	DWORD PTR [ecx+268], 0

; 864  : 	pev->aiment = pPlayer->edict();

	mov	ecx, DWORD PTR _pPlayer$[ebp]
	call	?edict@CBaseEntity@@QAEPAUedict_s@@XZ	; CBaseEntity::edict
	mov	ecx, DWORD PTR _this$[ebp]
	mov	edx, DWORD PTR [ecx+4]
	mov	DWORD PTR [edx+404], eax

; 865  : 	pev->effects = EF_NODRAW; // ??

	mov	eax, DWORD PTR _this$[ebp]
	mov	ecx, DWORD PTR [eax+4]
	mov	DWORD PTR [ecx+280], 128		; 00000080H

; 866  : 	pev->modelindex = 0;// server won't send down to clients if modelindex == 0

	mov	eax, DWORD PTR _this$[ebp]
	mov	ecx, DWORD PTR [eax+4]
	mov	DWORD PTR [ecx+180], 0

; 867  : 	pev->model = iStringNull;

	mov	eax, DWORD PTR _this$[ebp]
	mov	ecx, DWORD PTR [eax+4]
	mov	DWORD PTR [ecx+184], 0

; 868  : 	pev->owner = pPlayer->edict();

	mov	ecx, DWORD PTR _pPlayer$[ebp]
	call	?edict@CBaseEntity@@QAEPAUedict_s@@XZ	; CBaseEntity::edict
	mov	ecx, DWORD PTR _this$[ebp]
	mov	edx, DWORD PTR [ecx+4]
	mov	DWORD PTR [edx+408], eax

; 869  : 	SetNextThink(0.1);

	push	ecx
	movss	xmm0, DWORD PTR __real@3dcccccd
	movss	DWORD PTR [esp], xmm0
	mov	eax, DWORD PTR _this$[ebp]
	mov	edx, DWORD PTR [eax]
	mov	ecx, DWORD PTR _this$[ebp]
	mov	eax, DWORD PTR [edx+80]
	call	eax

; 870  : 
; 871  : 	SetParent( NULL );

	push	0
	push	0
	mov	ecx, DWORD PTR _this$[ebp]
	call	?SetParent@CBaseEntity@@QAEXHH@Z	; CBaseEntity::SetParent

; 872  : 	SetTouch( NULL );

	push	OFFSET ??_C@_04HIBGFPH@NULL?$AA@
	push	0
	mov	ecx, DWORD PTR _this$[ebp]
	call	?TouchSet@CBaseEntity@@QAEP81@AEXPAV1@@ZP81@AEX0@ZPAD@Z ; CBaseEntity::TouchSet

; 873  : 	SetThink( NULL );

	push	OFFSET ??_C@_04HIBGFPH@NULL?$AA@
	push	0
	mov	ecx, DWORD PTR _this$[ebp]
	call	?ThinkSet@CBaseEntity@@QAEP81@AEXXZP81@AEXXZPAD@Z ; CBaseEntity::ThinkSet

; 874  : }

	pop	edi
	pop	esi
	pop	ebx
	mov	esp, ebp
	pop	ebp
	ret	4
?AttachToPlayer@CBasePlayerItem@@UAEXPAVCBasePlayer@@@Z ENDP ; CBasePlayerItem::AttachToPlayer
_TEXT	ENDS
; Function compile flags: /Odtp /ZI
; File d:\!diffusion 2020\source code 2022\client-server\server\weapons\weapons.cpp
;	COMDAT ?Kill@CBasePlayerItem@@UAEXXZ
_TEXT	SEGMENT
_this$ = -4						; size = 4
?Kill@CBasePlayerItem@@UAEXXZ PROC			; CBasePlayerItem::Kill, COMDAT
; _this$ = ecx

; 848  : {

	push	ebp
	mov	ebp, esp
	sub	esp, 68					; 00000044H
	push	ebx
	push	esi
	push	edi
	mov	DWORD PTR _this$[ebp], ecx

; 849  : 	SetTouch( NULL );

	push	OFFSET ??_C@_04HIBGFPH@NULL?$AA@
	push	0
	mov	ecx, DWORD PTR _this$[ebp]
	call	?TouchSet@CBaseEntity@@QAEP81@AEXPAV1@@ZP81@AEX0@ZPAD@Z ; CBaseEntity::TouchSet

; 850  : 	SetThink(&CBaseEntity::SUB_Remove);

	push	OFFSET ??_C@_0BJ@EIFNLFLK@?$CGCBaseEntity?3?3SUB_Remove?$AA@
	push	OFFSET ?SUB_Remove@CBaseEntity@@QAEXXZ	; CBaseEntity::SUB_Remove
	mov	ecx, DWORD PTR _this$[ebp]
	call	?ThinkSet@CBaseEntity@@QAEP81@AEXXZP81@AEXXZPAD@Z ; CBaseEntity::ThinkSet

; 851  : 	pev->nextthink = gpGlobals->time + .1;

	mov	eax, DWORD PTR ?gpGlobals@@3PAUglobalvars_t@@A ; gpGlobals
	cvtss2sd xmm0, DWORD PTR [eax]
	addsd	xmm0, QWORD PTR __real@3fb999999999999a
	cvtsd2ss xmm0, xmm0
	mov	ecx, DWORD PTR _this$[ebp]
	mov	edx, DWORD PTR [ecx+4]
	movss	DWORD PTR [edx+260], xmm0

; 852  : }

	pop	edi
	pop	esi
	pop	ebx
	mov	esp, ebp
	pop	ebp
	ret	0
?Kill@CBasePlayerItem@@UAEXXZ ENDP			; CBasePlayerItem::Kill
_TEXT	ENDS
; Function compile flags: /Odtp /ZI
; File d:\!diffusion 2020\source code 2022\client-server\server\weapons\weapons.cpp
;	COMDAT ?Drop@CBasePlayerItem@@UAEXXZ
_TEXT	SEGMENT
_this$ = -4						; size = 4
?Drop@CBasePlayerItem@@UAEXXZ PROC			; CBasePlayerItem::Drop, COMDAT
; _this$ = ecx

; 841  : {

	push	ebp
	mov	ebp, esp
	sub	esp, 68					; 00000044H
	push	ebx
	push	esi
	push	edi
	mov	DWORD PTR _this$[ebp], ecx

; 842  : 	SetTouch( NULL );

	push	OFFSET ??_C@_04HIBGFPH@NULL?$AA@
	push	0
	mov	ecx, DWORD PTR _this$[ebp]
	call	?TouchSet@CBaseEntity@@QAEP81@AEXPAV1@@ZP81@AEX0@ZPAD@Z ; CBaseEntity::TouchSet

; 843  : 	SetThink(&CBaseEntity::SUB_Remove);

	push	OFFSET ??_C@_0BJ@EIFNLFLK@?$CGCBaseEntity?3?3SUB_Remove?$AA@
	push	OFFSET ?SUB_Remove@CBaseEntity@@QAEXXZ	; CBaseEntity::SUB_Remove
	mov	ecx, DWORD PTR _this$[ebp]
	call	?ThinkSet@CBaseEntity@@QAEP81@AEXXZP81@AEXXZPAD@Z ; CBaseEntity::ThinkSet

; 844  : 	pev->nextthink = gpGlobals->time + .1;

	mov	eax, DWORD PTR ?gpGlobals@@3PAUglobalvars_t@@A ; gpGlobals
	cvtss2sd xmm0, DWORD PTR [eax]
	addsd	xmm0, QWORD PTR __real@3fb999999999999a
	cvtsd2ss xmm0, xmm0
	mov	ecx, DWORD PTR _this$[ebp]
	mov	edx, DWORD PTR [ecx+4]
	movss	DWORD PTR [edx+260], xmm0

; 845  : }

	pop	edi
	pop	esi
	pop	ebx
	mov	esp, ebp
	pop	ebp
	ret	0
?Drop@CBasePlayerItem@@UAEXXZ ENDP			; CBasePlayerItem::Drop
_TEXT	ENDS
; Function compile flags: /Odtp /ZI
; File d:\!diffusion 2020\source code 2022\client-server\server\weapons\weapons.cpp
;	COMDAT ?Holster@CBasePlayerItem@@UAEXXZ
_TEXT	SEGMENT
_this$ = -4						; size = 4
?Holster@CBasePlayerItem@@UAEXXZ PROC			; CBasePlayerItem::Holster, COMDAT
; _this$ = ecx

; 855  : { 

	push	ebp
	mov	ebp, esp
	sub	esp, 68					; 00000044H
	push	ebx
	push	esi
	push	edi
	mov	DWORD PTR _this$[ebp], ecx

; 856  : 	m_pPlayer->pev->viewmodel = 0; 

	mov	eax, DWORD PTR _this$[ebp]
	mov	ecx, DWORD PTR [eax+1856]
	mov	edx, DWORD PTR [ecx+4]
	mov	DWORD PTR [edx+188], 0

; 857  : 	m_pPlayer->pev->weaponmodel = 0;

	mov	eax, DWORD PTR _this$[ebp]
	mov	ecx, DWORD PTR [eax+1856]
	mov	edx, DWORD PTR [ecx+4]
	mov	DWORD PTR [edx+192], 0

; 858  : }

	pop	edi
	pop	esi
	pop	ebx
	mov	esp, ebp
	pop	ebp
	ret	0
?Holster@CBasePlayerItem@@UAEXXZ ENDP			; CBasePlayerItem::Holster
_TEXT	ENDS
; Function compile flags: /Odtp /ZI
; File d:\!diffusion 2020\source code 2022\client-server\server\weapons\weapons.cpp
;	COMDAT ?CheckRespawn@CBasePlayerItem@@QAEXXZ
_TEXT	SEGMENT
tv69 = -72						; size = 4
_this$ = -4						; size = 4
?CheckRespawn@CBasePlayerItem@@QAEXXZ PROC		; CBasePlayerItem::CheckRespawn, COMDAT
; _this$ = ecx

; 664  : {

	push	ebp
	mov	ebp, esp
	sub	esp, 72					; 00000048H
	push	ebx
	push	esi
	push	edi
	mov	DWORD PTR _this$[ebp], ecx

; 665  : 	switch ( g_pGameRules->WeaponShouldRespawn( this ) )

	mov	eax, DWORD PTR _this$[ebp]
	push	eax
	mov	ecx, DWORD PTR ?g_pGameRules@@3PAVCGameRules@@A ; g_pGameRules
	mov	edx, DWORD PTR [ecx]
	mov	ecx, DWORD PTR ?g_pGameRules@@3PAVCGameRules@@A ; g_pGameRules
	mov	eax, DWORD PTR [edx+124]
	call	eax
	mov	DWORD PTR tv69[ebp], eax
	cmp	DWORD PTR tv69[ebp], 1
	je	SHORT $LN4@CheckRespa
	cmp	DWORD PTR tv69[ebp], 2
	je	SHORT $LN1@CheckRespa
	jmp	SHORT $LN1@CheckRespa
$LN4@CheckRespa:

; 666  : 	{
; 667  : 	case GR_WEAPON_RESPAWN_YES:
; 668  : 		Respawn();

	mov	eax, DWORD PTR _this$[ebp]
	mov	edx, DWORD PTR [eax]
	mov	ecx, DWORD PTR _this$[ebp]
	mov	eax, DWORD PTR [edx+324]
	call	eax
$LN1@CheckRespa:

; 669  : 		break;
; 670  : 	case GR_WEAPON_RESPAWN_NO:
; 671  : 		return;
; 672  : 		break;
; 673  : 	}
; 674  : }

	pop	edi
	pop	esi
	pop	ebx
	mov	esp, ebp
	pop	ebp
	ret	0
?CheckRespawn@CBasePlayerItem@@QAEXXZ ENDP		; CBasePlayerItem::CheckRespawn
_TEXT	ENDS
; Function compile flags: /Odtp /ZI
; File d:\!diffusion 2020\source code 2022\client-server\server\weapons\weapons.cpp
;	COMDAT ?FallInit@CBasePlayerItem@@QAEXXZ
_TEXT	SEGMENT
_this$ = -4						; size = 4
?FallInit@CBasePlayerItem@@QAEXXZ PROC			; CBasePlayerItem::FallInit, COMDAT
; _this$ = ecx

; 556  : {

	push	ebp
	mov	ebp, esp
	sub	esp, 68					; 00000044H
	push	ebx
	push	esi
	push	edi
	mov	DWORD PTR _this$[ebp], ecx

; 557  : 	if( !HasSpawnFlags( SF_AMMO_DONTFALL ) ) // diffusion - stop falling through the floor!!!

	push	1
	mov	eax, DWORD PTR _this$[ebp]
	mov	edx, DWORD PTR [eax]
	mov	ecx, DWORD PTR _this$[ebp]
	mov	eax, DWORD PTR [edx+268]
	call	eax
	movzx	ecx, al
	test	ecx, ecx
	jne	SHORT $LN2@FallInit

; 558  : 		pev->movetype = MOVETYPE_TOSS;

	mov	eax, DWORD PTR _this$[ebp]
	mov	ecx, DWORD PTR [eax+4]
	mov	DWORD PTR [ecx+264], 6
$LN2@FallInit:

; 559  : 	pev->solid = SOLID_BBOX;

	mov	eax, DWORD PTR _this$[ebp]
	mov	ecx, DWORD PTR [eax+4]
	mov	DWORD PTR [ecx+268], 2

; 560  : 
; 561  : 	UTIL_SetSize(pev, g_vecZero, g_vecZero );//pointsize until it lands on the ground.

	push	OFFSET ?g_vecZero@@3VVector@@B		; g_vecZero
	push	OFFSET ?g_vecZero@@3VVector@@B		; g_vecZero
	mov	eax, DWORD PTR _this$[ebp]
	mov	ecx, DWORD PTR [eax+4]
	push	ecx
	call	?UTIL_SetSize@@YAXPAUentvars_s@@ABVVector@@1@Z ; UTIL_SetSize
	add	esp, 12					; 0000000cH

; 562  : 	
; 563  : 	SetTouch( &CBasePlayerItem::DefaultTouch );

	push	OFFSET ??_C@_0BP@KLPMAHLN@?$CGCBasePlayerItem?3?3DefaultTouch?$AA@
	push	OFFSET ?DefaultTouch@CBasePlayerItem@@QAEXPAVCBaseEntity@@@Z ; CBasePlayerItem::DefaultTouch
	mov	ecx, DWORD PTR _this$[ebp]
	call	?TouchSet@CBaseEntity@@QAEP81@AEXPAV1@@ZP81@AEX0@ZPAD@Z ; CBaseEntity::TouchSet

; 564  : 	SetThink(&CBasePlayerItem::FallThink );

	push	OFFSET ??_C@_0BM@IMJCHABI@?$CGCBasePlayerItem?3?3FallThink?$AA@
	push	OFFSET ?FallThink@CBasePlayerItem@@QAEXXZ ; CBasePlayerItem::FallThink
	mov	ecx, DWORD PTR _this$[ebp]
	call	?ThinkSet@CBaseEntity@@QAEP81@AEXXZP81@AEXXZPAD@Z ; CBaseEntity::ThinkSet

; 565  : 
; 566  : 	SetFadeDistance( 1000 ); // diffusion - UNDONE should be a cvar?

	push	1000					; 000003e8H
	mov	eax, DWORD PTR _this$[ebp]
	mov	edx, DWORD PTR [eax]
	mov	ecx, DWORD PTR _this$[ebp]
	mov	eax, DWORD PTR [edx+272]
	call	eax

; 567  : 
; 568  : 	SetNextThink( 0.1 );

	push	ecx
	movss	xmm0, DWORD PTR __real@3dcccccd
	movss	DWORD PTR [esp], xmm0
	mov	eax, DWORD PTR _this$[ebp]
	mov	edx, DWORD PTR [eax]
	mov	ecx, DWORD PTR _this$[ebp]
	mov	eax, DWORD PTR [edx+80]
	call	eax

; 569  : }

	pop	edi
	pop	esi
	pop	ebx
	mov	esp, ebp
	pop	ebp
	ret	0
?FallInit@CBasePlayerItem@@QAEXXZ ENDP			; CBasePlayerItem::FallInit
_TEXT	ENDS
; Function compile flags: /Odtp /ZI
; File d:\!diffusion 2020\source code 2022\client-server\server\weapons\weapons.cpp
;	COMDAT ?Respawn@CBasePlayerItem@@UAEPAVCBaseEntity@@XZ
_TEXT	SEGMENT
$T1 = -96						; size = 12
_RestoreOrg$2 = -20					; size = 12
_pNewWeapon$ = -8					; size = 4
_this$ = -4						; size = 4
?Respawn@CBasePlayerItem@@UAEPAVCBaseEntity@@XZ PROC	; CBasePlayerItem::Respawn, COMDAT
; _this$ = ecx

; 681  : {

	push	ebp
	mov	ebp, esp
	sub	esp, 96					; 00000060H
	push	ebx
	push	esi
	push	edi
	mov	DWORD PTR _this$[ebp], ecx

; 682  : 	// make a copy of this weapon that is invisible and inaccessible to players (no touch function). The weapon spawn/respawn code
; 683  : 	// will decide when to make the weapon visible and touchable.
; 684  : 	CBaseEntity *pNewWeapon = CBaseEntity::Create( (char *)STRING( pev->classname ), g_pGameRules->VecWeaponRespawnSpot( this ), GetAbsAngles(), pev->owner );

	mov	eax, DWORD PTR _this$[ebp]
	mov	ecx, DWORD PTR [eax+4]
	mov	edx, DWORD PTR [ecx+408]
	push	edx
	mov	ecx, DWORD PTR _this$[ebp]
	call	?GetAbsAngles@CBaseEntity@@QBEABVVector@@XZ ; CBaseEntity::GetAbsAngles
	push	eax
	mov	eax, DWORD PTR _this$[ebp]
	push	eax
	lea	ecx, DWORD PTR $T1[ebp]
	push	ecx
	mov	edx, DWORD PTR ?g_pGameRules@@3PAVCGameRules@@A ; g_pGameRules
	mov	eax, DWORD PTR [edx]
	mov	ecx, DWORD PTR ?g_pGameRules@@3PAVCGameRules@@A ; g_pGameRules
	mov	edx, DWORD PTR [eax+136]
	call	edx
	push	eax
	mov	eax, DWORD PTR _this$[ebp]
	mov	ecx, DWORD PTR [eax+4]
	mov	edx, DWORD PTR [ecx]
	push	edx
	call	DWORD PTR ?g_engfuncs@@3Uenginefuncs_s@@A+264
	add	esp, 4
	push	eax
	call	?Create@CBaseEntity@@SAPAV1@PADABVVector@@1PAUedict_s@@@Z ; CBaseEntity::Create
	add	esp, 16					; 00000010H
	mov	DWORD PTR _pNewWeapon$[ebp], eax

; 685  : 	if ( pNewWeapon )

	cmp	DWORD PTR _pNewWeapon$[ebp], 0
	je	$LN2@Respawn

; 686  : 	{
; 687  : 		pNewWeapon->pev->spawnflags = pev->spawnflags;

	mov	eax, DWORD PTR _this$[ebp]
	mov	ecx, DWORD PTR [eax+4]
	mov	edx, DWORD PTR _pNewWeapon$[ebp]
	mov	eax, DWORD PTR [edx+4]
	mov	ecx, DWORD PTR [ecx+416]
	mov	DWORD PTR [eax+416], ecx

; 688  : 		pNewWeapon->pev->effects |= EF_NODRAW;// invisible for now

	mov	eax, DWORD PTR _pNewWeapon$[ebp]
	mov	ecx, DWORD PTR [eax+4]
	mov	edx, DWORD PTR [ecx+280]
	or	edx, 128				; 00000080H
	mov	eax, DWORD PTR _pNewWeapon$[ebp]
	mov	ecx, DWORD PTR [eax+4]
	mov	DWORD PTR [ecx+280], edx

; 689  : 		pNewWeapon->SetTouch( NULL );// no touch

	push	OFFSET ??_C@_04HIBGFPH@NULL?$AA@
	push	0
	mov	ecx, DWORD PTR _pNewWeapon$[ebp]
	call	?TouchSet@CBaseEntity@@QAEP81@AEXPAV1@@ZP81@AEX0@ZPAD@Z ; CBaseEntity::TouchSet

; 690  : 		pNewWeapon->SetThink(&CBasePlayerItem::AttemptToMaterialize );

	push	OFFSET ??_C@_0CH@DALHADCA@?$CGCBasePlayerItem?3?3AttemptToMater@
	push	OFFSET ?AttemptToMaterialize@CBasePlayerItem@@QAEXXZ ; CBasePlayerItem::AttemptToMaterialize
	mov	ecx, DWORD PTR _pNewWeapon$[ebp]
	call	?ThinkSet@CBaseEntity@@QAEP81@AEXXZP81@AEXXZPAD@Z ; CBaseEntity::ThinkSet

; 691  : 
; 692  : 		if( !HasSpawnFlags( SF_AMMO_DONTFALL ) )

	push	1
	mov	eax, DWORD PTR _this$[ebp]
	mov	edx, DWORD PTR [eax]
	mov	ecx, DWORD PTR _this$[ebp]
	mov	eax, DWORD PTR [edx+268]
	call	eax
	movzx	ecx, al
	test	ecx, ecx
	jne	SHORT $LN4@Respawn

; 693  : 			UTIL_DropToFloor( this );

	mov	eax, DWORD PTR _this$[ebp]
	push	eax
	call	?UTIL_DropToFloor@@YAHPAVCBaseEntity@@@Z ; UTIL_DropToFloor
	add	esp, 4

; 694  : 		else

	jmp	SHORT $LN5@Respawn
$LN4@Respawn:

; 695  : 		{
; 696  : 			pNewWeapon->pev->movetype = 0;

	mov	eax, DWORD PTR _pNewWeapon$[ebp]
	mov	ecx, DWORD PTR [eax+4]
	mov	DWORD PTR [ecx+264], 0

; 697  : 			Vector RestoreOrg = GetAbsOrigin();

	mov	ecx, DWORD PTR _this$[ebp]
	call	?GetAbsOrigin@CBaseEntity@@QBEABVVector@@XZ ; CBaseEntity::GetAbsOrigin
	push	eax
	lea	ecx, DWORD PTR _RestoreOrg$2[ebp]
	call	??0Vector@@QAE@ABV0@@Z			; Vector::Vector

; 698  : 			pNewWeapon->SetAbsOrigin( RestoreOrg );

	lea	eax, DWORD PTR _RestoreOrg$2[ebp]
	push	eax
	mov	ecx, DWORD PTR _pNewWeapon$[ebp]
	call	?SetAbsOrigin@CBaseEntity@@QAEXABVVector@@@Z ; CBaseEntity::SetAbsOrigin
$LN5@Respawn:

; 699  : 		}
; 700  : 
; 701  : 		// not a typo! We want to know when the weapon the player just picked up should respawn! This new entity we created is the replacement,
; 702  : 		// but when it should respawn is based on conditions belonging to the weapon that was taken.
; 703  : 		pNewWeapon->pev->nextthink = g_pGameRules->FlWeaponRespawnTime( this );

	mov	eax, DWORD PTR _this$[ebp]
	push	eax
	mov	ecx, DWORD PTR ?g_pGameRules@@3PAVCGameRules@@A ; g_pGameRules
	mov	edx, DWORD PTR [ecx]
	mov	ecx, DWORD PTR ?g_pGameRules@@3PAVCGameRules@@A ; g_pGameRules
	mov	eax, DWORD PTR [edx+128]
	call	eax
	mov	ecx, DWORD PTR _pNewWeapon$[ebp]
	mov	edx, DWORD PTR [ecx+4]
	fstp	DWORD PTR [edx+260]

; 704  : 	}
; 705  : 	else

	jmp	SHORT $LN3@Respawn
$LN2@Respawn:

; 706  : 		ALERT ( at_console, "Respawn failed to create %s!\n", STRING( pev->classname ) );

	mov	eax, DWORD PTR _this$[ebp]
	mov	ecx, DWORD PTR [eax+4]
	mov	edx, DWORD PTR [ecx]
	push	edx
	call	DWORD PTR ?g_engfuncs@@3Uenginefuncs_s@@A+264
	add	esp, 4
	push	eax
	push	OFFSET ??_C@_0BO@FBKEEOOJ@Respawn?5failed?5to?5create?5?$CFs?$CB?6?$AA@
	push	1
	call	DWORD PTR ?g_engfuncs@@3Uenginefuncs_s@@A+244
	add	esp, 12					; 0000000cH
$LN3@Respawn:

; 707  : 
; 708  : 	return pNewWeapon;

	mov	eax, DWORD PTR _pNewWeapon$[ebp]

; 709  : }

	pop	edi
	pop	esi
	pop	ebx
	mov	esp, ebp
	pop	ebp
	ret	0
?Respawn@CBasePlayerItem@@UAEPAVCBaseEntity@@XZ ENDP	; CBasePlayerItem::Respawn
_TEXT	ENDS
; Function compile flags: /Odtp /ZI
; File d:\!diffusion 2020\source code 2022\client-server\server\weapons\weapons.cpp
;	COMDAT ?AttemptToMaterialize@CBasePlayerItem@@QAEXXZ
_TEXT	SEGMENT
_time$ = -8						; size = 4
_this$ = -4						; size = 4
?AttemptToMaterialize@CBasePlayerItem@@QAEXXZ PROC	; CBasePlayerItem::AttemptToMaterialize, COMDAT
; _this$ = ecx

; 647  : {

	push	ebp
	mov	ebp, esp
	sub	esp, 72					; 00000048H
	push	ebx
	push	esi
	push	edi
	mov	DWORD PTR _this$[ebp], ecx

; 648  : 	float time = g_pGameRules->FlWeaponTryRespawn( this );

	mov	eax, DWORD PTR _this$[ebp]
	push	eax
	mov	ecx, DWORD PTR ?g_pGameRules@@3PAVCGameRules@@A ; g_pGameRules
	mov	edx, DWORD PTR [ecx]
	mov	ecx, DWORD PTR ?g_pGameRules@@3PAVCGameRules@@A ; g_pGameRules
	mov	eax, DWORD PTR [edx+132]
	call	eax
	fstp	DWORD PTR _time$[ebp]

; 649  : 
; 650  : 	if ( time == 0 )

	movss	xmm0, DWORD PTR _time$[ebp]
	ucomiss	xmm0, DWORD PTR __real@00000000
	lahf
	test	ah, 68					; 00000044H
	jp	SHORT $LN2@AttemptToM

; 651  : 	{
; 652  : 		Materialize();

	mov	ecx, DWORD PTR _this$[ebp]
	call	?Materialize@CBasePlayerItem@@QAEXXZ	; CBasePlayerItem::Materialize

; 653  : 		return;

	jmp	SHORT $LN1@AttemptToM
$LN2@AttemptToM:

; 654  : 	}
; 655  : 
; 656  : 	SetNextThink(time);

	push	ecx
	movss	xmm0, DWORD PTR _time$[ebp]
	movss	DWORD PTR [esp], xmm0
	mov	eax, DWORD PTR _this$[ebp]
	mov	edx, DWORD PTR [eax]
	mov	ecx, DWORD PTR _this$[ebp]
	mov	eax, DWORD PTR [edx+80]
	call	eax
$LN1@AttemptToM:

; 657  : }

	pop	edi
	pop	esi
	pop	ebx
	mov	esp, ebp
	pop	ebp
	ret	0
?AttemptToMaterialize@CBasePlayerItem@@QAEXXZ ENDP	; CBasePlayerItem::AttemptToMaterialize
_TEXT	ENDS
; Function compile flags: /Odtp /ZI
; File d:\!diffusion 2020\source code 2022\client-server\server\weapons\weapons.cpp
;	COMDAT ?Materialize@CBasePlayerItem@@QAEXXZ
_TEXT	SEGMENT
_this$ = -4						; size = 4
?Materialize@CBasePlayerItem@@QAEXXZ PROC		; CBasePlayerItem::Materialize, COMDAT
; _this$ = ecx

; 620  : {

	push	ebp
	mov	ebp, esp
	sub	esp, 68					; 00000044H
	push	ebx
	push	esi
	push	edi
	mov	DWORD PTR _this$[ebp], ecx

; 621  : 	if ( pev->effects & EF_NODRAW )

	mov	eax, DWORD PTR _this$[ebp]
	mov	ecx, DWORD PTR [eax+4]
	mov	edx, DWORD PTR [ecx+280]
	and	edx, 128				; 00000080H
	je	SHORT $LN2@Materializ

; 622  : 	{
; 623  : 		// changing from invisible state to visible.
; 624  : 		EMIT_SOUND_DYN( ENT(pev), CHAN_WEAPON, SND_AMMO_RESPAWN, 1, ATTN_NORM, 0, 150 );

	push	150					; 00000096H
	push	0
	push	ecx
	movss	xmm0, DWORD PTR __real@3f4ccccd
	movss	DWORD PTR [esp], xmm0
	push	ecx
	movss	xmm0, DWORD PTR __real@3f800000
	movss	DWORD PTR [esp], xmm0
	push	OFFSET ??_C@_0BI@KOCMOAHK@items?1suitchargeok1?4wav?$AA@
	push	1
	mov	eax, DWORD PTR _this$[ebp]
	mov	ecx, DWORD PTR [eax+4]
	push	ecx
	call	?ENT@@YAPAUedict_s@@PBUentvars_s@@@Z	; ENT
	add	esp, 4
	push	eax
	call	?EMIT_SOUND_DYN@@YAXPAUedict_s@@HPBDMMHH@Z ; EMIT_SOUND_DYN
	add	esp, 28					; 0000001cH

; 625  : 		pev->effects &= ~EF_NODRAW;

	mov	eax, DWORD PTR _this$[ebp]
	mov	ecx, DWORD PTR [eax+4]
	mov	edx, DWORD PTR [ecx+280]
	and	edx, -129				; ffffff7fH
	mov	eax, DWORD PTR _this$[ebp]
	mov	ecx, DWORD PTR [eax+4]
	mov	DWORD PTR [ecx+280], edx

; 626  : 		pev->effects |= EF_MUZZLEFLASH;

	mov	eax, DWORD PTR _this$[ebp]
	mov	ecx, DWORD PTR [eax+4]
	mov	edx, DWORD PTR [ecx+280]
	or	edx, 2
	mov	eax, DWORD PTR _this$[ebp]
	mov	ecx, DWORD PTR [eax+4]
	mov	DWORD PTR [ecx+280], edx
$LN2@Materializ:

; 627  : 	}
; 628  : 
; 629  : 	pev->solid = SOLID_TRIGGER;

	mov	eax, DWORD PTR _this$[ebp]
	mov	ecx, DWORD PTR [eax+4]
	mov	DWORD PTR [ecx+268], 1

; 630  : 
; 631  : 	RelinkEntity( TRUE ); // link into world.

	push	0
	push	0
	push	1
	mov	ecx, DWORD PTR _this$[ebp]
	call	?RelinkEntity@CBaseEntity@@QAEXHPBVVector@@H@Z ; CBaseEntity::RelinkEntity

; 632  : 	SetTouch (&CBasePlayerItem::DefaultTouch);

	push	OFFSET ??_C@_0BP@KLPMAHLN@?$CGCBasePlayerItem?3?3DefaultTouch?$AA@
	push	OFFSET ?DefaultTouch@CBasePlayerItem@@QAEXPAVCBaseEntity@@@Z ; CBasePlayerItem::DefaultTouch
	mov	ecx, DWORD PTR _this$[ebp]
	call	?TouchSet@CBaseEntity@@QAEP81@AEXPAV1@@ZP81@AEX0@ZPAD@Z ; CBaseEntity::TouchSet

; 633  : 	SetThink (NULL);

	push	OFFSET ??_C@_04HIBGFPH@NULL?$AA@
	push	0
	mov	ecx, DWORD PTR _this$[ebp]
	call	?ThinkSet@CBaseEntity@@QAEP81@AEXXZP81@AEXXZPAD@Z ; CBaseEntity::ThinkSet

; 634  : 
; 635  : 	if( HasFlag( F_WEAPON_DESPAWN ) )

	push	16					; 00000010H
	mov	eax, DWORD PTR _this$[ebp]
	mov	edx, DWORD PTR [eax]
	mov	ecx, DWORD PTR _this$[ebp]
	mov	eax, DWORD PTR [edx+280]
	call	eax
	movzx	ecx, al
	test	ecx, ecx
	je	SHORT $LN3@Materializ

; 636  : 	{
; 637  : 		SetThink( &CBasePlayerItem::Kill );

	push	OFFSET ??_C@_0BH@OEELEOCP@?$CGCBasePlayerItem?3?3Kill?$AA@
	push	OFFSET ??_9CBasePlayerItem@@$BBKI@AE	; CBasePlayerItem::`vcall'{424}'
	mov	ecx, DWORD PTR _this$[ebp]
	call	?ThinkSet@CBaseEntity@@QAEP81@AEXXZP81@AEXXZPAD@Z ; CBaseEntity::ThinkSet

; 638  : 		SetNextThink( 80 );

	push	ecx
	movss	xmm0, DWORD PTR __real@42a00000
	movss	DWORD PTR [esp], xmm0
	mov	eax, DWORD PTR _this$[ebp]
	mov	edx, DWORD PTR [eax]
	mov	ecx, DWORD PTR _this$[ebp]
	mov	eax, DWORD PTR [edx+80]
	call	eax
$LN3@Materializ:

; 639  : 	}
; 640  : }

	pop	edi
	pop	esi
	pop	ebx
	mov	esp, ebp
	pop	ebp
	ret	0
?Materialize@CBasePlayerItem@@QAEXXZ ENDP		; CBasePlayerItem::Materialize
_TEXT	ENDS
; Function compile flags: /Odtp /ZI
; File d:\!diffusion 2020\source code 2022\client-server\server\weapons\weapons.cpp
;	COMDAT ?FallThink@CBasePlayerItem@@QAEXXZ
_TEXT	SEGMENT
_pitch$1 = -20						; size = 4
_angles$ = -16						; size = 12
_this$ = -4						; size = 4
?FallThink@CBasePlayerItem@@QAEXXZ PROC			; CBasePlayerItem::FallThink, COMDAT
; _this$ = ecx

; 579  : {

	push	ebp
	mov	ebp, esp
	sub	esp, 84					; 00000054H
	push	ebx
	push	esi
	push	edi
	mov	DWORD PTR _this$[ebp], ecx

; 580  : 	SetNextThink( 0 );

	push	ecx
	xorps	xmm0, xmm0
	movss	DWORD PTR [esp], xmm0
	mov	eax, DWORD PTR _this$[ebp]
	mov	edx, DWORD PTR [eax]
	mov	ecx, DWORD PTR _this$[ebp]
	mov	eax, DWORD PTR [edx+80]
	call	eax

; 581  : 	Vector angles = GetAbsAngles();

	mov	ecx, DWORD PTR _this$[ebp]
	call	?GetAbsAngles@CBaseEntity@@QBEABVVector@@XZ ; CBaseEntity::GetAbsAngles
	push	eax
	lea	ecx, DWORD PTR _angles$[ebp]
	call	??0Vector@@QAE@ABV0@@Z			; Vector::Vector

; 582  : 
; 583  : 	if ( (pev->flags & FL_ONGROUND) || HasSpawnFlags( SF_AMMO_DONTFALL ) )

	mov	eax, DWORD PTR _this$[ebp]
	mov	ecx, DWORD PTR [eax+4]
	mov	edx, DWORD PTR [ecx+420]
	and	edx, 512				; 00000200H
	jne	SHORT $LN3@FallThink
	push	1
	mov	eax, DWORD PTR _this$[ebp]
	mov	edx, DWORD PTR [eax]
	mov	ecx, DWORD PTR _this$[ebp]
	mov	eax, DWORD PTR [edx+268]
	call	eax
	movzx	ecx, al
	test	ecx, ecx
	je	$LN2@FallThink
$LN3@FallThink:

; 584  : 	{
; 585  : 		// clatter if we have an owner (i.e., dropped by someone)
; 586  : 		// don't clatter if the gun is waiting to respawn (if it's waiting, it is invisible!)
; 587  : 		// diffusion - don't clatter if the gun is set to be in fixed position
; 588  : 		if ( !FNullEnt( pev->owner ) && !HasSpawnFlags( SF_AMMO_DONTFALL ) )

	mov	eax, DWORD PTR _this$[ebp]
	mov	ecx, DWORD PTR [eax+4]
	mov	edx, DWORD PTR [ecx+408]
	push	edx
	call	?FNullEnt@@YAHPBUedict_s@@@Z		; FNullEnt
	add	esp, 4
	test	eax, eax
	jne	SHORT $LN4@FallThink
	push	1
	mov	eax, DWORD PTR _this$[ebp]
	mov	edx, DWORD PTR [eax]
	mov	ecx, DWORD PTR _this$[ebp]
	mov	eax, DWORD PTR [edx+268]
	call	eax
	movzx	ecx, al
	test	ecx, ecx
	jne	SHORT $LN4@FallThink

; 589  : 		{
; 590  : 			int pitch = 95 + RANDOM_LONG(0,29);

	push	29					; 0000001dH
	push	0
	call	DWORD PTR ?g_engfuncs@@3Uenginefuncs_s@@A+360
	add	esp, 8
	add	eax, 95					; 0000005fH
	mov	DWORD PTR _pitch$1[ebp], eax

; 591  : 			EMIT_SOUND_DYN(ENT(pev), CHAN_VOICE, "items/weapondrop1.wav", 1, ATTN_NORM, 0, pitch);	

	mov	eax, DWORD PTR _pitch$1[ebp]
	push	eax
	push	0
	push	ecx
	movss	xmm0, DWORD PTR __real@3f4ccccd
	movss	DWORD PTR [esp], xmm0
	push	ecx
	movss	xmm0, DWORD PTR __real@3f800000
	movss	DWORD PTR [esp], xmm0
	push	OFFSET ??_C@_0BG@CGGPMCHD@items?1weapondrop1?4wav?$AA@
	push	2
	mov	ecx, DWORD PTR _this$[ebp]
	mov	edx, DWORD PTR [ecx+4]
	push	edx
	call	?ENT@@YAPAUedict_s@@PBUentvars_s@@@Z	; ENT
	add	esp, 4
	push	eax
	call	?EMIT_SOUND_DYN@@YAXPAUedict_s@@HPBDMMHH@Z ; EMIT_SOUND_DYN
	add	esp, 28					; 0000001cH
$LN4@FallThink:

; 592  : 		}
; 593  : 
; 594  : 		// diffusion - it's suspended in air, so we may rotate our gun how we want :)
; 595  : 		if( !HasSpawnFlags( SF_AMMO_DONTFALL ) )

	push	1
	mov	eax, DWORD PTR _this$[ebp]
	mov	edx, DWORD PTR [eax]
	mov	ecx, DWORD PTR _this$[ebp]
	mov	eax, DWORD PTR [edx+268]
	call	eax
	movzx	ecx, al
	test	ecx, ecx
	jne	SHORT $LN5@FallThink

; 596  : 		{
; 597  : 			// lie flat
; 598  : 			angles.x = 0;

	xorps	xmm0, xmm0
	movss	DWORD PTR _angles$[ebp], xmm0

; 599  : 			angles.z = 0;

	xorps	xmm0, xmm0
	movss	DWORD PTR _angles$[ebp+8], xmm0
$LN5@FallThink:

; 600  : 		}
; 601  : 
; 602  : 		SetAbsAngles( angles );

	lea	eax, DWORD PTR _angles$[ebp]
	push	eax
	mov	ecx, DWORD PTR _this$[ebp]
	call	?SetAbsAngles@CBaseEntity@@QAEXABVVector@@@Z ; CBaseEntity::SetAbsAngles

; 603  : 
; 604  : 		Materialize();

	mov	ecx, DWORD PTR _this$[ebp]
	call	?Materialize@CBasePlayerItem@@QAEXXZ	; CBasePlayerItem::Materialize

; 605  : 
; 606  : 		return;

	jmp	SHORT $LN1@FallThink
$LN2@FallThink:

; 607  : 	}
; 608  : 
; 609  : 	// diffusion - rotate while falling
; 610  : 	angles.x += 50 * gpGlobals->frametime;

	mov	eax, DWORD PTR ?gpGlobals@@3PAUglobalvars_t@@A ; gpGlobals
	movss	xmm0, DWORD PTR __real@42480000
	mulss	xmm0, DWORD PTR [eax+4]
	addss	xmm0, DWORD PTR _angles$[ebp]
	movss	DWORD PTR _angles$[ebp], xmm0

; 611  : 	angles.y -= 80 * gpGlobals->frametime;

	mov	eax, DWORD PTR ?gpGlobals@@3PAUglobalvars_t@@A ; gpGlobals
	movss	xmm0, DWORD PTR __real@42a00000
	mulss	xmm0, DWORD PTR [eax+4]
	movss	xmm1, DWORD PTR _angles$[ebp+4]
	subss	xmm1, xmm0
	movss	DWORD PTR _angles$[ebp+4], xmm1

; 612  : 	angles.z += 60 * gpGlobals->frametime;

	mov	eax, DWORD PTR ?gpGlobals@@3PAUglobalvars_t@@A ; gpGlobals
	movss	xmm0, DWORD PTR __real@42700000
	mulss	xmm0, DWORD PTR [eax+4]
	addss	xmm0, DWORD PTR _angles$[ebp+8]
	movss	DWORD PTR _angles$[ebp+8], xmm0

; 613  : 	SetAbsAngles( angles );

	lea	eax, DWORD PTR _angles$[ebp]
	push	eax
	mov	ecx, DWORD PTR _this$[ebp]
	call	?SetAbsAngles@CBaseEntity@@QAEXABVVector@@@Z ; CBaseEntity::SetAbsAngles
$LN1@FallThink:

; 614  : }

	pop	edi
	pop	esi
	pop	ebx
	mov	esp, ebp
	pop	ebp
	ret	0
?FallThink@CBasePlayerItem@@QAEXXZ ENDP			; CBasePlayerItem::FallThink
_TEXT	ENDS
; Function compile flags: /Odtp /ZI
; File d:\!diffusion 2020\source code 2022\client-server\server\weapons\weapons.cpp
;	COMDAT ?DefaultTouch@CBasePlayerItem@@QAEXPAVCBaseEntity@@@Z
_TEXT	SEGMENT
_pPlayer$ = -8						; size = 4
_this$ = -4						; size = 4
_pOther$ = 8						; size = 4
?DefaultTouch@CBasePlayerItem@@QAEXPAVCBaseEntity@@@Z PROC ; CBasePlayerItem::DefaultTouch, COMDAT
; _this$ = ecx

; 712  : {

	push	ebp
	mov	ebp, esp
	sub	esp, 72					; 00000048H
	push	ebx
	push	esi
	push	edi
	mov	DWORD PTR _this$[ebp], ecx

; 713  : 	// if it's not a player, ignore
; 714  : 	if ( !pOther->IsPlayer() )

	mov	eax, DWORD PTR _pOther$[ebp]
	mov	edx, DWORD PTR [eax]
	mov	ecx, DWORD PTR _pOther$[ebp]
	mov	eax, DWORD PTR [edx+220]
	call	eax
	test	eax, eax
	jne	SHORT $LN2@DefaultTou

; 715  : 		return;

	jmp	$LN1@DefaultTou
$LN2@DefaultTou:

; 716  : 
; 717  : 	CBasePlayer *pPlayer = (CBasePlayer *)pOther;

	mov	eax, DWORD PTR _pOther$[ebp]
	mov	DWORD PTR _pPlayer$[ebp], eax

; 718  : 
; 719  : 	// can I have this?
; 720  : 	if ( !g_pGameRules->CanHavePlayerItem( pPlayer, this ) )

	mov	eax, DWORD PTR _this$[ebp]
	push	eax
	mov	ecx, DWORD PTR _pPlayer$[ebp]
	push	ecx
	mov	edx, DWORD PTR ?g_pGameRules@@3PAVCGameRules@@A ; g_pGameRules
	mov	eax, DWORD PTR [edx]
	mov	ecx, DWORD PTR ?g_pGameRules@@3PAVCGameRules@@A ; g_pGameRules
	mov	edx, DWORD PTR [eax+116]
	call	edx
	test	eax, eax
	jne	SHORT $LN3@DefaultTou

; 721  : 	{
; 722  : 		if ( gEvilImpulse101 || HasFlag(F_FROM_AMMOBOX) )

	cmp	DWORD PTR ?gEvilImpulse101@@3HA, 0	; gEvilImpulse101
	jne	SHORT $LN5@DefaultTou
	push	8192					; 00002000H
	mov	eax, DWORD PTR _this$[ebp]
	mov	edx, DWORD PTR [eax]
	mov	ecx, DWORD PTR _this$[ebp]
	mov	eax, DWORD PTR [edx+280]
	call	eax
	movzx	ecx, al
	test	ecx, ecx
	je	SHORT $LN4@DefaultTou
$LN5@DefaultTou:

; 723  : 			UTIL_Remove( this );

	mov	eax, DWORD PTR _this$[ebp]
	push	eax
	call	?UTIL_Remove@@YAXPAVCBaseEntity@@@Z	; UTIL_Remove
	add	esp, 4
$LN4@DefaultTou:

; 724  : 
; 725  : 		return;

	jmp	SHORT $LN1@DefaultTou
$LN3@DefaultTou:

; 726  : 	}
; 727  : 
; 728  : 	if (pOther->AddPlayerItem( this ))

	mov	eax, DWORD PTR _this$[ebp]
	push	eax
	mov	ecx, DWORD PTR _pOther$[ebp]
	mov	edx, DWORD PTR [ecx]
	mov	ecx, DWORD PTR _pOther$[ebp]
	mov	eax, DWORD PTR [edx+144]
	call	eax
	test	eax, eax
	je	SHORT $LN6@DefaultTou

; 729  : 	{
; 730  : 		AttachToPlayer( pPlayer );

	mov	eax, DWORD PTR _pPlayer$[ebp]
	push	eax
	mov	ecx, DWORD PTR _this$[ebp]
	mov	edx, DWORD PTR [ecx]
	mov	ecx, DWORD PTR _this$[ebp]
	mov	eax, DWORD PTR [edx+428]
	call	eax

; 731  : 	//	EMIT_SOUND(ENT(pPlayer->pev), CHAN_ITEM, "items/gunpickup2.wav", 1, ATTN_NORM);
; 732  : 		// diffusion - play sound on client, and for client only
; 733  : 		PlayPickupSound( pPlayer, 251 );

	push	251					; 000000fbH
	mov	eax, DWORD PTR _pPlayer$[ebp]
	push	eax
	call	?PlayPickupSound@@YAXPAVCBaseEntity@@H@Z ; PlayPickupSound
	add	esp, 8
$LN6@DefaultTou:

; 734  : 	}
; 735  : 
; 736  : 	SUB_UseTargets( pOther, USE_TOGGLE, 0 ); // UNDONE: when should this happen?

	push	0
	push	ecx
	xorps	xmm0, xmm0
	movss	DWORD PTR [esp], xmm0
	push	3
	mov	eax, DWORD PTR _pOther$[ebp]
	push	eax
	mov	ecx, DWORD PTR _this$[ebp]
	call	?SUB_UseTargets@CBaseDelay@@QAEXPAVCBaseEntity@@W4USE_TYPE@@MH@Z ; CBaseDelay::SUB_UseTargets
$LN1@DefaultTou:

; 737  : }

	pop	edi
	pop	esi
	pop	ebx
	mov	esp, ebp
	pop	ebp
	ret	4
?DefaultTouch@CBasePlayerItem@@QAEXPAVCBaseEntity@@@Z ENDP ; CBasePlayerItem::DefaultTouch
_TEXT	ENDS
; Function compile flags: /Odtp /ZI
; File d:\!diffusion 2020\source code 2022\client-server\server\weapons\weapons.cpp
;	COMDAT ?DestroyItem@CBasePlayerItem@@QAEXXZ
_TEXT	SEGMENT
_this$ = -4						; size = 4
?DestroyItem@CBasePlayerItem@@QAEXXZ PROC		; CBasePlayerItem::DestroyItem, COMDAT
; _this$ = ecx

; 818  : {

	push	ebp
	mov	ebp, esp
	sub	esp, 68					; 00000044H
	push	ebx
	push	esi
	push	edi
	mov	DWORD PTR _this$[ebp], ecx

; 819  : 	if ( m_pPlayer )

	mov	eax, DWORD PTR _this$[ebp]
	cmp	DWORD PTR [eax+1856], 0
	je	SHORT $LN2@DestroyIte

; 820  : 	{
; 821  : 		// if attached to a player, remove. 
; 822  : 		m_pPlayer->RemovePlayerItem( this );

	mov	eax, DWORD PTR _this$[ebp]
	push	eax
	mov	ecx, DWORD PTR _this$[ebp]
	mov	edx, DWORD PTR [ecx+1856]
	mov	eax, DWORD PTR _this$[ebp]
	mov	edx, DWORD PTR [edx]
	mov	ecx, DWORD PTR [eax+1856]
	mov	eax, DWORD PTR [edx+148]
	call	eax
$LN2@DestroyIte:

; 823  : 	}
; 824  : 
; 825  : 	Kill( );

	mov	eax, DWORD PTR _this$[ebp]
	mov	edx, DWORD PTR [eax]
	mov	ecx, DWORD PTR _this$[ebp]
	mov	eax, DWORD PTR [edx+424]
	call	eax

; 826  : }

	pop	edi
	pop	esi
	pop	ebx
	mov	esp, ebp
	pop	ebp
	ret	0
?DestroyItem@CBasePlayerItem@@QAEXXZ ENDP		; CBasePlayerItem::DestroyItem
_TEXT	ENDS
; Function compile flags: /Odtp /ZI
; File d:\!diffusion 2020\source code 2022\client-server\server\weapons\weapons.cpp
;	COMDAT ?AddToPlayer@CBasePlayerItem@@UAEHPAVCBasePlayer@@@Z
_TEXT	SEGMENT
_this$ = -4						; size = 4
_pPlayer$ = 8						; size = 4
?AddToPlayer@CBasePlayerItem@@UAEHPAVCBasePlayer@@@Z PROC ; CBasePlayerItem::AddToPlayer, COMDAT
; _this$ = ecx

; 829  : {

	push	ebp
	mov	ebp, esp
	sub	esp, 68					; 00000044H
	push	ebx
	push	esi
	push	edi
	mov	DWORD PTR _this$[ebp], ecx

; 830  : 	m_pPlayer = pPlayer;

	mov	eax, DWORD PTR _this$[ebp]
	mov	ecx, DWORD PTR _pPlayer$[ebp]
	mov	DWORD PTR [eax+1856], ecx

; 831  : 
; 832  : 	// diffusion - check if we need to show a tutorial sprite on how to use the weapon.
; 833  : 	pPlayer->CheckTutorMessage( m_iId );

	mov	eax, DWORD PTR _this$[ebp]
	mov	ecx, DWORD PTR [eax+1864]
	push	ecx
	mov	edx, DWORD PTR _pPlayer$[ebp]
	mov	eax, DWORD PTR [edx]
	mov	ecx, DWORD PTR _pPlayer$[ebp]
	mov	edx, DWORD PTR [eax+680]
	call	edx

; 834  : 	// diffusion - after that, make a permanent mark that we don't need to show the tutor again
; 835  : 	pPlayer->HadWeapon[m_iId] = true;

	mov	eax, DWORD PTR _this$[ebp]
	mov	ecx, DWORD PTR [eax+1864]
	mov	edx, DWORD PTR _pPlayer$[ebp]
	mov	BYTE PTR [edx+ecx+4664], 1

; 836  : 
; 837  : 	return TRUE;

	mov	eax, 1

; 838  : }

	pop	edi
	pop	esi
	pop	ebx
	mov	esp, ebp
	pop	ebp
	ret	4
?AddToPlayer@CBasePlayerItem@@UAEHPAVCBasePlayer@@@Z ENDP ; CBasePlayerItem::AddToPlayer
_TEXT	ENDS
; Function compile flags: /Odtp /ZI
; File d:\!diffusion 2020\source code 2022\client-server\server\weapons\weapons.cpp
;	COMDAT ?GetDataDescMap@CBasePlayerItem@@UAEPAUdatamap_s@@XZ
_TEXT	SEGMENT
_this$ = -4						; size = 4
?GetDataDescMap@CBasePlayerItem@@UAEPAUdatamap_s@@XZ PROC ; CBasePlayerItem::GetDataDescMap, COMDAT
; _this$ = ecx

; 525  : BEGIN_DATADESC( CBasePlayerItem )

	push	ebp
	mov	ebp, esp
	sub	esp, 68					; 00000044H
	push	ebx
	push	esi
	push	edi
	mov	DWORD PTR _this$[ebp], ecx
	mov	eax, OFFSET ?m_DataMap@CBasePlayerItem@@2Udatamap_s@@A ; CBasePlayerItem::m_DataMap
	pop	edi
	pop	esi
	pop	ebx
	mov	esp, ebp
	pop	ebp
	ret	0
?GetDataDescMap@CBasePlayerItem@@UAEPAUdatamap_s@@XZ ENDP ; CBasePlayerItem::GetDataDescMap
_TEXT	ENDS
; Function compile flags: /Odtp /ZI
; File d:\!diffusion 2020\source code 2022\client-server\server\weapons\weapons.cpp
;	COMDAT ?GetBaseMap@CBasePlayerItem@@SAPAUdatamap_s@@XZ
_TEXT	SEGMENT
_pResult$ = -4						; size = 4
?GetBaseMap@CBasePlayerItem@@SAPAUdatamap_s@@XZ PROC	; CBasePlayerItem::GetBaseMap, COMDAT

; 525  : BEGIN_DATADESC( CBasePlayerItem )

	push	ebp
	mov	ebp, esp
	sub	esp, 68					; 00000044H
	push	ebx
	push	esi
	push	edi
	lea	eax, DWORD PTR _pResult$[ebp]
	push	eax
	push	0
	call	??$DataMapAccess@VCBaseAnimating@@@@YAXPAVCBaseAnimating@@PAPAUdatamap_s@@@Z ; DataMapAccess<CBaseAnimating>
	add	esp, 8
	mov	eax, DWORD PTR _pResult$[ebp]
	pop	edi
	pop	esi
	pop	ebx
	mov	esp, ebp
	pop	ebp
	ret	0
?GetBaseMap@CBasePlayerItem@@SAPAUdatamap_s@@XZ ENDP	; CBasePlayerItem::GetBaseMap
_TEXT	ENDS
; Function compile flags: /Odtp /ZI
; File d:\!diffusion 2020\source code 2022\client-server\server\weapons\weapons.cpp
;	COMDAT ?SetObjectCollisionBox@CBasePlayerItem@@UAEXXZ
_TEXT	SEGMENT
$T1 = -116						; size = 12
$T2 = -104						; size = 12
$T3 = -92						; size = 12
$T4 = -80						; size = 12
_this$ = -4						; size = 4
?SetObjectCollisionBox@CBasePlayerItem@@UAEXXZ PROC	; CBasePlayerItem::SetObjectCollisionBox, COMDAT
; _this$ = ecx

; 547  : {

	push	ebp
	mov	ebp, esp
	sub	esp, 116				; 00000074H
	push	ebx
	push	esi
	push	edi
	mov	DWORD PTR _this$[ebp], ecx

; 548  : 	pev->absmin = GetAbsOrigin() + Vector(-24, -24, 0);

	push	ecx
	xorps	xmm0, xmm0
	movss	DWORD PTR [esp], xmm0
	push	ecx
	movss	xmm0, DWORD PTR __real@c1c00000
	movss	DWORD PTR [esp], xmm0
	push	ecx
	movss	xmm0, DWORD PTR __real@c1c00000
	movss	DWORD PTR [esp], xmm0
	lea	ecx, DWORD PTR $T4[ebp]
	call	??0Vector@@QAE@MMM@Z			; Vector::Vector
	push	eax
	lea	eax, DWORD PTR $T3[ebp]
	push	eax
	mov	ecx, DWORD PTR _this$[ebp]
	call	?GetAbsOrigin@CBaseEntity@@QBEABVVector@@XZ ; CBaseEntity::GetAbsOrigin
	mov	ecx, eax
	call	??HVector@@QBE?AV0@ABV0@@Z		; Vector::operator+
	mov	ecx, DWORD PTR _this$[ebp]
	mov	edx, DWORD PTR [ecx+4]
	add	edx, 196				; 000000c4H
	mov	ecx, DWORD PTR [eax]
	mov	DWORD PTR [edx], ecx
	mov	ecx, DWORD PTR [eax+4]
	mov	DWORD PTR [edx+4], ecx
	mov	eax, DWORD PTR [eax+8]
	mov	DWORD PTR [edx+8], eax

; 549  : 	pev->absmax = GetAbsOrigin() + Vector(24, 24, 16); 

	push	ecx
	movss	xmm0, DWORD PTR __real@41800000
	movss	DWORD PTR [esp], xmm0
	push	ecx
	movss	xmm0, DWORD PTR __real@41c00000
	movss	DWORD PTR [esp], xmm0
	push	ecx
	movss	xmm0, DWORD PTR __real@41c00000
	movss	DWORD PTR [esp], xmm0
	lea	ecx, DWORD PTR $T2[ebp]
	call	??0Vector@@QAE@MMM@Z			; Vector::Vector
	push	eax
	lea	eax, DWORD PTR $T1[ebp]
	push	eax
	mov	ecx, DWORD PTR _this$[ebp]
	call	?GetAbsOrigin@CBaseEntity@@QBEABVVector@@XZ ; CBaseEntity::GetAbsOrigin
	mov	ecx, eax
	call	??HVector@@QBE?AV0@ABV0@@Z		; Vector::operator+
	mov	ecx, DWORD PTR _this$[ebp]
	mov	edx, DWORD PTR [ecx+4]
	add	edx, 208				; 000000d0H
	mov	ecx, DWORD PTR [eax]
	mov	DWORD PTR [edx], ecx
	mov	ecx, DWORD PTR [eax+4]
	mov	DWORD PTR [edx+4], ecx
	mov	eax, DWORD PTR [eax+8]
	mov	DWORD PTR [edx+8], eax

; 550  : }

	pop	edi
	pop	esi
	pop	ebx
	mov	esp, ebp
	pop	ebp
	ret	0
?SetObjectCollisionBox@CBasePlayerItem@@UAEXXZ ENDP	; CBasePlayerItem::SetObjectCollisionBox
_TEXT	ENDS
; Function compile flags: /Odtp /ZI
; File d:\!diffusion 2020\source code 2022\client-server\server\weapons\weapons.cpp
;	COMDAT ?PlayClientSound@@YAXPAVCBaseEntity@@HHHVVector@@@Z
_TEXT	SEGMENT
_pEntity$ = 8						; size = 4
_Type$ = 12						; size = 4
_Mode$ = 16						; size = 4
_LowAmmoVolume$ = 20					; size = 4
_org$ = 24						; size = 12
?PlayClientSound@@YAXPAVCBaseEntity@@HHHVVector@@@Z PROC ; PlayClientSound, COMDAT

; 106  : {

	push	ebp
	mov	ebp, esp
	sub	esp, 64					; 00000040H
	push	ebx
	push	esi
	push	edi

; 107  : 	if( !pEntity )

	cmp	DWORD PTR _pEntity$[ebp], 0
	jne	SHORT $LN2@PlayClient

; 108  : 		return;

	jmp	$LN1@PlayClient
$LN2@PlayClient:

; 109  : 
; 110  : 	if( !org || org == g_vecZero )

	lea	ecx, DWORD PTR _org$[ebp]
	call	??BVector@@QAEPAMXZ			; Vector::operator float *
	test	eax, eax
	je	SHORT $LN4@PlayClient
	push	OFFSET ?g_vecZero@@3VVector@@B		; g_vecZero
	lea	ecx, DWORD PTR _org$[ebp]
	call	??8Vector@@QBEHABV0@@Z			; Vector::operator==
	test	eax, eax
	je	SHORT $LN3@PlayClient
$LN4@PlayClient:

; 111  : 		org = pEntity->GetAbsOrigin();

	mov	ecx, DWORD PTR _pEntity$[ebp]
	call	?GetAbsOrigin@CBaseEntity@@QBEABVVector@@XZ ; CBaseEntity::GetAbsOrigin
	mov	ecx, DWORD PTR [eax]
	mov	DWORD PTR _org$[ebp], ecx
	mov	edx, DWORD PTR [eax+4]
	mov	DWORD PTR _org$[ebp+4], edx
	mov	eax, DWORD PTR [eax+8]
	mov	DWORD PTR _org$[ebp+8], eax
$LN3@PlayClient:

; 112  : 
; 113  : 	MESSAGE_BEGIN( MSG_PAS, gmsgTempEnt, org );

	push	0
	lea	ecx, DWORD PTR _org$[ebp]
	call	??BVector@@QAEPAMXZ			; Vector::operator float *
	push	eax
	mov	eax, DWORD PTR ?gmsgTempEnt@@3HA	; gmsgTempEnt
	push	eax
	push	5
	call	?MESSAGE_BEGIN@@YAXHHPBMPAUedict_s@@@Z	; MESSAGE_BEGIN
	add	esp, 16					; 00000010H

; 114  : 	WRITE_BYTE( TE_CLIENTSOUND );

	push	130					; 00000082H
	call	DWORD PTR ?g_engfuncs@@3Uenginefuncs_s@@A+192
	add	esp, 4

; 115  : 	WRITE_COORD( org.x );

	push	ecx
	movss	xmm0, DWORD PTR _org$[ebp]
	movss	DWORD PTR [esp], xmm0
	call	DWORD PTR ?g_engfuncs@@3Uenginefuncs_s@@A+212
	add	esp, 4

; 116  : 	WRITE_COORD( org.y );

	push	ecx
	movss	xmm0, DWORD PTR _org$[ebp+4]
	movss	DWORD PTR [esp], xmm0
	call	DWORD PTR ?g_engfuncs@@3Uenginefuncs_s@@A+212
	add	esp, 4

; 117  : 	WRITE_COORD( org.z );

	push	ecx
	movss	xmm0, DWORD PTR _org$[ebp+8]
	movss	DWORD PTR [esp], xmm0
	call	DWORD PTR ?g_engfuncs@@3Uenginefuncs_s@@A+212
	add	esp, 4

; 118  : 	WRITE_SHORT( (short)ENTINDEX( pEntity->edict() ) );

	mov	ecx, DWORD PTR _pEntity$[ebp]
	call	?edict@CBaseEntity@@QAEPAUedict_s@@XZ	; CBaseEntity::edict
	push	eax
	call	?ENTINDEX@@YAHPAUedict_s@@@Z		; ENTINDEX
	add	esp, 4
	cwde
	push	eax
	call	DWORD PTR ?g_engfuncs@@3Uenginefuncs_s@@A+200
	add	esp, 4

; 119  : 	WRITE_BYTE( Type );

	mov	eax, DWORD PTR _Type$[ebp]
	push	eax
	call	DWORD PTR ?g_engfuncs@@3Uenginefuncs_s@@A+192
	add	esp, 4

; 120  : 	WRITE_BYTE( Mode );

	mov	eax, DWORD PTR _Mode$[ebp]
	push	eax
	call	DWORD PTR ?g_engfuncs@@3Uenginefuncs_s@@A+192
	add	esp, 4

; 121  : 	WRITE_BYTE( LowAmmoVolume ); // x0.1

	mov	eax, DWORD PTR _LowAmmoVolume$[ebp]
	push	eax
	call	DWORD PTR ?g_engfuncs@@3Uenginefuncs_s@@A+192
	add	esp, 4

; 122  : 	MESSAGE_END();

	call	DWORD PTR ?g_engfuncs@@3Uenginefuncs_s@@A+188
$LN1@PlayClient:

; 123  : }

	pop	edi
	pop	esi
	pop	ebx
	mov	esp, ebp
	pop	ebp
	ret	0
?PlayClientSound@@YAXPAVCBaseEntity@@HHHVVector@@@Z ENDP ; PlayClientSound
_TEXT	ENDS
; Function compile flags: /Odtp /ZI
; File d:\!diffusion 2020\source code 2022\client-server\server\weapons\weapons.cpp
;	COMDAT ?MakeWeaponShake@@YAXPAVCBaseEntity@@HH@Z
_TEXT	SEGMENT
_org$ = -12						; size = 12
_pPlayer$ = 8						; size = 4
_Weapon$ = 12						; size = 4
_Mode$ = 16						; size = 4
?MakeWeaponShake@@YAXPAVCBaseEntity@@HH@Z PROC		; MakeWeaponShake, COMDAT

; 92   : {

	push	ebp
	mov	ebp, esp
	sub	esp, 76					; 0000004cH
	push	ebx
	push	esi
	push	edi

; 93   : 	if( !pPlayer )

	cmp	DWORD PTR _pPlayer$[ebp], 0
	jne	SHORT $LN2@MakeWeapon

; 94   : 		return;

	jmp	SHORT $LN1@MakeWeapon
$LN2@MakeWeapon:

; 95   : 
; 96   : 	Vector org = pPlayer->GetAbsOrigin();

	mov	ecx, DWORD PTR _pPlayer$[ebp]
	call	?GetAbsOrigin@CBaseEntity@@QBEABVVector@@XZ ; CBaseEntity::GetAbsOrigin
	push	eax
	lea	ecx, DWORD PTR _org$[ebp]
	call	??0Vector@@QAE@ABV0@@Z			; Vector::Vector

; 97   : 	
; 98   : 	MESSAGE_BEGIN( MSG_ONE, gmsgTempEnt, org, pPlayer->pev );

	mov	eax, DWORD PTR _pPlayer$[ebp]
	mov	ecx, DWORD PTR [eax+4]
	push	ecx
	lea	ecx, DWORD PTR _org$[ebp]
	call	??BVector@@QAEPAMXZ			; Vector::operator float *
	push	eax
	mov	edx, DWORD PTR ?gmsgTempEnt@@3HA	; gmsgTempEnt
	push	edx
	push	1
	call	?MESSAGE_BEGIN@@YAXHHPBMPAUentvars_s@@@Z ; MESSAGE_BEGIN
	add	esp, 16					; 00000010H

; 99   : 	WRITE_BYTE( TE_WEAPONSHAKE );

	push	135					; 00000087H
	call	DWORD PTR ?g_engfuncs@@3Uenginefuncs_s@@A+192
	add	esp, 4

; 100  : 	WRITE_BYTE( Weapon );

	mov	eax, DWORD PTR _Weapon$[ebp]
	push	eax
	call	DWORD PTR ?g_engfuncs@@3Uenginefuncs_s@@A+192
	add	esp, 4

; 101  : 	WRITE_BYTE( Mode );

	mov	eax, DWORD PTR _Mode$[ebp]
	push	eax
	call	DWORD PTR ?g_engfuncs@@3Uenginefuncs_s@@A+192
	add	esp, 4

; 102  : 	MESSAGE_END();

	call	DWORD PTR ?g_engfuncs@@3Uenginefuncs_s@@A+188
$LN1@MakeWeapon:

; 103  : }

	pop	edi
	pop	esi
	pop	ebx
	mov	esp, ebp
	pop	ebp
	ret	0
?MakeWeaponShake@@YAXPAVCBaseEntity@@HH@Z ENDP		; MakeWeaponShake
_TEXT	ENDS
; Function compile flags: /Odtp /ZI
; File d:\!diffusion 2020\source code 2022\client-server\server\weapons\weapons.cpp
;	COMDAT ?PlayPickupSound@@YAXPAVCBaseEntity@@H@Z
_TEXT	SEGMENT
_org$ = -12						; size = 12
_pPlayer$ = 8						; size = 4
_Id$ = 12						; size = 4
?PlayPickupSound@@YAXPAVCBaseEntity@@H@Z PROC		; PlayPickupSound, COMDAT

; 74   : {

	push	ebp
	mov	ebp, esp
	sub	esp, 76					; 0000004cH
	push	ebx
	push	esi
	push	edi

; 75   : 	if( !pPlayer )

	cmp	DWORD PTR _pPlayer$[ebp], 0
	jne	SHORT $LN2@PlayPickup

; 76   : 		return;

	jmp	$LN1@PlayPickup
$LN2@PlayPickup:

; 77   : 	
; 78   : 	Vector org = pPlayer->GetAbsOrigin();

	mov	ecx, DWORD PTR _pPlayer$[ebp]
	call	?GetAbsOrigin@CBaseEntity@@QBEABVVector@@XZ ; CBaseEntity::GetAbsOrigin
	push	eax
	lea	ecx, DWORD PTR _org$[ebp]
	call	??0Vector@@QAE@ABV0@@Z			; Vector::Vector

; 79   : 	MESSAGE_BEGIN( MSG_ONE, gmsgTempEnt, org, pPlayer->pev );

	mov	eax, DWORD PTR _pPlayer$[ebp]
	mov	ecx, DWORD PTR [eax+4]
	push	ecx
	lea	ecx, DWORD PTR _org$[ebp]
	call	??BVector@@QAEPAMXZ			; Vector::operator float *
	push	eax
	mov	edx, DWORD PTR ?gmsgTempEnt@@3HA	; gmsgTempEnt
	push	edx
	push	1
	call	?MESSAGE_BEGIN@@YAXHHPBMPAUentvars_s@@@Z ; MESSAGE_BEGIN
	add	esp, 16					; 00000010H

; 80   : 	WRITE_BYTE( TE_CLIENTSOUND );

	push	130					; 00000082H
	call	DWORD PTR ?g_engfuncs@@3Uenginefuncs_s@@A+192
	add	esp, 4

; 81   : 	WRITE_COORD( org.x );

	push	ecx
	movss	xmm0, DWORD PTR _org$[ebp]
	movss	DWORD PTR [esp], xmm0
	call	DWORD PTR ?g_engfuncs@@3Uenginefuncs_s@@A+212
	add	esp, 4

; 82   : 	WRITE_COORD( org.y );

	push	ecx
	movss	xmm0, DWORD PTR _org$[ebp+4]
	movss	DWORD PTR [esp], xmm0
	call	DWORD PTR ?g_engfuncs@@3Uenginefuncs_s@@A+212
	add	esp, 4

; 83   : 	WRITE_COORD( org.z );

	push	ecx
	movss	xmm0, DWORD PTR _org$[ebp+8]
	movss	DWORD PTR [esp], xmm0
	call	DWORD PTR ?g_engfuncs@@3Uenginefuncs_s@@A+212
	add	esp, 4

; 84   : 	WRITE_SHORT( (short)ENTINDEX( pPlayer->edict() ) );

	mov	ecx, DWORD PTR _pPlayer$[ebp]
	call	?edict@CBaseEntity@@QAEPAUedict_s@@XZ	; CBaseEntity::edict
	push	eax
	call	?ENTINDEX@@YAHPAUedict_s@@@Z		; ENTINDEX
	add	esp, 4
	cwde
	push	eax
	call	DWORD PTR ?g_engfuncs@@3Uenginefuncs_s@@A+200
	add	esp, 4

; 85   : 	WRITE_BYTE( Id );

	mov	eax, DWORD PTR _Id$[ebp]
	push	eax
	call	DWORD PTR ?g_engfuncs@@3Uenginefuncs_s@@A+192
	add	esp, 4

; 86   : 	WRITE_BYTE( 0 );

	push	0
	call	DWORD PTR ?g_engfuncs@@3Uenginefuncs_s@@A+192
	add	esp, 4

; 87   : 	WRITE_BYTE( 0 );

	push	0
	call	DWORD PTR ?g_engfuncs@@3Uenginefuncs_s@@A+192
	add	esp, 4

; 88   : 	MESSAGE_END();

	call	DWORD PTR ?g_engfuncs@@3Uenginefuncs_s@@A+188
$LN1@PlayPickup:

; 89   : }

	pop	edi
	pop	esi
	pop	ebx
	mov	esp, ebp
	pop	ebp
	ret	0
?PlayPickupSound@@YAXPAVCBaseEntity@@H@Z ENDP		; PlayPickupSound
_TEXT	ENDS
; Function compile flags: /Odtp /ZI
; File d:\!diffusion 2020\source code 2022\client-server\server\weapons\weapons.cpp
;	COMDAT ?EjectBrass@@YAXABVVector@@0MHH@Z
_TEXT	SEGMENT
_vecOrigin$ = 8						; size = 4
_vecVelocity$ = 12					; size = 4
_rotation$ = 16						; size = 4
_model$ = 20						; size = 4
_soundtype$ = 24					; size = 4
?EjectBrass@@YAXABVVector@@0MHH@Z PROC			; EjectBrass, COMDAT

; 302  : {

	push	ebp
	mov	ebp, esp
	sub	esp, 64					; 00000040H
	push	ebx
	push	esi
	push	edi

; 303  : 	// FIX: when the player shoots, their gun isn't in the same position as it is on the model other players see.
; 304  : 
; 305  : 	MESSAGE_BEGIN( MSG_PVS, SVC_TEMPENTITY, vecOrigin );

	push	0
	mov	ecx, DWORD PTR _vecOrigin$[ebp]
	call	??BVector@@QBEPBMXZ			; Vector::operator float const *
	push	eax
	push	23					; 00000017H
	push	4
	call	?MESSAGE_BEGIN@@YAXHHPBMPAUedict_s@@@Z	; MESSAGE_BEGIN
	add	esp, 16					; 00000010H

; 306  : 		WRITE_BYTE( TE_MODEL);

	push	106					; 0000006aH
	call	DWORD PTR ?g_engfuncs@@3Uenginefuncs_s@@A+192
	add	esp, 4

; 307  : 		WRITE_COORD( vecOrigin.x);

	mov	eax, DWORD PTR _vecOrigin$[ebp]
	push	ecx
	movss	xmm0, DWORD PTR [eax]
	movss	DWORD PTR [esp], xmm0
	call	DWORD PTR ?g_engfuncs@@3Uenginefuncs_s@@A+212
	add	esp, 4

; 308  : 		WRITE_COORD( vecOrigin.y);

	mov	eax, DWORD PTR _vecOrigin$[ebp]
	push	ecx
	movss	xmm0, DWORD PTR [eax+4]
	movss	DWORD PTR [esp], xmm0
	call	DWORD PTR ?g_engfuncs@@3Uenginefuncs_s@@A+212
	add	esp, 4

; 309  : 		WRITE_COORD( vecOrigin.z);

	mov	eax, DWORD PTR _vecOrigin$[ebp]
	push	ecx
	movss	xmm0, DWORD PTR [eax+8]
	movss	DWORD PTR [esp], xmm0
	call	DWORD PTR ?g_engfuncs@@3Uenginefuncs_s@@A+212
	add	esp, 4

; 310  : 		WRITE_COORD( vecVelocity.x);

	mov	eax, DWORD PTR _vecVelocity$[ebp]
	push	ecx
	movss	xmm0, DWORD PTR [eax]
	movss	DWORD PTR [esp], xmm0
	call	DWORD PTR ?g_engfuncs@@3Uenginefuncs_s@@A+212
	add	esp, 4

; 311  : 		WRITE_COORD( vecVelocity.y);

	mov	eax, DWORD PTR _vecVelocity$[ebp]
	push	ecx
	movss	xmm0, DWORD PTR [eax+4]
	movss	DWORD PTR [esp], xmm0
	call	DWORD PTR ?g_engfuncs@@3Uenginefuncs_s@@A+212
	add	esp, 4

; 312  : 		WRITE_COORD( vecVelocity.z);

	mov	eax, DWORD PTR _vecVelocity$[ebp]
	push	ecx
	movss	xmm0, DWORD PTR [eax+8]
	movss	DWORD PTR [esp], xmm0
	call	DWORD PTR ?g_engfuncs@@3Uenginefuncs_s@@A+212
	add	esp, 4

; 313  : 		WRITE_ANGLE( rotation );

	push	ecx
	movss	xmm0, DWORD PTR _rotation$[ebp]
	movss	DWORD PTR [esp], xmm0
	call	DWORD PTR ?g_engfuncs@@3Uenginefuncs_s@@A+208
	add	esp, 4

; 314  : 		WRITE_SHORT( model );

	mov	eax, DWORD PTR _model$[ebp]
	push	eax
	call	DWORD PTR ?g_engfuncs@@3Uenginefuncs_s@@A+200
	add	esp, 4

; 315  : 		WRITE_BYTE ( soundtype);

	mov	eax, DWORD PTR _soundtype$[ebp]
	push	eax
	call	DWORD PTR ?g_engfuncs@@3Uenginefuncs_s@@A+192
	add	esp, 4

; 316  : 		WRITE_BYTE ( 100 );// 10 seconds

	push	100					; 00000064H
	call	DWORD PTR ?g_engfuncs@@3Uenginefuncs_s@@A+192
	add	esp, 4

; 317  : 	MESSAGE_END();

	call	DWORD PTR ?g_engfuncs@@3Uenginefuncs_s@@A+188

; 318  : }

	pop	edi
	pop	esi
	pop	ebx
	mov	esp, ebp
	pop	ebp
	ret	0
?EjectBrass@@YAXABVVector@@0MHH@Z ENDP			; EjectBrass
_TEXT	ENDS
; Function compile flags: /Odtp /ZI
; File d:\!diffusion 2020\source code 2022\client-server\server\player.h
;	COMDAT ?IsObserver@CBasePlayer@@QAEHXZ
_TEXT	SEGMENT
_this$ = -4						; size = 4
?IsObserver@CBasePlayer@@QAEHXZ PROC			; CBasePlayer::IsObserver, COMDAT
; _this$ = ecx

; 536  : 	int IsObserver() { return pev->iuser1; };

	push	ebp
	mov	ebp, esp
	sub	esp, 68					; 00000044H
	push	ebx
	push	esi
	push	edi
	mov	DWORD PTR _this$[ebp], ecx
	mov	eax, DWORD PTR _this$[ebp]
	mov	ecx, DWORD PTR [eax+4]
	mov	eax, DWORD PTR [ecx+580]
	pop	edi
	pop	esi
	pop	ebx
	mov	esp, ebp
	pop	ebp
	ret	0
?IsObserver@CBasePlayer@@QAEHXZ ENDP			; CBasePlayer::IsObserver
_TEXT	ENDS
; Function compile flags: /Odtp /ZI
; File d:\!diffusion 2020\source code 2022\client-server\server\monsters\basemonster.h
;	COMDAT ?AddWeapon@CBaseMonster@@QAEXH@Z
_TEXT	SEGMENT
_this$ = -4						; size = 4
_weaponnum$ = 8						; size = 4
?AddWeapon@CBaseMonster@@QAEXH@Z PROC			; CBaseMonster::AddWeapon, COMDAT
; _this$ = ecx

; 156  : 	void		AddWeapon( int weaponnum ) { SetBits( m_iWeapons[weaponnum >> 3], BIT( weaponnum & 7 )); }

	push	ebp
	mov	ebp, esp
	sub	esp, 68					; 00000044H
	push	ebx
	push	esi
	push	edi
	mov	DWORD PTR _this$[ebp], ecx
	mov	eax, DWORD PTR _weaponnum$[ebp]
	sar	eax, 3
	mov	ecx, DWORD PTR _this$[ebp]
	movzx	edx, BYTE PTR [ecx+eax+2397]
	mov	ecx, DWORD PTR _weaponnum$[ebp]
	and	ecx, 7
	mov	eax, 1
	shl	eax, cl
	or	edx, eax
	mov	ecx, DWORD PTR _weaponnum$[ebp]
	sar	ecx, 3
	mov	eax, DWORD PTR _this$[ebp]
	mov	BYTE PTR [eax+ecx+2397], dl
	pop	edi
	pop	esi
	pop	ebx
	mov	esp, ebp
	pop	ebp
	ret	4
?AddWeapon@CBaseMonster@@QAEXH@Z ENDP			; CBaseMonster::AddWeapon
_TEXT	ENDS
; Function compile flags: /Odtp /ZI
;	COMDAT ??0CBaseEntity@@QAE@XZ
_TEXT	SEGMENT
_this$ = -16						; size = 4
__$EHRec$ = -12						; size = 12
??0CBaseEntity@@QAE@XZ PROC				; CBaseEntity::CBaseEntity, COMDAT
; _this$ = ecx
	push	ebp
	mov	ebp, esp
	push	-1
	push	__ehhandler$??0CBaseEntity@@QAE@XZ
	mov	eax, DWORD PTR fs:0
	push	eax
	sub	esp, 68					; 00000044H
	push	ebx
	push	esi
	push	edi
	mov	eax, DWORD PTR ___security_cookie
	xor	eax, ebp
	push	eax
	lea	eax, DWORD PTR __$EHRec$[ebp]
	mov	DWORD PTR fs:0, eax
	mov	DWORD PTR _this$[ebp], ecx
	mov	eax, DWORD PTR _this$[ebp]
	mov	DWORD PTR [eax], OFFSET ??_7CBaseEntity@@6B@
	mov	ecx, DWORD PTR _this$[ebp]
	add	ecx, 84					; 00000054H
	call	??0Vector@@QAE@XZ			; Vector::Vector
	mov	ecx, DWORD PTR _this$[ebp]
	add	ecx, 96					; 00000060H
	call	??0Vector@@QAE@XZ			; Vector::Vector
	mov	ecx, DWORD PTR _this$[ebp]
	add	ecx, 108				; 0000006cH
	call	??0Vector@@QAE@XZ			; Vector::Vector
	mov	ecx, DWORD PTR _this$[ebp]
	add	ecx, 120				; 00000078H
	call	??0Vector@@QAE@XZ			; Vector::Vector
	mov	ecx, DWORD PTR _this$[ebp]
	add	ecx, 132				; 00000084H
	call	??0Vector@@QAE@XZ			; Vector::Vector
	mov	ecx, DWORD PTR _this$[ebp]
	add	ecx, 144				; 00000090H
	call	??0Vector@@QAE@XZ			; Vector::Vector
	mov	ecx, DWORD PTR _this$[ebp]
	add	ecx, 192				; 000000c0H
	call	??0matrix4x4@@QAE@XZ			; matrix4x4::matrix4x4
	mov	ecx, DWORD PTR _this$[ebp]
	add	ecx, 260				; 00000104H
	call	??0CMeshDesc@@QAE@XZ			; CMeshDesc::CMeshDesc
	mov	DWORD PTR __$EHRec$[ebp+8], 0
	mov	ecx, DWORD PTR _this$[ebp]
	add	ecx, 1644				; 0000066cH
	call	??0Vector@@QAE@XZ			; Vector::Vector
	mov	DWORD PTR __$EHRec$[ebp+8], -1
	mov	eax, DWORD PTR _this$[ebp]
	mov	ecx, DWORD PTR __$EHRec$[ebp]
	mov	DWORD PTR fs:0, ecx
	pop	ecx
	pop	edi
	pop	esi
	pop	ebx
	mov	esp, ebp
	pop	ebp
	ret	0
_TEXT	ENDS
;	COMDAT text$x
text$x	SEGMENT
__unwindfunclet$??0CBaseEntity@@QAE@XZ$0:
	mov	ecx, DWORD PTR _this$[ebp]
	add	ecx, 260				; 00000104H
	jmp	??1CMeshDesc@@QAE@XZ			; CMeshDesc::~CMeshDesc
__ehhandler$??0CBaseEntity@@QAE@XZ:
	mov	edx, DWORD PTR [esp+8]
	lea	eax, DWORD PTR [edx+12]
	mov	ecx, DWORD PTR [edx-84]
	xor	ecx, eax
	call	@__security_check_cookie@4
	mov	eax, OFFSET __ehfuncinfo$??0CBaseEntity@@QAE@XZ
	jmp	___CxxFrameHandler3
text$x	ENDS
??0CBaseEntity@@QAE@XZ ENDP				; CBaseEntity::CBaseEntity
; Function compile flags: /Odtp /ZI
; File d:\!diffusion 2020\source code 2022\client-server\server\cbase.h
;	COMDAT ?Illumination@CBaseEntity@@UAEHXZ
_TEXT	SEGMENT
_this$ = -4						; size = 4
?Illumination@CBaseEntity@@UAEHXZ PROC			; CBaseEntity::Illumination, COMDAT
; _this$ = ecx

; 757  : 	virtual int Illumination( ) { return GETENTITYILLUM( ENT( pev ) ); };

	push	ebp
	mov	ebp, esp
	sub	esp, 68					; 00000044H
	push	ebx
	push	esi
	push	edi
	mov	DWORD PTR _this$[ebp], ecx
	mov	eax, DWORD PTR _this$[ebp]
	mov	ecx, DWORD PTR [eax+4]
	push	ecx
	call	?ENT@@YAPAUedict_s@@PBUentvars_s@@@Z	; ENT
	add	esp, 4
	push	eax
	call	DWORD PTR ?g_engfuncs@@3Uenginefuncs_s@@A+60
	add	esp, 4
	pop	edi
	pop	esi
	pop	ebx
	mov	esp, ebp
	pop	ebp
	ret	0
?Illumination@CBaseEntity@@UAEHXZ ENDP			; CBaseEntity::Illumination
_TEXT	ENDS
; Function compile flags: /Odtp /ZI
; File d:\!diffusion 2020\source code 2022\client-server\server\cbase.h
;	COMDAT ?IsPointSized@CBaseEntity@@UBEHXZ
_TEXT	SEGMENT
tv70 = -69						; size = 1
_this$ = -4						; size = 4
?IsPointSized@CBaseEntity@@UBEHXZ PROC			; CBaseEntity::IsPointSized, COMDAT
; _this$ = ecx

; 755  : 	virtual BOOL IsPointSized() const { return (pev->size == g_vecZero) ? true : false; }

	push	ebp
	mov	ebp, esp
	sub	esp, 72					; 00000048H
	push	ebx
	push	esi
	push	edi
	mov	DWORD PTR _this$[ebp], ecx
	push	OFFSET ?g_vecZero@@3VVector@@B		; g_vecZero
	mov	eax, DWORD PTR _this$[ebp]
	mov	ecx, DWORD PTR [eax+4]
	add	ecx, 244				; 000000f4H
	call	??8Vector@@QBEHABV0@@Z			; Vector::operator==
	test	eax, eax
	je	SHORT $LN3@IsPointSiz
	mov	BYTE PTR tv70[ebp], 1
	jmp	SHORT $LN4@IsPointSiz
$LN3@IsPointSiz:
	mov	BYTE PTR tv70[ebp], 0
$LN4@IsPointSiz:
	movzx	eax, BYTE PTR tv70[ebp]
	pop	edi
	pop	esi
	pop	ebx
	mov	esp, ebp
	pop	ebp
	ret	0
?IsPointSized@CBaseEntity@@UBEHXZ ENDP			; CBaseEntity::IsPointSized
_TEXT	ENDS
; Function compile flags: /Odtp /ZI
; File d:\!diffusion 2020\source code 2022\client-server\server\cbase.h
;	COMDAT ?BodyTarget@CBaseEntity@@UAE?AVVector@@ABV2@@Z
_TEXT	SEGMENT
_this$ = -4						; size = 4
___$ReturnUdt$ = 8					; size = 4
_posSrc$ = 12						; size = 4
?BodyTarget@CBaseEntity@@UAE?AVVector@@ABV2@@Z PROC	; CBaseEntity::BodyTarget, COMDAT
; _this$ = ecx

; 754  : 	virtual Vector BodyTarget( const Vector &posSrc ) { return Center( ); };		// position to shoot at

	push	ebp
	mov	ebp, esp
	sub	esp, 68					; 00000044H
	push	ebx
	push	esi
	push	edi
	mov	DWORD PTR _this$[ebp], ecx
	mov	eax, DWORD PTR ___$ReturnUdt$[ebp]
	push	eax
	mov	ecx, DWORD PTR _this$[ebp]
	mov	edx, DWORD PTR [ecx]
	mov	ecx, DWORD PTR _this$[ebp]
	mov	eax, DWORD PTR [edx+336]
	call	eax
	mov	eax, DWORD PTR ___$ReturnUdt$[ebp]
	pop	edi
	pop	esi
	pop	ebx
	mov	esp, ebp
	pop	ebp
	ret	8
?BodyTarget@CBaseEntity@@UAE?AVVector@@ABV2@@Z ENDP	; CBaseEntity::BodyTarget
_TEXT	ENDS
; Function compile flags: /Odtp /ZI
; File d:\!diffusion 2020\source code 2022\client-server\server\cbase.h
;	COMDAT ?EarPosition@CBaseEntity@@UAE?AVVector@@XZ
_TEXT	SEGMENT
_this$ = -4						; size = 4
___$ReturnUdt$ = 8					; size = 4
?EarPosition@CBaseEntity@@UAE?AVVector@@XZ PROC		; CBaseEntity::EarPosition, COMDAT
; _this$ = ecx

; 751  : 	{ 

	push	ebp
	mov	ebp, esp
	sub	esp, 68					; 00000044H
	push	ebx
	push	esi
	push	edi
	mov	DWORD PTR _this$[ebp], ecx

; 752  : 		return GetAbsOrigin() + pev->view_ofs; 

	mov	eax, DWORD PTR _this$[ebp]
	mov	ecx, DWORD PTR [eax+4]
	add	ecx, 372				; 00000174H
	push	ecx
	mov	edx, DWORD PTR ___$ReturnUdt$[ebp]
	push	edx
	mov	ecx, DWORD PTR _this$[ebp]
	call	?GetAbsOrigin@CBaseEntity@@QBEABVVector@@XZ ; CBaseEntity::GetAbsOrigin
	mov	ecx, eax
	call	??HVector@@QBE?AV0@ABV0@@Z		; Vector::operator+
	mov	eax, DWORD PTR ___$ReturnUdt$[ebp]

; 753  : 	};			// position of ears

	pop	edi
	pop	esi
	pop	ebx
	mov	esp, ebp
	pop	ebp
	ret	4
?EarPosition@CBaseEntity@@UAE?AVVector@@XZ ENDP		; CBaseEntity::EarPosition
_TEXT	ENDS
; Function compile flags: /Odtp /ZI
; File d:\!diffusion 2020\source code 2022\client-server\server\cbase.h
;	COMDAT ?EyePosition@CBaseEntity@@UAE?AVVector@@XZ
_TEXT	SEGMENT
_this$ = -4						; size = 4
___$ReturnUdt$ = 8					; size = 4
?EyePosition@CBaseEntity@@UAE?AVVector@@XZ PROC		; CBaseEntity::EyePosition, COMDAT
; _this$ = ecx

; 747  : 	{

	push	ebp
	mov	ebp, esp
	sub	esp, 68					; 00000044H
	push	ebx
	push	esi
	push	edi
	mov	DWORD PTR _this$[ebp], ecx

; 748  : 		return GetAbsOrigin() + pev->view_ofs;

	mov	eax, DWORD PTR _this$[ebp]
	mov	ecx, DWORD PTR [eax+4]
	add	ecx, 372				; 00000174H
	push	ecx
	mov	edx, DWORD PTR ___$ReturnUdt$[ebp]
	push	edx
	mov	ecx, DWORD PTR _this$[ebp]
	call	?GetAbsOrigin@CBaseEntity@@QBEABVVector@@XZ ; CBaseEntity::GetAbsOrigin
	mov	ecx, eax
	call	??HVector@@QBE?AV0@ABV0@@Z		; Vector::operator+
	mov	eax, DWORD PTR ___$ReturnUdt$[ebp]

; 749  : 	};			// position of eyes

	pop	edi
	pop	esi
	pop	ebx
	mov	esp, ebp
	pop	ebp
	ret	4
?EyePosition@CBaseEntity@@UAE?AVVector@@XZ ENDP		; CBaseEntity::EyePosition
_TEXT	ENDS
; Function compile flags: /Odtp /ZI
; File d:\!diffusion 2020\source code 2022\client-server\server\cbase.h
;	COMDAT ?Center@CBaseEntity@@UAE?AVVector@@XZ
_TEXT	SEGMENT
$T1 = -80						; size = 12
_this$ = -4						; size = 4
___$ReturnUdt$ = 8					; size = 4
?Center@CBaseEntity@@UAE?AVVector@@XZ PROC		; CBaseEntity::Center, COMDAT
; _this$ = ecx

; 745  : 	virtual Vector Center( ) { return (pev->absmax + pev->absmin) * 0.5; }; // center point of entity

	push	ebp
	mov	ebp, esp
	sub	esp, 80					; 00000050H
	push	ebx
	push	esi
	push	edi
	mov	DWORD PTR _this$[ebp], ecx
	push	ecx
	movss	xmm0, DWORD PTR __real@3f000000
	movss	DWORD PTR [esp], xmm0
	mov	eax, DWORD PTR ___$ReturnUdt$[ebp]
	push	eax
	mov	ecx, DWORD PTR _this$[ebp]
	mov	edx, DWORD PTR [ecx+4]
	add	edx, 196				; 000000c4H
	push	edx
	lea	eax, DWORD PTR $T1[ebp]
	push	eax
	mov	ecx, DWORD PTR _this$[ebp]
	mov	ecx, DWORD PTR [ecx+4]
	add	ecx, 208				; 000000d0H
	call	??HVector@@QBE?AV0@ABV0@@Z		; Vector::operator+
	mov	ecx, eax
	call	??DVector@@QBE?AV0@M@Z			; Vector::operator*
	mov	eax, DWORD PTR ___$ReturnUdt$[ebp]
	pop	edi
	pop	esi
	pop	ebx
	mov	esp, ebp
	pop	ebp
	ret	4
?Center@CBaseEntity@@UAE?AVVector@@XZ ENDP		; CBaseEntity::Center
_TEXT	ENDS
; Function compile flags: /Odtp /ZI
; File d:\!diffusion 2020\source code 2022\client-server\server\cbase.h
;	COMDAT ?edict@CBaseEntity@@QAEPAUedict_s@@XZ
_TEXT	SEGMENT
_this$ = -4						; size = 4
?edict@CBaseEntity@@QAEPAUedict_s@@XZ PROC		; CBaseEntity::edict, COMDAT
; _this$ = ecx

; 741  : 	edict_t *edict() { return ENT( pev ); };

	push	ebp
	mov	ebp, esp
	sub	esp, 68					; 00000044H
	push	ebx
	push	esi
	push	edi
	mov	DWORD PTR _this$[ebp], ecx
	mov	eax, DWORD PTR _this$[ebp]
	mov	ecx, DWORD PTR [eax+4]
	push	ecx
	call	?ENT@@YAPAUedict_s@@PBUentvars_s@@@Z	; ENT
	add	esp, 4
	pop	edi
	pop	esi
	pop	ebx
	mov	esp, ebp
	pop	ebp
	ret	0
?edict@CBaseEntity@@QAEPAUedict_s@@XZ ENDP		; CBaseEntity::edict
_TEXT	ENDS
; Function compile flags: /Odtp /ZI
; File d:\!diffusion 2020\source code 2022\client-server\server\cbase.h
;	COMDAT ?FBecomeProne@CBaseEntity@@UAEHXZ
_TEXT	SEGMENT
_this$ = -4						; size = 4
?FBecomeProne@CBaseEntity@@UAEHXZ PROC			; CBaseEntity::FBecomeProne, COMDAT
; _this$ = ecx

; 740  : 	virtual BOOL FBecomeProne( void ) {return FALSE;};

	push	ebp
	mov	ebp, esp
	sub	esp, 68					; 00000044H
	push	ebx
	push	esi
	push	edi
	mov	DWORD PTR _this$[ebp], ecx
	xor	eax, eax
	pop	edi
	pop	esi
	pop	ebx
	mov	esp, ebp
	pop	ebp
	ret	0
?FBecomeProne@CBaseEntity@@UAEHXZ ENDP			; CBaseEntity::FBecomeProne
_TEXT	ENDS
; Function compile flags: /Odtp /ZI
; File d:\!diffusion 2020\source code 2022\client-server\server\cbase.h
;	COMDAT ?UpdateOwner@CBaseEntity@@UAEXXZ
_TEXT	SEGMENT
_this$ = -4						; size = 4
?UpdateOwner@CBaseEntity@@UAEXXZ PROC			; CBaseEntity::UpdateOwner, COMDAT
; _this$ = ecx

; 736  : 	virtual	void UpdateOwner( void ) { return; };

	push	ebp
	mov	ebp, esp
	sub	esp, 68					; 00000044H
	push	ebx
	push	esi
	push	edi
	mov	DWORD PTR _this$[ebp], ecx
	pop	edi
	pop	esi
	pop	ebx
	mov	esp, ebp
	pop	ebp
	ret	0
?UpdateOwner@CBaseEntity@@UAEXXZ ENDP			; CBaseEntity::UpdateOwner
_TEXT	ENDS
; Function compile flags: /Odtp /ZI
; File d:\!diffusion 2020\source code 2022\client-server\server\cbase.h
;	COMDAT ?TouchSet@CBaseEntity@@QAEP81@AEXPAV1@@ZP81@AEX0@ZPAD@Z
_TEXT	SEGMENT
_this$ = -4						; size = 4
_func$ = 8						; size = 4
_name$ = 12						; size = 4
?TouchSet@CBaseEntity@@QAEP81@AEXPAV1@@ZP81@AEX0@ZPAD@Z PROC ; CBaseEntity::TouchSet, COMDAT
; _this$ = ecx

; 598  : 	{ 

	push	ebp
	mov	ebp, esp
	sub	esp, 68					; 00000044H
	push	ebx
	push	esi
	push	edi
	mov	DWORD PTR _this$[ebp], ecx

; 599  : 		m_pfnTouch = func; 

	mov	eax, DWORD PTR _this$[ebp]
	mov	ecx, DWORD PTR _func$[ebp]
	mov	DWORD PTR [eax+1760], ecx

; 600  : 		FunctionCheck( *(reinterpret_cast<void **>(&m_pfnTouch)), name ); 

	mov	eax, DWORD PTR _name$[ebp]
	push	eax
	mov	ecx, DWORD PTR _this$[ebp]
	mov	edx, DWORD PTR [ecx+1760]
	push	edx
	mov	ecx, DWORD PTR _this$[ebp]
	call	?FunctionCheck@CBaseEntity@@QAEXPAXPAD@Z ; CBaseEntity::FunctionCheck

; 601  : 		return func;

	mov	eax, DWORD PTR _func$[ebp]

; 602  : 	}

	pop	edi
	pop	esi
	pop	ebx
	mov	esp, ebp
	pop	ebp
	ret	8
?TouchSet@CBaseEntity@@QAEP81@AEXPAV1@@ZP81@AEX0@ZPAD@Z ENDP ; CBaseEntity::TouchSet
_TEXT	ENDS
; Function compile flags: /Odtp /ZI
; File d:\!diffusion 2020\source code 2022\client-server\server\cbase.h
;	COMDAT ?ThinkSet@CBaseEntity@@QAEP81@AEXXZP81@AEXXZPAD@Z
_TEXT	SEGMENT
_this$ = -4						; size = 4
_func$ = 8						; size = 4
_name$ = 12						; size = 4
?ThinkSet@CBaseEntity@@QAEP81@AEXXZP81@AEXXZPAD@Z PROC	; CBaseEntity::ThinkSet, COMDAT
; _this$ = ecx

; 591  : 	{ 

	push	ebp
	mov	ebp, esp
	sub	esp, 68					; 00000044H
	push	ebx
	push	esi
	push	edi
	mov	DWORD PTR _this$[ebp], ecx

; 592  : 		m_pfnThink = func; 

	mov	eax, DWORD PTR _this$[ebp]
	mov	ecx, DWORD PTR _func$[ebp]
	mov	DWORD PTR [eax+1756], ecx

; 593  : 		FunctionCheck( *(reinterpret_cast<void **>(&m_pfnThink)), name ); 

	mov	eax, DWORD PTR _name$[ebp]
	push	eax
	mov	ecx, DWORD PTR _this$[ebp]
	mov	edx, DWORD PTR [ecx+1756]
	push	edx
	mov	ecx, DWORD PTR _this$[ebp]
	call	?FunctionCheck@CBaseEntity@@QAEXPAXPAD@Z ; CBaseEntity::FunctionCheck

; 594  : 		return func;

	mov	eax, DWORD PTR _func$[ebp]

; 595  : 	}

	pop	edi
	pop	esi
	pop	ebx
	mov	esp, ebp
	pop	ebp
	ret	8
?ThinkSet@CBaseEntity@@QAEP81@AEXXZP81@AEXXZPAD@Z ENDP	; CBaseEntity::ThinkSet
_TEXT	ENDS
; Function compile flags: /Odtp /ZI
; File d:\!diffusion 2020\source code 2022\client-server\server\cbase.h
;	COMDAT ?FunctionCheck@CBaseEntity@@QAEXPAXPAD@Z
_TEXT	SEGMENT
_this$ = -4						; size = 4
_pFunction$ = 8						; size = 4
_name$ = 12						; size = 4
?FunctionCheck@CBaseEntity@@QAEXPAXPAD@Z PROC		; CBaseEntity::FunctionCheck, COMDAT
; _this$ = ecx

; 585  : 	{ 

	push	ebp
	mov	ebp, esp
	sub	esp, 68					; 00000044H
	push	ebx
	push	esi
	push	edi
	mov	DWORD PTR _this$[ebp], ecx

; 586  : 		if (pFunction && !UTIL_FunctionToName( GetDataDescMap(), pFunction ) )

	cmp	DWORD PTR _pFunction$[ebp], 0
	je	SHORT $LN1@FunctionCh
	mov	eax, DWORD PTR _pFunction$[ebp]
	push	eax
	mov	ecx, DWORD PTR _this$[ebp]
	mov	edx, DWORD PTR [ecx]
	mov	ecx, DWORD PTR _this$[ebp]
	mov	eax, DWORD PTR [edx]
	call	eax
	push	eax
	call	?UTIL_FunctionToName@@YAPBDPAUdatamap_s@@PAX@Z ; UTIL_FunctionToName
	add	esp, 8
	test	eax, eax
	jne	SHORT $LN1@FunctionCh

; 587  : 			ALERT( at_warning, "FUNCTION NOT IN TABLE!: %s:%s (%08lx)\n", GetClassname(), name, (unsigned long)pFunction );

	mov	eax, DWORD PTR _pFunction$[ebp]
	push	eax
	mov	ecx, DWORD PTR _name$[ebp]
	push	ecx
	mov	ecx, DWORD PTR _this$[ebp]
	call	?GetClassname@CBaseEntity@@QAEPBDXZ	; CBaseEntity::GetClassname
	push	eax
	push	OFFSET ??_C@_0CH@HELFJPDL@FUNCTION?5NOT?5IN?5TABLE?$CB?3?5?$CFs?3?$CFs?5?$CI?$CF@
	push	3
	call	DWORD PTR ?g_engfuncs@@3Uenginefuncs_s@@A+244
	add	esp, 20					; 00000014H
$LN1@FunctionCh:

; 588  : 	}

	pop	edi
	pop	esi
	pop	ebx
	mov	esp, ebp
	pop	ebp
	ret	8
?FunctionCheck@CBaseEntity@@QAEXPAXPAD@Z ENDP		; CBaseEntity::FunctionCheck
_TEXT	ENDS
; Function compile flags: /Odtp /ZI
; File d:\!diffusion 2020\source code 2022\client-server\server\cbase.h
;	COMDAT ?Instance@CBaseEntity@@SAPAV1@PAUedict_s@@@Z
_TEXT	SEGMENT
_pEnt$ = -4						; size = 4
_pent$ = 8						; size = 4
?Instance@CBaseEntity@@SAPAV1@PAUedict_s@@@Z PROC	; CBaseEntity::Instance, COMDAT

; 557  : 	{ 

	push	ebp
	mov	ebp, esp
	sub	esp, 68					; 00000044H
	push	ebx
	push	esi
	push	edi

; 558  : 		if ( !pent )

	cmp	DWORD PTR _pent$[ebp], 0
	jne	SHORT $LN2@Instance

; 559  : 			pent = ENT(0);

	push	0
	call	?ENT@@YAPAUedict_s@@H@Z			; ENT
	add	esp, 4
	mov	DWORD PTR _pent$[ebp], eax
$LN2@Instance:

; 560  : 		CBaseEntity *pEnt = (CBaseEntity *)GET_PRIVATE(pent); 

	mov	eax, DWORD PTR _pent$[ebp]
	push	eax
	call	?GET_PRIVATE@@YAPAXPAUedict_s@@@Z	; GET_PRIVATE
	add	esp, 4
	mov	DWORD PTR _pEnt$[ebp], eax

; 561  : 		return pEnt; 

	mov	eax, DWORD PTR _pEnt$[ebp]

; 562  : 	}

	pop	edi
	pop	esi
	pop	ebx
	mov	esp, ebp
	pop	ebp
	ret	0
?Instance@CBaseEntity@@SAPAV1@PAUedict_s@@@Z ENDP	; CBaseEntity::Instance
_TEXT	ENDS
; Function compile flags: /Odtp /ZI
; File d:\!diffusion 2020\source code 2022\client-server\server\cbase.h
;	COMDAT ?Respawn@CBaseEntity@@UAEPAV1@XZ
_TEXT	SEGMENT
_this$ = -4						; size = 4
?Respawn@CBaseEntity@@UAEPAV1@XZ PROC			; CBaseEntity::Respawn, COMDAT
; _this$ = ecx

; 544  : 	virtual CBaseEntity *Respawn( void ) { return NULL; }

	push	ebp
	mov	ebp, esp
	sub	esp, 68					; 00000044H
	push	ebx
	push	esi
	push	edi
	mov	DWORD PTR _this$[ebp], ecx
	xor	eax, eax
	pop	edi
	pop	esi
	pop	ebx
	mov	esp, ebp
	pop	ebp
	ret	0
?Respawn@CBaseEntity@@UAEPAV1@XZ ENDP			; CBaseEntity::Respawn
_TEXT	ENDS
; Function compile flags: /Odtp /ZI
; File d:\!diffusion 2020\source code 2022\client-server\server\cbase.h
;	COMDAT ??3CBaseEntity@@SAXPAXPAUentvars_s@@@Z
_TEXT	SEGMENT
_pMem$ = 8						; size = 4
_pev$ = 12						; size = 4
??3CBaseEntity@@SAXPAXPAUentvars_s@@@Z PROC		; CBaseEntity::operator delete, COMDAT

; 527  : 	{

	push	ebp
	mov	ebp, esp
	sub	esp, 64					; 00000040H
	push	ebx
	push	esi
	push	edi

; 528  : 		pev->flags |= FL_KILLME;

	mov	eax, DWORD PTR _pev$[ebp]
	mov	ecx, DWORD PTR [eax+420]
	or	ecx, 1073741824				; 40000000H
	mov	edx, DWORD PTR _pev$[ebp]
	mov	DWORD PTR [edx+420], ecx

; 529  : 	};

	pop	edi
	pop	esi
	pop	ebx
	mov	esp, ebp
	pop	ebp
	ret	0
??3CBaseEntity@@SAXPAXPAUentvars_s@@@Z ENDP		; CBaseEntity::operator delete
_TEXT	ENDS
; Function compile flags: /Odtp /ZI
; File d:\!diffusion 2020\source code 2022\client-server\server\cbase.h
;	COMDAT ??2CBaseEntity@@SAPAXIPAUentvars_s@@@Z
_TEXT	SEGMENT
_stAllocateBlock$ = 8					; size = 4
_pev$ = 12						; size = 4
??2CBaseEntity@@SAPAXIPAUentvars_s@@@Z PROC		; CBaseEntity::operator new, COMDAT

; 520  : 	{

	push	ebp
	mov	ebp, esp
	sub	esp, 64					; 00000040H
	push	ebx
	push	esi
	push	edi

; 521  : 		return (void *)ALLOC_PRIVATE(ENT(pev), stAllocateBlock);

	mov	eax, DWORD PTR _stAllocateBlock$[ebp]
	push	eax
	mov	ecx, DWORD PTR _pev$[ebp]
	push	ecx
	call	?ENT@@YAPAUedict_s@@PBUentvars_s@@@Z	; ENT
	add	esp, 4
	push	eax
	call	DWORD PTR ?g_engfuncs@@3Uenginefuncs_s@@A+252
	add	esp, 8

; 522  : 	};

	pop	edi
	pop	esi
	pop	ebx
	mov	esp, ebp
	pop	ebp
	ret	0
??2CBaseEntity@@SAPAXIPAUentvars_s@@@Z ENDP		; CBaseEntity::operator new
_TEXT	ENDS
; Function compile flags: /Odtp /ZI
; File d:\!diffusion 2020\source code 2022\client-server\server\cbase.h
;	COMDAT ?MoveDone@CBaseEntity@@UAEXXZ
_TEXT	SEGMENT
_this$ = -4						; size = 4
?MoveDone@CBaseEntity@@UAEXXZ PROC			; CBaseEntity::MoveDone, COMDAT
; _this$ = ecx

; 516  : 	virtual void MoveDone( void ) { if( m_pfnMoveDone )(this->*m_pfnMoveDone)(); };

	push	ebp
	mov	ebp, esp
	sub	esp, 68					; 00000044H
	push	ebx
	push	esi
	push	edi
	mov	DWORD PTR _this$[ebp], ecx
	mov	eax, DWORD PTR _this$[ebp]
	cmp	DWORD PTR [eax+1772], 0
	je	SHORT $LN1@MoveDone
	mov	eax, DWORD PTR _this$[ebp]
	mov	ecx, DWORD PTR _this$[ebp]
	mov	edx, DWORD PTR [eax+1772]
	call	edx
$LN1@MoveDone:
	pop	edi
	pop	esi
	pop	ebx
	mov	esp, ebp
	pop	ebp
	ret	0
?MoveDone@CBaseEntity@@UAEXXZ ENDP			; CBaseEntity::MoveDone
_TEXT	ENDS
; Function compile flags: /Odtp /ZI
; File d:\!diffusion 2020\source code 2022\client-server\server\cbase.h
;	COMDAT ?Blocked@CBaseEntity@@UAEXPAV1@@Z
_TEXT	SEGMENT
tv77 = -72						; size = 4
_this$ = -4						; size = 4
_pOther$ = 8						; size = 4
?Blocked@CBaseEntity@@UAEXPAV1@@Z PROC			; CBaseEntity::Blocked, COMDAT
; _this$ = ecx

; 507  : 	{

	push	ebp
	mov	ebp, esp
	sub	esp, 72					; 00000048H
	push	ebx
	push	esi
	push	edi
	mov	DWORD PTR _this$[ebp], ecx

; 508  : 		if( m_pfnBlocked )

	mov	eax, DWORD PTR _this$[ebp]
	cmp	DWORD PTR [eax+1768], 0
	je	SHORT $LN2@Blocked

; 509  : 			(this->*m_pfnBlocked)( pOther );

	mov	eax, DWORD PTR _pOther$[ebp]
	push	eax
	mov	edx, DWORD PTR _this$[ebp]
	mov	ecx, DWORD PTR _this$[ebp]
	mov	eax, DWORD PTR [edx+1768]
	call	eax
$LN2@Blocked:

; 510  : 
; 511  : 		// forward the blocked event to our parent, if any.
; 512  : 		if( m_hParent != NULL )

	mov	ecx, DWORD PTR _this$[ebp]
	add	ecx, 160				; 000000a0H
	call	??BEHANDLE@@QAEHXZ			; EHANDLE::operator int
	test	eax, eax
	je	SHORT $LN1@Blocked

; 513  : 			m_hParent->Blocked( pOther );

	mov	ecx, DWORD PTR _this$[ebp]
	add	ecx, 160				; 000000a0H
	call	??CEHANDLE@@QAEPAVCBaseEntity@@XZ	; EHANDLE::operator->
	mov	DWORD PTR tv77[ebp], eax
	mov	eax, DWORD PTR _pOther$[ebp]
	push	eax
	mov	ecx, DWORD PTR tv77[ebp]
	mov	edx, DWORD PTR [ecx]
	mov	ecx, DWORD PTR tv77[ebp]
	mov	eax, DWORD PTR [edx+316]
	call	eax
$LN1@Blocked:

; 514  : 	}

	pop	edi
	pop	esi
	pop	ebx
	mov	esp, ebp
	pop	ebp
	ret	4
?Blocked@CBaseEntity@@UAEXPAV1@@Z ENDP			; CBaseEntity::Blocked
_TEXT	ENDS
; Function compile flags: /Odtp /ZI
; File d:\!diffusion 2020\source code 2022\client-server\server\cbase.h
;	COMDAT ?Touch@CBaseEntity@@UAEXPAV1@@Z
_TEXT	SEGMENT
tv80 = -72						; size = 4
_this$ = -4						; size = 4
_pOther$ = 8						; size = 4
?Touch@CBaseEntity@@UAEXPAV1@@Z PROC			; CBaseEntity::Touch, COMDAT
; _this$ = ecx

; 497  : 	{

	push	ebp
	mov	ebp, esp
	sub	esp, 72					; 00000048H
	push	ebx
	push	esi
	push	edi
	mov	DWORD PTR _this$[ebp], ecx

; 498  : 		if( m_pfnTouch )

	mov	eax, DWORD PTR _this$[ebp]
	cmp	DWORD PTR [eax+1760], 0
	je	SHORT $LN2@Touch

; 499  : 			(this->*m_pfnTouch)( pOther );

	mov	eax, DWORD PTR _pOther$[ebp]
	push	eax
	mov	edx, DWORD PTR _this$[ebp]
	mov	ecx, DWORD PTR _this$[ebp]
	mov	eax, DWORD PTR [edx+1760]
	call	eax
$LN2@Touch:

; 500  : 
; 501  : 		// forward the blocked event to our parent, if any.
; 502  : 		if( m_hParent != NULL && !m_isChaining )

	mov	ecx, DWORD PTR _this$[ebp]
	add	ecx, 160				; 000000a0H
	call	??BEHANDLE@@QAEHXZ			; EHANDLE::operator int
	test	eax, eax
	je	SHORT $LN1@Touch
	mov	eax, DWORD PTR _this$[ebp]
	movzx	ecx, BYTE PTR [eax+1640]
	test	ecx, ecx
	jne	SHORT $LN1@Touch

; 503  : 			m_hParent->Touch( pOther );

	mov	ecx, DWORD PTR _this$[ebp]
	add	ecx, 160				; 000000a0H
	call	??CEHANDLE@@QAEPAVCBaseEntity@@XZ	; EHANDLE::operator->
	mov	DWORD PTR tv80[ebp], eax
	mov	eax, DWORD PTR _pOther$[ebp]
	push	eax
	mov	ecx, DWORD PTR tv80[ebp]
	mov	edx, DWORD PTR [ecx]
	mov	ecx, DWORD PTR tv80[ebp]
	mov	eax, DWORD PTR [edx+312]
	call	eax
$LN1@Touch:

; 504  : 	}

	pop	edi
	pop	esi
	pop	ebx
	mov	esp, ebp
	pop	ebp
	ret	4
?Touch@CBaseEntity@@UAEXPAV1@@Z ENDP			; CBaseEntity::Touch
_TEXT	ENDS
; Function compile flags: /Odtp /ZI
; File d:\!diffusion 2020\source code 2022\client-server\server\cbase.h
;	COMDAT ?Use@CBaseEntity@@UAEXPAV1@0W4USE_TYPE@@M@Z
_TEXT	SEGMENT
_this$ = -4						; size = 4
_pActivator$ = 8					; size = 4
_pCaller$ = 12						; size = 4
_useType$ = 16						; size = 4
_value$ = 20						; size = 4
?Use@CBaseEntity@@UAEXPAV1@0W4USE_TYPE@@M@Z PROC	; CBaseEntity::Use, COMDAT
; _this$ = ecx

; 492  : 	{

	push	ebp
	mov	ebp, esp
	sub	esp, 68					; 00000044H
	push	ebx
	push	esi
	push	edi
	mov	DWORD PTR _this$[ebp], ecx

; 493  : 		if (m_pfnUse) (this->*m_pfnUse)( pActivator, pCaller, useType, value );

	mov	eax, DWORD PTR _this$[ebp]
	cmp	DWORD PTR [eax+1764], 0
	je	SHORT $LN2@Use
	push	ecx
	movss	xmm0, DWORD PTR _value$[ebp]
	movss	DWORD PTR [esp], xmm0
	mov	eax, DWORD PTR _useType$[ebp]
	push	eax
	mov	ecx, DWORD PTR _pCaller$[ebp]
	push	ecx
	mov	edx, DWORD PTR _pActivator$[ebp]
	push	edx
	mov	eax, DWORD PTR _this$[ebp]
	mov	ecx, DWORD PTR _this$[ebp]
	mov	edx, DWORD PTR [eax+1764]
	call	edx
$LN2@Use:

; 494  : 	}

	pop	edi
	pop	esi
	pop	ebx
	mov	esp, ebp
	pop	ebp
	ret	16					; 00000010H
?Use@CBaseEntity@@UAEXPAV1@0W4USE_TYPE@@M@Z ENDP	; CBaseEntity::Use
_TEXT	ENDS
; Function compile flags: /Odtp /ZI
; File d:\!diffusion 2020\source code 2022\client-server\server\cbase.h
;	COMDAT ?Think@CBaseEntity@@UAEXXZ
_TEXT	SEGMENT
_this$ = -4						; size = 4
?Think@CBaseEntity@@UAEXXZ PROC				; CBaseEntity::Think, COMDAT
; _this$ = ecx

; 489  : 	virtual void Think( void ) { if (m_pfnThink) (this->*m_pfnThink)(); };

	push	ebp
	mov	ebp, esp
	sub	esp, 68					; 00000044H
	push	ebx
	push	esi
	push	edi
	mov	DWORD PTR _this$[ebp], ecx
	mov	eax, DWORD PTR _this$[ebp]
	cmp	DWORD PTR [eax+1756], 0
	je	SHORT $LN1@Think
	mov	eax, DWORD PTR _this$[ebp]
	mov	ecx, DWORD PTR _this$[ebp]
	mov	edx, DWORD PTR [eax+1756]
	call	edx
$LN1@Think:
	pop	edi
	pop	esi
	pop	ebx
	mov	esp, ebp
	pop	ebp
	ret	0
?Think@CBaseEntity@@UAEXXZ ENDP				; CBaseEntity::Think
_TEXT	ENDS
; Function compile flags: /Odtp /ZI
; File d:\!diffusion 2020\source code 2022\client-server\server\cbase.h
;	COMDAT ?OnDropObject@CBaseEntity@@UAEXXZ
_TEXT	SEGMENT
_this$ = -4						; size = 4
?OnDropObject@CBaseEntity@@UAEXXZ PROC			; CBaseEntity::OnDropObject, COMDAT
; _this$ = ecx

; 478  : 	virtual void OnDropObject( void ){ };

	push	ebp
	mov	ebp, esp
	sub	esp, 68					; 00000044H
	push	ebx
	push	esi
	push	edi
	mov	DWORD PTR _this$[ebp], ecx
	pop	edi
	pop	esi
	pop	ebx
	mov	esp, ebp
	pop	ebp
	ret	0
?OnDropObject@CBaseEntity@@UAEXXZ ENDP			; CBaseEntity::OnDropObject
_TEXT	ENDS
; Function compile flags: /Odtp /ZI
; File d:\!diffusion 2020\source code 2022\client-server\server\cbase.h
;	COMDAT ?OnPickupObject@CBaseEntity@@UAEXXZ
_TEXT	SEGMENT
_this$ = -4						; size = 4
?OnPickupObject@CBaseEntity@@UAEXXZ PROC		; CBaseEntity::OnPickupObject, COMDAT
; _this$ = ecx

; 477  : 	virtual void OnPickupObject( void ) { };

	push	ebp
	mov	ebp, esp
	sub	esp, 68					; 00000044H
	push	ebx
	push	esi
	push	edi
	mov	DWORD PTR _this$[ebp], ecx
	pop	edi
	pop	esi
	pop	ebx
	mov	esp, ebp
	pop	ebp
	ret	0
?OnPickupObject@CBaseEntity@@UAEXXZ ENDP		; CBaseEntity::OnPickupObject
_TEXT	ENDS
; Function compile flags: /Odtp /ZI
; File d:\!diffusion 2020\source code 2022\client-server\server\cbase.h
;	COMDAT ?SetNullModel@CBaseEntity@@UAEXXZ
_TEXT	SEGMENT
_this$ = -4						; size = 4
?SetNullModel@CBaseEntity@@UAEXXZ PROC			; CBaseEntity::SetNullModel, COMDAT
; _this$ = ecx

; 1228 : {

	push	ebp
	mov	ebp, esp
	sub	esp, 68					; 00000044H
	push	ebx
	push	esi
	push	edi
	mov	DWORD PTR _this$[ebp], ecx

; 1229 : 	SET_MODEL( edict(), "sprites/null.spr" );

	push	OFFSET ??_C@_0BB@EMJBJDBM@sprites?1null?4spr?$AA@
	mov	ecx, DWORD PTR _this$[ebp]
	call	?edict@CBaseEntity@@QAEPAUedict_s@@XZ	; CBaseEntity::edict
	push	eax
	call	DWORD PTR ?g_engfuncs@@3Uenginefuncs_s@@A+8
	add	esp, 8

; 1230 : }

	pop	edi
	pop	esi
	pop	ebx
	mov	esp, ebp
	pop	ebp
	ret	0
?SetNullModel@CBaseEntity@@UAEXXZ ENDP			; CBaseEntity::SetNullModel
_TEXT	ENDS
; Function compile flags: /Odtp /ZI
; File d:\!diffusion 2020\source code 2022\client-server\server\cbase.h
;	COMDAT ?RemoveFlag@CBaseEntity@@UAEXH@Z
_TEXT	SEGMENT
_this$ = -4						; size = 4
_Flag$ = 8						; size = 4
?RemoveFlag@CBaseEntity@@UAEXH@Z PROC			; CBaseEntity::RemoveFlag, COMDAT
; _this$ = ecx

; 1223 : {

	push	ebp
	mov	ebp, esp
	sub	esp, 68					; 00000044H
	push	ebx
	push	esi
	push	edi
	mov	DWORD PTR _this$[ebp], ecx

; 1224 : 	m_iFlags2 &= ~Flag;

	mov	eax, DWORD PTR _Flag$[ebp]
	not	eax
	mov	ecx, DWORD PTR _this$[ebp]
	and	eax, DWORD PTR [ecx+28]
	mov	edx, DWORD PTR _this$[ebp]
	mov	DWORD PTR [edx+28], eax

; 1225 : }

	pop	edi
	pop	esi
	pop	ebx
	mov	esp, ebp
	pop	ebp
	ret	4
?RemoveFlag@CBaseEntity@@UAEXH@Z ENDP			; CBaseEntity::RemoveFlag
_TEXT	ENDS
; Function compile flags: /Odtp /ZI
; File d:\!diffusion 2020\source code 2022\client-server\server\cbase.h
;	COMDAT ?HasFlag@CBaseEntity@@UBE_NH@Z
_TEXT	SEGMENT
tv67 = -72						; size = 4
_this$ = -4						; size = 4
_Flag$ = 8						; size = 4
?HasFlag@CBaseEntity@@UBE_NH@Z PROC			; CBaseEntity::HasFlag, COMDAT
; _this$ = ecx

; 1213 : {

	push	ebp
	mov	ebp, esp
	sub	esp, 72					; 00000048H
	push	ebx
	push	esi
	push	edi
	mov	DWORD PTR _this$[ebp], ecx

; 1214 : 	return (m_iFlags2 & Flag) != 0;

	mov	eax, DWORD PTR _this$[ebp]
	mov	ecx, DWORD PTR [eax+28]
	and	ecx, DWORD PTR _Flag$[ebp]
	je	SHORT $LN3@HasFlag
	mov	DWORD PTR tv67[ebp], 1
	jmp	SHORT $LN4@HasFlag
$LN3@HasFlag:
	mov	DWORD PTR tv67[ebp], 0
$LN4@HasFlag:
	mov	al, BYTE PTR tv67[ebp]

; 1215 : }

	pop	edi
	pop	esi
	pop	ebx
	mov	esp, ebp
	pop	ebp
	ret	4
?HasFlag@CBaseEntity@@UBE_NH@Z ENDP			; CBaseEntity::HasFlag
_TEXT	ENDS
; Function compile flags: /Odtp /ZI
; File d:\!diffusion 2020\source code 2022\client-server\server\cbase.h
;	COMDAT ?SetFlag@CBaseEntity@@UAEXH@Z
_TEXT	SEGMENT
_this$ = -4						; size = 4
_Flag$ = 8						; size = 4
?SetFlag@CBaseEntity@@UAEXH@Z PROC			; CBaseEntity::SetFlag, COMDAT
; _this$ = ecx

; 1218 : {

	push	ebp
	mov	ebp, esp
	sub	esp, 68					; 00000044H
	push	ebx
	push	esi
	push	edi
	mov	DWORD PTR _this$[ebp], ecx

; 1219 : 	m_iFlags2 |= Flag;

	mov	eax, DWORD PTR _this$[ebp]
	mov	ecx, DWORD PTR [eax+28]
	or	ecx, DWORD PTR _Flag$[ebp]
	mov	edx, DWORD PTR _this$[ebp]
	mov	DWORD PTR [edx+28], ecx

; 1220 : }

	pop	edi
	pop	esi
	pop	ebx
	mov	esp, ebp
	pop	ebp
	ret	4
?SetFlag@CBaseEntity@@UAEXH@Z ENDP			; CBaseEntity::SetFlag
_TEXT	ENDS
; Function compile flags: /Odtp /ZI
; File d:\!diffusion 2020\source code 2022\client-server\server\cbase.h
;	COMDAT ?SetFadeDistance@CBaseEntity@@UAEXH@Z
_TEXT	SEGMENT
_this$ = -4						; size = 4
_Distance$ = 8						; size = 4
?SetFadeDistance@CBaseEntity@@UAEXH@Z PROC		; CBaseEntity::SetFadeDistance, COMDAT
; _this$ = ecx

; 1208 : {

	push	ebp
	mov	ebp, esp
	sub	esp, 68					; 00000044H
	push	ebx
	push	esi
	push	edi
	mov	DWORD PTR _this$[ebp], ecx

; 1209 : 	pev->iuser4 = Distance;

	mov	eax, DWORD PTR _this$[ebp]
	mov	ecx, DWORD PTR [eax+4]
	mov	edx, DWORD PTR _Distance$[ebp]
	mov	DWORD PTR [ecx+592], edx

; 1210 : }

	pop	edi
	pop	esi
	pop	ebx
	mov	esp, ebp
	pop	ebp
	ret	4
?SetFadeDistance@CBaseEntity@@UAEXH@Z ENDP		; CBaseEntity::SetFadeDistance
_TEXT	ENDS
; Function compile flags: /Odtp /ZI
; File d:\!diffusion 2020\source code 2022\client-server\server\cbase.h
;	COMDAT ?HasSpawnFlags@CBaseEntity@@UBE_NH@Z
_TEXT	SEGMENT
tv68 = -72						; size = 4
_this$ = -4						; size = 4
_nFlags$ = 8						; size = 4
?HasSpawnFlags@CBaseEntity@@UBE_NH@Z PROC		; CBaseEntity::HasSpawnFlags, COMDAT
; _this$ = ecx

; 1202 : {

	push	ebp
	mov	ebp, esp
	sub	esp, 72					; 00000048H
	push	ebx
	push	esi
	push	edi
	mov	DWORD PTR _this$[ebp], ecx

; 1203 : 	return (pev->spawnflags & nFlags) != 0;

	mov	eax, DWORD PTR _this$[ebp]
	mov	ecx, DWORD PTR [eax+4]
	mov	edx, DWORD PTR [ecx+416]
	and	edx, DWORD PTR _nFlags$[ebp]
	je	SHORT $LN3@HasSpawnFl
	mov	DWORD PTR tv68[ebp], 1
	jmp	SHORT $LN4@HasSpawnFl
$LN3@HasSpawnFl:
	mov	DWORD PTR tv68[ebp], 0
$LN4@HasSpawnFl:
	mov	al, BYTE PTR tv68[ebp]

; 1204 : }

	pop	edi
	pop	esi
	pop	ebx
	mov	esp, ebp
	pop	ebp
	ret	4
?HasSpawnFlags@CBaseEntity@@UBE_NH@Z ENDP		; CBaseEntity::HasSpawnFlags
_TEXT	ENDS
; Function compile flags: /Odtp /ZI
; File d:\!diffusion 2020\source code 2022\client-server\server\cbase.h
;	COMDAT ?AddSpawnFlags@CBaseEntity@@UAEXH@Z
_TEXT	SEGMENT
_this$ = -4						; size = 4
_nFlags$ = 8						; size = 4
?AddSpawnFlags@CBaseEntity@@UAEXH@Z PROC		; CBaseEntity::AddSpawnFlags, COMDAT
; _this$ = ecx

; 1197 : {

	push	ebp
	mov	ebp, esp
	sub	esp, 68					; 00000044H
	push	ebx
	push	esi
	push	edi
	mov	DWORD PTR _this$[ebp], ecx

; 1198 : 	pev->spawnflags |= nFlags;

	mov	eax, DWORD PTR _this$[ebp]
	mov	ecx, DWORD PTR [eax+4]
	mov	edx, DWORD PTR [ecx+416]
	or	edx, DWORD PTR _nFlags$[ebp]
	mov	eax, DWORD PTR _this$[ebp]
	mov	ecx, DWORD PTR [eax+4]
	mov	DWORD PTR [ecx+416], edx

; 1199 : }

	pop	edi
	pop	esi
	pop	ebx
	mov	esp, ebp
	pop	ebp
	ret	4
?AddSpawnFlags@CBaseEntity@@UAEXH@Z ENDP		; CBaseEntity::AddSpawnFlags
_TEXT	ENDS
; Function compile flags: /Odtp /ZI
; File d:\!diffusion 2020\source code 2022\client-server\server\cbase.h
;	COMDAT ?TeamID@CBaseEntity@@UAEPBDXZ
_TEXT	SEGMENT
_this$ = -4						; size = 4
?TeamID@CBaseEntity@@UAEPBDXZ PROC			; CBaseEntity::TeamID, COMDAT
; _this$ = ecx

; 466  : 	virtual const char	*TeamID( void ) { return ""; }

	push	ebp
	mov	ebp, esp
	sub	esp, 68					; 00000044H
	push	ebx
	push	esi
	push	edi
	mov	DWORD PTR _this$[ebp], ecx
	mov	eax, OFFSET ??_C@_00CNPNBAHC@?$AA@
	pop	edi
	pop	esi
	pop	ebx
	mov	esp, ebp
	pop	ebp
	ret	0
?TeamID@CBaseEntity@@UAEPBDXZ ENDP			; CBaseEntity::TeamID
_TEXT	ENDS
; Function compile flags: /Odtp /ZI
; File d:\!diffusion 2020\source code 2022\client-server\server\cbase.h
;	COMDAT ?IsBreakable@CBaseEntity@@UAEHXZ
_TEXT	SEGMENT
_this$ = -4						; size = 4
?IsBreakable@CBaseEntity@@UAEHXZ PROC			; CBaseEntity::IsBreakable, COMDAT
; _this$ = ecx

; 465  : 	virtual BOOL	IsBreakable( void ) { return FALSE; }

	push	ebp
	mov	ebp, esp
	sub	esp, 68					; 00000044H
	push	ebx
	push	esi
	push	edi
	mov	DWORD PTR _this$[ebp], ecx
	xor	eax, eax
	pop	edi
	pop	esi
	pop	ebx
	mov	esp, ebp
	pop	ebp
	ret	0
?IsBreakable@CBaseEntity@@UAEHXZ ENDP			; CBaseEntity::IsBreakable
_TEXT	ENDS
; Function compile flags: /Odtp /ZI
; File d:\!diffusion 2020\source code 2022\client-server\server\cbase.h
;	COMDAT ?IsMover@CBaseEntity@@UAEHXZ
_TEXT	SEGMENT
_this$ = -4						; size = 4
?IsMover@CBaseEntity@@UAEHXZ PROC			; CBaseEntity::IsMover, COMDAT
; _this$ = ecx

; 464  : 	virtual BOOL	IsMover( void ) { return FALSE; }

	push	ebp
	mov	ebp, esp
	sub	esp, 68					; 00000044H
	push	ebx
	push	esi
	push	edi
	mov	DWORD PTR _this$[ebp], ecx
	xor	eax, eax
	pop	edi
	pop	esi
	pop	ebx
	mov	esp, ebp
	pop	ebp
	ret	0
?IsMover@CBaseEntity@@UAEHXZ ENDP			; CBaseEntity::IsMover
_TEXT	ENDS
; Function compile flags: /Odtp /ZI
; File d:\!diffusion 2020\source code 2022\client-server\server\cbase.h
;	COMDAT ?IsTank@CBaseEntity@@UAEHXZ
_TEXT	SEGMENT
_this$ = -4						; size = 4
?IsTank@CBaseEntity@@UAEHXZ PROC			; CBaseEntity::IsTank, COMDAT
; _this$ = ecx

; 463  : 	virtual BOOL	IsTank( void ) { return FALSE; }

	push	ebp
	mov	ebp, esp
	sub	esp, 68					; 00000044H
	push	ebx
	push	esi
	push	edi
	mov	DWORD PTR _this$[ebp], ecx
	xor	eax, eax
	pop	edi
	pop	esi
	pop	ebx
	mov	esp, ebp
	pop	ebp
	ret	0
?IsTank@CBaseEntity@@UAEHXZ ENDP			; CBaseEntity::IsTank
_TEXT	ENDS
; Function compile flags: /Odtp /ZI
; File d:\!diffusion 2020\source code 2022\client-server\server\cbase.h
;	COMDAT ?IsPortal@CBaseEntity@@UAEHXZ
_TEXT	SEGMENT
_this$ = -4						; size = 4
?IsPortal@CBaseEntity@@UAEHXZ PROC			; CBaseEntity::IsPortal, COMDAT
; _this$ = ecx

; 462  : 	virtual BOOL	IsPortal( void ) { return FALSE; }

	push	ebp
	mov	ebp, esp
	sub	esp, 68					; 00000044H
	push	ebx
	push	esi
	push	edi
	mov	DWORD PTR _this$[ebp], ecx
	xor	eax, eax
	pop	edi
	pop	esi
	pop	ebx
	mov	esp, ebp
	pop	ebp
	ret	0
?IsPortal@CBaseEntity@@UAEHXZ ENDP			; CBaseEntity::IsPortal
_TEXT	ENDS
; Function compile flags: /Odtp /ZI
; File d:\!diffusion 2020\source code 2022\client-server\server\cbase.h
;	COMDAT ?IsFuncScreen@CBaseEntity@@UAEHXZ
_TEXT	SEGMENT
_this$ = -4						; size = 4
?IsFuncScreen@CBaseEntity@@UAEHXZ PROC			; CBaseEntity::IsFuncScreen, COMDAT
; _this$ = ecx

; 461  : 	virtual BOOL	IsFuncScreen( void ) { return FALSE; }

	push	ebp
	mov	ebp, esp
	sub	esp, 68					; 00000044H
	push	ebx
	push	esi
	push	edi
	mov	DWORD PTR _this$[ebp], ecx
	xor	eax, eax
	pop	edi
	pop	esi
	pop	ebx
	mov	esp, ebp
	pop	ebp
	ret	0
?IsFuncScreen@CBaseEntity@@UAEHXZ ENDP			; CBaseEntity::IsFuncScreen
_TEXT	ENDS
; Function compile flags: /Odtp /ZI
; File d:\!diffusion 2020\source code 2022\client-server\server\cbase.h
;	COMDAT ?IsProjectile@CBaseEntity@@UAEHXZ
_TEXT	SEGMENT
_this$ = -4						; size = 4
?IsProjectile@CBaseEntity@@UAEHXZ PROC			; CBaseEntity::IsProjectile, COMDAT
; _this$ = ecx

; 460  : 	virtual BOOL	IsProjectile( void ) { return FALSE; }

	push	ebp
	mov	ebp, esp
	sub	esp, 68					; 00000044H
	push	ebx
	push	esi
	push	edi
	mov	DWORD PTR _this$[ebp], ecx
	xor	eax, eax
	pop	edi
	pop	esi
	pop	ebx
	mov	esp, ebp
	pop	ebp
	ret	0
?IsProjectile@CBaseEntity@@UAEHXZ ENDP			; CBaseEntity::IsProjectile
_TEXT	ENDS
; Function compile flags: /Odtp /ZI
; File d:\!diffusion 2020\source code 2022\client-server\server\cbase.h
;	COMDAT ?IsPushable@CBaseEntity@@UAEHXZ
_TEXT	SEGMENT
_this$ = -4						; size = 4
?IsPushable@CBaseEntity@@UAEHXZ PROC			; CBaseEntity::IsPushable, COMDAT
; _this$ = ecx

; 459  : 	virtual BOOL	IsPushable( void ) { return FALSE; }

	push	ebp
	mov	ebp, esp
	sub	esp, 68					; 00000044H
	push	ebx
	push	esi
	push	edi
	mov	DWORD PTR _this$[ebp], ecx
	xor	eax, eax
	pop	edi
	pop	esi
	pop	ebx
	mov	esp, ebp
	pop	ebp
	ret	0
?IsPushable@CBaseEntity@@UAEHXZ ENDP			; CBaseEntity::IsPushable
_TEXT	ENDS
; Function compile flags: /Odtp /ZI
; File d:\!diffusion 2020\source code 2022\client-server\server\cbase.h
;	COMDAT ?IsMonster@CBaseEntity@@UAEHXZ
_TEXT	SEGMENT
tv68 = -72						; size = 4
_this$ = -4						; size = 4
?IsMonster@CBaseEntity@@UAEHXZ PROC			; CBaseEntity::IsMonster, COMDAT
; _this$ = ecx

; 458  : 	virtual BOOL	IsMonster( void ) { return (pev->flags & FL_MONSTER ? TRUE : FALSE); }

	push	ebp
	mov	ebp, esp
	sub	esp, 72					; 00000048H
	push	ebx
	push	esi
	push	edi
	mov	DWORD PTR _this$[ebp], ecx
	mov	eax, DWORD PTR _this$[ebp]
	mov	ecx, DWORD PTR [eax+4]
	mov	edx, DWORD PTR [ecx+420]
	and	edx, 32					; 00000020H
	je	SHORT $LN3@IsMonster
	mov	DWORD PTR tv68[ebp], 1
	jmp	SHORT $LN4@IsMonster
$LN3@IsMonster:
	mov	DWORD PTR tv68[ebp], 0
$LN4@IsMonster:
	mov	eax, DWORD PTR tv68[ebp]
	pop	edi
	pop	esi
	pop	ebx
	mov	esp, ebp
	pop	ebp
	ret	0
?IsMonster@CBaseEntity@@UAEHXZ ENDP			; CBaseEntity::IsMonster
_TEXT	ENDS
; Function compile flags: /Odtp /ZI
; File d:\!diffusion 2020\source code 2022\client-server\server\cbase.h
;	COMDAT ?IsNetClient@CBaseEntity@@UAEHXZ
_TEXT	SEGMENT
_this$ = -4						; size = 4
?IsNetClient@CBaseEntity@@UAEHXZ PROC			; CBaseEntity::IsNetClient, COMDAT
; _this$ = ecx

; 457  : 	virtual BOOL	IsNetClient( void ) { return FALSE; }

	push	ebp
	mov	ebp, esp
	sub	esp, 68					; 00000044H
	push	ebx
	push	esi
	push	edi
	mov	DWORD PTR _this$[ebp], ecx
	xor	eax, eax
	pop	edi
	pop	esi
	pop	ebx
	mov	esp, ebp
	pop	ebp
	ret	0
?IsNetClient@CBaseEntity@@UAEHXZ ENDP			; CBaseEntity::IsNetClient
_TEXT	ENDS
; Function compile flags: /Odtp /ZI
; File d:\!diffusion 2020\source code 2022\client-server\server\cbase.h
;	COMDAT ?IsPlayer@CBaseEntity@@UAEHXZ
_TEXT	SEGMENT
_this$ = -4						; size = 4
?IsPlayer@CBaseEntity@@UAEHXZ PROC			; CBaseEntity::IsPlayer, COMDAT
; _this$ = ecx

; 456  : 	virtual BOOL	IsPlayer( void ) { return FALSE; }

	push	ebp
	mov	ebp, esp
	sub	esp, 68					; 00000044H
	push	ebx
	push	esi
	push	edi
	mov	DWORD PTR _this$[ebp], ecx
	xor	eax, eax
	pop	edi
	pop	esi
	pop	ebx
	mov	esp, ebp
	pop	ebp
	ret	0
?IsPlayer@CBaseEntity@@UAEHXZ ENDP			; CBaseEntity::IsPlayer
_TEXT	ENDS
; Function compile flags: /Odtp /ZI
; File d:\!diffusion 2020\source code 2022\client-server\server\cbase.h
;	COMDAT ?HasTarget@CBaseEntity@@UAEHH@Z
_TEXT	SEGMENT
_this$ = -4						; size = 4
_targetname$ = 8					; size = 4
?HasTarget@CBaseEntity@@UAEHH@Z PROC			; CBaseEntity::HasTarget, COMDAT
; _this$ = ecx

; 454  : 	virtual BOOL	HasTarget( string_t targetname ) { return FStrEq(STRING(targetname), STRING(pev->target) ); }

	push	ebp
	mov	ebp, esp
	sub	esp, 68					; 00000044H
	push	ebx
	push	esi
	push	edi
	mov	DWORD PTR _this$[ebp], ecx
	mov	eax, DWORD PTR _this$[ebp]
	mov	ecx, DWORD PTR [eax+4]
	mov	edx, DWORD PTR [ecx+456]
	push	edx
	call	DWORD PTR ?g_engfuncs@@3Uenginefuncs_s@@A+264
	add	esp, 4
	push	eax
	mov	eax, DWORD PTR _targetname$[ebp]
	push	eax
	call	DWORD PTR ?g_engfuncs@@3Uenginefuncs_s@@A+264
	add	esp, 4
	push	eax
	call	?FStrEq@@YAHPBD0@Z			; FStrEq
	add	esp, 8
	pop	edi
	pop	esi
	pop	ebx
	mov	esp, ebp
	pop	ebp
	ret	4
?HasTarget@CBaseEntity@@UAEHH@Z ENDP			; CBaseEntity::HasTarget
_TEXT	ENDS
; Function compile flags: /Odtp /ZI
; File d:\!diffusion 2020\source code 2022\client-server\server\cbase.h
;	COMDAT ?ReflectGauss@CBaseEntity@@UAEHXZ
_TEXT	SEGMENT
tv77 = -72						; size = 4
_this$ = -4						; size = 4
?ReflectGauss@CBaseEntity@@UAEHXZ PROC			; CBaseEntity::ReflectGauss, COMDAT
; _this$ = ecx

; 453  : 	virtual BOOL	ReflectGauss( void ) { return (( IsBSPModel() || IsCustomModel()) && !pev->takedamage ); }

	push	ebp
	mov	ebp, esp
	sub	esp, 72					; 00000048H
	push	ebx
	push	esi
	push	edi
	mov	DWORD PTR _this$[ebp], ecx
	mov	eax, DWORD PTR _this$[ebp]
	mov	edx, DWORD PTR [eax]
	mov	ecx, DWORD PTR _this$[ebp]
	mov	eax, DWORD PTR [edx+200]
	call	eax
	test	eax, eax
	jne	SHORT $LN3@ReflectGau
	mov	ecx, DWORD PTR _this$[ebp]
	mov	edx, DWORD PTR [ecx]
	mov	ecx, DWORD PTR _this$[ebp]
	mov	eax, DWORD PTR [edx+204]
	call	eax
	test	eax, eax
	je	SHORT $LN4@ReflectGau
$LN3@ReflectGau:
	mov	ecx, DWORD PTR _this$[ebp]
	mov	edx, DWORD PTR [ecx+4]
	movss	xmm0, DWORD PTR [edx+364]
	ucomiss	xmm0, DWORD PTR __real@00000000
	lahf
	test	ah, 68					; 00000044H
	jp	SHORT $LN4@ReflectGau
	mov	DWORD PTR tv77[ebp], 1
	jmp	SHORT $LN5@ReflectGau
$LN4@ReflectGau:
	mov	DWORD PTR tv77[ebp], 0
$LN5@ReflectGau:
	mov	eax, DWORD PTR tv77[ebp]
	pop	edi
	pop	esi
	pop	ebx
	mov	esp, ebp
	pop	ebp
	ret	0
?ReflectGauss@CBaseEntity@@UAEHXZ ENDP			; CBaseEntity::ReflectGauss
_TEXT	ENDS
; Function compile flags: /Odtp /ZI
; File d:\!diffusion 2020\source code 2022\client-server\server\cbase.h
;	COMDAT ?IsCustomModel@CBaseEntity@@UAEHXZ
_TEXT	SEGMENT
tv67 = -72						; size = 4
_this$ = -4						; size = 4
?IsCustomModel@CBaseEntity@@UAEHXZ PROC			; CBaseEntity::IsCustomModel, COMDAT
; _this$ = ecx

; 452  : 	virtual BOOL	IsCustomModel( void ) { return pev->solid == SOLID_CUSTOM; }

	push	ebp
	mov	ebp, esp
	sub	esp, 72					; 00000048H
	push	ebx
	push	esi
	push	edi
	mov	DWORD PTR _this$[ebp], ecx
	mov	eax, DWORD PTR _this$[ebp]
	mov	ecx, DWORD PTR [eax+4]
	cmp	DWORD PTR [ecx+268], 5
	jne	SHORT $LN3@IsCustomMo
	mov	DWORD PTR tv67[ebp], 1
	jmp	SHORT $LN4@IsCustomMo
$LN3@IsCustomMo:
	mov	DWORD PTR tv67[ebp], 0
$LN4@IsCustomMo:
	mov	eax, DWORD PTR tv67[ebp]
	pop	edi
	pop	esi
	pop	ebx
	mov	esp, ebp
	pop	ebp
	ret	0
?IsCustomModel@CBaseEntity@@UAEHXZ ENDP			; CBaseEntity::IsCustomModel
_TEXT	ENDS
; Function compile flags: /Odtp /ZI
; File d:\!diffusion 2020\source code 2022\client-server\server\cbase.h
;	COMDAT ?IsBSPModel@CBaseEntity@@UAEHXZ
_TEXT	SEGMENT
tv69 = -72						; size = 4
_this$ = -4						; size = 4
?IsBSPModel@CBaseEntity@@UAEHXZ PROC			; CBaseEntity::IsBSPModel, COMDAT
; _this$ = ecx

; 451  : 	virtual BOOL	IsBSPModel( void ) { return UTIL_GetModelType( pev->modelindex ) == mod_brush; }

	push	ebp
	mov	ebp, esp
	sub	esp, 72					; 00000048H
	push	ebx
	push	esi
	push	edi
	mov	DWORD PTR _this$[ebp], ecx
	mov	eax, DWORD PTR _this$[ebp]
	mov	ecx, DWORD PTR [eax+4]
	mov	edx, DWORD PTR [ecx+180]
	push	edx
	call	?UTIL_GetModelType@@YA?AW4modtype_t@@H@Z ; UTIL_GetModelType
	add	esp, 4
	test	eax, eax
	jne	SHORT $LN3@IsBSPModel
	mov	DWORD PTR tv69[ebp], 1
	jmp	SHORT $LN4@IsBSPModel
$LN3@IsBSPModel:
	mov	DWORD PTR tv69[ebp], 0
$LN4@IsBSPModel:
	mov	eax, DWORD PTR tv69[ebp]
	pop	edi
	pop	esi
	pop	ebx
	mov	esp, ebp
	pop	ebp
	ret	0
?IsBSPModel@CBaseEntity@@UAEHXZ ENDP			; CBaseEntity::IsBSPModel
_TEXT	ENDS
; Function compile flags: /Odtp /ZI
; File d:\!diffusion 2020\source code 2022\client-server\server\cbase.h
;	COMDAT ?IsAlive@CBaseEntity@@UAEHXZ
_TEXT	SEGMENT
tv70 = -72						; size = 4
_this$ = -4						; size = 4
?IsAlive@CBaseEntity@@UAEHXZ PROC			; CBaseEntity::IsAlive, COMDAT
; _this$ = ecx

; 450  : 	virtual BOOL	IsAlive( void ) { return (pev->deadflag == DEAD_NO) && pev->health > 0; }

	push	ebp
	mov	ebp, esp
	sub	esp, 72					; 00000048H
	push	ebx
	push	esi
	push	edi
	mov	DWORD PTR _this$[ebp], ecx
	mov	eax, DWORD PTR _this$[ebp]
	mov	ecx, DWORD PTR [eax+4]
	cmp	DWORD PTR [ecx+368], 0
	jne	SHORT $LN3@IsAlive
	mov	edx, DWORD PTR _this$[ebp]
	mov	eax, DWORD PTR [edx+4]
	movss	xmm0, DWORD PTR [eax+352]
	comiss	xmm0, DWORD PTR __real@00000000
	jbe	SHORT $LN3@IsAlive
	mov	DWORD PTR tv70[ebp], 1
	jmp	SHORT $LN4@IsAlive
$LN3@IsAlive:
	mov	DWORD PTR tv70[ebp], 0
$LN4@IsAlive:
	mov	eax, DWORD PTR tv70[ebp]
	pop	edi
	pop	esi
	pop	ebx
	mov	esp, ebp
	pop	ebp
	ret	0
?IsAlive@CBaseEntity@@UAEHXZ ENDP			; CBaseEntity::IsAlive
_TEXT	ENDS
; Function compile flags: /Odtp /ZI
; File d:\!diffusion 2020\source code 2022\client-server\server\cbase.h
;	COMDAT ?IsSneaking@CBaseEntity@@UAEHXZ
_TEXT	SEGMENT
_this$ = -4						; size = 4
?IsSneaking@CBaseEntity@@UAEHXZ PROC			; CBaseEntity::IsSneaking, COMDAT
; _this$ = ecx

; 449  : 	virtual BOOL	IsSneaking( void ) { return FALSE; }

	push	ebp
	mov	ebp, esp
	sub	esp, 68					; 00000044H
	push	ebx
	push	esi
	push	edi
	mov	DWORD PTR _this$[ebp], ecx
	xor	eax, eax
	pop	edi
	pop	esi
	pop	ebx
	mov	esp, ebp
	pop	ebp
	ret	0
?IsSneaking@CBaseEntity@@UAEHXZ ENDP			; CBaseEntity::IsSneaking
_TEXT	ENDS
; Function compile flags: /Odtp /ZI
; File d:\!diffusion 2020\source code 2022\client-server\server\cbase.h
;	COMDAT ?OnControls@CBaseEntity@@UAEHPAV1@@Z
_TEXT	SEGMENT
_this$ = -4						; size = 4
_pTest$ = 8						; size = 4
?OnControls@CBaseEntity@@UAEHPAV1@@Z PROC		; CBaseEntity::OnControls, COMDAT
; _this$ = ecx

; 448  : 	virtual BOOL	OnControls( CBaseEntity *pTest ) { return FALSE; }

	push	ebp
	mov	ebp, esp
	sub	esp, 68					; 00000044H
	push	ebx
	push	esi
	push	edi
	mov	DWORD PTR _this$[ebp], ecx
	xor	eax, eax
	pop	edi
	pop	esi
	pop	ebx
	mov	esp, ebp
	pop	ebp
	ret	4
?OnControls@CBaseEntity@@UAEHPAV1@@Z ENDP		; CBaseEntity::OnControls
_TEXT	ENDS
; Function compile flags: /Odtp /ZI
; File d:\!diffusion 2020\source code 2022\client-server\server\cbase.h
;	COMDAT ?StopSneaking@CBaseEntity@@UAEXXZ
_TEXT	SEGMENT
_this$ = -4						; size = 4
?StopSneaking@CBaseEntity@@UAEXXZ PROC			; CBaseEntity::StopSneaking, COMDAT
; _this$ = ecx

; 447  : 	virtual void	StopSneaking( void ) {}

	push	ebp
	mov	ebp, esp
	sub	esp, 68					; 00000044H
	push	ebx
	push	esi
	push	edi
	mov	DWORD PTR _this$[ebp], ecx
	pop	edi
	pop	esi
	pop	ebx
	mov	esp, ebp
	pop	ebp
	ret	0
?StopSneaking@CBaseEntity@@UAEXXZ ENDP			; CBaseEntity::StopSneaking
_TEXT	ENDS
; Function compile flags: /Odtp /ZI
; File d:\!diffusion 2020\source code 2022\client-server\server\cbase.h
;	COMDAT ?StartSneaking@CBaseEntity@@UAEXXZ
_TEXT	SEGMENT
_this$ = -4						; size = 4
?StartSneaking@CBaseEntity@@UAEXXZ PROC			; CBaseEntity::StartSneaking, COMDAT
; _this$ = ecx

; 446  : 	virtual void	StartSneaking( void ) {}

	push	ebp
	mov	ebp, esp
	sub	esp, 68					; 00000044H
	push	ebx
	push	esi
	push	edi
	mov	DWORD PTR _this$[ebp], ecx
	pop	edi
	pop	esi
	pop	ebx
	mov	esp, ebp
	pop	ebp
	ret	0
?StartSneaking@CBaseEntity@@UAEXXZ ENDP			; CBaseEntity::StartSneaking
_TEXT	ENDS
; Function compile flags: /Odtp /ZI
; File d:\!diffusion 2020\source code 2022\client-server\server\cbase.h
;	COMDAT ?SetToggleState@CBaseEntity@@UAEXH@Z
_TEXT	SEGMENT
_this$ = -4						; size = 4
_state$ = 8						; size = 4
?SetToggleState@CBaseEntity@@UAEXH@Z PROC		; CBaseEntity::SetToggleState, COMDAT
; _this$ = ecx

; 445  : 	virtual void	SetToggleState( int state ) {}

	push	ebp
	mov	ebp, esp
	sub	esp, 68					; 00000044H
	push	ebx
	push	esi
	push	edi
	mov	DWORD PTR _this$[ebp], ecx
	pop	edi
	pop	esi
	pop	ebx
	mov	esp, ebp
	pop	ebp
	ret	4
?SetToggleState@CBaseEntity@@UAEXH@Z ENDP		; CBaseEntity::SetToggleState
_TEXT	ENDS
; Function compile flags: /Odtp /ZI
; File d:\!diffusion 2020\source code 2022\client-server\server\cbase.h
;	COMDAT ?TransferReset@CBaseEntity@@UAEXXZ
_TEXT	SEGMENT
_this$ = -4						; size = 4
?TransferReset@CBaseEntity@@UAEXXZ PROC			; CBaseEntity::TransferReset, COMDAT
; _this$ = ecx

; 442  : 	virtual void	TransferReset( void ) {}

	push	ebp
	mov	ebp, esp
	sub	esp, 68					; 00000044H
	push	ebx
	push	esi
	push	edi
	mov	DWORD PTR _this$[ebp], ecx
	pop	edi
	pop	esi
	pop	ebx
	mov	esp, ebp
	pop	ebp
	ret	0
?TransferReset@CBaseEntity@@UAEXXZ ENDP			; CBaseEntity::TransferReset
_TEXT	ENDS
; Function compile flags: /Odtp /ZI
; File d:\!diffusion 2020\source code 2022\client-server\server\cbase.h
;	COMDAT ?OverrideReset@CBaseEntity@@UAEXXZ
_TEXT	SEGMENT
_this$ = -4						; size = 4
?OverrideReset@CBaseEntity@@UAEXXZ PROC			; CBaseEntity::OverrideReset, COMDAT
; _this$ = ecx

; 441  : 	virtual void	OverrideReset( void ) {}

	push	ebp
	mov	ebp, esp
	sub	esp, 68					; 00000044H
	push	ebx
	push	esi
	push	edi
	mov	DWORD PTR _this$[ebp], ecx
	pop	edi
	pop	esi
	pop	ebx
	mov	esp, ebp
	pop	ebp
	ret	0
?OverrideReset@CBaseEntity@@UAEXXZ ENDP			; CBaseEntity::OverrideReset
_TEXT	ENDS
; Function compile flags: /Odtp /ZI
; File d:\!diffusion 2020\source code 2022\client-server\server\cbase.h
;	COMDAT ?IsMoving@CBaseEntity@@UAEHXZ
_TEXT	SEGMENT
_this$ = -4						; size = 4
?IsMoving@CBaseEntity@@UAEHXZ PROC			; CBaseEntity::IsMoving, COMDAT
; _this$ = ecx

; 440  : 	virtual int	IsMoving( void ) { return GetAbsVelocity() != g_vecZero; }

	push	ebp
	mov	ebp, esp
	sub	esp, 68					; 00000044H
	push	ebx
	push	esi
	push	edi
	mov	DWORD PTR _this$[ebp], ecx
	push	OFFSET ?g_vecZero@@3VVector@@B		; g_vecZero
	mov	ecx, DWORD PTR _this$[ebp]
	call	?GetAbsVelocity@CBaseEntity@@QBEABVVector@@XZ ; CBaseEntity::GetAbsVelocity
	mov	ecx, eax
	call	??9Vector@@QBEHABV0@@Z			; Vector::operator!=
	pop	edi
	pop	esi
	pop	ebx
	mov	esp, ebp
	pop	ebp
	ret	0
?IsMoving@CBaseEntity@@UAEHXZ ENDP			; CBaseEntity::IsMoving
_TEXT	ENDS
; Function compile flags: /Odtp /ZI
; File d:\!diffusion 2020\source code 2022\client-server\server\cbase.h
;	COMDAT ?GetDelay@CBaseEntity@@UAEMXZ
_TEXT	SEGMENT
_this$ = -4						; size = 4
?GetDelay@CBaseEntity@@UAEMXZ PROC			; CBaseEntity::GetDelay, COMDAT
; _this$ = ecx

; 439  : 	virtual float	GetDelay( void ) { return 0; }

	push	ebp
	mov	ebp, esp
	sub	esp, 68					; 00000044H
	push	ebx
	push	esi
	push	edi
	mov	DWORD PTR _this$[ebp], ecx
	fldz
	pop	edi
	pop	esi
	pop	ebx
	mov	esp, ebp
	pop	ebp
	ret	0
?GetDelay@CBaseEntity@@UAEMXZ ENDP			; CBaseEntity::GetDelay
_TEXT	ENDS
; Function compile flags: /Odtp /ZI
; File d:\!diffusion 2020\source code 2022\client-server\server\cbase.h
;	COMDAT ?GiveAmmo@CBaseEntity@@UAEHHPADH@Z
_TEXT	SEGMENT
_this$ = -4						; size = 4
_iAmount$ = 8						; size = 4
_szName$ = 12						; size = 4
_iMax$ = 16						; size = 4
?GiveAmmo@CBaseEntity@@UAEHHPADH@Z PROC			; CBaseEntity::GiveAmmo, COMDAT
; _this$ = ecx

; 438  : 	virtual int 	GiveAmmo( int iAmount, char *szName, int iMax ) { return -1; };

	push	ebp
	mov	ebp, esp
	sub	esp, 68					; 00000044H
	push	ebx
	push	esi
	push	edi
	mov	DWORD PTR _this$[ebp], ecx
	or	eax, -1
	pop	edi
	pop	esi
	pop	ebx
	mov	esp, ebp
	pop	ebp
	ret	12					; 0000000cH
?GiveAmmo@CBaseEntity@@UAEHHPADH@Z ENDP			; CBaseEntity::GiveAmmo
_TEXT	ENDS
; Function compile flags: /Odtp /ZI
; File d:\!diffusion 2020\source code 2022\client-server\server\cbase.h
;	COMDAT ?RemovePlayerItem@CBaseEntity@@UAEHPAVCBasePlayerItem@@@Z
_TEXT	SEGMENT
_this$ = -4						; size = 4
_pItem$ = 8						; size = 4
?RemovePlayerItem@CBaseEntity@@UAEHPAVCBasePlayerItem@@@Z PROC ; CBaseEntity::RemovePlayerItem, COMDAT
; _this$ = ecx

; 437  : 	virtual BOOL	RemovePlayerItem( CBasePlayerItem *pItem ) { return 0; }

	push	ebp
	mov	ebp, esp
	sub	esp, 68					; 00000044H
	push	ebx
	push	esi
	push	edi
	mov	DWORD PTR _this$[ebp], ecx
	xor	eax, eax
	pop	edi
	pop	esi
	pop	ebx
	mov	esp, ebp
	pop	ebp
	ret	4
?RemovePlayerItem@CBaseEntity@@UAEHPAVCBasePlayerItem@@@Z ENDP ; CBaseEntity::RemovePlayerItem
_TEXT	ENDS
; Function compile flags: /Odtp /ZI
; File d:\!diffusion 2020\source code 2022\client-server\server\cbase.h
;	COMDAT ?AddPlayerItem@CBaseEntity@@UAEHPAVCBasePlayerItem@@@Z
_TEXT	SEGMENT
_this$ = -4						; size = 4
_pItem$ = 8						; size = 4
?AddPlayerItem@CBaseEntity@@UAEHPAVCBasePlayerItem@@@Z PROC ; CBaseEntity::AddPlayerItem, COMDAT
; _this$ = ecx

; 436  : 	virtual BOOL	AddPlayerItem( CBasePlayerItem *pItem ) { return 0; }

	push	ebp
	mov	ebp, esp
	sub	esp, 68					; 00000044H
	push	ebx
	push	esi
	push	edi
	mov	DWORD PTR _this$[ebp], ecx
	xor	eax, eax
	pop	edi
	pop	esi
	pop	ebx
	mov	esp, ebp
	pop	ebp
	ret	4
?AddPlayerItem@CBaseEntity@@UAEHPAVCBasePlayerItem@@@Z ENDP ; CBaseEntity::AddPlayerItem
_TEXT	ENDS
; Function compile flags: /Odtp /ZI
; File d:\!diffusion 2020\source code 2022\client-server\server\cbase.h
;	COMDAT ?AddPointsToTeam@CBaseEntity@@UAEXHH@Z
_TEXT	SEGMENT
_this$ = -4						; size = 4
_score$ = 8						; size = 4
_bAllowNegativeScore$ = 12				; size = 4
?AddPointsToTeam@CBaseEntity@@UAEXHH@Z PROC		; CBaseEntity::AddPointsToTeam, COMDAT
; _this$ = ecx

; 435  : 	virtual void	AddPointsToTeam( int score, BOOL bAllowNegativeScore ) {}

	push	ebp
	mov	ebp, esp
	sub	esp, 68					; 00000044H
	push	ebx
	push	esi
	push	edi
	mov	DWORD PTR _this$[ebp], ecx
	pop	edi
	pop	esi
	pop	ebx
	mov	esp, ebp
	pop	ebp
	ret	8
?AddPointsToTeam@CBaseEntity@@UAEXHH@Z ENDP		; CBaseEntity::AddPointsToTeam
_TEXT	ENDS
; Function compile flags: /Odtp /ZI
; File d:\!diffusion 2020\source code 2022\client-server\server\cbase.h
;	COMDAT ?AddPoints@CBaseEntity@@UAEXHH@Z
_TEXT	SEGMENT
_this$ = -4						; size = 4
_score$ = 8						; size = 4
_bAllowNegativeScore$ = 12				; size = 4
?AddPoints@CBaseEntity@@UAEXHH@Z PROC			; CBaseEntity::AddPoints, COMDAT
; _this$ = ecx

; 434  : 	virtual void	AddPoints( int score, BOOL bAllowNegativeScore ) {}

	push	ebp
	mov	ebp, esp
	sub	esp, 68					; 00000044H
	push	ebx
	push	esi
	push	edi
	mov	DWORD PTR _this$[ebp], ecx
	pop	edi
	pop	esi
	pop	ebx
	mov	esp, ebp
	pop	ebp
	ret	8
?AddPoints@CBaseEntity@@UAEXHH@Z ENDP			; CBaseEntity::AddPoints
_TEXT	ENDS
; Function compile flags: /Odtp /ZI
; File d:\!diffusion 2020\source code 2022\client-server\server\cbase.h
;	COMDAT ?GetToggleState@CBaseEntity@@UAEHXZ
_TEXT	SEGMENT
_this$ = -4						; size = 4
?GetToggleState@CBaseEntity@@UAEHXZ PROC		; CBaseEntity::GetToggleState, COMDAT
; _this$ = ecx

; 433  : 	virtual int	GetToggleState( void ) { return TS_AT_TOP; }

	push	ebp
	mov	ebp, esp
	sub	esp, 68					; 00000044H
	push	ebx
	push	esi
	push	edi
	mov	DWORD PTR _this$[ebp], ecx
	xor	eax, eax
	pop	edi
	pop	esi
	pop	ebx
	mov	esp, ebp
	pop	ebp
	ret	0
?GetToggleState@CBaseEntity@@UAEHXZ ENDP		; CBaseEntity::GetToggleState
_TEXT	ENDS
; Function compile flags: /Odtp /ZI
; File d:\!diffusion 2020\source code 2022\client-server\server\cbase.h
;	COMDAT ?MySquadMonsterPointer@CBaseEntity@@UAEPAVCSquadMonster@@XZ
_TEXT	SEGMENT
_this$ = -4						; size = 4
?MySquadMonsterPointer@CBaseEntity@@UAEPAVCSquadMonster@@XZ PROC ; CBaseEntity::MySquadMonsterPointer, COMDAT
; _this$ = ecx

; 432  : 	virtual CSquadMonster *MySquadMonsterPointer( void ) { return NULL;}

	push	ebp
	mov	ebp, esp
	sub	esp, 68					; 00000044H
	push	ebx
	push	esi
	push	edi
	mov	DWORD PTR _this$[ebp], ecx
	xor	eax, eax
	pop	edi
	pop	esi
	pop	ebx
	mov	esp, ebp
	pop	ebp
	ret	0
?MySquadMonsterPointer@CBaseEntity@@UAEPAVCSquadMonster@@XZ ENDP ; CBaseEntity::MySquadMonsterPointer
_TEXT	ENDS
; Function compile flags: /Odtp /ZI
; File d:\!diffusion 2020\source code 2022\client-server\server\cbase.h
;	COMDAT ?MyMonsterPointer@CBaseEntity@@UAEPAVCBaseMonster@@XZ
_TEXT	SEGMENT
_this$ = -4						; size = 4
?MyMonsterPointer@CBaseEntity@@UAEPAVCBaseMonster@@XZ PROC ; CBaseEntity::MyMonsterPointer, COMDAT
; _this$ = ecx

; 431  : 	virtual CBaseMonster *MyMonsterPointer( void ) { return NULL;}

	push	ebp
	mov	ebp, esp
	sub	esp, 68					; 00000044H
	push	ebx
	push	esi
	push	edi
	mov	DWORD PTR _this$[ebp], ecx
	xor	eax, eax
	pop	edi
	pop	esi
	pop	ebx
	mov	esp, ebp
	pop	ebp
	ret	0
?MyMonsterPointer@CBaseEntity@@UAEPAVCBaseMonster@@XZ ENDP ; CBaseEntity::MyMonsterPointer
_TEXT	ENDS
; Function compile flags: /Odtp /ZI
; File d:\!diffusion 2020\source code 2022\client-server\server\cbase.h
;	COMDAT ?IsTriggered@CBaseEntity@@UAEHPAV1@@Z
_TEXT	SEGMENT
_this$ = -4						; size = 4
_pActivator$ = 8					; size = 4
?IsTriggered@CBaseEntity@@UAEHPAV1@@Z PROC		; CBaseEntity::IsTriggered, COMDAT
; _this$ = ecx

; 430  : 	virtual BOOL	IsTriggered( CBaseEntity *pActivator ) {return TRUE;}

	push	ebp
	mov	ebp, esp
	sub	esp, 68					; 00000044H
	push	ebx
	push	esi
	push	edi
	mov	DWORD PTR _this$[ebp], ecx
	mov	eax, 1
	pop	edi
	pop	esi
	pop	ebx
	mov	esp, ebp
	pop	ebp
	ret	4
?IsTriggered@CBaseEntity@@UAEHPAV1@@Z ENDP		; CBaseEntity::IsTriggered
_TEXT	ENDS
; Function compile flags: /Odtp /ZI
; File d:\!diffusion 2020\source code 2022\client-server\server\cbase.h
;	COMDAT ?BloodColor@CBaseEntity@@UAEHXZ
_TEXT	SEGMENT
_this$ = -4						; size = 4
?BloodColor@CBaseEntity@@UAEHXZ PROC			; CBaseEntity::BloodColor, COMDAT
; _this$ = ecx

; 428  : 	virtual int	BloodColor( void ) { return DONT_BLEED; }

	push	ebp
	mov	ebp, esp
	sub	esp, 68					; 00000044H
	push	ebx
	push	esi
	push	edi
	mov	DWORD PTR _this$[ebp], ecx
	or	eax, -1
	pop	edi
	pop	esi
	pop	ebx
	mov	esp, ebp
	pop	ebp
	ret	0
?BloodColor@CBaseEntity@@UAEHXZ ENDP			; CBaseEntity::BloodColor
_TEXT	ENDS
; Function compile flags: /Odtp /ZI
; File d:\!diffusion 2020\source code 2022\client-server\server\cbase.h
;	COMDAT ?GetState@CBaseEntity@@UAE?AW4STATE@@PAV1@@Z
_TEXT	SEGMENT
_this$ = -4						; size = 4
_pEnt$ = 8						; size = 4
?GetState@CBaseEntity@@UAE?AW4STATE@@PAV1@@Z PROC	; CBaseEntity::GetState, COMDAT
; _this$ = ecx

; 421  : 	virtual STATE GetState ( CBaseEntity* pEnt ) { return GetState(); };

	push	ebp
	mov	ebp, esp
	sub	esp, 68					; 00000044H
	push	ebx
	push	esi
	push	edi
	mov	DWORD PTR _this$[ebp], ecx
	mov	eax, DWORD PTR _this$[ebp]
	mov	edx, DWORD PTR [eax]
	mov	ecx, DWORD PTR _this$[ebp]
	mov	eax, DWORD PTR [edx+88]
	call	eax
	pop	edi
	pop	esi
	pop	ebx
	mov	esp, ebp
	pop	ebp
	ret	4
?GetState@CBaseEntity@@UAE?AW4STATE@@PAV1@@Z ENDP	; CBaseEntity::GetState
_TEXT	ENDS
; Function compile flags: /Odtp /ZI
; File d:\!diffusion 2020\source code 2022\client-server\server\cbase.h
;	COMDAT ?GetState@CBaseEntity@@UAE?AW4STATE@@XZ
_TEXT	SEGMENT
_this$ = -4						; size = 4
?GetState@CBaseEntity@@UAE?AW4STATE@@XZ PROC		; CBaseEntity::GetState, COMDAT
; _this$ = ecx

; 418  : 	virtual STATE GetState ( void ) { return STATE_OFF; };

	push	ebp
	mov	ebp, esp
	sub	esp, 68					; 00000044H
	push	ebx
	push	esi
	push	edi
	mov	DWORD PTR _this$[ebp], ecx
	xor	eax, eax
	pop	edi
	pop	esi
	pop	ebx
	mov	esp, ebp
	pop	ebp
	ret	0
?GetState@CBaseEntity@@UAE?AW4STATE@@XZ ENDP		; CBaseEntity::GetState
_TEXT	ENDS
; Function compile flags: /Odtp /ZI
; File d:\!diffusion 2020\source code 2022\client-server\server\cbase.h
;	COMDAT ?IsRigidBody@CBaseEntity@@UAEHXZ
_TEXT	SEGMENT
tv67 = -72						; size = 4
_this$ = -4						; size = 4
?IsRigidBody@CBaseEntity@@UAEHXZ PROC			; CBaseEntity::IsRigidBody, COMDAT
; _this$ = ecx

; 407  : 	virtual BOOL IsRigidBody( void ) { return (m_iActorType == ACTOR_DYNAMIC); } 

	push	ebp
	mov	ebp, esp
	sub	esp, 72					; 00000048H
	push	ebx
	push	esi
	push	edi
	mov	DWORD PTR _this$[ebp], ecx
	mov	eax, DWORD PTR _this$[ebp]
	movzx	ecx, BYTE PTR [eax+1616]
	cmp	ecx, 1
	jne	SHORT $LN3@IsRigidBod
	mov	DWORD PTR tv67[ebp], 1
	jmp	SHORT $LN4@IsRigidBod
$LN3@IsRigidBod:
	mov	DWORD PTR tv67[ebp], 0
$LN4@IsRigidBod:
	mov	eax, DWORD PTR tv67[ebp]
	pop	edi
	pop	esi
	pop	ebx
	mov	esp, ebp
	pop	ebp
	ret	0
?IsRigidBody@CBaseEntity@@UAEHXZ ENDP			; CBaseEntity::IsRigidBody
_TEXT	ENDS
; Function compile flags: /Odtp /ZI
; File d:\!diffusion 2020\source code 2022\client-server\server\cbase.h
;	COMDAT ?DeathNotice@CBaseEntity@@UAEXPAUentvars_s@@@Z
_TEXT	SEGMENT
_this$ = -4						; size = 4
_pevChild$ = 8						; size = 4
?DeathNotice@CBaseEntity@@UAEXPAUentvars_s@@@Z PROC	; CBaseEntity::DeathNotice, COMDAT
; _this$ = ecx

; 406  : 	virtual void DeathNotice ( entvars_t *pevChild ) { } // monster maker children use this to tell the monster maker that they have died.

	push	ebp
	mov	ebp, esp
	sub	esp, 68					; 00000044H
	push	ebx
	push	esi
	push	edi
	mov	DWORD PTR _this$[ebp], ecx
	pop	edi
	pop	esi
	pop	ebx
	mov	esp, ebp
	pop	ebp
	ret	4
?DeathNotice@CBaseEntity@@UAEXPAUentvars_s@@@Z ENDP	; CBaseEntity::DeathNotice
_TEXT	ENDS
; Function compile flags: /Odtp /ZI
; File d:\!diffusion 2020\source code 2022\client-server\server\cbase.h
;	COMDAT ?Classify@CBaseEntity@@UAEHXZ
_TEXT	SEGMENT
_this$ = -4						; size = 4
?Classify@CBaseEntity@@UAEHXZ PROC			; CBaseEntity::Classify, COMDAT
; _this$ = ecx

; 405  : 	virtual int Classify ( void ) { return CLASS_NONE; };

	push	ebp
	mov	ebp, esp
	sub	esp, 68					; 00000044H
	push	ebx
	push	esi
	push	edi
	mov	DWORD PTR _this$[ebp], ecx
	xor	eax, eax
	pop	edi
	pop	esi
	pop	ebx
	mov	esp, ebp
	pop	ebp
	ret	0
?Classify@CBaseEntity@@UAEHXZ ENDP			; CBaseEntity::Classify
_TEXT	ENDS
; Function compile flags: /Odtp /ZI
; File d:\!diffusion 2020\source code 2022\client-server\server\cbase.h
;	COMDAT ?OnRemove@CBaseEntity@@UAEXXZ
_TEXT	SEGMENT
_this$ = -4						; size = 4
?OnRemove@CBaseEntity@@UAEXXZ PROC			; CBaseEntity::OnRemove, COMDAT
; _this$ = ecx

; 393  : 	virtual void	OnRemove( void ) {}

	push	ebp
	mov	ebp, esp
	sub	esp, 68					; 00000044H
	push	ebx
	push	esi
	push	edi
	mov	DWORD PTR _this$[ebp], ecx
	pop	edi
	pop	esi
	pop	ebx
	mov	esp, ebp
	pop	ebp
	ret	0
?OnRemove@CBaseEntity@@UAEXXZ ENDP			; CBaseEntity::OnRemove
_TEXT	ENDS
; Function compile flags: /Odtp /ZI
; File d:\!diffusion 2020\source code 2022\client-server\server\cbase.h
;	COMDAT ?OnClearParent@CBaseEntity@@UAEXXZ
_TEXT	SEGMENT
_this$ = -4						; size = 4
?OnClearParent@CBaseEntity@@UAEXXZ PROC			; CBaseEntity::OnClearParent, COMDAT
; _this$ = ecx

; 392  : 	virtual void	OnClearParent( void ) {}

	push	ebp
	mov	ebp, esp
	sub	esp, 68					; 00000044H
	push	ebx
	push	esi
	push	edi
	mov	DWORD PTR _this$[ebp], ecx
	pop	edi
	pop	esi
	pop	ebx
	mov	esp, ebp
	pop	ebp
	ret	0
?OnClearParent@CBaseEntity@@UAEXXZ ENDP			; CBaseEntity::OnClearParent
_TEXT	ENDS
; Function compile flags: /Odtp /ZI
; File d:\!diffusion 2020\source code 2022\client-server\server\cbase.h
;	COMDAT ?OnChangeParent@CBaseEntity@@UAEXXZ
_TEXT	SEGMENT
_this$ = -4						; size = 4
?OnChangeParent@CBaseEntity@@UAEXXZ PROC		; CBaseEntity::OnChangeParent, COMDAT
; _this$ = ecx

; 391  : 	virtual void	OnChangeParent( void ) {}

	push	ebp
	mov	ebp, esp
	sub	esp, 68					; 00000044H
	push	ebx
	push	esi
	push	edi
	mov	DWORD PTR _this$[ebp], ecx
	pop	edi
	pop	esi
	pop	ebx
	mov	esp, ebp
	pop	ebp
	ret	0
?OnChangeParent@CBaseEntity@@UAEXXZ ENDP		; CBaseEntity::OnChangeParent
_TEXT	ENDS
; Function compile flags: /Odtp /ZI
; File d:\!diffusion 2020\source code 2022\client-server\server\cbase.h
;	COMDAT ?GetPosition@CBaseEntity@@UAEMXZ
_TEXT	SEGMENT
_this$ = -4						; size = 4
?GetPosition@CBaseEntity@@UAEMXZ PROC			; CBaseEntity::GetPosition, COMDAT
; _this$ = ecx

; 390  : 	virtual float	GetPosition( void ) { return 0.0f; }

	push	ebp
	mov	ebp, esp
	sub	esp, 68					; 00000044H
	push	ebx
	push	esi
	push	edi
	mov	DWORD PTR _this$[ebp], ecx
	fldz
	pop	edi
	pop	esi
	pop	ebx
	mov	esp, ebp
	pop	ebp
	ret	0
?GetPosition@CBaseEntity@@UAEMXZ ENDP			; CBaseEntity::GetPosition
_TEXT	ENDS
; Function compile flags: /Odtp /ZI
; File d:\!diffusion 2020\source code 2022\client-server\server\cbase.h
;	COMDAT ?StartMessage@CBaseEntity@@UAEXPAVCBasePlayer@@@Z
_TEXT	SEGMENT
_this$ = -4						; size = 4
_pPlayer$ = 8						; size = 4
?StartMessage@CBaseEntity@@UAEXPAVCBasePlayer@@@Z PROC	; CBaseEntity::StartMessage, COMDAT
; _this$ = ecx

; 389  :           virtual void	StartMessage( CBasePlayer *pPlayer ) {}

	push	ebp
	mov	ebp, esp
	sub	esp, 68					; 00000044H
	push	ebx
	push	esi
	push	edi
	mov	DWORD PTR _this$[ebp], ecx
	pop	edi
	pop	esi
	pop	ebx
	mov	esp, ebp
	pop	ebp
	ret	4
?StartMessage@CBaseEntity@@UAEXPAVCBasePlayer@@@Z ENDP	; CBaseEntity::StartMessage
_TEXT	ENDS
; Function compile flags: /Odtp /ZI
; File d:\!diffusion 2020\source code 2022\client-server\server\cbase.h
;	COMDAT ?PortalSleep@CBaseEntity@@UAEXM@Z
_TEXT	SEGMENT
_this$ = -4						; size = 4
_seconds$ = 8						; size = 4
?PortalSleep@CBaseEntity@@UAEXM@Z PROC			; CBaseEntity::PortalSleep, COMDAT
; _this$ = ecx

; 388  : 	virtual void	PortalSleep( float seconds ) {}

	push	ebp
	mov	ebp, esp
	sub	esp, 68					; 00000044H
	push	ebx
	push	esi
	push	edi
	mov	DWORD PTR _this$[ebp], ecx
	pop	edi
	pop	esi
	pop	ebx
	mov	esp, ebp
	pop	ebp
	ret	4
?PortalSleep@CBaseEntity@@UAEXM@Z ENDP			; CBaseEntity::PortalSleep
_TEXT	ENDS
; Function compile flags: /Odtp /ZI
; File d:\!diffusion 2020\source code 2022\client-server\server\cbase.h
;	COMDAT ?OnTeleport@CBaseEntity@@UAEXXZ
_TEXT	SEGMENT
_this$ = -4						; size = 4
?OnTeleport@CBaseEntity@@UAEXXZ PROC			; CBaseEntity::OnTeleport, COMDAT
; _this$ = ecx

; 387  : 	virtual void	OnTeleport( void ) {}

	push	ebp
	mov	ebp, esp
	sub	esp, 68					; 00000044H
	push	ebx
	push	esi
	push	edi
	mov	DWORD PTR _this$[ebp], ecx
	pop	edi
	pop	esi
	pop	ebx
	mov	esp, ebp
	pop	ebp
	ret	0
?OnTeleport@CBaseEntity@@UAEXXZ ENDP			; CBaseEntity::OnTeleport
_TEXT	ENDS
; Function compile flags: /Odtp /ZI
; File d:\!diffusion 2020\source code 2022\client-server\server\cbase.h
;	COMDAT ?OnChangeLevel@CBaseEntity@@UAEXXZ
_TEXT	SEGMENT
_this$ = -4						; size = 4
?OnChangeLevel@CBaseEntity@@UAEXXZ PROC			; CBaseEntity::OnChangeLevel, COMDAT
; _this$ = ecx

; 386  : 	virtual void	OnChangeLevel( void ) {}

	push	ebp
	mov	ebp, esp
	sub	esp, 68					; 00000044H
	push	ebx
	push	esi
	push	edi
	mov	DWORD PTR _this$[ebp], ecx
	pop	edi
	pop	esi
	pop	ebx
	mov	esp, ebp
	pop	ebp
	ret	0
?OnChangeLevel@CBaseEntity@@UAEXXZ ENDP			; CBaseEntity::OnChangeLevel
_TEXT	ENDS
; Function compile flags: /Odtp /ZI
; File d:\!diffusion 2020\source code 2022\client-server\server\cbase.h
;	COMDAT ?Activate@CBaseEntity@@UAEXXZ
_TEXT	SEGMENT
_this$ = -4						; size = 4
?Activate@CBaseEntity@@UAEXXZ PROC			; CBaseEntity::Activate, COMDAT
; _this$ = ecx

; 385  : 	virtual void	Activate( void ) {}

	push	ebp
	mov	ebp, esp
	sub	esp, 68					; 00000044H
	push	ebx
	push	esi
	push	edi
	mov	DWORD PTR _this$[ebp], ecx
	pop	edi
	pop	esi
	pop	ebx
	mov	esp, ebp
	pop	ebp
	ret	0
?Activate@CBaseEntity@@UAEXXZ ENDP			; CBaseEntity::Activate
_TEXT	ENDS
; Function compile flags: /Odtp /ZI
; File d:\!diffusion 2020\source code 2022\client-server\server\cbase.h
;	COMDAT ?ObjectCaps@CBaseEntity@@UAEHXZ
_TEXT	SEGMENT
_this$ = -4						; size = 4
?ObjectCaps@CBaseEntity@@UAEHXZ PROC			; CBaseEntity::ObjectCaps, COMDAT
; _this$ = ecx

; 384  : 	virtual int	ObjectCaps( void ) { return FCAP_ACROSS_TRANSITION; }

	push	ebp
	mov	ebp, esp
	sub	esp, 68					; 00000044H
	push	ebx
	push	esi
	push	edi
	mov	DWORD PTR _this$[ebp], ecx
	mov	eax, 2
	pop	edi
	pop	esi
	pop	ebx
	mov	esp, ebp
	pop	ebp
	ret	0
?ObjectCaps@CBaseEntity@@UAEHXZ ENDP			; CBaseEntity::ObjectCaps
_TEXT	ENDS
; Function compile flags: /Odtp /ZI
; File d:\!diffusion 2020\source code 2022\client-server\server\cbase.h
;	COMDAT ?KeyValue@CBaseEntity@@UAEXPAUKeyValueData_s@@@Z
_TEXT	SEGMENT
tv139 = -72						; size = 4
_this$ = -4						; size = 4
_pkvd$ = 8						; size = 4
?KeyValue@CBaseEntity@@UAEXPAUKeyValueData_s@@@Z PROC	; CBaseEntity::KeyValue, COMDAT
; _this$ = ecx

; 343  : 	{

	push	ebp
	mov	ebp, esp
	sub	esp, 72					; 00000048H
	push	ebx
	push	esi
	push	edi
	mov	DWORD PTR _this$[ebp], ecx

; 344  : 		// get support for spirit field too
; 345  : 		if( FStrEq( pkvd->szKeyName, "parent" ) || FStrEq( pkvd->szKeyName, "movewith" ))

	push	OFFSET ??_C@_06MLKDMCBD@parent?$AA@
	mov	eax, DWORD PTR _pkvd$[ebp]
	mov	ecx, DWORD PTR [eax+4]
	push	ecx
	call	?FStrEq@@YAHPBD0@Z			; FStrEq
	add	esp, 8
	test	eax, eax
	jne	SHORT $LN6@KeyValue
	push	OFFSET ??_C@_08JJJAOBDI@movewith?$AA@
	mov	eax, DWORD PTR _pkvd$[ebp]
	mov	ecx, DWORD PTR [eax+4]
	push	ecx
	call	?FStrEq@@YAHPBD0@Z			; FStrEq
	add	esp, 8
	test	eax, eax
	je	SHORT $LN4@KeyValue
$LN6@KeyValue:

; 346  : 		{
; 347  : 			m_iParent = ALLOC_STRING(pkvd->szValue);

	mov	eax, DWORD PTR _pkvd$[ebp]
	mov	ecx, DWORD PTR [eax+8]
	push	ecx
	call	DWORD PTR ?g_engfuncs@@3Uenginefuncs_s@@A+268
	add	esp, 4
	mov	edx, DWORD PTR _this$[ebp]
	mov	DWORD PTR [edx+184], eax

; 348  : 			pkvd->fHandled = TRUE;

	mov	eax, DWORD PTR _pkvd$[ebp]
	mov	DWORD PTR [eax+12], 1
	jmp	$LN1@KeyValue
$LN4@KeyValue:

; 349  : 		}
; 350  : 		else if( FStrEq( pkvd->szKeyName, "parentflags" ))

	push	OFFSET ??_C@_0M@EAELDHJO@parentflags?$AA@
	mov	eax, DWORD PTR _pkvd$[ebp]
	mov	ecx, DWORD PTR [eax+4]
	push	ecx
	call	?FStrEq@@YAHPBD0@Z			; FStrEq
	add	esp, 8
	test	eax, eax
	je	SHORT $LN7@KeyValue

; 351  : 		{
; 352  : 			m_iParentFlags = Q_atoi( pkvd->szValue );

	mov	eax, DWORD PTR _pkvd$[ebp]
	mov	ecx, DWORD PTR [eax+8]
	push	ecx
	call	?Q_atoi@@YAHPBD@Z			; Q_atoi
	add	esp, 4
	mov	edx, DWORD PTR _this$[ebp]
	mov	DWORD PTR [edx+188], eax

; 353  : 			pkvd->fHandled = TRUE;

	mov	eax, DWORD PTR _pkvd$[ebp]
	mov	DWORD PTR [eax+12], 1
	jmp	$LN1@KeyValue
$LN7@KeyValue:

; 354  : 		}
; 355  : 		else if( FStrEq( pkvd->szKeyName, "style" ))

	push	OFFSET ??_C@_05IAKJCFIM@style?$AA@
	mov	eax, DWORD PTR _pkvd$[ebp]
	mov	ecx, DWORD PTR [eax+4]
	push	ecx
	call	?FStrEq@@YAHPBD0@Z			; FStrEq
	add	esp, 8
	test	eax, eax
	je	SHORT $LN9@KeyValue

; 356  : 		{
; 357  : 			m_iStyle = Q_atoi( pkvd->szValue );

	mov	eax, DWORD PTR _pkvd$[ebp]
	mov	ecx, DWORD PTR [eax+8]
	push	ecx
	call	?Q_atoi@@YAHPBD@Z			; Q_atoi
	add	esp, 4
	mov	edx, DWORD PTR _this$[ebp]
	mov	DWORD PTR [edx+72], eax

; 358  : 			pkvd->fHandled = TRUE;

	mov	eax, DWORD PTR _pkvd$[ebp]
	mov	DWORD PTR [eax+12], 1
	jmp	$LN1@KeyValue
$LN9@KeyValue:

; 359  : 		}
; 360  : 		else if( FStrEq( pkvd->szKeyName, "reflection" ))

	push	OFFSET ??_C@_0L@IKCANML@reflection?$AA@
	mov	eax, DWORD PTR _pkvd$[ebp]
	mov	ecx, DWORD PTR [eax+4]
	push	ecx
	call	?FStrEq@@YAHPBD0@Z			; FStrEq
	add	esp, 8
	test	eax, eax
	je	SHORT $LN11@KeyValue

; 361  : 		{
; 362  : 			switch( Q_atoi( pkvd->szValue ))

	mov	eax, DWORD PTR _pkvd$[ebp]
	mov	ecx, DWORD PTR [eax+8]
	push	ecx
	call	?Q_atoi@@YAHPBD@Z			; Q_atoi
	add	esp, 4
	mov	DWORD PTR tv139[ebp], eax
	cmp	DWORD PTR tv139[ebp], 1
	je	SHORT $LN13@KeyValue
	cmp	DWORD PTR tv139[ebp], 2
	je	SHORT $LN14@KeyValue
	jmp	SHORT $LN2@KeyValue
$LN13@KeyValue:

; 363  : 			{
; 364  : 			case 1: pev->effects |= EF_NOREFLECT; break;

	mov	eax, DWORD PTR _this$[ebp]
	mov	ecx, DWORD PTR [eax+4]
	mov	edx, DWORD PTR [ecx+280]
	or	edx, 16777216				; 01000000H
	mov	eax, DWORD PTR _this$[ebp]
	mov	ecx, DWORD PTR [eax+4]
	mov	DWORD PTR [ecx+280], edx
	jmp	SHORT $LN2@KeyValue
$LN14@KeyValue:

; 365  : 			case 2: pev->effects |= EF_REFLECTONLY; break;

	mov	eax, DWORD PTR _this$[ebp]
	mov	ecx, DWORD PTR [eax+4]
	mov	edx, DWORD PTR [ecx+280]
	or	edx, 33554432				; 02000000H
	mov	eax, DWORD PTR _this$[ebp]
	mov	ecx, DWORD PTR [eax+4]
	mov	DWORD PTR [ecx+280], edx
$LN2@KeyValue:

; 366  : 			}
; 367  : 			pkvd->fHandled = TRUE;

	mov	eax, DWORD PTR _pkvd$[ebp]
	mov	DWORD PTR [eax+12], 1
	jmp	$LN1@KeyValue
$LN11@KeyValue:

; 368  : 		}
; 369  : 		else if( FStrEq(pkvd->szKeyName, "vlight_cache"))

	push	OFFSET ??_C@_0N@JILDNHAP@vlight_cache?$AA@
	mov	eax, DWORD PTR _pkvd$[ebp]
	mov	ecx, DWORD PTR [eax+4]
	push	ecx
	call	?FStrEq@@YAHPBD0@Z			; FStrEq
	add	esp, 8
	test	eax, eax
	je	SHORT $LN15@KeyValue

; 370  : 		{
; 371  : 			pev->iuser3 = atoi( pkvd->szValue );

	mov	eax, DWORD PTR _pkvd$[ebp]
	mov	ecx, DWORD PTR [eax+8]
	push	ecx
	call	_atoi
	add	esp, 4
	mov	edx, DWORD PTR _this$[ebp]
	mov	ecx, DWORD PTR [edx+4]
	mov	DWORD PTR [ecx+588], eax

; 372  : 			pkvd->fHandled = TRUE;

	mov	eax, DWORD PTR _pkvd$[ebp]
	mov	DWORD PTR [eax+12], 1
	jmp	SHORT $LN1@KeyValue
$LN15@KeyValue:

; 373  : 		}
; 374  : 		else if( FStrEq( pkvd->szKeyName, "customname" ) )

	push	OFFSET ??_C@_0L@JIJDCONP@customname?$AA@
	mov	eax, DWORD PTR _pkvd$[ebp]
	mov	ecx, DWORD PTR [eax+4]
	push	ecx
	call	?FStrEq@@YAHPBD0@Z			; FStrEq
	add	esp, 8
	test	eax, eax
	je	SHORT $LN17@KeyValue

; 375  : 		{
; 376  : 			CustomNameString = ALLOC_STRING( pkvd->szValue );

	mov	eax, DWORD PTR _pkvd$[ebp]
	mov	ecx, DWORD PTR [eax+8]
	push	ecx
	call	DWORD PTR ?g_engfuncs@@3Uenginefuncs_s@@A+268
	add	esp, 4
	mov	edx, DWORD PTR _this$[ebp]
	mov	DWORD PTR [edx+156], eax

; 377  : 			pkvd->fHandled = TRUE;

	mov	eax, DWORD PTR _pkvd$[ebp]
	mov	DWORD PTR [eax+12], 1
	jmp	SHORT $LN1@KeyValue
$LN17@KeyValue:

; 378  : 		}
; 379  : 		else pkvd->fHandled = FALSE;

	mov	eax, DWORD PTR _pkvd$[ebp]
	mov	DWORD PTR [eax+12], 0
$LN1@KeyValue:

; 380  : 	}

	pop	edi
	pop	esi
	pop	ebx
	mov	esp, ebp
	pop	ebp
	ret	4
?KeyValue@CBaseEntity@@UAEXPAUKeyValueData_s@@@Z ENDP	; CBaseEntity::KeyValue
_TEXT	ENDS
; Function compile flags: /Odtp /ZI
; File d:\!diffusion 2020\source code 2022\client-server\server\cbase.h
;	COMDAT ?Precache@CBaseEntity@@UAEXXZ
_TEXT	SEGMENT
_this$ = -4						; size = 4
?Precache@CBaseEntity@@UAEXXZ PROC			; CBaseEntity::Precache, COMDAT
; _this$ = ecx

; 341  : 	virtual void	Precache( void ) { }

	push	ebp
	mov	ebp, esp
	sub	esp, 68					; 00000044H
	push	ebx
	push	esi
	push	edi
	mov	DWORD PTR _this$[ebp], ecx
	pop	edi
	pop	esi
	pop	ebx
	mov	esp, ebp
	pop	ebp
	ret	0
?Precache@CBaseEntity@@UAEXXZ ENDP			; CBaseEntity::Precache
_TEXT	ENDS
; Function compile flags: /Odtp /ZI
; File d:\!diffusion 2020\source code 2022\client-server\server\cbase.h
;	COMDAT ?Spawn@CBaseEntity@@UAEXXZ
_TEXT	SEGMENT
_this$ = -4						; size = 4
?Spawn@CBaseEntity@@UAEXXZ PROC				; CBaseEntity::Spawn, COMDAT
; _this$ = ecx

; 340  : 	virtual void	Spawn( void ) { }

	push	ebp
	mov	ebp, esp
	sub	esp, 68					; 00000044H
	push	ebx
	push	esi
	push	edi
	mov	DWORD PTR _this$[ebp], ecx
	pop	edi
	pop	esi
	pop	ebx
	mov	esp, ebp
	pop	ebp
	ret	0
?Spawn@CBaseEntity@@UAEXXZ ENDP				; CBaseEntity::Spawn
_TEXT	ENDS
; Function compile flags: /Odtp /ZI
; File d:\!diffusion 2020\source code 2022\client-server\server\cbase.h
;	COMDAT ?SetClassname@CBaseEntity@@QAEXPBD@Z
_TEXT	SEGMENT
_this$ = -4						; size = 4
_pszClassName$ = 8					; size = 4
?SetClassname@CBaseEntity@@QAEXPBD@Z PROC		; CBaseEntity::SetClassname, COMDAT
; _this$ = ecx

; 317  : 	void		SetClassname( const char *pszClassName ) { pev->classname = MAKE_STRING( pszClassName ); }

	push	ebp
	mov	ebp, esp
	sub	esp, 68					; 00000044H
	push	ebx
	push	esi
	push	edi
	mov	DWORD PTR _this$[ebp], ecx
	mov	eax, DWORD PTR _pszClassName$[ebp]
	push	eax
	call	DWORD PTR ?g_engfuncs@@3Uenginefuncs_s@@A+268
	add	esp, 4
	mov	ecx, DWORD PTR _this$[ebp]
	mov	edx, DWORD PTR [ecx+4]
	mov	DWORD PTR [edx], eax
	pop	edi
	pop	esi
	pop	ebx
	mov	esp, ebp
	pop	ebp
	ret	4
?SetClassname@CBaseEntity@@QAEXPBD@Z ENDP		; CBaseEntity::SetClassname
_TEXT	ENDS
; Function compile flags: /Odtp /ZI
; File d:\!diffusion 2020\source code 2022\client-server\server\cbase.h
;	COMDAT ?GetClassname@CBaseEntity@@QAEPBDXZ
_TEXT	SEGMENT
_this$ = -4						; size = 4
?GetClassname@CBaseEntity@@QAEPBDXZ PROC		; CBaseEntity::GetClassname, COMDAT
; _this$ = ecx

; 297  : 	const char*	GetClassname() { return STRING( pev->classname ); }

	push	ebp
	mov	ebp, esp
	sub	esp, 68					; 00000044H
	push	ebx
	push	esi
	push	edi
	mov	DWORD PTR _this$[ebp], ecx
	mov	eax, DWORD PTR _this$[ebp]
	mov	ecx, DWORD PTR [eax+4]
	mov	edx, DWORD PTR [ecx]
	push	edx
	call	DWORD PTR ?g_engfuncs@@3Uenginefuncs_s@@A+264
	add	esp, 4
	pop	edi
	pop	esi
	pop	ebx
	mov	esp, ebp
	pop	ebp
	ret	0
?GetClassname@CBaseEntity@@QAEPBDXZ ENDP		; CBaseEntity::GetClassname
_TEXT	ENDS
; Function compile flags: /Odtp /ZI
; File d:\!diffusion 2020\source code 2022\client-server\server\ehandle.h
;	COMDAT ??CEHANDLE@@QAEPAVCBaseEntity@@XZ
_TEXT	SEGMENT
_this$ = -4						; size = 4
??CEHANDLE@@QAEPAVCBaseEntity@@XZ PROC			; EHANDLE::operator->, COMDAT
; _this$ = ecx

; 90   : {

	push	ebp
	mov	ebp, esp
	sub	esp, 68					; 00000044H
	push	ebx
	push	esi
	push	edi
	mov	DWORD PTR _this$[ebp], ecx

; 91   : 	return (CBaseEntity *)GET_PRIVATE( Get( ) ); 

	mov	ecx, DWORD PTR _this$[ebp]
	call	?Get@EHANDLE@@QAEPAUedict_s@@XZ		; EHANDLE::Get
	push	eax
	call	?GET_PRIVATE@@YAPAXPAUedict_s@@@Z	; GET_PRIVATE
	add	esp, 4

; 92   : }

	pop	edi
	pop	esi
	pop	ebx
	mov	esp, ebp
	pop	ebp
	ret	0
??CEHANDLE@@QAEPAVCBaseEntity@@XZ ENDP			; EHANDLE::operator->
_TEXT	ENDS
; Function compile flags: /Odtp /ZI
; File d:\!diffusion 2020\source code 2022\client-server\server\ehandle.h
;	COMDAT ??BEHANDLE@@QAEPAVCBaseEntity@@XZ
_TEXT	SEGMENT
_this$ = -4						; size = 4
??BEHANDLE@@QAEPAVCBaseEntity@@XZ PROC			; EHANDLE::operator CBaseEntity *, COMDAT
; _this$ = ecx

; 64   : { 

	push	ebp
	mov	ebp, esp
	sub	esp, 68					; 00000044H
	push	ebx
	push	esi
	push	edi
	mov	DWORD PTR _this$[ebp], ecx

; 65   : 	return (CBaseEntity *)GET_PRIVATE( Get( ) ); 

	mov	ecx, DWORD PTR _this$[ebp]
	call	?Get@EHANDLE@@QAEPAUedict_s@@XZ		; EHANDLE::Get
	push	eax
	call	?GET_PRIVATE@@YAPAXPAUedict_s@@@Z	; GET_PRIVATE
	add	esp, 4

; 66   : }

	pop	edi
	pop	esi
	pop	ebx
	mov	esp, ebp
	pop	ebp
	ret	0
??BEHANDLE@@QAEPAVCBaseEntity@@XZ ENDP			; EHANDLE::operator CBaseEntity *
_TEXT	ENDS
; Function compile flags: /Odtp /ZI
; File d:\!diffusion 2020\source code 2022\client-server\server\ehandle.h
;	COMDAT ??BEHANDLE@@QAEHXZ
_TEXT	SEGMENT
tv67 = -72						; size = 4
_this$ = -4						; size = 4
??BEHANDLE@@QAEHXZ PROC					; EHANDLE::operator int, COMDAT
; _this$ = ecx

; 85   : {

	push	ebp
	mov	ebp, esp
	sub	esp, 72					; 00000048H
	push	ebx
	push	esi
	push	edi
	mov	DWORD PTR _this$[ebp], ecx

; 86   : 	return Get() != NULL;

	mov	ecx, DWORD PTR _this$[ebp]
	call	?Get@EHANDLE@@QAEPAUedict_s@@XZ		; EHANDLE::Get
	test	eax, eax
	je	SHORT $LN3@operator
	mov	DWORD PTR tv67[ebp], 1
	jmp	SHORT $LN4@operator
$LN3@operator:
	mov	DWORD PTR tv67[ebp], 0
$LN4@operator:
	mov	eax, DWORD PTR tv67[ebp]

; 87   : }

	pop	edi
	pop	esi
	pop	ebx
	mov	esp, ebp
	pop	ebp
	ret	0
??BEHANDLE@@QAEHXZ ENDP					; EHANDLE::operator int
_TEXT	ENDS
; Function compile flags: /Odtp /ZI
; File d:\!diffusion 2020\source code 2022\client-server\server\ehandle.h
;	COMDAT ?Get@EHANDLE@@QAEPAUedict_s@@XZ
_TEXT	SEGMENT
_this$ = -4						; size = 4
?Get@EHANDLE@@QAEPAUedict_s@@XZ PROC			; EHANDLE::Get, COMDAT
; _this$ = ecx

; 40   : { 

	push	ebp
	mov	ebp, esp
	sub	esp, 68					; 00000044H
	push	ebx
	push	esi
	push	edi
	mov	DWORD PTR _this$[ebp], ecx

; 41   : 	if( m_pent )

	mov	eax, DWORD PTR _this$[ebp]
	cmp	DWORD PTR [eax], 0
	je	SHORT $LN2@Get

; 42   : 	{
; 43   : #if 0
; 44   : 		// keep client entity always in actual state
; 45   : 		if( ENTINDEX( m_pent ) == 1 )
; 46   : 			m_serialnumber = m_pent->serialnumber;
; 47   : #endif
; 48   : 		if( m_pent->serialnumber == m_serialnumber ) 

	mov	eax, DWORD PTR _this$[ebp]
	mov	ecx, DWORD PTR [eax]
	mov	edx, DWORD PTR _this$[ebp]
	mov	eax, DWORD PTR [ecx+4]
	cmp	eax, DWORD PTR [edx+4]
	jne	SHORT $LN2@Get

; 49   : 			return m_pent; 

	mov	eax, DWORD PTR _this$[ebp]
	mov	eax, DWORD PTR [eax]
	jmp	SHORT $LN1@Get
$LN2@Get:

; 50   : 	}
; 51   : 
; 52   : 	return NULL; 

	xor	eax, eax
$LN1@Get:

; 53   : }

	pop	edi
	pop	esi
	pop	ebx
	mov	esp, ebp
	pop	ebp
	ret	0
?Get@EHANDLE@@QAEPAUedict_s@@XZ ENDP			; EHANDLE::Get
_TEXT	ENDS
; Function compile flags: /Odtp /ZI
; File d:\!diffusion 2020\source code 2022\client-server\server\util.h
;	COMDAT ?EMIT_SOUND@@YAXPAUedict_s@@HPBDMM@Z
_TEXT	SEGMENT
_entity$ = 8						; size = 4
_channel$ = 12						; size = 4
_sample$ = 16						; size = 4
_volume$ = 20						; size = 4
_attenuation$ = 24					; size = 4
?EMIT_SOUND@@YAXPAUedict_s@@HPBDMM@Z PROC		; EMIT_SOUND, COMDAT

; 622  : {

	push	ebp
	mov	ebp, esp
	sub	esp, 64					; 00000040H
	push	ebx
	push	esi
	push	edi

; 623  : 	EMIT_SOUND_DYN( entity, channel, sample, volume, attenuation, 0, PITCH_NORM );

	push	100					; 00000064H
	push	0
	push	ecx
	movss	xmm0, DWORD PTR _attenuation$[ebp]
	movss	DWORD PTR [esp], xmm0
	push	ecx
	movss	xmm0, DWORD PTR _volume$[ebp]
	movss	DWORD PTR [esp], xmm0
	mov	eax, DWORD PTR _sample$[ebp]
	push	eax
	mov	ecx, DWORD PTR _channel$[ebp]
	push	ecx
	mov	edx, DWORD PTR _entity$[ebp]
	push	edx
	call	?EMIT_SOUND_DYN@@YAXPAUedict_s@@HPBDMMHH@Z ; EMIT_SOUND_DYN
	add	esp, 28					; 0000001cH

; 624  : }

	pop	edi
	pop	esi
	pop	ebx
	mov	esp, ebp
	pop	ebp
	ret	0
?EMIT_SOUND@@YAXPAUedict_s@@HPBDMM@Z ENDP		; EMIT_SOUND
_TEXT	ENDS
; Function compile flags: /Odtp /ZI
; File d:\!diffusion 2020\source code 2022\client-server\server\util.h
;	COMDAT ?FClassnameIs@@YAHPAUentvars_s@@PBD@Z
_TEXT	SEGMENT
_pev$ = 8						; size = 4
_szClassname$ = 12					; size = 4
?FClassnameIs@@YAHPAUentvars_s@@PBD@Z PROC		; FClassnameIs, COMDAT

; 304  : {

	push	ebp
	mov	ebp, esp
	sub	esp, 64					; 00000040H
	push	ebx
	push	esi
	push	edi

; 305  : 	if( FNullEnt( pev )) return FALSE;

	mov	eax, DWORD PTR _pev$[ebp]
	push	eax
	call	?FNullEnt@@YAHPAUentvars_s@@@Z		; FNullEnt
	add	esp, 4
	test	eax, eax
	je	SHORT $LN2@FClassname
	xor	eax, eax
	jmp	SHORT $LN1@FClassname
$LN2@FClassname:

; 306  : 	return FStrEq( STRING( pev->classname ), szClassname );

	mov	eax, DWORD PTR _szClassname$[ebp]
	push	eax
	mov	ecx, DWORD PTR _pev$[ebp]
	mov	edx, DWORD PTR [ecx]
	push	edx
	call	DWORD PTR ?g_engfuncs@@3Uenginefuncs_s@@A+264
	add	esp, 4
	push	eax
	call	?FStrEq@@YAHPBD0@Z			; FStrEq
	add	esp, 8
$LN1@FClassname:

; 307  : }

	pop	edi
	pop	esi
	pop	ebx
	mov	esp, ebp
	pop	ebp
	ret	0
?FClassnameIs@@YAHPAUentvars_s@@PBD@Z ENDP		; FClassnameIs
_TEXT	ENDS
; Function compile flags: /Odtp /ZI
; File d:\!diffusion 2020\source code 2022\client-server\server\util.h
;	COMDAT ?FStrEq@@YAHPBD0@Z
_TEXT	SEGMENT
tv69 = -68						; size = 4
_sz1$ = 8						; size = 4
_sz2$ = 12						; size = 4
?FStrEq@@YAHPBD0@Z PROC					; FStrEq, COMDAT

; 287  : {

	push	ebp
	mov	ebp, esp
	sub	esp, 68					; 00000044H
	push	ebx
	push	esi
	push	edi

; 288  : 	return (Q_strcmp( sz1, sz2 ) == 0);

	push	99999					; 0001869fH
	mov	eax, DWORD PTR _sz2$[ebp]
	push	eax
	mov	ecx, DWORD PTR _sz1$[ebp]
	push	ecx
	call	?Q_strncmp@@YAHPBD0H@Z			; Q_strncmp
	add	esp, 12					; 0000000cH
	test	eax, eax
	jne	SHORT $LN3@FStrEq
	mov	DWORD PTR tv69[ebp], 1
	jmp	SHORT $LN4@FStrEq
$LN3@FStrEq:
	mov	DWORD PTR tv69[ebp], 0
$LN4@FStrEq:
	mov	eax, DWORD PTR tv69[ebp]

; 289  : }

	pop	edi
	pop	esi
	pop	ebx
	mov	esp, ebp
	pop	ebp
	ret	0
?FStrEq@@YAHPBD0@Z ENDP					; FStrEq
_TEXT	ENDS
; Function compile flags: /Odtp /ZI
; File d:\!diffusion 2020\source code 2022\client-server\server\util.h
;	COMDAT ?FStringNull@@YAHH@Z
_TEXT	SEGMENT
tv65 = -68						; size = 4
_iString$ = 8						; size = 4
?FStringNull@@YAHH@Z PROC				; FStringNull, COMDAT

; 202  : inline BOOL FStringNull(int iString)			{ return iString == iStringNull; }

	push	ebp
	mov	ebp, esp
	sub	esp, 68					; 00000044H
	push	ebx
	push	esi
	push	edi
	cmp	DWORD PTR _iString$[ebp], 0
	jne	SHORT $LN3@FStringNul
	mov	DWORD PTR tv65[ebp], 1
	jmp	SHORT $LN4@FStringNul
$LN3@FStringNul:
	mov	DWORD PTR tv65[ebp], 0
$LN4@FStringNul:
	mov	eax, DWORD PTR tv65[ebp]
	pop	edi
	pop	esi
	pop	ebx
	mov	esp, ebp
	pop	ebp
	ret	0
?FStringNull@@YAHH@Z ENDP				; FStringNull
_TEXT	ENDS
; Function compile flags: /Odtp /ZI
; File d:\!diffusion 2020\source code 2022\client-server\server\util.h
;	COMDAT ?FNullEnt@@YAHPAUentvars_s@@@Z
_TEXT	SEGMENT
tv70 = -68						; size = 4
_pev$ = 8						; size = 4
?FNullEnt@@YAHPAUentvars_s@@@Z PROC			; FNullEnt, COMDAT

; 197  : inline BOOL FNullEnt(entvars_t* pev)				{ return pev == NULL || FNullEnt(OFFSET(pev)); }

	push	ebp
	mov	ebp, esp
	sub	esp, 68					; 00000044H
	push	ebx
	push	esi
	push	edi
	cmp	DWORD PTR _pev$[ebp], 0
	je	SHORT $LN3@FNullEnt
	mov	eax, DWORD PTR _pev$[ebp]
	push	eax
	call	?OFFSET@@YAHPAUentvars_s@@@Z		; OFFSET
	add	esp, 4
	push	eax
	call	?FNullEnt@@YAHH@Z			; FNullEnt
	add	esp, 4
	test	eax, eax
	jne	SHORT $LN3@FNullEnt
	mov	DWORD PTR tv70[ebp], 0
	jmp	SHORT $LN4@FNullEnt
$LN3@FNullEnt:
	mov	DWORD PTR tv70[ebp], 1
$LN4@FNullEnt:
	mov	eax, DWORD PTR tv70[ebp]
	pop	edi
	pop	esi
	pop	ebx
	mov	esp, ebp
	pop	ebp
	ret	0
?FNullEnt@@YAHPAUentvars_s@@@Z ENDP			; FNullEnt
_TEXT	ENDS
; Function compile flags: /Odtp /ZI
; File d:\!diffusion 2020\source code 2022\client-server\server\util.h
;	COMDAT ?FNullEnt@@YAHPBUedict_s@@@Z
_TEXT	SEGMENT
tv70 = -68						; size = 4
_pent$ = 8						; size = 4
?FNullEnt@@YAHPBUedict_s@@@Z PROC			; FNullEnt, COMDAT

; 196  : inline BOOL FNullEnt(const edict_t* pent)	{ return pent == NULL || FNullEnt(OFFSET(pent)); }

	push	ebp
	mov	ebp, esp
	sub	esp, 68					; 00000044H
	push	ebx
	push	esi
	push	edi
	cmp	DWORD PTR _pent$[ebp], 0
	je	SHORT $LN3@FNullEnt
	mov	eax, DWORD PTR _pent$[ebp]
	push	eax
	call	?OFFSET@@YAHPBUedict_s@@@Z		; OFFSET
	add	esp, 4
	push	eax
	call	?FNullEnt@@YAHH@Z			; FNullEnt
	add	esp, 4
	test	eax, eax
	jne	SHORT $LN3@FNullEnt
	mov	DWORD PTR tv70[ebp], 0
	jmp	SHORT $LN4@FNullEnt
$LN3@FNullEnt:
	mov	DWORD PTR tv70[ebp], 1
$LN4@FNullEnt:
	mov	eax, DWORD PTR tv70[ebp]
	pop	edi
	pop	esi
	pop	ebx
	mov	esp, ebp
	pop	ebp
	ret	0
?FNullEnt@@YAHPBUedict_s@@@Z ENDP			; FNullEnt
_TEXT	ENDS
; Function compile flags: /Odtp /ZI
; File d:\!diffusion 2020\source code 2022\client-server\server\util.h
;	COMDAT ?FNullEnt@@YAHH@Z
_TEXT	SEGMENT
tv65 = -68						; size = 4
_eoffset$ = 8						; size = 4
?FNullEnt@@YAHH@Z PROC					; FNullEnt, COMDAT

; 195  : inline BOOL FNullEnt(EOFFSET eoffset)			{ return eoffset == 0; }

	push	ebp
	mov	ebp, esp
	sub	esp, 68					; 00000044H
	push	ebx
	push	esi
	push	edi
	cmp	DWORD PTR _eoffset$[ebp], 0
	jne	SHORT $LN3@FNullEnt
	mov	DWORD PTR tv65[ebp], 1
	jmp	SHORT $LN4@FNullEnt
$LN3@FNullEnt:
	mov	DWORD PTR tv65[ebp], 0
$LN4@FNullEnt:
	mov	eax, DWORD PTR tv65[ebp]
	pop	edi
	pop	esi
	pop	ebx
	mov	esp, ebp
	pop	ebp
	ret	0
?FNullEnt@@YAHH@Z ENDP					; FNullEnt
_TEXT	ENDS
; Function compile flags: /Odtp /ZI
; File d:\!diffusion 2020\source code 2022\client-server\server\util.h
;	COMDAT ?ENTINDEX@@YAHPAUedict_s@@@Z
_TEXT	SEGMENT
_pEdict$ = 8						; size = 4
?ENTINDEX@@YAHPAUedict_s@@@Z PROC			; ENTINDEX, COMDAT

; 186  : inline int	  ENTINDEX(edict_t *pEdict)			{ return (*g_engfuncs.pfnIndexOfEdict)(pEdict); }

	push	ebp
	mov	ebp, esp
	sub	esp, 64					; 00000040H
	push	ebx
	push	esi
	push	edi
	mov	eax, DWORD PTR _pEdict$[ebp]
	push	eax
	call	DWORD PTR ?g_engfuncs@@3Uenginefuncs_s@@A+284
	add	esp, 4
	pop	edi
	pop	esi
	pop	ebx
	mov	esp, ebp
	pop	ebp
	ret	0
?ENTINDEX@@YAHPAUedict_s@@@Z ENDP			; ENTINDEX
_TEXT	ENDS
; Function compile flags: /Odtp /ZI
; File d:\!diffusion 2020\source code 2022\client-server\server\util.h
;	COMDAT ?VARS@@YAPAUentvars_s@@PAUedict_s@@@Z
_TEXT	SEGMENT
_pent$ = 8						; size = 4
?VARS@@YAPAUentvars_s@@PAUedict_s@@@Z PROC		; VARS, COMDAT

; 178  : { 

	push	ebp
	mov	ebp, esp
	sub	esp, 64					; 00000040H
	push	ebx
	push	esi
	push	edi

; 179  : 	if ( !pent )

	cmp	DWORD PTR _pent$[ebp], 0
	jne	SHORT $LN2@VARS

; 180  : 		return NULL;

	xor	eax, eax
	jmp	SHORT $LN1@VARS
$LN2@VARS:

; 181  : 
; 182  : 	return &pent->v; 

	mov	eax, DWORD PTR _pent$[ebp]
	add	eax, 128				; 00000080H
$LN1@VARS:

; 183  : }

	pop	edi
	pop	esi
	pop	ebx
	mov	esp, ebp
	pop	ebp
	ret	0
?VARS@@YAPAUentvars_s@@PAUedict_s@@@Z ENDP		; VARS
_TEXT	ENDS
; Function compile flags: /Odtp /ZI
; File d:\!diffusion 2020\source code 2022\client-server\server\util.h
;	COMDAT ?OFFSET@@YAHPAUentvars_s@@@Z
_TEXT	SEGMENT
_pev$ = 8						; size = 4
?OFFSET@@YAHPAUentvars_s@@@Z PROC			; OFFSET, COMDAT

; 168  : { 

	push	ebp
	mov	ebp, esp
	sub	esp, 64					; 00000040H
	push	ebx
	push	esi
	push	edi

; 169  : #if _DEBUG
; 170  : 	if ( !pev )

	cmp	DWORD PTR _pev$[ebp], 0
	jne	SHORT $LN2@OFFSET

; 171  : 		ALERT( at_error, "Bad pev in OFFSET()\n" );

	push	OFFSET ??_C@_0BF@DOONGEFO@Bad?5pev?5in?5OFFSET?$CI?$CJ?6?$AA@
	push	4
	call	DWORD PTR ?g_engfuncs@@3Uenginefuncs_s@@A+244
	add	esp, 8
$LN2@OFFSET:

; 172  : #endif
; 173  : 	return OFFSET(ENT(pev)); 

	mov	eax, DWORD PTR _pev$[ebp]
	push	eax
	call	?ENT@@YAPAUedict_s@@PBUentvars_s@@@Z	; ENT
	add	esp, 4
	push	eax
	call	?OFFSET@@YAHPBUedict_s@@@Z		; OFFSET
	add	esp, 4

; 174  : }

	pop	edi
	pop	esi
	pop	ebx
	mov	esp, ebp
	pop	ebp
	ret	0
?OFFSET@@YAHPAUentvars_s@@@Z ENDP			; OFFSET
_TEXT	ENDS
; Function compile flags: /Odtp /ZI
; File d:\!diffusion 2020\source code 2022\client-server\server\util.h
;	COMDAT ?OFFSET@@YAHPBUedict_s@@@Z
_TEXT	SEGMENT
_pent$ = 8						; size = 4
?OFFSET@@YAHPBUedict_s@@@Z PROC				; OFFSET, COMDAT

; 160  : { 

	push	ebp
	mov	ebp, esp
	sub	esp, 64					; 00000040H
	push	ebx
	push	esi
	push	edi

; 161  : #if _DEBUG
; 162  : 	if ( !pent )

	cmp	DWORD PTR _pent$[ebp], 0
	jne	SHORT $LN2@OFFSET

; 163  : 		ALERT( at_error, "Bad ent in OFFSET()\n" );

	push	OFFSET ??_C@_0BF@CPEPILID@Bad?5ent?5in?5OFFSET?$CI?$CJ?6?$AA@
	push	4
	call	DWORD PTR ?g_engfuncs@@3Uenginefuncs_s@@A+244
	add	esp, 8
$LN2@OFFSET:

; 164  : #endif
; 165  : 	return (*g_engfuncs.pfnEntOffsetOfPEntity)(pent); 

	mov	eax, DWORD PTR _pent$[ebp]
	push	eax
	call	DWORD PTR ?g_engfuncs@@3Uenginefuncs_s@@A+280
	add	esp, 4

; 166  : }

	pop	edi
	pop	esi
	pop	ebx
	mov	esp, ebp
	pop	ebp
	ret	0
?OFFSET@@YAHPBUedict_s@@@Z ENDP				; OFFSET
_TEXT	ENDS
; Function compile flags: /Odtp /ZI
; File d:\!diffusion 2020\source code 2022\client-server\server\util.h
;	COMDAT ?ENT@@YAPAUedict_s@@H@Z
_TEXT	SEGMENT
_eoffset$ = 8						; size = 4
?ENT@@YAPAUedict_s@@H@Z PROC				; ENT, COMDAT

; 157  : inline edict_t *ENT(EOFFSET eoffset)			{ return (*g_engfuncs.pfnPEntityOfEntOffset)(eoffset); }

	push	ebp
	mov	ebp, esp
	sub	esp, 64					; 00000040H
	push	ebx
	push	esi
	push	edi
	mov	eax, DWORD PTR _eoffset$[ebp]
	push	eax
	call	DWORD PTR ?g_engfuncs@@3Uenginefuncs_s@@A+276
	add	esp, 4
	pop	edi
	pop	esi
	pop	ebx
	mov	esp, ebp
	pop	ebp
	ret	0
?ENT@@YAPAUedict_s@@H@Z ENDP				; ENT
_TEXT	ENDS
; Function compile flags: /Odtp /ZI
; File d:\!diffusion 2020\source code 2022\client-server\server\util.h
;	COMDAT ?ENT@@YAPAUedict_s@@PBUentvars_s@@@Z
_TEXT	SEGMENT
_pev$ = 8						; size = 4
?ENT@@YAPAUedict_s@@PBUentvars_s@@@Z PROC		; ENT, COMDAT

; 151  : 	inline edict_t *ENT(const entvars_t *pev)	{ return DBG_EntOfVars(pev); }

	push	ebp
	mov	ebp, esp
	sub	esp, 64					; 00000040H
	push	ebx
	push	esi
	push	edi
	mov	eax, DWORD PTR _pev$[ebp]
	push	eax
	call	?DBG_EntOfVars@@YAPAUedict_s@@PBUentvars_s@@@Z ; DBG_EntOfVars
	add	esp, 4
	pop	edi
	pop	esi
	pop	ebx
	mov	esp, ebp
	pop	ebp
	ret	0
?ENT@@YAPAUedict_s@@PBUentvars_s@@@Z ENDP		; ENT
_TEXT	ENDS
; Function compile flags: /Odtp /ZI
;	COMDAT ??0IEntityFactory@@QAE@XZ
_TEXT	SEGMENT
_this$ = -4						; size = 4
??0IEntityFactory@@QAE@XZ PROC				; IEntityFactory::IEntityFactory, COMDAT
; _this$ = ecx
	push	ebp
	mov	ebp, esp
	sub	esp, 68					; 00000044H
	push	ebx
	push	esi
	push	edi
	mov	DWORD PTR _this$[ebp], ecx
	mov	eax, DWORD PTR _this$[ebp]
	mov	DWORD PTR [eax], OFFSET ??_7IEntityFactory@@6B@
	mov	eax, DWORD PTR _this$[ebp]
	pop	edi
	pop	esi
	pop	ebx
	mov	esp, ebp
	pop	ebp
	ret	0
??0IEntityFactory@@QAE@XZ ENDP				; IEntityFactory::IEntityFactory
_TEXT	ENDS
; Function compile flags: /Odtp /ZI
; File d:\!diffusion 2020\source code 2022\client-server\server\util.h
;	COMDAT ?MESSAGE_BEGIN@@YAXHHPBMPAUentvars_s@@@Z
_TEXT	SEGMENT
_msg_dest$ = 8						; size = 4
_msg_type$ = 12						; size = 4
_pOrigin$ = 16						; size = 4
_ent$ = 20						; size = 4
?MESSAGE_BEGIN@@YAXHHPBMPAUentvars_s@@@Z PROC		; MESSAGE_BEGIN, COMDAT

; 189  : inline void MESSAGE_BEGIN( int msg_dest, int msg_type, const float *pOrigin, entvars_t *ent ) {

	push	ebp
	mov	ebp, esp
	sub	esp, 64					; 00000040H
	push	ebx
	push	esi
	push	edi

; 190  : 	(*g_engfuncs.pfnMessageBegin)(msg_dest, msg_type, pOrigin, ENT(ent));

	mov	eax, DWORD PTR _ent$[ebp]
	push	eax
	call	?ENT@@YAPAUedict_s@@PBUentvars_s@@@Z	; ENT
	add	esp, 4
	push	eax
	mov	ecx, DWORD PTR _pOrigin$[ebp]
	push	ecx
	mov	edx, DWORD PTR _msg_type$[ebp]
	push	edx
	mov	eax, DWORD PTR _msg_dest$[ebp]
	push	eax
	call	DWORD PTR ?g_engfuncs@@3Uenginefuncs_s@@A+184
	add	esp, 16					; 00000010H

; 191  : }

	pop	edi
	pop	esi
	pop	ebx
	mov	esp, ebp
	pop	ebp
	ret	0
?MESSAGE_BEGIN@@YAXHHPBMPAUentvars_s@@@Z ENDP		; MESSAGE_BEGIN
_TEXT	ENDS
; Function compile flags: /Odtp /ZI
; File d:\!diffusion 2020\source code 2022\client-server\game_shared\utlarray.h
;	COMDAT ?ResetDbgInfo@?$CUtlArray@PADV?$CUtlMemory@PADH@@@@IAEXXZ
_TEXT	SEGMENT
_this$ = -4						; size = 4
?ResetDbgInfo@?$CUtlArray@PADV?$CUtlMemory@PADH@@@@IAEXXZ PROC ; CUtlArray<char *,CUtlMemory<char *,int> >::ResetDbgInfo, COMDAT
; _this$ = ecx

; 160  : 	{

	push	ebp
	mov	ebp, esp
	sub	esp, 68					; 00000044H
	push	ebx
	push	esi
	push	edi
	mov	DWORD PTR _this$[ebp], ecx

; 161  : 		m_pElements = Base();

	mov	ecx, DWORD PTR _this$[ebp]
	call	?Base@?$CUtlArray@PADV?$CUtlMemory@PADH@@@@QAEPAPADXZ ; CUtlArray<char *,CUtlMemory<char *,int> >::Base
	mov	ecx, DWORD PTR _this$[ebp]
	mov	DWORD PTR [ecx+16], eax

; 162  : 	}

	pop	edi
	pop	esi
	pop	ebx
	mov	esp, ebp
	pop	ebp
	ret	0
?ResetDbgInfo@?$CUtlArray@PADV?$CUtlMemory@PADH@@@@IAEXXZ ENDP ; CUtlArray<char *,CUtlMemory<char *,int> >::ResetDbgInfo
_TEXT	ENDS
; Function compile flags: /Odtp /ZI
; File d:\!diffusion 2020\source code 2022\client-server\game_shared\utlmemory.h
;	COMDAT ?ValidateGrowSize@?$CUtlMemory@PADH@@IAEXXZ
_TEXT	SEGMENT
_this$ = -4						; size = 4
?ValidateGrowSize@?$CUtlMemory@PADH@@IAEXXZ PROC	; CUtlMemory<char *,int>::ValidateGrowSize, COMDAT
; _this$ = ecx

; 148  : 	{

	push	ebp
	mov	ebp, esp
	sub	esp, 68					; 00000044H
	push	ebx
	push	esi
	push	edi
	mov	DWORD PTR _this$[ebp], ecx

; 149  : #ifdef _X360
; 150  : 		if ( m_nGrowSize && m_nGrowSize != EXTERNAL_BUFFER_MARKER )
; 151  : 		{
; 152  : 			// Max grow size at 128 bytes on XBOX
; 153  : 			const int MAX_GROW = 128;
; 154  : 			if ( m_nGrowSize * sizeof(T) > MAX_GROW )
; 155  : 			{
; 156  : 				m_nGrowSize = max( 1, MAX_GROW / sizeof(T) );
; 157  : 			}
; 158  : 		}
; 159  : #endif
; 160  : 	}

	pop	edi
	pop	esi
	pop	ebx
	mov	esp, ebp
	pop	ebp
	ret	0
?ValidateGrowSize@?$CUtlMemory@PADH@@IAEXXZ ENDP	; CUtlMemory<char *,int>::ValidateGrowSize
_TEXT	ENDS
; Function compile flags: /Odtp /ZI
; File d:\!diffusion 2020\source code 2022\client-server\game_shared\utlmemory.h
;	COMDAT ?IsReadOnly@?$CUtlMemory@PADH@@QBE_NXZ
_TEXT	SEGMENT
tv66 = -72						; size = 4
_this$ = -4						; size = 4
?IsReadOnly@?$CUtlMemory@PADH@@QBE_NXZ PROC		; CUtlMemory<char *,int>::IsReadOnly, COMDAT
; _this$ = ecx

; 467  : {

	push	ebp
	mov	ebp, esp
	sub	esp, 72					; 00000048H
	push	ebx
	push	esi
	push	edi
	mov	DWORD PTR _this$[ebp], ecx

; 468  : 	return (m_nGrowSize == EXTERNAL_CONST_BUFFER_MARKER);

	mov	eax, DWORD PTR _this$[ebp]
	cmp	DWORD PTR [eax+8], -2			; fffffffeH
	jne	SHORT $LN3@IsReadOnly
	mov	DWORD PTR tv66[ebp], 1
	jmp	SHORT $LN4@IsReadOnly
$LN3@IsReadOnly:
	mov	DWORD PTR tv66[ebp], 0
$LN4@IsReadOnly:
	mov	al, BYTE PTR tv66[ebp]

; 469  : }

	pop	edi
	pop	esi
	pop	ebx
	mov	esp, ebp
	pop	ebp
	ret	0
?IsReadOnly@?$CUtlMemory@PADH@@QBE_NXZ ENDP		; CUtlMemory<char *,int>::IsReadOnly
_TEXT	ENDS
; Function compile flags: /Odtp /ZI
; File d:\!diffusion 2020\source code 2022\client-server\game_shared\utlmemory.h
;	COMDAT ?IsExternallyAllocated@?$CUtlMemory@PADH@@QBE_NXZ
_TEXT	SEGMENT
tv66 = -72						; size = 4
_this$ = -4						; size = 4
?IsExternallyAllocated@?$CUtlMemory@PADH@@QBE_NXZ PROC	; CUtlMemory<char *,int>::IsExternallyAllocated, COMDAT
; _this$ = ecx

; 457  : {

	push	ebp
	mov	ebp, esp
	sub	esp, 72					; 00000048H
	push	ebx
	push	esi
	push	edi
	mov	DWORD PTR _this$[ebp], ecx

; 458  : 	return (m_nGrowSize < 0);

	mov	eax, DWORD PTR _this$[ebp]
	cmp	DWORD PTR [eax+8], 0
	jge	SHORT $LN3@IsExternal
	mov	DWORD PTR tv66[ebp], 1
	jmp	SHORT $LN4@IsExternal
$LN3@IsExternal:
	mov	DWORD PTR tv66[ebp], 0
$LN4@IsExternal:
	mov	al, BYTE PTR tv66[ebp]

; 459  : }

	pop	edi
	pop	esi
	pop	ebx
	mov	esp, ebp
	pop	ebp
	ret	0
?IsExternallyAllocated@?$CUtlMemory@PADH@@QBE_NXZ ENDP	; CUtlMemory<char *,int>::IsExternallyAllocated
_TEXT	ENDS
; Function compile flags: /Odtp /ZI
; File d:\!diffusion 2020\source code 2022\client-server\game_shared\utlmemory.h
;	COMDAT ?Purge@?$CUtlMemory@PADH@@QAEXXZ
_TEXT	SEGMENT
_this$ = -4						; size = 4
?Purge@?$CUtlMemory@PADH@@QAEXXZ PROC			; CUtlMemory<char *,int>::Purge, COMDAT
; _this$ = ecx

; 645  : {

	push	ebp
	mov	ebp, esp
	sub	esp, 68					; 00000044H
	push	ebx
	push	esi
	push	edi
	mov	DWORD PTR _this$[ebp], ecx

; 646  : 	if ( !IsExternallyAllocated() )

	mov	ecx, DWORD PTR _this$[ebp]
	call	?IsExternallyAllocated@?$CUtlMemory@PADH@@QBE_NXZ ; CUtlMemory<char *,int>::IsExternallyAllocated
	movzx	eax, al
	test	eax, eax
	jne	SHORT $LN1@Purge

; 647  : 	{
; 648  : 		if (m_pMemory)

	mov	eax, DWORD PTR _this$[ebp]
	cmp	DWORD PTR [eax], 0
	je	SHORT $LN3@Purge

; 649  : 		{
; 650  : 			free( (void*)m_pMemory );

	mov	eax, DWORD PTR _this$[ebp]
	mov	ecx, DWORD PTR [eax]
	push	ecx
	call	_free
	add	esp, 4

; 651  : 			m_pMemory = 0;

	mov	eax, DWORD PTR _this$[ebp]
	mov	DWORD PTR [eax], 0
$LN3@Purge:

; 652  : 		}
; 653  : 		m_nAllocationCount = 0;

	mov	eax, DWORD PTR _this$[ebp]
	mov	DWORD PTR [eax+4], 0
$LN1@Purge:

; 654  : 	}
; 655  : }

	pop	edi
	pop	esi
	pop	ebx
	mov	esp, ebp
	pop	ebp
	ret	0
?Purge@?$CUtlMemory@PADH@@QAEXXZ ENDP			; CUtlMemory<char *,int>::Purge
_TEXT	ENDS
; Function compile flags: /Odtp /ZI
; File d:\!diffusion 2020\source code 2022\client-server\game_shared\utlmemory.h
;	COMDAT ?Grow@?$CUtlMemory@PADH@@QAEXH@Z
_TEXT	SEGMENT
_nAllocationRequested$ = -8				; size = 4
_this$ = -4						; size = 4
_num$ = 8						; size = 4
?Grow@?$CUtlMemory@PADH@@QAEXH@Z PROC			; CUtlMemory<char *,int>::Grow, COMDAT
; _this$ = ecx

; 560  : {

	push	ebp
	mov	ebp, esp
	sub	esp, 72					; 00000048H
	push	ebx
	push	esi
	push	edi
	mov	DWORD PTR _this$[ebp], ecx

; 561  : 	assert( num > 0 );

	cmp	DWORD PTR _num$[ebp], 0
	jg	SHORT $LN12@Grow
	push	561					; 00000231H
	push	OFFSET ??_C@_1JE@CIIIAKCN@?$AAd?$AA?3?$AA?2?$AA?$CB?$AAd?$AAi?$AAf?$AAf?$AAu?$AAs?$AAi?$AAo?$AAn?$AA?5?$AA2?$AA0?$AA2?$AA0?$AA?2?$AAs?$AAo?$AAu?$AAr?$AAc?$AAe?$AA?5?$AAc?$AAo?$AAd?$AAe?$AA?5?$AA2@
	push	OFFSET ??_C@_1BA@PKCLMAEA@?$AAn?$AAu?$AAm?$AA?5?$AA?$DO?$AA?5?$AA0?$AA?$AA@
	call	__wassert
	add	esp, 12					; 0000000cH
$LN12@Grow:

; 562  : 
; 563  : 	if ( IsExternallyAllocated() )

	mov	ecx, DWORD PTR _this$[ebp]
	call	?IsExternallyAllocated@?$CUtlMemory@PADH@@QBE_NXZ ; CUtlMemory<char *,int>::IsExternallyAllocated
	movzx	eax, al
	test	eax, eax
	je	SHORT $LN4@Grow

; 564  : 	{
; 565  : 		// Can't grow a buffer whose memory was externally allocated 
; 566  : 		assert(0);

	xor	eax, eax
	jne	SHORT $LN13@Grow
	push	566					; 00000236H
	push	OFFSET ??_C@_1JE@CIIIAKCN@?$AAd?$AA?3?$AA?2?$AA?$CB?$AAd?$AAi?$AAf?$AAf?$AAu?$AAs?$AAi?$AAo?$AAn?$AA?5?$AA2?$AA0?$AA2?$AA0?$AA?2?$AAs?$AAo?$AAu?$AAr?$AAc?$AAe?$AA?5?$AAc?$AAo?$AAd?$AAe?$AA?5?$AA2@
	push	OFFSET ??_C@_13COJANIEC@?$AA0?$AA?$AA@
	call	__wassert
	add	esp, 12					; 0000000cH
$LN13@Grow:

; 567  : 		return;

	jmp	$LN1@Grow
$LN4@Grow:

; 568  : 	}
; 569  : 
; 570  : 	// Make sure we have at least numallocated + num allocations.
; 571  : 	// Use the grow rules specified for this memory (in m_nGrowSize)
; 572  : 	int nAllocationRequested = m_nAllocationCount + num;

	mov	eax, DWORD PTR _this$[ebp]
	mov	ecx, DWORD PTR [eax+4]
	add	ecx, DWORD PTR _num$[ebp]
	mov	DWORD PTR _nAllocationRequested$[ebp], ecx

; 573  : 
; 574  : 	m_nAllocationCount = UtlMemory_CalcNewAllocationCount( m_nAllocationCount, m_nGrowSize, nAllocationRequested, sizeof(T) );

	push	4
	mov	eax, DWORD PTR _nAllocationRequested$[ebp]
	push	eax
	mov	ecx, DWORD PTR _this$[ebp]
	mov	edx, DWORD PTR [ecx+8]
	push	edx
	mov	eax, DWORD PTR _this$[ebp]
	mov	ecx, DWORD PTR [eax+4]
	push	ecx
	call	?UtlMemory_CalcNewAllocationCount@@YAHHHHH@Z ; UtlMemory_CalcNewAllocationCount
	add	esp, 16					; 00000010H
	mov	edx, DWORD PTR _this$[ebp]
	mov	DWORD PTR [edx+4], eax

; 575  : 
; 576  : 	// if m_nAllocationRequested wraps index type I, recalculate
; 577  : 	if ( ( int )( I )m_nAllocationCount < nAllocationRequested )

	mov	eax, DWORD PTR _this$[ebp]
	mov	ecx, DWORD PTR [eax+4]
	cmp	ecx, DWORD PTR _nAllocationRequested$[ebp]
	jge	SHORT $LN5@Grow

; 578  : 	{
; 579  : 		if ( ( int )( I )m_nAllocationCount == 0 && ( int )( I )( m_nAllocationCount - 1 ) >= nAllocationRequested )

	mov	eax, DWORD PTR _this$[ebp]
	cmp	DWORD PTR [eax+4], 0
	jne	SHORT $LN6@Grow
	mov	eax, DWORD PTR _this$[ebp]
	mov	ecx, DWORD PTR [eax+4]
	sub	ecx, 1
	cmp	ecx, DWORD PTR _nAllocationRequested$[ebp]
	jl	SHORT $LN6@Grow

; 580  : 		{
; 581  : 			--m_nAllocationCount; // deal w/ the common case of m_nAllocationCount == MAX_USHORT + 1

	mov	eax, DWORD PTR _this$[ebp]
	mov	ecx, DWORD PTR [eax+4]
	sub	ecx, 1
	mov	edx, DWORD PTR _this$[ebp]
	mov	DWORD PTR [edx+4], ecx

; 582  : 		}
; 583  : 		else

	jmp	SHORT $LN5@Grow
$LN6@Grow:

; 584  : 		{
; 585  : 			if ( ( int )( I )nAllocationRequested != nAllocationRequested )

	mov	eax, DWORD PTR _nAllocationRequested$[ebp]
	cmp	eax, DWORD PTR _nAllocationRequested$[ebp]
	je	SHORT $LN2@Grow

; 586  : 			{
; 587  : 				// we've been asked to grow memory to a size s.t. the index type can't address the requested amount of memory
; 588  : 				assert( 0 );

	xor	eax, eax
	jne	SHORT $LN14@Grow
	push	588					; 0000024cH
	push	OFFSET ??_C@_1JE@CIIIAKCN@?$AAd?$AA?3?$AA?2?$AA?$CB?$AAd?$AAi?$AAf?$AAf?$AAu?$AAs?$AAi?$AAo?$AAn?$AA?5?$AA2?$AA0?$AA2?$AA0?$AA?2?$AAs?$AAo?$AAu?$AAr?$AAc?$AAe?$AA?5?$AAc?$AAo?$AAd?$AAe?$AA?5?$AA2@
	push	OFFSET ??_C@_13COJANIEC@?$AA0?$AA?$AA@
	call	__wassert
	add	esp, 12					; 0000000cH
$LN14@Grow:

; 589  : 				return;

	jmp	$LN1@Grow
$LN2@Grow:

; 590  : 			}
; 591  : 			while ( ( int )( I )m_nAllocationCount < nAllocationRequested )

	mov	eax, DWORD PTR _this$[ebp]
	mov	ecx, DWORD PTR [eax+4]
	cmp	ecx, DWORD PTR _nAllocationRequested$[ebp]
	jge	SHORT $LN5@Grow

; 592  : 			{
; 593  : 				m_nAllocationCount = ( m_nAllocationCount + nAllocationRequested ) / 2;

	mov	eax, DWORD PTR _this$[ebp]
	mov	eax, DWORD PTR [eax+4]
	add	eax, DWORD PTR _nAllocationRequested$[ebp]
	cdq
	sub	eax, edx
	sar	eax, 1
	mov	ecx, DWORD PTR _this$[ebp]
	mov	DWORD PTR [ecx+4], eax

; 594  : 			}

	jmp	SHORT $LN2@Grow
$LN5@Grow:

; 595  : 		}
; 596  : 	}
; 597  : 
; 598  : 	if (m_pMemory)

	mov	eax, DWORD PTR _this$[ebp]
	cmp	DWORD PTR [eax], 0
	je	SHORT $LN9@Grow

; 599  : 	{
; 600  : 		m_pMemory = (T*)realloc( m_pMemory, m_nAllocationCount * sizeof(T) );

	mov	eax, DWORD PTR _this$[ebp]
	mov	ecx, DWORD PTR [eax+4]
	shl	ecx, 2
	push	ecx
	mov	edx, DWORD PTR _this$[ebp]
	mov	eax, DWORD PTR [edx]
	push	eax
	call	_realloc
	add	esp, 8
	mov	ecx, DWORD PTR _this$[ebp]
	mov	DWORD PTR [ecx], eax

; 601  : 		assert( m_pMemory );

	mov	eax, DWORD PTR _this$[ebp]
	cmp	DWORD PTR [eax], 0
	jne	SHORT $LN15@Grow
	push	601					; 00000259H
	push	OFFSET ??_C@_1JE@CIIIAKCN@?$AAd?$AA?3?$AA?2?$AA?$CB?$AAd?$AAi?$AAf?$AAf?$AAu?$AAs?$AAi?$AAo?$AAn?$AA?5?$AA2?$AA0?$AA2?$AA0?$AA?2?$AAs?$AAo?$AAu?$AAr?$AAc?$AAe?$AA?5?$AAc?$AAo?$AAd?$AAe?$AA?5?$AA2@
	push	OFFSET ??_C@_1BE@OPPFELHC@?$AAm?$AA_?$AAp?$AAM?$AAe?$AAm?$AAo?$AAr?$AAy?$AA?$AA@
	call	__wassert
	add	esp, 12					; 0000000cH
$LN15@Grow:

; 602  : 	}
; 603  : 	else

	jmp	SHORT $LN1@Grow
$LN9@Grow:

; 604  : 	{
; 605  : 		m_pMemory = (T*)malloc( m_nAllocationCount * sizeof(T) );

	mov	eax, DWORD PTR _this$[ebp]
	mov	ecx, DWORD PTR [eax+4]
	shl	ecx, 2
	push	ecx
	call	_malloc
	add	esp, 4
	mov	edx, DWORD PTR _this$[ebp]
	mov	DWORD PTR [edx], eax

; 606  : 		assert( m_pMemory );

	mov	eax, DWORD PTR _this$[ebp]
	cmp	DWORD PTR [eax], 0
	jne	SHORT $LN1@Grow
	push	606					; 0000025eH
	push	OFFSET ??_C@_1JE@CIIIAKCN@?$AAd?$AA?3?$AA?2?$AA?$CB?$AAd?$AAi?$AAf?$AAf?$AAu?$AAs?$AAi?$AAo?$AAn?$AA?5?$AA2?$AA0?$AA2?$AA0?$AA?2?$AAs?$AAo?$AAu?$AAr?$AAc?$AAe?$AA?5?$AAc?$AAo?$AAd?$AAe?$AA?5?$AA2@
	push	OFFSET ??_C@_1BE@OPPFELHC@?$AAm?$AA_?$AAp?$AAM?$AAe?$AAm?$AAo?$AAr?$AAy?$AA?$AA@
	call	__wassert
	add	esp, 12					; 0000000cH
$LN1@Grow:

; 607  : 	}
; 608  : }

	pop	edi
	pop	esi
	pop	ebx
	mov	esp, ebp
	pop	ebp
	ret	4
?Grow@?$CUtlMemory@PADH@@QAEXH@Z ENDP			; CUtlMemory<char *,int>::Grow
_TEXT	ENDS
; Function compile flags: /Odtp /ZI
; File d:\!diffusion 2020\source code 2022\client-server\game_shared\utlmemory.h
;	COMDAT ?NumAllocated@?$CUtlMemory@PADH@@QBEHXZ
_TEXT	SEGMENT
_this$ = -4						; size = 4
?NumAllocated@?$CUtlMemory@PADH@@QBEHXZ PROC		; CUtlMemory<char *,int>::NumAllocated, COMDAT
; _this$ = ecx

; 504  : {

	push	ebp
	mov	ebp, esp
	sub	esp, 68					; 00000044H
	push	ebx
	push	esi
	push	edi
	mov	DWORD PTR _this$[ebp], ecx

; 505  : 	return m_nAllocationCount;

	mov	eax, DWORD PTR _this$[ebp]
	mov	eax, DWORD PTR [eax+4]

; 506  : }

	pop	edi
	pop	esi
	pop	ebx
	mov	esp, ebp
	pop	ebp
	ret	0
?NumAllocated@?$CUtlMemory@PADH@@QBEHXZ ENDP		; CUtlMemory<char *,int>::NumAllocated
_TEXT	ENDS
; Function compile flags: /Odtp /ZI
; File d:\!diffusion 2020\source code 2022\client-server\game_shared\utlmemory.h
;	COMDAT ?Base@?$CUtlMemory@PADH@@QAEPAPADXZ
_TEXT	SEGMENT
_this$ = -4						; size = 4
?Base@?$CUtlMemory@PADH@@QAEPAPADXZ PROC		; CUtlMemory<char *,int>::Base, COMDAT
; _this$ = ecx

; 487  : {

	push	ebp
	mov	ebp, esp
	sub	esp, 68					; 00000044H
	push	ebx
	push	esi
	push	edi
	mov	DWORD PTR _this$[ebp], ecx

; 488  : 	assert( !IsReadOnly() );

	mov	ecx, DWORD PTR _this$[ebp]
	call	?IsReadOnly@?$CUtlMemory@PADH@@QBE_NXZ	; CUtlMemory<char *,int>::IsReadOnly
	movzx	eax, al
	test	eax, eax
	je	SHORT $LN3@Base
	push	488					; 000001e8H
	push	OFFSET ??_C@_1JE@CIIIAKCN@?$AAd?$AA?3?$AA?2?$AA?$CB?$AAd?$AAi?$AAf?$AAf?$AAu?$AAs?$AAi?$AAo?$AAn?$AA?5?$AA2?$AA0?$AA2?$AA0?$AA?2?$AAs?$AAo?$AAu?$AAr?$AAc?$AAe?$AA?5?$AAc?$AAo?$AAd?$AAe?$AA?5?$AA2@
	push	OFFSET ??_C@_1BM@PFNFCCHH@?$AA?$CB?$AAI?$AAs?$AAR?$AAe?$AAa?$AAd?$AAO?$AAn?$AAl?$AAy?$AA?$CI?$AA?$CJ?$AA?$AA@
	call	__wassert
	add	esp, 12					; 0000000cH
$LN3@Base:

; 489  : 	return m_pMemory;

	mov	eax, DWORD PTR _this$[ebp]
	mov	eax, DWORD PTR [eax]

; 490  : }

	pop	edi
	pop	esi
	pop	ebx
	mov	esp, ebp
	pop	ebp
	ret	0
?Base@?$CUtlMemory@PADH@@QAEPAPADXZ ENDP		; CUtlMemory<char *,int>::Base
_TEXT	ENDS
; Function compile flags: /Odtp /ZI
; File d:\!diffusion 2020\source code 2022\client-server\game_shared\utlmemory.h
;	COMDAT ?IsIdxValid@?$CUtlMemory@PADH@@QBE_NH@Z
_TEXT	SEGMENT
tv67 = -72						; size = 4
_this$ = -4						; size = 4
_i$ = 8							; size = 4
?IsIdxValid@?$CUtlMemory@PADH@@QBE_NH@Z PROC		; CUtlMemory<char *,int>::IsIdxValid, COMDAT
; _this$ = ecx

; 520  : {

	push	ebp
	mov	ebp, esp
	sub	esp, 72					; 00000048H
	push	ebx
	push	esi
	push	edi
	mov	DWORD PTR _this$[ebp], ecx

; 521  : 	return ( ((int) i) >= 0 ) && ( ((int) i) < m_nAllocationCount );

	cmp	DWORD PTR _i$[ebp], 0
	jl	SHORT $LN3@IsIdxValid
	mov	eax, DWORD PTR _this$[ebp]
	mov	ecx, DWORD PTR _i$[ebp]
	cmp	ecx, DWORD PTR [eax+4]
	jge	SHORT $LN3@IsIdxValid
	mov	DWORD PTR tv67[ebp], 1
	jmp	SHORT $LN4@IsIdxValid
$LN3@IsIdxValid:
	mov	DWORD PTR tv67[ebp], 0
$LN4@IsIdxValid:
	mov	al, BYTE PTR tv67[ebp]

; 522  : }

	pop	edi
	pop	esi
	pop	ebx
	mov	esp, ebp
	pop	ebp
	ret	4
?IsIdxValid@?$CUtlMemory@PADH@@QBE_NH@Z ENDP		; CUtlMemory<char *,int>::IsIdxValid
_TEXT	ENDS
; Function compile flags: /Odtp /ZI
; File d:\!diffusion 2020\source code 2022\client-server\game_shared\utlmemory.h
;	COMDAT ??A?$CUtlMemory@PADH@@QAEAAPADH@Z
_TEXT	SEGMENT
_this$ = -4						; size = 4
_i$ = 8							; size = 4
??A?$CUtlMemory@PADH@@QAEAAPADH@Z PROC			; CUtlMemory<char *,int>::operator[], COMDAT
; _this$ = ecx

; 423  : {

	push	ebp
	mov	ebp, esp
	sub	esp, 68					; 00000044H
	push	ebx
	push	esi
	push	edi
	mov	DWORD PTR _this$[ebp], ecx

; 424  : 	assert( !IsReadOnly() );

	mov	ecx, DWORD PTR _this$[ebp]
	call	?IsReadOnly@?$CUtlMemory@PADH@@QBE_NXZ	; CUtlMemory<char *,int>::IsReadOnly
	movzx	eax, al
	test	eax, eax
	je	SHORT $LN3@operator
	push	424					; 000001a8H
	push	OFFSET ??_C@_1JE@CIIIAKCN@?$AAd?$AA?3?$AA?2?$AA?$CB?$AAd?$AAi?$AAf?$AAf?$AAu?$AAs?$AAi?$AAo?$AAn?$AA?5?$AA2?$AA0?$AA2?$AA0?$AA?2?$AAs?$AAo?$AAu?$AAr?$AAc?$AAe?$AA?5?$AAc?$AAo?$AAd?$AAe?$AA?5?$AA2@
	push	OFFSET ??_C@_1BM@PFNFCCHH@?$AA?$CB?$AAI?$AAs?$AAR?$AAe?$AAa?$AAd?$AAO?$AAn?$AAl?$AAy?$AA?$CI?$AA?$CJ?$AA?$AA@
	call	__wassert
	add	esp, 12					; 0000000cH
$LN3@operator:

; 425  : 	assert( IsIdxValid(i) );

	mov	eax, DWORD PTR _i$[ebp]
	push	eax
	mov	ecx, DWORD PTR _this$[ebp]
	call	?IsIdxValid@?$CUtlMemory@PADH@@QBE_NH@Z	; CUtlMemory<char *,int>::IsIdxValid
	movzx	ecx, al
	test	ecx, ecx
	jne	SHORT $LN4@operator
	push	425					; 000001a9H
	push	OFFSET ??_C@_1JE@CIIIAKCN@?$AAd?$AA?3?$AA?2?$AA?$CB?$AAd?$AAi?$AAf?$AAf?$AAu?$AAs?$AAi?$AAo?$AAn?$AA?5?$AA2?$AA0?$AA2?$AA0?$AA?2?$AAs?$AAo?$AAu?$AAr?$AAc?$AAe?$AA?5?$AAc?$AAo?$AAd?$AAe?$AA?5?$AA2@
	push	OFFSET ??_C@_1BM@CKILBAKK@?$AAI?$AAs?$AAI?$AAd?$AAx?$AAV?$AAa?$AAl?$AAi?$AAd?$AA?$CI?$AAi?$AA?$CJ?$AA?$AA@
	call	__wassert
	add	esp, 12					; 0000000cH
$LN4@operator:

; 426  : 	return m_pMemory[i];

	mov	eax, DWORD PTR _this$[ebp]
	mov	ecx, DWORD PTR [eax]
	mov	edx, DWORD PTR _i$[ebp]
	lea	eax, DWORD PTR [ecx+edx*4]

; 427  : }

	pop	edi
	pop	esi
	pop	ebx
	mov	esp, ebp
	pop	ebp
	ret	4
??A?$CUtlMemory@PADH@@QAEAAPADH@Z ENDP			; CUtlMemory<char *,int>::operator[]
_TEXT	ENDS
; Function compile flags: /Odtp /ZI
; File d:\!diffusion 2020\source code 2022\client-server\game_shared\utlmemory.h
;	COMDAT ??1?$CUtlMemory@PADH@@QAE@XZ
_TEXT	SEGMENT
_this$ = -16						; size = 4
__$EHRec$ = -12						; size = 12
??1?$CUtlMemory@PADH@@QAE@XZ PROC			; CUtlMemory<char *,int>::~CUtlMemory<char *,int>, COMDAT
; _this$ = ecx

; 322  : {

	push	ebp
	mov	ebp, esp
	push	-1
	push	__ehhandler$??1?$CUtlMemory@PADH@@QAE@XZ
	mov	eax, DWORD PTR fs:0
	push	eax
	sub	esp, 68					; 00000044H
	push	ebx
	push	esi
	push	edi
	mov	eax, DWORD PTR ___security_cookie
	xor	eax, ebp
	push	eax
	lea	eax, DWORD PTR __$EHRec$[ebp]
	mov	DWORD PTR fs:0, eax
	mov	DWORD PTR _this$[ebp], ecx

; 323  : 	Purge();

	mov	ecx, DWORD PTR _this$[ebp]
	call	?Purge@?$CUtlMemory@PADH@@QAEXXZ	; CUtlMemory<char *,int>::Purge

; 324  : }

	mov	ecx, DWORD PTR __$EHRec$[ebp]
	mov	DWORD PTR fs:0, ecx
	pop	ecx
	pop	edi
	pop	esi
	pop	ebx
	mov	esp, ebp
	pop	ebp
	ret	0
_TEXT	ENDS
;	COMDAT text$x
text$x	SEGMENT
__ehhandler$??1?$CUtlMemory@PADH@@QAE@XZ:
	mov	edx, DWORD PTR [esp+8]
	lea	eax, DWORD PTR [edx+12]
	mov	ecx, DWORD PTR [edx-84]
	xor	ecx, eax
	call	@__security_check_cookie@4
	mov	eax, OFFSET __ehfuncinfo$??1?$CUtlMemory@PADH@@QAE@XZ
	jmp	___CxxFrameHandler3
text$x	ENDS
??1?$CUtlMemory@PADH@@QAE@XZ ENDP			; CUtlMemory<char *,int>::~CUtlMemory<char *,int>
; Function compile flags: /Odtp /ZI
; File d:\!diffusion 2020\source code 2022\client-server\game_shared\utlmemory.h
;	COMDAT ??0?$CUtlMemory@PADH@@QAE@HH@Z
_TEXT	SEGMENT
_this$ = -4						; size = 4
_nGrowSize$ = 8						; size = 4
_nInitAllocationCount$ = 12				; size = 4
??0?$CUtlMemory@PADH@@QAE@HH@Z PROC			; CUtlMemory<char *,int>::CUtlMemory<char *,int>, COMDAT
; _this$ = ecx

; 295  : {

	push	ebp
	mov	ebp, esp
	sub	esp, 68					; 00000044H
	push	ebx
	push	esi
	push	edi
	mov	DWORD PTR _this$[ebp], ecx

; 293  : CUtlMemory<T,I>::CUtlMemory( int nGrowSize, int nInitAllocationCount ) : m_pMemory(0), 

	mov	eax, DWORD PTR _this$[ebp]
	mov	DWORD PTR [eax], 0

; 294  : 	m_nAllocationCount( nInitAllocationCount ), m_nGrowSize( nGrowSize )

	mov	eax, DWORD PTR _this$[ebp]
	mov	ecx, DWORD PTR _nInitAllocationCount$[ebp]
	mov	DWORD PTR [eax+4], ecx
	mov	eax, DWORD PTR _this$[ebp]
	mov	ecx, DWORD PTR _nGrowSize$[ebp]
	mov	DWORD PTR [eax+8], ecx

; 296  : 	ValidateGrowSize();

	mov	ecx, DWORD PTR _this$[ebp]
	call	?ValidateGrowSize@?$CUtlMemory@PADH@@IAEXXZ ; CUtlMemory<char *,int>::ValidateGrowSize

; 297  : 	assert( nGrowSize >= 0 );

	cmp	DWORD PTR _nGrowSize$[ebp], 0
	jge	SHORT $LN4@CUtlMemory
	push	297					; 00000129H
	push	OFFSET ??_C@_1JE@CIIIAKCN@?$AAd?$AA?3?$AA?2?$AA?$CB?$AAd?$AAi?$AAf?$AAf?$AAu?$AAs?$AAi?$AAo?$AAn?$AA?5?$AA2?$AA0?$AA2?$AA0?$AA?2?$AAs?$AAo?$AAu?$AAr?$AAc?$AAe?$AA?5?$AAc?$AAo?$AAd?$AAe?$AA?5?$AA2@
	push	OFFSET ??_C@_1BO@FOOHAONO@?$AAn?$AAG?$AAr?$AAo?$AAw?$AAS?$AAi?$AAz?$AAe?$AA?5?$AA?$DO?$AA?$DN?$AA?5?$AA0?$AA?$AA@
	call	__wassert
	add	esp, 12					; 0000000cH
$LN4@CUtlMemory:

; 298  : 	if (m_nAllocationCount)

	mov	eax, DWORD PTR _this$[ebp]
	cmp	DWORD PTR [eax+4], 0
	je	SHORT $LN1@CUtlMemory

; 299  : 	{
; 300  : 		m_pMemory = (T*)malloc( m_nAllocationCount * sizeof(T) );

	mov	eax, DWORD PTR _this$[ebp]
	mov	ecx, DWORD PTR [eax+4]
	shl	ecx, 2
	push	ecx
	call	_malloc
	add	esp, 4
	mov	edx, DWORD PTR _this$[ebp]
	mov	DWORD PTR [edx], eax
$LN1@CUtlMemory:

; 301  : 	}
; 302  : }

	mov	eax, DWORD PTR _this$[ebp]
	pop	edi
	pop	esi
	pop	ebx
	mov	esp, ebp
	pop	ebp
	ret	8
??0?$CUtlMemory@PADH@@QAE@HH@Z ENDP			; CUtlMemory<char *,int>::CUtlMemory<char *,int>
_TEXT	ENDS
; Function compile flags: /Odtp /ZI
; File d:\!diffusion 2020\source code 2022\client-server\game_shared\utlarray.h
;	COMDAT ?ShiftElementsRight@?$CUtlArray@PADV?$CUtlMemory@PADH@@@@IAEXHH@Z
_TEXT	SEGMENT
_numToMove$ = -8					; size = 4
_this$ = -4						; size = 4
_elem$ = 8						; size = 4
_num$ = 12						; size = 4
?ShiftElementsRight@?$CUtlArray@PADV?$CUtlMemory@PADH@@@@IAEXHH@Z PROC ; CUtlArray<char *,CUtlMemory<char *,int> >::ShiftElementsRight, COMDAT
; _this$ = ecx

; 447  : {

	push	ebp
	mov	ebp, esp
	sub	esp, 72					; 00000048H
	push	ebx
	push	esi
	push	edi
	mov	DWORD PTR _this$[ebp], ecx

; 448  : 	assert( IsValidIndex(elem) || ( m_Size == 0 ) || ( num == 0 ));

	mov	eax, DWORD PTR _elem$[ebp]
	push	eax
	mov	ecx, DWORD PTR _this$[ebp]
	call	?IsValidIndex@?$CUtlArray@PADV?$CUtlMemory@PADH@@@@QBE_NH@Z ; CUtlArray<char *,CUtlMemory<char *,int> >::IsValidIndex
	movzx	ecx, al
	test	ecx, ecx
	jne	SHORT $LN4@ShiftEleme
	mov	edx, DWORD PTR _this$[ebp]
	cmp	DWORD PTR [edx+12], 0
	je	SHORT $LN4@ShiftEleme
	cmp	DWORD PTR _num$[ebp], 0
	je	SHORT $LN4@ShiftEleme
	push	448					; 000001c0H
	push	OFFSET ??_C@_1JC@EMNIBBBG@?$AAd?$AA?3?$AA?2?$AA?$CB?$AAd?$AAi?$AAf?$AAf?$AAu?$AAs?$AAi?$AAo?$AAn?$AA?5?$AA2?$AA0?$AA2?$AA0?$AA?2?$AAs?$AAo?$AAu?$AAr?$AAc?$AAe?$AA?5?$AAc?$AAo?$AAd?$AAe?$AA?5?$AA2@
	push	OFFSET ??_C@_1GM@CDMJDFPA@?$AAI?$AAs?$AAV?$AAa?$AAl?$AAi?$AAd?$AAI?$AAn?$AAd?$AAe?$AAx?$AA?$CI?$AAe?$AAl?$AAe?$AAm?$AA?$CJ?$AA?5?$AA?$HM?$AA?$HM?$AA?5?$AA?$CI?$AA?5?$AAm?$AA_?$AAS?$AAi?$AAz?$AAe?$AA?5?$AA?$DN@
	call	__wassert
	add	esp, 12					; 0000000cH
$LN4@ShiftEleme:

; 449  : 	int numToMove = m_Size - elem - num;

	mov	eax, DWORD PTR _this$[ebp]
	mov	ecx, DWORD PTR [eax+12]
	sub	ecx, DWORD PTR _elem$[ebp]
	sub	ecx, DWORD PTR _num$[ebp]
	mov	DWORD PTR _numToMove$[ebp], ecx

; 450  : 	if ((numToMove > 0) && (num > 0))

	cmp	DWORD PTR _numToMove$[ebp], 0
	jle	SHORT $LN1@ShiftEleme
	cmp	DWORD PTR _num$[ebp], 0
	jle	SHORT $LN1@ShiftEleme

; 451  : 		memmove( &Element(elem+num), &Element(elem), numToMove * sizeof(T) );

	mov	eax, DWORD PTR _numToMove$[ebp]
	shl	eax, 2
	push	eax
	mov	ecx, DWORD PTR _elem$[ebp]
	push	ecx
	mov	ecx, DWORD PTR _this$[ebp]
	call	?Element@?$CUtlArray@PADV?$CUtlMemory@PADH@@@@QAEAAPADH@Z ; CUtlArray<char *,CUtlMemory<char *,int> >::Element
	push	eax
	mov	edx, DWORD PTR _elem$[ebp]
	add	edx, DWORD PTR _num$[ebp]
	push	edx
	mov	ecx, DWORD PTR _this$[ebp]
	call	?Element@?$CUtlArray@PADV?$CUtlMemory@PADH@@@@QAEAAPADH@Z ; CUtlArray<char *,CUtlMemory<char *,int> >::Element
	push	eax
	call	_memmove
	add	esp, 12					; 0000000cH
$LN1@ShiftEleme:

; 452  : }

	pop	edi
	pop	esi
	pop	ebx
	mov	esp, ebp
	pop	ebp
	ret	8
?ShiftElementsRight@?$CUtlArray@PADV?$CUtlMemory@PADH@@@@IAEXHH@Z ENDP ; CUtlArray<char *,CUtlMemory<char *,int> >::ShiftElementsRight
_TEXT	ENDS
; Function compile flags: /Odtp /ZI
; File d:\!diffusion 2020\source code 2022\client-server\game_shared\utlarray.h
;	COMDAT ?GrowVector@?$CUtlArray@PADV?$CUtlMemory@PADH@@@@IAEXH@Z
_TEXT	SEGMENT
_this$ = -4						; size = 4
_num$ = 8						; size = 4
?GrowVector@?$CUtlArray@PADV?$CUtlMemory@PADH@@@@IAEXH@Z PROC ; CUtlArray<char *,CUtlMemory<char *,int> >::GrowVector, COMDAT
; _this$ = ecx

; 374  : {

	push	ebp
	mov	ebp, esp
	sub	esp, 68					; 00000044H
	push	ebx
	push	esi
	push	edi
	mov	DWORD PTR _this$[ebp], ecx

; 375  : 	if (m_Size + num > m_Memory.NumAllocated())

	mov	eax, DWORD PTR _this$[ebp]
	mov	esi, DWORD PTR [eax+12]
	add	esi, DWORD PTR _num$[ebp]
	mov	ecx, DWORD PTR _this$[ebp]
	call	?NumAllocated@?$CUtlMemory@PADH@@QBEHXZ	; CUtlMemory<char *,int>::NumAllocated
	cmp	esi, eax
	jle	SHORT $LN2@GrowVector

; 376  : 	{
; 377  : 		m_Memory.Grow( m_Size + num - m_Memory.NumAllocated() );

	mov	eax, DWORD PTR _this$[ebp]
	mov	esi, DWORD PTR [eax+12]
	add	esi, DWORD PTR _num$[ebp]
	mov	ecx, DWORD PTR _this$[ebp]
	call	?NumAllocated@?$CUtlMemory@PADH@@QBEHXZ	; CUtlMemory<char *,int>::NumAllocated
	sub	esi, eax
	push	esi
	mov	ecx, DWORD PTR _this$[ebp]
	call	?Grow@?$CUtlMemory@PADH@@QAEXH@Z	; CUtlMemory<char *,int>::Grow
$LN2@GrowVector:

; 378  : 	}
; 379  : 
; 380  : 	m_Size += num;

	mov	eax, DWORD PTR _this$[ebp]
	mov	ecx, DWORD PTR [eax+12]
	add	ecx, DWORD PTR _num$[ebp]
	mov	edx, DWORD PTR _this$[ebp]
	mov	DWORD PTR [edx+12], ecx

; 381  : 	ResetDbgInfo();

	mov	ecx, DWORD PTR _this$[ebp]
	call	?ResetDbgInfo@?$CUtlArray@PADV?$CUtlMemory@PADH@@@@IAEXXZ ; CUtlArray<char *,CUtlMemory<char *,int> >::ResetDbgInfo

; 382  : }

	pop	edi
	pop	esi
	pop	ebx
	mov	esp, ebp
	pop	ebp
	ret	4
?GrowVector@?$CUtlArray@PADV?$CUtlMemory@PADH@@@@IAEXH@Z ENDP ; CUtlArray<char *,CUtlMemory<char *,int> >::GrowVector
_TEXT	ENDS
; Function compile flags: /Odtp /ZI
; File d:\!diffusion 2020\source code 2022\client-server\game_shared\utlarray.h
;	COMDAT ?Purge@?$CUtlArray@PADV?$CUtlMemory@PADH@@@@QAEXXZ
_TEXT	SEGMENT
_this$ = -4						; size = 4
?Purge@?$CUtlArray@PADV?$CUtlMemory@PADH@@@@QAEXXZ PROC	; CUtlArray<char *,CUtlMemory<char *,int> >::Purge, COMDAT
; _this$ = ecx

; 742  : {

	push	ebp
	mov	ebp, esp
	sub	esp, 68					; 00000044H
	push	ebx
	push	esi
	push	edi
	mov	DWORD PTR _this$[ebp], ecx

; 743  : 	RemoveAll();

	mov	ecx, DWORD PTR _this$[ebp]
	call	?RemoveAll@?$CUtlArray@PADV?$CUtlMemory@PADH@@@@QAEXXZ ; CUtlArray<char *,CUtlMemory<char *,int> >::RemoveAll

; 744  : 	m_Memory.Purge();

	mov	ecx, DWORD PTR _this$[ebp]
	call	?Purge@?$CUtlMemory@PADH@@QAEXXZ	; CUtlMemory<char *,int>::Purge

; 745  : 	ResetDbgInfo();

	mov	ecx, DWORD PTR _this$[ebp]
	call	?ResetDbgInfo@?$CUtlArray@PADV?$CUtlMemory@PADH@@@@IAEXXZ ; CUtlArray<char *,CUtlMemory<char *,int> >::ResetDbgInfo

; 746  : }

	pop	edi
	pop	esi
	pop	ebx
	mov	esp, ebp
	pop	ebp
	ret	0
?Purge@?$CUtlArray@PADV?$CUtlMemory@PADH@@@@QAEXXZ ENDP	; CUtlArray<char *,CUtlMemory<char *,int> >::Purge
_TEXT	ENDS
; Function compile flags: /Odtp /ZI
; File d:\!diffusion 2020\source code 2022\client-server\game_shared\utlarray.h
;	COMDAT ?RemoveAll@?$CUtlArray@PADV?$CUtlMemory@PADH@@@@QAEXXZ
_TEXT	SEGMENT
_i$1 = -8						; size = 4
_this$ = -4						; size = 4
?RemoveAll@?$CUtlArray@PADV?$CUtlMemory@PADH@@@@QAEXXZ PROC ; CUtlArray<char *,CUtlMemory<char *,int> >::RemoveAll, COMDAT
; _this$ = ecx

; 726  : {

	push	ebp
	mov	ebp, esp
	sub	esp, 72					; 00000048H
	push	ebx
	push	esi
	push	edi
	mov	DWORD PTR _this$[ebp], ecx

; 727  : 	for (int i = m_Size; --i >= 0; )

	mov	eax, DWORD PTR _this$[ebp]
	mov	ecx, DWORD PTR [eax+12]
	mov	DWORD PTR _i$1[ebp], ecx
$LN4@RemoveAll:
	mov	eax, DWORD PTR _i$1[ebp]
	sub	eax, 1
	mov	DWORD PTR _i$1[ebp], eax
	js	SHORT $LN3@RemoveAll

; 728  : 	{
; 729  : 		Destruct(&Element(i));

	mov	eax, DWORD PTR _i$1[ebp]
	push	eax
	mov	ecx, DWORD PTR _this$[ebp]
	call	?Element@?$CUtlArray@PADV?$CUtlMemory@PADH@@@@QAEAAPADH@Z ; CUtlArray<char *,CUtlMemory<char *,int> >::Element
	push	eax
	call	??$Destruct@PAD@@YAXPAPAD@Z		; Destruct<char *>
	add	esp, 4

; 730  : 	}

	jmp	SHORT $LN4@RemoveAll
$LN3@RemoveAll:

; 731  : 
; 732  : 	m_Size = 0;

	mov	eax, DWORD PTR _this$[ebp]
	mov	DWORD PTR [eax+12], 0

; 733  : }

	pop	edi
	pop	esi
	pop	ebx
	mov	esp, ebp
	pop	ebp
	ret	0
?RemoveAll@?$CUtlArray@PADV?$CUtlMemory@PADH@@@@QAEXXZ ENDP ; CUtlArray<char *,CUtlMemory<char *,int> >::RemoveAll
_TEXT	ENDS
; Function compile flags: /Odtp /ZI
; File d:\!diffusion 2020\source code 2022\client-server\game_shared\utlarray.h
;	COMDAT ?InsertBefore@?$CUtlArray@PADV?$CUtlMemory@PADH@@@@QAEHHABQAD@Z
_TEXT	SEGMENT
_this$ = -4						; size = 4
_elem$ = 8						; size = 4
_src$ = 12						; size = 4
?InsertBefore@?$CUtlArray@PADV?$CUtlMemory@PADH@@@@QAEHHABQAD@Z PROC ; CUtlArray<char *,CUtlMemory<char *,int> >::InsertBefore, COMDAT
; _this$ = ecx

; 533  : {

	push	ebp
	mov	ebp, esp
	sub	esp, 68					; 00000044H
	push	ebx
	push	esi
	push	edi
	mov	DWORD PTR _this$[ebp], ecx

; 534  : 	// Can't insert something that's in the list... reallocation may hose us
; 535  : 	assert( (Base() == NULL) || (&src < Base()) || (&src >= (Base() + Count()) ) ); 

	mov	ecx, DWORD PTR _this$[ebp]
	call	?Base@?$CUtlArray@PADV?$CUtlMemory@PADH@@@@QAEPAPADXZ ; CUtlArray<char *,CUtlMemory<char *,int> >::Base
	test	eax, eax
	je	SHORT $LN3@InsertBefo
	mov	ecx, DWORD PTR _this$[ebp]
	call	?Base@?$CUtlArray@PADV?$CUtlMemory@PADH@@@@QAEPAPADXZ ; CUtlArray<char *,CUtlMemory<char *,int> >::Base
	cmp	DWORD PTR _src$[ebp], eax
	jb	SHORT $LN3@InsertBefo
	mov	ecx, DWORD PTR _this$[ebp]
	call	?Base@?$CUtlArray@PADV?$CUtlMemory@PADH@@@@QAEPAPADXZ ; CUtlArray<char *,CUtlMemory<char *,int> >::Base
	mov	esi, eax
	mov	ecx, DWORD PTR _this$[ebp]
	call	?Count@?$CUtlArray@PADV?$CUtlMemory@PADH@@@@QBEHXZ ; CUtlArray<char *,CUtlMemory<char *,int> >::Count
	lea	eax, DWORD PTR [esi+eax*4]
	cmp	DWORD PTR _src$[ebp], eax
	jae	SHORT $LN3@InsertBefo
	push	535					; 00000217H
	push	OFFSET ??_C@_1JC@EMNIBBBG@?$AAd?$AA?3?$AA?2?$AA?$CB?$AAd?$AAi?$AAf?$AAf?$AAu?$AAs?$AAi?$AAo?$AAn?$AA?5?$AA2?$AA0?$AA2?$AA0?$AA?2?$AAs?$AAo?$AAu?$AAr?$AAc?$AAe?$AA?5?$AAc?$AAo?$AAd?$AAe?$AA?5?$AA2@
	push	OFFSET ??_C@_1IK@DGJDJNN@?$AA?$CI?$AAB?$AAa?$AAs?$AAe?$AA?$CI?$AA?$CJ?$AA?5?$AA?$DN?$AA?$DN?$AA?5?$AAN?$AAU?$AAL?$AAL?$AA?$CJ?$AA?5?$AA?$HM?$AA?$HM?$AA?5?$AA?$CI?$AA?$CG?$AAs?$AAr?$AAc?$AA?5?$AA?$DM?$AA?5?$AAB?$AAa?$AAs?$AAe@
	call	__wassert
	add	esp, 12					; 0000000cH
$LN3@InsertBefo:

; 536  : 
; 537  : 	// Can insert at the end
; 538  : 	assert( (elem == Count()) || IsValidIndex(elem) );

	mov	ecx, DWORD PTR _this$[ebp]
	call	?Count@?$CUtlArray@PADV?$CUtlMemory@PADH@@@@QBEHXZ ; CUtlArray<char *,CUtlMemory<char *,int> >::Count
	cmp	DWORD PTR _elem$[ebp], eax
	je	SHORT $LN4@InsertBefo
	mov	eax, DWORD PTR _elem$[ebp]
	push	eax
	mov	ecx, DWORD PTR _this$[ebp]
	call	?IsValidIndex@?$CUtlArray@PADV?$CUtlMemory@PADH@@@@QBE_NH@Z ; CUtlArray<char *,CUtlMemory<char *,int> >::IsValidIndex
	movzx	ecx, al
	test	ecx, ecx
	jne	SHORT $LN4@InsertBefo
	push	538					; 0000021aH
	push	OFFSET ??_C@_1JC@EMNIBBBG@?$AAd?$AA?3?$AA?2?$AA?$CB?$AAd?$AAi?$AAf?$AAf?$AAu?$AAs?$AAi?$AAo?$AAn?$AA?5?$AA2?$AA0?$AA2?$AA0?$AA?2?$AAs?$AAo?$AAu?$AAr?$AAc?$AAe?$AA?5?$AAc?$AAo?$AAd?$AAe?$AA?5?$AA2@
	push	OFFSET ??_C@_1FA@BPFBJKPF@?$AA?$CI?$AAe?$AAl?$AAe?$AAm?$AA?5?$AA?$DN?$AA?$DN?$AA?5?$AAC?$AAo?$AAu?$AAn?$AAt?$AA?$CI?$AA?$CJ?$AA?$CJ?$AA?5?$AA?$HM?$AA?$HM?$AA?5?$AAI?$AAs?$AAV?$AAa?$AAl?$AAi?$AAd?$AAI?$AAn?$AAd?$AAe@
	call	__wassert
	add	esp, 12					; 0000000cH
$LN4@InsertBefo:

; 539  : 
; 540  : 	GrowVector();

	push	1
	mov	ecx, DWORD PTR _this$[ebp]
	call	?GrowVector@?$CUtlArray@PADV?$CUtlMemory@PADH@@@@IAEXH@Z ; CUtlArray<char *,CUtlMemory<char *,int> >::GrowVector

; 541  : 	ShiftElementsRight(elem);

	push	1
	mov	eax, DWORD PTR _elem$[ebp]
	push	eax
	mov	ecx, DWORD PTR _this$[ebp]
	call	?ShiftElementsRight@?$CUtlArray@PADV?$CUtlMemory@PADH@@@@IAEXHH@Z ; CUtlArray<char *,CUtlMemory<char *,int> >::ShiftElementsRight

; 542  : 	CopyConstruct( &Element(elem), src );

	mov	eax, DWORD PTR _src$[ebp]
	push	eax
	mov	ecx, DWORD PTR _elem$[ebp]
	push	ecx
	mov	ecx, DWORD PTR _this$[ebp]
	call	?Element@?$CUtlArray@PADV?$CUtlMemory@PADH@@@@QAEAAPADH@Z ; CUtlArray<char *,CUtlMemory<char *,int> >::Element
	push	eax
	call	??$CopyConstruct@PAD@@YAXPAPADABQAD@Z	; CopyConstruct<char *>
	add	esp, 8

; 543  : 	return elem;

	mov	eax, DWORD PTR _elem$[ebp]

; 544  : }

	pop	edi
	pop	esi
	pop	ebx
	mov	esp, ebp
	pop	ebp
	ret	8
?InsertBefore@?$CUtlArray@PADV?$CUtlMemory@PADH@@@@QAEHHABQAD@Z ENDP ; CUtlArray<char *,CUtlMemory<char *,int> >::InsertBefore
_TEXT	ENDS
; Function compile flags: /Odtp /ZI
; File d:\!diffusion 2020\source code 2022\client-server\game_shared\utlarray.h
;	COMDAT ?AddToTail@?$CUtlArray@PADV?$CUtlMemory@PADH@@@@QAEHABQAD@Z
_TEXT	SEGMENT
_this$ = -4						; size = 4
_src$ = 8						; size = 4
?AddToTail@?$CUtlArray@PADV?$CUtlMemory@PADH@@@@QAEHABQAD@Z PROC ; CUtlArray<char *,CUtlMemory<char *,int> >::AddToTail, COMDAT
; _this$ = ecx

; 517  : {

	push	ebp
	mov	ebp, esp
	sub	esp, 68					; 00000044H
	push	ebx
	push	esi
	push	edi
	mov	DWORD PTR _this$[ebp], ecx

; 518  : 	// Can't insert something that's in the list... reallocation may hose us
; 519  : 	assert( (Base() == NULL) || (&src < Base()) || (&src >= (Base() + Count()) ) ); 

	mov	ecx, DWORD PTR _this$[ebp]
	call	?Base@?$CUtlArray@PADV?$CUtlMemory@PADH@@@@QAEPAPADXZ ; CUtlArray<char *,CUtlMemory<char *,int> >::Base
	test	eax, eax
	je	SHORT $LN3@AddToTail
	mov	ecx, DWORD PTR _this$[ebp]
	call	?Base@?$CUtlArray@PADV?$CUtlMemory@PADH@@@@QAEPAPADXZ ; CUtlArray<char *,CUtlMemory<char *,int> >::Base
	cmp	DWORD PTR _src$[ebp], eax
	jb	SHORT $LN3@AddToTail
	mov	ecx, DWORD PTR _this$[ebp]
	call	?Base@?$CUtlArray@PADV?$CUtlMemory@PADH@@@@QAEPAPADXZ ; CUtlArray<char *,CUtlMemory<char *,int> >::Base
	mov	esi, eax
	mov	ecx, DWORD PTR _this$[ebp]
	call	?Count@?$CUtlArray@PADV?$CUtlMemory@PADH@@@@QBEHXZ ; CUtlArray<char *,CUtlMemory<char *,int> >::Count
	lea	eax, DWORD PTR [esi+eax*4]
	cmp	DWORD PTR _src$[ebp], eax
	jae	SHORT $LN3@AddToTail
	push	519					; 00000207H
	push	OFFSET ??_C@_1JC@EMNIBBBG@?$AAd?$AA?3?$AA?2?$AA?$CB?$AAd?$AAi?$AAf?$AAf?$AAu?$AAs?$AAi?$AAo?$AAn?$AA?5?$AA2?$AA0?$AA2?$AA0?$AA?2?$AAs?$AAo?$AAu?$AAr?$AAc?$AAe?$AA?5?$AAc?$AAo?$AAd?$AAe?$AA?5?$AA2@
	push	OFFSET ??_C@_1IK@DGJDJNN@?$AA?$CI?$AAB?$AAa?$AAs?$AAe?$AA?$CI?$AA?$CJ?$AA?5?$AA?$DN?$AA?$DN?$AA?5?$AAN?$AAU?$AAL?$AAL?$AA?$CJ?$AA?5?$AA?$HM?$AA?$HM?$AA?5?$AA?$CI?$AA?$CG?$AAs?$AAr?$AAc?$AA?5?$AA?$DM?$AA?5?$AAB?$AAa?$AAs?$AAe@
	call	__wassert
	add	esp, 12					; 0000000cH
$LN3@AddToTail:

; 520  : 	return InsertBefore( m_Size, src );

	mov	eax, DWORD PTR _src$[ebp]
	push	eax
	mov	ecx, DWORD PTR _this$[ebp]
	mov	edx, DWORD PTR [ecx+12]
	push	edx
	mov	ecx, DWORD PTR _this$[ebp]
	call	?InsertBefore@?$CUtlArray@PADV?$CUtlMemory@PADH@@@@QAEHHABQAD@Z ; CUtlArray<char *,CUtlMemory<char *,int> >::InsertBefore

; 521  : }

	pop	edi
	pop	esi
	pop	ebx
	mov	esp, ebp
	pop	ebp
	ret	4
?AddToTail@?$CUtlArray@PADV?$CUtlMemory@PADH@@@@QAEHABQAD@Z ENDP ; CUtlArray<char *,CUtlMemory<char *,int> >::AddToTail
_TEXT	ENDS
; Function compile flags: /Odtp /ZI
; File d:\!diffusion 2020\source code 2022\client-server\game_shared\utlarray.h
;	COMDAT ?IsValidIndex@?$CUtlArray@PADV?$CUtlMemory@PADH@@@@QBE_NH@Z
_TEXT	SEGMENT
tv67 = -72						; size = 4
_this$ = -4						; size = 4
_i$ = 8							; size = 4
?IsValidIndex@?$CUtlArray@PADV?$CUtlMemory@PADH@@@@QBE_NH@Z PROC ; CUtlArray<char *,CUtlMemory<char *,int> >::IsValidIndex, COMDAT
; _this$ = ecx

; 354  : {

	push	ebp
	mov	ebp, esp
	sub	esp, 72					; 00000048H
	push	ebx
	push	esi
	push	edi
	mov	DWORD PTR _this$[ebp], ecx

; 355  : 	return (i >= 0) && (i < m_Size);

	cmp	DWORD PTR _i$[ebp], 0
	jl	SHORT $LN3@IsValidInd
	mov	eax, DWORD PTR _this$[ebp]
	mov	ecx, DWORD PTR _i$[ebp]
	cmp	ecx, DWORD PTR [eax+12]
	jge	SHORT $LN3@IsValidInd
	mov	DWORD PTR tv67[ebp], 1
	jmp	SHORT $LN4@IsValidInd
$LN3@IsValidInd:
	mov	DWORD PTR tv67[ebp], 0
$LN4@IsValidInd:
	mov	al, BYTE PTR tv67[ebp]

; 356  : }

	pop	edi
	pop	esi
	pop	ebx
	mov	esp, ebp
	pop	ebp
	ret	4
?IsValidIndex@?$CUtlArray@PADV?$CUtlMemory@PADH@@@@QBE_NH@Z ENDP ; CUtlArray<char *,CUtlMemory<char *,int> >::IsValidIndex
_TEXT	ENDS
; Function compile flags: /Odtp /ZI
; File d:\!diffusion 2020\source code 2022\client-server\game_shared\utlarray.h
;	COMDAT ?Count@?$CUtlArray@PADV?$CUtlMemory@PADH@@@@QBEHXZ
_TEXT	SEGMENT
_this$ = -4						; size = 4
?Count@?$CUtlArray@PADV?$CUtlMemory@PADH@@@@QBEHXZ PROC	; CUtlArray<char *,CUtlMemory<char *,int> >::Count, COMDAT
; _this$ = ecx

; 344  : {

	push	ebp
	mov	ebp, esp
	sub	esp, 68					; 00000044H
	push	ebx
	push	esi
	push	edi
	mov	DWORD PTR _this$[ebp], ecx

; 345  : 	return m_Size;

	mov	eax, DWORD PTR _this$[ebp]
	mov	eax, DWORD PTR [eax+12]

; 346  : }

	pop	edi
	pop	esi
	pop	ebx
	mov	esp, ebp
	pop	ebp
	ret	0
?Count@?$CUtlArray@PADV?$CUtlMemory@PADH@@@@QBEHXZ ENDP	; CUtlArray<char *,CUtlMemory<char *,int> >::Count
_TEXT	ENDS
; Function compile flags: /Odtp /ZI
; File d:\!diffusion 2020\source code 2022\client-server\game_shared\utlarray.h
;	COMDAT ?Base@?$CUtlArray@PADV?$CUtlMemory@PADH@@@@QAEPAPADXZ
_TEXT	SEGMENT
_this$ = -4						; size = 4
?Base@?$CUtlArray@PADV?$CUtlMemory@PADH@@@@QAEPAPADXZ PROC ; CUtlArray<char *,CUtlMemory<char *,int> >::Base, COMDAT
; _this$ = ecx

; 60   : 	T* Base()								{ return m_Memory.Base(); }

	push	ebp
	mov	ebp, esp
	sub	esp, 68					; 00000044H
	push	ebx
	push	esi
	push	edi
	mov	DWORD PTR _this$[ebp], ecx
	mov	ecx, DWORD PTR _this$[ebp]
	call	?Base@?$CUtlMemory@PADH@@QAEPAPADXZ	; CUtlMemory<char *,int>::Base
	pop	edi
	pop	esi
	pop	ebx
	mov	esp, ebp
	pop	ebp
	ret	0
?Base@?$CUtlArray@PADV?$CUtlMemory@PADH@@@@QAEPAPADXZ ENDP ; CUtlArray<char *,CUtlMemory<char *,int> >::Base
_TEXT	ENDS
; Function compile flags: /Odtp /ZI
; File d:\!diffusion 2020\source code 2022\client-server\game_shared\utlarray.h
;	COMDAT ?Element@?$CUtlArray@PADV?$CUtlMemory@PADH@@@@QAEAAPADH@Z
_TEXT	SEGMENT
_this$ = -4						; size = 4
_i$ = 8							; size = 4
?Element@?$CUtlArray@PADV?$CUtlMemory@PADH@@@@QAEAAPADH@Z PROC ; CUtlArray<char *,CUtlMemory<char *,int> >::Element, COMDAT
; _this$ = ecx

; 294  : {

	push	ebp
	mov	ebp, esp
	sub	esp, 68					; 00000044H
	push	ebx
	push	esi
	push	edi
	mov	DWORD PTR _this$[ebp], ecx

; 295  : 	return m_Memory[ i ];

	mov	eax, DWORD PTR _i$[ebp]
	push	eax
	mov	ecx, DWORD PTR _this$[ebp]
	call	??A?$CUtlMemory@PADH@@QAEAAPADH@Z	; CUtlMemory<char *,int>::operator[]

; 296  : }

	pop	edi
	pop	esi
	pop	ebx
	mov	esp, ebp
	pop	ebp
	ret	4
?Element@?$CUtlArray@PADV?$CUtlMemory@PADH@@@@QAEAAPADH@Z ENDP ; CUtlArray<char *,CUtlMemory<char *,int> >::Element
_TEXT	ENDS
; Function compile flags: /Odtp /ZI
; File d:\!diffusion 2020\source code 2022\client-server\game_shared\utlarray.h
;	COMDAT ??A?$CUtlArray@PADV?$CUtlMemory@PADH@@@@QAEAAPADH@Z
_TEXT	SEGMENT
_this$ = -4						; size = 4
_i$ = 8							; size = 4
??A?$CUtlArray@PADV?$CUtlMemory@PADH@@@@QAEAAPADH@Z PROC ; CUtlArray<char *,CUtlMemory<char *,int> >::operator[], COMDAT
; _this$ = ecx

; 282  : {

	push	ebp
	mov	ebp, esp
	sub	esp, 68					; 00000044H
	push	ebx
	push	esi
	push	edi
	mov	DWORD PTR _this$[ebp], ecx

; 283  : 	return m_Memory[ i ];

	mov	eax, DWORD PTR _i$[ebp]
	push	eax
	mov	ecx, DWORD PTR _this$[ebp]
	call	??A?$CUtlMemory@PADH@@QAEAAPADH@Z	; CUtlMemory<char *,int>::operator[]

; 284  : }

	pop	edi
	pop	esi
	pop	ebx
	mov	esp, ebp
	pop	ebp
	ret	4
??A?$CUtlArray@PADV?$CUtlMemory@PADH@@@@QAEAAPADH@Z ENDP ; CUtlArray<char *,CUtlMemory<char *,int> >::operator[]
_TEXT	ENDS
; Function compile flags: /Odtp /ZI
; File d:\!diffusion 2020\source code 2022\client-server\game_shared\utlarray.h
;	COMDAT ??1?$CUtlArray@PADV?$CUtlMemory@PADH@@@@QAE@XZ
_TEXT	SEGMENT
_this$ = -16						; size = 4
__$EHRec$ = -12						; size = 12
??1?$CUtlArray@PADV?$CUtlMemory@PADH@@@@QAE@XZ PROC	; CUtlArray<char *,CUtlMemory<char *,int> >::~CUtlArray<char *,CUtlMemory<char *,int> >, COMDAT
; _this$ = ecx

; 260  : {

	push	ebp
	mov	ebp, esp
	push	-1
	push	__ehhandler$??1?$CUtlArray@PADV?$CUtlMemory@PADH@@@@QAE@XZ
	mov	eax, DWORD PTR fs:0
	push	eax
	sub	esp, 68					; 00000044H
	push	ebx
	push	esi
	push	edi
	mov	eax, DWORD PTR ___security_cookie
	xor	eax, ebp
	push	eax
	lea	eax, DWORD PTR __$EHRec$[ebp]
	mov	DWORD PTR fs:0, eax
	mov	DWORD PTR _this$[ebp], ecx

; 261  : 	Purge();

	mov	ecx, DWORD PTR _this$[ebp]
	call	?Purge@?$CUtlArray@PADV?$CUtlMemory@PADH@@@@QAEXXZ ; CUtlArray<char *,CUtlMemory<char *,int> >::Purge

; 262  : }

	mov	ecx, DWORD PTR _this$[ebp]
	call	??1?$CUtlMemory@PADH@@QAE@XZ		; CUtlMemory<char *,int>::~CUtlMemory<char *,int>
	mov	ecx, DWORD PTR __$EHRec$[ebp]
	mov	DWORD PTR fs:0, ecx
	pop	ecx
	pop	edi
	pop	esi
	pop	ebx
	mov	esp, ebp
	pop	ebp
	ret	0
_TEXT	ENDS
;	COMDAT text$x
text$x	SEGMENT
__ehhandler$??1?$CUtlArray@PADV?$CUtlMemory@PADH@@@@QAE@XZ:
	mov	edx, DWORD PTR [esp+8]
	lea	eax, DWORD PTR [edx+12]
	mov	ecx, DWORD PTR [edx-84]
	xor	ecx, eax
	call	@__security_check_cookie@4
	mov	eax, OFFSET __ehfuncinfo$??1?$CUtlArray@PADV?$CUtlMemory@PADH@@@@QAE@XZ
	jmp	___CxxFrameHandler3
text$x	ENDS
??1?$CUtlArray@PADV?$CUtlMemory@PADH@@@@QAE@XZ ENDP	; CUtlArray<char *,CUtlMemory<char *,int> >::~CUtlArray<char *,CUtlMemory<char *,int> >
; Function compile flags: /Odtp /ZI
; File d:\!diffusion 2020\source code 2022\client-server\game_shared\utlarray.h
;	COMDAT ??0?$CUtlArray@PADV?$CUtlMemory@PADH@@@@QAE@HH@Z
_TEXT	SEGMENT
_this$ = -16						; size = 4
__$EHRec$ = -12						; size = 12
_growSize$ = 8						; size = 4
_initSize$ = 12						; size = 4
??0?$CUtlArray@PADV?$CUtlMemory@PADH@@@@QAE@HH@Z PROC	; CUtlArray<char *,CUtlMemory<char *,int> >::CUtlArray<char *,CUtlMemory<char *,int> >, COMDAT
; _this$ = ecx

; 247  : {

	push	ebp
	mov	ebp, esp
	push	-1
	push	__ehhandler$??0?$CUtlArray@PADV?$CUtlMemory@PADH@@@@QAE@HH@Z
	mov	eax, DWORD PTR fs:0
	push	eax
	sub	esp, 68					; 00000044H
	push	ebx
	push	esi
	push	edi
	mov	eax, DWORD PTR ___security_cookie
	xor	eax, ebp
	push	eax
	lea	eax, DWORD PTR __$EHRec$[ebp]
	mov	DWORD PTR fs:0, eax
	mov	DWORD PTR _this$[ebp], ecx

; 246  : 	m_Memory(growSize, initSize), m_Size(0)

	mov	eax, DWORD PTR _initSize$[ebp]
	push	eax
	mov	ecx, DWORD PTR _growSize$[ebp]
	push	ecx
	mov	ecx, DWORD PTR _this$[ebp]
	call	??0?$CUtlMemory@PADH@@QAE@HH@Z		; CUtlMemory<char *,int>::CUtlMemory<char *,int>
	mov	DWORD PTR __$EHRec$[ebp+8], 0
	mov	eax, DWORD PTR _this$[ebp]
	mov	DWORD PTR [eax+12], 0

; 248  : 	ResetDbgInfo();

	mov	ecx, DWORD PTR _this$[ebp]
	call	?ResetDbgInfo@?$CUtlArray@PADV?$CUtlMemory@PADH@@@@IAEXXZ ; CUtlArray<char *,CUtlMemory<char *,int> >::ResetDbgInfo

; 249  : }

	mov	DWORD PTR __$EHRec$[ebp+8], -1
	mov	eax, DWORD PTR _this$[ebp]
	mov	ecx, DWORD PTR __$EHRec$[ebp]
	mov	DWORD PTR fs:0, ecx
	pop	ecx
	pop	edi
	pop	esi
	pop	ebx
	mov	esp, ebp
	pop	ebp
	ret	8
_TEXT	ENDS
;	COMDAT text$x
text$x	SEGMENT
__unwindfunclet$??0?$CUtlArray@PADV?$CUtlMemory@PADH@@@@QAE@HH@Z$0:
	mov	ecx, DWORD PTR _this$[ebp]
	jmp	??1?$CUtlMemory@PADH@@QAE@XZ		; CUtlMemory<char *,int>::~CUtlMemory<char *,int>
__ehhandler$??0?$CUtlArray@PADV?$CUtlMemory@PADH@@@@QAE@HH@Z:
	mov	edx, DWORD PTR [esp+8]
	lea	eax, DWORD PTR [edx+12]
	mov	ecx, DWORD PTR [edx-84]
	xor	ecx, eax
	call	@__security_check_cookie@4
	mov	eax, OFFSET __ehfuncinfo$??0?$CUtlArray@PADV?$CUtlMemory@PADH@@@@QAE@HH@Z
	jmp	___CxxFrameHandler3
text$x	ENDS
??0?$CUtlArray@PADV?$CUtlMemory@PADH@@@@QAE@HH@Z ENDP	; CUtlArray<char *,CUtlMemory<char *,int> >::CUtlArray<char *,CUtlMemory<char *,int> >
; Function compile flags: /Odtp /ZI
; File d:\!diffusion 2020\source code 2022\client-server\common\datamap.h
;	COMDAT ?GenerateName@CDatadescGeneratedNameHolder@@QAEPBDPBD@Z
_TEXT	SEGMENT
$T1 = -76						; size = 4
_pBuf$ = -8						; size = 4
_this$ = -4						; size = 4
_pszIdentifier$ = 8					; size = 4
?GenerateName@CDatadescGeneratedNameHolder@@QAEPBDPBD@Z PROC ; CDatadescGeneratedNameHolder::GenerateName, COMDAT
; _this$ = ecx

; 207  : 	{

	push	ebp
	mov	ebp, esp
	sub	esp, 76					; 0000004cH
	push	ebx
	push	esi
	push	edi
	mov	DWORD PTR _this$[ebp], ecx

; 208  : 		char *pBuf = new char[m_nLenBase + strlen(pszIdentifier) + 1];

	mov	eax, DWORD PTR _pszIdentifier$[ebp]
	push	eax
	call	_strlen
	add	esp, 4
	mov	ecx, DWORD PTR _this$[ebp]
	mov	edx, DWORD PTR [ecx+4]
	lea	eax, DWORD PTR [edx+eax+1]
	push	eax
	call	??_U@YAPAXI@Z				; operator new[]
	add	esp, 4
	mov	DWORD PTR $T1[ebp], eax
	mov	ecx, DWORD PTR $T1[ebp]
	mov	DWORD PTR _pBuf$[ebp], ecx

; 209  : 		sprintf( pBuf, "%s::", m_pszBase );

	mov	eax, DWORD PTR _this$[ebp]
	mov	ecx, DWORD PTR [eax]
	push	ecx
	push	OFFSET ??_C@_04EFCDBJNL@?$CFs?3?3?$AA@
	mov	edx, DWORD PTR _pBuf$[ebp]
	push	edx
	call	_sprintf
	add	esp, 12					; 0000000cH

; 210  : 		strcat( pBuf, pszIdentifier );

	mov	eax, DWORD PTR _pszIdentifier$[ebp]
	push	eax
	mov	ecx, DWORD PTR _pBuf$[ebp]
	push	ecx
	call	_strcat
	add	esp, 8

; 211  : 		m_Names.AddToTail( pBuf );

	lea	eax, DWORD PTR _pBuf$[ebp]
	push	eax
	mov	ecx, DWORD PTR _this$[ebp]
	add	ecx, 8
	call	?AddToTail@?$CUtlArray@PADV?$CUtlMemory@PADH@@@@QAEHABQAD@Z ; CUtlArray<char *,CUtlMemory<char *,int> >::AddToTail

; 212  : 		return pBuf;

	mov	eax, DWORD PTR _pBuf$[ebp]

; 213  : 	}

	pop	edi
	pop	esi
	pop	ebx
	mov	esp, ebp
	pop	ebp
	ret	4
?GenerateName@CDatadescGeneratedNameHolder@@QAEPBDPBD@Z ENDP ; CDatadescGeneratedNameHolder::GenerateName
_TEXT	ENDS
; Function compile flags: /Odtp /ZI
; File d:\!diffusion 2020\source code 2022\client-server\common\datamap.h
;	COMDAT ??1CDatadescGeneratedNameHolder@@QAE@XZ
_TEXT	SEGMENT
$T2 = -88						; size = 4
_i$3 = -20						; size = 4
_this$ = -16						; size = 4
__$EHRec$ = -12						; size = 12
??1CDatadescGeneratedNameHolder@@QAE@XZ PROC		; CDatadescGeneratedNameHolder::~CDatadescGeneratedNameHolder, COMDAT
; _this$ = ecx

; 199  : 	{

	push	ebp
	mov	ebp, esp
	push	-1
	push	__ehhandler$??1CDatadescGeneratedNameHolder@@QAE@XZ
	mov	eax, DWORD PTR fs:0
	push	eax
	sub	esp, 76					; 0000004cH
	push	ebx
	push	esi
	push	edi
	mov	eax, DWORD PTR ___security_cookie
	xor	eax, ebp
	push	eax
	lea	eax, DWORD PTR __$EHRec$[ebp]
	mov	DWORD PTR fs:0, eax
	mov	DWORD PTR _this$[ebp], ecx

; 200  : 		for( int i = 0; i < m_Names.Count(); i++ )

	mov	DWORD PTR _i$3[ebp], 0
	jmp	SHORT $LN4@CDatadescG
$LN2@CDatadescG:
	mov	eax, DWORD PTR _i$3[ebp]
	add	eax, 1
	mov	DWORD PTR _i$3[ebp], eax
$LN4@CDatadescG:
	mov	ecx, DWORD PTR _this$[ebp]
	add	ecx, 8
	call	?Count@?$CUtlArray@PADV?$CUtlMemory@PADH@@@@QBEHXZ ; CUtlArray<char *,CUtlMemory<char *,int> >::Count
	cmp	DWORD PTR _i$3[ebp], eax
	jge	SHORT $LN1@CDatadescG

; 201  : 		{
; 202  : 			delete m_Names[i];

	mov	eax, DWORD PTR _i$3[ebp]
	push	eax
	mov	ecx, DWORD PTR _this$[ebp]
	add	ecx, 8
	call	??A?$CUtlArray@PADV?$CUtlMemory@PADH@@@@QAEAAPADH@Z ; CUtlArray<char *,CUtlMemory<char *,int> >::operator[]
	mov	ecx, DWORD PTR [eax]
	mov	DWORD PTR $T2[ebp], ecx
	push	1
	mov	edx, DWORD PTR $T2[ebp]
	push	edx
	call	??3@YAXPAXI@Z				; operator delete
	add	esp, 8

; 203  : 		}

	jmp	SHORT $LN2@CDatadescG
$LN1@CDatadescG:

; 204  : 	}

	mov	ecx, DWORD PTR _this$[ebp]
	add	ecx, 8
	call	??1?$CUtlArray@PADV?$CUtlMemory@PADH@@@@QAE@XZ ; CUtlArray<char *,CUtlMemory<char *,int> >::~CUtlArray<char *,CUtlMemory<char *,int> >
	mov	ecx, DWORD PTR __$EHRec$[ebp]
	mov	DWORD PTR fs:0, ecx
	pop	ecx
	pop	edi
	pop	esi
	pop	ebx
	mov	esp, ebp
	pop	ebp
	ret	0
_TEXT	ENDS
;	COMDAT text$x
text$x	SEGMENT
__ehhandler$??1CDatadescGeneratedNameHolder@@QAE@XZ:
	mov	edx, DWORD PTR [esp+8]
	lea	eax, DWORD PTR [edx+12]
	mov	ecx, DWORD PTR [edx-92]
	xor	ecx, eax
	call	@__security_check_cookie@4
	mov	eax, OFFSET __ehfuncinfo$??1CDatadescGeneratedNameHolder@@QAE@XZ
	jmp	___CxxFrameHandler3
text$x	ENDS
??1CDatadescGeneratedNameHolder@@QAE@XZ ENDP		; CDatadescGeneratedNameHolder::~CDatadescGeneratedNameHolder
; Function compile flags: /Odtp /ZI
; File d:\!diffusion 2020\source code 2022\client-server\common\datamap.h
;	COMDAT ??0CDatadescGeneratedNameHolder@@QAE@PBD@Z
_TEXT	SEGMENT
_this$ = -4						; size = 4
_pszBase$ = 8						; size = 4
??0CDatadescGeneratedNameHolder@@QAE@PBD@Z PROC		; CDatadescGeneratedNameHolder::CDatadescGeneratedNameHolder, COMDAT
; _this$ = ecx

; 194  : 	{

	push	ebp
	mov	ebp, esp
	sub	esp, 68					; 00000044H
	push	ebx
	push	esi
	push	edi
	mov	DWORD PTR _this$[ebp], ecx

; 193  : 	CDatadescGeneratedNameHolder( const char *pszBase ) : m_pszBase(pszBase)

	mov	eax, DWORD PTR _this$[ebp]
	mov	ecx, DWORD PTR _pszBase$[ebp]
	mov	DWORD PTR [eax], ecx

; 194  : 	{

	push	0
	push	0
	mov	ecx, DWORD PTR _this$[ebp]
	add	ecx, 8
	call	??0?$CUtlArray@PADV?$CUtlMemory@PADH@@@@QAE@HH@Z ; CUtlArray<char *,CUtlMemory<char *,int> >::CUtlArray<char *,CUtlMemory<char *,int> >

; 195  : 		m_nLenBase = strlen( m_pszBase ) + 2;

	mov	eax, DWORD PTR _this$[ebp]
	mov	ecx, DWORD PTR [eax]
	push	ecx
	call	_strlen
	add	esp, 4
	add	eax, 2
	mov	edx, DWORD PTR _this$[ebp]
	mov	DWORD PTR [edx+4], eax

; 196  : 	}

	mov	eax, DWORD PTR _this$[ebp]
	pop	edi
	pop	esi
	pop	ebx
	mov	esp, ebp
	pop	ebp
	ret	4
??0CDatadescGeneratedNameHolder@@QAE@PBD@Z ENDP		; CDatadescGeneratedNameHolder::CDatadescGeneratedNameHolder
_TEXT	ENDS
; Function compile flags: /Odtp /ZI
; File d:\!diffusion 2020\source code 2022\client-server\game_shared\utlmemory.h
;	COMDAT ?UtlMemory_CalcNewAllocationCount@@YAHHHHH@Z
_TEXT	SEGMENT
_nAllocationCount$ = 8					; size = 4
_nGrowSize$ = 12					; size = 4
_nNewSize$ = 16						; size = 4
_nBytesItem$ = 20					; size = 4
?UtlMemory_CalcNewAllocationCount@@YAHHHHH@Z PROC	; UtlMemory_CalcNewAllocationCount, COMDAT

; 528  : {

	push	ebp
	mov	ebp, esp
	sub	esp, 64					; 00000040H
	push	ebx
	push	esi
	push	edi

; 529  : 	if ( nGrowSize )

	cmp	DWORD PTR _nGrowSize$[ebp], 0
	je	SHORT $LN4@UtlMemory_

; 530  : 	{ 
; 531  : 		nAllocationCount = ((1 + ((nNewSize - 1) / nGrowSize)) * nGrowSize);

	mov	eax, DWORD PTR _nNewSize$[ebp]
	sub	eax, 1
	cdq
	idiv	DWORD PTR _nGrowSize$[ebp]
	add	eax, 1
	imul	eax, DWORD PTR _nGrowSize$[ebp]
	mov	DWORD PTR _nAllocationCount$[ebp], eax

; 532  : 	}
; 533  : 	else 

	jmp	SHORT $LN5@UtlMemory_
$LN4@UtlMemory_:

; 534  : 	{
; 535  : 		if ( !nAllocationCount )

	cmp	DWORD PTR _nAllocationCount$[ebp], 0
	jne	SHORT $LN2@UtlMemory_

; 536  : 		{
; 537  : 			// Compute an allocation which is at least as big as a cache line...
; 538  : 			nAllocationCount = (31 + nBytesItem) / nBytesItem;

	mov	eax, DWORD PTR _nBytesItem$[ebp]
	add	eax, 31					; 0000001fH
	cdq
	idiv	DWORD PTR _nBytesItem$[ebp]
	mov	DWORD PTR _nAllocationCount$[ebp], eax
$LN2@UtlMemory_:

; 539  : 		}
; 540  : 
; 541  : 		while (nAllocationCount < nNewSize)

	mov	eax, DWORD PTR _nAllocationCount$[ebp]
	cmp	eax, DWORD PTR _nNewSize$[ebp]
	jge	SHORT $LN5@UtlMemory_

; 542  : 		{
; 543  : #ifndef _X360
; 544  : 			nAllocationCount *= 2;

	mov	eax, DWORD PTR _nAllocationCount$[ebp]
	shl	eax, 1
	mov	DWORD PTR _nAllocationCount$[ebp], eax

; 545  : #else
; 546  : 			int nNewAllocationCount = ( nAllocationCount * 9) / 8; // 12.5 %
; 547  : 			if ( nNewAllocationCount > nAllocationCount )
; 548  : 				nAllocationCount = nNewAllocationCount;
; 549  : 			else
; 550  : 				nAllocationCount *= 2;
; 551  : #endif
; 552  : 		}

	jmp	SHORT $LN2@UtlMemory_
$LN5@UtlMemory_:

; 553  : 	}
; 554  : 
; 555  : 	return nAllocationCount;

	mov	eax, DWORD PTR _nAllocationCount$[ebp]

; 556  : }

	pop	edi
	pop	esi
	pop	ebx
	mov	esp, ebp
	pop	ebp
	ret	0
?UtlMemory_CalcNewAllocationCount@@YAHHHHH@Z ENDP	; UtlMemory_CalcNewAllocationCount
_TEXT	ENDS
; Function compile flags: /Odtp /ZI
; File c:\program files (x86)\microsoft visual studio 14.0\vc\include\vcruntime_new.h
;	COMDAT ??2@YAPAXIPAX@Z
_TEXT	SEGMENT
__Size$ = 8						; size = 4
__Where$ = 12						; size = 4
??2@YAPAXIPAX@Z PROC					; operator new, COMDAT

; 87   :     {

	push	ebp
	mov	ebp, esp
	sub	esp, 64					; 00000040H
	push	ebx
	push	esi
	push	edi

; 88   :         (void)_Size;
; 89   :         return _Where;

	mov	eax, DWORD PTR __Where$[ebp]

; 90   :     }

	pop	edi
	pop	esi
	pop	ebx
	mov	esp, ebp
	pop	ebp
	ret	0
??2@YAPAXIPAX@Z ENDP					; operator new
_TEXT	ENDS
; Function compile flags: /Odtp /ZI
; File d:\!diffusion 2020\source code 2022\client-server\server\enginecallback.h
;	COMDAT ?GET_PRIVATE@@YAPAXPAUedict_s@@@Z
_TEXT	SEGMENT
_pent$ = 8						; size = 4
?GET_PRIVATE@@YAPAXPAUedict_s@@@Z PROC			; GET_PRIVATE, COMDAT

; 106  : {

	push	ebp
	mov	ebp, esp
	sub	esp, 64					; 00000040H
	push	ebx
	push	esi
	push	edi

; 107  : 	if ( pent )

	cmp	DWORD PTR _pent$[ebp], 0
	je	SHORT $LN2@GET_PRIVAT

; 108  : 		return pent->pvPrivateData;

	mov	eax, DWORD PTR _pent$[ebp]
	mov	eax, DWORD PTR [eax+124]
	jmp	SHORT $LN1@GET_PRIVAT
$LN2@GET_PRIVAT:

; 109  : 	return NULL;

	xor	eax, eax
$LN1@GET_PRIVAT:

; 110  : }

	pop	edi
	pop	esi
	pop	ebx
	mov	esp, ebp
	pop	ebp
	ret	0
?GET_PRIVATE@@YAPAXPAUedict_s@@@Z ENDP			; GET_PRIVATE
_TEXT	ENDS
; Function compile flags: /Odtp /ZI
; File d:\!diffusion 2020\source code 2022\client-server\server\enginecallback.h
;	COMDAT ?MESSAGE_BEGIN@@YAXHHPBMPAUedict_s@@@Z
_TEXT	SEGMENT
_msg_dest$ = 8						; size = 4
_msg_type$ = 12						; size = 4
_pOrigin$ = 16						; size = 4
_ed$ = 20						; size = 4
?MESSAGE_BEGIN@@YAXHHPBMPAUedict_s@@@Z PROC		; MESSAGE_BEGIN, COMDAT

; 72   : inline void MESSAGE_BEGIN( int msg_dest, int msg_type, const float *pOrigin = NULL, edict_t *ed = NULL ) {

	push	ebp
	mov	ebp, esp
	sub	esp, 64					; 00000040H
	push	ebx
	push	esi
	push	edi

; 73   : 	(*g_engfuncs.pfnMessageBegin)(msg_dest, msg_type, pOrigin, ed);

	mov	eax, DWORD PTR _ed$[ebp]
	push	eax
	mov	ecx, DWORD PTR _pOrigin$[ebp]
	push	ecx
	mov	edx, DWORD PTR _msg_type$[ebp]
	push	edx
	mov	eax, DWORD PTR _msg_dest$[ebp]
	push	eax
	call	DWORD PTR ?g_engfuncs@@3Uenginefuncs_s@@A+184
	add	esp, 16					; 00000010H

; 74   : }

	pop	edi
	pop	esi
	pop	ebx
	mov	esp, ebp
	pop	ebp
	ret	0
?MESSAGE_BEGIN@@YAXHHPBMPAUedict_s@@@Z ENDP		; MESSAGE_BEGIN
_TEXT	ENDS
; Function compile flags: /Odtp /ZI
;	COMDAT ??0gametrace_s@@QAE@XZ
_TEXT	SEGMENT
_this$ = -4						; size = 4
??0gametrace_s@@QAE@XZ PROC				; gametrace_s::gametrace_s, COMDAT
; _this$ = ecx
	push	ebp
	mov	ebp, esp
	sub	esp, 68					; 00000044H
	push	ebx
	push	esi
	push	edi
	mov	DWORD PTR _this$[ebp], ecx
	mov	ecx, DWORD PTR _this$[ebp]
	add	ecx, 20					; 00000014H
	call	??0Vector@@QAE@XZ			; Vector::Vector
	mov	ecx, DWORD PTR _this$[ebp]
	add	ecx, 36					; 00000024H
	call	??0Vector@@QAE@XZ			; Vector::Vector
	mov	eax, DWORD PTR _this$[ebp]
	pop	edi
	pop	esi
	pop	ebx
	mov	esp, ebp
	pop	ebp
	ret	0
??0gametrace_s@@QAE@XZ ENDP				; gametrace_s::gametrace_s
_TEXT	ENDS
; Function compile flags: /Odtp /ZI
; File d:\!diffusion 2020\source code 2022\client-server\game_shared\vector.h
;	COMDAT ??BVector@@QBEPBMXZ
_TEXT	SEGMENT
_this$ = -4						; size = 4
??BVector@@QBEPBMXZ PROC				; Vector::operator float const *, COMDAT
; _this$ = ecx

; 248  : 	operator const float *() const		{ return &x; } 

	push	ebp
	mov	ebp, esp
	sub	esp, 68					; 00000044H
	push	ebx
	push	esi
	push	edi
	mov	DWORD PTR _this$[ebp], ecx
	mov	eax, DWORD PTR _this$[ebp]
	pop	edi
	pop	esi
	pop	ebx
	mov	esp, ebp
	pop	ebp
	ret	0
??BVector@@QBEPBMXZ ENDP				; Vector::operator float const *
_TEXT	ENDS
; Function compile flags: /Odtp /ZI
; File d:\!diffusion 2020\source code 2022\client-server\game_shared\vector.h
;	COMDAT ??BVector@@QAEPAMXZ
_TEXT	SEGMENT
_this$ = -4						; size = 4
??BVector@@QAEPAMXZ PROC				; Vector::operator float *, COMDAT
; _this$ = ecx

; 247  : 	operator float *()				{ return &x; } // Vectors will now automatically convert to float * when needed

	push	ebp
	mov	ebp, esp
	sub	esp, 68					; 00000044H
	push	ebx
	push	esi
	push	edi
	mov	DWORD PTR _this$[ebp], ecx
	mov	eax, DWORD PTR _this$[ebp]
	pop	edi
	pop	esi
	pop	ebx
	mov	esp, ebp
	pop	ebp
	ret	0
??BVector@@QAEPAMXZ ENDP				; Vector::operator float *
_TEXT	ENDS
; Function compile flags: /Odtp /ZI
; File d:\!diffusion 2020\source code 2022\client-server\game_shared\vector.h
;	COMDAT ??DVector@@QBE?AV0@M@Z
_TEXT	SEGMENT
_this$ = -4						; size = 4
___$ReturnUdt$ = 8					; size = 4
_fl$ = 12						; size = 4
??DVector@@QBE?AV0@M@Z PROC				; Vector::operator*, COMDAT
; _this$ = ecx

; 162  : 	inline Vector operator*(float fl) const		{ return Vector(x*fl, y*fl, z*fl);	   }

	push	ebp
	mov	ebp, esp
	sub	esp, 68					; 00000044H
	push	ebx
	push	esi
	push	edi
	mov	DWORD PTR _this$[ebp], ecx
	mov	eax, DWORD PTR _this$[ebp]
	movss	xmm0, DWORD PTR [eax+8]
	mulss	xmm0, DWORD PTR _fl$[ebp]
	push	ecx
	movss	DWORD PTR [esp], xmm0
	mov	ecx, DWORD PTR _this$[ebp]
	movss	xmm0, DWORD PTR [ecx+4]
	mulss	xmm0, DWORD PTR _fl$[ebp]
	push	ecx
	movss	DWORD PTR [esp], xmm0
	mov	edx, DWORD PTR _this$[ebp]
	movss	xmm0, DWORD PTR [edx]
	mulss	xmm0, DWORD PTR _fl$[ebp]
	push	ecx
	movss	DWORD PTR [esp], xmm0
	mov	ecx, DWORD PTR ___$ReturnUdt$[ebp]
	call	??0Vector@@QAE@MMM@Z			; Vector::Vector
	mov	eax, DWORD PTR ___$ReturnUdt$[ebp]
	pop	edi
	pop	esi
	pop	ebx
	mov	esp, ebp
	pop	ebp
	ret	8
??DVector@@QBE?AV0@M@Z ENDP				; Vector::operator*
_TEXT	ENDS
; Function compile flags: /Odtp /ZI
; File d:\!diffusion 2020\source code 2022\client-server\game_shared\vector.h
;	COMDAT ??HVector@@QBE?AV0@ABV0@@Z
_TEXT	SEGMENT
_this$ = -4						; size = 4
___$ReturnUdt$ = 8					; size = 4
_v$ = 12						; size = 4
??HVector@@QBE?AV0@ABV0@@Z PROC				; Vector::operator+, COMDAT
; _this$ = ecx

; 158  : 	inline Vector operator+(const Vector& v) const	{ return Vector(x+v.x, y+v.y, z+v.z);	   }

	push	ebp
	mov	ebp, esp
	sub	esp, 68					; 00000044H
	push	ebx
	push	esi
	push	edi
	mov	DWORD PTR _this$[ebp], ecx
	mov	eax, DWORD PTR _this$[ebp]
	mov	ecx, DWORD PTR _v$[ebp]
	movss	xmm0, DWORD PTR [eax+8]
	addss	xmm0, DWORD PTR [ecx+8]
	push	ecx
	movss	DWORD PTR [esp], xmm0
	mov	edx, DWORD PTR _this$[ebp]
	mov	eax, DWORD PTR _v$[ebp]
	movss	xmm0, DWORD PTR [edx+4]
	addss	xmm0, DWORD PTR [eax+4]
	push	ecx
	movss	DWORD PTR [esp], xmm0
	mov	ecx, DWORD PTR _this$[ebp]
	mov	edx, DWORD PTR _v$[ebp]
	movss	xmm0, DWORD PTR [ecx]
	addss	xmm0, DWORD PTR [edx]
	push	ecx
	movss	DWORD PTR [esp], xmm0
	mov	ecx, DWORD PTR ___$ReturnUdt$[ebp]
	call	??0Vector@@QAE@MMM@Z			; Vector::Vector
	mov	eax, DWORD PTR ___$ReturnUdt$[ebp]
	pop	edi
	pop	esi
	pop	ebx
	mov	esp, ebp
	pop	ebp
	ret	8
??HVector@@QBE?AV0@ABV0@@Z ENDP				; Vector::operator+
_TEXT	ENDS
; Function compile flags: /Odtp /ZI
; File d:\!diffusion 2020\source code 2022\client-server\game_shared\vector.h
;	COMDAT ??9Vector@@QBEHABV0@@Z
_TEXT	SEGMENT
tv68 = -72						; size = 4
_this$ = -4						; size = 4
_v$ = 8							; size = 4
??9Vector@@QBEHABV0@@Z PROC				; Vector::operator!=, COMDAT
; _this$ = ecx

; 157  : 	inline int operator!=(const Vector& v) const	{ return !(*this==v);		   }

	push	ebp
	mov	ebp, esp
	sub	esp, 72					; 00000048H
	push	ebx
	push	esi
	push	edi
	mov	DWORD PTR _this$[ebp], ecx
	mov	eax, DWORD PTR _v$[ebp]
	push	eax
	mov	ecx, DWORD PTR _this$[ebp]
	call	??8Vector@@QBEHABV0@@Z			; Vector::operator==
	test	eax, eax
	jne	SHORT $LN3@operator
	mov	DWORD PTR tv68[ebp], 1
	jmp	SHORT $LN4@operator
$LN3@operator:
	mov	DWORD PTR tv68[ebp], 0
$LN4@operator:
	mov	eax, DWORD PTR tv68[ebp]
	pop	edi
	pop	esi
	pop	ebx
	mov	esp, ebp
	pop	ebp
	ret	4
??9Vector@@QBEHABV0@@Z ENDP				; Vector::operator!=
_TEXT	ENDS
; Function compile flags: /Odtp /ZI
; File d:\!diffusion 2020\source code 2022\client-server\game_shared\vector.h
;	COMDAT ??8Vector@@QBEHABV0@@Z
_TEXT	SEGMENT
tv73 = -72						; size = 4
_this$ = -4						; size = 4
_v$ = 8							; size = 4
??8Vector@@QBEHABV0@@Z PROC				; Vector::operator==, COMDAT
; _this$ = ecx

; 156  : 	inline int operator==(const Vector& v) const	{ return x==v.x && y==v.y && z==v.z;	   }

	push	ebp
	mov	ebp, esp
	sub	esp, 72					; 00000048H
	push	ebx
	push	esi
	push	edi
	mov	DWORD PTR _this$[ebp], ecx
	mov	eax, DWORD PTR _this$[ebp]
	mov	ecx, DWORD PTR _v$[ebp]
	movss	xmm0, DWORD PTR [eax]
	ucomiss	xmm0, DWORD PTR [ecx]
	lahf
	test	ah, 68					; 00000044H
	jp	SHORT $LN3@operator
	mov	edx, DWORD PTR _this$[ebp]
	mov	eax, DWORD PTR _v$[ebp]
	movss	xmm0, DWORD PTR [edx+4]
	ucomiss	xmm0, DWORD PTR [eax+4]
	lahf
	test	ah, 68					; 00000044H
	jp	SHORT $LN3@operator
	mov	ecx, DWORD PTR _this$[ebp]
	mov	edx, DWORD PTR _v$[ebp]
	movss	xmm0, DWORD PTR [ecx+8]
	ucomiss	xmm0, DWORD PTR [edx+8]
	lahf
	test	ah, 68					; 00000044H
	jp	SHORT $LN3@operator
	mov	DWORD PTR tv73[ebp], 1
	jmp	SHORT $LN4@operator
$LN3@operator:
	mov	DWORD PTR tv73[ebp], 0
$LN4@operator:
	mov	eax, DWORD PTR tv73[ebp]
	pop	edi
	pop	esi
	pop	ebx
	mov	esp, ebp
	pop	ebp
	ret	4
??8Vector@@QBEHABV0@@Z ENDP				; Vector::operator==
_TEXT	ENDS
; Function compile flags: /Odtp /ZI
; File d:\!diffusion 2020\source code 2022\client-server\game_shared\vector.h
;	COMDAT ??0Vector@@QAE@ABV0@@Z
_TEXT	SEGMENT
_this$ = -4						; size = 4
_v$ = 8							; size = 4
??0Vector@@QAE@ABV0@@Z PROC				; Vector::Vector, COMDAT
; _this$ = ecx

; 145  : 	inline Vector(const Vector& v)		{ x = v.x; y = v.y; z = v.z;		   }

	push	ebp
	mov	ebp, esp
	sub	esp, 68					; 00000044H
	push	ebx
	push	esi
	push	edi
	mov	DWORD PTR _this$[ebp], ecx
	mov	eax, DWORD PTR _this$[ebp]
	mov	ecx, DWORD PTR _v$[ebp]
	mov	edx, DWORD PTR [ecx]
	mov	DWORD PTR [eax], edx
	mov	eax, DWORD PTR _this$[ebp]
	mov	ecx, DWORD PTR _v$[ebp]
	mov	edx, DWORD PTR [ecx+4]
	mov	DWORD PTR [eax+4], edx
	mov	eax, DWORD PTR _this$[ebp]
	mov	ecx, DWORD PTR _v$[ebp]
	mov	edx, DWORD PTR [ecx+8]
	mov	DWORD PTR [eax+8], edx
	mov	eax, DWORD PTR _this$[ebp]
	pop	edi
	pop	esi
	pop	ebx
	mov	esp, ebp
	pop	ebp
	ret	4
??0Vector@@QAE@ABV0@@Z ENDP				; Vector::Vector
_TEXT	ENDS
; Function compile flags: /Odtp /ZI
; File d:\!diffusion 2020\source code 2022\client-server\game_shared\vector.h
;	COMDAT ??0Vector@@QAE@MMM@Z
_TEXT	SEGMENT
_this$ = -4						; size = 4
_X$ = 8							; size = 4
_Y$ = 12						; size = 4
_Z$ = 16						; size = 4
??0Vector@@QAE@MMM@Z PROC				; Vector::Vector, COMDAT
; _this$ = ecx

; 144  : 	inline Vector(float X, float Y, float Z)	{ x = X; y = Y; z = Z;                     }

	push	ebp
	mov	ebp, esp
	sub	esp, 68					; 00000044H
	push	ebx
	push	esi
	push	edi
	mov	DWORD PTR _this$[ebp], ecx
	mov	eax, DWORD PTR _this$[ebp]
	movss	xmm0, DWORD PTR _X$[ebp]
	movss	DWORD PTR [eax], xmm0
	mov	eax, DWORD PTR _this$[ebp]
	movss	xmm0, DWORD PTR _Y$[ebp]
	movss	DWORD PTR [eax+4], xmm0
	mov	eax, DWORD PTR _this$[ebp]
	movss	xmm0, DWORD PTR _Z$[ebp]
	movss	DWORD PTR [eax+8], xmm0
	mov	eax, DWORD PTR _this$[ebp]
	pop	edi
	pop	esi
	pop	ebx
	mov	esp, ebp
	pop	ebp
	ret	12					; 0000000cH
??0Vector@@QAE@MMM@Z ENDP				; Vector::Vector
_TEXT	ENDS
; Function compile flags: /Odtp /ZI
; File d:\!diffusion 2020\source code 2022\client-server\game_shared\vector.h
;	COMDAT ??0Vector@@QAE@XZ
_TEXT	SEGMENT
_this$ = -4						; size = 4
??0Vector@@QAE@XZ PROC					; Vector::Vector, COMDAT
; _this$ = ecx

; 143  : 	inline Vector(void)				{ }

	push	ebp
	mov	ebp, esp
	sub	esp, 68					; 00000044H
	push	ebx
	push	esi
	push	edi
	mov	DWORD PTR _this$[ebp], ecx
	mov	eax, DWORD PTR _this$[ebp]
	pop	edi
	pop	esi
	pop	ebx
	mov	esp, ebp
	pop	ebp
	ret	0
??0Vector@@QAE@XZ ENDP					; Vector::Vector
_TEXT	ENDS
; Function compile flags: /Odtp /ZI
; File c:\program files (x86)\windows kits\10\include\10.0.10240.0\ucrt\stdio.h
;	COMDAT _sprintf
_TEXT	SEGMENT
__ArgList$ = -8						; size = 4
__Result$ = -4						; size = 4
__Buffer$ = 8						; size = 4
__Format$ = 12						; size = 4
_sprintf PROC						; COMDAT

; 1776 : {

	push	ebp
	mov	ebp, esp
	sub	esp, 72					; 00000048H
	push	ebx
	push	esi
	push	edi

; 1777 :     int _Result;
; 1778 :     va_list _ArgList;
; 1779 :     __crt_va_start(_ArgList, _Format);

	call	??$__vcrt_va_start_verify_argument_type@QBD@@YAXXZ ; __vcrt_va_start_verify_argument_type<char const * const>
	lea	eax, DWORD PTR __Format$[ebp+4]
	mov	DWORD PTR __ArgList$[ebp], eax

; 1780 : 
; 1781 :     #pragma warning(push)
; 1782 :     #pragma warning(disable: 4996) // Deprecation
; 1783 :     _Result = _vsprintf_l(_Buffer, _Format, NULL, _ArgList);

	mov	eax, DWORD PTR __ArgList$[ebp]
	push	eax
	push	0
	mov	ecx, DWORD PTR __Format$[ebp]
	push	ecx
	mov	edx, DWORD PTR __Buffer$[ebp]
	push	edx
	call	__vsprintf_l
	add	esp, 16					; 00000010H
	mov	DWORD PTR __Result$[ebp], eax

; 1784 :     #pragma warning(pop)
; 1785 : 
; 1786 :     __crt_va_end(_ArgList);

	mov	DWORD PTR __ArgList$[ebp], 0

; 1787 :     return _Result;

	mov	eax, DWORD PTR __Result$[ebp]

; 1788 : }

	pop	edi
	pop	esi
	pop	ebx
	mov	esp, ebp
	pop	ebp
	ret	0
_sprintf ENDP
_TEXT	ENDS
; Function compile flags: /Odtp /ZI
; File c:\program files (x86)\windows kits\10\include\10.0.10240.0\ucrt\stdio.h
;	COMDAT __vsprintf_l
_TEXT	SEGMENT
__Buffer$ = 8						; size = 4
__Format$ = 12						; size = 4
__Locale$ = 16						; size = 4
__ArgList$ = 20						; size = 4
__vsprintf_l PROC					; COMDAT

; 1455 : {

	push	ebp
	mov	ebp, esp
	sub	esp, 64					; 00000040H
	push	ebx
	push	esi
	push	edi

; 1456 :     #pragma warning(push)
; 1457 :     #pragma warning(disable: 4996) // Deprecation
; 1458 :     return _vsnprintf_l(_Buffer, (size_t)-1, _Format, _Locale, _ArgList);

	mov	eax, DWORD PTR __ArgList$[ebp]
	push	eax
	mov	ecx, DWORD PTR __Locale$[ebp]
	push	ecx
	mov	edx, DWORD PTR __Format$[ebp]
	push	edx
	push	-1
	mov	eax, DWORD PTR __Buffer$[ebp]
	push	eax
	call	__vsnprintf_l
	add	esp, 20					; 00000014H

; 1459 :     #pragma warning(pop)
; 1460 : }

	pop	edi
	pop	esi
	pop	ebx
	mov	esp, ebp
	pop	ebp
	ret	0
__vsprintf_l ENDP
_TEXT	ENDS
; Function compile flags: /Odtp /ZI
; File c:\program files (x86)\windows kits\10\include\10.0.10240.0\ucrt\stdio.h
;	COMDAT __vsnprintf_l
_TEXT	SEGMENT
tv74 = -72						; size = 4
__Result$ = -4						; size = 4
__Buffer$ = 8						; size = 4
__BufferCount$ = 12					; size = 4
__Format$ = 16						; size = 4
__Locale$ = 20						; size = 4
__ArgList$ = 24						; size = 4
__vsnprintf_l PROC					; COMDAT

; 1385 : {

	push	ebp
	mov	ebp, esp
	sub	esp, 72					; 00000048H
	push	ebx
	push	esi
	push	edi

; 1386 :     int const _Result = __stdio_common_vsprintf(

	mov	eax, DWORD PTR __ArgList$[ebp]
	push	eax
	mov	ecx, DWORD PTR __Locale$[ebp]
	push	ecx
	mov	edx, DWORD PTR __Format$[ebp]
	push	edx
	mov	eax, DWORD PTR __BufferCount$[ebp]
	push	eax
	mov	ecx, DWORD PTR __Buffer$[ebp]
	push	ecx
	call	___local_stdio_printf_options
	mov	edx, DWORD PTR [eax]
	or	edx, 1
	mov	eax, DWORD PTR [eax+4]
	push	eax
	push	edx
	call	___stdio_common_vsprintf
	add	esp, 28					; 0000001cH
	mov	DWORD PTR __Result$[ebp], eax

; 1387 :         _CRT_INTERNAL_LOCAL_PRINTF_OPTIONS | _CRT_INTERNAL_PRINTF_LEGACY_VSPRINTF_NULL_TERMINATION,
; 1388 :         _Buffer, _BufferCount, _Format, _Locale, _ArgList);
; 1389 : 
; 1390 :     return _Result < 0 ? -1 : _Result;

	cmp	DWORD PTR __Result$[ebp], 0
	jge	SHORT $LN3@vsnprintf_
	mov	DWORD PTR tv74[ebp], -1
	jmp	SHORT $LN4@vsnprintf_
$LN3@vsnprintf_:
	mov	eax, DWORD PTR __Result$[ebp]
	mov	DWORD PTR tv74[ebp], eax
$LN4@vsnprintf_:
	mov	eax, DWORD PTR tv74[ebp]

; 1391 : }

	pop	edi
	pop	esi
	pop	ebx
	mov	esp, ebp
	pop	ebp
	ret	0
__vsnprintf_l ENDP
_TEXT	ENDS
; Function compile flags: /Odtp /ZI
; File c:\program files (x86)\microsoft visual studio 14.0\vc\include\vadefs.h
;	COMDAT ??$__vcrt_va_start_verify_argument_type@QBD@@YAXXZ
_TEXT	SEGMENT
??$__vcrt_va_start_verify_argument_type@QBD@@YAXXZ PROC	; __vcrt_va_start_verify_argument_type<char const * const>, COMDAT

; 144  :         {

	push	ebp
	mov	ebp, esp
	sub	esp, 64					; 00000040H
	push	ebx
	push	esi
	push	edi

; 145  :             static_assert(!__vcrt_va_list_is_reference<_Ty>::__the_value, "va_start argument must not have reference type and must not be parenthesized");
; 146  :         }

	pop	edi
	pop	esi
	pop	ebx
	mov	esp, ebp
	pop	ebp
	ret	0
??$__vcrt_va_start_verify_argument_type@QBD@@YAXXZ ENDP	; __vcrt_va_start_verify_argument_type<char const * const>
_TEXT	ENDS
; Function compile flags: /Odtp /ZI
; File c:\program files (x86)\windows kits\10\include\10.0.10240.0\ucrt\corecrt_stdio_config.h
;	COMDAT ___local_stdio_printf_options
_TEXT	SEGMENT
___local_stdio_printf_options PROC			; COMDAT

; 73   : {

	push	ebp
	mov	ebp, esp
	sub	esp, 64					; 00000040H
	push	ebx
	push	esi
	push	edi

; 74   :     static unsigned __int64 _OptionsStorage;
; 75   :     return &_OptionsStorage;

	mov	eax, OFFSET ?_OptionsStorage@?1??__local_stdio_printf_options@@9@4_KA ; `__local_stdio_printf_options'::`2'::_OptionsStorage

; 76   : }

	pop	edi
	pop	esi
	pop	ebx
	mov	esp, ebp
	pop	ebp
	ret	0
___local_stdio_printf_options ENDP
_TEXT	ENDS
; Function compile flags: /Odtp /ZI
; File d:\!diffusion 2020\source code 2022\client-server\server\weapons\weapons.cpp
;	COMDAT ?__empty_global_delete@@YAXPAXI@Z
_TEXT	SEGMENT
___formal$ = 8						; size = 4
___formal$ = 12						; size = 4
?__empty_global_delete@@YAXPAXI@Z PROC			; __empty_global_delete, COMDAT

; 1721 : }

	push	ebp
	mov	ebp, esp
	sub	esp, 64					; 00000040H
	push	ebx
	push	esi
	push	edi
	pop	edi
	pop	esi
	pop	ebx
	mov	esp, ebp
	pop	ebp
	ret	0
?__empty_global_delete@@YAXPAXI@Z ENDP			; __empty_global_delete
_TEXT	ENDS
; Function compile flags: /Odtp /ZI
; File d:\!diffusion 2020\source code 2022\client-server\server\weapons\weapons.cpp
;	COMDAT ?__empty_global_delete@@YAXPAX@Z
_TEXT	SEGMENT
___formal$ = 8						; size = 4
?__empty_global_delete@@YAXPAX@Z PROC			; __empty_global_delete, COMDAT

; 1721 : }

	push	ebp
	mov	ebp, esp
	sub	esp, 64					; 00000040H
	push	ebx
	push	esi
	push	edi
	pop	edi
	pop	esi
	pop	ebx
	mov	esp, ebp
	pop	ebp
	ret	0
?__empty_global_delete@@YAXPAX@Z ENDP			; __empty_global_delete
_TEXT	ENDS
; Function compile flags: /Odtp /ZI
;	COMDAT ??__G@YGXPAX0IIP6EPAX00@Z@Z
_TEXT	SEGMENT
tv66 = -68						; size = 4
___t$ = 8						; size = 4
___u$ = 12						; size = 4
___s$ = 16						; size = 4
___n$ = 20						; size = 4
___f$ = 24						; size = 4
??__G@YGXPAX0IIP6EPAX00@Z@Z PROC			; `vector copy constructor iterator', COMDAT
	push	ebp
	mov	ebp, esp
	sub	esp, 68					; 00000044H
	push	ebx
	push	esi
	push	edi
$LN2@vector:
	mov	eax, DWORD PTR ___n$[ebp]
	mov	DWORD PTR tv66[ebp], eax
	mov	ecx, DWORD PTR ___n$[ebp]
	sub	ecx, 1
	mov	DWORD PTR ___n$[ebp], ecx
	cmp	DWORD PTR tv66[ebp], 0
	jbe	SHORT $LN1@vector
	mov	eax, DWORD PTR ___u$[ebp]
	push	eax
	mov	ecx, DWORD PTR ___t$[ebp]
	call	DWORD PTR ___f$[ebp]
	mov	eax, DWORD PTR ___t$[ebp]
	add	eax, DWORD PTR ___s$[ebp]
	mov	DWORD PTR ___t$[ebp], eax
	mov	eax, DWORD PTR ___u$[ebp]
	add	eax, DWORD PTR ___s$[ebp]
	mov	DWORD PTR ___u$[ebp], eax
	jmp	SHORT $LN2@vector
$LN1@vector:
	pop	edi
	pop	esi
	pop	ebx
	mov	esp, ebp
	pop	ebp
	ret	20					; 00000014H
??__G@YGXPAX0IIP6EPAX00@Z@Z ENDP			; `vector copy constructor iterator'
_TEXT	ENDS
; Function compile flags: /Odtp /ZI
;	COMDAT ??_H@YGXPAXIIP6EPAX0@Z@Z
_TEXT	SEGMENT
tv66 = -68						; size = 4
___t$ = 8						; size = 4
___s$ = 12						; size = 4
___n$ = 16						; size = 4
___f$ = 20						; size = 4
??_H@YGXPAXIIP6EPAX0@Z@Z PROC				; `vector constructor iterator', COMDAT
	push	ebp
	mov	ebp, esp
	sub	esp, 68					; 00000044H
	push	ebx
	push	esi
	push	edi
$LN2@vector:
	mov	eax, DWORD PTR ___n$[ebp]
	mov	DWORD PTR tv66[ebp], eax
	mov	ecx, DWORD PTR ___n$[ebp]
	sub	ecx, 1
	mov	DWORD PTR ___n$[ebp], ecx
	cmp	DWORD PTR tv66[ebp], 0
	jbe	SHORT $LN1@vector
	mov	ecx, DWORD PTR ___t$[ebp]
	call	DWORD PTR ___f$[ebp]
	mov	eax, DWORD PTR ___t$[ebp]
	add	eax, DWORD PTR ___s$[ebp]
	mov	DWORD PTR ___t$[ebp], eax
	jmp	SHORT $LN2@vector
$LN1@vector:
	pop	edi
	pop	esi
	pop	ebx
	mov	esp, ebp
	pop	ebp
	ret	16					; 00000010H
??_H@YGXPAXIIP6EPAX0@Z@Z ENDP				; `vector constructor iterator'
_TEXT	ENDS
END
