; Listing generated by Microsoft (R) Optimizing Compiler Version 19.00.24247.2 

	TITLE	D:\!DIFFUSION 2020\source code 2022\client-server\server\weapons\weapon_snark.cpp
	.686P
	.XMM
	include listing.inc
	.model	flat

INCLUDELIB LIBCMT
INCLUDELIB OLDNAMES

PUBLIC	??_H@YGXPAXIIP6EPAX0@Z@Z			; `vector constructor iterator'
PUBLIC	??__G@YGXPAX0IIP6EPAX00@Z@Z			; `vector copy constructor iterator'
PUBLIC	?__empty_global_delete@@YAXPAX@Z		; __empty_global_delete
PUBLIC	?__empty_global_delete@@YAXPAXI@Z		; __empty_global_delete
PUBLIC	??0Vector@@QAE@XZ				; Vector::Vector
PUBLIC	??0Vector@@QAE@MMM@Z				; Vector::Vector
PUBLIC	??HVector@@QBE?AV0@ABV0@@Z			; Vector::operator+
PUBLIC	??DVector@@QBE?AV0@M@Z				; Vector::operator*
PUBLIC	??0gametrace_s@@QAE@XZ				; gametrace_s::gametrace_s
PUBLIC	?GET_PRIVATE@@YAPAXPAUedict_s@@@Z		; GET_PRIVATE
PUBLIC	?ENT@@YAPAUedict_s@@PBUentvars_s@@@Z		; ENT
PUBLIC	?ENT@@YAPAUedict_s@@H@Z				; ENT
PUBLIC	?EMIT_SOUND@@YAXPAUedict_s@@HPBDMM@Z		; EMIT_SOUND
PUBLIC	?GetClassname@CBaseEntity@@QAEPBDXZ		; CBaseEntity::GetClassname
PUBLIC	?Instance@CBaseEntity@@SAPAV1@PAUedict_s@@@Z	; CBaseEntity::Instance
PUBLIC	?FunctionCheck@CBaseEntity@@QAEXPAXPAD@Z	; CBaseEntity::FunctionCheck
PUBLIC	?ThinkSet@CBaseEntity@@QAEP81@AEXXZP81@AEXXZPAD@Z ; CBaseEntity::ThinkSet
PUBLIC	?GetGroundEntity@CBaseEntity@@QAEPAV1@XZ	; CBaseEntity::GetGroundEntity
PUBLIC	?edict@CBaseEntity@@QAEPAUedict_s@@XZ		; CBaseEntity::edict
PUBLIC	?RemoveWeapon@CBaseMonster@@QAEXH@Z		; CBaseMonster::RemoveWeapon
PUBLIC	?Spawn@CSqueak@@UAEXXZ				; CSqueak::Spawn
PUBLIC	?Precache@CSqueak@@UAEXXZ			; CSqueak::Precache
PUBLIC	?GetItemInfo@CSqueak@@UAEHPAUItemInfo@@@Z	; CSqueak::GetItemInfo
PUBLIC	?PrimaryAttack@CSqueak@@UAEXXZ			; CSqueak::PrimaryAttack
PUBLIC	?Deploy@CSqueak@@UAEHXZ				; CSqueak::Deploy
PUBLIC	?Holster@CSqueak@@UAEXXZ			; CSqueak::Holster
PUBLIC	?WeaponIdle@CSqueak@@UAEXXZ			; CSqueak::WeaponIdle
PUBLIC	??_C@_0CH@HELFJPDL@FUNCTION?5NOT?5IN?5TABLE?$CB?3?5?$CFs?3?$CFs?5?$CI?$CF@ ; `string'
PUBLIC	??_C@_0BF@PPMGPFPJ@models?1w_sqknest?4mdl?$AA@	; `string'
PUBLIC	??_C@_0BE@EOKFMNEB@models?1v_squeak?4mdl?$AA@	; `string'
PUBLIC	??_C@_0BE@OOEABCJM@models?1p_squeak?4mdl?$AA@	; `string'
PUBLIC	??_C@_0BF@CNBHEBPJ@squeek?1sqk_hunt2?4wav?$AA@	; `string'
PUBLIC	??_C@_0BF@OGELJCFM@squeek?1sqk_hunt3?4wav?$AA@	; `string'
PUBLIC	??_C@_0O@LBKPDLAI@monster_snark?$AA@		; `string'
PUBLIC	??_C@_06GHKEIFJP@Snarks?$AA@			; `string'
PUBLIC	??_C@_06INLLEPKG@squeak?$AA@			; `string'
PUBLIC	??_C@_0BO@FDPNENNO@?$CGCBasePlayerItem?3?3DestroyItem?$AA@ ; `string'
PUBLIC	??_C@_0BA@HKOJACLM@common?1null?4wav?$AA@	; `string'
PUBLIC	__real@3f4ccccd
PUBLIC	__real@3f800000
PUBLIC	__real@3fb999999999999a
PUBLIC	__real@3fd0000000000000
PUBLIC	__real@3fd3333333333333
PUBLIC	__real@3fe0000000000000
PUBLIC	__real@3fe8000000000000
PUBLIC	__real@3fec000000000000
PUBLIC	__real@3ff0000000000000
PUBLIC	__real@400e000000000000
PUBLIC	__real@4011800000000000
PUBLIC	__real@4014000000000000
PUBLIC	__real@41200000
PUBLIC	__real@41700000
PUBLIC	__real@41a00000
PUBLIC	__real@42800000
PUBLIC	__real@43480000
EXTRN	?DBG_EntOfVars@@YAPAUedict_s@@PBUentvars_s@@@Z:PROC ; DBG_EntOfVars
EXTRN	?UTIL_MakeVectors@@YAXABVVector@@@Z:PROC	; UTIL_MakeVectors
EXTRN	?UTIL_TraceLine@@YAXABVVector@@0W4IGNORE_MONSTERS@@PAUedict_s@@PAUgametrace_s@@@Z:PROC ; UTIL_TraceLine
EXTRN	?UTIL_PrecacheOther@@YAXPBD@Z:PROC		; UTIL_PrecacheOther
EXTRN	?EMIT_SOUND_DYN@@YAXPAUedict_s@@HPBDMMHH@Z:PROC	; EMIT_SOUND_DYN
EXTRN	?UTIL_FunctionToName@@YAPBDPAUdatamap_s@@PAX@Z:PROC ; UTIL_FunctionToName
EXTRN	?GetAbsOrigin@CBaseEntity@@QBEABVVector@@XZ:PROC ; CBaseEntity::GetAbsOrigin
EXTRN	?SetAbsVelocity@CBaseEntity@@QAEXABVVector@@@Z:PROC ; CBaseEntity::SetAbsVelocity
EXTRN	?GetAbsVelocity@CBaseEntity@@QBEABVVector@@XZ:PROC ; CBaseEntity::GetAbsVelocity
EXTRN	?Create@CBaseEntity@@SAPAV1@PADABVVector@@1PAUedict_s@@@Z:PROC ; CBaseEntity::Create
EXTRN	?DestroyItem@CBasePlayerItem@@QAEXXZ:PROC	; CBasePlayerItem::DestroyItem
EXTRN	?FallInit@CBasePlayerItem@@QAEXXZ:PROC		; CBasePlayerItem::FallInit
EXTRN	?DefaultDeploy@CBasePlayerWeapon@@QAEHPAD0H0HH@Z:PROC ; CBasePlayerWeapon::DefaultDeploy
EXTRN	?Holster@CBasePlayerWeapon@@UAEXXZ:PROC		; CBasePlayerWeapon::Holster
EXTRN	?SetAnimation@CBasePlayer@@QAEXW4PLAYER_ANIM@@@Z:PROC ; CBasePlayer::SetAnimation
EXTRN	?g_vecZero@@3VVector@@B:BYTE			; g_vecZero
EXTRN	?g_engfuncs@@3Uenginefuncs_s@@A:BYTE		; g_engfuncs
EXTRN	?gpGlobals@@3PAUglobalvars_t@@A:DWORD		; gpGlobals
EXTRN	__fltused:DWORD
;	COMDAT __real@43480000
CONST	SEGMENT
__real@43480000 DD 043480000r			; 200
CONST	ENDS
;	COMDAT __real@42800000
CONST	SEGMENT
__real@42800000 DD 042800000r			; 64
CONST	ENDS
;	COMDAT __real@41a00000
CONST	SEGMENT
__real@41a00000 DD 041a00000r			; 20
CONST	ENDS
;	COMDAT __real@41700000
CONST	SEGMENT
__real@41700000 DD 041700000r			; 15
CONST	ENDS
;	COMDAT __real@41200000
CONST	SEGMENT
__real@41200000 DD 041200000r			; 10
CONST	ENDS
;	COMDAT __real@4014000000000000
CONST	SEGMENT
__real@4014000000000000 DQ 04014000000000000r	; 5
CONST	ENDS
;	COMDAT __real@4011800000000000
CONST	SEGMENT
__real@4011800000000000 DQ 04011800000000000r	; 4.375
CONST	ENDS
;	COMDAT __real@400e000000000000
CONST	SEGMENT
__real@400e000000000000 DQ 0400e000000000000r	; 3.75
CONST	ENDS
;	COMDAT __real@3ff0000000000000
CONST	SEGMENT
__real@3ff0000000000000 DQ 03ff0000000000000r	; 1
CONST	ENDS
;	COMDAT __real@3fec000000000000
CONST	SEGMENT
__real@3fec000000000000 DQ 03fec000000000000r	; 0.875
CONST	ENDS
;	COMDAT __real@3fe8000000000000
CONST	SEGMENT
__real@3fe8000000000000 DQ 03fe8000000000000r	; 0.75
CONST	ENDS
;	COMDAT __real@3fe0000000000000
CONST	SEGMENT
__real@3fe0000000000000 DQ 03fe0000000000000r	; 0.5
CONST	ENDS
;	COMDAT __real@3fd3333333333333
CONST	SEGMENT
__real@3fd3333333333333 DQ 03fd3333333333333r	; 0.3
CONST	ENDS
;	COMDAT __real@3fd0000000000000
CONST	SEGMENT
__real@3fd0000000000000 DQ 03fd0000000000000r	; 0.25
CONST	ENDS
;	COMDAT __real@3fb999999999999a
CONST	SEGMENT
__real@3fb999999999999a DQ 03fb999999999999ar	; 0.1
CONST	ENDS
;	COMDAT __real@3f800000
CONST	SEGMENT
__real@3f800000 DD 03f800000r			; 1
CONST	ENDS
;	COMDAT __real@3f4ccccd
CONST	SEGMENT
__real@3f4ccccd DD 03f4ccccdr			; 0.8
CONST	ENDS
;	COMDAT ??_C@_0BA@HKOJACLM@common?1null?4wav?$AA@
CONST	SEGMENT
??_C@_0BA@HKOJACLM@common?1null?4wav?$AA@ DB 'common/null.wav', 00H ; `string'
CONST	ENDS
;	COMDAT ??_C@_0BO@FDPNENNO@?$CGCBasePlayerItem?3?3DestroyItem?$AA@
CONST	SEGMENT
??_C@_0BO@FDPNENNO@?$CGCBasePlayerItem?3?3DestroyItem?$AA@ DB '&CBasePlay'
	DB	'erItem::DestroyItem', 00H			; `string'
CONST	ENDS
;	COMDAT ??_C@_06INLLEPKG@squeak?$AA@
CONST	SEGMENT
??_C@_06INLLEPKG@squeak?$AA@ DB 'squeak', 00H		; `string'
CONST	ENDS
;	COMDAT ??_C@_06GHKEIFJP@Snarks?$AA@
CONST	SEGMENT
??_C@_06GHKEIFJP@Snarks?$AA@ DB 'Snarks', 00H		; `string'
CONST	ENDS
;	COMDAT ??_C@_0O@LBKPDLAI@monster_snark?$AA@
CONST	SEGMENT
??_C@_0O@LBKPDLAI@monster_snark?$AA@ DB 'monster_snark', 00H ; `string'
CONST	ENDS
;	COMDAT ??_C@_0BF@OGELJCFM@squeek?1sqk_hunt3?4wav?$AA@
CONST	SEGMENT
??_C@_0BF@OGELJCFM@squeek?1sqk_hunt3?4wav?$AA@ DB 'squeek/sqk_hunt3.wav', 00H ; `string'
CONST	ENDS
;	COMDAT ??_C@_0BF@CNBHEBPJ@squeek?1sqk_hunt2?4wav?$AA@
CONST	SEGMENT
??_C@_0BF@CNBHEBPJ@squeek?1sqk_hunt2?4wav?$AA@ DB 'squeek/sqk_hunt2.wav', 00H ; `string'
CONST	ENDS
;	COMDAT ??_C@_0BE@OOEABCJM@models?1p_squeak?4mdl?$AA@
CONST	SEGMENT
??_C@_0BE@OOEABCJM@models?1p_squeak?4mdl?$AA@ DB 'models/p_squeak.mdl', 00H ; `string'
CONST	ENDS
;	COMDAT ??_C@_0BE@EOKFMNEB@models?1v_squeak?4mdl?$AA@
CONST	SEGMENT
??_C@_0BE@EOKFMNEB@models?1v_squeak?4mdl?$AA@ DB 'models/v_squeak.mdl', 00H ; `string'
CONST	ENDS
;	COMDAT ??_C@_0BF@PPMGPFPJ@models?1w_sqknest?4mdl?$AA@
CONST	SEGMENT
??_C@_0BF@PPMGPFPJ@models?1w_sqknest?4mdl?$AA@ DB 'models/w_sqknest.mdl', 00H ; `string'
CONST	ENDS
;	COMDAT ??_C@_0CH@HELFJPDL@FUNCTION?5NOT?5IN?5TABLE?$CB?3?5?$CFs?3?$CFs?5?$CI?$CF@
CONST	SEGMENT
??_C@_0CH@HELFJPDL@FUNCTION?5NOT?5IN?5TABLE?$CB?3?5?$CFs?3?$CFs?5?$CI?$CF@ DB 'F'
	DB	'UNCTION NOT IN TABLE!: %s:%s (%08lx)', 0aH, 00H ; `string'
CONST	ENDS
; Function compile flags: /Odtp /ZI
; File d:\!diffusion 2020\source code 2022\client-server\server\weapons\weapon_snark.cpp
;	COMDAT ?WeaponIdle@CSqueak@@UAEXXZ
_TEXT	SEGMENT
tv221 = -80						; size = 4
_flRand$ = -12						; size = 4
_iAnim$ = -8						; size = 4
_this$ = -4						; size = 4
?WeaponIdle@CSqueak@@UAEXXZ PROC			; CSqueak::WeaponIdle, COMDAT
; _this$ = ecx

; 162  : {

	push	ebp
	mov	ebp, esp
	sub	esp, 80					; 00000050H
	push	ebx
	push	esi
	push	edi
	mov	DWORD PTR _this$[ebp], ecx

; 163  : 	if (m_flTimeWeaponIdle > gpGlobals->time)

	mov	eax, DWORD PTR _this$[ebp]
	mov	ecx, DWORD PTR ?gpGlobals@@3PAUglobalvars_t@@A ; gpGlobals
	movss	xmm0, DWORD PTR [eax+1892]
	comiss	xmm0, DWORD PTR [ecx]
	jbe	SHORT $LN2@WeaponIdle

; 164  : 		return;

	jmp	$LN1@WeaponIdle
$LN2@WeaponIdle:

; 165  : 
; 166  : 	if (m_fJustThrown)

	mov	eax, DWORD PTR _this$[ebp]
	cmp	DWORD PTR [eax+1924], 0
	je	$LN3@WeaponIdle

; 167  : 	{
; 168  : 		m_fJustThrown = 0;

	mov	eax, DWORD PTR _this$[ebp]
	mov	DWORD PTR [eax+1924], 0

; 169  : 
; 170  : 		if (!m_pPlayer->m_rgAmmo[PrimaryAmmoIndex()])

	mov	eax, DWORD PTR _this$[ebp]
	mov	esi, DWORD PTR [eax+1856]
	mov	ecx, DWORD PTR _this$[ebp]
	mov	edx, DWORD PTR [ecx]
	mov	ecx, DWORD PTR _this$[ebp]
	mov	eax, DWORD PTR [edx+432]
	call	eax
	cmp	DWORD PTR [esi+eax*4+3628], 0
	jne	SHORT $LN4@WeaponIdle

; 171  : 		{
; 172  : 			RetireWeapon();

	mov	eax, DWORD PTR _this$[ebp]
	mov	edx, DWORD PTR [eax]
	mov	ecx, DWORD PTR _this$[ebp]
	mov	eax, DWORD PTR [edx+496]
	call	eax

; 173  : 			return;

	jmp	$LN1@WeaponIdle
$LN4@WeaponIdle:

; 174  : 		}
; 175  : 
; 176  : 		SendWeaponAnim(SQUEAK_UP);

	push	0
	push	0
	push	4
	mov	eax, DWORD PTR _this$[ebp]
	mov	edx, DWORD PTR [eax]
	mov	ecx, DWORD PTR _this$[ebp]
	mov	eax, DWORD PTR [edx+472]
	call	eax

; 177  : 		m_flTimeWeaponIdle = gpGlobals->time + RANDOM_FLOAT(10, 15);

	push	ecx
	movss	xmm0, DWORD PTR __real@41700000
	movss	DWORD PTR [esp], xmm0
	push	ecx
	movss	xmm0, DWORD PTR __real@41200000
	movss	DWORD PTR [esp], xmm0
	call	DWORD PTR ?g_engfuncs@@3Uenginefuncs_s@@A+364
	add	esp, 8
	fstp	DWORD PTR tv221[ebp]
	mov	eax, DWORD PTR ?gpGlobals@@3PAUglobalvars_t@@A ; gpGlobals
	movss	xmm0, DWORD PTR tv221[ebp]
	addss	xmm0, DWORD PTR [eax]
	mov	ecx, DWORD PTR _this$[ebp]
	movss	DWORD PTR [ecx+1892], xmm0

; 178  : 		return;

	jmp	$LN1@WeaponIdle
$LN3@WeaponIdle:

; 179  : 	}
; 180  : 
; 181  : 	int iAnim;
; 182  : 	float flRand = RANDOM_FLOAT(0, 1);

	push	ecx
	movss	xmm0, DWORD PTR __real@3f800000
	movss	DWORD PTR [esp], xmm0
	push	ecx
	xorps	xmm0, xmm0
	movss	DWORD PTR [esp], xmm0
	call	DWORD PTR ?g_engfuncs@@3Uenginefuncs_s@@A+364
	add	esp, 8
	fstp	DWORD PTR _flRand$[ebp]

; 183  : 	if (flRand <= 0.75)

	cvtss2sd xmm0, DWORD PTR _flRand$[ebp]
	movsd	xmm1, QWORD PTR __real@3fe8000000000000
	comisd	xmm1, xmm0
	jb	SHORT $LN5@WeaponIdle

; 184  : 	{
; 185  : 		iAnim = SQUEAK_IDLE1;

	mov	DWORD PTR _iAnim$[ebp], 0

; 186  : 		m_flTimeWeaponIdle = gpGlobals->time + 30.0 / 16 * (2);

	mov	eax, DWORD PTR ?gpGlobals@@3PAUglobalvars_t@@A ; gpGlobals
	cvtss2sd xmm0, DWORD PTR [eax]
	addsd	xmm0, QWORD PTR __real@400e000000000000
	cvtsd2ss xmm0, xmm0
	mov	ecx, DWORD PTR _this$[ebp]
	movss	DWORD PTR [ecx+1892], xmm0
	jmp	SHORT $LN8@WeaponIdle
$LN5@WeaponIdle:

; 187  : 	}
; 188  : 	else if (flRand <= 0.875)

	cvtss2sd xmm0, DWORD PTR _flRand$[ebp]
	movsd	xmm1, QWORD PTR __real@3fec000000000000
	comisd	xmm1, xmm0
	jb	SHORT $LN7@WeaponIdle

; 189  : 	{
; 190  : 		iAnim = SQUEAK_FIDGETFIT;

	mov	DWORD PTR _iAnim$[ebp], 1

; 191  : 		m_flTimeWeaponIdle = gpGlobals->time + 70.0 / 16.0;

	mov	eax, DWORD PTR ?gpGlobals@@3PAUglobalvars_t@@A ; gpGlobals
	cvtss2sd xmm0, DWORD PTR [eax]
	addsd	xmm0, QWORD PTR __real@4011800000000000
	cvtsd2ss xmm0, xmm0
	mov	ecx, DWORD PTR _this$[ebp]
	movss	DWORD PTR [ecx+1892], xmm0

; 192  : 	}
; 193  : 	else

	jmp	SHORT $LN8@WeaponIdle
$LN7@WeaponIdle:

; 194  : 	{
; 195  : 		iAnim = SQUEAK_FIDGETNIP;

	mov	DWORD PTR _iAnim$[ebp], 2

; 196  : 		m_flTimeWeaponIdle = gpGlobals->time + 80.0 / 16.0;

	mov	eax, DWORD PTR ?gpGlobals@@3PAUglobalvars_t@@A ; gpGlobals
	cvtss2sd xmm0, DWORD PTR [eax]
	addsd	xmm0, QWORD PTR __real@4014000000000000
	cvtsd2ss xmm0, xmm0
	mov	ecx, DWORD PTR _this$[ebp]
	movss	DWORD PTR [ecx+1892], xmm0
$LN8@WeaponIdle:

; 197  : 	}
; 198  : 
; 199  : 	SendWeaponAnim(iAnim);

	push	0
	push	0
	mov	eax, DWORD PTR _iAnim$[ebp]
	push	eax
	mov	ecx, DWORD PTR _this$[ebp]
	mov	edx, DWORD PTR [ecx]
	mov	ecx, DWORD PTR _this$[ebp]
	mov	eax, DWORD PTR [edx+472]
	call	eax
$LN1@WeaponIdle:

; 200  : }

	pop	edi
	pop	esi
	pop	ebx
	mov	esp, ebp
	pop	ebp
	ret	0
?WeaponIdle@CSqueak@@UAEXXZ ENDP			; CSqueak::WeaponIdle
_TEXT	ENDS
; Function compile flags: /Odtp /ZI
; File d:\!diffusion 2020\source code 2022\client-server\server\weapons\weapon_snark.cpp
;	COMDAT ?Holster@CSqueak@@UAEXXZ
_TEXT	SEGMENT
_this$ = -4						; size = 4
?Holster@CSqueak@@UAEXXZ PROC				; CSqueak::Holster, COMDAT
; _this$ = ecx

; 98   : {

	push	ebp
	mov	ebp, esp
	sub	esp, 68					; 00000044H
	push	ebx
	push	esi
	push	edi
	mov	DWORD PTR _this$[ebp], ecx

; 99   : 	m_pPlayer->m_flNextAttack = gpGlobals->time + 0.5;

	mov	eax, DWORD PTR ?gpGlobals@@3PAUglobalvars_t@@A ; gpGlobals
	cvtss2sd xmm0, DWORD PTR [eax]
	addsd	xmm0, QWORD PTR __real@3fe0000000000000
	cvtsd2ss xmm0, xmm0
	mov	ecx, DWORD PTR _this$[ebp]
	mov	edx, DWORD PTR [ecx+1856]
	movss	DWORD PTR [edx+2348], xmm0

; 100  : 
; 101  : 	if (!m_pPlayer->m_rgAmmo[m_iPrimaryAmmoType])

	mov	eax, DWORD PTR _this$[ebp]
	mov	ecx, DWORD PTR [eax+1856]
	mov	edx, DWORD PTR _this$[ebp]
	mov	eax, DWORD PTR [edx+1896]
	cmp	DWORD PTR [ecx+eax*4+3628], 0
	jne	SHORT $LN2@Holster

; 102  : 	{
; 103  : 		m_pPlayer->RemoveWeapon(WEAPON_SNARK);

	push	15					; 0000000fH
	mov	eax, DWORD PTR _this$[ebp]
	mov	ecx, DWORD PTR [eax+1856]
	call	?RemoveWeapon@CBaseMonster@@QAEXH@Z	; CBaseMonster::RemoveWeapon

; 104  : 		SetThink(&CBasePlayerItem::DestroyItem);

	push	OFFSET ??_C@_0BO@FDPNENNO@?$CGCBasePlayerItem?3?3DestroyItem?$AA@
	push	OFFSET ?DestroyItem@CBasePlayerItem@@QAEXXZ ; CBasePlayerItem::DestroyItem
	mov	ecx, DWORD PTR _this$[ebp]
	call	?ThinkSet@CBaseEntity@@QAEP81@AEXXZP81@AEXXZPAD@Z ; CBaseEntity::ThinkSet

; 105  : 		pev->nextthink = gpGlobals->time + 0.1;

	mov	eax, DWORD PTR ?gpGlobals@@3PAUglobalvars_t@@A ; gpGlobals
	cvtss2sd xmm0, DWORD PTR [eax]
	addsd	xmm0, QWORD PTR __real@3fb999999999999a
	cvtsd2ss xmm0, xmm0
	mov	ecx, DWORD PTR _this$[ebp]
	mov	edx, DWORD PTR [ecx+4]
	movss	DWORD PTR [edx+260], xmm0

; 106  : 		return;

	jmp	SHORT $LN1@Holster
$LN2@Holster:

; 107  : 	}
; 108  : 
; 109  : 	SendWeaponAnim(SQUEAK_DOWN);

	push	0
	push	0
	push	3
	mov	eax, DWORD PTR _this$[ebp]
	mov	edx, DWORD PTR [eax]
	mov	ecx, DWORD PTR _this$[ebp]
	mov	eax, DWORD PTR [edx+472]
	call	eax

; 110  : 	EMIT_SOUND(ENT(m_pPlayer->pev), CHAN_WEAPON, "common/null.wav", 0, ATTN_NORM);

	push	ecx
	movss	xmm0, DWORD PTR __real@3f4ccccd
	movss	DWORD PTR [esp], xmm0
	push	ecx
	xorps	xmm0, xmm0
	movss	DWORD PTR [esp], xmm0
	push	OFFSET ??_C@_0BA@HKOJACLM@common?1null?4wav?$AA@
	push	1
	mov	eax, DWORD PTR _this$[ebp]
	mov	ecx, DWORD PTR [eax+1856]
	mov	edx, DWORD PTR [ecx+4]
	push	edx
	call	?ENT@@YAPAUedict_s@@PBUentvars_s@@@Z	; ENT
	add	esp, 4
	push	eax
	call	?EMIT_SOUND@@YAXPAUedict_s@@HPBDMM@Z	; EMIT_SOUND
	add	esp, 20					; 00000014H

; 111  : 
; 112  : 	BaseClass::Holster();

	mov	ecx, DWORD PTR _this$[ebp]
	call	?Holster@CBasePlayerWeapon@@UAEXXZ	; CBasePlayerWeapon::Holster
$LN1@Holster:

; 113  : }

	pop	edi
	pop	esi
	pop	ebx
	mov	esp, ebp
	pop	ebp
	ret	0
?Holster@CSqueak@@UAEXXZ ENDP				; CSqueak::Holster
_TEXT	ENDS
; Function compile flags: /Odtp /ZI
; File d:\!diffusion 2020\source code 2022\client-server\server\weapons\weapon_snark.cpp
;	COMDAT ?Deploy@CSqueak@@UAEHXZ
_TEXT	SEGMENT
_flRndSound$ = -8					; size = 4
_this$ = -4						; size = 4
?Deploy@CSqueak@@UAEHXZ PROC				; CSqueak::Deploy, COMDAT
; _this$ = ecx

; 82   : {

	push	ebp
	mov	ebp, esp
	sub	esp, 72					; 00000048H
	push	ebx
	push	esi
	push	edi
	mov	DWORD PTR _this$[ebp], ecx

; 83   : 	// play hunt sound
; 84   : 	float flRndSound = RANDOM_FLOAT(0, 1);

	push	ecx
	movss	xmm0, DWORD PTR __real@3f800000
	movss	DWORD PTR [esp], xmm0
	push	ecx
	xorps	xmm0, xmm0
	movss	DWORD PTR [esp], xmm0
	call	DWORD PTR ?g_engfuncs@@3Uenginefuncs_s@@A+364
	add	esp, 8
	fstp	DWORD PTR _flRndSound$[ebp]

; 85   : 
; 86   : 	if (flRndSound <= 0.5)

	cvtss2sd xmm0, DWORD PTR _flRndSound$[ebp]
	movsd	xmm1, QWORD PTR __real@3fe0000000000000
	comisd	xmm1, xmm0
	jb	SHORT $LN2@Deploy

; 87   : 		EMIT_SOUND_DYN(ENT(pev), CHAN_VOICE, "squeek/sqk_hunt2.wav", 1, ATTN_NORM, 0, 100);

	push	100					; 00000064H
	push	0
	push	ecx
	movss	xmm0, DWORD PTR __real@3f4ccccd
	movss	DWORD PTR [esp], xmm0
	push	ecx
	movss	xmm0, DWORD PTR __real@3f800000
	movss	DWORD PTR [esp], xmm0
	push	OFFSET ??_C@_0BF@CNBHEBPJ@squeek?1sqk_hunt2?4wav?$AA@
	push	2
	mov	eax, DWORD PTR _this$[ebp]
	mov	ecx, DWORD PTR [eax+4]
	push	ecx
	call	?ENT@@YAPAUedict_s@@PBUentvars_s@@@Z	; ENT
	add	esp, 4
	push	eax
	call	?EMIT_SOUND_DYN@@YAXPAUedict_s@@HPBDMMHH@Z ; EMIT_SOUND_DYN
	add	esp, 28					; 0000001cH

; 88   : 	else

	jmp	SHORT $LN3@Deploy
$LN2@Deploy:

; 89   : 		EMIT_SOUND_DYN(ENT(pev), CHAN_VOICE, "squeek/sqk_hunt3.wav", 1, ATTN_NORM, 0, 100);

	push	100					; 00000064H
	push	0
	push	ecx
	movss	xmm0, DWORD PTR __real@3f4ccccd
	movss	DWORD PTR [esp], xmm0
	push	ecx
	movss	xmm0, DWORD PTR __real@3f800000
	movss	DWORD PTR [esp], xmm0
	push	OFFSET ??_C@_0BF@OGELJCFM@squeek?1sqk_hunt3?4wav?$AA@
	push	2
	mov	eax, DWORD PTR _this$[ebp]
	mov	ecx, DWORD PTR [eax+4]
	push	ecx
	call	?ENT@@YAPAUedict_s@@PBUentvars_s@@@Z	; ENT
	add	esp, 4
	push	eax
	call	?EMIT_SOUND_DYN@@YAXPAUedict_s@@HPBDMMHH@Z ; EMIT_SOUND_DYN
	add	esp, 28					; 0000001cH
$LN3@Deploy:

; 90   : 
; 91   : 	m_pPlayer->m_iWeaponVolume = QUIET_GUN_VOLUME;

	mov	eax, DWORD PTR _this$[ebp]
	mov	ecx, DWORD PTR [eax+1856]
	mov	DWORD PTR [ecx+2504], 200		; 000000c8H

; 92   : 	m_flTimeWeaponIdle = gpGlobals->time + 5.0;

	mov	eax, DWORD PTR ?gpGlobals@@3PAUglobalvars_t@@A ; gpGlobals
	cvtss2sd xmm0, DWORD PTR [eax]
	addsd	xmm0, QWORD PTR __real@4014000000000000
	cvtsd2ss xmm0, xmm0
	mov	ecx, DWORD PTR _this$[ebp]
	movss	DWORD PTR [ecx+1892], xmm0

; 93   : 
; 94   : 	return DefaultDeploy("models/v_squeak.mdl", "models/p_squeak.mdl", SQUEAK_UP, "squeak");

	push	0
	push	0
	push	OFFSET ??_C@_06INLLEPKG@squeak?$AA@
	push	4
	push	OFFSET ??_C@_0BE@OOEABCJM@models?1p_squeak?4mdl?$AA@
	push	OFFSET ??_C@_0BE@EOKFMNEB@models?1v_squeak?4mdl?$AA@
	mov	ecx, DWORD PTR _this$[ebp]
	call	?DefaultDeploy@CBasePlayerWeapon@@QAEHPAD0H0HH@Z ; CBasePlayerWeapon::DefaultDeploy

; 95   : }

	pop	edi
	pop	esi
	pop	ebx
	mov	esp, ebp
	pop	ebp
	ret	0
?Deploy@CSqueak@@UAEHXZ ENDP				; CSqueak::Deploy
_TEXT	ENDS
; Function compile flags: /Odtp /ZI
; File d:\!diffusion 2020\source code 2022\client-server\server\weapons\weapon_snark.cpp
;	COMDAT ?PrimaryAttack@CSqueak@@UAEXXZ
_TEXT	SEGMENT
$T1 = -228						; size = 12
$T2 = -216						; size = 12
$T3 = -204						; size = 12
$T4 = -192						; size = 12
$T5 = -180						; size = 12
$T6 = -168						; size = 12
$T7 = -156						; size = 12
_flRndSound$8 = -80					; size = 4
_vecGround$9 = -76					; size = 12
_pSqueak$10 = -64					; size = 4
_tr$11 = -60						; size = 56
_this$ = -4						; size = 4
?PrimaryAttack@CSqueak@@UAEXXZ PROC			; CSqueak::PrimaryAttack, COMDAT
; _this$ = ecx

; 116  : {

	push	ebp
	mov	ebp, esp
	sub	esp, 228				; 000000e4H
	push	ebx
	push	esi
	push	edi
	mov	DWORD PTR _this$[ebp], ecx

; 117  : 	if (m_pPlayer->m_rgAmmo[m_iPrimaryAmmoType])

	mov	eax, DWORD PTR _this$[ebp]
	mov	ecx, DWORD PTR [eax+1856]
	mov	edx, DWORD PTR _this$[ebp]
	mov	eax, DWORD PTR [edx+1896]
	cmp	DWORD PTR [ecx+eax*4+3628], 0
	je	$LN3@PrimaryAtt

; 118  : 	{
; 119  : 		UTIL_MakeVectors(m_pPlayer->pev->v_angle);

	mov	eax, DWORD PTR _this$[ebp]
	mov	ecx, DWORD PTR [eax+1856]
	mov	edx, DWORD PTR [ecx+4]
	add	edx, 116				; 00000074H
	push	edx
	call	?UTIL_MakeVectors@@YAXABVVector@@@Z	; UTIL_MakeVectors
	add	esp, 4

; 120  : 		TraceResult tr;

	lea	ecx, DWORD PTR _tr$11[ebp]
	call	??0gametrace_s@@QAE@XZ

; 121  : 
; 122  : 		// find place to toss monster
; 123  : 		UTIL_TraceLine(m_pPlayer->GetAbsOrigin() + gpGlobals->v_forward * 20, m_pPlayer->GetAbsOrigin() + gpGlobals->v_forward * 64, dont_ignore_monsters, NULL, &tr);

	lea	eax, DWORD PTR _tr$11[ebp]
	push	eax
	push	0
	push	0
	push	ecx
	movss	xmm0, DWORD PTR __real@42800000
	movss	DWORD PTR [esp], xmm0
	lea	ecx, DWORD PTR $T7[ebp]
	push	ecx
	mov	ecx, DWORD PTR ?gpGlobals@@3PAUglobalvars_t@@A ; gpGlobals
	add	ecx, 40					; 00000028H
	call	??DVector@@QBE?AV0@M@Z			; Vector::operator*
	push	eax
	lea	edx, DWORD PTR $T6[ebp]
	push	edx
	mov	eax, DWORD PTR _this$[ebp]
	mov	ecx, DWORD PTR [eax+1856]
	call	?GetAbsOrigin@CBaseEntity@@QBEABVVector@@XZ ; CBaseEntity::GetAbsOrigin
	mov	ecx, eax
	call	??HVector@@QBE?AV0@ABV0@@Z		; Vector::operator+
	push	eax
	push	ecx
	movss	xmm0, DWORD PTR __real@41a00000
	movss	DWORD PTR [esp], xmm0
	lea	ecx, DWORD PTR $T5[ebp]
	push	ecx
	mov	ecx, DWORD PTR ?gpGlobals@@3PAUglobalvars_t@@A ; gpGlobals
	add	ecx, 40					; 00000028H
	call	??DVector@@QBE?AV0@M@Z			; Vector::operator*
	push	eax
	lea	edx, DWORD PTR $T4[ebp]
	push	edx
	mov	eax, DWORD PTR _this$[ebp]
	mov	ecx, DWORD PTR [eax+1856]
	call	?GetAbsOrigin@CBaseEntity@@QBEABVVector@@XZ ; CBaseEntity::GetAbsOrigin
	mov	ecx, eax
	call	??HVector@@QBE?AV0@ABV0@@Z		; Vector::operator+
	push	eax
	call	?UTIL_TraceLine@@YAXABVVector@@0W4IGNORE_MONSTERS@@PAUedict_s@@PAUgametrace_s@@@Z ; UTIL_TraceLine
	add	esp, 20					; 00000014H

; 124  : 
; 125  : 		if (tr.fAllSolid == 0 && tr.fStartSolid == 0 && tr.flFraction > 0.25)

	cmp	DWORD PTR _tr$11[ebp], 0
	jne	$LN3@PrimaryAtt
	cmp	DWORD PTR _tr$11[ebp+4], 0
	jne	$LN3@PrimaryAtt
	cvtss2sd xmm0, DWORD PTR _tr$11[ebp+16]
	comisd	xmm0, QWORD PTR __real@3fd0000000000000
	jbe	$LN3@PrimaryAtt

; 126  : 		{
; 127  : 			SendWeaponAnim(SQUEAK_THROW);

	push	0
	push	0
	push	5
	mov	eax, DWORD PTR _this$[ebp]
	mov	edx, DWORD PTR [eax]
	mov	ecx, DWORD PTR _this$[ebp]
	mov	eax, DWORD PTR [edx+472]
	call	eax

; 128  : 
; 129  : 			// player "shoot" animation
; 130  : 			m_pPlayer->SetAnimation(PLAYER_ATTACK1);

	push	5
	mov	eax, DWORD PTR _this$[ebp]
	mov	ecx, DWORD PTR [eax+1856]
	call	?SetAnimation@CBasePlayer@@QAEXW4PLAYER_ANIM@@@Z ; CBasePlayer::SetAnimation

; 131  : 
; 132  : 			CBaseEntity* pSqueak = CBaseEntity::Create("monster_snark", tr.vecEndPos, m_pPlayer->pev->v_angle, m_pPlayer->edict());

	mov	eax, DWORD PTR _this$[ebp]
	mov	ecx, DWORD PTR [eax+1856]
	call	?edict@CBaseEntity@@QAEPAUedict_s@@XZ	; CBaseEntity::edict
	push	eax
	mov	ecx, DWORD PTR _this$[ebp]
	mov	edx, DWORD PTR [ecx+1856]
	mov	eax, DWORD PTR [edx+4]
	add	eax, 116				; 00000074H
	push	eax
	lea	ecx, DWORD PTR _tr$11[ebp+20]
	push	ecx
	push	OFFSET ??_C@_0O@LBKPDLAI@monster_snark?$AA@
	call	?Create@CBaseEntity@@SAPAV1@PADABVVector@@1PAUedict_s@@@Z ; CBaseEntity::Create
	add	esp, 16					; 00000010H
	mov	DWORD PTR _pSqueak$10[ebp], eax

; 133  : 			Vector vecGround;

	lea	ecx, DWORD PTR _vecGround$9[ebp]
	call	??0Vector@@QAE@XZ			; Vector::Vector

; 134  : 
; 135  : 			if (m_pPlayer->GetGroundEntity())

	mov	eax, DWORD PTR _this$[ebp]
	mov	ecx, DWORD PTR [eax+1856]
	call	?GetGroundEntity@CBaseEntity@@QAEPAV1@XZ ; CBaseEntity::GetGroundEntity
	test	eax, eax
	je	SHORT $LN4@PrimaryAtt

; 136  : 				vecGround = m_pPlayer->GetGroundEntity()->GetAbsVelocity();

	mov	eax, DWORD PTR _this$[ebp]
	mov	ecx, DWORD PTR [eax+1856]
	call	?GetGroundEntity@CBaseEntity@@QAEPAV1@XZ ; CBaseEntity::GetGroundEntity
	mov	ecx, eax
	call	?GetAbsVelocity@CBaseEntity@@QBEABVVector@@XZ ; CBaseEntity::GetAbsVelocity
	mov	ecx, DWORD PTR [eax]
	mov	DWORD PTR _vecGround$9[ebp], ecx
	mov	edx, DWORD PTR [eax+4]
	mov	DWORD PTR _vecGround$9[ebp+4], edx
	mov	eax, DWORD PTR [eax+8]
	mov	DWORD PTR _vecGround$9[ebp+8], eax
	jmp	SHORT $LN5@PrimaryAtt
$LN4@PrimaryAtt:

; 137  : 			else vecGround = g_vecZero;

	mov	eax, DWORD PTR ?g_vecZero@@3VVector@@B
	mov	DWORD PTR _vecGround$9[ebp], eax
	mov	ecx, DWORD PTR ?g_vecZero@@3VVector@@B+4
	mov	DWORD PTR _vecGround$9[ebp+4], ecx
	mov	edx, DWORD PTR ?g_vecZero@@3VVector@@B+8
	mov	DWORD PTR _vecGround$9[ebp+8], edx
$LN5@PrimaryAtt:

; 138  : 
; 139  : 			pSqueak->SetAbsVelocity(gpGlobals->v_forward * 200 + m_pPlayer->GetAbsVelocity() + vecGround);

	lea	eax, DWORD PTR _vecGround$9[ebp]
	push	eax
	lea	ecx, DWORD PTR $T1[ebp]
	push	ecx
	mov	edx, DWORD PTR _this$[ebp]
	mov	ecx, DWORD PTR [edx+1856]
	call	?GetAbsVelocity@CBaseEntity@@QBEABVVector@@XZ ; CBaseEntity::GetAbsVelocity
	push	eax
	lea	eax, DWORD PTR $T2[ebp]
	push	eax
	push	ecx
	movss	xmm0, DWORD PTR __real@43480000
	movss	DWORD PTR [esp], xmm0
	lea	ecx, DWORD PTR $T3[ebp]
	push	ecx
	mov	ecx, DWORD PTR ?gpGlobals@@3PAUglobalvars_t@@A ; gpGlobals
	add	ecx, 40					; 00000028H
	call	??DVector@@QBE?AV0@M@Z			; Vector::operator*
	mov	ecx, eax
	call	??HVector@@QBE?AV0@ABV0@@Z		; Vector::operator+
	mov	ecx, eax
	call	??HVector@@QBE?AV0@ABV0@@Z		; Vector::operator+
	push	eax
	mov	ecx, DWORD PTR _pSqueak$10[ebp]
	call	?SetAbsVelocity@CBaseEntity@@QAEXABVVector@@@Z ; CBaseEntity::SetAbsVelocity

; 140  : 
; 141  : 			// play hunt sound
; 142  : 			float flRndSound = RANDOM_FLOAT(0, 1);

	push	ecx
	movss	xmm0, DWORD PTR __real@3f800000
	movss	DWORD PTR [esp], xmm0
	push	ecx
	xorps	xmm0, xmm0
	movss	DWORD PTR [esp], xmm0
	call	DWORD PTR ?g_engfuncs@@3Uenginefuncs_s@@A+364
	add	esp, 8
	fstp	DWORD PTR _flRndSound$8[ebp]

; 143  : 
; 144  : 			if (flRndSound <= 0.5)

	cvtss2sd xmm0, DWORD PTR _flRndSound$8[ebp]
	movsd	xmm1, QWORD PTR __real@3fe0000000000000
	comisd	xmm1, xmm0
	jb	SHORT $LN6@PrimaryAtt

; 145  : 				EMIT_SOUND_DYN(ENT(pev), CHAN_VOICE, "squeek/sqk_hunt2.wav", 1, ATTN_NORM, 0, 105);

	push	105					; 00000069H
	push	0
	push	ecx
	movss	xmm0, DWORD PTR __real@3f4ccccd
	movss	DWORD PTR [esp], xmm0
	push	ecx
	movss	xmm0, DWORD PTR __real@3f800000
	movss	DWORD PTR [esp], xmm0
	push	OFFSET ??_C@_0BF@CNBHEBPJ@squeek?1sqk_hunt2?4wav?$AA@
	push	2
	mov	eax, DWORD PTR _this$[ebp]
	mov	ecx, DWORD PTR [eax+4]
	push	ecx
	call	?ENT@@YAPAUedict_s@@PBUentvars_s@@@Z	; ENT
	add	esp, 4
	push	eax
	call	?EMIT_SOUND_DYN@@YAXPAUedict_s@@HPBDMMHH@Z ; EMIT_SOUND_DYN
	add	esp, 28					; 0000001cH

; 146  : 			else

	jmp	SHORT $LN7@PrimaryAtt
$LN6@PrimaryAtt:

; 147  : 				EMIT_SOUND_DYN(ENT(pev), CHAN_VOICE, "squeek/sqk_hunt3.wav", 1, ATTN_NORM, 0, 105);

	push	105					; 00000069H
	push	0
	push	ecx
	movss	xmm0, DWORD PTR __real@3f4ccccd
	movss	DWORD PTR [esp], xmm0
	push	ecx
	movss	xmm0, DWORD PTR __real@3f800000
	movss	DWORD PTR [esp], xmm0
	push	OFFSET ??_C@_0BF@OGELJCFM@squeek?1sqk_hunt3?4wav?$AA@
	push	2
	mov	eax, DWORD PTR _this$[ebp]
	mov	ecx, DWORD PTR [eax+4]
	push	ecx
	call	?ENT@@YAPAUedict_s@@PBUentvars_s@@@Z	; ENT
	add	esp, 4
	push	eax
	call	?EMIT_SOUND_DYN@@YAXPAUedict_s@@HPBDMMHH@Z ; EMIT_SOUND_DYN
	add	esp, 28					; 0000001cH
$LN7@PrimaryAtt:

; 148  : 
; 149  : 			m_pPlayer->m_iWeaponVolume = QUIET_GUN_VOLUME;

	mov	eax, DWORD PTR _this$[ebp]
	mov	ecx, DWORD PTR [eax+1856]
	mov	DWORD PTR [ecx+2504], 200		; 000000c8H

; 150  : 
; 151  : 			m_pPlayer->m_rgAmmo[m_iPrimaryAmmoType]--;

	mov	eax, DWORD PTR _this$[ebp]
	mov	ecx, DWORD PTR [eax+1896]
	mov	edx, DWORD PTR _this$[ebp]
	mov	eax, DWORD PTR [edx+1856]
	mov	ecx, DWORD PTR [eax+ecx*4+3628]
	sub	ecx, 1
	mov	edx, DWORD PTR _this$[ebp]
	mov	eax, DWORD PTR [edx+1896]
	mov	edx, DWORD PTR _this$[ebp]
	mov	edx, DWORD PTR [edx+1856]
	mov	DWORD PTR [edx+eax*4+3628], ecx

; 152  : 
; 153  : 			m_fJustThrown = 1;

	mov	eax, DWORD PTR _this$[ebp]
	mov	DWORD PTR [eax+1924], 1

; 154  : 
; 155  : 			m_flNextPrimaryAttack = gpGlobals->time + 0.3;

	mov	eax, DWORD PTR ?gpGlobals@@3PAUglobalvars_t@@A ; gpGlobals
	cvtss2sd xmm0, DWORD PTR [eax]
	addsd	xmm0, QWORD PTR __real@3fd3333333333333
	cvtsd2ss xmm0, xmm0
	mov	ecx, DWORD PTR _this$[ebp]
	movss	DWORD PTR [ecx+1884], xmm0

; 156  : 			m_flTimeWeaponIdle = gpGlobals->time + 1.0;

	mov	eax, DWORD PTR ?gpGlobals@@3PAUglobalvars_t@@A ; gpGlobals
	cvtss2sd xmm0, DWORD PTR [eax]
	addsd	xmm0, QWORD PTR __real@3ff0000000000000
	cvtsd2ss xmm0, xmm0
	mov	ecx, DWORD PTR _this$[ebp]
	movss	DWORD PTR [ecx+1892], xmm0
$LN3@PrimaryAtt:

; 157  : 		}
; 158  : 	}
; 159  : }

	pop	edi
	pop	esi
	pop	ebx
	mov	esp, ebp
	pop	ebp
	ret	0
?PrimaryAttack@CSqueak@@UAEXXZ ENDP			; CSqueak::PrimaryAttack
_TEXT	ENDS
; Function compile flags: /Odtp /ZI
; File d:\!diffusion 2020\source code 2022\client-server\server\weapons\weapon_snark.cpp
;	COMDAT ?GetItemInfo@CSqueak@@UAEHPAUItemInfo@@@Z
_TEXT	SEGMENT
_this$ = -4						; size = 4
_p$ = 8							; size = 4
?GetItemInfo@CSqueak@@UAEHPAUItemInfo@@@Z PROC		; CSqueak::GetItemInfo, COMDAT
; _this$ = ecx

; 65   : {

	push	ebp
	mov	ebp, esp
	sub	esp, 68					; 00000044H
	push	ebx
	push	esi
	push	edi
	mov	DWORD PTR _this$[ebp], ecx

; 66   : 	p->pszName = STRING(pev->classname);

	mov	eax, DWORD PTR _this$[ebp]
	mov	ecx, DWORD PTR [eax+4]
	mov	edx, DWORD PTR [ecx]
	push	edx
	call	DWORD PTR ?g_engfuncs@@3Uenginefuncs_s@@A+264
	add	esp, 4
	mov	ecx, DWORD PTR _p$[ebp]
	mov	DWORD PTR [ecx+24], eax

; 67   : 	p->pszAmmo1 = "Snarks";

	mov	eax, DWORD PTR _p$[ebp]
	mov	DWORD PTR [eax+8], OFFSET ??_C@_06GHKEIFJP@Snarks?$AA@

; 68   : 	p->iMaxAmmo1 = SNARK_MAX_CARRY;

	mov	eax, DWORD PTR _p$[ebp]
	mov	DWORD PTR [eax+12], 15			; 0000000fH

; 69   : 	p->pszAmmo2 = NULL;

	mov	eax, DWORD PTR _p$[ebp]
	mov	DWORD PTR [eax+16], 0

; 70   : 	p->iMaxAmmo2 = -1;

	mov	eax, DWORD PTR _p$[ebp]
	mov	DWORD PTR [eax+20], -1

; 71   : 	p->iMaxClip = WEAPON_NOCLIP;

	mov	eax, DWORD PTR _p$[ebp]
	mov	DWORD PTR [eax+28], -1

; 72   : 	p->iSlot = 4;

	mov	eax, DWORD PTR _p$[ebp]
	mov	DWORD PTR [eax], 4

; 73   : 	p->iPosition = 3;

	mov	eax, DWORD PTR _p$[ebp]
	mov	DWORD PTR [eax+4], 3

; 74   : 	p->iId = m_iId = WEAPON_SNARK;

	mov	eax, DWORD PTR _this$[ebp]
	mov	DWORD PTR [eax+1864], 15		; 0000000fH
	mov	ecx, DWORD PTR _p$[ebp]
	mov	DWORD PTR [ecx+32], 15			; 0000000fH

; 75   : 	p->iWeight = SNARK_WEIGHT;

	mov	eax, DWORD PTR _p$[ebp]
	mov	DWORD PTR [eax+40], 5

; 76   : 	p->iFlags = ITEM_FLAG_LIMITINWORLD | ITEM_FLAG_EXHAUSTIBLE;

	mov	eax, DWORD PTR _p$[ebp]
	mov	DWORD PTR [eax+36], 24			; 00000018H

; 77   : 
; 78   : 	return 1;

	mov	eax, 1

; 79   : }

	pop	edi
	pop	esi
	pop	ebx
	mov	esp, ebp
	pop	ebp
	ret	4
?GetItemInfo@CSqueak@@UAEHPAUItemInfo@@@Z ENDP		; CSqueak::GetItemInfo
_TEXT	ENDS
; Function compile flags: /Odtp /ZI
; File d:\!diffusion 2020\source code 2022\client-server\server\weapons\weapon_snark.cpp
;	COMDAT ?Precache@CSqueak@@UAEXXZ
_TEXT	SEGMENT
_this$ = -4						; size = 4
?Precache@CSqueak@@UAEXXZ PROC				; CSqueak::Precache, COMDAT
; _this$ = ecx

; 55   : {

	push	ebp
	mov	ebp, esp
	sub	esp, 68					; 00000044H
	push	ebx
	push	esi
	push	edi
	mov	DWORD PTR _this$[ebp], ecx

; 56   : 	PRECACHE_MODEL("models/w_sqknest.mdl");

	push	OFFSET ??_C@_0BF@PPMGPFPJ@models?1w_sqknest?4mdl?$AA@
	call	DWORD PTR ?g_engfuncs@@3Uenginefuncs_s@@A
	add	esp, 4

; 57   : 	PRECACHE_MODEL("models/v_squeak.mdl");

	push	OFFSET ??_C@_0BE@EOKFMNEB@models?1v_squeak?4mdl?$AA@
	call	DWORD PTR ?g_engfuncs@@3Uenginefuncs_s@@A
	add	esp, 4

; 58   : 	PRECACHE_MODEL("models/p_squeak.mdl");

	push	OFFSET ??_C@_0BE@OOEABCJM@models?1p_squeak?4mdl?$AA@
	call	DWORD PTR ?g_engfuncs@@3Uenginefuncs_s@@A
	add	esp, 4

; 59   : 	PRECACHE_SOUND("squeek/sqk_hunt2.wav");

	push	OFFSET ??_C@_0BF@CNBHEBPJ@squeek?1sqk_hunt2?4wav?$AA@
	call	DWORD PTR ?g_engfuncs@@3Uenginefuncs_s@@A+4
	add	esp, 4

; 60   : 	PRECACHE_SOUND("squeek/sqk_hunt3.wav");

	push	OFFSET ??_C@_0BF@OGELJCFM@squeek?1sqk_hunt3?4wav?$AA@
	call	DWORD PTR ?g_engfuncs@@3Uenginefuncs_s@@A+4
	add	esp, 4

; 61   : 	UTIL_PrecacheOther("monster_snark");

	push	OFFSET ??_C@_0O@LBKPDLAI@monster_snark?$AA@
	call	?UTIL_PrecacheOther@@YAXPBD@Z		; UTIL_PrecacheOther
	add	esp, 4

; 62   : }

	pop	edi
	pop	esi
	pop	ebx
	mov	esp, ebp
	pop	ebp
	ret	0
?Precache@CSqueak@@UAEXXZ ENDP				; CSqueak::Precache
_TEXT	ENDS
; Function compile flags: /Odtp /ZI
; File d:\!diffusion 2020\source code 2022\client-server\server\weapons\weapon_snark.cpp
;	COMDAT ?Spawn@CSqueak@@UAEXXZ
_TEXT	SEGMENT
_this$ = -4						; size = 4
?Spawn@CSqueak@@UAEXXZ PROC				; CSqueak::Spawn, COMDAT
; _this$ = ecx

; 40   : {

	push	ebp
	mov	ebp, esp
	sub	esp, 68					; 00000044H
	push	ebx
	push	esi
	push	edi
	mov	DWORD PTR _this$[ebp], ecx

; 41   : 	Precache();

	mov	eax, DWORD PTR _this$[ebp]
	mov	edx, DWORD PTR [eax]
	mov	ecx, DWORD PTR _this$[ebp]
	mov	eax, DWORD PTR [edx+8]
	call	eax

; 42   : 	m_iId = WEAPON_SNARK;

	mov	eax, DWORD PTR _this$[ebp]
	mov	DWORD PTR [eax+1864], 15		; 0000000fH

; 43   : 	SET_MODEL(ENT(pev), "models/w_sqknest.mdl");

	push	OFFSET ??_C@_0BF@PPMGPFPJ@models?1w_sqknest?4mdl?$AA@
	mov	eax, DWORD PTR _this$[ebp]
	mov	ecx, DWORD PTR [eax+4]
	push	ecx
	call	?ENT@@YAPAUedict_s@@PBUentvars_s@@@Z	; ENT
	add	esp, 4
	push	eax
	call	DWORD PTR ?g_engfuncs@@3Uenginefuncs_s@@A+8
	add	esp, 8

; 44   : 
; 45   : 	FallInit();//get ready to fall down.

	mov	ecx, DWORD PTR _this$[ebp]
	call	?FallInit@CBasePlayerItem@@QAEXXZ	; CBasePlayerItem::FallInit

; 46   : 
; 47   : 	m_iDefaultAmmo = SNARK_DEFAULT_GIVE;

	mov	eax, DWORD PTR _this$[ebp]
	mov	DWORD PTR [eax+1920], 5

; 48   : 
; 49   : 	pev->sequence = 1;

	mov	eax, DWORD PTR _this$[ebp]
	mov	ecx, DWORD PTR [eax+4]
	mov	DWORD PTR [ecx+296], 1

; 50   : 	pev->animtime = gpGlobals->time;

	mov	eax, DWORD PTR _this$[ebp]
	mov	ecx, DWORD PTR [eax+4]
	mov	edx, DWORD PTR ?gpGlobals@@3PAUglobalvars_t@@A ; gpGlobals
	mov	eax, DWORD PTR [edx]
	mov	DWORD PTR [ecx+308], eax

; 51   : 	pev->framerate = 1.0;

	mov	eax, DWORD PTR _this$[ebp]
	mov	ecx, DWORD PTR [eax+4]
	movss	xmm0, DWORD PTR __real@3f800000
	movss	DWORD PTR [ecx+312], xmm0

; 52   : }

	pop	edi
	pop	esi
	pop	ebx
	mov	esp, ebp
	pop	ebp
	ret	0
?Spawn@CSqueak@@UAEXXZ ENDP				; CSqueak::Spawn
_TEXT	ENDS
; Function compile flags: /Odtp /ZI
; File d:\!diffusion 2020\source code 2022\client-server\server\monsters\basemonster.h
;	COMDAT ?RemoveWeapon@CBaseMonster@@QAEXH@Z
_TEXT	SEGMENT
_this$ = -4						; size = 4
_weaponnum$ = 8						; size = 4
?RemoveWeapon@CBaseMonster@@QAEXH@Z PROC		; CBaseMonster::RemoveWeapon, COMDAT
; _this$ = ecx

; 157  : 	void		RemoveWeapon( int weaponnum ) { ClearBits( m_iWeapons[weaponnum >> 3], BIT( weaponnum & 7 )); }

	push	ebp
	mov	ebp, esp
	sub	esp, 68					; 00000044H
	push	ebx
	push	esi
	push	edi
	mov	DWORD PTR _this$[ebp], ecx
	mov	eax, DWORD PTR _weaponnum$[ebp]
	sar	eax, 3
	mov	ecx, DWORD PTR _this$[ebp]
	movzx	edx, BYTE PTR [ecx+eax+2397]
	mov	ecx, DWORD PTR _weaponnum$[ebp]
	and	ecx, 7
	mov	eax, 1
	shl	eax, cl
	not	eax
	and	edx, eax
	mov	ecx, DWORD PTR _weaponnum$[ebp]
	sar	ecx, 3
	mov	eax, DWORD PTR _this$[ebp]
	mov	BYTE PTR [eax+ecx+2397], dl
	pop	edi
	pop	esi
	pop	ebx
	mov	esp, ebp
	pop	ebp
	ret	4
?RemoveWeapon@CBaseMonster@@QAEXH@Z ENDP		; CBaseMonster::RemoveWeapon
_TEXT	ENDS
; Function compile flags: /Odtp /ZI
; File d:\!diffusion 2020\source code 2022\client-server\server\cbase.h
;	COMDAT ?edict@CBaseEntity@@QAEPAUedict_s@@XZ
_TEXT	SEGMENT
_this$ = -4						; size = 4
?edict@CBaseEntity@@QAEPAUedict_s@@XZ PROC		; CBaseEntity::edict, COMDAT
; _this$ = ecx

; 741  : 	edict_t *edict() { return ENT( pev ); };

	push	ebp
	mov	ebp, esp
	sub	esp, 68					; 00000044H
	push	ebx
	push	esi
	push	edi
	mov	DWORD PTR _this$[ebp], ecx
	mov	eax, DWORD PTR _this$[ebp]
	mov	ecx, DWORD PTR [eax+4]
	push	ecx
	call	?ENT@@YAPAUedict_s@@PBUentvars_s@@@Z	; ENT
	add	esp, 4
	pop	edi
	pop	esi
	pop	ebx
	mov	esp, ebp
	pop	ebp
	ret	0
?edict@CBaseEntity@@QAEPAUedict_s@@XZ ENDP		; CBaseEntity::edict
_TEXT	ENDS
; Function compile flags: /Odtp /ZI
; File d:\!diffusion 2020\source code 2022\client-server\server\cbase.h
;	COMDAT ?GetGroundEntity@CBaseEntity@@QAEPAV1@XZ
_TEXT	SEGMENT
_this$ = -4						; size = 4
?GetGroundEntity@CBaseEntity@@QAEPAV1@XZ PROC		; CBaseEntity::GetGroundEntity, COMDAT
; _this$ = ecx

; 630  : 	CBaseEntity *GetGroundEntity( void ) { return Instance( pev->groundentity ); }

	push	ebp
	mov	ebp, esp
	sub	esp, 68					; 00000044H
	push	ebx
	push	esi
	push	edi
	mov	DWORD PTR _this$[ebp], ecx
	mov	eax, DWORD PTR _this$[ebp]
	mov	ecx, DWORD PTR [eax+4]
	mov	edx, DWORD PTR [ecx+412]
	push	edx
	call	?Instance@CBaseEntity@@SAPAV1@PAUedict_s@@@Z ; CBaseEntity::Instance
	add	esp, 4
	pop	edi
	pop	esi
	pop	ebx
	mov	esp, ebp
	pop	ebp
	ret	0
?GetGroundEntity@CBaseEntity@@QAEPAV1@XZ ENDP		; CBaseEntity::GetGroundEntity
_TEXT	ENDS
; Function compile flags: /Odtp /ZI
; File d:\!diffusion 2020\source code 2022\client-server\server\cbase.h
;	COMDAT ?ThinkSet@CBaseEntity@@QAEP81@AEXXZP81@AEXXZPAD@Z
_TEXT	SEGMENT
_this$ = -4						; size = 4
_func$ = 8						; size = 4
_name$ = 12						; size = 4
?ThinkSet@CBaseEntity@@QAEP81@AEXXZP81@AEXXZPAD@Z PROC	; CBaseEntity::ThinkSet, COMDAT
; _this$ = ecx

; 591  : 	{ 

	push	ebp
	mov	ebp, esp
	sub	esp, 68					; 00000044H
	push	ebx
	push	esi
	push	edi
	mov	DWORD PTR _this$[ebp], ecx

; 592  : 		m_pfnThink = func; 

	mov	eax, DWORD PTR _this$[ebp]
	mov	ecx, DWORD PTR _func$[ebp]
	mov	DWORD PTR [eax+1756], ecx

; 593  : 		FunctionCheck( *(reinterpret_cast<void **>(&m_pfnThink)), name ); 

	mov	eax, DWORD PTR _name$[ebp]
	push	eax
	mov	ecx, DWORD PTR _this$[ebp]
	mov	edx, DWORD PTR [ecx+1756]
	push	edx
	mov	ecx, DWORD PTR _this$[ebp]
	call	?FunctionCheck@CBaseEntity@@QAEXPAXPAD@Z ; CBaseEntity::FunctionCheck

; 594  : 		return func;

	mov	eax, DWORD PTR _func$[ebp]

; 595  : 	}

	pop	edi
	pop	esi
	pop	ebx
	mov	esp, ebp
	pop	ebp
	ret	8
?ThinkSet@CBaseEntity@@QAEP81@AEXXZP81@AEXXZPAD@Z ENDP	; CBaseEntity::ThinkSet
_TEXT	ENDS
; Function compile flags: /Odtp /ZI
; File d:\!diffusion 2020\source code 2022\client-server\server\cbase.h
;	COMDAT ?FunctionCheck@CBaseEntity@@QAEXPAXPAD@Z
_TEXT	SEGMENT
_this$ = -4						; size = 4
_pFunction$ = 8						; size = 4
_name$ = 12						; size = 4
?FunctionCheck@CBaseEntity@@QAEXPAXPAD@Z PROC		; CBaseEntity::FunctionCheck, COMDAT
; _this$ = ecx

; 585  : 	{ 

	push	ebp
	mov	ebp, esp
	sub	esp, 68					; 00000044H
	push	ebx
	push	esi
	push	edi
	mov	DWORD PTR _this$[ebp], ecx

; 586  : 		if (pFunction && !UTIL_FunctionToName( GetDataDescMap(), pFunction ) )

	cmp	DWORD PTR _pFunction$[ebp], 0
	je	SHORT $LN1@FunctionCh
	mov	eax, DWORD PTR _pFunction$[ebp]
	push	eax
	mov	ecx, DWORD PTR _this$[ebp]
	mov	edx, DWORD PTR [ecx]
	mov	ecx, DWORD PTR _this$[ebp]
	mov	eax, DWORD PTR [edx]
	call	eax
	push	eax
	call	?UTIL_FunctionToName@@YAPBDPAUdatamap_s@@PAX@Z ; UTIL_FunctionToName
	add	esp, 8
	test	eax, eax
	jne	SHORT $LN1@FunctionCh

; 587  : 			ALERT( at_warning, "FUNCTION NOT IN TABLE!: %s:%s (%08lx)\n", GetClassname(), name, (unsigned long)pFunction );

	mov	eax, DWORD PTR _pFunction$[ebp]
	push	eax
	mov	ecx, DWORD PTR _name$[ebp]
	push	ecx
	mov	ecx, DWORD PTR _this$[ebp]
	call	?GetClassname@CBaseEntity@@QAEPBDXZ	; CBaseEntity::GetClassname
	push	eax
	push	OFFSET ??_C@_0CH@HELFJPDL@FUNCTION?5NOT?5IN?5TABLE?$CB?3?5?$CFs?3?$CFs?5?$CI?$CF@
	push	3
	call	DWORD PTR ?g_engfuncs@@3Uenginefuncs_s@@A+244
	add	esp, 20					; 00000014H
$LN1@FunctionCh:

; 588  : 	}

	pop	edi
	pop	esi
	pop	ebx
	mov	esp, ebp
	pop	ebp
	ret	8
?FunctionCheck@CBaseEntity@@QAEXPAXPAD@Z ENDP		; CBaseEntity::FunctionCheck
_TEXT	ENDS
; Function compile flags: /Odtp /ZI
; File d:\!diffusion 2020\source code 2022\client-server\server\cbase.h
;	COMDAT ?Instance@CBaseEntity@@SAPAV1@PAUedict_s@@@Z
_TEXT	SEGMENT
_pEnt$ = -4						; size = 4
_pent$ = 8						; size = 4
?Instance@CBaseEntity@@SAPAV1@PAUedict_s@@@Z PROC	; CBaseEntity::Instance, COMDAT

; 557  : 	{ 

	push	ebp
	mov	ebp, esp
	sub	esp, 68					; 00000044H
	push	ebx
	push	esi
	push	edi

; 558  : 		if ( !pent )

	cmp	DWORD PTR _pent$[ebp], 0
	jne	SHORT $LN2@Instance

; 559  : 			pent = ENT(0);

	push	0
	call	?ENT@@YAPAUedict_s@@H@Z			; ENT
	add	esp, 4
	mov	DWORD PTR _pent$[ebp], eax
$LN2@Instance:

; 560  : 		CBaseEntity *pEnt = (CBaseEntity *)GET_PRIVATE(pent); 

	mov	eax, DWORD PTR _pent$[ebp]
	push	eax
	call	?GET_PRIVATE@@YAPAXPAUedict_s@@@Z	; GET_PRIVATE
	add	esp, 4
	mov	DWORD PTR _pEnt$[ebp], eax

; 561  : 		return pEnt; 

	mov	eax, DWORD PTR _pEnt$[ebp]

; 562  : 	}

	pop	edi
	pop	esi
	pop	ebx
	mov	esp, ebp
	pop	ebp
	ret	0
?Instance@CBaseEntity@@SAPAV1@PAUedict_s@@@Z ENDP	; CBaseEntity::Instance
_TEXT	ENDS
; Function compile flags: /Odtp /ZI
; File d:\!diffusion 2020\source code 2022\client-server\server\cbase.h
;	COMDAT ?GetClassname@CBaseEntity@@QAEPBDXZ
_TEXT	SEGMENT
_this$ = -4						; size = 4
?GetClassname@CBaseEntity@@QAEPBDXZ PROC		; CBaseEntity::GetClassname, COMDAT
; _this$ = ecx

; 297  : 	const char*	GetClassname() { return STRING( pev->classname ); }

	push	ebp
	mov	ebp, esp
	sub	esp, 68					; 00000044H
	push	ebx
	push	esi
	push	edi
	mov	DWORD PTR _this$[ebp], ecx
	mov	eax, DWORD PTR _this$[ebp]
	mov	ecx, DWORD PTR [eax+4]
	mov	edx, DWORD PTR [ecx]
	push	edx
	call	DWORD PTR ?g_engfuncs@@3Uenginefuncs_s@@A+264
	add	esp, 4
	pop	edi
	pop	esi
	pop	ebx
	mov	esp, ebp
	pop	ebp
	ret	0
?GetClassname@CBaseEntity@@QAEPBDXZ ENDP		; CBaseEntity::GetClassname
_TEXT	ENDS
; Function compile flags: /Odtp /ZI
; File d:\!diffusion 2020\source code 2022\client-server\server\util.h
;	COMDAT ?EMIT_SOUND@@YAXPAUedict_s@@HPBDMM@Z
_TEXT	SEGMENT
_entity$ = 8						; size = 4
_channel$ = 12						; size = 4
_sample$ = 16						; size = 4
_volume$ = 20						; size = 4
_attenuation$ = 24					; size = 4
?EMIT_SOUND@@YAXPAUedict_s@@HPBDMM@Z PROC		; EMIT_SOUND, COMDAT

; 622  : {

	push	ebp
	mov	ebp, esp
	sub	esp, 64					; 00000040H
	push	ebx
	push	esi
	push	edi

; 623  : 	EMIT_SOUND_DYN( entity, channel, sample, volume, attenuation, 0, PITCH_NORM );

	push	100					; 00000064H
	push	0
	push	ecx
	movss	xmm0, DWORD PTR _attenuation$[ebp]
	movss	DWORD PTR [esp], xmm0
	push	ecx
	movss	xmm0, DWORD PTR _volume$[ebp]
	movss	DWORD PTR [esp], xmm0
	mov	eax, DWORD PTR _sample$[ebp]
	push	eax
	mov	ecx, DWORD PTR _channel$[ebp]
	push	ecx
	mov	edx, DWORD PTR _entity$[ebp]
	push	edx
	call	?EMIT_SOUND_DYN@@YAXPAUedict_s@@HPBDMMHH@Z ; EMIT_SOUND_DYN
	add	esp, 28					; 0000001cH

; 624  : }

	pop	edi
	pop	esi
	pop	ebx
	mov	esp, ebp
	pop	ebp
	ret	0
?EMIT_SOUND@@YAXPAUedict_s@@HPBDMM@Z ENDP		; EMIT_SOUND
_TEXT	ENDS
; Function compile flags: /Odtp /ZI
; File d:\!diffusion 2020\source code 2022\client-server\server\util.h
;	COMDAT ?ENT@@YAPAUedict_s@@H@Z
_TEXT	SEGMENT
_eoffset$ = 8						; size = 4
?ENT@@YAPAUedict_s@@H@Z PROC				; ENT, COMDAT

; 157  : inline edict_t *ENT(EOFFSET eoffset)			{ return (*g_engfuncs.pfnPEntityOfEntOffset)(eoffset); }

	push	ebp
	mov	ebp, esp
	sub	esp, 64					; 00000040H
	push	ebx
	push	esi
	push	edi
	mov	eax, DWORD PTR _eoffset$[ebp]
	push	eax
	call	DWORD PTR ?g_engfuncs@@3Uenginefuncs_s@@A+276
	add	esp, 4
	pop	edi
	pop	esi
	pop	ebx
	mov	esp, ebp
	pop	ebp
	ret	0
?ENT@@YAPAUedict_s@@H@Z ENDP				; ENT
_TEXT	ENDS
; Function compile flags: /Odtp /ZI
; File d:\!diffusion 2020\source code 2022\client-server\server\util.h
;	COMDAT ?ENT@@YAPAUedict_s@@PBUentvars_s@@@Z
_TEXT	SEGMENT
_pev$ = 8						; size = 4
?ENT@@YAPAUedict_s@@PBUentvars_s@@@Z PROC		; ENT, COMDAT

; 151  : 	inline edict_t *ENT(const entvars_t *pev)	{ return DBG_EntOfVars(pev); }

	push	ebp
	mov	ebp, esp
	sub	esp, 64					; 00000040H
	push	ebx
	push	esi
	push	edi
	mov	eax, DWORD PTR _pev$[ebp]
	push	eax
	call	?DBG_EntOfVars@@YAPAUedict_s@@PBUentvars_s@@@Z ; DBG_EntOfVars
	add	esp, 4
	pop	edi
	pop	esi
	pop	ebx
	mov	esp, ebp
	pop	ebp
	ret	0
?ENT@@YAPAUedict_s@@PBUentvars_s@@@Z ENDP		; ENT
_TEXT	ENDS
; Function compile flags: /Odtp /ZI
; File d:\!diffusion 2020\source code 2022\client-server\server\enginecallback.h
;	COMDAT ?GET_PRIVATE@@YAPAXPAUedict_s@@@Z
_TEXT	SEGMENT
_pent$ = 8						; size = 4
?GET_PRIVATE@@YAPAXPAUedict_s@@@Z PROC			; GET_PRIVATE, COMDAT

; 106  : {

	push	ebp
	mov	ebp, esp
	sub	esp, 64					; 00000040H
	push	ebx
	push	esi
	push	edi

; 107  : 	if ( pent )

	cmp	DWORD PTR _pent$[ebp], 0
	je	SHORT $LN2@GET_PRIVAT

; 108  : 		return pent->pvPrivateData;

	mov	eax, DWORD PTR _pent$[ebp]
	mov	eax, DWORD PTR [eax+124]
	jmp	SHORT $LN1@GET_PRIVAT
$LN2@GET_PRIVAT:

; 109  : 	return NULL;

	xor	eax, eax
$LN1@GET_PRIVAT:

; 110  : }

	pop	edi
	pop	esi
	pop	ebx
	mov	esp, ebp
	pop	ebp
	ret	0
?GET_PRIVATE@@YAPAXPAUedict_s@@@Z ENDP			; GET_PRIVATE
_TEXT	ENDS
; Function compile flags: /Odtp /ZI
;	COMDAT ??0gametrace_s@@QAE@XZ
_TEXT	SEGMENT
_this$ = -4						; size = 4
??0gametrace_s@@QAE@XZ PROC				; gametrace_s::gametrace_s, COMDAT
; _this$ = ecx
	push	ebp
	mov	ebp, esp
	sub	esp, 68					; 00000044H
	push	ebx
	push	esi
	push	edi
	mov	DWORD PTR _this$[ebp], ecx
	mov	ecx, DWORD PTR _this$[ebp]
	add	ecx, 20					; 00000014H
	call	??0Vector@@QAE@XZ			; Vector::Vector
	mov	ecx, DWORD PTR _this$[ebp]
	add	ecx, 36					; 00000024H
	call	??0Vector@@QAE@XZ			; Vector::Vector
	mov	eax, DWORD PTR _this$[ebp]
	pop	edi
	pop	esi
	pop	ebx
	mov	esp, ebp
	pop	ebp
	ret	0
??0gametrace_s@@QAE@XZ ENDP				; gametrace_s::gametrace_s
_TEXT	ENDS
; Function compile flags: /Odtp /ZI
; File d:\!diffusion 2020\source code 2022\client-server\game_shared\vector.h
;	COMDAT ??DVector@@QBE?AV0@M@Z
_TEXT	SEGMENT
_this$ = -4						; size = 4
___$ReturnUdt$ = 8					; size = 4
_fl$ = 12						; size = 4
??DVector@@QBE?AV0@M@Z PROC				; Vector::operator*, COMDAT
; _this$ = ecx

; 162  : 	inline Vector operator*(float fl) const		{ return Vector(x*fl, y*fl, z*fl);	   }

	push	ebp
	mov	ebp, esp
	sub	esp, 68					; 00000044H
	push	ebx
	push	esi
	push	edi
	mov	DWORD PTR _this$[ebp], ecx
	mov	eax, DWORD PTR _this$[ebp]
	movss	xmm0, DWORD PTR [eax+8]
	mulss	xmm0, DWORD PTR _fl$[ebp]
	push	ecx
	movss	DWORD PTR [esp], xmm0
	mov	ecx, DWORD PTR _this$[ebp]
	movss	xmm0, DWORD PTR [ecx+4]
	mulss	xmm0, DWORD PTR _fl$[ebp]
	push	ecx
	movss	DWORD PTR [esp], xmm0
	mov	edx, DWORD PTR _this$[ebp]
	movss	xmm0, DWORD PTR [edx]
	mulss	xmm0, DWORD PTR _fl$[ebp]
	push	ecx
	movss	DWORD PTR [esp], xmm0
	mov	ecx, DWORD PTR ___$ReturnUdt$[ebp]
	call	??0Vector@@QAE@MMM@Z			; Vector::Vector
	mov	eax, DWORD PTR ___$ReturnUdt$[ebp]
	pop	edi
	pop	esi
	pop	ebx
	mov	esp, ebp
	pop	ebp
	ret	8
??DVector@@QBE?AV0@M@Z ENDP				; Vector::operator*
_TEXT	ENDS
; Function compile flags: /Odtp /ZI
; File d:\!diffusion 2020\source code 2022\client-server\game_shared\vector.h
;	COMDAT ??HVector@@QBE?AV0@ABV0@@Z
_TEXT	SEGMENT
_this$ = -4						; size = 4
___$ReturnUdt$ = 8					; size = 4
_v$ = 12						; size = 4
??HVector@@QBE?AV0@ABV0@@Z PROC				; Vector::operator+, COMDAT
; _this$ = ecx

; 158  : 	inline Vector operator+(const Vector& v) const	{ return Vector(x+v.x, y+v.y, z+v.z);	   }

	push	ebp
	mov	ebp, esp
	sub	esp, 68					; 00000044H
	push	ebx
	push	esi
	push	edi
	mov	DWORD PTR _this$[ebp], ecx
	mov	eax, DWORD PTR _this$[ebp]
	mov	ecx, DWORD PTR _v$[ebp]
	movss	xmm0, DWORD PTR [eax+8]
	addss	xmm0, DWORD PTR [ecx+8]
	push	ecx
	movss	DWORD PTR [esp], xmm0
	mov	edx, DWORD PTR _this$[ebp]
	mov	eax, DWORD PTR _v$[ebp]
	movss	xmm0, DWORD PTR [edx+4]
	addss	xmm0, DWORD PTR [eax+4]
	push	ecx
	movss	DWORD PTR [esp], xmm0
	mov	ecx, DWORD PTR _this$[ebp]
	mov	edx, DWORD PTR _v$[ebp]
	movss	xmm0, DWORD PTR [ecx]
	addss	xmm0, DWORD PTR [edx]
	push	ecx
	movss	DWORD PTR [esp], xmm0
	mov	ecx, DWORD PTR ___$ReturnUdt$[ebp]
	call	??0Vector@@QAE@MMM@Z			; Vector::Vector
	mov	eax, DWORD PTR ___$ReturnUdt$[ebp]
	pop	edi
	pop	esi
	pop	ebx
	mov	esp, ebp
	pop	ebp
	ret	8
??HVector@@QBE?AV0@ABV0@@Z ENDP				; Vector::operator+
_TEXT	ENDS
; Function compile flags: /Odtp /ZI
; File d:\!diffusion 2020\source code 2022\client-server\game_shared\vector.h
;	COMDAT ??0Vector@@QAE@MMM@Z
_TEXT	SEGMENT
_this$ = -4						; size = 4
_X$ = 8							; size = 4
_Y$ = 12						; size = 4
_Z$ = 16						; size = 4
??0Vector@@QAE@MMM@Z PROC				; Vector::Vector, COMDAT
; _this$ = ecx

; 144  : 	inline Vector(float X, float Y, float Z)	{ x = X; y = Y; z = Z;                     }

	push	ebp
	mov	ebp, esp
	sub	esp, 68					; 00000044H
	push	ebx
	push	esi
	push	edi
	mov	DWORD PTR _this$[ebp], ecx
	mov	eax, DWORD PTR _this$[ebp]
	movss	xmm0, DWORD PTR _X$[ebp]
	movss	DWORD PTR [eax], xmm0
	mov	eax, DWORD PTR _this$[ebp]
	movss	xmm0, DWORD PTR _Y$[ebp]
	movss	DWORD PTR [eax+4], xmm0
	mov	eax, DWORD PTR _this$[ebp]
	movss	xmm0, DWORD PTR _Z$[ebp]
	movss	DWORD PTR [eax+8], xmm0
	mov	eax, DWORD PTR _this$[ebp]
	pop	edi
	pop	esi
	pop	ebx
	mov	esp, ebp
	pop	ebp
	ret	12					; 0000000cH
??0Vector@@QAE@MMM@Z ENDP				; Vector::Vector
_TEXT	ENDS
; Function compile flags: /Odtp /ZI
; File d:\!diffusion 2020\source code 2022\client-server\game_shared\vector.h
;	COMDAT ??0Vector@@QAE@XZ
_TEXT	SEGMENT
_this$ = -4						; size = 4
??0Vector@@QAE@XZ PROC					; Vector::Vector, COMDAT
; _this$ = ecx

; 143  : 	inline Vector(void)				{ }

	push	ebp
	mov	ebp, esp
	sub	esp, 68					; 00000044H
	push	ebx
	push	esi
	push	edi
	mov	DWORD PTR _this$[ebp], ecx
	mov	eax, DWORD PTR _this$[ebp]
	pop	edi
	pop	esi
	pop	ebx
	mov	esp, ebp
	pop	ebp
	ret	0
??0Vector@@QAE@XZ ENDP					; Vector::Vector
_TEXT	ENDS
; Function compile flags: /Odtp /ZI
; File d:\!diffusion 2020\source code 2022\client-server\server\weapons\weapon_snark.cpp
;	COMDAT ?__empty_global_delete@@YAXPAXI@Z
_TEXT	SEGMENT
___formal$ = 8						; size = 4
___formal$ = 12						; size = 4
?__empty_global_delete@@YAXPAXI@Z PROC			; __empty_global_delete, COMDAT

	push	ebp
	mov	ebp, esp
	sub	esp, 64					; 00000040H
	push	ebx
	push	esi
	push	edi
	pop	edi
	pop	esi
	pop	ebx
	mov	esp, ebp
	pop	ebp
	ret	0
?__empty_global_delete@@YAXPAXI@Z ENDP			; __empty_global_delete
_TEXT	ENDS
; Function compile flags: /Odtp /ZI
; File d:\!diffusion 2020\source code 2022\client-server\server\weapons\weapon_snark.cpp
;	COMDAT ?__empty_global_delete@@YAXPAX@Z
_TEXT	SEGMENT
___formal$ = 8						; size = 4
?__empty_global_delete@@YAXPAX@Z PROC			; __empty_global_delete, COMDAT

; 201  : }

	push	ebp
	mov	ebp, esp
	sub	esp, 64					; 00000040H
	push	ebx
	push	esi
	push	edi
	pop	edi
	pop	esi
	pop	ebx
	mov	esp, ebp
	pop	ebp
	ret	0
?__empty_global_delete@@YAXPAX@Z ENDP			; __empty_global_delete
_TEXT	ENDS
; Function compile flags: /Odtp /ZI
;	COMDAT ??__G@YGXPAX0IIP6EPAX00@Z@Z
_TEXT	SEGMENT
tv66 = -68						; size = 4
___t$ = 8						; size = 4
___u$ = 12						; size = 4
___s$ = 16						; size = 4
___n$ = 20						; size = 4
___f$ = 24						; size = 4
??__G@YGXPAX0IIP6EPAX00@Z@Z PROC			; `vector copy constructor iterator', COMDAT
	push	ebp
	mov	ebp, esp
	sub	esp, 68					; 00000044H
	push	ebx
	push	esi
	push	edi
$LN2@vector:
	mov	eax, DWORD PTR ___n$[ebp]
	mov	DWORD PTR tv66[ebp], eax
	mov	ecx, DWORD PTR ___n$[ebp]
	sub	ecx, 1
	mov	DWORD PTR ___n$[ebp], ecx
	cmp	DWORD PTR tv66[ebp], 0
	jbe	SHORT $LN1@vector
	mov	eax, DWORD PTR ___u$[ebp]
	push	eax
	mov	ecx, DWORD PTR ___t$[ebp]
	call	DWORD PTR ___f$[ebp]
	mov	eax, DWORD PTR ___t$[ebp]
	add	eax, DWORD PTR ___s$[ebp]
	mov	DWORD PTR ___t$[ebp], eax
	mov	eax, DWORD PTR ___u$[ebp]
	add	eax, DWORD PTR ___s$[ebp]
	mov	DWORD PTR ___u$[ebp], eax
	jmp	SHORT $LN2@vector
$LN1@vector:
	pop	edi
	pop	esi
	pop	ebx
	mov	esp, ebp
	pop	ebp
	ret	20					; 00000014H
??__G@YGXPAX0IIP6EPAX00@Z@Z ENDP			; `vector copy constructor iterator'
_TEXT	ENDS
; Function compile flags: /Odtp /ZI
;	COMDAT ??_H@YGXPAXIIP6EPAX0@Z@Z
_TEXT	SEGMENT
tv66 = -68						; size = 4
___t$ = 8						; size = 4
___s$ = 12						; size = 4
___n$ = 16						; size = 4
___f$ = 20						; size = 4
??_H@YGXPAXIIP6EPAX0@Z@Z PROC				; `vector constructor iterator', COMDAT
	push	ebp
	mov	ebp, esp
	sub	esp, 68					; 00000044H
	push	ebx
	push	esi
	push	edi
$LN2@vector:
	mov	eax, DWORD PTR ___n$[ebp]
	mov	DWORD PTR tv66[ebp], eax
	mov	ecx, DWORD PTR ___n$[ebp]
	sub	ecx, 1
	mov	DWORD PTR ___n$[ebp], ecx
	cmp	DWORD PTR tv66[ebp], 0
	jbe	SHORT $LN1@vector
	mov	ecx, DWORD PTR ___t$[ebp]
	call	DWORD PTR ___f$[ebp]
	mov	eax, DWORD PTR ___t$[ebp]
	add	eax, DWORD PTR ___s$[ebp]
	mov	DWORD PTR ___t$[ebp], eax
	jmp	SHORT $LN2@vector
$LN1@vector:
	pop	edi
	pop	esi
	pop	ebx
	mov	esp, ebp
	pop	ebp
	ret	16					; 00000010H
??_H@YGXPAXIIP6EPAX0@Z@Z ENDP				; `vector constructor iterator'
_TEXT	ENDS
END
