; Listing generated by Microsoft (R) Optimizing Compiler Version 19.00.24247.2 

	TITLE	D:\!DIFFUSION 2020\source code 2022\client-server\server\world.cpp
	.686P
	.XMM
	include listing.inc
	.model	flat

INCLUDELIB LIBCMT
INCLUDELIB OLDNAMES

PUBLIC	??_C@_06HLKFCCHD@CDecal?$AA@			; `string'
PUBLIC	?m_DataMap@globalentity_s@@2Udatamap_s@@A	; globalentity_s::m_DataMap
PUBLIC	?g_pWorld@@3PAVCBaseEntity@@A			; g_pWorld
PUBLIC	?m_DataMap@CGlobalState@@0Udatamap_s@@A		; CGlobalState::m_DataMap
PUBLIC	??_C@_03GCDBBDDL@Off?$AA@			; `string'
PUBLIC	??_C@_02IAAGKKDJ@On?$AA@			; `string'
PUBLIC	??_C@_04NANCPOOO@Dead?$AA@			; `string'
PUBLIC	??_C@_0N@KCHHJNKN@CGlobalState?$AA@		; `string'
PUBLIC	??_C@_0M@BPCHFOPG@m_listCount?$AA@		; `string'
PUBLIC	??_C@_0P@DCMPFILB@globalentity_t?$AA@		; `string'
PUBLIC	??_C@_04MEMAJGDJ@name?$AA@			; `string'
PUBLIC	??_C@_09DBABDCDH@levelName?$AA@			; `string'
PUBLIC	??_C@_05HDBKIDE@state?$AA@			; `string'
PUBLIC	??_C@_0M@GPCBELLG@global_time?$AA@		; `string'
PUBLIC	?g_pBodyQueueHead@@3PAUedict_s@@A		; g_pBodyQueueHead
PUBLIC	?g_flWeaponCheat@@3MA				; g_flWeaponCheat
PUBLIC	??_C@_06FOOIMHNI@?$HLshot1?$AA@			; `string'
PUBLIC	??_C@_06HFMFJEBL@?$HLshot2?$AA@			; `string'
PUBLIC	??_C@_06GMNOKFFK@?$HLshot3?$AA@			; `string'
PUBLIC	??_C@_06CDJPDDJN@?$HLshot4?$AA@			; `string'
PUBLIC	??_C@_06DKIEACNM@?$HLshot5?$AA@			; `string'
PUBLIC	??_C@_09BGIJBLMO@?$HLlambda01?$AA@		; `string'
PUBLIC	??_C@_09DNKEEIAN@?$HLlambda02?$AA@		; `string'
PUBLIC	??_C@_09CELPHJEM@?$HLlambda03?$AA@		; `string'
PUBLIC	??_C@_09GLPOOPIL@?$HLlambda04?$AA@		; `string'
PUBLIC	??_C@_09HCOFNOMK@?$HLlambda05?$AA@		; `string'
PUBLIC	??_C@_09FJMIINAJ@?$HLlambda06?$AA@		; `string'
PUBLIC	??_C@_08CADLLNLF@?$HLscorch1?$AA@		; `string'
PUBLIC	??_C@_08LBGOOHG@?$HLscorch2?$AA@		; `string'
PUBLIC	??_C@_07PJFMFMDK@?$HLblood1?$AA@		; `string'
PUBLIC	??_C@_07NCHBAPPJ@?$HLblood2?$AA@		; `string'
PUBLIC	??_C@_07MLGKDOLI@?$HLblood3?$AA@		; `string'
PUBLIC	??_C@_07IECLKIHP@?$HLblood4?$AA@		; `string'
PUBLIC	??_C@_07JNDAJJDO@?$HLblood5?$AA@		; `string'
PUBLIC	??_C@_07LGBNMKPN@?$HLblood6?$AA@		; `string'
PUBLIC	??_C@_08EKKEMNII@?$HLyblood1?$AA@		; `string'
PUBLIC	??_C@_08GBIJJOEL@?$HLyblood2?$AA@		; `string'
PUBLIC	??_C@_08HIJCKPAK@?$HLyblood3?$AA@		; `string'
PUBLIC	??_C@_08DHNDDJMN@?$HLyblood4?$AA@		; `string'
PUBLIC	??_C@_08COMIAIIM@?$HLyblood5?$AA@		; `string'
PUBLIC	??_C@_08FOFFLEP@?$HLyblood6?$AA@		; `string'
PUBLIC	??_C@_07GBLDBHHO@?$HLbreak1?$AA@		; `string'
PUBLIC	??_C@_07EKJOEELN@?$HLbreak2?$AA@		; `string'
PUBLIC	??_C@_07FDIFHFPM@?$HLbreak3?$AA@		; `string'
PUBLIC	??_C@_09DDOIOKLH@?$HLbigshot1?$AA@		; `string'
PUBLIC	??_C@_09BIMFLJHE@?$HLbigshot2?$AA@		; `string'
PUBLIC	??_C@_09BNOIIDF@?$HLbigshot3?$AA@		; `string'
PUBLIC	??_C@_09EOJPBOPC@?$HLbigshot4?$AA@		; `string'
PUBLIC	??_C@_09FHIECPLD@?$HLbigshot5?$AA@		; `string'
PUBLIC	??_C@_06CLBDEEEH@?$HLspit1?$AA@			; `string'
PUBLIC	??_C@_06DOBHIE@?$HLspit2?$AA@			; `string'
PUBLIC	??_C@_08KBGMNKJH@?$HLbproof1?$AA@		; `string'
PUBLIC	??_C@_0L@BMKNAKHM@?$HLgargstomp?$AA@		; `string'
PUBLIC	??_C@_0L@LCBCMICA@?$HLsmscorch1?$AA@		; `string'
PUBLIC	??_C@_0L@JJDPJLOD@?$HLsmscorch2?$AA@		; `string'
PUBLIC	??_C@_0L@IACEKKKC@?$HLsmscorch3?$AA@		; `string'
PUBLIC	??_C@_0L@KNNPHAP@?$HLmommablob?$AA@		; `string'
PUBLIC	?gDecals@@3PAUDLL_DECALLIST@@A			; gDecals
PUBLIC	?m_DataMap@CDecal@@2Udatamap_s@@A		; CDecal::m_DataMap
_BSS	SEGMENT
?g_pWorld@@3PAVCBaseEntity@@A DD 01H DUP (?)		; g_pWorld
?g_pBodyQueueHead@@3PAUedict_s@@A DD 01H DUP (?)	; g_pBodyQueueHead
?g_flWeaponCheat@@3MA DD 01H DUP (?)			; g_flWeaponCheat
_BSS	ENDS
;	COMDAT ??_C@_0L@KNNPHAP@?$HLmommablob?$AA@
CONST	SEGMENT
??_C@_0L@KNNPHAP@?$HLmommablob?$AA@ DB '{mommablob', 00H ; `string'
CONST	ENDS
;	COMDAT ??_C@_0L@IACEKKKC@?$HLsmscorch3?$AA@
CONST	SEGMENT
??_C@_0L@IACEKKKC@?$HLsmscorch3?$AA@ DB '{smscorch3', 00H ; `string'
CONST	ENDS
;	COMDAT ??_C@_0L@JJDPJLOD@?$HLsmscorch2?$AA@
CONST	SEGMENT
??_C@_0L@JJDPJLOD@?$HLsmscorch2?$AA@ DB '{smscorch2', 00H ; `string'
CONST	ENDS
;	COMDAT ??_C@_0L@LCBCMICA@?$HLsmscorch1?$AA@
CONST	SEGMENT
??_C@_0L@LCBCMICA@?$HLsmscorch1?$AA@ DB '{smscorch1', 00H ; `string'
CONST	ENDS
;	COMDAT ??_C@_0L@BMKNAKHM@?$HLgargstomp?$AA@
CONST	SEGMENT
??_C@_0L@BMKNAKHM@?$HLgargstomp?$AA@ DB '{gargstomp', 00H ; `string'
CONST	ENDS
;	COMDAT ??_C@_08KBGMNKJH@?$HLbproof1?$AA@
CONST	SEGMENT
??_C@_08KBGMNKJH@?$HLbproof1?$AA@ DB '{bproof1', 00H	; `string'
CONST	ENDS
;	COMDAT ??_C@_06DOBHIE@?$HLspit2?$AA@
CONST	SEGMENT
??_C@_06DOBHIE@?$HLspit2?$AA@ DB '{spit2', 00H		; `string'
CONST	ENDS
;	COMDAT ??_C@_06CLBDEEEH@?$HLspit1?$AA@
CONST	SEGMENT
??_C@_06CLBDEEEH@?$HLspit1?$AA@ DB '{spit1', 00H	; `string'
CONST	ENDS
;	COMDAT ??_C@_09FHIECPLD@?$HLbigshot5?$AA@
CONST	SEGMENT
??_C@_09FHIECPLD@?$HLbigshot5?$AA@ DB '{bigshot5', 00H	; `string'
CONST	ENDS
;	COMDAT ??_C@_09EOJPBOPC@?$HLbigshot4?$AA@
CONST	SEGMENT
??_C@_09EOJPBOPC@?$HLbigshot4?$AA@ DB '{bigshot4', 00H	; `string'
CONST	ENDS
;	COMDAT ??_C@_09BNOIIDF@?$HLbigshot3?$AA@
CONST	SEGMENT
??_C@_09BNOIIDF@?$HLbigshot3?$AA@ DB '{bigshot3', 00H	; `string'
CONST	ENDS
;	COMDAT ??_C@_09BIMFLJHE@?$HLbigshot2?$AA@
CONST	SEGMENT
??_C@_09BIMFLJHE@?$HLbigshot2?$AA@ DB '{bigshot2', 00H	; `string'
CONST	ENDS
;	COMDAT ??_C@_09DDOIOKLH@?$HLbigshot1?$AA@
CONST	SEGMENT
??_C@_09DDOIOKLH@?$HLbigshot1?$AA@ DB '{bigshot1', 00H	; `string'
CONST	ENDS
;	COMDAT ??_C@_07FDIFHFPM@?$HLbreak3?$AA@
CONST	SEGMENT
??_C@_07FDIFHFPM@?$HLbreak3?$AA@ DB '{break3', 00H	; `string'
CONST	ENDS
;	COMDAT ??_C@_07EKJOEELN@?$HLbreak2?$AA@
CONST	SEGMENT
??_C@_07EKJOEELN@?$HLbreak2?$AA@ DB '{break2', 00H	; `string'
CONST	ENDS
;	COMDAT ??_C@_07GBLDBHHO@?$HLbreak1?$AA@
CONST	SEGMENT
??_C@_07GBLDBHHO@?$HLbreak1?$AA@ DB '{break1', 00H	; `string'
CONST	ENDS
;	COMDAT ??_C@_08FOFFLEP@?$HLyblood6?$AA@
CONST	SEGMENT
??_C@_08FOFFLEP@?$HLyblood6?$AA@ DB '{yblood6', 00H	; `string'
CONST	ENDS
;	COMDAT ??_C@_08COMIAIIM@?$HLyblood5?$AA@
CONST	SEGMENT
??_C@_08COMIAIIM@?$HLyblood5?$AA@ DB '{yblood5', 00H	; `string'
CONST	ENDS
;	COMDAT ??_C@_08DHNDDJMN@?$HLyblood4?$AA@
CONST	SEGMENT
??_C@_08DHNDDJMN@?$HLyblood4?$AA@ DB '{yblood4', 00H	; `string'
CONST	ENDS
;	COMDAT ??_C@_08HIJCKPAK@?$HLyblood3?$AA@
CONST	SEGMENT
??_C@_08HIJCKPAK@?$HLyblood3?$AA@ DB '{yblood3', 00H	; `string'
CONST	ENDS
;	COMDAT ??_C@_08GBIJJOEL@?$HLyblood2?$AA@
CONST	SEGMENT
??_C@_08GBIJJOEL@?$HLyblood2?$AA@ DB '{yblood2', 00H	; `string'
CONST	ENDS
;	COMDAT ??_C@_08EKKEMNII@?$HLyblood1?$AA@
CONST	SEGMENT
??_C@_08EKKEMNII@?$HLyblood1?$AA@ DB '{yblood1', 00H	; `string'
CONST	ENDS
;	COMDAT ??_C@_07LGBNMKPN@?$HLblood6?$AA@
CONST	SEGMENT
??_C@_07LGBNMKPN@?$HLblood6?$AA@ DB '{blood6', 00H	; `string'
CONST	ENDS
;	COMDAT ??_C@_07JNDAJJDO@?$HLblood5?$AA@
CONST	SEGMENT
??_C@_07JNDAJJDO@?$HLblood5?$AA@ DB '{blood5', 00H	; `string'
CONST	ENDS
;	COMDAT ??_C@_07IECLKIHP@?$HLblood4?$AA@
CONST	SEGMENT
??_C@_07IECLKIHP@?$HLblood4?$AA@ DB '{blood4', 00H	; `string'
CONST	ENDS
;	COMDAT ??_C@_07MLGKDOLI@?$HLblood3?$AA@
CONST	SEGMENT
??_C@_07MLGKDOLI@?$HLblood3?$AA@ DB '{blood3', 00H	; `string'
CONST	ENDS
;	COMDAT ??_C@_07NCHBAPPJ@?$HLblood2?$AA@
CONST	SEGMENT
??_C@_07NCHBAPPJ@?$HLblood2?$AA@ DB '{blood2', 00H	; `string'
CONST	ENDS
;	COMDAT ??_C@_07PJFMFMDK@?$HLblood1?$AA@
CONST	SEGMENT
??_C@_07PJFMFMDK@?$HLblood1?$AA@ DB '{blood1', 00H	; `string'
CONST	ENDS
;	COMDAT ??_C@_08LBGOOHG@?$HLscorch2?$AA@
CONST	SEGMENT
??_C@_08LBGOOHG@?$HLscorch2?$AA@ DB '{scorch2', 00H	; `string'
CONST	ENDS
;	COMDAT ??_C@_08CADLLNLF@?$HLscorch1?$AA@
CONST	SEGMENT
??_C@_08CADLLNLF@?$HLscorch1?$AA@ DB '{scorch1', 00H	; `string'
CONST	ENDS
;	COMDAT ??_C@_09FJMIINAJ@?$HLlambda06?$AA@
CONST	SEGMENT
??_C@_09FJMIINAJ@?$HLlambda06?$AA@ DB '{lambda06', 00H	; `string'
CONST	ENDS
;	COMDAT ??_C@_09HCOFNOMK@?$HLlambda05?$AA@
CONST	SEGMENT
??_C@_09HCOFNOMK@?$HLlambda05?$AA@ DB '{lambda05', 00H	; `string'
CONST	ENDS
;	COMDAT ??_C@_09GLPOOPIL@?$HLlambda04?$AA@
CONST	SEGMENT
??_C@_09GLPOOPIL@?$HLlambda04?$AA@ DB '{lambda04', 00H	; `string'
CONST	ENDS
;	COMDAT ??_C@_09CELPHJEM@?$HLlambda03?$AA@
CONST	SEGMENT
??_C@_09CELPHJEM@?$HLlambda03?$AA@ DB '{lambda03', 00H	; `string'
CONST	ENDS
;	COMDAT ??_C@_09DNKEEIAN@?$HLlambda02?$AA@
CONST	SEGMENT
??_C@_09DNKEEIAN@?$HLlambda02?$AA@ DB '{lambda02', 00H	; `string'
CONST	ENDS
;	COMDAT ??_C@_09BGIJBLMO@?$HLlambda01?$AA@
CONST	SEGMENT
??_C@_09BGIJBLMO@?$HLlambda01?$AA@ DB '{lambda01', 00H	; `string'
CONST	ENDS
;	COMDAT ??_C@_06DKIEACNM@?$HLshot5?$AA@
CONST	SEGMENT
??_C@_06DKIEACNM@?$HLshot5?$AA@ DB '{shot5', 00H	; `string'
CONST	ENDS
;	COMDAT ??_C@_06CDJPDDJN@?$HLshot4?$AA@
CONST	SEGMENT
??_C@_06CDJPDDJN@?$HLshot4?$AA@ DB '{shot4', 00H	; `string'
CONST	ENDS
;	COMDAT ??_C@_06GMNOKFFK@?$HLshot3?$AA@
CONST	SEGMENT
??_C@_06GMNOKFFK@?$HLshot3?$AA@ DB '{shot3', 00H	; `string'
CONST	ENDS
;	COMDAT ??_C@_06HFMFJEBL@?$HLshot2?$AA@
CONST	SEGMENT
??_C@_06HFMFJEBL@?$HLshot2?$AA@ DB '{shot2', 00H	; `string'
CONST	ENDS
;	COMDAT ??_C@_06FOOIMHNI@?$HLshot1?$AA@
CONST	SEGMENT
??_C@_06FOOIMHNI@?$HLshot1?$AA@ DB '{shot1', 00H	; `string'
CONST	ENDS
;	COMDAT ??_C@_0M@GPCBELLG@global_time?$AA@
CONST	SEGMENT
??_C@_0M@GPCBELLG@global_time?$AA@ DB 'global_time', 00H ; `string'
CONST	ENDS
;	COMDAT ??_C@_05HDBKIDE@state?$AA@
CONST	SEGMENT
??_C@_05HDBKIDE@state?$AA@ DB 'state', 00H		; `string'
CONST	ENDS
;	COMDAT ??_C@_09DBABDCDH@levelName?$AA@
CONST	SEGMENT
??_C@_09DBABDCDH@levelName?$AA@ DB 'levelName', 00H	; `string'
CONST	ENDS
;	COMDAT ??_C@_04MEMAJGDJ@name?$AA@
CONST	SEGMENT
??_C@_04MEMAJGDJ@name?$AA@ DB 'name', 00H		; `string'
CONST	ENDS
;	COMDAT ??_C@_0P@DCMPFILB@globalentity_t?$AA@
CONST	SEGMENT
??_C@_0P@DCMPFILB@globalentity_t?$AA@ DB 'globalentity_t', 00H ; `string'
CONST	ENDS
;	COMDAT ??_C@_0M@BPCHFOPG@m_listCount?$AA@
CONST	SEGMENT
??_C@_0M@BPCHFOPG@m_listCount?$AA@ DB 'm_listCount', 00H ; `string'
CONST	ENDS
;	COMDAT ??_C@_0N@KCHHJNKN@CGlobalState?$AA@
CONST	SEGMENT
??_C@_0N@KCHHJNKN@CGlobalState?$AA@ DB 'CGlobalState', 00H ; `string'
CONST	ENDS
;	COMDAT ??_C@_04NANCPOOO@Dead?$AA@
CONST	SEGMENT
??_C@_04NANCPOOO@Dead?$AA@ DB 'Dead', 00H		; `string'
CONST	ENDS
;	COMDAT ??_C@_02IAAGKKDJ@On?$AA@
CONST	SEGMENT
??_C@_02IAAGKKDJ@On?$AA@ DB 'On', 00H			; `string'
CONST	ENDS
;	COMDAT ??_C@_03GCDBBDDL@Off?$AA@
CONST	SEGMENT
??_C@_03GCDBBDDL@Off?$AA@ DB 'Off', 00H			; `string'
CONST	ENDS
_DATA	SEGMENT
?dataDesc@?1???$DataMapInit@VCDecal@@@@YAPAUdatamap_s@@PAVCDecal@@@Z@4PAUtypedescription_s@@A DD 012H ; `DataMapInit<CDecal>'::`2'::dataDesc
	DD	00H
	DD	00H
	DW	00H
	DW	00H
	DD	00H
	DD	00H
	DD	012H
	ORG $+44
?m_DataMap@globalentity_s@@2Udatamap_s@@A DD 00H	; globalentity_s::m_DataMap
	DD	00H
	DD	FLAT:??_C@_0P@DCMPFILB@globalentity_t?$AA@
	DD	00H
?m_DataMap@CGlobalState@@0Udatamap_s@@A DD 00H		; CGlobalState::m_DataMap
	DD	00H
	DD	FLAT:??_C@_0N@KCHHJNKN@CGlobalState?$AA@
	DD	00H
?estates@?1??DumpGlobals@CGlobalState@@QAEXXZ@4PAPADA DD FLAT:??_C@_03GCDBBDDL@Off?$AA@ ; `CGlobalState::DumpGlobals'::`2'::estates
	DD	FLAT:??_C@_02IAAGKKDJ@On?$AA@
	DD	FLAT:??_C@_04NANCPOOO@Dead?$AA@
?dataDesc@?1???$DataMapInit@VCGlobalState@@@@YAPAUdatamap_s@@PAVCGlobalState@@@Z@4PAUtypedescription_s@@A DD 012H ; `DataMapInit<CGlobalState>'::`2'::dataDesc
	DD	00H
	DD	00H
	DW	00H
	DW	00H
	DD	00H
	DD	00H
	DD	0aH
	DD	FLAT:??_C@_0M@BPCHFOPG@m_listCount?$AA@
	DD	04H
	DW	01H
	DW	02H
	DD	00H
	DD	00H
	ORG $+4
?dataDesc@?1???$DataMapInit@Uglobalentity_s@@@@YAPAUdatamap_s@@PAUglobalentity_s@@@Z@4PAUtypedescription_s@@A DD 012H ; `DataMapInit<globalentity_s>'::`2'::dataDesc
	DD	00H
	DD	00H
	DW	00H
	DW	00H
	DD	00H
	DD	00H
	DD	0eH
	DD	FLAT:??_C@_04MEMAJGDJ@name?$AA@
	DD	00H
	DW	040H
	DW	02H
	DD	00H
	DD	00H
	DD	0eH
	DD	FLAT:??_C@_09DBABDCDH@levelName?$AA@
	DD	040H
	DW	020H
	DW	02H
	DD	00H
	DD	00H
	DD	0aH
	DD	FLAT:??_C@_05HDBKIDE@state?$AA@
	DD	060H
	DW	01H
	DW	02H
	DD	00H
	DD	00H
	DD	00H
	DD	FLAT:??_C@_0M@GPCBELLG@global_time?$AA@
	DD	064H
	DW	01H
	DW	02H
	DD	00H
	DD	00H
?gDecals@@3PAUDLL_DECALLIST@@A DD FLAT:??_C@_06FOOIMHNI@?$HLshot1?$AA@ ; gDecals
	DD	00H
	DD	FLAT:??_C@_06HFMFJEBL@?$HLshot2?$AA@
	DD	00H
	DD	FLAT:??_C@_06GMNOKFFK@?$HLshot3?$AA@
	DD	00H
	DD	FLAT:??_C@_06CDJPDDJN@?$HLshot4?$AA@
	DD	00H
	DD	FLAT:??_C@_06DKIEACNM@?$HLshot5?$AA@
	DD	00H
	DD	FLAT:??_C@_09BGIJBLMO@?$HLlambda01?$AA@
	DD	00H
	DD	FLAT:??_C@_09DNKEEIAN@?$HLlambda02?$AA@
	DD	00H
	DD	FLAT:??_C@_09CELPHJEM@?$HLlambda03?$AA@
	DD	00H
	DD	FLAT:??_C@_09GLPOOPIL@?$HLlambda04?$AA@
	DD	00H
	DD	FLAT:??_C@_09HCOFNOMK@?$HLlambda05?$AA@
	DD	00H
	DD	FLAT:??_C@_09FJMIINAJ@?$HLlambda06?$AA@
	DD	00H
	DD	FLAT:??_C@_08CADLLNLF@?$HLscorch1?$AA@
	DD	00H
	DD	FLAT:??_C@_08LBGOOHG@?$HLscorch2?$AA@
	DD	00H
	DD	FLAT:??_C@_07PJFMFMDK@?$HLblood1?$AA@
	DD	00H
	DD	FLAT:??_C@_07NCHBAPPJ@?$HLblood2?$AA@
	DD	00H
	DD	FLAT:??_C@_07MLGKDOLI@?$HLblood3?$AA@
	DD	00H
	DD	FLAT:??_C@_07IECLKIHP@?$HLblood4?$AA@
	DD	00H
	DD	FLAT:??_C@_07JNDAJJDO@?$HLblood5?$AA@
	DD	00H
	DD	FLAT:??_C@_07LGBNMKPN@?$HLblood6?$AA@
	DD	00H
	DD	FLAT:??_C@_08EKKEMNII@?$HLyblood1?$AA@
	DD	00H
	DD	FLAT:??_C@_08GBIJJOEL@?$HLyblood2?$AA@
	DD	00H
	DD	FLAT:??_C@_08HIJCKPAK@?$HLyblood3?$AA@
	DD	00H
	DD	FLAT:??_C@_08DHNDDJMN@?$HLyblood4?$AA@
	DD	00H
	DD	FLAT:??_C@_08COMIAIIM@?$HLyblood5?$AA@
	DD	00H
	DD	FLAT:??_C@_08FOFFLEP@?$HLyblood6?$AA@
	DD	00H
	DD	FLAT:??_C@_07GBLDBHHO@?$HLbreak1?$AA@
	DD	00H
	DD	FLAT:??_C@_07EKJOEELN@?$HLbreak2?$AA@
	DD	00H
	DD	FLAT:??_C@_07FDIFHFPM@?$HLbreak3?$AA@
	DD	00H
	DD	FLAT:??_C@_09DDOIOKLH@?$HLbigshot1?$AA@
	DD	00H
	DD	FLAT:??_C@_09BIMFLJHE@?$HLbigshot2?$AA@
	DD	00H
	DD	FLAT:??_C@_09BNOIIDF@?$HLbigshot3?$AA@
	DD	00H
	DD	FLAT:??_C@_09EOJPBOPC@?$HLbigshot4?$AA@
	DD	00H
	DD	FLAT:??_C@_09FHIECPLD@?$HLbigshot5?$AA@
	DD	00H
	DD	FLAT:??_C@_06CLBDEEEH@?$HLspit1?$AA@
	DD	00H
	DD	FLAT:??_C@_06DOBHIE@?$HLspit2?$AA@
	DD	00H
	DD	FLAT:??_C@_08KBGMNKJH@?$HLbproof1?$AA@
	DD	00H
	DD	FLAT:??_C@_0L@BMKNAKHM@?$HLgargstomp?$AA@
	DD	00H
	DD	FLAT:??_C@_0L@LCBCMICA@?$HLsmscorch1?$AA@
	DD	00H
	DD	FLAT:??_C@_0L@JJDPJLOD@?$HLsmscorch2?$AA@
	DD	00H
	DD	FLAT:??_C@_0L@IACEKKKC@?$HLsmscorch3?$AA@
	DD	00H
	DD	FLAT:??_C@_0L@KNNPHAP@?$HLmommablob?$AA@
	DD	00H
	DD	FLAT:??_C@_0L@KNNPHAP@?$HLmommablob?$AA@
	DD	00H
?m_DataMap@CDecal@@2Udatamap_s@@A DD 00H		; CDecal::m_DataMap
	DD	00H
	DD	FLAT:??_C@_06HLKFCCHD@CDecal?$AA@
	DD	00H
_DATA	ENDS
;	COMDAT ??_C@_06HLKFCCHD@CDecal?$AA@
CONST	SEGMENT
??_C@_06HLKFCCHD@CDecal?$AA@ DB 'CDecal', 00H		; `string'
CONST	ENDS
PUBLIC	??_H@YGXPAXIIP6EPAX0@Z@Z			; `vector constructor iterator'
PUBLIC	??__G@YGXPAX0IIP6EPAX00@Z@Z			; `vector copy constructor iterator'
PUBLIC	?__empty_global_delete@@YAXPAX@Z		; __empty_global_delete
PUBLIC	?__empty_global_delete@@YAXPAXI@Z		; __empty_global_delete
PUBLIC	___local_stdio_printf_options
PUBLIC	??$__vcrt_va_start_verify_argument_type@QBD@@YAXXZ ; __vcrt_va_start_verify_argument_type<char const * const>
PUBLIC	__vsnprintf_l
PUBLIC	__vsprintf_l
PUBLIC	_sprintf
PUBLIC	??0Vector@@QAE@XZ				; Vector::Vector
PUBLIC	??0Vector@@QAE@MMM@Z				; Vector::Vector
PUBLIC	??0Vector@@QAE@ABV0@@Z				; Vector::Vector
PUBLIC	??8Vector@@QBEHABV0@@Z				; Vector::operator==
PUBLIC	??9Vector@@QBEHABV0@@Z				; Vector::operator!=
PUBLIC	??HVector@@QBE?AV0@ABV0@@Z			; Vector::operator+
PUBLIC	??GVector@@QBE?AV0@ABV0@@Z			; Vector::operator-
PUBLIC	??DVector@@QBE?AV0@M@Z				; Vector::operator*
PUBLIC	??BVector@@QAEPAMXZ				; Vector::operator float *
PUBLIC	??0gametrace_s@@QAE@XZ				; gametrace_s::gametrace_s
PUBLIC	?MESSAGE_BEGIN@@YAXHHPBMPAUedict_s@@@Z		; MESSAGE_BEGIN
PUBLIC	?GET_PRIVATE@@YAPAXPAUedict_s@@@Z		; GET_PRIVATE
PUBLIC	??2@YAPAXIPAX@Z					; operator new
PUBLIC	?UtlMemory_CalcNewAllocationCount@@YAHHHHH@Z	; UtlMemory_CalcNewAllocationCount
PUBLIC	??0CDatadescGeneratedNameHolder@@QAE@PBD@Z	; CDatadescGeneratedNameHolder::CDatadescGeneratedNameHolder
PUBLIC	??1CDatadescGeneratedNameHolder@@QAE@XZ		; CDatadescGeneratedNameHolder::~CDatadescGeneratedNameHolder
PUBLIC	?GenerateName@CDatadescGeneratedNameHolder@@QAEPBDPBD@Z ; CDatadescGeneratedNameHolder::GenerateName
PUBLIC	??0?$CUtlArray@PADV?$CUtlMemory@PADH@@@@QAE@HH@Z ; CUtlArray<char *,CUtlMemory<char *,int> >::CUtlArray<char *,CUtlMemory<char *,int> >
PUBLIC	??1?$CUtlArray@PADV?$CUtlMemory@PADH@@@@QAE@XZ	; CUtlArray<char *,CUtlMemory<char *,int> >::~CUtlArray<char *,CUtlMemory<char *,int> >
PUBLIC	??A?$CUtlArray@PADV?$CUtlMemory@PADH@@@@QAEAAPADH@Z ; CUtlArray<char *,CUtlMemory<char *,int> >::operator[]
PUBLIC	?Element@?$CUtlArray@PADV?$CUtlMemory@PADH@@@@QAEAAPADH@Z ; CUtlArray<char *,CUtlMemory<char *,int> >::Element
PUBLIC	?Base@?$CUtlArray@PADV?$CUtlMemory@PADH@@@@QAEPAPADXZ ; CUtlArray<char *,CUtlMemory<char *,int> >::Base
PUBLIC	?Count@?$CUtlArray@PADV?$CUtlMemory@PADH@@@@QBEHXZ ; CUtlArray<char *,CUtlMemory<char *,int> >::Count
PUBLIC	?IsValidIndex@?$CUtlArray@PADV?$CUtlMemory@PADH@@@@QBE_NH@Z ; CUtlArray<char *,CUtlMemory<char *,int> >::IsValidIndex
PUBLIC	?AddToTail@?$CUtlArray@PADV?$CUtlMemory@PADH@@@@QAEHABQAD@Z ; CUtlArray<char *,CUtlMemory<char *,int> >::AddToTail
PUBLIC	?InsertBefore@?$CUtlArray@PADV?$CUtlMemory@PADH@@@@QAEHHABQAD@Z ; CUtlArray<char *,CUtlMemory<char *,int> >::InsertBefore
PUBLIC	?RemoveAll@?$CUtlArray@PADV?$CUtlMemory@PADH@@@@QAEXXZ ; CUtlArray<char *,CUtlMemory<char *,int> >::RemoveAll
PUBLIC	?Purge@?$CUtlArray@PADV?$CUtlMemory@PADH@@@@QAEXXZ ; CUtlArray<char *,CUtlMemory<char *,int> >::Purge
PUBLIC	?GrowVector@?$CUtlArray@PADV?$CUtlMemory@PADH@@@@IAEXH@Z ; CUtlArray<char *,CUtlMemory<char *,int> >::GrowVector
PUBLIC	?ShiftElementsRight@?$CUtlArray@PADV?$CUtlMemory@PADH@@@@IAEXHH@Z ; CUtlArray<char *,CUtlMemory<char *,int> >::ShiftElementsRight
PUBLIC	??0?$CUtlMemory@PADH@@QAE@HH@Z			; CUtlMemory<char *,int>::CUtlMemory<char *,int>
PUBLIC	??1?$CUtlMemory@PADH@@QAE@XZ			; CUtlMemory<char *,int>::~CUtlMemory<char *,int>
PUBLIC	??A?$CUtlMemory@PADH@@QAEAAPADH@Z		; CUtlMemory<char *,int>::operator[]
PUBLIC	?IsIdxValid@?$CUtlMemory@PADH@@QBE_NH@Z		; CUtlMemory<char *,int>::IsIdxValid
PUBLIC	?Base@?$CUtlMemory@PADH@@QAEPAPADXZ		; CUtlMemory<char *,int>::Base
PUBLIC	?NumAllocated@?$CUtlMemory@PADH@@QBEHXZ		; CUtlMemory<char *,int>::NumAllocated
PUBLIC	?Grow@?$CUtlMemory@PADH@@QAEXH@Z		; CUtlMemory<char *,int>::Grow
PUBLIC	?Purge@?$CUtlMemory@PADH@@QAEXXZ		; CUtlMemory<char *,int>::Purge
PUBLIC	?IsExternallyAllocated@?$CUtlMemory@PADH@@QBE_NXZ ; CUtlMemory<char *,int>::IsExternallyAllocated
PUBLIC	?IsReadOnly@?$CUtlMemory@PADH@@QBE_NXZ		; CUtlMemory<char *,int>::IsReadOnly
PUBLIC	?ValidateGrowSize@?$CUtlMemory@PADH@@IAEXXZ	; CUtlMemory<char *,int>::ValidateGrowSize
PUBLIC	?ResetDbgInfo@?$CUtlArray@PADV?$CUtlMemory@PADH@@@@IAEXXZ ; CUtlArray<char *,CUtlMemory<char *,int> >::ResetDbgInfo
PUBLIC	??0IEntityFactory@@QAE@XZ			; IEntityFactory::IEntityFactory
PUBLIC	?ENT@@YAPAUedict_s@@PBUentvars_s@@@Z		; ENT
PUBLIC	?ENT@@YAPAUedict_s@@H@Z				; ENT
PUBLIC	?VARS@@YAPAUentvars_s@@PAUedict_s@@@Z		; VARS
PUBLIC	?ENTINDEX@@YAHPAUedict_s@@@Z			; ENTINDEX
PUBLIC	?FStringNull@@YAHH@Z				; FStringNull
PUBLIC	?FStrEq@@YAHPBD0@Z				; FStrEq
PUBLIC	?GetStdLightStyle@@YAHH@Z			; GetStdLightStyle
PUBLIC	??0CSave@@QAE@PAUsaverestore_s@@@Z		; CSave::CSave
PUBLIC	??1CSave@@QAE@XZ				; CSave::~CSave
PUBLIC	??0CRestore@@QAE@PAUsaverestore_s@@@Z		; CRestore::CRestore
PUBLIC	??1CRestore@@QAE@XZ				; CRestore::~CRestore
PUBLIC	?GetBaseMap@globalentity_s@@SAPAUdatamap_s@@XZ	; globalentity_s::GetBaseMap
PUBLIC	?GetBaseMap@CGlobalState@@CAPAUdatamap_s@@XZ	; CGlobalState::GetBaseMap
PUBLIC	??0CGlobalState@@QAE@XZ				; CGlobalState::CGlobalState
PUBLIC	?Reset@CGlobalState@@QAEXXZ			; CGlobalState::Reset
PUBLIC	?ClearStates@CGlobalState@@QAEXXZ		; CGlobalState::ClearStates
PUBLIC	?EntityAdd@CGlobalState@@QAEXHHW4GLOBALESTATE@@M@Z ; CGlobalState::EntityAdd
PUBLIC	?EntitySetState@CGlobalState@@QAEXHW4GLOBALESTATE@@@Z ; CGlobalState::EntitySetState
PUBLIC	?EntitySetTime@CGlobalState@@QAEXHM@Z		; CGlobalState::EntitySetTime
PUBLIC	?EntityUpdate@CGlobalState@@QAEXHH@Z		; CGlobalState::EntityUpdate
PUBLIC	?EntityFromTable@CGlobalState@@QAEPBUglobalentity_s@@H@Z ; CGlobalState::EntityFromTable
PUBLIC	?EntityGetState@CGlobalState@@QAE?AW4GLOBALESTATE@@H@Z ; CGlobalState::EntityGetState
PUBLIC	?EntityGetTime@CGlobalState@@QAEMH@Z		; CGlobalState::EntityGetTime
PUBLIC	?Save@CGlobalState@@QAEHAAVCSave@@@Z		; CGlobalState::Save
PUBLIC	?Restore@CGlobalState@@QAEHAAVCRestore@@@Z	; CGlobalState::Restore
PUBLIC	?DumpGlobals@CGlobalState@@QAEXXZ		; CGlobalState::DumpGlobals
PUBLIC	?Find@CGlobalState@@AAEPAUglobalentity_s@@H@Z	; CGlobalState::Find
PUBLIC	??0IPhysicLayer@@QAE@XZ				; IPhysicLayer::IPhysicLayer
PUBLIC	?GameInitNullPhysics@@YAXXZ			; GameInitNullPhysics
PUBLIC	?SaveGlobalState@@YAXPAUsaverestore_s@@@Z	; SaveGlobalState
PUBLIC	?RestoreGlobalState@@YAXPAUsaverestore_s@@@Z	; RestoreGlobalState
PUBLIC	?ResetGlobalState@@YAXXZ			; ResetGlobalState
PUBLIC	?Get@EHANDLE@@QAEPAUedict_s@@XZ			; EHANDLE::Get
PUBLIC	??BEHANDLE@@QAEHXZ				; EHANDLE::operator int
PUBLIC	??CEHANDLE@@QAEPAVCBaseEntity@@XZ		; EHANDLE::operator->
PUBLIC	?GetClassname@CBaseEntity@@QAEPBDXZ		; CBaseEntity::GetClassname
PUBLIC	?GetModel@CBaseEntity@@QAEPBDXZ			; CBaseEntity::GetModel
PUBLIC	?SetClassname@CBaseEntity@@QAEXPBD@Z		; CBaseEntity::SetClassname
PUBLIC	?Spawn@CBaseEntity@@UAEXXZ			; CBaseEntity::Spawn
PUBLIC	?Precache@CBaseEntity@@UAEXXZ			; CBaseEntity::Precache
PUBLIC	?KeyValue@CBaseEntity@@UAEXPAUKeyValueData_s@@@Z ; CBaseEntity::KeyValue
PUBLIC	?ObjectCaps@CBaseEntity@@UAEHXZ			; CBaseEntity::ObjectCaps
PUBLIC	?Activate@CBaseEntity@@UAEXXZ			; CBaseEntity::Activate
PUBLIC	?OnChangeLevel@CBaseEntity@@UAEXXZ		; CBaseEntity::OnChangeLevel
PUBLIC	?OnTeleport@CBaseEntity@@UAEXXZ			; CBaseEntity::OnTeleport
PUBLIC	?PortalSleep@CBaseEntity@@UAEXM@Z		; CBaseEntity::PortalSleep
PUBLIC	?StartMessage@CBaseEntity@@UAEXPAVCBasePlayer@@@Z ; CBaseEntity::StartMessage
PUBLIC	?GetPosition@CBaseEntity@@UAEMXZ		; CBaseEntity::GetPosition
PUBLIC	?OnChangeParent@CBaseEntity@@UAEXXZ		; CBaseEntity::OnChangeParent
PUBLIC	?OnClearParent@CBaseEntity@@UAEXXZ		; CBaseEntity::OnClearParent
PUBLIC	?OnRemove@CBaseEntity@@UAEXXZ			; CBaseEntity::OnRemove
PUBLIC	?Classify@CBaseEntity@@UAEHXZ			; CBaseEntity::Classify
PUBLIC	?DeathNotice@CBaseEntity@@UAEXPAUentvars_s@@@Z	; CBaseEntity::DeathNotice
PUBLIC	?IsRigidBody@CBaseEntity@@UAEHXZ		; CBaseEntity::IsRigidBody
PUBLIC	?GetState@CBaseEntity@@UAE?AW4STATE@@XZ		; CBaseEntity::GetState
PUBLIC	?GetState@CBaseEntity@@UAE?AW4STATE@@PAV1@@Z	; CBaseEntity::GetState
PUBLIC	?BloodColor@CBaseEntity@@UAEHXZ			; CBaseEntity::BloodColor
PUBLIC	?IsTriggered@CBaseEntity@@UAEHPAV1@@Z		; CBaseEntity::IsTriggered
PUBLIC	?MyMonsterPointer@CBaseEntity@@UAEPAVCBaseMonster@@XZ ; CBaseEntity::MyMonsterPointer
PUBLIC	?MySquadMonsterPointer@CBaseEntity@@UAEPAVCSquadMonster@@XZ ; CBaseEntity::MySquadMonsterPointer
PUBLIC	?GetToggleState@CBaseEntity@@UAEHXZ		; CBaseEntity::GetToggleState
PUBLIC	?AddPoints@CBaseEntity@@UAEXHH@Z		; CBaseEntity::AddPoints
PUBLIC	?AddPointsToTeam@CBaseEntity@@UAEXHH@Z		; CBaseEntity::AddPointsToTeam
PUBLIC	?AddPlayerItem@CBaseEntity@@UAEHPAVCBasePlayerItem@@@Z ; CBaseEntity::AddPlayerItem
PUBLIC	?RemovePlayerItem@CBaseEntity@@UAEHPAVCBasePlayerItem@@@Z ; CBaseEntity::RemovePlayerItem
PUBLIC	?GiveAmmo@CBaseEntity@@UAEHHPADH@Z		; CBaseEntity::GiveAmmo
PUBLIC	?GetDelay@CBaseEntity@@UAEMXZ			; CBaseEntity::GetDelay
PUBLIC	?IsMoving@CBaseEntity@@UAEHXZ			; CBaseEntity::IsMoving
PUBLIC	?OverrideReset@CBaseEntity@@UAEXXZ		; CBaseEntity::OverrideReset
PUBLIC	?TransferReset@CBaseEntity@@UAEXXZ		; CBaseEntity::TransferReset
PUBLIC	?SetToggleState@CBaseEntity@@UAEXH@Z		; CBaseEntity::SetToggleState
PUBLIC	?StartSneaking@CBaseEntity@@UAEXXZ		; CBaseEntity::StartSneaking
PUBLIC	?StopSneaking@CBaseEntity@@UAEXXZ		; CBaseEntity::StopSneaking
PUBLIC	?OnControls@CBaseEntity@@UAEHPAV1@@Z		; CBaseEntity::OnControls
PUBLIC	?IsSneaking@CBaseEntity@@UAEHXZ			; CBaseEntity::IsSneaking
PUBLIC	?IsAlive@CBaseEntity@@UAEHXZ			; CBaseEntity::IsAlive
PUBLIC	?IsBSPModel@CBaseEntity@@UAEHXZ			; CBaseEntity::IsBSPModel
PUBLIC	?IsCustomModel@CBaseEntity@@UAEHXZ		; CBaseEntity::IsCustomModel
PUBLIC	?ReflectGauss@CBaseEntity@@UAEHXZ		; CBaseEntity::ReflectGauss
PUBLIC	?HasTarget@CBaseEntity@@UAEHH@Z			; CBaseEntity::HasTarget
PUBLIC	?IsPlayer@CBaseEntity@@UAEHXZ			; CBaseEntity::IsPlayer
PUBLIC	?IsNetClient@CBaseEntity@@UAEHXZ		; CBaseEntity::IsNetClient
PUBLIC	?IsMonster@CBaseEntity@@UAEHXZ			; CBaseEntity::IsMonster
PUBLIC	?IsPushable@CBaseEntity@@UAEHXZ			; CBaseEntity::IsPushable
PUBLIC	?IsProjectile@CBaseEntity@@UAEHXZ		; CBaseEntity::IsProjectile
PUBLIC	?IsFuncScreen@CBaseEntity@@UAEHXZ		; CBaseEntity::IsFuncScreen
PUBLIC	?IsPortal@CBaseEntity@@UAEHXZ			; CBaseEntity::IsPortal
PUBLIC	?IsTank@CBaseEntity@@UAEHXZ			; CBaseEntity::IsTank
PUBLIC	?IsMover@CBaseEntity@@UAEHXZ			; CBaseEntity::IsMover
PUBLIC	?IsBreakable@CBaseEntity@@UAEHXZ		; CBaseEntity::IsBreakable
PUBLIC	?TeamID@CBaseEntity@@UAEPBDXZ			; CBaseEntity::TeamID
PUBLIC	?AddSpawnFlags@CBaseEntity@@UAEXH@Z		; CBaseEntity::AddSpawnFlags
PUBLIC	?HasSpawnFlags@CBaseEntity@@UBE_NH@Z		; CBaseEntity::HasSpawnFlags
PUBLIC	?SetFadeDistance@CBaseEntity@@UAEXH@Z		; CBaseEntity::SetFadeDistance
PUBLIC	?SetFlag@CBaseEntity@@UAEXH@Z			; CBaseEntity::SetFlag
PUBLIC	?HasFlag@CBaseEntity@@UBE_NH@Z			; CBaseEntity::HasFlag
PUBLIC	?RemoveFlag@CBaseEntity@@UAEXH@Z		; CBaseEntity::RemoveFlag
PUBLIC	?SetNullModel@CBaseEntity@@UAEXXZ		; CBaseEntity::SetNullModel
PUBLIC	?OnPickupObject@CBaseEntity@@UAEXXZ		; CBaseEntity::OnPickupObject
PUBLIC	?OnDropObject@CBaseEntity@@UAEXXZ		; CBaseEntity::OnDropObject
PUBLIC	?Think@CBaseEntity@@UAEXXZ			; CBaseEntity::Think
PUBLIC	?Use@CBaseEntity@@UAEXPAV1@0W4USE_TYPE@@M@Z	; CBaseEntity::Use
PUBLIC	?Touch@CBaseEntity@@UAEXPAV1@@Z			; CBaseEntity::Touch
PUBLIC	?Blocked@CBaseEntity@@UAEXPAV1@@Z		; CBaseEntity::Blocked
PUBLIC	?MoveDone@CBaseEntity@@UAEXXZ			; CBaseEntity::MoveDone
PUBLIC	??2CBaseEntity@@SAPAXIPAUentvars_s@@@Z		; CBaseEntity::operator new
PUBLIC	??3CBaseEntity@@SAXPAXPAUentvars_s@@@Z		; CBaseEntity::operator delete
PUBLIC	?SUB_CallUseToggle@CBaseEntity@@QAEXXZ		; CBaseEntity::SUB_CallUseToggle
PUBLIC	?Respawn@CBaseEntity@@UAEPAV1@XZ		; CBaseEntity::Respawn
PUBLIC	?Instance@CBaseEntity@@SAPAV1@PAUedict_s@@@Z	; CBaseEntity::Instance
PUBLIC	?FunctionCheck@CBaseEntity@@QAEXPAXPAD@Z	; CBaseEntity::FunctionCheck
PUBLIC	?ThinkSet@CBaseEntity@@QAEP81@AEXXZP81@AEXXZPAD@Z ; CBaseEntity::ThinkSet
PUBLIC	?UseSet@CBaseEntity@@QAEP81@AEXPAV1@0W4USE_TYPE@@M@ZP81@AEX001M@ZPAD@Z ; CBaseEntity::UseSet
PUBLIC	?UpdateOwner@CBaseEntity@@UAEXXZ		; CBaseEntity::UpdateOwner
PUBLIC	?FBecomeProne@CBaseEntity@@UAEHXZ		; CBaseEntity::FBecomeProne
PUBLIC	?edict@CBaseEntity@@QAEPAUedict_s@@XZ		; CBaseEntity::edict
PUBLIC	?Center@CBaseEntity@@UAE?AVVector@@XZ		; CBaseEntity::Center
PUBLIC	?EyePosition@CBaseEntity@@UAE?AVVector@@XZ	; CBaseEntity::EyePosition
PUBLIC	?EarPosition@CBaseEntity@@UAE?AVVector@@XZ	; CBaseEntity::EarPosition
PUBLIC	?BodyTarget@CBaseEntity@@UAE?AVVector@@ABV2@@Z	; CBaseEntity::BodyTarget
PUBLIC	?IsPointSized@CBaseEntity@@UBEHXZ		; CBaseEntity::IsPointSized
PUBLIC	?Illumination@CBaseEntity@@UAEHXZ		; CBaseEntity::Illumination
PUBLIC	??0CBaseEntity@@QAE@XZ				; CBaseEntity::CBaseEntity
PUBLIC	??1CBaseEntity@@QAE@XZ				; CBaseEntity::~CBaseEntity
PUBLIC	?Spawn@CWorld@@UAEXXZ				; CWorld::Spawn
PUBLIC	?Precache@CWorld@@UAEXXZ			; CWorld::Precache
PUBLIC	?KeyValue@CWorld@@UAEXPAUKeyValueData_s@@@Z	; CWorld::KeyValue
PUBLIC	??0CWorld@@QAE@XZ				; CWorld::CWorld
PUBLIC	??0CSound@@QAE@XZ				; CSound::CSound
PUBLIC	?ObjectCaps@CSoundEnt@@UAEHXZ			; CSoundEnt::ObjectCaps
PUBLIC	??0CSoundEnt@@QAE@XZ				; CSoundEnt::CSoundEnt
PUBLIC	?InitPhysic@CPhysicNull@@UAEXXZ			; CPhysicNull::InitPhysic
PUBLIC	?FreePhysic@CPhysicNull@@UAEXXZ			; CPhysicNull::FreePhysic
PUBLIC	?Initialized@CPhysicNull@@UAE_NXZ		; CPhysicNull::Initialized
PUBLIC	?GetUtilLibrary@CPhysicNull@@UAEPAXXZ		; CPhysicNull::GetUtilLibrary
PUBLIC	?Update@CPhysicNull@@UAEXM@Z			; CPhysicNull::Update
PUBLIC	?EndFrame@CPhysicNull@@UAEXXZ			; CPhysicNull::EndFrame
PUBLIC	?RemoveBody@CPhysicNull@@UAEXPAUedict_s@@@Z	; CPhysicNull::RemoveBody
PUBLIC	?RemoveBody@CPhysicNull@@UAEXPBX@Z		; CPhysicNull::RemoveBody
PUBLIC	?CreateBodyFromEntity@CPhysicNull@@UAEPAXPAVCBaseEntity@@@Z ; CPhysicNull::CreateBodyFromEntity
PUBLIC	?CreateBoxFromEntity@CPhysicNull@@UAEPAXPAVCBaseEntity@@@Z ; CPhysicNull::CreateBoxFromEntity
PUBLIC	?CreateKinematicBodyFromEntity@CPhysicNull@@UAEPAXPAVCBaseEntity@@@Z ; CPhysicNull::CreateKinematicBodyFromEntity
PUBLIC	?CreateStaticBodyFromEntity@CPhysicNull@@UAEPAXPAVCBaseEntity@@@Z ; CPhysicNull::CreateStaticBodyFromEntity
PUBLIC	?CreateVehicle@CPhysicNull@@UAEPAXPAVCBaseEntity@@H@Z ; CPhysicNull::CreateVehicle
PUBLIC	?RestoreBody@CPhysicNull@@UAEPAXPAVCBaseEntity@@@Z ; CPhysicNull::RestoreBody
PUBLIC	?SaveBody@CPhysicNull@@UAEXPAVCBaseEntity@@@Z	; CPhysicNull::SaveBody
PUBLIC	?SetOrigin@CPhysicNull@@UAEXPAVCBaseEntity@@ABVVector@@@Z ; CPhysicNull::SetOrigin
PUBLIC	?SetAngles@CPhysicNull@@UAEXPAVCBaseEntity@@ABVVector@@@Z ; CPhysicNull::SetAngles
PUBLIC	?SetVelocity@CPhysicNull@@UAEXPAVCBaseEntity@@ABVVector@@@Z ; CPhysicNull::SetVelocity
PUBLIC	?SetAvelocity@CPhysicNull@@UAEXPAVCBaseEntity@@ABVVector@@@Z ; CPhysicNull::SetAvelocity
PUBLIC	?MoveObject@CPhysicNull@@UAEXPAVCBaseEntity@@ABVVector@@@Z ; CPhysicNull::MoveObject
PUBLIC	?RotateObject@CPhysicNull@@UAEXPAVCBaseEntity@@ABVVector@@@Z ; CPhysicNull::RotateObject
PUBLIC	?SetLinearMomentum@CPhysicNull@@UAEXPAVCBaseEntity@@ABVVector@@@Z ; CPhysicNull::SetLinearMomentum
PUBLIC	?AddImpulse@CPhysicNull@@UAEXPAVCBaseEntity@@ABVVector@@1M@Z ; CPhysicNull::AddImpulse
PUBLIC	?AddForce@CPhysicNull@@UAEXPAVCBaseEntity@@ABVVector@@@Z ; CPhysicNull::AddForce
PUBLIC	?EnableCollision@CPhysicNull@@UAEXPAVCBaseEntity@@H@Z ; CPhysicNull::EnableCollision
PUBLIC	?MakeKinematic@CPhysicNull@@UAEXPAVCBaseEntity@@H@Z ; CPhysicNull::MakeKinematic
PUBLIC	?UpdateVehicle@CPhysicNull@@UAEXPAVCBaseEntity@@@Z ; CPhysicNull::UpdateVehicle
PUBLIC	?FLoadTree@CPhysicNull@@UAEHPAD@Z		; CPhysicNull::FLoadTree
PUBLIC	?CheckBINFile@CPhysicNull@@UAEHPAD@Z		; CPhysicNull::CheckBINFile
PUBLIC	?BuildCollisionTree@CPhysicNull@@UAEHPAD@Z	; CPhysicNull::BuildCollisionTree
PUBLIC	?UpdateEntityPos@CPhysicNull@@UAE_NPAVCBaseEntity@@@Z ; CPhysicNull::UpdateEntityPos
PUBLIC	?UpdateEntityAABB@CPhysicNull@@UAEXPAVCBaseEntity@@@Z ; CPhysicNull::UpdateEntityAABB
PUBLIC	?UpdateActorPos@CPhysicNull@@UAE_NPAVCBaseEntity@@@Z ; CPhysicNull::UpdateActorPos
PUBLIC	?SetupWorld@CPhysicNull@@UAEXXZ			; CPhysicNull::SetupWorld
PUBLIC	?DebugDraw@CPhysicNull@@UAEXXZ			; CPhysicNull::DebugDraw
PUBLIC	?DrawPSpeeds@CPhysicNull@@UAEXXZ		; CPhysicNull::DrawPSpeeds
PUBLIC	?FreeAllBodies@CPhysicNull@@UAEXXZ		; CPhysicNull::FreeAllBodies
PUBLIC	?TeleportCharacter@CPhysicNull@@UAEXPAVCBaseEntity@@@Z ; CPhysicNull::TeleportCharacter
PUBLIC	?TeleportActor@CPhysicNull@@UAEXPAVCBaseEntity@@@Z ; CPhysicNull::TeleportActor
PUBLIC	?MoveCharacter@CPhysicNull@@UAEXPAVCBaseEntity@@@Z ; CPhysicNull::MoveCharacter
PUBLIC	?MoveKinematic@CPhysicNull@@UAEXPAVCBaseEntity@@@Z ; CPhysicNull::MoveKinematic
PUBLIC	?SweepTest@CPhysicNull@@UAEXPAVCBaseEntity@@ABVVector@@111PAUtrace_s@@@Z ; CPhysicNull::SweepTest
PUBLIC	?SweepEntity@CPhysicNull@@UAEXPAVCBaseEntity@@ABVVector@@1PAUgametrace_s@@@Z ; CPhysicNull::SweepEntity
PUBLIC	?IsBodySleeping@CPhysicNull@@UAE_NPAVCBaseEntity@@@Z ; CPhysicNull::IsBodySleeping
PUBLIC	?GetCookingInterface@CPhysicNull@@UAEPAXXZ	; CPhysicNull::GetCookingInterface
PUBLIC	?GetPhysicInterface@CPhysicNull@@UAEPAXXZ	; CPhysicNull::GetPhysicInterface
PUBLIC	??0CPhysicNull@@QAE@XZ				; CPhysicNull::CPhysicNull
PUBLIC	?Spawn@CDecal@@UAEXXZ				; CDecal::Spawn
PUBLIC	?KeyValue@CDecal@@UAEXPAUKeyValueData_s@@@Z	; CDecal::KeyValue
PUBLIC	?StaticDecal@CDecal@@QAEXXZ			; CDecal::StaticDecal
PUBLIC	?TriggerDecal@CDecal@@QAEXPAVCBaseEntity@@0W4USE_TYPE@@M@Z ; CDecal::TriggerDecal
PUBLIC	?GetBaseMap@CDecal@@SAPAUdatamap_s@@XZ		; CDecal::GetBaseMap
PUBLIC	?GetDataDescMap@CDecal@@UAEPAUdatamap_s@@XZ	; CDecal::GetDataDescMap
PUBLIC	??0CDecal@@QAE@XZ				; CDecal::CDecal
PUBLIC	??0?$CEntityFactory@VCDecal@@@@QAE@PBD@Z	; CEntityFactory<CDecal>::CEntityFactory<CDecal>
PUBLIC	?Create@?$CEntityFactory@VCDecal@@@@UAEPAVCBaseEntity@@PBDPAUentvars_s@@@Z ; CEntityFactory<CDecal>::Create
PUBLIC	?Destroy@?$CEntityFactory@VCDecal@@@@UAEXPAVCBaseEntity@@@Z ; CEntityFactory<CDecal>::Destroy
PUBLIC	?GetEntitySize@?$CEntityFactory@VCDecal@@@@UAEIXZ ; CEntityFactory<CDecal>::GetEntitySize
PUBLIC	??$DataMapAccess@VCBaseEntity@@@@YAXPAVCBaseEntity@@PAPAUdatamap_s@@@Z ; DataMapAccess<CBaseEntity>
PUBLIC	??$DataMapInit@VCDecal@@@@YAPAUdatamap_s@@PAVCDecal@@@Z ; DataMapInit<CDecal>
PUBLIC	?ObjectCaps@CCorpse@@UAEHXZ			; CCorpse::ObjectCaps
PUBLIC	??0CCorpse@@QAE@XZ				; CCorpse::CCorpse
PUBLIC	??0?$CEntityFactory@VCCorpse@@@@QAE@PBD@Z	; CEntityFactory<CCorpse>::CEntityFactory<CCorpse>
PUBLIC	?Create@?$CEntityFactory@VCCorpse@@@@UAEPAVCBaseEntity@@PBDPAUentvars_s@@@Z ; CEntityFactory<CCorpse>::Create
PUBLIC	?Destroy@?$CEntityFactory@VCCorpse@@@@UAEXPAVCBaseEntity@@@Z ; CEntityFactory<CCorpse>::Destroy
PUBLIC	?GetEntitySize@?$CEntityFactory@VCCorpse@@@@UAEIXZ ; CEntityFactory<CCorpse>::GetEntitySize
PUBLIC	?CopyToBodyQue@@YAXPAVCBaseEntity@@@Z		; CopyToBodyQue
PUBLIC	??$DataMapInit@VCGlobalState@@@@YAPAUdatamap_s@@PAVCGlobalState@@@Z ; DataMapInit<CGlobalState>
PUBLIC	??$DataMapInit@Uglobalentity_s@@@@YAPAUdatamap_s@@PAUglobalentity_s@@@Z ; DataMapInit<globalentity_s>
PUBLIC	??0?$CEntityFactory@VCWorld@@@@QAE@PBD@Z	; CEntityFactory<CWorld>::CEntityFactory<CWorld>
PUBLIC	?Create@?$CEntityFactory@VCWorld@@@@UAEPAVCBaseEntity@@PBDPAUentvars_s@@@Z ; CEntityFactory<CWorld>::Create
PUBLIC	?Destroy@?$CEntityFactory@VCWorld@@@@UAEXPAVCBaseEntity@@@Z ; CEntityFactory<CWorld>::Destroy
PUBLIC	?GetEntitySize@?$CEntityFactory@VCWorld@@@@UAEIXZ ; CEntityFactory<CWorld>::GetEntitySize
PUBLIC	??$GetClassPtr@VCSoundEnt@@@@YAPAVCSoundEnt@@PAV0@@Z ; GetClassPtr<CSoundEnt>
PUBLIC	??$GetClassPtr@VCWorld@@@@YAPAVCWorld@@PAV0@PBD@Z ; GetClassPtr<CWorld>
PUBLIC	??$GetClassPtr@VCCorpse@@@@YAPAVCCorpse@@PAV0@PBD@Z ; GetClassPtr<CCorpse>
PUBLIC	??$GetClassPtr@VCDecal@@@@YAPAVCDecal@@PAV0@PBD@Z ; GetClassPtr<CDecal>
PUBLIC	??$CopyConstruct@PAD@@YAXPAPADABQAD@Z		; CopyConstruct<char *>
PUBLIC	??$Destruct@PAD@@YAXPAPAD@Z			; Destruct<char *>
PUBLIC	?_OptionsStorage@?1??__local_stdio_printf_options@@9@4_KA ; `__local_stdio_printf_options'::`2'::_OptionsStorage
PUBLIC	??_C@_00CNPNBAHC@?$AA@				; `string'
PUBLIC	??_C@_04EFCDBJNL@?$CFs?3?3?$AA@			; `string'
PUBLIC	??_7IEntityFactory@@6B@				; IEntityFactory::`vftable'
PUBLIC	?gGlobalState@@3VCGlobalState@@A		; gGlobalState
PUBLIC	??_7IPhysicLayer@@6B@				; IPhysicLayer::`vftable'
PUBLIC	??_7CBaseEntity@@6B@				; CBaseEntity::`vftable'
PUBLIC	??_C@_06MLKDMCBD@parent?$AA@			; `string'
PUBLIC	??_C@_08JJJAOBDI@movewith?$AA@			; `string'
PUBLIC	??_C@_0M@EAELDHJO@parentflags?$AA@		; `string'
PUBLIC	??_C@_05IAKJCFIM@style?$AA@			; `string'
PUBLIC	??_C@_0L@IKCANML@reflection?$AA@		; `string'
PUBLIC	??_C@_0N@JILDNHAP@vlight_cache?$AA@		; `string'
PUBLIC	??_C@_0L@JIJDCONP@customname?$AA@		; `string'
PUBLIC	??_C@_0CH@HELFJPDL@FUNCTION?5NOT?5IN?5TABLE?$CB?3?5?$CFs?3?$CFs?5?$CI?$CF@ ; `string'
PUBLIC	??_7CWorld@@6B@					; CWorld::`vftable'
PUBLIC	??_C@_0BB@EMJBJDBM@sprites?1null?4spr?$AA@	; `string'
PUBLIC	??_7CSoundEnt@@6B@				; CSoundEnt::`vftable'
PUBLIC	??_C@_0BJ@EIFNLFLK@?$CGCBaseEntity?3?3SUB_Remove?$AA@ ; `string'
PUBLIC	??_7CPhysicNull@@6B@				; CPhysicNull::`vftable'
PUBLIC	?NullPhysic@@3VCPhysicNull@@A			; NullPhysic
PUBLIC	??_C@_01GOHFPIOK@m?$AA@				; `string'
PUBLIC	??_C@_0BI@OMKFAIJM@mmnmmommommnonmmonqnmmo?$AA@	; `string'
PUBLIC	??_C@_0DE@PNCJLGMH@abcdefghijklmnopqrstuvwxyzyxwvut@ ; `string'
PUBLIC	??_C@_0CD@OIDFFBDA@mmmmmaaaaammmmmaaaaaabcdefgabcde@ ; `string'
PUBLIC	??_C@_0N@OJLDIBEI@mamamamamama?$AA@		; `string'
PUBLIC	??_C@_0CC@NMKOOBOD@jklmnopqrstuvwxyzyxwvutsrqponmlk@ ; `string'
PUBLIC	??_C@_0BC@KJNLDMIN@nmonqnmomnmomomno?$AA@	; `string'
PUBLIC	??_C@_0BN@HIBFHKHI@mmmaaaabcdefgmmmmaaaammmaamm?$AA@ ; `string'
PUBLIC	??_C@_0CL@JNLLPDGN@mmmaaammmaaammmabcdefaaaammmmabc@ ; `string'
PUBLIC	??_C@_0BB@PBGKNKPK@aaaaaaaazzzzzzzz?$AA@	; `string'
PUBLIC	??_C@_0BK@KOPHNNOA@mmamammmmammamamaaamammma?$AA@ ; `string'
PUBLIC	??_C@_0CF@FDHINAPJ@abcdefghijklmnopqrrqponmlkjihgfe@ ; `string'
PUBLIC	??_C@_0O@CLIHPPEL@mmnnmmnnnmmnn?$AA@		; `string'
PUBLIC	??_C@_01MCMALHOG@a?$AA@				; `string'
PUBLIC	??_C@_0CH@MMJACNEB@aabbccddeeffgghhiijjkkllmmmmmmmm@ ; `string'
PUBLIC	??_C@_0CH@KJMEFLAJ@abcdefghijklmmmmmmmmmmmmmmmmmmmm@ ; `string'
PUBLIC	??_C@_0CH@GAGAFDCK@acegikmmmmmmmmmmmmmmmmmmmmmmmmmm@ ; `string'
PUBLIC	??_C@_0CH@FHJDMKLN@llkkjjiihhggffeeddccbbaaaaaaaaaa@ ; `string'
PUBLIC	??_C@_0CH@GNNLHDIC@lkjihgfedcbaaaaaaaaaaaaaaaaaaaaa@ ; `string'
PUBLIC	??_C@_0CH@GGPNMIMM@kigecaaaaaaaaaaaaaaaaaaaaaaaaaaa@ ; `string'
PUBLIC	??_7CDecal@@6B@					; CDecal::`vftable'
PUBLIC	??_7?$CEntityFactory@VCDecal@@@@6B@		; CEntityFactory<CDecal>::`vftable'
PUBLIC	??_C@_09KFCFBPBF@infodecal?$AA@			; `string'
PUBLIC	?g_DataMapHolder@CDecal_DataDescInit@@3PAUdatamap_s@@A ; CDecal_DataDescInit::g_DataMapHolder
PUBLIC	??_C@_0M@LHBONHE@StaticDecal?$AA@		; `string'
PUBLIC	??_C@_0N@FOEAKCOD@TriggerDecal?$AA@		; `string'
PUBLIC	??_C@_07JDHEGGGP@texture?$AA@			; `string'
PUBLIC	??_C@_0BF@BLPBHMHG@Can?8t?5find?5decal?5?$CFs?6?$AA@ ; `string'
PUBLIC	??_C@_0BF@JJAPICJC@?$CGCDecal?3?3StaticDecal?$AA@ ; `string'
PUBLIC	??_C@_0BM@BHEFNEMH@?$CGCBaseEntity?3?3SUB_DoNothing?$AA@ ; `string'
PUBLIC	??_C@_0BG@BHLLJLMB@?$CGCDecal?3?3TriggerDecal?$AA@ ; `string'
PUBLIC	??_7CCorpse@@6B@				; CCorpse::`vftable'
PUBLIC	??_7?$CEntityFactory@VCCorpse@@@@6B@		; CEntityFactory<CCorpse>::`vftable'
PUBLIC	??_C@_07ILHJIGAO@bodyque?$AA@			; `string'
PUBLIC	??_C@_0P@FNEJMDKG@?9?9?5Globals?5?9?9?6?$AA@	; `string'
PUBLIC	??_C@_0N@PLLFNHGM@?$CFs?3?5?$CFs?5?$CI?$CFs?$CJ?6?$AA@ ; `string'
PUBLIC	?__LINE__Var@?0??EntityAdd@CGlobalState@@QAEXHHW4GLOBALESTATE@@M@Z@4JA ; `CGlobalState::EntityAdd'::`1'::__LINE__Var
PUBLIC	??_C@_0ED@IEKBIBI@d?3?2?$CBdiffusion?52020?2source?5code?52@ ; `string'
PUBLIC	??_C@_0BC@LGGJNCMA@?$CBFind?$CIglobalname?$CJ?$AA@ ; `string'
PUBLIC	??_C@_0BD@CJAPJJIM@pNewEntity?5?$CB?$DN?5NULL?$AA@ ; `string'
PUBLIC	?g_DataMapHolder@CGlobalState_DataDescInit@@3PAUdatamap_s@@A ; CGlobalState_DataDescInit::g_DataMapHolder
PUBLIC	?g_DataMapHolder@globalentity_t_DataDescInit@@3PAUdatamap_s@@A ; globalentity_t_DataDescInit::g_DataMapHolder
PUBLIC	??_C@_06FNIPBJLB@GLOBAL?$AA@			; `string'
PUBLIC	??_C@_04NLBHBMCO@GENT?$AA@			; `string'
PUBLIC	??_7?$CEntityFactory@VCWorld@@@@6B@		; CEntityFactory<CWorld>::`vftable'
PUBLIC	??_C@_0L@BIFLFHPF@worldspawn?$AA@		; `string'
PUBLIC	??_C@_0L@FKMMBKBD@sv_gravity?$AA@		; `string'
PUBLIC	??_C@_03BAAJCDMO@800?$AA@			; `string'
PUBLIC	??_C@_02DCIIBFLB@18?$AA@			; `string'
PUBLIC	??_C@_0M@DFOHBOK@sv_stepsize?$AA@		; `string'
PUBLIC	??_C@_01GBGANLPD@0?$AA@				; `string'
PUBLIC	??_C@_09CFHPPHOC@room_type?$AA@			; `string'
PUBLIC	??_C@_0BP@HCKPHKEP@?$CK?$CKCOULD?5NOT?5CREATE?5SOUNDENT?$CK?$CK?6?$AA@ ; `string'
PUBLIC	??_C@_0BA@HKOJACLM@common?1null?4wav?$AA@	; `string'
PUBLIC	??_C@_0BI@KOCMOAHK@items?1suitchargeok1?4wav?$AA@ ; `string'
PUBLIC	??_C@_0BF@FIJIKGHL@items?1gunpickup2?4wav?$AA@	; `string'
PUBLIC	??_C@_0BF@POAPOOGB@common?1bodydrop3?4wav?$AA@	; `string'
PUBLIC	??_C@_0BF@ODAKNONJ@common?1bodydrop4?4wav?$AA@	; `string'
PUBLIC	??_C@_0BB@GHAHFCKB@models?1hgibs?4mdl?$AA@	; `string'
PUBLIC	??_C@_0BB@JLBCHJGL@models?1agibs?4mdl?$AA@	; `string'
PUBLIC	??_C@_0O@DKJMLFCB@hits?1ric1?4wav?$AA@		; `string'
PUBLIC	??_C@_0O@LMAIMHIP@hits?1ric2?4wav?$AA@		; `string'
PUBLIC	??_C@_0O@HHFEBECK@hits?1ric3?4wav?$AA@		; `string'
PUBLIC	??_C@_0O@GKFBCEJC@hits?1ric4?4wav?$AA@		; `string'
PUBLIC	??_C@_0O@KBANPHDH@hits?1ric5?4wav?$AA@		; `string'
PUBLIC	??_C@_0BK@IAGLALLJ@?$CKError?5opening?5?4BIN?5file?6?$AA@ ; `string'
PUBLIC	??_C@_0BH@OOGPDDMH@?6?$CKPhysic?5Initialized?$CB?6?$AA@ ; `string'
PUBLIC	??_C@_0BK@HIINIOHF@?$CKError?5opening?5?4NOD?5file?6?$AA@ ; `string'
PUBLIC	??_C@_0BB@EGBBPBGK@?6?$CKGraph?5Loaded?$CB?6?$AA@ ; `string'
PUBLIC	??_C@_07BOLPGMIP@sv_zmax?$AA@			; `string'
PUBLIC	??_C@_0M@COFDEJEF@sv_wateramp?$AA@		; `string'
PUBLIC	??_C@_0BD@JJMJHJEB@Chapter?5title?3?5?$CFs?6?$AA@ ; `string'
PUBLIC	??_C@_0M@BHOJAFLH@env_message?$AA@		; `string'
PUBLIC	??_C@_0CA@HAEFOAPP@?$CGCBaseEntity?3?3SUB_CallUseToggle?$AA@ ; `string'
PUBLIC	??_C@_06COKHDAAL@v_dark?$AA@			; `string'
PUBLIC	??_C@_0P@GOEGBFFK@mp_defaultteam?$AA@		; `string'
PUBLIC	??_C@_09NFOPKLIK@sv_cheats?$AA@			; `string'
PUBLIC	??_C@_0BP@HGFFGMMK@sprites?1effects?1waterring2?4spr?$AA@ ; `string'
PUBLIC	??_C@_0BN@EEGJKDNA@sprites?1effects?1wsplash3?4spr?$AA@ ; `string'
PUBLIC	??_C@_0BM@OCIJOFFH@sprites?1effects?1splash2?4spr?$AA@ ; `string'
PUBLIC	??_C@_0BP@OKEFMAFH@sprites?1effects?1watertrail?4spr?$AA@ ; `string'
PUBLIC	??_C@_0CF@BNBCFGKI@items?1water_splash?1water_splash1@ ; `string'
PUBLIC	??_C@_0CF@JLIGCEAG@items?1water_splash?1water_splash2@ ; `string'
PUBLIC	??_C@_0CF@FANKPHKD@items?1water_splash?1water_splash3@ ; `string'
PUBLIC	??_C@_07OAIDGMCI@skyname?$AA@			; `string'
PUBLIC	??_C@_0L@NPFKENCH@sv_skyname?$AA@		; `string'
PUBLIC	??_C@_06OHLGPBPO@sounds?$AA@			; `string'
PUBLIC	??_C@_0L@PAPDKEGB@WaveHeight?$AA@		; `string'
PUBLIC	??_C@_08JOBCAEBO@MaxRange?$AA@			; `string'
PUBLIC	??_C@_0N@PNMHOEPJ@chaptertitle?$AA@		; `string'
PUBLIC	??_C@_03KJMBPJEB@fog?$AA@			; `string'
PUBLIC	??_C@_09GFBFFKIC@startdark?$AA@			; `string'
PUBLIC	??_C@_07HGILGPPG@newunit?$AA@			; `string'
PUBLIC	??_C@_0L@EJFCEOPJ@sv_newunit?$AA@		; `string'
PUBLIC	??_C@_09EPLNALMJ@gametitle?$AA@			; `string'
PUBLIC	??_C@_08ECBFKIGG@mapteams?$AA@			; `string'
PUBLIC	??_C@_0M@LIOFLGDM@defaultteam?$AA@		; `string'
PUBLIC	??_C@_1JC@EMNIBBBG@?$AAd?$AA?3?$AA?2?$AA?$CB?$AAd?$AAi?$AAf?$AAf?$AAu?$AAs?$AAi?$AAo?$AAn?$AA?5?$AA2?$AA0?$AA2?$AA0?$AA?2?$AAs?$AAo?$AAu?$AAr?$AAc?$AAe?$AA?5?$AAc?$AAo?$AAd?$AAe?$AA?5?$AA2@ ; `string'
PUBLIC	??_C@_1IK@DGJDJNN@?$AA?$CI?$AAB?$AAa?$AAs?$AAe?$AA?$CI?$AA?$CJ?$AA?5?$AA?$DN?$AA?$DN?$AA?5?$AAN?$AAU?$AAL?$AAL?$AA?$CJ?$AA?5?$AA?$HM?$AA?$HM?$AA?5?$AA?$CI?$AA?$CG?$AAs?$AAr?$AAc?$AA?5?$AA?$DM?$AA?5?$AAB?$AAa?$AAs?$AAe@ ; `string'
PUBLIC	??_C@_1JE@CIIIAKCN@?$AAd?$AA?3?$AA?2?$AA?$CB?$AAd?$AAi?$AAf?$AAf?$AAu?$AAs?$AAi?$AAo?$AAn?$AA?5?$AA2?$AA0?$AA2?$AA0?$AA?2?$AAs?$AAo?$AAu?$AAr?$AAc?$AAe?$AA?5?$AAc?$AAo?$AAd?$AAe?$AA?5?$AA2@ ; `string'
PUBLIC	??_C@_1BO@FOOHAONO@?$AAn?$AAG?$AAr?$AAo?$AAw?$AAS?$AAi?$AAz?$AAe?$AA?5?$AA?$DO?$AA?$DN?$AA?5?$AA0?$AA?$AA@ ; `string'
PUBLIC	??_C@_1BM@PFNFCCHH@?$AA?$CB?$AAI?$AAs?$AAR?$AAe?$AAa?$AAd?$AAO?$AAn?$AAl?$AAy?$AA?$CI?$AA?$CJ?$AA?$AA@ ; `string'
PUBLIC	??_C@_1BM@CKILBAKK@?$AAI?$AAs?$AAI?$AAd?$AAx?$AAV?$AAa?$AAl?$AAi?$AAd?$AA?$CI?$AAi?$AA?$CJ?$AA?$AA@ ; `string'
PUBLIC	??_C@_1FA@BPFBJKPF@?$AA?$CI?$AAe?$AAl?$AAe?$AAm?$AA?5?$AA?$DN?$AA?$DN?$AA?5?$AAC?$AAo?$AAu?$AAn?$AAt?$AA?$CI?$AA?$CJ?$AA?$CJ?$AA?5?$AA?$HM?$AA?$HM?$AA?5?$AAI?$AAs?$AAV?$AAa?$AAl?$AAi?$AAd?$AAI?$AAn?$AAd?$AAe@ ; `string'
PUBLIC	??_C@_1GM@CDMJDFPA@?$AAI?$AAs?$AAV?$AAa?$AAl?$AAi?$AAd?$AAI?$AAn?$AAd?$AAe?$AAx?$AA?$CI?$AAe?$AAl?$AAe?$AAm?$AA?$CJ?$AA?5?$AA?$HM?$AA?$HM?$AA?5?$AA?$CI?$AA?5?$AAm?$AA_?$AAS?$AAi?$AAz?$AAe?$AA?5?$AA?$DN@ ; `string'
PUBLIC	??_C@_1BA@PKCLMAEA@?$AAn?$AAu?$AAm?$AA?5?$AA?$DO?$AA?5?$AA0?$AA?$AA@ ; `string'
PUBLIC	??_C@_13COJANIEC@?$AA0?$AA?$AA@			; `string'
PUBLIC	??_C@_1BE@OPPFELHC@?$AAm?$AA_?$AAp?$AAM?$AAe?$AAm?$AAo?$AAr?$AAy?$AA?$AA@ ; `string'
PUBLIC	??_R4CBaseEntity@@6B@				; CBaseEntity::`RTTI Complete Object Locator'
PUBLIC	??_R0?AVCBaseEntity@@@8				; CBaseEntity `RTTI Type Descriptor'
PUBLIC	??_R3CBaseEntity@@8				; CBaseEntity::`RTTI Class Hierarchy Descriptor'
PUBLIC	??_R2CBaseEntity@@8				; CBaseEntity::`RTTI Base Class Array'
PUBLIC	??_R1A@?0A@EA@CBaseEntity@@8			; CBaseEntity::`RTTI Base Class Descriptor at (0,-1,0,64)'
PUBLIC	??_R4IEntityFactory@@6B@			; IEntityFactory::`RTTI Complete Object Locator'
PUBLIC	??_R0?AVIEntityFactory@@@8			; IEntityFactory `RTTI Type Descriptor'
PUBLIC	??_R3IEntityFactory@@8				; IEntityFactory::`RTTI Class Hierarchy Descriptor'
PUBLIC	??_R2IEntityFactory@@8				; IEntityFactory::`RTTI Base Class Array'
PUBLIC	??_R1A@?0A@EA@IEntityFactory@@8			; IEntityFactory::`RTTI Base Class Descriptor at (0,-1,0,64)'
PUBLIC	??_R4IPhysicLayer@@6B@				; IPhysicLayer::`RTTI Complete Object Locator'
PUBLIC	??_R0?AVIPhysicLayer@@@8			; IPhysicLayer `RTTI Type Descriptor'
PUBLIC	??_R3IPhysicLayer@@8				; IPhysicLayer::`RTTI Class Hierarchy Descriptor'
PUBLIC	??_R2IPhysicLayer@@8				; IPhysicLayer::`RTTI Base Class Array'
PUBLIC	??_R1A@?0A@EA@IPhysicLayer@@8			; IPhysicLayer::`RTTI Base Class Descriptor at (0,-1,0,64)'
PUBLIC	??_R4CWorld@@6B@				; CWorld::`RTTI Complete Object Locator'
PUBLIC	??_R0?AVCWorld@@@8				; CWorld `RTTI Type Descriptor'
PUBLIC	??_R3CWorld@@8					; CWorld::`RTTI Class Hierarchy Descriptor'
PUBLIC	??_R2CWorld@@8					; CWorld::`RTTI Base Class Array'
PUBLIC	??_R1A@?0A@EA@CWorld@@8				; CWorld::`RTTI Base Class Descriptor at (0,-1,0,64)'
PUBLIC	??_R4CSoundEnt@@6B@				; CSoundEnt::`RTTI Complete Object Locator'
PUBLIC	??_R0?AVCSoundEnt@@@8				; CSoundEnt `RTTI Type Descriptor'
PUBLIC	??_R3CSoundEnt@@8				; CSoundEnt::`RTTI Class Hierarchy Descriptor'
PUBLIC	??_R2CSoundEnt@@8				; CSoundEnt::`RTTI Base Class Array'
PUBLIC	??_R1A@?0A@EA@CSoundEnt@@8			; CSoundEnt::`RTTI Base Class Descriptor at (0,-1,0,64)'
PUBLIC	??_R4CPhysicNull@@6B@				; CPhysicNull::`RTTI Complete Object Locator'
PUBLIC	??_R0?AVCPhysicNull@@@8				; CPhysicNull `RTTI Type Descriptor'
PUBLIC	??_R3CPhysicNull@@8				; CPhysicNull::`RTTI Class Hierarchy Descriptor'
PUBLIC	??_R2CPhysicNull@@8				; CPhysicNull::`RTTI Base Class Array'
PUBLIC	??_R1A@?0A@EA@CPhysicNull@@8			; CPhysicNull::`RTTI Base Class Descriptor at (0,-1,0,64)'
PUBLIC	??_R4CDecal@@6B@				; CDecal::`RTTI Complete Object Locator'
PUBLIC	??_R0?AVCDecal@@@8				; CDecal `RTTI Type Descriptor'
PUBLIC	??_R3CDecal@@8					; CDecal::`RTTI Class Hierarchy Descriptor'
PUBLIC	??_R2CDecal@@8					; CDecal::`RTTI Base Class Array'
PUBLIC	??_R1A@?0A@EA@CDecal@@8				; CDecal::`RTTI Base Class Descriptor at (0,-1,0,64)'
PUBLIC	??_R4?$CEntityFactory@VCDecal@@@@6B@		; CEntityFactory<CDecal>::`RTTI Complete Object Locator'
PUBLIC	??_R0?AV?$CEntityFactory@VCDecal@@@@@8		; CEntityFactory<CDecal> `RTTI Type Descriptor'
PUBLIC	??_R3?$CEntityFactory@VCDecal@@@@8		; CEntityFactory<CDecal>::`RTTI Class Hierarchy Descriptor'
PUBLIC	??_R2?$CEntityFactory@VCDecal@@@@8		; CEntityFactory<CDecal>::`RTTI Base Class Array'
PUBLIC	??_R1A@?0A@EA@?$CEntityFactory@VCDecal@@@@8	; CEntityFactory<CDecal>::`RTTI Base Class Descriptor at (0,-1,0,64)'
PUBLIC	??_R4CCorpse@@6B@				; CCorpse::`RTTI Complete Object Locator'
PUBLIC	??_R0?AVCCorpse@@@8				; CCorpse `RTTI Type Descriptor'
PUBLIC	??_R3CCorpse@@8					; CCorpse::`RTTI Class Hierarchy Descriptor'
PUBLIC	??_R2CCorpse@@8					; CCorpse::`RTTI Base Class Array'
PUBLIC	??_R1A@?0A@EA@CCorpse@@8			; CCorpse::`RTTI Base Class Descriptor at (0,-1,0,64)'
PUBLIC	??_R4?$CEntityFactory@VCCorpse@@@@6B@		; CEntityFactory<CCorpse>::`RTTI Complete Object Locator'
PUBLIC	??_R0?AV?$CEntityFactory@VCCorpse@@@@@8		; CEntityFactory<CCorpse> `RTTI Type Descriptor'
PUBLIC	??_R3?$CEntityFactory@VCCorpse@@@@8		; CEntityFactory<CCorpse>::`RTTI Class Hierarchy Descriptor'
PUBLIC	??_R2?$CEntityFactory@VCCorpse@@@@8		; CEntityFactory<CCorpse>::`RTTI Base Class Array'
PUBLIC	??_R1A@?0A@EA@?$CEntityFactory@VCCorpse@@@@8	; CEntityFactory<CCorpse>::`RTTI Base Class Descriptor at (0,-1,0,64)'
PUBLIC	??_R4?$CEntityFactory@VCWorld@@@@6B@		; CEntityFactory<CWorld>::`RTTI Complete Object Locator'
PUBLIC	??_R0?AV?$CEntityFactory@VCWorld@@@@@8		; CEntityFactory<CWorld> `RTTI Type Descriptor'
PUBLIC	??_R3?$CEntityFactory@VCWorld@@@@8		; CEntityFactory<CWorld>::`RTTI Class Hierarchy Descriptor'
PUBLIC	??_R2?$CEntityFactory@VCWorld@@@@8		; CEntityFactory<CWorld>::`RTTI Base Class Array'
PUBLIC	??_R1A@?0A@EA@?$CEntityFactory@VCWorld@@@@8	; CEntityFactory<CWorld>::`RTTI Base Class Descriptor at (0,-1,0,64)'
PUBLIC	__real@00000000
PUBLIC	__real@3dcccccd
PUBLIC	__real@3f000000
PUBLIC	__real@3f800000
PUBLIC	__real@3fc0000000000000
PUBLIC	__real@3fd3333333333333
PUBLIC	__real@40a00000
PUBLIC	__real@45800000
PUBLIC	__real@bf800000
EXTRN	__purecall:PROC
EXTRN	??3@YAXPAXI@Z:PROC				; operator delete
EXTRN	??_U@YAPAXI@Z:PROC				; operator new[]
EXTRN	_atexit:PROC
EXTRN	__Init_thread_header:PROC
EXTRN	__Init_thread_abort:PROC
EXTRN	__Init_thread_footer:PROC
EXTRN	_memmove:PROC
EXTRN	_memset:PROC
EXTRN	_strcat:PROC
EXTRN	_strcpy:PROC
EXTRN	_strlen:PROC
EXTRN	___stdio_common_vsprintf:PROC
EXTRN	_calloc:PROC
EXTRN	_free:PROC
EXTRN	_malloc:PROC
EXTRN	_realloc:PROC
EXTRN	_atof:PROC
EXTRN	_atoi:PROC
EXTRN	??0matrix4x4@@QAE@XZ:PROC			; matrix4x4::matrix4x4
EXTRN	?Q_atoi@@YAHPBD@Z:PROC				; Q_atoi
EXTRN	?Q_strncmp@@YAHPBD0H@Z:PROC			; Q_strncmp
EXTRN	__wassert:PROC
EXTRN	?UTIL_Remove@@YAXPAVCBaseEntity@@@Z:PROC	; UTIL_Remove
EXTRN	?CreateEntityByName@@YAPAVCBaseEntity@@PBDPAUentvars_s@@@Z:PROC ; CreateEntityByName
EXTRN	?EntityFactoryDictionary@@YAPAVIEntityFactoryDictionary@@XZ:PROC ; EntityFactoryDictionary
EXTRN	?DBG_EntOfVars@@YAPAUedict_s@@PBUentvars_s@@@Z:PROC ; DBG_EntOfVars
EXTRN	?UTIL_SetSize@@YAXPAUentvars_s@@ABVVector@@1@Z:PROC ; UTIL_SetSize
EXTRN	?UTIL_SetOrigin@@YAXPAVCBaseEntity@@ABVVector@@@Z:PROC ; UTIL_SetOrigin
EXTRN	?UTIL_TraceLine@@YAXABVVector@@0W4IGNORE_MONSTERS@@PAUedict_s@@PAUgametrace_s@@@Z:PROC ; UTIL_TraceLine
EXTRN	?UTIL_StringToIntArray@@YAXPAHHPBD@Z:PROC	; UTIL_StringToIntArray
EXTRN	?DBG_AssertFunction@@YAXHPBD0H0@Z:PROC		; DBG_AssertFunction
EXTRN	?SENTENCEG_Init@@YAXXZ:PROC			; SENTENCEG_Init
EXTRN	?TEXTURETYPE_Init@@YAXXZ:PROC			; TEXTURETYPE_Init
EXTRN	?UTIL_GetModelType@@YA?AW4modtype_t@@H@Z:PROC	; UTIL_GetModelType
EXTRN	?UTIL_FunctionToName@@YAPBDPAUdatamap_s@@PAX@Z:PROC ; UTIL_FunctionToName
EXTRN	??0CSaveRestoreBuffer@@QAE@PAUsaverestore_s@@@Z:PROC ; CSaveRestoreBuffer::CSaveRestoreBuffer
EXTRN	??1CSaveRestoreBuffer@@QAE@XZ:PROC		; CSaveRestoreBuffer::~CSaveRestoreBuffer
EXTRN	?WriteFields@CSave@@QAEHPBDPBXPAUdatamap_s@@PAUtypedescription_s@@H@Z:PROC ; CSave::WriteFields
EXTRN	?ReadFields@CRestore@@QAEHPBDPBXPAUdatamap_s@@PAUtypedescription_s@@H@Z:PROC ; CRestore::ReadFields
EXTRN	??0CMeshDesc@@QAE@XZ:PROC			; CMeshDesc::CMeshDesc
EXTRN	??1CMeshDesc@@QAE@XZ:PROC			; CMeshDesc::~CMeshDesc
EXTRN	?GetDataDescMap@CBaseEntity@@UAEPAUdatamap_s@@XZ:PROC ; CBaseEntity::GetDataDescMap
EXTRN	?GetAbsOrigin@CBaseEntity@@QBEABVVector@@XZ:PROC ; CBaseEntity::GetAbsOrigin
EXTRN	?GetAbsAngles@CBaseEntity@@QBEABVVector@@XZ:PROC ; CBaseEntity::GetAbsAngles
EXTRN	?SetLocalAngles@CBaseEntity@@QAEXABVVector@@@Z:PROC ; CBaseEntity::SetLocalAngles
EXTRN	?SetLocalVelocity@CBaseEntity@@QAEXABVVector@@@Z:PROC ; CBaseEntity::SetLocalVelocity
EXTRN	?GetAbsVelocity@CBaseEntity@@QBEABVVector@@XZ:PROC ; CBaseEntity::GetAbsVelocity
EXTRN	?SetModel@CBaseEntity@@QAEXPBD@Z:PROC		; CBaseEntity::SetModel
EXTRN	?Save@CBaseEntity@@UAEHAAVCSave@@@Z:PROC	; CBaseEntity::Save
EXTRN	?Restore@CBaseEntity@@UAEHAAVCRestore@@@Z:PROC	; CBaseEntity::Restore
EXTRN	?SetObjectCollisionBox@CBaseEntity@@UAEXXZ:PROC	; CBaseEntity::SetObjectCollisionBox
EXTRN	?SetNextThink@CBaseEntity@@UAEXM@Z:PROC		; CBaseEntity::SetNextThink
EXTRN	?TraceAttack@CBaseEntity@@UAEXPAUentvars_s@@MVVector@@PAUgametrace_s@@H@Z:PROC ; CBaseEntity::TraceAttack
EXTRN	?TakeDamage@CBaseEntity@@UAEHPAUentvars_s@@0MH@Z:PROC ; CBaseEntity::TakeDamage
EXTRN	?TakeHealth@CBaseEntity@@UAEHMH@Z:PROC		; CBaseEntity::TakeHealth
EXTRN	?TakeArmor@CBaseEntity@@UAEHMH@Z:PROC		; CBaseEntity::TakeArmor
EXTRN	?Killed@CBaseEntity@@UAEXPAUentvars_s@@H@Z:PROC	; CBaseEntity::Killed
EXTRN	?TraceBleed@CBaseEntity@@UAEXMVVector@@PAUgametrace_s@@H@Z:PROC ; CBaseEntity::TraceBleed
EXTRN	?DamageDecal@CBaseEntity@@UAEHH@Z:PROC		; CBaseEntity::DamageDecal
EXTRN	?IsInWorld@CBaseEntity@@UAEHH@Z:PROC		; CBaseEntity::IsInWorld
EXTRN	?GetNextTarget@CBaseEntity@@UAEPAV1@XZ:PROC	; CBaseEntity::GetNextTarget
EXTRN	?SUB_Remove@CBaseEntity@@QAEXXZ:PROC		; CBaseEntity::SUB_Remove
EXTRN	?SUB_DoNothing@CBaseEntity@@QAEXXZ:PROC		; CBaseEntity::SUB_DoNothing
EXTRN	?Create@CBaseEntity@@SAPAV1@PADABVVector@@1PAUedict_s@@@Z:PROC ; CBaseEntity::Create
EXTRN	?FVisible@CBaseEntity@@UAEHPAV1@@Z:PROC		; CBaseEntity::FVisible
EXTRN	?FVisible@CBaseEntity@@UAEHABVVector@@@Z:PROC	; CBaseEntity::FVisible
EXTRN	?ShouldCollide@CBaseEntity@@UAEHPAV1@@Z:PROC	; CBaseEntity::ShouldCollide
EXTRN	?ClearEffects@CBaseEntity@@UAEXXZ:PROC		; CBaseEntity::ClearEffects
EXTRN	?InitGraph@CGraph@@QAEXXZ:PROC			; CGraph::InitGraph
EXTRN	?AllocNodes@CGraph@@QAEHXZ:PROC			; CGraph::AllocNodes
EXTRN	?CheckNODFile@CGraph@@QAEHPAD@Z:PROC		; CGraph::CheckNODFile
EXTRN	?FLoadGraph@CGraph@@QAEHPAD@Z:PROC		; CGraph::FLoadGraph
EXTRN	?Precache@CSoundEnt@@UAEXXZ:PROC		; CSoundEnt::Precache
EXTRN	?Spawn@CSoundEnt@@UAEXXZ:PROC			; CSoundEnt::Spawn
EXTRN	?Think@CSoundEnt@@UAEXXZ:PROC			; CSoundEnt::Think
EXTRN	?ClientPrecache@@YAXXZ:PROC			; ClientPrecache
EXTRN	?InstallGameRules@@YAPAVCGameRules@@XZ:PROC	; InstallGameRules
EXTRN	?BotLoadWaypointFile@@YAXXZ:PROC		; BotLoadWaypointFile
EXTRN	?W_Precache@@YAXXZ:PROC				; W_Precache
EXTRN	@__security_check_cookie@4:PROC
EXTRN	___CxxFrameHandler3:PROC
EXTRN	__Init_thread_epoch:DWORD
EXTRN	?g_vecZero@@3VVector@@B:BYTE			; g_vecZero
EXTRN	?g_engfuncs@@3Uenginefuncs_s@@A:BYTE		; g_engfuncs
EXTRN	?g_physfuncs@@3Userver_physics_api_s@@A:BYTE	; g_physfuncs
EXTRN	??_7type_info@@6B@:QWORD			; type_info::`vftable'
EXTRN	?gpGlobals@@3PAUglobalvars_t@@A:DWORD		; gpGlobals
EXTRN	?WorldPhysic@@3PAVIPhysicLayer@@A:DWORD		; WorldPhysic
EXTRN	?m_DataMap@CBaseEntity@@2Udatamap_s@@A:BYTE	; CBaseEntity::m_DataMap
EXTRN	?WorldGraph@@3VCGraph@@A:BYTE			; WorldGraph
EXTRN	?gInitHUD@@3HA:DWORD				; gInitHUD
EXTRN	?g_pGameRules@@3PAVCGameRules@@A:DWORD		; g_pGameRules
EXTRN	?mp_hidecorpses@@3Ucvar_s@@A:BYTE		; mp_hidecorpses
EXTRN	?pSoundEnt@@3PAVCSoundEnt@@A:DWORD		; pSoundEnt
EXTRN	?g_pLastSpawn@@3PAVCBaseEntity@@A:DWORD		; g_pLastSpawn
EXTRN	?gDisplayTitle@@3HA:DWORD			; gDisplayTitle
EXTRN	?g_fGameOver@@3HA:DWORD				; g_fGameOver
EXTRN	___security_cookie:DWORD
EXTRN	__fltused:DWORD
EXTRN	__tls_array:DWORD
EXTRN	__tls_index:DWORD
;	COMDAT ?_OptionsStorage@?1??__local_stdio_printf_options@@9@4_KA
_BSS	SEGMENT
?_OptionsStorage@?1??__local_stdio_printf_options@@9@4_KA DQ 01H DUP (?) ; `__local_stdio_printf_options'::`2'::_OptionsStorage
_BSS	ENDS
_BSS	SEGMENT
?gGlobalState@@3VCGlobalState@@A DQ 01H DUP (?)		; gGlobalState
?NullPhysic@@3VCPhysicNull@@A DD 01H DUP (?)		; NullPhysic
?infodecal@@3V?$CEntityFactory@VCDecal@@@@A DD 01H DUP (?) ; infodecal
?g_DataMapHolder@CDecal_DataDescInit@@3PAUdatamap_s@@A DD 01H DUP (?) ; CDecal_DataDescInit::g_DataMapHolder
?nameHolder@?1???$DataMapInit@VCDecal@@@@YAPAUdatamap_s@@PAVCDecal@@@Z@4VCDatadescGeneratedNameHolder@@A DB 01cH DUP (?) ; `DataMapInit<CDecal>'::`2'::nameHolder
?$TSS0@?1???$DataMapInit@VCDecal@@@@YAPAUdatamap_s@@PAVCDecal@@@Z@4HA DD 01H DUP (?) ; `DataMapInit<CDecal>'::`2'::$TSS0
?$TSS1@?1???$DataMapInit@VCDecal@@@@YAPAUdatamap_s@@PAVCDecal@@@Z@4HA DD 01H DUP (?) ; `DataMapInit<CDecal>'::`2'::$TSS1
?bodyque@@3V?$CEntityFactory@VCCorpse@@@@A DD 01H DUP (?) ; bodyque
?g_DataMapHolder@CGlobalState_DataDescInit@@3PAUdatamap_s@@A DD 01H DUP (?) ; CGlobalState_DataDescInit::g_DataMapHolder
?nameHolder@?1???$DataMapInit@VCGlobalState@@@@YAPAUdatamap_s@@PAVCGlobalState@@@Z@4VCDatadescGeneratedNameHolder@@A DB 01cH DUP (?) ; `DataMapInit<CGlobalState>'::`2'::nameHolder
?$TSS0@?1???$DataMapInit@VCGlobalState@@@@YAPAUdatamap_s@@PAVCGlobalState@@@Z@4HA DD 01H DUP (?) ; `DataMapInit<CGlobalState>'::`2'::$TSS0
?g_DataMapHolder@globalentity_t_DataDescInit@@3PAUdatamap_s@@A DD 01H DUP (?) ; globalentity_t_DataDescInit::g_DataMapHolder
?nameHolder@?1???$DataMapInit@Uglobalentity_s@@@@YAPAUdatamap_s@@PAUglobalentity_s@@@Z@4VCDatadescGeneratedNameHolder@@A DB 01cH DUP (?) ; `DataMapInit<globalentity_s>'::`2'::nameHolder
?$TSS0@?1???$DataMapInit@Uglobalentity_s@@@@YAPAUdatamap_s@@PAUglobalentity_s@@@Z@4HA DD 01H DUP (?) ; `DataMapInit<globalentity_s>'::`2'::$TSS0
?worldspawn@@3V?$CEntityFactory@VCWorld@@@@A DD 01H DUP (?) ; worldspawn
_BSS	ENDS
CRT$XCU	SEGMENT
?gGlobalState$initializer$@@3P6AXXZA DD FLAT:??__EgGlobalState@@YAXXZ ; gGlobalState$initializer$
CRT$XCU	ENDS
;	COMDAT __real@bf800000
CONST	SEGMENT
__real@bf800000 DD 0bf800000r			; -1
CONST	ENDS
;	COMDAT __real@45800000
CONST	SEGMENT
__real@45800000 DD 045800000r			; 4096
CONST	ENDS
;	COMDAT __real@40a00000
CONST	SEGMENT
__real@40a00000 DD 040a00000r			; 5
CONST	ENDS
;	COMDAT __real@3fd3333333333333
CONST	SEGMENT
__real@3fd3333333333333 DQ 03fd3333333333333r	; 0.3
CONST	ENDS
;	COMDAT __real@3fc0000000000000
CONST	SEGMENT
__real@3fc0000000000000 DQ 03fc0000000000000r	; 0.125
CONST	ENDS
;	COMDAT __real@3f800000
CONST	SEGMENT
__real@3f800000 DD 03f800000r			; 1
CONST	ENDS
;	COMDAT __real@3f000000
CONST	SEGMENT
__real@3f000000 DD 03f000000r			; 0.5
CONST	ENDS
;	COMDAT __real@3dcccccd
CONST	SEGMENT
__real@3dcccccd DD 03dcccccdr			; 0.1
CONST	ENDS
;	COMDAT __real@00000000
CONST	SEGMENT
__real@00000000 DD 000000000r			; 0
CONST	ENDS
;	COMDAT ??_R1A@?0A@EA@?$CEntityFactory@VCWorld@@@@8
rdata$r	SEGMENT
??_R1A@?0A@EA@?$CEntityFactory@VCWorld@@@@8 DD FLAT:??_R0?AV?$CEntityFactory@VCWorld@@@@@8 ; CEntityFactory<CWorld>::`RTTI Base Class Descriptor at (0,-1,0,64)'
	DD	01H
	DD	00H
	DD	0ffffffffH
	DD	00H
	DD	040H
	DD	FLAT:??_R3?$CEntityFactory@VCWorld@@@@8
rdata$r	ENDS
;	COMDAT ??_R2?$CEntityFactory@VCWorld@@@@8
rdata$r	SEGMENT
??_R2?$CEntityFactory@VCWorld@@@@8 DD FLAT:??_R1A@?0A@EA@?$CEntityFactory@VCWorld@@@@8 ; CEntityFactory<CWorld>::`RTTI Base Class Array'
	DD	FLAT:??_R1A@?0A@EA@IEntityFactory@@8
rdata$r	ENDS
;	COMDAT ??_R3?$CEntityFactory@VCWorld@@@@8
rdata$r	SEGMENT
??_R3?$CEntityFactory@VCWorld@@@@8 DD 00H		; CEntityFactory<CWorld>::`RTTI Class Hierarchy Descriptor'
	DD	00H
	DD	02H
	DD	FLAT:??_R2?$CEntityFactory@VCWorld@@@@8
rdata$r	ENDS
;	COMDAT ??_R0?AV?$CEntityFactory@VCWorld@@@@@8
data$r	SEGMENT
??_R0?AV?$CEntityFactory@VCWorld@@@@@8 DD FLAT:??_7type_info@@6B@ ; CEntityFactory<CWorld> `RTTI Type Descriptor'
	DD	00H
	DB	'.?AV?$CEntityFactory@VCWorld@@@@', 00H
data$r	ENDS
;	COMDAT ??_R4?$CEntityFactory@VCWorld@@@@6B@
rdata$r	SEGMENT
??_R4?$CEntityFactory@VCWorld@@@@6B@ DD 00H		; CEntityFactory<CWorld>::`RTTI Complete Object Locator'
	DD	00H
	DD	00H
	DD	FLAT:??_R0?AV?$CEntityFactory@VCWorld@@@@@8
	DD	FLAT:??_R3?$CEntityFactory@VCWorld@@@@8
rdata$r	ENDS
;	COMDAT ??_R1A@?0A@EA@?$CEntityFactory@VCCorpse@@@@8
rdata$r	SEGMENT
??_R1A@?0A@EA@?$CEntityFactory@VCCorpse@@@@8 DD FLAT:??_R0?AV?$CEntityFactory@VCCorpse@@@@@8 ; CEntityFactory<CCorpse>::`RTTI Base Class Descriptor at (0,-1,0,64)'
	DD	01H
	DD	00H
	DD	0ffffffffH
	DD	00H
	DD	040H
	DD	FLAT:??_R3?$CEntityFactory@VCCorpse@@@@8
rdata$r	ENDS
;	COMDAT ??_R2?$CEntityFactory@VCCorpse@@@@8
rdata$r	SEGMENT
??_R2?$CEntityFactory@VCCorpse@@@@8 DD FLAT:??_R1A@?0A@EA@?$CEntityFactory@VCCorpse@@@@8 ; CEntityFactory<CCorpse>::`RTTI Base Class Array'
	DD	FLAT:??_R1A@?0A@EA@IEntityFactory@@8
rdata$r	ENDS
;	COMDAT ??_R3?$CEntityFactory@VCCorpse@@@@8
rdata$r	SEGMENT
??_R3?$CEntityFactory@VCCorpse@@@@8 DD 00H		; CEntityFactory<CCorpse>::`RTTI Class Hierarchy Descriptor'
	DD	00H
	DD	02H
	DD	FLAT:??_R2?$CEntityFactory@VCCorpse@@@@8
rdata$r	ENDS
;	COMDAT ??_R0?AV?$CEntityFactory@VCCorpse@@@@@8
data$r	SEGMENT
??_R0?AV?$CEntityFactory@VCCorpse@@@@@8 DD FLAT:??_7type_info@@6B@ ; CEntityFactory<CCorpse> `RTTI Type Descriptor'
	DD	00H
	DB	'.?AV?$CEntityFactory@VCCorpse@@@@', 00H
data$r	ENDS
;	COMDAT ??_R4?$CEntityFactory@VCCorpse@@@@6B@
rdata$r	SEGMENT
??_R4?$CEntityFactory@VCCorpse@@@@6B@ DD 00H		; CEntityFactory<CCorpse>::`RTTI Complete Object Locator'
	DD	00H
	DD	00H
	DD	FLAT:??_R0?AV?$CEntityFactory@VCCorpse@@@@@8
	DD	FLAT:??_R3?$CEntityFactory@VCCorpse@@@@8
rdata$r	ENDS
;	COMDAT ??_R1A@?0A@EA@CCorpse@@8
rdata$r	SEGMENT
??_R1A@?0A@EA@CCorpse@@8 DD FLAT:??_R0?AVCCorpse@@@8	; CCorpse::`RTTI Base Class Descriptor at (0,-1,0,64)'
	DD	01H
	DD	00H
	DD	0ffffffffH
	DD	00H
	DD	040H
	DD	FLAT:??_R3CCorpse@@8
rdata$r	ENDS
;	COMDAT ??_R2CCorpse@@8
rdata$r	SEGMENT
??_R2CCorpse@@8 DD FLAT:??_R1A@?0A@EA@CCorpse@@8	; CCorpse::`RTTI Base Class Array'
	DD	FLAT:??_R1A@?0A@EA@CBaseEntity@@8
rdata$r	ENDS
;	COMDAT ??_R3CCorpse@@8
rdata$r	SEGMENT
??_R3CCorpse@@8 DD 00H					; CCorpse::`RTTI Class Hierarchy Descriptor'
	DD	00H
	DD	02H
	DD	FLAT:??_R2CCorpse@@8
rdata$r	ENDS
;	COMDAT ??_R0?AVCCorpse@@@8
data$r	SEGMENT
??_R0?AVCCorpse@@@8 DD FLAT:??_7type_info@@6B@		; CCorpse `RTTI Type Descriptor'
	DD	00H
	DB	'.?AVCCorpse@@', 00H
data$r	ENDS
;	COMDAT ??_R4CCorpse@@6B@
rdata$r	SEGMENT
??_R4CCorpse@@6B@ DD 00H				; CCorpse::`RTTI Complete Object Locator'
	DD	00H
	DD	00H
	DD	FLAT:??_R0?AVCCorpse@@@8
	DD	FLAT:??_R3CCorpse@@8
rdata$r	ENDS
;	COMDAT ??_R1A@?0A@EA@?$CEntityFactory@VCDecal@@@@8
rdata$r	SEGMENT
??_R1A@?0A@EA@?$CEntityFactory@VCDecal@@@@8 DD FLAT:??_R0?AV?$CEntityFactory@VCDecal@@@@@8 ; CEntityFactory<CDecal>::`RTTI Base Class Descriptor at (0,-1,0,64)'
	DD	01H
	DD	00H
	DD	0ffffffffH
	DD	00H
	DD	040H
	DD	FLAT:??_R3?$CEntityFactory@VCDecal@@@@8
rdata$r	ENDS
;	COMDAT ??_R2?$CEntityFactory@VCDecal@@@@8
rdata$r	SEGMENT
??_R2?$CEntityFactory@VCDecal@@@@8 DD FLAT:??_R1A@?0A@EA@?$CEntityFactory@VCDecal@@@@8 ; CEntityFactory<CDecal>::`RTTI Base Class Array'
	DD	FLAT:??_R1A@?0A@EA@IEntityFactory@@8
rdata$r	ENDS
;	COMDAT ??_R3?$CEntityFactory@VCDecal@@@@8
rdata$r	SEGMENT
??_R3?$CEntityFactory@VCDecal@@@@8 DD 00H		; CEntityFactory<CDecal>::`RTTI Class Hierarchy Descriptor'
	DD	00H
	DD	02H
	DD	FLAT:??_R2?$CEntityFactory@VCDecal@@@@8
rdata$r	ENDS
;	COMDAT ??_R0?AV?$CEntityFactory@VCDecal@@@@@8
data$r	SEGMENT
??_R0?AV?$CEntityFactory@VCDecal@@@@@8 DD FLAT:??_7type_info@@6B@ ; CEntityFactory<CDecal> `RTTI Type Descriptor'
	DD	00H
	DB	'.?AV?$CEntityFactory@VCDecal@@@@', 00H
data$r	ENDS
;	COMDAT ??_R4?$CEntityFactory@VCDecal@@@@6B@
rdata$r	SEGMENT
??_R4?$CEntityFactory@VCDecal@@@@6B@ DD 00H		; CEntityFactory<CDecal>::`RTTI Complete Object Locator'
	DD	00H
	DD	00H
	DD	FLAT:??_R0?AV?$CEntityFactory@VCDecal@@@@@8
	DD	FLAT:??_R3?$CEntityFactory@VCDecal@@@@8
rdata$r	ENDS
;	COMDAT ??_R1A@?0A@EA@CDecal@@8
rdata$r	SEGMENT
??_R1A@?0A@EA@CDecal@@8 DD FLAT:??_R0?AVCDecal@@@8	; CDecal::`RTTI Base Class Descriptor at (0,-1,0,64)'
	DD	01H
	DD	00H
	DD	0ffffffffH
	DD	00H
	DD	040H
	DD	FLAT:??_R3CDecal@@8
rdata$r	ENDS
;	COMDAT ??_R2CDecal@@8
rdata$r	SEGMENT
??_R2CDecal@@8 DD FLAT:??_R1A@?0A@EA@CDecal@@8		; CDecal::`RTTI Base Class Array'
	DD	FLAT:??_R1A@?0A@EA@CBaseEntity@@8
rdata$r	ENDS
;	COMDAT ??_R3CDecal@@8
rdata$r	SEGMENT
??_R3CDecal@@8 DD 00H					; CDecal::`RTTI Class Hierarchy Descriptor'
	DD	00H
	DD	02H
	DD	FLAT:??_R2CDecal@@8
rdata$r	ENDS
;	COMDAT ??_R0?AVCDecal@@@8
data$r	SEGMENT
??_R0?AVCDecal@@@8 DD FLAT:??_7type_info@@6B@		; CDecal `RTTI Type Descriptor'
	DD	00H
	DB	'.?AVCDecal@@', 00H
data$r	ENDS
;	COMDAT ??_R4CDecal@@6B@
rdata$r	SEGMENT
??_R4CDecal@@6B@ DD 00H					; CDecal::`RTTI Complete Object Locator'
	DD	00H
	DD	00H
	DD	FLAT:??_R0?AVCDecal@@@8
	DD	FLAT:??_R3CDecal@@8
rdata$r	ENDS
;	COMDAT ??_R1A@?0A@EA@CPhysicNull@@8
rdata$r	SEGMENT
??_R1A@?0A@EA@CPhysicNull@@8 DD FLAT:??_R0?AVCPhysicNull@@@8 ; CPhysicNull::`RTTI Base Class Descriptor at (0,-1,0,64)'
	DD	01H
	DD	00H
	DD	0ffffffffH
	DD	00H
	DD	040H
	DD	FLAT:??_R3CPhysicNull@@8
rdata$r	ENDS
;	COMDAT ??_R2CPhysicNull@@8
rdata$r	SEGMENT
??_R2CPhysicNull@@8 DD FLAT:??_R1A@?0A@EA@CPhysicNull@@8 ; CPhysicNull::`RTTI Base Class Array'
	DD	FLAT:??_R1A@?0A@EA@IPhysicLayer@@8
rdata$r	ENDS
;	COMDAT ??_R3CPhysicNull@@8
rdata$r	SEGMENT
??_R3CPhysicNull@@8 DD 00H				; CPhysicNull::`RTTI Class Hierarchy Descriptor'
	DD	00H
	DD	02H
	DD	FLAT:??_R2CPhysicNull@@8
rdata$r	ENDS
;	COMDAT ??_R0?AVCPhysicNull@@@8
data$r	SEGMENT
??_R0?AVCPhysicNull@@@8 DD FLAT:??_7type_info@@6B@	; CPhysicNull `RTTI Type Descriptor'
	DD	00H
	DB	'.?AVCPhysicNull@@', 00H
data$r	ENDS
;	COMDAT ??_R4CPhysicNull@@6B@
rdata$r	SEGMENT
??_R4CPhysicNull@@6B@ DD 00H				; CPhysicNull::`RTTI Complete Object Locator'
	DD	00H
	DD	00H
	DD	FLAT:??_R0?AVCPhysicNull@@@8
	DD	FLAT:??_R3CPhysicNull@@8
rdata$r	ENDS
;	COMDAT ??_R1A@?0A@EA@CSoundEnt@@8
rdata$r	SEGMENT
??_R1A@?0A@EA@CSoundEnt@@8 DD FLAT:??_R0?AVCSoundEnt@@@8 ; CSoundEnt::`RTTI Base Class Descriptor at (0,-1,0,64)'
	DD	01H
	DD	00H
	DD	0ffffffffH
	DD	00H
	DD	040H
	DD	FLAT:??_R3CSoundEnt@@8
rdata$r	ENDS
;	COMDAT ??_R2CSoundEnt@@8
rdata$r	SEGMENT
??_R2CSoundEnt@@8 DD FLAT:??_R1A@?0A@EA@CSoundEnt@@8	; CSoundEnt::`RTTI Base Class Array'
	DD	FLAT:??_R1A@?0A@EA@CBaseEntity@@8
rdata$r	ENDS
;	COMDAT ??_R3CSoundEnt@@8
rdata$r	SEGMENT
??_R3CSoundEnt@@8 DD 00H				; CSoundEnt::`RTTI Class Hierarchy Descriptor'
	DD	00H
	DD	02H
	DD	FLAT:??_R2CSoundEnt@@8
rdata$r	ENDS
;	COMDAT ??_R0?AVCSoundEnt@@@8
data$r	SEGMENT
??_R0?AVCSoundEnt@@@8 DD FLAT:??_7type_info@@6B@	; CSoundEnt `RTTI Type Descriptor'
	DD	00H
	DB	'.?AVCSoundEnt@@', 00H
data$r	ENDS
;	COMDAT ??_R4CSoundEnt@@6B@
rdata$r	SEGMENT
??_R4CSoundEnt@@6B@ DD 00H				; CSoundEnt::`RTTI Complete Object Locator'
	DD	00H
	DD	00H
	DD	FLAT:??_R0?AVCSoundEnt@@@8
	DD	FLAT:??_R3CSoundEnt@@8
rdata$r	ENDS
;	COMDAT ??_R1A@?0A@EA@CWorld@@8
rdata$r	SEGMENT
??_R1A@?0A@EA@CWorld@@8 DD FLAT:??_R0?AVCWorld@@@8	; CWorld::`RTTI Base Class Descriptor at (0,-1,0,64)'
	DD	01H
	DD	00H
	DD	0ffffffffH
	DD	00H
	DD	040H
	DD	FLAT:??_R3CWorld@@8
rdata$r	ENDS
;	COMDAT ??_R2CWorld@@8
rdata$r	SEGMENT
??_R2CWorld@@8 DD FLAT:??_R1A@?0A@EA@CWorld@@8		; CWorld::`RTTI Base Class Array'
	DD	FLAT:??_R1A@?0A@EA@CBaseEntity@@8
rdata$r	ENDS
;	COMDAT ??_R3CWorld@@8
rdata$r	SEGMENT
??_R3CWorld@@8 DD 00H					; CWorld::`RTTI Class Hierarchy Descriptor'
	DD	00H
	DD	02H
	DD	FLAT:??_R2CWorld@@8
rdata$r	ENDS
;	COMDAT ??_R0?AVCWorld@@@8
data$r	SEGMENT
??_R0?AVCWorld@@@8 DD FLAT:??_7type_info@@6B@		; CWorld `RTTI Type Descriptor'
	DD	00H
	DB	'.?AVCWorld@@', 00H
data$r	ENDS
;	COMDAT ??_R4CWorld@@6B@
rdata$r	SEGMENT
??_R4CWorld@@6B@ DD 00H					; CWorld::`RTTI Complete Object Locator'
	DD	00H
	DD	00H
	DD	FLAT:??_R0?AVCWorld@@@8
	DD	FLAT:??_R3CWorld@@8
rdata$r	ENDS
;	COMDAT ??_R1A@?0A@EA@IPhysicLayer@@8
rdata$r	SEGMENT
??_R1A@?0A@EA@IPhysicLayer@@8 DD FLAT:??_R0?AVIPhysicLayer@@@8 ; IPhysicLayer::`RTTI Base Class Descriptor at (0,-1,0,64)'
	DD	00H
	DD	00H
	DD	0ffffffffH
	DD	00H
	DD	040H
	DD	FLAT:??_R3IPhysicLayer@@8
rdata$r	ENDS
;	COMDAT ??_R2IPhysicLayer@@8
rdata$r	SEGMENT
??_R2IPhysicLayer@@8 DD FLAT:??_R1A@?0A@EA@IPhysicLayer@@8 ; IPhysicLayer::`RTTI Base Class Array'
rdata$r	ENDS
;	COMDAT ??_R3IPhysicLayer@@8
rdata$r	SEGMENT
??_R3IPhysicLayer@@8 DD 00H				; IPhysicLayer::`RTTI Class Hierarchy Descriptor'
	DD	00H
	DD	01H
	DD	FLAT:??_R2IPhysicLayer@@8
rdata$r	ENDS
;	COMDAT ??_R0?AVIPhysicLayer@@@8
data$r	SEGMENT
??_R0?AVIPhysicLayer@@@8 DD FLAT:??_7type_info@@6B@	; IPhysicLayer `RTTI Type Descriptor'
	DD	00H
	DB	'.?AVIPhysicLayer@@', 00H
data$r	ENDS
;	COMDAT ??_R4IPhysicLayer@@6B@
rdata$r	SEGMENT
??_R4IPhysicLayer@@6B@ DD 00H				; IPhysicLayer::`RTTI Complete Object Locator'
	DD	00H
	DD	00H
	DD	FLAT:??_R0?AVIPhysicLayer@@@8
	DD	FLAT:??_R3IPhysicLayer@@8
rdata$r	ENDS
;	COMDAT ??_R1A@?0A@EA@IEntityFactory@@8
rdata$r	SEGMENT
??_R1A@?0A@EA@IEntityFactory@@8 DD FLAT:??_R0?AVIEntityFactory@@@8 ; IEntityFactory::`RTTI Base Class Descriptor at (0,-1,0,64)'
	DD	00H
	DD	00H
	DD	0ffffffffH
	DD	00H
	DD	040H
	DD	FLAT:??_R3IEntityFactory@@8
rdata$r	ENDS
;	COMDAT ??_R2IEntityFactory@@8
rdata$r	SEGMENT
??_R2IEntityFactory@@8 DD FLAT:??_R1A@?0A@EA@IEntityFactory@@8 ; IEntityFactory::`RTTI Base Class Array'
rdata$r	ENDS
;	COMDAT ??_R3IEntityFactory@@8
rdata$r	SEGMENT
??_R3IEntityFactory@@8 DD 00H				; IEntityFactory::`RTTI Class Hierarchy Descriptor'
	DD	00H
	DD	01H
	DD	FLAT:??_R2IEntityFactory@@8
rdata$r	ENDS
;	COMDAT ??_R0?AVIEntityFactory@@@8
data$r	SEGMENT
??_R0?AVIEntityFactory@@@8 DD FLAT:??_7type_info@@6B@	; IEntityFactory `RTTI Type Descriptor'
	DD	00H
	DB	'.?AVIEntityFactory@@', 00H
data$r	ENDS
;	COMDAT ??_R4IEntityFactory@@6B@
rdata$r	SEGMENT
??_R4IEntityFactory@@6B@ DD 00H				; IEntityFactory::`RTTI Complete Object Locator'
	DD	00H
	DD	00H
	DD	FLAT:??_R0?AVIEntityFactory@@@8
	DD	FLAT:??_R3IEntityFactory@@8
rdata$r	ENDS
;	COMDAT ??_R1A@?0A@EA@CBaseEntity@@8
rdata$r	SEGMENT
??_R1A@?0A@EA@CBaseEntity@@8 DD FLAT:??_R0?AVCBaseEntity@@@8 ; CBaseEntity::`RTTI Base Class Descriptor at (0,-1,0,64)'
	DD	00H
	DD	00H
	DD	0ffffffffH
	DD	00H
	DD	040H
	DD	FLAT:??_R3CBaseEntity@@8
rdata$r	ENDS
;	COMDAT ??_R2CBaseEntity@@8
rdata$r	SEGMENT
??_R2CBaseEntity@@8 DD FLAT:??_R1A@?0A@EA@CBaseEntity@@8 ; CBaseEntity::`RTTI Base Class Array'
rdata$r	ENDS
;	COMDAT ??_R3CBaseEntity@@8
rdata$r	SEGMENT
??_R3CBaseEntity@@8 DD 00H				; CBaseEntity::`RTTI Class Hierarchy Descriptor'
	DD	00H
	DD	01H
	DD	FLAT:??_R2CBaseEntity@@8
rdata$r	ENDS
;	COMDAT ??_R0?AVCBaseEntity@@@8
data$r	SEGMENT
??_R0?AVCBaseEntity@@@8 DD FLAT:??_7type_info@@6B@	; CBaseEntity `RTTI Type Descriptor'
	DD	00H
	DB	'.?AVCBaseEntity@@', 00H
data$r	ENDS
;	COMDAT ??_R4CBaseEntity@@6B@
rdata$r	SEGMENT
??_R4CBaseEntity@@6B@ DD 00H				; CBaseEntity::`RTTI Complete Object Locator'
	DD	00H
	DD	00H
	DD	FLAT:??_R0?AVCBaseEntity@@@8
	DD	FLAT:??_R3CBaseEntity@@8
rdata$r	ENDS
;	COMDAT ??_C@_1BE@OPPFELHC@?$AAm?$AA_?$AAp?$AAM?$AAe?$AAm?$AAo?$AAr?$AAy?$AA?$AA@
CONST	SEGMENT
??_C@_1BE@OPPFELHC@?$AAm?$AA_?$AAp?$AAM?$AAe?$AAm?$AAo?$AAr?$AAy?$AA?$AA@ DB 'm'
	DB	00H, '_', 00H, 'p', 00H, 'M', 00H, 'e', 00H, 'm', 00H, 'o', 00H
	DB	'r', 00H, 'y', 00H, 00H, 00H			; `string'
CONST	ENDS
;	COMDAT ??_C@_13COJANIEC@?$AA0?$AA?$AA@
CONST	SEGMENT
??_C@_13COJANIEC@?$AA0?$AA?$AA@ DB '0', 00H, 00H, 00H	; `string'
CONST	ENDS
;	COMDAT ??_C@_1BA@PKCLMAEA@?$AAn?$AAu?$AAm?$AA?5?$AA?$DO?$AA?5?$AA0?$AA?$AA@
CONST	SEGMENT
??_C@_1BA@PKCLMAEA@?$AAn?$AAu?$AAm?$AA?5?$AA?$DO?$AA?5?$AA0?$AA?$AA@ DB 'n'
	DB	00H, 'u', 00H, 'm', 00H, ' ', 00H, '>', 00H, ' ', 00H, '0', 00H
	DB	00H, 00H					; `string'
CONST	ENDS
;	COMDAT ??_C@_1GM@CDMJDFPA@?$AAI?$AAs?$AAV?$AAa?$AAl?$AAi?$AAd?$AAI?$AAn?$AAd?$AAe?$AAx?$AA?$CI?$AAe?$AAl?$AAe?$AAm?$AA?$CJ?$AA?5?$AA?$HM?$AA?$HM?$AA?5?$AA?$CI?$AA?5?$AAm?$AA_?$AAS?$AAi?$AAz?$AAe?$AA?5?$AA?$DN@
CONST	SEGMENT
??_C@_1GM@CDMJDFPA@?$AAI?$AAs?$AAV?$AAa?$AAl?$AAi?$AAd?$AAI?$AAn?$AAd?$AAe?$AAx?$AA?$CI?$AAe?$AAl?$AAe?$AAm?$AA?$CJ?$AA?5?$AA?$HM?$AA?$HM?$AA?5?$AA?$CI?$AA?5?$AAm?$AA_?$AAS?$AAi?$AAz?$AAe?$AA?5?$AA?$DN@ DB 'I'
	DB	00H, 's', 00H, 'V', 00H, 'a', 00H, 'l', 00H, 'i', 00H, 'd', 00H
	DB	'I', 00H, 'n', 00H, 'd', 00H, 'e', 00H, 'x', 00H, '(', 00H, 'e'
	DB	00H, 'l', 00H, 'e', 00H, 'm', 00H, ')', 00H, ' ', 00H, '|', 00H
	DB	'|', 00H, ' ', 00H, '(', 00H, ' ', 00H, 'm', 00H, '_', 00H, 'S'
	DB	00H, 'i', 00H, 'z', 00H, 'e', 00H, ' ', 00H, '=', 00H, '=', 00H
	DB	' ', 00H, '0', 00H, ' ', 00H, ')', 00H, ' ', 00H, '|', 00H, '|'
	DB	00H, ' ', 00H, '(', 00H, ' ', 00H, 'n', 00H, 'u', 00H, 'm', 00H
	DB	' ', 00H, '=', 00H, '=', 00H, ' ', 00H, '0', 00H, ' ', 00H, ')'
	DB	00H, 00H, 00H				; `string'
CONST	ENDS
;	COMDAT ??_C@_1FA@BPFBJKPF@?$AA?$CI?$AAe?$AAl?$AAe?$AAm?$AA?5?$AA?$DN?$AA?$DN?$AA?5?$AAC?$AAo?$AAu?$AAn?$AAt?$AA?$CI?$AA?$CJ?$AA?$CJ?$AA?5?$AA?$HM?$AA?$HM?$AA?5?$AAI?$AAs?$AAV?$AAa?$AAl?$AAi?$AAd?$AAI?$AAn?$AAd?$AAe@
CONST	SEGMENT
??_C@_1FA@BPFBJKPF@?$AA?$CI?$AAe?$AAl?$AAe?$AAm?$AA?5?$AA?$DN?$AA?$DN?$AA?5?$AAC?$AAo?$AAu?$AAn?$AAt?$AA?$CI?$AA?$CJ?$AA?$CJ?$AA?5?$AA?$HM?$AA?$HM?$AA?5?$AAI?$AAs?$AAV?$AAa?$AAl?$AAi?$AAd?$AAI?$AAn?$AAd?$AAe@ DB '('
	DB	00H, 'e', 00H, 'l', 00H, 'e', 00H, 'm', 00H, ' ', 00H, '=', 00H
	DB	'=', 00H, ' ', 00H, 'C', 00H, 'o', 00H, 'u', 00H, 'n', 00H, 't'
	DB	00H, '(', 00H, ')', 00H, ')', 00H, ' ', 00H, '|', 00H, '|', 00H
	DB	' ', 00H, 'I', 00H, 's', 00H, 'V', 00H, 'a', 00H, 'l', 00H, 'i'
	DB	00H, 'd', 00H, 'I', 00H, 'n', 00H, 'd', 00H, 'e', 00H, 'x', 00H
	DB	'(', 00H, 'e', 00H, 'l', 00H, 'e', 00H, 'm', 00H, ')', 00H, 00H
	DB	00H						; `string'
CONST	ENDS
;	COMDAT ??_C@_1BM@CKILBAKK@?$AAI?$AAs?$AAI?$AAd?$AAx?$AAV?$AAa?$AAl?$AAi?$AAd?$AA?$CI?$AAi?$AA?$CJ?$AA?$AA@
CONST	SEGMENT
??_C@_1BM@CKILBAKK@?$AAI?$AAs?$AAI?$AAd?$AAx?$AAV?$AAa?$AAl?$AAi?$AAd?$AA?$CI?$AAi?$AA?$CJ?$AA?$AA@ DB 'I'
	DB	00H, 's', 00H, 'I', 00H, 'd', 00H, 'x', 00H, 'V', 00H, 'a', 00H
	DB	'l', 00H, 'i', 00H, 'd', 00H, '(', 00H, 'i', 00H, ')', 00H, 00H
	DB	00H						; `string'
CONST	ENDS
;	COMDAT ??_C@_1BM@PFNFCCHH@?$AA?$CB?$AAI?$AAs?$AAR?$AAe?$AAa?$AAd?$AAO?$AAn?$AAl?$AAy?$AA?$CI?$AA?$CJ?$AA?$AA@
CONST	SEGMENT
??_C@_1BM@PFNFCCHH@?$AA?$CB?$AAI?$AAs?$AAR?$AAe?$AAa?$AAd?$AAO?$AAn?$AAl?$AAy?$AA?$CI?$AA?$CJ?$AA?$AA@ DB '!'
	DB	00H, 'I', 00H, 's', 00H, 'R', 00H, 'e', 00H, 'a', 00H, 'd', 00H
	DB	'O', 00H, 'n', 00H, 'l', 00H, 'y', 00H, '(', 00H, ')', 00H, 00H
	DB	00H						; `string'
CONST	ENDS
;	COMDAT ??_C@_1BO@FOOHAONO@?$AAn?$AAG?$AAr?$AAo?$AAw?$AAS?$AAi?$AAz?$AAe?$AA?5?$AA?$DO?$AA?$DN?$AA?5?$AA0?$AA?$AA@
CONST	SEGMENT
??_C@_1BO@FOOHAONO@?$AAn?$AAG?$AAr?$AAo?$AAw?$AAS?$AAi?$AAz?$AAe?$AA?5?$AA?$DO?$AA?$DN?$AA?5?$AA0?$AA?$AA@ DB 'n'
	DB	00H, 'G', 00H, 'r', 00H, 'o', 00H, 'w', 00H, 'S', 00H, 'i', 00H
	DB	'z', 00H, 'e', 00H, ' ', 00H, '>', 00H, '=', 00H, ' ', 00H, '0'
	DB	00H, 00H, 00H				; `string'
CONST	ENDS
;	COMDAT ??_C@_1JE@CIIIAKCN@?$AAd?$AA?3?$AA?2?$AA?$CB?$AAd?$AAi?$AAf?$AAf?$AAu?$AAs?$AAi?$AAo?$AAn?$AA?5?$AA2?$AA0?$AA2?$AA0?$AA?2?$AAs?$AAo?$AAu?$AAr?$AAc?$AAe?$AA?5?$AAc?$AAo?$AAd?$AAe?$AA?5?$AA2@
CONST	SEGMENT
??_C@_1JE@CIIIAKCN@?$AAd?$AA?3?$AA?2?$AA?$CB?$AAd?$AAi?$AAf?$AAf?$AAu?$AAs?$AAi?$AAo?$AAn?$AA?5?$AA2?$AA0?$AA2?$AA0?$AA?2?$AAs?$AAo?$AAu?$AAr?$AAc?$AAe?$AA?5?$AAc?$AAo?$AAd?$AAe?$AA?5?$AA2@ DB 'd'
	DB	00H, ':', 00H, '\', 00H, '!', 00H, 'd', 00H, 'i', 00H, 'f', 00H
	DB	'f', 00H, 'u', 00H, 's', 00H, 'i', 00H, 'o', 00H, 'n', 00H, ' '
	DB	00H, '2', 00H, '0', 00H, '2', 00H, '0', 00H, '\', 00H, 's', 00H
	DB	'o', 00H, 'u', 00H, 'r', 00H, 'c', 00H, 'e', 00H, ' ', 00H, 'c'
	DB	00H, 'o', 00H, 'd', 00H, 'e', 00H, ' ', 00H, '2', 00H, '0', 00H
	DB	'2', 00H, '2', 00H, '\', 00H, 'c', 00H, 'l', 00H, 'i', 00H, 'e'
	DB	00H, 'n', 00H, 't', 00H, '-', 00H, 's', 00H, 'e', 00H, 'r', 00H
	DB	'v', 00H, 'e', 00H, 'r', 00H, '\', 00H, 'g', 00H, 'a', 00H, 'm'
	DB	00H, 'e', 00H, '_', 00H, 's', 00H, 'h', 00H, 'a', 00H, 'r', 00H
	DB	'e', 00H, 'd', 00H, '\', 00H, 'u', 00H, 't', 00H, 'l', 00H, 'm'
	DB	00H, 'e', 00H, 'm', 00H, 'o', 00H, 'r', 00H, 'y', 00H, '.', 00H
	DB	'h', 00H, 00H, 00H				; `string'
CONST	ENDS
;	COMDAT ??_C@_1IK@DGJDJNN@?$AA?$CI?$AAB?$AAa?$AAs?$AAe?$AA?$CI?$AA?$CJ?$AA?5?$AA?$DN?$AA?$DN?$AA?5?$AAN?$AAU?$AAL?$AAL?$AA?$CJ?$AA?5?$AA?$HM?$AA?$HM?$AA?5?$AA?$CI?$AA?$CG?$AAs?$AAr?$AAc?$AA?5?$AA?$DM?$AA?5?$AAB?$AAa?$AAs?$AAe@
CONST	SEGMENT
??_C@_1IK@DGJDJNN@?$AA?$CI?$AAB?$AAa?$AAs?$AAe?$AA?$CI?$AA?$CJ?$AA?5?$AA?$DN?$AA?$DN?$AA?5?$AAN?$AAU?$AAL?$AAL?$AA?$CJ?$AA?5?$AA?$HM?$AA?$HM?$AA?5?$AA?$CI?$AA?$CG?$AAs?$AAr?$AAc?$AA?5?$AA?$DM?$AA?5?$AAB?$AAa?$AAs?$AAe@ DB '('
	DB	00H, 'B', 00H, 'a', 00H, 's', 00H, 'e', 00H, '(', 00H, ')', 00H
	DB	' ', 00H, '=', 00H, '=', 00H, ' ', 00H, 'N', 00H, 'U', 00H, 'L'
	DB	00H, 'L', 00H, ')', 00H, ' ', 00H, '|', 00H, '|', 00H, ' ', 00H
	DB	'(', 00H, '&', 00H, 's', 00H, 'r', 00H, 'c', 00H, ' ', 00H, '<'
	DB	00H, ' ', 00H, 'B', 00H, 'a', 00H, 's', 00H, 'e', 00H, '(', 00H
	DB	')', 00H, ')', 00H, ' ', 00H, '|', 00H, '|', 00H, ' ', 00H, '('
	DB	00H, '&', 00H, 's', 00H, 'r', 00H, 'c', 00H, ' ', 00H, '>', 00H
	DB	'=', 00H, ' ', 00H, '(', 00H, 'B', 00H, 'a', 00H, 's', 00H, 'e'
	DB	00H, '(', 00H, ')', 00H, ' ', 00H, '+', 00H, ' ', 00H, 'C', 00H
	DB	'o', 00H, 'u', 00H, 'n', 00H, 't', 00H, '(', 00H, ')', 00H, ')'
	DB	00H, ' ', 00H, ')', 00H, 00H, 00H		; `string'
CONST	ENDS
;	COMDAT ??_C@_1JC@EMNIBBBG@?$AAd?$AA?3?$AA?2?$AA?$CB?$AAd?$AAi?$AAf?$AAf?$AAu?$AAs?$AAi?$AAo?$AAn?$AA?5?$AA2?$AA0?$AA2?$AA0?$AA?2?$AAs?$AAo?$AAu?$AAr?$AAc?$AAe?$AA?5?$AAc?$AAo?$AAd?$AAe?$AA?5?$AA2@
CONST	SEGMENT
??_C@_1JC@EMNIBBBG@?$AAd?$AA?3?$AA?2?$AA?$CB?$AAd?$AAi?$AAf?$AAf?$AAu?$AAs?$AAi?$AAo?$AAn?$AA?5?$AA2?$AA0?$AA2?$AA0?$AA?2?$AAs?$AAo?$AAu?$AAr?$AAc?$AAe?$AA?5?$AAc?$AAo?$AAd?$AAe?$AA?5?$AA2@ DB 'd'
	DB	00H, ':', 00H, '\', 00H, '!', 00H, 'd', 00H, 'i', 00H, 'f', 00H
	DB	'f', 00H, 'u', 00H, 's', 00H, 'i', 00H, 'o', 00H, 'n', 00H, ' '
	DB	00H, '2', 00H, '0', 00H, '2', 00H, '0', 00H, '\', 00H, 's', 00H
	DB	'o', 00H, 'u', 00H, 'r', 00H, 'c', 00H, 'e', 00H, ' ', 00H, 'c'
	DB	00H, 'o', 00H, 'd', 00H, 'e', 00H, ' ', 00H, '2', 00H, '0', 00H
	DB	'2', 00H, '2', 00H, '\', 00H, 'c', 00H, 'l', 00H, 'i', 00H, 'e'
	DB	00H, 'n', 00H, 't', 00H, '-', 00H, 's', 00H, 'e', 00H, 'r', 00H
	DB	'v', 00H, 'e', 00H, 'r', 00H, '\', 00H, 'g', 00H, 'a', 00H, 'm'
	DB	00H, 'e', 00H, '_', 00H, 's', 00H, 'h', 00H, 'a', 00H, 'r', 00H
	DB	'e', 00H, 'd', 00H, '\', 00H, 'u', 00H, 't', 00H, 'l', 00H, 'a'
	DB	00H, 'r', 00H, 'r', 00H, 'a', 00H, 'y', 00H, '.', 00H, 'h', 00H
	DB	00H, 00H					; `string'
CONST	ENDS
;	COMDAT ??_C@_0M@LIOFLGDM@defaultteam?$AA@
CONST	SEGMENT
??_C@_0M@LIOFLGDM@defaultteam?$AA@ DB 'defaultteam', 00H ; `string'
CONST	ENDS
;	COMDAT ??_C@_08ECBFKIGG@mapteams?$AA@
CONST	SEGMENT
??_C@_08ECBFKIGG@mapteams?$AA@ DB 'mapteams', 00H	; `string'
CONST	ENDS
;	COMDAT ??_C@_09EPLNALMJ@gametitle?$AA@
CONST	SEGMENT
??_C@_09EPLNALMJ@gametitle?$AA@ DB 'gametitle', 00H	; `string'
CONST	ENDS
;	COMDAT ??_C@_0L@EJFCEOPJ@sv_newunit?$AA@
CONST	SEGMENT
??_C@_0L@EJFCEOPJ@sv_newunit?$AA@ DB 'sv_newunit', 00H	; `string'
CONST	ENDS
;	COMDAT ??_C@_07HGILGPPG@newunit?$AA@
CONST	SEGMENT
??_C@_07HGILGPPG@newunit?$AA@ DB 'newunit', 00H		; `string'
CONST	ENDS
;	COMDAT ??_C@_09GFBFFKIC@startdark?$AA@
CONST	SEGMENT
??_C@_09GFBFFKIC@startdark?$AA@ DB 'startdark', 00H	; `string'
CONST	ENDS
;	COMDAT ??_C@_03KJMBPJEB@fog?$AA@
CONST	SEGMENT
??_C@_03KJMBPJEB@fog?$AA@ DB 'fog', 00H			; `string'
CONST	ENDS
;	COMDAT ??_C@_0N@PNMHOEPJ@chaptertitle?$AA@
CONST	SEGMENT
??_C@_0N@PNMHOEPJ@chaptertitle?$AA@ DB 'chaptertitle', 00H ; `string'
CONST	ENDS
;	COMDAT ??_C@_08JOBCAEBO@MaxRange?$AA@
CONST	SEGMENT
??_C@_08JOBCAEBO@MaxRange?$AA@ DB 'MaxRange', 00H	; `string'
CONST	ENDS
;	COMDAT ??_C@_0L@PAPDKEGB@WaveHeight?$AA@
CONST	SEGMENT
??_C@_0L@PAPDKEGB@WaveHeight?$AA@ DB 'WaveHeight', 00H	; `string'
CONST	ENDS
;	COMDAT ??_C@_06OHLGPBPO@sounds?$AA@
CONST	SEGMENT
??_C@_06OHLGPBPO@sounds?$AA@ DB 'sounds', 00H		; `string'
CONST	ENDS
;	COMDAT ??_C@_0L@NPFKENCH@sv_skyname?$AA@
CONST	SEGMENT
??_C@_0L@NPFKENCH@sv_skyname?$AA@ DB 'sv_skyname', 00H	; `string'
CONST	ENDS
;	COMDAT ??_C@_07OAIDGMCI@skyname?$AA@
CONST	SEGMENT
??_C@_07OAIDGMCI@skyname?$AA@ DB 'skyname', 00H		; `string'
CONST	ENDS
;	COMDAT ??_C@_0CF@FANKPHKD@items?1water_splash?1water_splash3@
CONST	SEGMENT
??_C@_0CF@FANKPHKD@items?1water_splash?1water_splash3@ DB 'items/water_sp'
	DB	'lash/water_splash3.wav', 00H		; `string'
CONST	ENDS
;	COMDAT ??_C@_0CF@JLIGCEAG@items?1water_splash?1water_splash2@
CONST	SEGMENT
??_C@_0CF@JLIGCEAG@items?1water_splash?1water_splash2@ DB 'items/water_sp'
	DB	'lash/water_splash2.wav', 00H		; `string'
CONST	ENDS
;	COMDAT ??_C@_0CF@BNBCFGKI@items?1water_splash?1water_splash1@
CONST	SEGMENT
??_C@_0CF@BNBCFGKI@items?1water_splash?1water_splash1@ DB 'items/water_sp'
	DB	'lash/water_splash1.wav', 00H		; `string'
CONST	ENDS
;	COMDAT ??_C@_0BP@OKEFMAFH@sprites?1effects?1watertrail?4spr?$AA@
CONST	SEGMENT
??_C@_0BP@OKEFMAFH@sprites?1effects?1watertrail?4spr?$AA@ DB 'sprites/eff'
	DB	'ects/watertrail.spr', 00H			; `string'
CONST	ENDS
;	COMDAT ??_C@_0BM@OCIJOFFH@sprites?1effects?1splash2?4spr?$AA@
CONST	SEGMENT
??_C@_0BM@OCIJOFFH@sprites?1effects?1splash2?4spr?$AA@ DB 'sprites/effect'
	DB	's/splash2.spr', 00H				; `string'
CONST	ENDS
;	COMDAT ??_C@_0BN@EEGJKDNA@sprites?1effects?1wsplash3?4spr?$AA@
CONST	SEGMENT
??_C@_0BN@EEGJKDNA@sprites?1effects?1wsplash3?4spr?$AA@ DB 'sprites/effec'
	DB	'ts/wsplash3.spr', 00H			; `string'
CONST	ENDS
;	COMDAT ??_C@_0BP@HGFFGMMK@sprites?1effects?1waterring2?4spr?$AA@
CONST	SEGMENT
??_C@_0BP@HGFFGMMK@sprites?1effects?1waterring2?4spr?$AA@ DB 'sprites/eff'
	DB	'ects/waterring2.spr', 00H			; `string'
CONST	ENDS
;	COMDAT ??_C@_09NFOPKLIK@sv_cheats?$AA@
CONST	SEGMENT
??_C@_09NFOPKLIK@sv_cheats?$AA@ DB 'sv_cheats', 00H	; `string'
CONST	ENDS
;	COMDAT ??_C@_0P@GOEGBFFK@mp_defaultteam?$AA@
CONST	SEGMENT
??_C@_0P@GOEGBFFK@mp_defaultteam?$AA@ DB 'mp_defaultteam', 00H ; `string'
CONST	ENDS
;	COMDAT ??_C@_06COKHDAAL@v_dark?$AA@
CONST	SEGMENT
??_C@_06COKHDAAL@v_dark?$AA@ DB 'v_dark', 00H		; `string'
CONST	ENDS
;	COMDAT ??_C@_0CA@HAEFOAPP@?$CGCBaseEntity?3?3SUB_CallUseToggle?$AA@
CONST	SEGMENT
??_C@_0CA@HAEFOAPP@?$CGCBaseEntity?3?3SUB_CallUseToggle?$AA@ DB '&CBaseEn'
	DB	'tity::SUB_CallUseToggle', 00H		; `string'
CONST	ENDS
;	COMDAT ??_C@_0M@BHOJAFLH@env_message?$AA@
CONST	SEGMENT
??_C@_0M@BHOJAFLH@env_message?$AA@ DB 'env_message', 00H ; `string'
CONST	ENDS
;	COMDAT ??_C@_0BD@JJMJHJEB@Chapter?5title?3?5?$CFs?6?$AA@
CONST	SEGMENT
??_C@_0BD@JJMJHJEB@Chapter?5title?3?5?$CFs?6?$AA@ DB 'Chapter title: %s', 0aH
	DB	00H						; `string'
CONST	ENDS
;	COMDAT ??_C@_0M@COFDEJEF@sv_wateramp?$AA@
CONST	SEGMENT
??_C@_0M@COFDEJEF@sv_wateramp?$AA@ DB 'sv_wateramp', 00H ; `string'
CONST	ENDS
;	COMDAT ??_C@_07BOLPGMIP@sv_zmax?$AA@
CONST	SEGMENT
??_C@_07BOLPGMIP@sv_zmax?$AA@ DB 'sv_zmax', 00H		; `string'
CONST	ENDS
;	COMDAT ??_C@_0BB@EGBBPBGK@?6?$CKGraph?5Loaded?$CB?6?$AA@
CONST	SEGMENT
??_C@_0BB@EGBBPBGK@?6?$CKGraph?5Loaded?$CB?6?$AA@ DB 0aH, '*Graph Loaded!'
	DB	0aH, 00H					; `string'
CONST	ENDS
;	COMDAT ??_C@_0BK@HIINIOHF@?$CKError?5opening?5?4NOD?5file?6?$AA@
CONST	SEGMENT
??_C@_0BK@HIINIOHF@?$CKError?5opening?5?4NOD?5file?6?$AA@ DB '*Error open'
	DB	'ing .NOD file', 0aH, 00H			; `string'
CONST	ENDS
;	COMDAT ??_C@_0BH@OOGPDDMH@?6?$CKPhysic?5Initialized?$CB?6?$AA@
CONST	SEGMENT
??_C@_0BH@OOGPDDMH@?6?$CKPhysic?5Initialized?$CB?6?$AA@ DB 0aH, '*Physic '
	DB	'Initialized!', 0aH, 00H			; `string'
CONST	ENDS
;	COMDAT ??_C@_0BK@IAGLALLJ@?$CKError?5opening?5?4BIN?5file?6?$AA@
CONST	SEGMENT
??_C@_0BK@IAGLALLJ@?$CKError?5opening?5?4BIN?5file?6?$AA@ DB '*Error open'
	DB	'ing .BIN file', 0aH, 00H			; `string'
CONST	ENDS
;	COMDAT ??_C@_0O@KBANPHDH@hits?1ric5?4wav?$AA@
CONST	SEGMENT
??_C@_0O@KBANPHDH@hits?1ric5?4wav?$AA@ DB 'hits/ric5.wav', 00H ; `string'
CONST	ENDS
;	COMDAT ??_C@_0O@GKFBCEJC@hits?1ric4?4wav?$AA@
CONST	SEGMENT
??_C@_0O@GKFBCEJC@hits?1ric4?4wav?$AA@ DB 'hits/ric4.wav', 00H ; `string'
CONST	ENDS
;	COMDAT ??_C@_0O@HHFEBECK@hits?1ric3?4wav?$AA@
CONST	SEGMENT
??_C@_0O@HHFEBECK@hits?1ric3?4wav?$AA@ DB 'hits/ric3.wav', 00H ; `string'
CONST	ENDS
;	COMDAT ??_C@_0O@LMAIMHIP@hits?1ric2?4wav?$AA@
CONST	SEGMENT
??_C@_0O@LMAIMHIP@hits?1ric2?4wav?$AA@ DB 'hits/ric2.wav', 00H ; `string'
CONST	ENDS
;	COMDAT ??_C@_0O@DKJMLFCB@hits?1ric1?4wav?$AA@
CONST	SEGMENT
??_C@_0O@DKJMLFCB@hits?1ric1?4wav?$AA@ DB 'hits/ric1.wav', 00H ; `string'
CONST	ENDS
;	COMDAT ??_C@_0BB@JLBCHJGL@models?1agibs?4mdl?$AA@
CONST	SEGMENT
??_C@_0BB@JLBCHJGL@models?1agibs?4mdl?$AA@ DB 'models/agibs.mdl', 00H ; `string'
CONST	ENDS
;	COMDAT ??_C@_0BB@GHAHFCKB@models?1hgibs?4mdl?$AA@
CONST	SEGMENT
??_C@_0BB@GHAHFCKB@models?1hgibs?4mdl?$AA@ DB 'models/hgibs.mdl', 00H ; `string'
CONST	ENDS
;	COMDAT ??_C@_0BF@ODAKNONJ@common?1bodydrop4?4wav?$AA@
CONST	SEGMENT
??_C@_0BF@ODAKNONJ@common?1bodydrop4?4wav?$AA@ DB 'common/bodydrop4.wav', 00H ; `string'
CONST	ENDS
;	COMDAT ??_C@_0BF@POAPOOGB@common?1bodydrop3?4wav?$AA@
CONST	SEGMENT
??_C@_0BF@POAPOOGB@common?1bodydrop3?4wav?$AA@ DB 'common/bodydrop3.wav', 00H ; `string'
CONST	ENDS
;	COMDAT ??_C@_0BF@FIJIKGHL@items?1gunpickup2?4wav?$AA@
CONST	SEGMENT
??_C@_0BF@FIJIKGHL@items?1gunpickup2?4wav?$AA@ DB 'items/gunpickup2.wav', 00H ; `string'
CONST	ENDS
;	COMDAT ??_C@_0BI@KOCMOAHK@items?1suitchargeok1?4wav?$AA@
CONST	SEGMENT
??_C@_0BI@KOCMOAHK@items?1suitchargeok1?4wav?$AA@ DB 'items/suitchargeok1'
	DB	'.wav', 00H					; `string'
CONST	ENDS
;	COMDAT ??_C@_0BA@HKOJACLM@common?1null?4wav?$AA@
CONST	SEGMENT
??_C@_0BA@HKOJACLM@common?1null?4wav?$AA@ DB 'common/null.wav', 00H ; `string'
CONST	ENDS
;	COMDAT ??_C@_0BP@HCKPHKEP@?$CK?$CKCOULD?5NOT?5CREATE?5SOUNDENT?$CK?$CK?6?$AA@
CONST	SEGMENT
??_C@_0BP@HCKPHKEP@?$CK?$CKCOULD?5NOT?5CREATE?5SOUNDENT?$CK?$CK?6?$AA@ DB '*'
	DB	'*COULD NOT CREATE SOUNDENT**', 0aH, 00H	; `string'
CONST	ENDS
;	COMDAT ??_C@_09CFHPPHOC@room_type?$AA@
CONST	SEGMENT
??_C@_09CFHPPHOC@room_type?$AA@ DB 'room_type', 00H	; `string'
CONST	ENDS
;	COMDAT ??_C@_01GBGANLPD@0?$AA@
CONST	SEGMENT
??_C@_01GBGANLPD@0?$AA@ DB '0', 00H			; `string'
CONST	ENDS
;	COMDAT ??_C@_0M@DFOHBOK@sv_stepsize?$AA@
CONST	SEGMENT
??_C@_0M@DFOHBOK@sv_stepsize?$AA@ DB 'sv_stepsize', 00H	; `string'
CONST	ENDS
;	COMDAT ??_C@_02DCIIBFLB@18?$AA@
CONST	SEGMENT
??_C@_02DCIIBFLB@18?$AA@ DB '18', 00H			; `string'
CONST	ENDS
;	COMDAT ??_C@_03BAAJCDMO@800?$AA@
CONST	SEGMENT
??_C@_03BAAJCDMO@800?$AA@ DB '800', 00H			; `string'
CONST	ENDS
;	COMDAT ??_C@_0L@FKMMBKBD@sv_gravity?$AA@
CONST	SEGMENT
??_C@_0L@FKMMBKBD@sv_gravity?$AA@ DB 'sv_gravity', 00H	; `string'
CONST	ENDS
;	COMDAT ??_C@_0L@BIFLFHPF@worldspawn?$AA@
CONST	SEGMENT
??_C@_0L@BIFLFHPF@worldspawn?$AA@ DB 'worldspawn', 00H	; `string'
CONST	ENDS
;	COMDAT ??_7?$CEntityFactory@VCWorld@@@@6B@
CONST	SEGMENT
??_7?$CEntityFactory@VCWorld@@@@6B@ DD FLAT:??_R4?$CEntityFactory@VCWorld@@@@6B@ ; CEntityFactory<CWorld>::`vftable'
	DD	FLAT:?Create@?$CEntityFactory@VCWorld@@@@UAEPAVCBaseEntity@@PBDPAUentvars_s@@@Z
	DD	FLAT:?Destroy@?$CEntityFactory@VCWorld@@@@UAEXPAVCBaseEntity@@@Z
	DD	FLAT:?GetEntitySize@?$CEntityFactory@VCWorld@@@@UAEIXZ
CONST	ENDS
;	COMDAT ??_C@_04NLBHBMCO@GENT?$AA@
CONST	SEGMENT
??_C@_04NLBHBMCO@GENT?$AA@ DB 'GENT', 00H		; `string'
CONST	ENDS
;	COMDAT ??_C@_06FNIPBJLB@GLOBAL?$AA@
CONST	SEGMENT
??_C@_06FNIPBJLB@GLOBAL?$AA@ DB 'GLOBAL', 00H		; `string'
CONST	ENDS
;	COMDAT ??_C@_0BD@CJAPJJIM@pNewEntity?5?$CB?$DN?5NULL?$AA@
CONST	SEGMENT
??_C@_0BD@CJAPJJIM@pNewEntity?5?$CB?$DN?5NULL?$AA@ DB 'pNewEntity != NULL'
	DB	00H						; `string'
CONST	ENDS
;	COMDAT ??_C@_0BC@LGGJNCMA@?$CBFind?$CIglobalname?$CJ?$AA@
CONST	SEGMENT
??_C@_0BC@LGGJNCMA@?$CBFind?$CIglobalname?$CJ?$AA@ DB '!Find(globalname)', 00H ; `string'
CONST	ENDS
;	COMDAT ??_C@_0ED@IEKBIBI@d?3?2?$CBdiffusion?52020?2source?5code?52@
CONST	SEGMENT
??_C@_0ED@IEKBIBI@d?3?2?$CBdiffusion?52020?2source?5code?52@ DB 'd:\!diff'
	DB	'usion 2020\source code 2022\client-server\server\world.cpp', 00H ; `string'
CONST	ENDS
;	COMDAT ?__LINE__Var@?0??EntityAdd@CGlobalState@@QAEXHHW4GLOBALESTATE@@M@Z@4JA
_DATA	SEGMENT
?__LINE__Var@?0??EntityAdd@CGlobalState@@QAEXHHW4GLOBALESTATE@@M@Z@4JA DD 01cdH ; `CGlobalState::EntityAdd'::`1'::__LINE__Var
_DATA	ENDS
;	COMDAT ??_C@_0N@PLLFNHGM@?$CFs?3?5?$CFs?5?$CI?$CFs?$CJ?6?$AA@
CONST	SEGMENT
??_C@_0N@PLLFNHGM@?$CFs?3?5?$CFs?5?$CI?$CFs?$CJ?6?$AA@ DB '%s: %s (%s)', 0aH
	DB	00H						; `string'
CONST	ENDS
;	COMDAT ??_C@_0P@FNEJMDKG@?9?9?5Globals?5?9?9?6?$AA@
CONST	SEGMENT
??_C@_0P@FNEJMDKG@?9?9?5Globals?5?9?9?6?$AA@ DB '-- Globals --', 0aH, 00H ; `string'
CONST	ENDS
;	COMDAT ??_C@_07ILHJIGAO@bodyque?$AA@
CONST	SEGMENT
??_C@_07ILHJIGAO@bodyque?$AA@ DB 'bodyque', 00H		; `string'
CONST	ENDS
;	COMDAT ??_7?$CEntityFactory@VCCorpse@@@@6B@
CONST	SEGMENT
??_7?$CEntityFactory@VCCorpse@@@@6B@ DD FLAT:??_R4?$CEntityFactory@VCCorpse@@@@6B@ ; CEntityFactory<CCorpse>::`vftable'
	DD	FLAT:?Create@?$CEntityFactory@VCCorpse@@@@UAEPAVCBaseEntity@@PBDPAUentvars_s@@@Z
	DD	FLAT:?Destroy@?$CEntityFactory@VCCorpse@@@@UAEXPAVCBaseEntity@@@Z
	DD	FLAT:?GetEntitySize@?$CEntityFactory@VCCorpse@@@@UAEIXZ
CONST	ENDS
;	COMDAT ??_7CCorpse@@6B@
CONST	SEGMENT
??_7CCorpse@@6B@ DD FLAT:??_R4CCorpse@@6B@		; CCorpse::`vftable'
	DD	FLAT:?GetDataDescMap@CBaseEntity@@UAEPAUdatamap_s@@XZ
	DD	FLAT:?Spawn@CBaseEntity@@UAEXXZ
	DD	FLAT:?Precache@CBaseEntity@@UAEXXZ
	DD	FLAT:?KeyValue@CBaseEntity@@UAEXPAUKeyValueData_s@@@Z
	DD	FLAT:?Save@CBaseEntity@@UAEHAAVCSave@@@Z
	DD	FLAT:?Restore@CBaseEntity@@UAEHAAVCRestore@@@Z
	DD	FLAT:?ObjectCaps@CCorpse@@UAEHXZ
	DD	FLAT:?Activate@CBaseEntity@@UAEXXZ
	DD	FLAT:?OnChangeLevel@CBaseEntity@@UAEXXZ
	DD	FLAT:?OnTeleport@CBaseEntity@@UAEXXZ
	DD	FLAT:?PortalSleep@CBaseEntity@@UAEXM@Z
	DD	FLAT:?StartMessage@CBaseEntity@@UAEXPAVCBasePlayer@@@Z
	DD	FLAT:?GetPosition@CBaseEntity@@UAEMXZ
	DD	FLAT:?OnChangeParent@CBaseEntity@@UAEXXZ
	DD	FLAT:?OnClearParent@CBaseEntity@@UAEXXZ
	DD	FLAT:?OnRemove@CBaseEntity@@UAEXXZ
	DD	FLAT:?SetObjectCollisionBox@CBaseEntity@@UAEXXZ
	DD	FLAT:?Classify@CBaseEntity@@UAEHXZ
	DD	FLAT:?DeathNotice@CBaseEntity@@UAEXPAUentvars_s@@@Z
	DD	FLAT:?IsRigidBody@CBaseEntity@@UAEHXZ
	DD	FLAT:?SetNextThink@CBaseEntity@@UAEXM@Z
	DD	FLAT:?GetState@CBaseEntity@@UAE?AW4STATE@@PAV1@@Z
	DD	FLAT:?GetState@CBaseEntity@@UAE?AW4STATE@@XZ
	DD	FLAT:?TraceAttack@CBaseEntity@@UAEXPAUentvars_s@@MVVector@@PAUgametrace_s@@H@Z
	DD	FLAT:?TakeDamage@CBaseEntity@@UAEHPAUentvars_s@@0MH@Z
	DD	FLAT:?TakeHealth@CBaseEntity@@UAEHMH@Z
	DD	FLAT:?TakeArmor@CBaseEntity@@UAEHMH@Z
	DD	FLAT:?Killed@CBaseEntity@@UAEXPAUentvars_s@@H@Z
	DD	FLAT:?BloodColor@CBaseEntity@@UAEHXZ
	DD	FLAT:?TraceBleed@CBaseEntity@@UAEXMVVector@@PAUgametrace_s@@H@Z
	DD	FLAT:?IsTriggered@CBaseEntity@@UAEHPAV1@@Z
	DD	FLAT:?MyMonsterPointer@CBaseEntity@@UAEPAVCBaseMonster@@XZ
	DD	FLAT:?MySquadMonsterPointer@CBaseEntity@@UAEPAVCSquadMonster@@XZ
	DD	FLAT:?GetToggleState@CBaseEntity@@UAEHXZ
	DD	FLAT:?AddPoints@CBaseEntity@@UAEXHH@Z
	DD	FLAT:?AddPointsToTeam@CBaseEntity@@UAEXHH@Z
	DD	FLAT:?AddPlayerItem@CBaseEntity@@UAEHPAVCBasePlayerItem@@@Z
	DD	FLAT:?RemovePlayerItem@CBaseEntity@@UAEHPAVCBasePlayerItem@@@Z
	DD	FLAT:?GiveAmmo@CBaseEntity@@UAEHHPADH@Z
	DD	FLAT:?GetDelay@CBaseEntity@@UAEMXZ
	DD	FLAT:?IsMoving@CBaseEntity@@UAEHXZ
	DD	FLAT:?OverrideReset@CBaseEntity@@UAEXXZ
	DD	FLAT:?TransferReset@CBaseEntity@@UAEXXZ
	DD	FLAT:?DamageDecal@CBaseEntity@@UAEHH@Z
	DD	FLAT:?SetToggleState@CBaseEntity@@UAEXH@Z
	DD	FLAT:?StartSneaking@CBaseEntity@@UAEXXZ
	DD	FLAT:?StopSneaking@CBaseEntity@@UAEXXZ
	DD	FLAT:?OnControls@CBaseEntity@@UAEHPAV1@@Z
	DD	FLAT:?IsSneaking@CBaseEntity@@UAEHXZ
	DD	FLAT:?IsAlive@CBaseEntity@@UAEHXZ
	DD	FLAT:?IsBSPModel@CBaseEntity@@UAEHXZ
	DD	FLAT:?IsCustomModel@CBaseEntity@@UAEHXZ
	DD	FLAT:?ReflectGauss@CBaseEntity@@UAEHXZ
	DD	FLAT:?HasTarget@CBaseEntity@@UAEHH@Z
	DD	FLAT:?IsInWorld@CBaseEntity@@UAEHH@Z
	DD	FLAT:?IsPlayer@CBaseEntity@@UAEHXZ
	DD	FLAT:?IsNetClient@CBaseEntity@@UAEHXZ
	DD	FLAT:?IsMonster@CBaseEntity@@UAEHXZ
	DD	FLAT:?IsPushable@CBaseEntity@@UAEHXZ
	DD	FLAT:?IsProjectile@CBaseEntity@@UAEHXZ
	DD	FLAT:?IsFuncScreen@CBaseEntity@@UAEHXZ
	DD	FLAT:?IsPortal@CBaseEntity@@UAEHXZ
	DD	FLAT:?IsTank@CBaseEntity@@UAEHXZ
	DD	FLAT:?IsMover@CBaseEntity@@UAEHXZ
	DD	FLAT:?IsBreakable@CBaseEntity@@UAEHXZ
	DD	FLAT:?TeamID@CBaseEntity@@UAEPBDXZ
	DD	FLAT:?AddSpawnFlags@CBaseEntity@@UAEXH@Z
	DD	FLAT:?HasSpawnFlags@CBaseEntity@@UBE_NH@Z
	DD	FLAT:?SetFadeDistance@CBaseEntity@@UAEXH@Z
	DD	FLAT:?SetFlag@CBaseEntity@@UAEXH@Z
	DD	FLAT:?HasFlag@CBaseEntity@@UBE_NH@Z
	DD	FLAT:?RemoveFlag@CBaseEntity@@UAEXH@Z
	DD	FLAT:?SetNullModel@CBaseEntity@@UAEXXZ
	DD	FLAT:?OnPickupObject@CBaseEntity@@UAEXXZ
	DD	FLAT:?OnDropObject@CBaseEntity@@UAEXXZ
	DD	FLAT:?GetNextTarget@CBaseEntity@@UAEPAV1@XZ
	DD	FLAT:?Think@CBaseEntity@@UAEXXZ
	DD	FLAT:?Use@CBaseEntity@@UAEXPAV1@0W4USE_TYPE@@M@Z
	DD	FLAT:?Touch@CBaseEntity@@UAEXPAV1@@Z
	DD	FLAT:?Blocked@CBaseEntity@@UAEXPAV1@@Z
	DD	FLAT:?MoveDone@CBaseEntity@@UAEXXZ
	DD	FLAT:?Respawn@CBaseEntity@@UAEPAV1@XZ
	DD	FLAT:?UpdateOwner@CBaseEntity@@UAEXXZ
	DD	FLAT:?FBecomeProne@CBaseEntity@@UAEHXZ
	DD	FLAT:?Center@CBaseEntity@@UAE?AVVector@@XZ
	DD	FLAT:?EyePosition@CBaseEntity@@UAE?AVVector@@XZ
	DD	FLAT:?EarPosition@CBaseEntity@@UAE?AVVector@@XZ
	DD	FLAT:?BodyTarget@CBaseEntity@@UAE?AVVector@@ABV2@@Z
	DD	FLAT:?IsPointSized@CBaseEntity@@UBEHXZ
	DD	FLAT:?Illumination@CBaseEntity@@UAEHXZ
	DD	FLAT:?FVisible@CBaseEntity@@UAEHABVVector@@@Z
	DD	FLAT:?FVisible@CBaseEntity@@UAEHPAV1@@Z
	DD	FLAT:?ShouldCollide@CBaseEntity@@UAEHPAV1@@Z
	DD	FLAT:?ClearEffects@CBaseEntity@@UAEXXZ
CONST	ENDS
;	COMDAT ??_C@_0BG@BHLLJLMB@?$CGCDecal?3?3TriggerDecal?$AA@
CONST	SEGMENT
??_C@_0BG@BHLLJLMB@?$CGCDecal?3?3TriggerDecal?$AA@ DB '&CDecal::TriggerDe'
	DB	'cal', 00H					; `string'
CONST	ENDS
;	COMDAT ??_C@_0BM@BHEFNEMH@?$CGCBaseEntity?3?3SUB_DoNothing?$AA@
CONST	SEGMENT
??_C@_0BM@BHEFNEMH@?$CGCBaseEntity?3?3SUB_DoNothing?$AA@ DB '&CBaseEntity'
	DB	'::SUB_DoNothing', 00H			; `string'
CONST	ENDS
;	COMDAT ??_C@_0BF@JJAPICJC@?$CGCDecal?3?3StaticDecal?$AA@
CONST	SEGMENT
??_C@_0BF@JJAPICJC@?$CGCDecal?3?3StaticDecal?$AA@ DB '&CDecal::StaticDeca'
	DB	'l', 00H					; `string'
CONST	ENDS
;	COMDAT ??_C@_0BF@BLPBHMHG@Can?8t?5find?5decal?5?$CFs?6?$AA@
CONST	SEGMENT
??_C@_0BF@BLPBHMHG@Can?8t?5find?5decal?5?$CFs?6?$AA@ DB 'Can''t find deca'
	DB	'l %s', 0aH, 00H				; `string'
CONST	ENDS
;	COMDAT ??_C@_07JDHEGGGP@texture?$AA@
CONST	SEGMENT
??_C@_07JDHEGGGP@texture?$AA@ DB 'texture', 00H		; `string'
CONST	ENDS
;	COMDAT ??_C@_0N@FOEAKCOD@TriggerDecal?$AA@
CONST	SEGMENT
??_C@_0N@FOEAKCOD@TriggerDecal?$AA@ DB 'TriggerDecal', 00H ; `string'
CONST	ENDS
;	COMDAT ??_C@_0M@LHBONHE@StaticDecal?$AA@
CONST	SEGMENT
??_C@_0M@LHBONHE@StaticDecal?$AA@ DB 'StaticDecal', 00H	; `string'
CONST	ENDS
;	COMDAT ??_C@_09KFCFBPBF@infodecal?$AA@
CONST	SEGMENT
??_C@_09KFCFBPBF@infodecal?$AA@ DB 'infodecal', 00H	; `string'
CONST	ENDS
;	COMDAT ??_7?$CEntityFactory@VCDecal@@@@6B@
CONST	SEGMENT
??_7?$CEntityFactory@VCDecal@@@@6B@ DD FLAT:??_R4?$CEntityFactory@VCDecal@@@@6B@ ; CEntityFactory<CDecal>::`vftable'
	DD	FLAT:?Create@?$CEntityFactory@VCDecal@@@@UAEPAVCBaseEntity@@PBDPAUentvars_s@@@Z
	DD	FLAT:?Destroy@?$CEntityFactory@VCDecal@@@@UAEXPAVCBaseEntity@@@Z
	DD	FLAT:?GetEntitySize@?$CEntityFactory@VCDecal@@@@UAEIXZ
CONST	ENDS
;	COMDAT ??_7CDecal@@6B@
CONST	SEGMENT
??_7CDecal@@6B@ DD FLAT:??_R4CDecal@@6B@		; CDecal::`vftable'
	DD	FLAT:?GetDataDescMap@CDecal@@UAEPAUdatamap_s@@XZ
	DD	FLAT:?Spawn@CDecal@@UAEXXZ
	DD	FLAT:?Precache@CBaseEntity@@UAEXXZ
	DD	FLAT:?KeyValue@CDecal@@UAEXPAUKeyValueData_s@@@Z
	DD	FLAT:?Save@CBaseEntity@@UAEHAAVCSave@@@Z
	DD	FLAT:?Restore@CBaseEntity@@UAEHAAVCRestore@@@Z
	DD	FLAT:?ObjectCaps@CBaseEntity@@UAEHXZ
	DD	FLAT:?Activate@CBaseEntity@@UAEXXZ
	DD	FLAT:?OnChangeLevel@CBaseEntity@@UAEXXZ
	DD	FLAT:?OnTeleport@CBaseEntity@@UAEXXZ
	DD	FLAT:?PortalSleep@CBaseEntity@@UAEXM@Z
	DD	FLAT:?StartMessage@CBaseEntity@@UAEXPAVCBasePlayer@@@Z
	DD	FLAT:?GetPosition@CBaseEntity@@UAEMXZ
	DD	FLAT:?OnChangeParent@CBaseEntity@@UAEXXZ
	DD	FLAT:?OnClearParent@CBaseEntity@@UAEXXZ
	DD	FLAT:?OnRemove@CBaseEntity@@UAEXXZ
	DD	FLAT:?SetObjectCollisionBox@CBaseEntity@@UAEXXZ
	DD	FLAT:?Classify@CBaseEntity@@UAEHXZ
	DD	FLAT:?DeathNotice@CBaseEntity@@UAEXPAUentvars_s@@@Z
	DD	FLAT:?IsRigidBody@CBaseEntity@@UAEHXZ
	DD	FLAT:?SetNextThink@CBaseEntity@@UAEXM@Z
	DD	FLAT:?GetState@CBaseEntity@@UAE?AW4STATE@@PAV1@@Z
	DD	FLAT:?GetState@CBaseEntity@@UAE?AW4STATE@@XZ
	DD	FLAT:?TraceAttack@CBaseEntity@@UAEXPAUentvars_s@@MVVector@@PAUgametrace_s@@H@Z
	DD	FLAT:?TakeDamage@CBaseEntity@@UAEHPAUentvars_s@@0MH@Z
	DD	FLAT:?TakeHealth@CBaseEntity@@UAEHMH@Z
	DD	FLAT:?TakeArmor@CBaseEntity@@UAEHMH@Z
	DD	FLAT:?Killed@CBaseEntity@@UAEXPAUentvars_s@@H@Z
	DD	FLAT:?BloodColor@CBaseEntity@@UAEHXZ
	DD	FLAT:?TraceBleed@CBaseEntity@@UAEXMVVector@@PAUgametrace_s@@H@Z
	DD	FLAT:?IsTriggered@CBaseEntity@@UAEHPAV1@@Z
	DD	FLAT:?MyMonsterPointer@CBaseEntity@@UAEPAVCBaseMonster@@XZ
	DD	FLAT:?MySquadMonsterPointer@CBaseEntity@@UAEPAVCSquadMonster@@XZ
	DD	FLAT:?GetToggleState@CBaseEntity@@UAEHXZ
	DD	FLAT:?AddPoints@CBaseEntity@@UAEXHH@Z
	DD	FLAT:?AddPointsToTeam@CBaseEntity@@UAEXHH@Z
	DD	FLAT:?AddPlayerItem@CBaseEntity@@UAEHPAVCBasePlayerItem@@@Z
	DD	FLAT:?RemovePlayerItem@CBaseEntity@@UAEHPAVCBasePlayerItem@@@Z
	DD	FLAT:?GiveAmmo@CBaseEntity@@UAEHHPADH@Z
	DD	FLAT:?GetDelay@CBaseEntity@@UAEMXZ
	DD	FLAT:?IsMoving@CBaseEntity@@UAEHXZ
	DD	FLAT:?OverrideReset@CBaseEntity@@UAEXXZ
	DD	FLAT:?TransferReset@CBaseEntity@@UAEXXZ
	DD	FLAT:?DamageDecal@CBaseEntity@@UAEHH@Z
	DD	FLAT:?SetToggleState@CBaseEntity@@UAEXH@Z
	DD	FLAT:?StartSneaking@CBaseEntity@@UAEXXZ
	DD	FLAT:?StopSneaking@CBaseEntity@@UAEXXZ
	DD	FLAT:?OnControls@CBaseEntity@@UAEHPAV1@@Z
	DD	FLAT:?IsSneaking@CBaseEntity@@UAEHXZ
	DD	FLAT:?IsAlive@CBaseEntity@@UAEHXZ
	DD	FLAT:?IsBSPModel@CBaseEntity@@UAEHXZ
	DD	FLAT:?IsCustomModel@CBaseEntity@@UAEHXZ
	DD	FLAT:?ReflectGauss@CBaseEntity@@UAEHXZ
	DD	FLAT:?HasTarget@CBaseEntity@@UAEHH@Z
	DD	FLAT:?IsInWorld@CBaseEntity@@UAEHH@Z
	DD	FLAT:?IsPlayer@CBaseEntity@@UAEHXZ
	DD	FLAT:?IsNetClient@CBaseEntity@@UAEHXZ
	DD	FLAT:?IsMonster@CBaseEntity@@UAEHXZ
	DD	FLAT:?IsPushable@CBaseEntity@@UAEHXZ
	DD	FLAT:?IsProjectile@CBaseEntity@@UAEHXZ
	DD	FLAT:?IsFuncScreen@CBaseEntity@@UAEHXZ
	DD	FLAT:?IsPortal@CBaseEntity@@UAEHXZ
	DD	FLAT:?IsTank@CBaseEntity@@UAEHXZ
	DD	FLAT:?IsMover@CBaseEntity@@UAEHXZ
	DD	FLAT:?IsBreakable@CBaseEntity@@UAEHXZ
	DD	FLAT:?TeamID@CBaseEntity@@UAEPBDXZ
	DD	FLAT:?AddSpawnFlags@CBaseEntity@@UAEXH@Z
	DD	FLAT:?HasSpawnFlags@CBaseEntity@@UBE_NH@Z
	DD	FLAT:?SetFadeDistance@CBaseEntity@@UAEXH@Z
	DD	FLAT:?SetFlag@CBaseEntity@@UAEXH@Z
	DD	FLAT:?HasFlag@CBaseEntity@@UBE_NH@Z
	DD	FLAT:?RemoveFlag@CBaseEntity@@UAEXH@Z
	DD	FLAT:?SetNullModel@CBaseEntity@@UAEXXZ
	DD	FLAT:?OnPickupObject@CBaseEntity@@UAEXXZ
	DD	FLAT:?OnDropObject@CBaseEntity@@UAEXXZ
	DD	FLAT:?GetNextTarget@CBaseEntity@@UAEPAV1@XZ
	DD	FLAT:?Think@CBaseEntity@@UAEXXZ
	DD	FLAT:?Use@CBaseEntity@@UAEXPAV1@0W4USE_TYPE@@M@Z
	DD	FLAT:?Touch@CBaseEntity@@UAEXPAV1@@Z
	DD	FLAT:?Blocked@CBaseEntity@@UAEXPAV1@@Z
	DD	FLAT:?MoveDone@CBaseEntity@@UAEXXZ
	DD	FLAT:?Respawn@CBaseEntity@@UAEPAV1@XZ
	DD	FLAT:?UpdateOwner@CBaseEntity@@UAEXXZ
	DD	FLAT:?FBecomeProne@CBaseEntity@@UAEHXZ
	DD	FLAT:?Center@CBaseEntity@@UAE?AVVector@@XZ
	DD	FLAT:?EyePosition@CBaseEntity@@UAE?AVVector@@XZ
	DD	FLAT:?EarPosition@CBaseEntity@@UAE?AVVector@@XZ
	DD	FLAT:?BodyTarget@CBaseEntity@@UAE?AVVector@@ABV2@@Z
	DD	FLAT:?IsPointSized@CBaseEntity@@UBEHXZ
	DD	FLAT:?Illumination@CBaseEntity@@UAEHXZ
	DD	FLAT:?FVisible@CBaseEntity@@UAEHABVVector@@@Z
	DD	FLAT:?FVisible@CBaseEntity@@UAEHPAV1@@Z
	DD	FLAT:?ShouldCollide@CBaseEntity@@UAEHPAV1@@Z
	DD	FLAT:?ClearEffects@CBaseEntity@@UAEXXZ
CONST	ENDS
;	COMDAT ??_C@_0CH@GGPNMIMM@kigecaaaaaaaaaaaaaaaaaaaaaaaaaaa@
CONST	SEGMENT
??_C@_0CH@GGPNMIMM@kigecaaaaaaaaaaaaaaaaaaaaaaaaaaa@ DB 'kigecaaaaaaaaaaa'
	DB	'aaaaaaaaaaaaaaaaaaaaaa', 00H		; `string'
CONST	ENDS
;	COMDAT ??_C@_0CH@GNNLHDIC@lkjihgfedcbaaaaaaaaaaaaaaaaaaaaa@
CONST	SEGMENT
??_C@_0CH@GNNLHDIC@lkjihgfedcbaaaaaaaaaaaaaaaaaaaaa@ DB 'lkjihgfedcbaaaaa'
	DB	'aaaaaaaaaaaaaaaaaaaaaa', 00H		; `string'
CONST	ENDS
;	COMDAT ??_C@_0CH@FHJDMKLN@llkkjjiihhggffeeddccbbaaaaaaaaaa@
CONST	SEGMENT
??_C@_0CH@FHJDMKLN@llkkjjiihhggffeeddccbbaaaaaaaaaa@ DB 'llkkjjiihhggffee'
	DB	'ddccbbaaaaaaaaaaaaaaaa', 00H		; `string'
CONST	ENDS
;	COMDAT ??_C@_0CH@GAGAFDCK@acegikmmmmmmmmmmmmmmmmmmmmmmmmmm@
CONST	SEGMENT
??_C@_0CH@GAGAFDCK@acegikmmmmmmmmmmmmmmmmmmmmmmmmmm@ DB 'acegikmmmmmmmmmm'
	DB	'mmmmmmmmmmmmmmmmmmmmmm', 00H		; `string'
CONST	ENDS
;	COMDAT ??_C@_0CH@KJMEFLAJ@abcdefghijklmmmmmmmmmmmmmmmmmmmm@
CONST	SEGMENT
??_C@_0CH@KJMEFLAJ@abcdefghijklmmmmmmmmmmmmmmmmmmmm@ DB 'abcdefghijklmmmm'
	DB	'mmmmmmmmmmmmmmmmmmmmmm', 00H		; `string'
CONST	ENDS
;	COMDAT ??_C@_0CH@MMJACNEB@aabbccddeeffgghhiijjkkllmmmmmmmm@
CONST	SEGMENT
??_C@_0CH@MMJACNEB@aabbccddeeffgghhiijjkkllmmmmmmmm@ DB 'aabbccddeeffgghh'
	DB	'iijjkkllmmmmmmmmmmmmmm', 00H		; `string'
CONST	ENDS
;	COMDAT ??_C@_01MCMALHOG@a?$AA@
CONST	SEGMENT
??_C@_01MCMALHOG@a?$AA@ DB 'a', 00H			; `string'
CONST	ENDS
;	COMDAT ??_C@_0O@CLIHPPEL@mmnnmmnnnmmnn?$AA@
CONST	SEGMENT
??_C@_0O@CLIHPPEL@mmnnmmnnnmmnn?$AA@ DB 'mmnnmmnnnmmnn', 00H ; `string'
CONST	ENDS
;	COMDAT ??_C@_0CF@FDHINAPJ@abcdefghijklmnopqrrqponmlkjihgfe@
CONST	SEGMENT
??_C@_0CF@FDHINAPJ@abcdefghijklmnopqrrqponmlkjihgfe@ DB 'abcdefghijklmnop'
	DB	'qrrqponmlkjihgfedcba', 00H			; `string'
CONST	ENDS
;	COMDAT ??_C@_0BK@KOPHNNOA@mmamammmmammamamaaamammma?$AA@
CONST	SEGMENT
??_C@_0BK@KOPHNNOA@mmamammmmammamamaaamammma?$AA@ DB 'mmamammmmammamamaaa'
	DB	'mammma', 00H				; `string'
CONST	ENDS
;	COMDAT ??_C@_0BB@PBGKNKPK@aaaaaaaazzzzzzzz?$AA@
CONST	SEGMENT
??_C@_0BB@PBGKNKPK@aaaaaaaazzzzzzzz?$AA@ DB 'aaaaaaaazzzzzzzz', 00H ; `string'
CONST	ENDS
;	COMDAT ??_C@_0CL@JNLLPDGN@mmmaaammmaaammmabcdefaaaammmmabc@
CONST	SEGMENT
??_C@_0CL@JNLLPDGN@mmmaaammmaaammmabcdefaaaammmmabc@ DB 'mmmaaammmaaammma'
	DB	'bcdefaaaammmmabcdefmmmaaaa', 00H		; `string'
CONST	ENDS
;	COMDAT ??_C@_0BN@HIBFHKHI@mmmaaaabcdefgmmmmaaaammmaamm?$AA@
CONST	SEGMENT
??_C@_0BN@HIBFHKHI@mmmaaaabcdefgmmmmaaaammmaamm?$AA@ DB 'mmmaaaabcdefgmmm'
	DB	'maaaammmaamm', 00H				; `string'
CONST	ENDS
;	COMDAT ??_C@_0BC@KJNLDMIN@nmonqnmomnmomomno?$AA@
CONST	SEGMENT
??_C@_0BC@KJNLDMIN@nmonqnmomnmomomno?$AA@ DB 'nmonqnmomnmomomno', 00H ; `string'
CONST	ENDS
;	COMDAT ??_C@_0CC@NMKOOBOD@jklmnopqrstuvwxyzyxwvutsrqponmlk@
CONST	SEGMENT
??_C@_0CC@NMKOOBOD@jklmnopqrstuvwxyzyxwvutsrqponmlk@ DB 'jklmnopqrstuvwxy'
	DB	'zyxwvutsrqponmlkj', 00H			; `string'
CONST	ENDS
;	COMDAT ??_C@_0N@OJLDIBEI@mamamamamama?$AA@
CONST	SEGMENT
??_C@_0N@OJLDIBEI@mamamamamama?$AA@ DB 'mamamamamama', 00H ; `string'
CONST	ENDS
;	COMDAT ??_C@_0CD@OIDFFBDA@mmmmmaaaaammmmmaaaaaabcdefgabcde@
CONST	SEGMENT
??_C@_0CD@OIDFFBDA@mmmmmaaaaammmmmaaaaaabcdefgabcde@ DB 'mmmmmaaaaammmmma'
	DB	'aaaaabcdefgabcdefg', 00H			; `string'
CONST	ENDS
;	COMDAT ??_C@_0DE@PNCJLGMH@abcdefghijklmnopqrstuvwxyzyxwvut@
CONST	SEGMENT
??_C@_0DE@PNCJLGMH@abcdefghijklmnopqrstuvwxyzyxwvut@ DB 'abcdefghijklmnop'
	DB	'qrstuvwxyzyxwvutsrqponmlkjihgfedcba', 00H	; `string'
CONST	ENDS
;	COMDAT ??_C@_0BI@OMKFAIJM@mmnmmommommnonmmonqnmmo?$AA@
CONST	SEGMENT
??_C@_0BI@OMKFAIJM@mmnmmommommnonmmonqnmmo?$AA@ DB 'mmnmmommommnonmmonqnm'
	DB	'mo', 00H					; `string'
CONST	ENDS
;	COMDAT ??_C@_01GOHFPIOK@m?$AA@
CONST	SEGMENT
??_C@_01GOHFPIOK@m?$AA@ DB 'm', 00H			; `string'
CONST	ENDS
;	COMDAT ??_7CPhysicNull@@6B@
CONST	SEGMENT
??_7CPhysicNull@@6B@ DD FLAT:??_R4CPhysicNull@@6B@	; CPhysicNull::`vftable'
	DD	FLAT:?InitPhysic@CPhysicNull@@UAEXXZ
	DD	FLAT:?FreePhysic@CPhysicNull@@UAEXXZ
	DD	FLAT:?Update@CPhysicNull@@UAEXM@Z
	DD	FLAT:?EndFrame@CPhysicNull@@UAEXXZ
	DD	FLAT:?GetUtilLibrary@CPhysicNull@@UAEPAXXZ
	DD	FLAT:?Initialized@CPhysicNull@@UAE_NXZ
	DD	FLAT:?RemoveBody@CPhysicNull@@UAEXPAUedict_s@@@Z
	DD	FLAT:?CreateBodyFromEntity@CPhysicNull@@UAEPAXPAVCBaseEntity@@@Z
	DD	FLAT:?CreateBoxFromEntity@CPhysicNull@@UAEPAXPAVCBaseEntity@@@Z
	DD	FLAT:?CreateKinematicBodyFromEntity@CPhysicNull@@UAEPAXPAVCBaseEntity@@@Z
	DD	FLAT:?CreateStaticBodyFromEntity@CPhysicNull@@UAEPAXPAVCBaseEntity@@@Z
	DD	FLAT:?RestoreBody@CPhysicNull@@UAEPAXPAVCBaseEntity@@@Z
	DD	FLAT:?SaveBody@CPhysicNull@@UAEXPAVCBaseEntity@@@Z
	DD	FLAT:?SetOrigin@CPhysicNull@@UAEXPAVCBaseEntity@@ABVVector@@@Z
	DD	FLAT:?SetAngles@CPhysicNull@@UAEXPAVCBaseEntity@@ABVVector@@@Z
	DD	FLAT:?SetVelocity@CPhysicNull@@UAEXPAVCBaseEntity@@ABVVector@@@Z
	DD	FLAT:?SetAvelocity@CPhysicNull@@UAEXPAVCBaseEntity@@ABVVector@@@Z
	DD	FLAT:?MoveObject@CPhysicNull@@UAEXPAVCBaseEntity@@ABVVector@@@Z
	DD	FLAT:?RotateObject@CPhysicNull@@UAEXPAVCBaseEntity@@ABVVector@@@Z
	DD	FLAT:?SetLinearMomentum@CPhysicNull@@UAEXPAVCBaseEntity@@ABVVector@@@Z
	DD	FLAT:?AddImpulse@CPhysicNull@@UAEXPAVCBaseEntity@@ABVVector@@1M@Z
	DD	FLAT:?AddForce@CPhysicNull@@UAEXPAVCBaseEntity@@ABVVector@@@Z
	DD	FLAT:?EnableCollision@CPhysicNull@@UAEXPAVCBaseEntity@@H@Z
	DD	FLAT:?MakeKinematic@CPhysicNull@@UAEXPAVCBaseEntity@@H@Z
	DD	FLAT:?FLoadTree@CPhysicNull@@UAEHPAD@Z
	DD	FLAT:?CheckBINFile@CPhysicNull@@UAEHPAD@Z
	DD	FLAT:?BuildCollisionTree@CPhysicNull@@UAEHPAD@Z
	DD	FLAT:?UpdateEntityPos@CPhysicNull@@UAE_NPAVCBaseEntity@@@Z
	DD	FLAT:?UpdateEntityAABB@CPhysicNull@@UAEXPAVCBaseEntity@@@Z
	DD	FLAT:?UpdateActorPos@CPhysicNull@@UAE_NPAVCBaseEntity@@@Z
	DD	FLAT:?SetupWorld@CPhysicNull@@UAEXXZ
	DD	FLAT:?DebugDraw@CPhysicNull@@UAEXXZ
	DD	FLAT:?DrawPSpeeds@CPhysicNull@@UAEXXZ
	DD	FLAT:?FreeAllBodies@CPhysicNull@@UAEXXZ
	DD	FLAT:?TeleportCharacter@CPhysicNull@@UAEXPAVCBaseEntity@@@Z
	DD	FLAT:?TeleportActor@CPhysicNull@@UAEXPAVCBaseEntity@@@Z
	DD	FLAT:?MoveCharacter@CPhysicNull@@UAEXPAVCBaseEntity@@@Z
	DD	FLAT:?MoveKinematic@CPhysicNull@@UAEXPAVCBaseEntity@@@Z
	DD	FLAT:?SweepTest@CPhysicNull@@UAEXPAVCBaseEntity@@ABVVector@@111PAUtrace_s@@@Z
	DD	FLAT:?SweepEntity@CPhysicNull@@UAEXPAVCBaseEntity@@ABVVector@@1PAUgametrace_s@@@Z
	DD	FLAT:?IsBodySleeping@CPhysicNull@@UAE_NPAVCBaseEntity@@@Z
	DD	FLAT:?GetCookingInterface@CPhysicNull@@UAEPAXXZ
	DD	FLAT:?GetPhysicInterface@CPhysicNull@@UAEPAXXZ
	DD	FLAT:?RemoveBody@CPhysicNull@@UAEXPBX@Z
	DD	FLAT:?CreateVehicle@CPhysicNull@@UAEPAXPAVCBaseEntity@@H@Z
	DD	FLAT:?UpdateVehicle@CPhysicNull@@UAEXPAVCBaseEntity@@@Z
CONST	ENDS
;	COMDAT ??_C@_0BJ@EIFNLFLK@?$CGCBaseEntity?3?3SUB_Remove?$AA@
CONST	SEGMENT
??_C@_0BJ@EIFNLFLK@?$CGCBaseEntity?3?3SUB_Remove?$AA@ DB '&CBaseEntity::S'
	DB	'UB_Remove', 00H				; `string'
CONST	ENDS
;	COMDAT ??_7CSoundEnt@@6B@
CONST	SEGMENT
??_7CSoundEnt@@6B@ DD FLAT:??_R4CSoundEnt@@6B@		; CSoundEnt::`vftable'
	DD	FLAT:?GetDataDescMap@CBaseEntity@@UAEPAUdatamap_s@@XZ
	DD	FLAT:?Spawn@CSoundEnt@@UAEXXZ
	DD	FLAT:?Precache@CSoundEnt@@UAEXXZ
	DD	FLAT:?KeyValue@CBaseEntity@@UAEXPAUKeyValueData_s@@@Z
	DD	FLAT:?Save@CBaseEntity@@UAEHAAVCSave@@@Z
	DD	FLAT:?Restore@CBaseEntity@@UAEHAAVCRestore@@@Z
	DD	FLAT:?ObjectCaps@CSoundEnt@@UAEHXZ
	DD	FLAT:?Activate@CBaseEntity@@UAEXXZ
	DD	FLAT:?OnChangeLevel@CBaseEntity@@UAEXXZ
	DD	FLAT:?OnTeleport@CBaseEntity@@UAEXXZ
	DD	FLAT:?PortalSleep@CBaseEntity@@UAEXM@Z
	DD	FLAT:?StartMessage@CBaseEntity@@UAEXPAVCBasePlayer@@@Z
	DD	FLAT:?GetPosition@CBaseEntity@@UAEMXZ
	DD	FLAT:?OnChangeParent@CBaseEntity@@UAEXXZ
	DD	FLAT:?OnClearParent@CBaseEntity@@UAEXXZ
	DD	FLAT:?OnRemove@CBaseEntity@@UAEXXZ
	DD	FLAT:?SetObjectCollisionBox@CBaseEntity@@UAEXXZ
	DD	FLAT:?Classify@CBaseEntity@@UAEHXZ
	DD	FLAT:?DeathNotice@CBaseEntity@@UAEXPAUentvars_s@@@Z
	DD	FLAT:?IsRigidBody@CBaseEntity@@UAEHXZ
	DD	FLAT:?SetNextThink@CBaseEntity@@UAEXM@Z
	DD	FLAT:?GetState@CBaseEntity@@UAE?AW4STATE@@PAV1@@Z
	DD	FLAT:?GetState@CBaseEntity@@UAE?AW4STATE@@XZ
	DD	FLAT:?TraceAttack@CBaseEntity@@UAEXPAUentvars_s@@MVVector@@PAUgametrace_s@@H@Z
	DD	FLAT:?TakeDamage@CBaseEntity@@UAEHPAUentvars_s@@0MH@Z
	DD	FLAT:?TakeHealth@CBaseEntity@@UAEHMH@Z
	DD	FLAT:?TakeArmor@CBaseEntity@@UAEHMH@Z
	DD	FLAT:?Killed@CBaseEntity@@UAEXPAUentvars_s@@H@Z
	DD	FLAT:?BloodColor@CBaseEntity@@UAEHXZ
	DD	FLAT:?TraceBleed@CBaseEntity@@UAEXMVVector@@PAUgametrace_s@@H@Z
	DD	FLAT:?IsTriggered@CBaseEntity@@UAEHPAV1@@Z
	DD	FLAT:?MyMonsterPointer@CBaseEntity@@UAEPAVCBaseMonster@@XZ
	DD	FLAT:?MySquadMonsterPointer@CBaseEntity@@UAEPAVCSquadMonster@@XZ
	DD	FLAT:?GetToggleState@CBaseEntity@@UAEHXZ
	DD	FLAT:?AddPoints@CBaseEntity@@UAEXHH@Z
	DD	FLAT:?AddPointsToTeam@CBaseEntity@@UAEXHH@Z
	DD	FLAT:?AddPlayerItem@CBaseEntity@@UAEHPAVCBasePlayerItem@@@Z
	DD	FLAT:?RemovePlayerItem@CBaseEntity@@UAEHPAVCBasePlayerItem@@@Z
	DD	FLAT:?GiveAmmo@CBaseEntity@@UAEHHPADH@Z
	DD	FLAT:?GetDelay@CBaseEntity@@UAEMXZ
	DD	FLAT:?IsMoving@CBaseEntity@@UAEHXZ
	DD	FLAT:?OverrideReset@CBaseEntity@@UAEXXZ
	DD	FLAT:?TransferReset@CBaseEntity@@UAEXXZ
	DD	FLAT:?DamageDecal@CBaseEntity@@UAEHH@Z
	DD	FLAT:?SetToggleState@CBaseEntity@@UAEXH@Z
	DD	FLAT:?StartSneaking@CBaseEntity@@UAEXXZ
	DD	FLAT:?StopSneaking@CBaseEntity@@UAEXXZ
	DD	FLAT:?OnControls@CBaseEntity@@UAEHPAV1@@Z
	DD	FLAT:?IsSneaking@CBaseEntity@@UAEHXZ
	DD	FLAT:?IsAlive@CBaseEntity@@UAEHXZ
	DD	FLAT:?IsBSPModel@CBaseEntity@@UAEHXZ
	DD	FLAT:?IsCustomModel@CBaseEntity@@UAEHXZ
	DD	FLAT:?ReflectGauss@CBaseEntity@@UAEHXZ
	DD	FLAT:?HasTarget@CBaseEntity@@UAEHH@Z
	DD	FLAT:?IsInWorld@CBaseEntity@@UAEHH@Z
	DD	FLAT:?IsPlayer@CBaseEntity@@UAEHXZ
	DD	FLAT:?IsNetClient@CBaseEntity@@UAEHXZ
	DD	FLAT:?IsMonster@CBaseEntity@@UAEHXZ
	DD	FLAT:?IsPushable@CBaseEntity@@UAEHXZ
	DD	FLAT:?IsProjectile@CBaseEntity@@UAEHXZ
	DD	FLAT:?IsFuncScreen@CBaseEntity@@UAEHXZ
	DD	FLAT:?IsPortal@CBaseEntity@@UAEHXZ
	DD	FLAT:?IsTank@CBaseEntity@@UAEHXZ
	DD	FLAT:?IsMover@CBaseEntity@@UAEHXZ
	DD	FLAT:?IsBreakable@CBaseEntity@@UAEHXZ
	DD	FLAT:?TeamID@CBaseEntity@@UAEPBDXZ
	DD	FLAT:?AddSpawnFlags@CBaseEntity@@UAEXH@Z
	DD	FLAT:?HasSpawnFlags@CBaseEntity@@UBE_NH@Z
	DD	FLAT:?SetFadeDistance@CBaseEntity@@UAEXH@Z
	DD	FLAT:?SetFlag@CBaseEntity@@UAEXH@Z
	DD	FLAT:?HasFlag@CBaseEntity@@UBE_NH@Z
	DD	FLAT:?RemoveFlag@CBaseEntity@@UAEXH@Z
	DD	FLAT:?SetNullModel@CBaseEntity@@UAEXXZ
	DD	FLAT:?OnPickupObject@CBaseEntity@@UAEXXZ
	DD	FLAT:?OnDropObject@CBaseEntity@@UAEXXZ
	DD	FLAT:?GetNextTarget@CBaseEntity@@UAEPAV1@XZ
	DD	FLAT:?Think@CSoundEnt@@UAEXXZ
	DD	FLAT:?Use@CBaseEntity@@UAEXPAV1@0W4USE_TYPE@@M@Z
	DD	FLAT:?Touch@CBaseEntity@@UAEXPAV1@@Z
	DD	FLAT:?Blocked@CBaseEntity@@UAEXPAV1@@Z
	DD	FLAT:?MoveDone@CBaseEntity@@UAEXXZ
	DD	FLAT:?Respawn@CBaseEntity@@UAEPAV1@XZ
	DD	FLAT:?UpdateOwner@CBaseEntity@@UAEXXZ
	DD	FLAT:?FBecomeProne@CBaseEntity@@UAEHXZ
	DD	FLAT:?Center@CBaseEntity@@UAE?AVVector@@XZ
	DD	FLAT:?EyePosition@CBaseEntity@@UAE?AVVector@@XZ
	DD	FLAT:?EarPosition@CBaseEntity@@UAE?AVVector@@XZ
	DD	FLAT:?BodyTarget@CBaseEntity@@UAE?AVVector@@ABV2@@Z
	DD	FLAT:?IsPointSized@CBaseEntity@@UBEHXZ
	DD	FLAT:?Illumination@CBaseEntity@@UAEHXZ
	DD	FLAT:?FVisible@CBaseEntity@@UAEHABVVector@@@Z
	DD	FLAT:?FVisible@CBaseEntity@@UAEHPAV1@@Z
	DD	FLAT:?ShouldCollide@CBaseEntity@@UAEHPAV1@@Z
	DD	FLAT:?ClearEffects@CBaseEntity@@UAEXXZ
CONST	ENDS
;	COMDAT ??_C@_0BB@EMJBJDBM@sprites?1null?4spr?$AA@
CONST	SEGMENT
??_C@_0BB@EMJBJDBM@sprites?1null?4spr?$AA@ DB 'sprites/null.spr', 00H ; `string'
CONST	ENDS
;	COMDAT ??_7CWorld@@6B@
CONST	SEGMENT
??_7CWorld@@6B@ DD FLAT:??_R4CWorld@@6B@		; CWorld::`vftable'
	DD	FLAT:?GetDataDescMap@CBaseEntity@@UAEPAUdatamap_s@@XZ
	DD	FLAT:?Spawn@CWorld@@UAEXXZ
	DD	FLAT:?Precache@CWorld@@UAEXXZ
	DD	FLAT:?KeyValue@CWorld@@UAEXPAUKeyValueData_s@@@Z
	DD	FLAT:?Save@CBaseEntity@@UAEHAAVCSave@@@Z
	DD	FLAT:?Restore@CBaseEntity@@UAEHAAVCRestore@@@Z
	DD	FLAT:?ObjectCaps@CBaseEntity@@UAEHXZ
	DD	FLAT:?Activate@CBaseEntity@@UAEXXZ
	DD	FLAT:?OnChangeLevel@CBaseEntity@@UAEXXZ
	DD	FLAT:?OnTeleport@CBaseEntity@@UAEXXZ
	DD	FLAT:?PortalSleep@CBaseEntity@@UAEXM@Z
	DD	FLAT:?StartMessage@CBaseEntity@@UAEXPAVCBasePlayer@@@Z
	DD	FLAT:?GetPosition@CBaseEntity@@UAEMXZ
	DD	FLAT:?OnChangeParent@CBaseEntity@@UAEXXZ
	DD	FLAT:?OnClearParent@CBaseEntity@@UAEXXZ
	DD	FLAT:?OnRemove@CBaseEntity@@UAEXXZ
	DD	FLAT:?SetObjectCollisionBox@CBaseEntity@@UAEXXZ
	DD	FLAT:?Classify@CBaseEntity@@UAEHXZ
	DD	FLAT:?DeathNotice@CBaseEntity@@UAEXPAUentvars_s@@@Z
	DD	FLAT:?IsRigidBody@CBaseEntity@@UAEHXZ
	DD	FLAT:?SetNextThink@CBaseEntity@@UAEXM@Z
	DD	FLAT:?GetState@CBaseEntity@@UAE?AW4STATE@@PAV1@@Z
	DD	FLAT:?GetState@CBaseEntity@@UAE?AW4STATE@@XZ
	DD	FLAT:?TraceAttack@CBaseEntity@@UAEXPAUentvars_s@@MVVector@@PAUgametrace_s@@H@Z
	DD	FLAT:?TakeDamage@CBaseEntity@@UAEHPAUentvars_s@@0MH@Z
	DD	FLAT:?TakeHealth@CBaseEntity@@UAEHMH@Z
	DD	FLAT:?TakeArmor@CBaseEntity@@UAEHMH@Z
	DD	FLAT:?Killed@CBaseEntity@@UAEXPAUentvars_s@@H@Z
	DD	FLAT:?BloodColor@CBaseEntity@@UAEHXZ
	DD	FLAT:?TraceBleed@CBaseEntity@@UAEXMVVector@@PAUgametrace_s@@H@Z
	DD	FLAT:?IsTriggered@CBaseEntity@@UAEHPAV1@@Z
	DD	FLAT:?MyMonsterPointer@CBaseEntity@@UAEPAVCBaseMonster@@XZ
	DD	FLAT:?MySquadMonsterPointer@CBaseEntity@@UAEPAVCSquadMonster@@XZ
	DD	FLAT:?GetToggleState@CBaseEntity@@UAEHXZ
	DD	FLAT:?AddPoints@CBaseEntity@@UAEXHH@Z
	DD	FLAT:?AddPointsToTeam@CBaseEntity@@UAEXHH@Z
	DD	FLAT:?AddPlayerItem@CBaseEntity@@UAEHPAVCBasePlayerItem@@@Z
	DD	FLAT:?RemovePlayerItem@CBaseEntity@@UAEHPAVCBasePlayerItem@@@Z
	DD	FLAT:?GiveAmmo@CBaseEntity@@UAEHHPADH@Z
	DD	FLAT:?GetDelay@CBaseEntity@@UAEMXZ
	DD	FLAT:?IsMoving@CBaseEntity@@UAEHXZ
	DD	FLAT:?OverrideReset@CBaseEntity@@UAEXXZ
	DD	FLAT:?TransferReset@CBaseEntity@@UAEXXZ
	DD	FLAT:?DamageDecal@CBaseEntity@@UAEHH@Z
	DD	FLAT:?SetToggleState@CBaseEntity@@UAEXH@Z
	DD	FLAT:?StartSneaking@CBaseEntity@@UAEXXZ
	DD	FLAT:?StopSneaking@CBaseEntity@@UAEXXZ
	DD	FLAT:?OnControls@CBaseEntity@@UAEHPAV1@@Z
	DD	FLAT:?IsSneaking@CBaseEntity@@UAEHXZ
	DD	FLAT:?IsAlive@CBaseEntity@@UAEHXZ
	DD	FLAT:?IsBSPModel@CBaseEntity@@UAEHXZ
	DD	FLAT:?IsCustomModel@CBaseEntity@@UAEHXZ
	DD	FLAT:?ReflectGauss@CBaseEntity@@UAEHXZ
	DD	FLAT:?HasTarget@CBaseEntity@@UAEHH@Z
	DD	FLAT:?IsInWorld@CBaseEntity@@UAEHH@Z
	DD	FLAT:?IsPlayer@CBaseEntity@@UAEHXZ
	DD	FLAT:?IsNetClient@CBaseEntity@@UAEHXZ
	DD	FLAT:?IsMonster@CBaseEntity@@UAEHXZ
	DD	FLAT:?IsPushable@CBaseEntity@@UAEHXZ
	DD	FLAT:?IsProjectile@CBaseEntity@@UAEHXZ
	DD	FLAT:?IsFuncScreen@CBaseEntity@@UAEHXZ
	DD	FLAT:?IsPortal@CBaseEntity@@UAEHXZ
	DD	FLAT:?IsTank@CBaseEntity@@UAEHXZ
	DD	FLAT:?IsMover@CBaseEntity@@UAEHXZ
	DD	FLAT:?IsBreakable@CBaseEntity@@UAEHXZ
	DD	FLAT:?TeamID@CBaseEntity@@UAEPBDXZ
	DD	FLAT:?AddSpawnFlags@CBaseEntity@@UAEXH@Z
	DD	FLAT:?HasSpawnFlags@CBaseEntity@@UBE_NH@Z
	DD	FLAT:?SetFadeDistance@CBaseEntity@@UAEXH@Z
	DD	FLAT:?SetFlag@CBaseEntity@@UAEXH@Z
	DD	FLAT:?HasFlag@CBaseEntity@@UBE_NH@Z
	DD	FLAT:?RemoveFlag@CBaseEntity@@UAEXH@Z
	DD	FLAT:?SetNullModel@CBaseEntity@@UAEXXZ
	DD	FLAT:?OnPickupObject@CBaseEntity@@UAEXXZ
	DD	FLAT:?OnDropObject@CBaseEntity@@UAEXXZ
	DD	FLAT:?GetNextTarget@CBaseEntity@@UAEPAV1@XZ
	DD	FLAT:?Think@CBaseEntity@@UAEXXZ
	DD	FLAT:?Use@CBaseEntity@@UAEXPAV1@0W4USE_TYPE@@M@Z
	DD	FLAT:?Touch@CBaseEntity@@UAEXPAV1@@Z
	DD	FLAT:?Blocked@CBaseEntity@@UAEXPAV1@@Z
	DD	FLAT:?MoveDone@CBaseEntity@@UAEXXZ
	DD	FLAT:?Respawn@CBaseEntity@@UAEPAV1@XZ
	DD	FLAT:?UpdateOwner@CBaseEntity@@UAEXXZ
	DD	FLAT:?FBecomeProne@CBaseEntity@@UAEHXZ
	DD	FLAT:?Center@CBaseEntity@@UAE?AVVector@@XZ
	DD	FLAT:?EyePosition@CBaseEntity@@UAE?AVVector@@XZ
	DD	FLAT:?EarPosition@CBaseEntity@@UAE?AVVector@@XZ
	DD	FLAT:?BodyTarget@CBaseEntity@@UAE?AVVector@@ABV2@@Z
	DD	FLAT:?IsPointSized@CBaseEntity@@UBEHXZ
	DD	FLAT:?Illumination@CBaseEntity@@UAEHXZ
	DD	FLAT:?FVisible@CBaseEntity@@UAEHABVVector@@@Z
	DD	FLAT:?FVisible@CBaseEntity@@UAEHPAV1@@Z
	DD	FLAT:?ShouldCollide@CBaseEntity@@UAEHPAV1@@Z
	DD	FLAT:?ClearEffects@CBaseEntity@@UAEXXZ
CONST	ENDS
;	COMDAT ??_C@_0CH@HELFJPDL@FUNCTION?5NOT?5IN?5TABLE?$CB?3?5?$CFs?3?$CFs?5?$CI?$CF@
CONST	SEGMENT
??_C@_0CH@HELFJPDL@FUNCTION?5NOT?5IN?5TABLE?$CB?3?5?$CFs?3?$CFs?5?$CI?$CF@ DB 'F'
	DB	'UNCTION NOT IN TABLE!: %s:%s (%08lx)', 0aH, 00H ; `string'
CONST	ENDS
;	COMDAT ??_C@_0L@JIJDCONP@customname?$AA@
CONST	SEGMENT
??_C@_0L@JIJDCONP@customname?$AA@ DB 'customname', 00H	; `string'
CONST	ENDS
;	COMDAT ??_C@_0N@JILDNHAP@vlight_cache?$AA@
CONST	SEGMENT
??_C@_0N@JILDNHAP@vlight_cache?$AA@ DB 'vlight_cache', 00H ; `string'
CONST	ENDS
;	COMDAT ??_C@_0L@IKCANML@reflection?$AA@
CONST	SEGMENT
??_C@_0L@IKCANML@reflection?$AA@ DB 'reflection', 00H	; `string'
CONST	ENDS
;	COMDAT ??_C@_05IAKJCFIM@style?$AA@
CONST	SEGMENT
??_C@_05IAKJCFIM@style?$AA@ DB 'style', 00H		; `string'
CONST	ENDS
;	COMDAT ??_C@_0M@EAELDHJO@parentflags?$AA@
CONST	SEGMENT
??_C@_0M@EAELDHJO@parentflags?$AA@ DB 'parentflags', 00H ; `string'
CONST	ENDS
;	COMDAT ??_C@_08JJJAOBDI@movewith?$AA@
CONST	SEGMENT
??_C@_08JJJAOBDI@movewith?$AA@ DB 'movewith', 00H	; `string'
CONST	ENDS
;	COMDAT ??_C@_06MLKDMCBD@parent?$AA@
CONST	SEGMENT
??_C@_06MLKDMCBD@parent?$AA@ DB 'parent', 00H		; `string'
CONST	ENDS
;	COMDAT ??_7CBaseEntity@@6B@
CONST	SEGMENT
??_7CBaseEntity@@6B@ DD FLAT:??_R4CBaseEntity@@6B@	; CBaseEntity::`vftable'
	DD	FLAT:?GetDataDescMap@CBaseEntity@@UAEPAUdatamap_s@@XZ
	DD	FLAT:?Spawn@CBaseEntity@@UAEXXZ
	DD	FLAT:?Precache@CBaseEntity@@UAEXXZ
	DD	FLAT:?KeyValue@CBaseEntity@@UAEXPAUKeyValueData_s@@@Z
	DD	FLAT:?Save@CBaseEntity@@UAEHAAVCSave@@@Z
	DD	FLAT:?Restore@CBaseEntity@@UAEHAAVCRestore@@@Z
	DD	FLAT:?ObjectCaps@CBaseEntity@@UAEHXZ
	DD	FLAT:?Activate@CBaseEntity@@UAEXXZ
	DD	FLAT:?OnChangeLevel@CBaseEntity@@UAEXXZ
	DD	FLAT:?OnTeleport@CBaseEntity@@UAEXXZ
	DD	FLAT:?PortalSleep@CBaseEntity@@UAEXM@Z
	DD	FLAT:?StartMessage@CBaseEntity@@UAEXPAVCBasePlayer@@@Z
	DD	FLAT:?GetPosition@CBaseEntity@@UAEMXZ
	DD	FLAT:?OnChangeParent@CBaseEntity@@UAEXXZ
	DD	FLAT:?OnClearParent@CBaseEntity@@UAEXXZ
	DD	FLAT:?OnRemove@CBaseEntity@@UAEXXZ
	DD	FLAT:?SetObjectCollisionBox@CBaseEntity@@UAEXXZ
	DD	FLAT:?Classify@CBaseEntity@@UAEHXZ
	DD	FLAT:?DeathNotice@CBaseEntity@@UAEXPAUentvars_s@@@Z
	DD	FLAT:?IsRigidBody@CBaseEntity@@UAEHXZ
	DD	FLAT:?SetNextThink@CBaseEntity@@UAEXM@Z
	DD	FLAT:?GetState@CBaseEntity@@UAE?AW4STATE@@PAV1@@Z
	DD	FLAT:?GetState@CBaseEntity@@UAE?AW4STATE@@XZ
	DD	FLAT:?TraceAttack@CBaseEntity@@UAEXPAUentvars_s@@MVVector@@PAUgametrace_s@@H@Z
	DD	FLAT:?TakeDamage@CBaseEntity@@UAEHPAUentvars_s@@0MH@Z
	DD	FLAT:?TakeHealth@CBaseEntity@@UAEHMH@Z
	DD	FLAT:?TakeArmor@CBaseEntity@@UAEHMH@Z
	DD	FLAT:?Killed@CBaseEntity@@UAEXPAUentvars_s@@H@Z
	DD	FLAT:?BloodColor@CBaseEntity@@UAEHXZ
	DD	FLAT:?TraceBleed@CBaseEntity@@UAEXMVVector@@PAUgametrace_s@@H@Z
	DD	FLAT:?IsTriggered@CBaseEntity@@UAEHPAV1@@Z
	DD	FLAT:?MyMonsterPointer@CBaseEntity@@UAEPAVCBaseMonster@@XZ
	DD	FLAT:?MySquadMonsterPointer@CBaseEntity@@UAEPAVCSquadMonster@@XZ
	DD	FLAT:?GetToggleState@CBaseEntity@@UAEHXZ
	DD	FLAT:?AddPoints@CBaseEntity@@UAEXHH@Z
	DD	FLAT:?AddPointsToTeam@CBaseEntity@@UAEXHH@Z
	DD	FLAT:?AddPlayerItem@CBaseEntity@@UAEHPAVCBasePlayerItem@@@Z
	DD	FLAT:?RemovePlayerItem@CBaseEntity@@UAEHPAVCBasePlayerItem@@@Z
	DD	FLAT:?GiveAmmo@CBaseEntity@@UAEHHPADH@Z
	DD	FLAT:?GetDelay@CBaseEntity@@UAEMXZ
	DD	FLAT:?IsMoving@CBaseEntity@@UAEHXZ
	DD	FLAT:?OverrideReset@CBaseEntity@@UAEXXZ
	DD	FLAT:?TransferReset@CBaseEntity@@UAEXXZ
	DD	FLAT:?DamageDecal@CBaseEntity@@UAEHH@Z
	DD	FLAT:?SetToggleState@CBaseEntity@@UAEXH@Z
	DD	FLAT:?StartSneaking@CBaseEntity@@UAEXXZ
	DD	FLAT:?StopSneaking@CBaseEntity@@UAEXXZ
	DD	FLAT:?OnControls@CBaseEntity@@UAEHPAV1@@Z
	DD	FLAT:?IsSneaking@CBaseEntity@@UAEHXZ
	DD	FLAT:?IsAlive@CBaseEntity@@UAEHXZ
	DD	FLAT:?IsBSPModel@CBaseEntity@@UAEHXZ
	DD	FLAT:?IsCustomModel@CBaseEntity@@UAEHXZ
	DD	FLAT:?ReflectGauss@CBaseEntity@@UAEHXZ
	DD	FLAT:?HasTarget@CBaseEntity@@UAEHH@Z
	DD	FLAT:?IsInWorld@CBaseEntity@@UAEHH@Z
	DD	FLAT:?IsPlayer@CBaseEntity@@UAEHXZ
	DD	FLAT:?IsNetClient@CBaseEntity@@UAEHXZ
	DD	FLAT:?IsMonster@CBaseEntity@@UAEHXZ
	DD	FLAT:?IsPushable@CBaseEntity@@UAEHXZ
	DD	FLAT:?IsProjectile@CBaseEntity@@UAEHXZ
	DD	FLAT:?IsFuncScreen@CBaseEntity@@UAEHXZ
	DD	FLAT:?IsPortal@CBaseEntity@@UAEHXZ
	DD	FLAT:?IsTank@CBaseEntity@@UAEHXZ
	DD	FLAT:?IsMover@CBaseEntity@@UAEHXZ
	DD	FLAT:?IsBreakable@CBaseEntity@@UAEHXZ
	DD	FLAT:?TeamID@CBaseEntity@@UAEPBDXZ
	DD	FLAT:?AddSpawnFlags@CBaseEntity@@UAEXH@Z
	DD	FLAT:?HasSpawnFlags@CBaseEntity@@UBE_NH@Z
	DD	FLAT:?SetFadeDistance@CBaseEntity@@UAEXH@Z
	DD	FLAT:?SetFlag@CBaseEntity@@UAEXH@Z
	DD	FLAT:?HasFlag@CBaseEntity@@UBE_NH@Z
	DD	FLAT:?RemoveFlag@CBaseEntity@@UAEXH@Z
	DD	FLAT:?SetNullModel@CBaseEntity@@UAEXXZ
	DD	FLAT:?OnPickupObject@CBaseEntity@@UAEXXZ
	DD	FLAT:?OnDropObject@CBaseEntity@@UAEXXZ
	DD	FLAT:?GetNextTarget@CBaseEntity@@UAEPAV1@XZ
	DD	FLAT:?Think@CBaseEntity@@UAEXXZ
	DD	FLAT:?Use@CBaseEntity@@UAEXPAV1@0W4USE_TYPE@@M@Z
	DD	FLAT:?Touch@CBaseEntity@@UAEXPAV1@@Z
	DD	FLAT:?Blocked@CBaseEntity@@UAEXPAV1@@Z
	DD	FLAT:?MoveDone@CBaseEntity@@UAEXXZ
	DD	FLAT:?Respawn@CBaseEntity@@UAEPAV1@XZ
	DD	FLAT:?UpdateOwner@CBaseEntity@@UAEXXZ
	DD	FLAT:?FBecomeProne@CBaseEntity@@UAEHXZ
	DD	FLAT:?Center@CBaseEntity@@UAE?AVVector@@XZ
	DD	FLAT:?EyePosition@CBaseEntity@@UAE?AVVector@@XZ
	DD	FLAT:?EarPosition@CBaseEntity@@UAE?AVVector@@XZ
	DD	FLAT:?BodyTarget@CBaseEntity@@UAE?AVVector@@ABV2@@Z
	DD	FLAT:?IsPointSized@CBaseEntity@@UBEHXZ
	DD	FLAT:?Illumination@CBaseEntity@@UAEHXZ
	DD	FLAT:?FVisible@CBaseEntity@@UAEHABVVector@@@Z
	DD	FLAT:?FVisible@CBaseEntity@@UAEHPAV1@@Z
	DD	FLAT:?ShouldCollide@CBaseEntity@@UAEHPAV1@@Z
	DD	FLAT:?ClearEffects@CBaseEntity@@UAEXXZ
CONST	ENDS
;	COMDAT ??_7IPhysicLayer@@6B@
CONST	SEGMENT
??_7IPhysicLayer@@6B@ DD FLAT:??_R4IPhysicLayer@@6B@	; IPhysicLayer::`vftable'
	DD	FLAT:__purecall
	DD	FLAT:__purecall
	DD	FLAT:__purecall
	DD	FLAT:__purecall
	DD	FLAT:__purecall
	DD	FLAT:__purecall
	DD	FLAT:__purecall
	DD	FLAT:__purecall
	DD	FLAT:__purecall
	DD	FLAT:__purecall
	DD	FLAT:__purecall
	DD	FLAT:__purecall
	DD	FLAT:__purecall
	DD	FLAT:__purecall
	DD	FLAT:__purecall
	DD	FLAT:__purecall
	DD	FLAT:__purecall
	DD	FLAT:__purecall
	DD	FLAT:__purecall
	DD	FLAT:__purecall
	DD	FLAT:__purecall
	DD	FLAT:__purecall
	DD	FLAT:__purecall
	DD	FLAT:__purecall
	DD	FLAT:__purecall
	DD	FLAT:__purecall
	DD	FLAT:__purecall
	DD	FLAT:__purecall
	DD	FLAT:__purecall
	DD	FLAT:__purecall
	DD	FLAT:__purecall
	DD	FLAT:__purecall
	DD	FLAT:__purecall
	DD	FLAT:__purecall
	DD	FLAT:__purecall
	DD	FLAT:__purecall
	DD	FLAT:__purecall
	DD	FLAT:__purecall
	DD	FLAT:__purecall
	DD	FLAT:__purecall
	DD	FLAT:__purecall
	DD	FLAT:__purecall
	DD	FLAT:__purecall
CONST	ENDS
;	COMDAT ??_7IEntityFactory@@6B@
CONST	SEGMENT
??_7IEntityFactory@@6B@ DD FLAT:??_R4IEntityFactory@@6B@ ; IEntityFactory::`vftable'
	DD	FLAT:__purecall
	DD	FLAT:__purecall
	DD	FLAT:__purecall
CONST	ENDS
;	COMDAT ??_C@_04EFCDBJNL@?$CFs?3?3?$AA@
CONST	SEGMENT
??_C@_04EFCDBJNL@?$CFs?3?3?$AA@ DB '%s::', 00H		; `string'
CONST	ENDS
;	COMDAT ??_C@_00CNPNBAHC@?$AA@
CONST	SEGMENT
??_C@_00CNPNBAHC@?$AA@ DB 00H				; `string'
CONST	ENDS
;	COMDAT xdata$x
xdata$x	SEGMENT
__unwindtable$??$GetClassPtr@VCDecal@@@@YAPAVCDecal@@PAV0@PBD@Z DD 0ffffffffH
	DD	FLAT:__unwindfunclet$??$GetClassPtr@VCDecal@@@@YAPAVCDecal@@PAV0@PBD@Z$0
__ehfuncinfo$??$GetClassPtr@VCDecal@@@@YAPAVCDecal@@PAV0@PBD@Z DD 019930522H
	DD	01H
	DD	FLAT:__unwindtable$??$GetClassPtr@VCDecal@@@@YAPAVCDecal@@PAV0@PBD@Z
	DD	2 DUP(00H)
	DD	2 DUP(00H)
	DD	00H
	DD	01H
xdata$x	ENDS
;	COMDAT xdata$x
xdata$x	SEGMENT
__unwindtable$??$GetClassPtr@VCCorpse@@@@YAPAVCCorpse@@PAV0@PBD@Z DD 0ffffffffH
	DD	FLAT:__unwindfunclet$??$GetClassPtr@VCCorpse@@@@YAPAVCCorpse@@PAV0@PBD@Z$0
__ehfuncinfo$??$GetClassPtr@VCCorpse@@@@YAPAVCCorpse@@PAV0@PBD@Z DD 019930522H
	DD	01H
	DD	FLAT:__unwindtable$??$GetClassPtr@VCCorpse@@@@YAPAVCCorpse@@PAV0@PBD@Z
	DD	2 DUP(00H)
	DD	2 DUP(00H)
	DD	00H
	DD	01H
xdata$x	ENDS
;	COMDAT xdata$x
xdata$x	SEGMENT
__unwindtable$??$GetClassPtr@VCWorld@@@@YAPAVCWorld@@PAV0@PBD@Z DD 0ffffffffH
	DD	FLAT:__unwindfunclet$??$GetClassPtr@VCWorld@@@@YAPAVCWorld@@PAV0@PBD@Z$0
__ehfuncinfo$??$GetClassPtr@VCWorld@@@@YAPAVCWorld@@PAV0@PBD@Z DD 019930522H
	DD	01H
	DD	FLAT:__unwindtable$??$GetClassPtr@VCWorld@@@@YAPAVCWorld@@PAV0@PBD@Z
	DD	2 DUP(00H)
	DD	2 DUP(00H)
	DD	00H
	DD	01H
xdata$x	ENDS
;	COMDAT xdata$x
xdata$x	SEGMENT
__unwindtable$??$GetClassPtr@VCSoundEnt@@@@YAPAVCSoundEnt@@PAV0@@Z DD 0ffffffffH
	DD	FLAT:__unwindfunclet$??$GetClassPtr@VCSoundEnt@@@@YAPAVCSoundEnt@@PAV0@@Z$0
__ehfuncinfo$??$GetClassPtr@VCSoundEnt@@@@YAPAVCSoundEnt@@PAV0@@Z DD 019930522H
	DD	01H
	DD	FLAT:__unwindtable$??$GetClassPtr@VCSoundEnt@@@@YAPAVCSoundEnt@@PAV0@@Z
	DD	2 DUP(00H)
	DD	2 DUP(00H)
	DD	00H
	DD	01H
xdata$x	ENDS
;	COMDAT xdata$x
xdata$x	SEGMENT
__unwindtable$??$DataMapInit@Uglobalentity_s@@@@YAPAUdatamap_s@@PAUglobalentity_s@@@Z DD 0ffffffffH
	DD	FLAT:__unwindfunclet$??$DataMapInit@Uglobalentity_s@@@@YAPAUdatamap_s@@PAUglobalentity_s@@@Z$0
__ehfuncinfo$??$DataMapInit@Uglobalentity_s@@@@YAPAUdatamap_s@@PAUglobalentity_s@@@Z DD 019930522H
	DD	01H
	DD	FLAT:__unwindtable$??$DataMapInit@Uglobalentity_s@@@@YAPAUdatamap_s@@PAUglobalentity_s@@@Z
	DD	2 DUP(00H)
	DD	2 DUP(00H)
	DD	00H
	DD	01H
xdata$x	ENDS
;	COMDAT xdata$x
xdata$x	SEGMENT
__unwindtable$??$DataMapInit@VCGlobalState@@@@YAPAUdatamap_s@@PAVCGlobalState@@@Z DD 0ffffffffH
	DD	FLAT:__unwindfunclet$??$DataMapInit@VCGlobalState@@@@YAPAUdatamap_s@@PAVCGlobalState@@@Z$0
__ehfuncinfo$??$DataMapInit@VCGlobalState@@@@YAPAUdatamap_s@@PAVCGlobalState@@@Z DD 019930522H
	DD	01H
	DD	FLAT:__unwindtable$??$DataMapInit@VCGlobalState@@@@YAPAUdatamap_s@@PAVCGlobalState@@@Z
	DD	2 DUP(00H)
	DD	2 DUP(00H)
	DD	00H
	DD	01H
xdata$x	ENDS
;	COMDAT xdata$x
xdata$x	SEGMENT
__unwindtable$??$DataMapInit@VCDecal@@@@YAPAUdatamap_s@@PAVCDecal@@@Z DD 0ffffffffH
	DD	FLAT:__unwindfunclet$??$DataMapInit@VCDecal@@@@YAPAUdatamap_s@@PAVCDecal@@@Z$0
	DD	0ffffffffH
	DD	FLAT:__unwindfunclet$??$DataMapInit@VCDecal@@@@YAPAUdatamap_s@@PAVCDecal@@@Z$1
__ehfuncinfo$??$DataMapInit@VCDecal@@@@YAPAUdatamap_s@@PAVCDecal@@@Z DD 019930522H
	DD	02H
	DD	FLAT:__unwindtable$??$DataMapInit@VCDecal@@@@YAPAUdatamap_s@@PAVCDecal@@@Z
	DD	2 DUP(00H)
	DD	2 DUP(00H)
	DD	00H
	DD	01H
xdata$x	ENDS
;	COMDAT xdata$x
xdata$x	SEGMENT
__unwindtable$??0CSoundEnt@@QAE@XZ DD 0ffffffffH
	DD	FLAT:__unwindfunclet$??0CSoundEnt@@QAE@XZ$0
__ehfuncinfo$??0CSoundEnt@@QAE@XZ DD 019930522H
	DD	01H
	DD	FLAT:__unwindtable$??0CSoundEnt@@QAE@XZ
	DD	2 DUP(00H)
	DD	2 DUP(00H)
	DD	00H
	DD	01H
xdata$x	ENDS
;	COMDAT xdata$x
xdata$x	SEGMENT
__unwindtable$??0CBaseEntity@@QAE@XZ DD 0ffffffffH
	DD	FLAT:__unwindfunclet$??0CBaseEntity@@QAE@XZ$0
__ehfuncinfo$??0CBaseEntity@@QAE@XZ DD 019930522H
	DD	01H
	DD	FLAT:__unwindtable$??0CBaseEntity@@QAE@XZ
	DD	2 DUP(00H)
	DD	2 DUP(00H)
	DD	00H
	DD	01H
xdata$x	ENDS
;	COMDAT xdata$x
xdata$x	SEGMENT
__unwindtable$?RestoreGlobalState@@YAXPAUsaverestore_s@@@Z DD 0ffffffffH
	DD	FLAT:__unwindfunclet$?RestoreGlobalState@@YAXPAUsaverestore_s@@@Z$0
__ehfuncinfo$?RestoreGlobalState@@YAXPAUsaverestore_s@@@Z DD 019930522H
	DD	01H
	DD	FLAT:__unwindtable$?RestoreGlobalState@@YAXPAUsaverestore_s@@@Z
	DD	2 DUP(00H)
	DD	2 DUP(00H)
	DD	00H
	DD	01H
xdata$x	ENDS
;	COMDAT xdata$x
xdata$x	SEGMENT
__unwindtable$?SaveGlobalState@@YAXPAUsaverestore_s@@@Z DD 0ffffffffH
	DD	FLAT:__unwindfunclet$?SaveGlobalState@@YAXPAUsaverestore_s@@@Z$0
__ehfuncinfo$?SaveGlobalState@@YAXPAUsaverestore_s@@@Z DD 019930522H
	DD	01H
	DD	FLAT:__unwindtable$?SaveGlobalState@@YAXPAUsaverestore_s@@@Z
	DD	2 DUP(00H)
	DD	2 DUP(00H)
	DD	00H
	DD	01H
xdata$x	ENDS
;	COMDAT xdata$x
xdata$x	SEGMENT
__ehfuncinfo$??1?$CUtlMemory@PADH@@QAE@XZ DD 019930522H
	DD	00H
	DD	00H
	DD	2 DUP(00H)
	DD	2 DUP(00H)
	DD	00H
	DD	05H
xdata$x	ENDS
;	COMDAT xdata$x
xdata$x	SEGMENT
__ehfuncinfo$??1?$CUtlArray@PADV?$CUtlMemory@PADH@@@@QAE@XZ DD 019930522H
	DD	00H
	DD	00H
	DD	2 DUP(00H)
	DD	2 DUP(00H)
	DD	00H
	DD	05H
xdata$x	ENDS
;	COMDAT xdata$x
xdata$x	SEGMENT
__unwindtable$??0?$CUtlArray@PADV?$CUtlMemory@PADH@@@@QAE@HH@Z DD 0ffffffffH
	DD	FLAT:__unwindfunclet$??0?$CUtlArray@PADV?$CUtlMemory@PADH@@@@QAE@HH@Z$0
__ehfuncinfo$??0?$CUtlArray@PADV?$CUtlMemory@PADH@@@@QAE@HH@Z DD 019930522H
	DD	01H
	DD	FLAT:__unwindtable$??0?$CUtlArray@PADV?$CUtlMemory@PADH@@@@QAE@HH@Z
	DD	2 DUP(00H)
	DD	2 DUP(00H)
	DD	00H
	DD	01H
xdata$x	ENDS
;	COMDAT xdata$x
xdata$x	SEGMENT
__ehfuncinfo$??1CDatadescGeneratedNameHolder@@QAE@XZ DD 019930522H
	DD	00H
	DD	00H
	DD	2 DUP(00H)
	DD	2 DUP(00H)
	DD	00H
	DD	05H
xdata$x	ENDS
CRT$XCU	SEGMENT
?NullPhysic$initializer$@@3P6AXXZA DD FLAT:??__ENullPhysic@@YAXXZ ; NullPhysic$initializer$
CRT$XCU	ENDS
CRT$XCU	SEGMENT
?infodecal$initializer$@@3P6AXXZA DD FLAT:??__Einfodecal@@YAXXZ ; infodecal$initializer$
CRT$XCU	ENDS
CRT$XCU	SEGMENT
?g_DataMapHolder$initializer$@CDecal_DataDescInit@@3P6AXXZA DD FLAT:??__Eg_DataMapHolder@CDecal_DataDescInit@@YAXXZ ; CDecal_DataDescInit::g_DataMapHolder$initializer$
CRT$XCU	ENDS
CRT$XCU	SEGMENT
?bodyque$initializer$@@3P6AXXZA DD FLAT:??__Ebodyque@@YAXXZ ; bodyque$initializer$
CRT$XCU	ENDS
CRT$XCU	SEGMENT
?g_DataMapHolder$initializer$@CGlobalState_DataDescInit@@3P6AXXZA DD FLAT:??__Eg_DataMapHolder@CGlobalState_DataDescInit@@YAXXZ ; CGlobalState_DataDescInit::g_DataMapHolder$initializer$
CRT$XCU	ENDS
CRT$XCU	SEGMENT
?g_DataMapHolder$initializer$@globalentity_t_DataDescInit@@3P6AXXZA DD FLAT:??__Eg_DataMapHolder@globalentity_t_DataDescInit@@YAXXZ ; globalentity_t_DataDescInit::g_DataMapHolder$initializer$
CRT$XCU	ENDS
CRT$XCU	SEGMENT
?worldspawn$initializer$@@3P6AXXZA DD FLAT:??__Eworldspawn@@YAXXZ ; worldspawn$initializer$
CRT$XCU	ENDS
; Function compile flags: /Odtp /ZI
; File d:\!diffusion 2020\source code 2022\client-server\game_shared\utlmemory.h
;	COMDAT ??$Destruct@PAD@@YAXPAPAD@Z
_TEXT	SEGMENT
_pMemory$ = 8						; size = 4
??$Destruct@PAD@@YAXPAPAD@Z PROC			; Destruct<char *>, COMDAT

; 49   : {

	push	ebp
	mov	ebp, esp
	sub	esp, 64					; 00000040H
	push	ebx
	push	esi
	push	edi

; 50   : 	pMemory->~T();
; 51   : 
; 52   : #ifdef _DEBUG
; 53   : 	memset( pMemory, 0xDD, sizeof(T) );

	push	4
	push	221					; 000000ddH
	mov	eax, DWORD PTR _pMemory$[ebp]
	push	eax
	call	_memset
	add	esp, 12					; 0000000cH

; 54   : #endif
; 55   : }

	pop	edi
	pop	esi
	pop	ebx
	mov	esp, ebp
	pop	ebp
	ret	0
??$Destruct@PAD@@YAXPAPAD@Z ENDP			; Destruct<char *>
_TEXT	ENDS
; Function compile flags: /Odtp /ZI
; File d:\!diffusion 2020\source code 2022\client-server\game_shared\utlmemory.h
;	COMDAT ??$CopyConstruct@PAD@@YAXPAPADABQAD@Z
_TEXT	SEGMENT
tv71 = -72						; size = 4
$T1 = -68						; size = 4
_pMemory$ = 8						; size = 4
_src$ = 12						; size = 4
??$CopyConstruct@PAD@@YAXPAPADABQAD@Z PROC		; CopyConstruct<char *>, COMDAT

; 43   : {

	push	ebp
	mov	ebp, esp
	sub	esp, 72					; 00000048H
	push	ebx
	push	esi
	push	edi

; 44   : 	new( pMemory ) T(src);

	mov	eax, DWORD PTR _pMemory$[ebp]
	push	eax
	push	4
	call	??2@YAPAXIPAX@Z				; operator new
	add	esp, 8
	mov	DWORD PTR $T1[ebp], eax
	cmp	DWORD PTR $T1[ebp], 0
	je	SHORT $LN3@CopyConstr
	mov	ecx, DWORD PTR $T1[ebp]
	mov	edx, DWORD PTR _src$[ebp]
	mov	eax, DWORD PTR [edx]
	mov	DWORD PTR [ecx], eax
	mov	ecx, DWORD PTR $T1[ebp]
	mov	DWORD PTR tv71[ebp], ecx
	jmp	SHORT $LN1@CopyConstr
$LN3@CopyConstr:
	mov	DWORD PTR tv71[ebp], 0
$LN1@CopyConstr:

; 45   : }

	pop	edi
	pop	esi
	pop	ebx
	mov	esp, ebp
	pop	ebp
	ret	0
??$CopyConstruct@PAD@@YAXPAPADABQAD@Z ENDP		; CopyConstruct<char *>
_TEXT	ENDS
; Function compile flags: /Odtp /ZI
; File d:\!diffusion 2020\source code 2022\client-server\server\cbase.h
;	COMDAT ??$GetClassPtr@VCDecal@@@@YAPAVCDecal@@PAV0@PBD@Z
_TEXT	SEGMENT
tv85 = -92						; size = 4
$T2 = -88						; size = 4
$T3 = -84						; size = 4
_pev$ = -16						; size = 4
__$EHRec$ = -12						; size = 12
_newEnt$ = 8						; size = 4
_className$ = 12					; size = 4
??$GetClassPtr@VCDecal@@@@YAPAVCDecal@@PAV0@PBD@Z PROC	; GetClassPtr<CDecal>, COMDAT

; 1146 : {

	push	ebp
	mov	ebp, esp
	push	-1
	push	__ehhandler$??$GetClassPtr@VCDecal@@@@YAPAVCDecal@@PAV0@PBD@Z
	mov	eax, DWORD PTR fs:0
	push	eax
	sub	esp, 80					; 00000050H
	push	ebx
	push	esi
	push	edi
	mov	eax, DWORD PTR ___security_cookie
	xor	eax, ebp
	push	eax
	lea	eax, DWORD PTR __$EHRec$[ebp]
	mov	DWORD PTR fs:0, eax

; 1147 : 	entvars_t *pev = (entvars_t *)newEnt;

	mov	eax, DWORD PTR _newEnt$[ebp]
	mov	DWORD PTR _pev$[ebp], eax

; 1148 : 
; 1149 : 	// allocate entity if necessary
; 1150 : 	if (pev == NULL)

	cmp	DWORD PTR _pev$[ebp], 0
	jne	SHORT $LN2@GetClassPt

; 1151 : 		pev = VARS(CREATE_ENTITY());

	call	DWORD PTR ?g_engfuncs@@3Uenginefuncs_s@@A+84
	push	eax
	call	?VARS@@YAPAUentvars_s@@PAUedict_s@@@Z	; VARS
	add	esp, 4
	mov	DWORD PTR _pev$[ebp], eax
$LN2@GetClassPt:

; 1152 : 
; 1153 : 	// get the private data
; 1154 : 	newEnt = (T *)GET_PRIVATE(ENT(pev));

	mov	eax, DWORD PTR _pev$[ebp]
	push	eax
	call	?ENT@@YAPAUedict_s@@PBUentvars_s@@@Z	; ENT
	add	esp, 4
	push	eax
	call	?GET_PRIVATE@@YAPAXPAUedict_s@@@Z	; GET_PRIVATE
	add	esp, 4
	mov	DWORD PTR _newEnt$[ebp], eax

; 1155 : 
; 1156 : 	if (newEnt == NULL) 

	cmp	DWORD PTR _newEnt$[ebp], 0
	jne	SHORT $LN3@GetClassPt

; 1157 : 	{
; 1158 : 		// allocate private data 
; 1159 : 		newEnt = new(pev) T;

	mov	eax, DWORD PTR _pev$[ebp]
	push	eax
	push	1804					; 0000070cH
	call	??2CBaseEntity@@SAPAXIPAUentvars_s@@@Z	; CBaseEntity::operator new
	add	esp, 8
	mov	DWORD PTR $T2[ebp], eax
	mov	DWORD PTR __$EHRec$[ebp+8], 0
	cmp	DWORD PTR $T2[ebp], 0
	je	SHORT $LN5@GetClassPt
	mov	ecx, DWORD PTR $T2[ebp]
	call	??0CDecal@@QAE@XZ
	mov	DWORD PTR tv85[ebp], eax
	jmp	SHORT $LN6@GetClassPt
$LN5@GetClassPt:
	mov	DWORD PTR tv85[ebp], 0
$LN6@GetClassPt:
	mov	ecx, DWORD PTR tv85[ebp]
	mov	DWORD PTR $T3[ebp], ecx
	mov	DWORD PTR __$EHRec$[ebp+8], -1
	mov	edx, DWORD PTR $T3[ebp]
	mov	DWORD PTR _newEnt$[ebp], edx

; 1160 : 		newEnt->pev = pev;

	mov	eax, DWORD PTR _newEnt$[ebp]
	mov	ecx, DWORD PTR _pev$[ebp]
	mov	DWORD PTR [eax+4], ecx
$LN3@GetClassPt:

; 1161 : 	}
; 1162 : 	newEnt->SetClassname( className );

	mov	eax, DWORD PTR _className$[ebp]
	push	eax
	mov	ecx, DWORD PTR _newEnt$[ebp]
	call	?SetClassname@CBaseEntity@@QAEXPBD@Z	; CBaseEntity::SetClassname

; 1163 : 
; 1164 : 	return newEnt;

	mov	eax, DWORD PTR _newEnt$[ebp]

; 1165 : }

	mov	ecx, DWORD PTR __$EHRec$[ebp]
	mov	DWORD PTR fs:0, ecx
	pop	ecx
	pop	edi
	pop	esi
	pop	ebx
	mov	esp, ebp
	pop	ebp
	ret	0
_TEXT	ENDS
;	COMDAT text$x
text$x	SEGMENT
__unwindfunclet$??$GetClassPtr@VCDecal@@@@YAPAVCDecal@@PAV0@PBD@Z$0:
	mov	eax, DWORD PTR _pev$[ebp]
	push	eax
	mov	eax, DWORD PTR $T2[ebp]
	push	eax
	call	??3CBaseEntity@@SAXPAXPAUentvars_s@@@Z	; CBaseEntity::operator delete
	add	esp, 8
	ret	0
__ehhandler$??$GetClassPtr@VCDecal@@@@YAPAVCDecal@@PAV0@PBD@Z:
	mov	edx, DWORD PTR [esp+8]
	lea	eax, DWORD PTR [edx+12]
	mov	ecx, DWORD PTR [edx-96]
	xor	ecx, eax
	call	@__security_check_cookie@4
	mov	eax, OFFSET __ehfuncinfo$??$GetClassPtr@VCDecal@@@@YAPAVCDecal@@PAV0@PBD@Z
	jmp	___CxxFrameHandler3
text$x	ENDS
??$GetClassPtr@VCDecal@@@@YAPAVCDecal@@PAV0@PBD@Z ENDP	; GetClassPtr<CDecal>
; Function compile flags: /Odtp /ZI
; File d:\!diffusion 2020\source code 2022\client-server\server\cbase.h
;	COMDAT ??$GetClassPtr@VCCorpse@@@@YAPAVCCorpse@@PAV0@PBD@Z
_TEXT	SEGMENT
tv85 = -92						; size = 4
$T2 = -88						; size = 4
$T3 = -84						; size = 4
_pev$ = -16						; size = 4
__$EHRec$ = -12						; size = 12
_newEnt$ = 8						; size = 4
_className$ = 12					; size = 4
??$GetClassPtr@VCCorpse@@@@YAPAVCCorpse@@PAV0@PBD@Z PROC ; GetClassPtr<CCorpse>, COMDAT

; 1146 : {

	push	ebp
	mov	ebp, esp
	push	-1
	push	__ehhandler$??$GetClassPtr@VCCorpse@@@@YAPAVCCorpse@@PAV0@PBD@Z
	mov	eax, DWORD PTR fs:0
	push	eax
	sub	esp, 80					; 00000050H
	push	ebx
	push	esi
	push	edi
	mov	eax, DWORD PTR ___security_cookie
	xor	eax, ebp
	push	eax
	lea	eax, DWORD PTR __$EHRec$[ebp]
	mov	DWORD PTR fs:0, eax

; 1147 : 	entvars_t *pev = (entvars_t *)newEnt;

	mov	eax, DWORD PTR _newEnt$[ebp]
	mov	DWORD PTR _pev$[ebp], eax

; 1148 : 
; 1149 : 	// allocate entity if necessary
; 1150 : 	if (pev == NULL)

	cmp	DWORD PTR _pev$[ebp], 0
	jne	SHORT $LN2@GetClassPt

; 1151 : 		pev = VARS(CREATE_ENTITY());

	call	DWORD PTR ?g_engfuncs@@3Uenginefuncs_s@@A+84
	push	eax
	call	?VARS@@YAPAUentvars_s@@PAUedict_s@@@Z	; VARS
	add	esp, 4
	mov	DWORD PTR _pev$[ebp], eax
$LN2@GetClassPt:

; 1152 : 
; 1153 : 	// get the private data
; 1154 : 	newEnt = (T *)GET_PRIVATE(ENT(pev));

	mov	eax, DWORD PTR _pev$[ebp]
	push	eax
	call	?ENT@@YAPAUedict_s@@PBUentvars_s@@@Z	; ENT
	add	esp, 4
	push	eax
	call	?GET_PRIVATE@@YAPAXPAUedict_s@@@Z	; GET_PRIVATE
	add	esp, 4
	mov	DWORD PTR _newEnt$[ebp], eax

; 1155 : 
; 1156 : 	if (newEnt == NULL) 

	cmp	DWORD PTR _newEnt$[ebp], 0
	jne	SHORT $LN3@GetClassPt

; 1157 : 	{
; 1158 : 		// allocate private data 
; 1159 : 		newEnt = new(pev) T;

	mov	eax, DWORD PTR _pev$[ebp]
	push	eax
	push	1804					; 0000070cH
	call	??2CBaseEntity@@SAPAXIPAUentvars_s@@@Z	; CBaseEntity::operator new
	add	esp, 8
	mov	DWORD PTR $T2[ebp], eax
	mov	DWORD PTR __$EHRec$[ebp+8], 0
	cmp	DWORD PTR $T2[ebp], 0
	je	SHORT $LN5@GetClassPt
	mov	ecx, DWORD PTR $T2[ebp]
	call	??0CCorpse@@QAE@XZ
	mov	DWORD PTR tv85[ebp], eax
	jmp	SHORT $LN6@GetClassPt
$LN5@GetClassPt:
	mov	DWORD PTR tv85[ebp], 0
$LN6@GetClassPt:
	mov	ecx, DWORD PTR tv85[ebp]
	mov	DWORD PTR $T3[ebp], ecx
	mov	DWORD PTR __$EHRec$[ebp+8], -1
	mov	edx, DWORD PTR $T3[ebp]
	mov	DWORD PTR _newEnt$[ebp], edx

; 1160 : 		newEnt->pev = pev;

	mov	eax, DWORD PTR _newEnt$[ebp]
	mov	ecx, DWORD PTR _pev$[ebp]
	mov	DWORD PTR [eax+4], ecx
$LN3@GetClassPt:

; 1161 : 	}
; 1162 : 	newEnt->SetClassname( className );

	mov	eax, DWORD PTR _className$[ebp]
	push	eax
	mov	ecx, DWORD PTR _newEnt$[ebp]
	call	?SetClassname@CBaseEntity@@QAEXPBD@Z	; CBaseEntity::SetClassname

; 1163 : 
; 1164 : 	return newEnt;

	mov	eax, DWORD PTR _newEnt$[ebp]

; 1165 : }

	mov	ecx, DWORD PTR __$EHRec$[ebp]
	mov	DWORD PTR fs:0, ecx
	pop	ecx
	pop	edi
	pop	esi
	pop	ebx
	mov	esp, ebp
	pop	ebp
	ret	0
_TEXT	ENDS
;	COMDAT text$x
text$x	SEGMENT
__unwindfunclet$??$GetClassPtr@VCCorpse@@@@YAPAVCCorpse@@PAV0@PBD@Z$0:
	mov	eax, DWORD PTR _pev$[ebp]
	push	eax
	mov	eax, DWORD PTR $T2[ebp]
	push	eax
	call	??3CBaseEntity@@SAXPAXPAUentvars_s@@@Z	; CBaseEntity::operator delete
	add	esp, 8
	ret	0
__ehhandler$??$GetClassPtr@VCCorpse@@@@YAPAVCCorpse@@PAV0@PBD@Z:
	mov	edx, DWORD PTR [esp+8]
	lea	eax, DWORD PTR [edx+12]
	mov	ecx, DWORD PTR [edx-96]
	xor	ecx, eax
	call	@__security_check_cookie@4
	mov	eax, OFFSET __ehfuncinfo$??$GetClassPtr@VCCorpse@@@@YAPAVCCorpse@@PAV0@PBD@Z
	jmp	___CxxFrameHandler3
text$x	ENDS
??$GetClassPtr@VCCorpse@@@@YAPAVCCorpse@@PAV0@PBD@Z ENDP ; GetClassPtr<CCorpse>
; Function compile flags: /Odtp /ZI
; File d:\!diffusion 2020\source code 2022\client-server\server\cbase.h
;	COMDAT ??$GetClassPtr@VCWorld@@@@YAPAVCWorld@@PAV0@PBD@Z
_TEXT	SEGMENT
tv85 = -92						; size = 4
$T2 = -88						; size = 4
$T3 = -84						; size = 4
_pev$ = -16						; size = 4
__$EHRec$ = -12						; size = 12
_newEnt$ = 8						; size = 4
_className$ = 12					; size = 4
??$GetClassPtr@VCWorld@@@@YAPAVCWorld@@PAV0@PBD@Z PROC	; GetClassPtr<CWorld>, COMDAT

; 1146 : {

	push	ebp
	mov	ebp, esp
	push	-1
	push	__ehhandler$??$GetClassPtr@VCWorld@@@@YAPAVCWorld@@PAV0@PBD@Z
	mov	eax, DWORD PTR fs:0
	push	eax
	sub	esp, 80					; 00000050H
	push	ebx
	push	esi
	push	edi
	mov	eax, DWORD PTR ___security_cookie
	xor	eax, ebp
	push	eax
	lea	eax, DWORD PTR __$EHRec$[ebp]
	mov	DWORD PTR fs:0, eax

; 1147 : 	entvars_t *pev = (entvars_t *)newEnt;

	mov	eax, DWORD PTR _newEnt$[ebp]
	mov	DWORD PTR _pev$[ebp], eax

; 1148 : 
; 1149 : 	// allocate entity if necessary
; 1150 : 	if (pev == NULL)

	cmp	DWORD PTR _pev$[ebp], 0
	jne	SHORT $LN2@GetClassPt

; 1151 : 		pev = VARS(CREATE_ENTITY());

	call	DWORD PTR ?g_engfuncs@@3Uenginefuncs_s@@A+84
	push	eax
	call	?VARS@@YAPAUentvars_s@@PAUedict_s@@@Z	; VARS
	add	esp, 4
	mov	DWORD PTR _pev$[ebp], eax
$LN2@GetClassPt:

; 1152 : 
; 1153 : 	// get the private data
; 1154 : 	newEnt = (T *)GET_PRIVATE(ENT(pev));

	mov	eax, DWORD PTR _pev$[ebp]
	push	eax
	call	?ENT@@YAPAUedict_s@@PBUentvars_s@@@Z	; ENT
	add	esp, 4
	push	eax
	call	?GET_PRIVATE@@YAPAXPAUedict_s@@@Z	; GET_PRIVATE
	add	esp, 4
	mov	DWORD PTR _newEnt$[ebp], eax

; 1155 : 
; 1156 : 	if (newEnt == NULL) 

	cmp	DWORD PTR _newEnt$[ebp], 0
	jne	SHORT $LN3@GetClassPt

; 1157 : 	{
; 1158 : 		// allocate private data 
; 1159 : 		newEnt = new(pev) T;

	mov	eax, DWORD PTR _pev$[ebp]
	push	eax
	push	1820					; 0000071cH
	call	??2CBaseEntity@@SAPAXIPAUentvars_s@@@Z	; CBaseEntity::operator new
	add	esp, 8
	mov	DWORD PTR $T2[ebp], eax
	mov	DWORD PTR __$EHRec$[ebp+8], 0
	cmp	DWORD PTR $T2[ebp], 0
	je	SHORT $LN5@GetClassPt
	mov	ecx, DWORD PTR $T2[ebp]
	call	??0CWorld@@QAE@XZ
	mov	DWORD PTR tv85[ebp], eax
	jmp	SHORT $LN6@GetClassPt
$LN5@GetClassPt:
	mov	DWORD PTR tv85[ebp], 0
$LN6@GetClassPt:
	mov	ecx, DWORD PTR tv85[ebp]
	mov	DWORD PTR $T3[ebp], ecx
	mov	DWORD PTR __$EHRec$[ebp+8], -1
	mov	edx, DWORD PTR $T3[ebp]
	mov	DWORD PTR _newEnt$[ebp], edx

; 1160 : 		newEnt->pev = pev;

	mov	eax, DWORD PTR _newEnt$[ebp]
	mov	ecx, DWORD PTR _pev$[ebp]
	mov	DWORD PTR [eax+4], ecx
$LN3@GetClassPt:

; 1161 : 	}
; 1162 : 	newEnt->SetClassname( className );

	mov	eax, DWORD PTR _className$[ebp]
	push	eax
	mov	ecx, DWORD PTR _newEnt$[ebp]
	call	?SetClassname@CBaseEntity@@QAEXPBD@Z	; CBaseEntity::SetClassname

; 1163 : 
; 1164 : 	return newEnt;

	mov	eax, DWORD PTR _newEnt$[ebp]

; 1165 : }

	mov	ecx, DWORD PTR __$EHRec$[ebp]
	mov	DWORD PTR fs:0, ecx
	pop	ecx
	pop	edi
	pop	esi
	pop	ebx
	mov	esp, ebp
	pop	ebp
	ret	0
_TEXT	ENDS
;	COMDAT text$x
text$x	SEGMENT
__unwindfunclet$??$GetClassPtr@VCWorld@@@@YAPAVCWorld@@PAV0@PBD@Z$0:
	mov	eax, DWORD PTR _pev$[ebp]
	push	eax
	mov	eax, DWORD PTR $T2[ebp]
	push	eax
	call	??3CBaseEntity@@SAXPAXPAUentvars_s@@@Z	; CBaseEntity::operator delete
	add	esp, 8
	ret	0
__ehhandler$??$GetClassPtr@VCWorld@@@@YAPAVCWorld@@PAV0@PBD@Z:
	mov	edx, DWORD PTR [esp+8]
	lea	eax, DWORD PTR [edx+12]
	mov	ecx, DWORD PTR [edx-96]
	xor	ecx, eax
	call	@__security_check_cookie@4
	mov	eax, OFFSET __ehfuncinfo$??$GetClassPtr@VCWorld@@@@YAPAVCWorld@@PAV0@PBD@Z
	jmp	___CxxFrameHandler3
text$x	ENDS
??$GetClassPtr@VCWorld@@@@YAPAVCWorld@@PAV0@PBD@Z ENDP	; GetClassPtr<CWorld>
; Function compile flags: /Odtp /ZI
; File d:\!diffusion 2020\source code 2022\client-server\server\cbase.h
;	COMDAT ??$GetClassPtr@VCSoundEnt@@@@YAPAVCSoundEnt@@PAV0@@Z
_TEXT	SEGMENT
tv85 = -92						; size = 4
$T2 = -88						; size = 4
$T3 = -84						; size = 4
_pev$ = -16						; size = 4
__$EHRec$ = -12						; size = 12
_a$ = 8							; size = 4
??$GetClassPtr@VCSoundEnt@@@@YAPAVCSoundEnt@@PAV0@@Z PROC ; GetClassPtr<CSoundEnt>, COMDAT

; 1126 : {

	push	ebp
	mov	ebp, esp
	push	-1
	push	__ehhandler$??$GetClassPtr@VCSoundEnt@@@@YAPAVCSoundEnt@@PAV0@@Z
	mov	eax, DWORD PTR fs:0
	push	eax
	sub	esp, 80					; 00000050H
	push	ebx
	push	esi
	push	edi
	mov	eax, DWORD PTR ___security_cookie
	xor	eax, ebp
	push	eax
	lea	eax, DWORD PTR __$EHRec$[ebp]
	mov	DWORD PTR fs:0, eax

; 1127 : 	entvars_t *pev = (entvars_t *)a;

	mov	eax, DWORD PTR _a$[ebp]
	mov	DWORD PTR _pev$[ebp], eax

; 1128 : 
; 1129 : 	// allocate entity if necessary
; 1130 : 	if (pev == NULL)

	cmp	DWORD PTR _pev$[ebp], 0
	jne	SHORT $LN2@GetClassPt

; 1131 : 		pev = VARS(CREATE_ENTITY());

	call	DWORD PTR ?g_engfuncs@@3Uenginefuncs_s@@A+84
	push	eax
	call	?VARS@@YAPAUentvars_s@@PAUedict_s@@@Z	; VARS
	add	esp, 4
	mov	DWORD PTR _pev$[ebp], eax
$LN2@GetClassPt:

; 1132 : 
; 1133 : 	// get the private data
; 1134 : 	a = (T *)GET_PRIVATE(ENT(pev));

	mov	eax, DWORD PTR _pev$[ebp]
	push	eax
	call	?ENT@@YAPAUedict_s@@PBUentvars_s@@@Z	; ENT
	add	esp, 4
	push	eax
	call	?GET_PRIVATE@@YAPAXPAUedict_s@@@Z	; GET_PRIVATE
	add	esp, 4
	mov	DWORD PTR _a$[ebp], eax

; 1135 : 
; 1136 : 	if (a == NULL) 

	cmp	DWORD PTR _a$[ebp], 0
	jne	SHORT $LN3@GetClassPt

; 1137 : 	{
; 1138 : 		// allocate private data 
; 1139 : 		a = new(pev) T;

	mov	eax, DWORD PTR _pev$[ebp]
	push	eax
	push	6428					; 0000191cH
	call	??2CBaseEntity@@SAPAXIPAUentvars_s@@@Z	; CBaseEntity::operator new
	add	esp, 8
	mov	DWORD PTR $T2[ebp], eax
	mov	DWORD PTR __$EHRec$[ebp+8], 0
	cmp	DWORD PTR $T2[ebp], 0
	je	SHORT $LN5@GetClassPt
	mov	ecx, DWORD PTR $T2[ebp]
	call	??0CSoundEnt@@QAE@XZ
	mov	DWORD PTR tv85[ebp], eax
	jmp	SHORT $LN6@GetClassPt
$LN5@GetClassPt:
	mov	DWORD PTR tv85[ebp], 0
$LN6@GetClassPt:
	mov	ecx, DWORD PTR tv85[ebp]
	mov	DWORD PTR $T3[ebp], ecx
	mov	DWORD PTR __$EHRec$[ebp+8], -1
	mov	edx, DWORD PTR $T3[ebp]
	mov	DWORD PTR _a$[ebp], edx

; 1140 : 		a->pev = pev;

	mov	eax, DWORD PTR _a$[ebp]
	mov	ecx, DWORD PTR _pev$[ebp]
	mov	DWORD PTR [eax+4], ecx
$LN3@GetClassPt:

; 1141 : 	}
; 1142 : 	return a;

	mov	eax, DWORD PTR _a$[ebp]

; 1143 : }

	mov	ecx, DWORD PTR __$EHRec$[ebp]
	mov	DWORD PTR fs:0, ecx
	pop	ecx
	pop	edi
	pop	esi
	pop	ebx
	mov	esp, ebp
	pop	ebp
	ret	0
_TEXT	ENDS
;	COMDAT text$x
text$x	SEGMENT
__unwindfunclet$??$GetClassPtr@VCSoundEnt@@@@YAPAVCSoundEnt@@PAV0@@Z$0:
	mov	eax, DWORD PTR _pev$[ebp]
	push	eax
	mov	eax, DWORD PTR $T2[ebp]
	push	eax
	call	??3CBaseEntity@@SAXPAXPAUentvars_s@@@Z	; CBaseEntity::operator delete
	add	esp, 8
	ret	0
__ehhandler$??$GetClassPtr@VCSoundEnt@@@@YAPAVCSoundEnt@@PAV0@@Z:
	mov	edx, DWORD PTR [esp+8]
	lea	eax, DWORD PTR [edx+12]
	mov	ecx, DWORD PTR [edx-96]
	xor	ecx, eax
	call	@__security_check_cookie@4
	mov	eax, OFFSET __ehfuncinfo$??$GetClassPtr@VCSoundEnt@@@@YAPAVCSoundEnt@@PAV0@@Z
	jmp	___CxxFrameHandler3
text$x	ENDS
??$GetClassPtr@VCSoundEnt@@@@YAPAVCSoundEnt@@PAV0@@Z ENDP ; GetClassPtr<CSoundEnt>
; Function compile flags: /Odtp /ZI
; File d:\!diffusion 2020\source code 2022\client-server\server\world.cpp
;	COMDAT ??__Eworldspawn@@YAXXZ
text$di	SEGMENT
??__Eworldspawn@@YAXXZ PROC				; `dynamic initializer for 'worldspawn'', COMDAT

; 628  : LINK_ENTITY_TO_CLASS( worldspawn, CWorld );

	push	ebp
	mov	ebp, esp
	sub	esp, 64					; 00000040H
	push	ebx
	push	esi
	push	edi
	push	OFFSET ??_C@_0L@BIFLFHPF@worldspawn?$AA@
	mov	ecx, OFFSET ?worldspawn@@3V?$CEntityFactory@VCWorld@@@@A
	call	??0?$CEntityFactory@VCWorld@@@@QAE@PBD@Z ; CEntityFactory<CWorld>::CEntityFactory<CWorld>
	pop	edi
	pop	esi
	pop	ebx
	mov	esp, ebp
	pop	ebp
	ret	0
??__Eworldspawn@@YAXXZ ENDP				; `dynamic initializer for 'worldspawn''
text$di	ENDS
; Function compile flags: /Odtp /ZI
; File d:\!diffusion 2020\source code 2022\client-server\server\util.h
;	COMDAT ?GetEntitySize@?$CEntityFactory@VCWorld@@@@UAEIXZ
_TEXT	SEGMENT
_this$ = -4						; size = 4
?GetEntitySize@?$CEntityFactory@VCWorld@@@@UAEIXZ PROC	; CEntityFactory<CWorld>::GetEntitySize, COMDAT
; _this$ = ecx

; 103  : 	{

	push	ebp
	mov	ebp, esp
	sub	esp, 68					; 00000044H
	push	ebx
	push	esi
	push	edi
	mov	DWORD PTR _this$[ebp], ecx

; 104  : 		return sizeof(T);

	mov	eax, 1820				; 0000071cH

; 105  : 	}

	pop	edi
	pop	esi
	pop	ebx
	mov	esp, ebp
	pop	ebp
	ret	0
?GetEntitySize@?$CEntityFactory@VCWorld@@@@UAEIXZ ENDP	; CEntityFactory<CWorld>::GetEntitySize
_TEXT	ENDS
; Function compile flags: /Odtp /ZI
; File d:\!diffusion 2020\source code 2022\client-server\server\util.h
;	COMDAT ?Destroy@?$CEntityFactory@VCWorld@@@@UAEXPAVCBaseEntity@@@Z
_TEXT	SEGMENT
_this$ = -4						; size = 4
_pEntity$ = 8						; size = 4
?Destroy@?$CEntityFactory@VCWorld@@@@UAEXPAVCBaseEntity@@@Z PROC ; CEntityFactory<CWorld>::Destroy, COMDAT
; _this$ = ecx

; 98   : 	{

	push	ebp
	mov	ebp, esp
	sub	esp, 68					; 00000044H
	push	ebx
	push	esi
	push	edi
	mov	DWORD PTR _this$[ebp], ecx

; 99   : 		UTIL_Remove( pEntity );

	mov	eax, DWORD PTR _pEntity$[ebp]
	push	eax
	call	?UTIL_Remove@@YAXPAVCBaseEntity@@@Z	; UTIL_Remove
	add	esp, 4

; 100  : 	}

	pop	edi
	pop	esi
	pop	ebx
	mov	esp, ebp
	pop	ebp
	ret	4
?Destroy@?$CEntityFactory@VCWorld@@@@UAEXPAVCBaseEntity@@@Z ENDP ; CEntityFactory<CWorld>::Destroy
_TEXT	ENDS
; Function compile flags: /Odtp /ZI
; File d:\!diffusion 2020\source code 2022\client-server\server\util.h
;	COMDAT ?Create@?$CEntityFactory@VCWorld@@@@UAEPAVCBaseEntity@@PBDPAUentvars_s@@@Z
_TEXT	SEGMENT
_pEnt$ = -8						; size = 4
_this$ = -4						; size = 4
_pClassName$ = 8					; size = 4
_pev$ = 12						; size = 4
?Create@?$CEntityFactory@VCWorld@@@@UAEPAVCBaseEntity@@PBDPAUentvars_s@@@Z PROC ; CEntityFactory<CWorld>::Create, COMDAT
; _this$ = ecx

; 92   : 	{

	push	ebp
	mov	ebp, esp
	sub	esp, 72					; 00000048H
	push	ebx
	push	esi
	push	edi
	mov	DWORD PTR _this$[ebp], ecx

; 93   : 		T* pEnt = GetClassPtr((T*)pev, pClassName);

	mov	eax, DWORD PTR _pClassName$[ebp]
	push	eax
	mov	ecx, DWORD PTR _pev$[ebp]
	push	ecx
	call	??$GetClassPtr@VCWorld@@@@YAPAVCWorld@@PAV0@PBD@Z ; GetClassPtr<CWorld>
	add	esp, 8
	mov	DWORD PTR _pEnt$[ebp], eax

; 94   : 		return pEnt;

	mov	eax, DWORD PTR _pEnt$[ebp]

; 95   : 	}

	pop	edi
	pop	esi
	pop	ebx
	mov	esp, ebp
	pop	ebp
	ret	8
?Create@?$CEntityFactory@VCWorld@@@@UAEPAVCBaseEntity@@PBDPAUentvars_s@@@Z ENDP ; CEntityFactory<CWorld>::Create
_TEXT	ENDS
; Function compile flags: /Odtp /ZI
; File d:\!diffusion 2020\source code 2022\client-server\server\util.h
;	COMDAT ??0?$CEntityFactory@VCWorld@@@@QAE@PBD@Z
_TEXT	SEGMENT
tv76 = -72						; size = 4
_this$ = -4						; size = 4
_pClassName$ = 8					; size = 4
??0?$CEntityFactory@VCWorld@@@@QAE@PBD@Z PROC		; CEntityFactory<CWorld>::CEntityFactory<CWorld>, COMDAT
; _this$ = ecx

; 86   : 	CEntityFactory( const char *pClassName )

	push	ebp
	mov	ebp, esp
	sub	esp, 72					; 00000048H
	push	ebx
	push	esi
	push	edi
	mov	DWORD PTR _this$[ebp], ecx

; 87   : 	{

	mov	ecx, DWORD PTR _this$[ebp]
	call	??0IEntityFactory@@QAE@XZ
	mov	eax, DWORD PTR _this$[ebp]
	mov	DWORD PTR [eax], OFFSET ??_7?$CEntityFactory@VCWorld@@@@6B@

; 88   : 		EntityFactoryDictionary()->InstallFactory( this, pClassName );

	call	?EntityFactoryDictionary@@YAPAVIEntityFactoryDictionary@@XZ ; EntityFactoryDictionary
	mov	DWORD PTR tv76[ebp], eax
	mov	eax, DWORD PTR _pClassName$[ebp]
	push	eax
	mov	ecx, DWORD PTR _this$[ebp]
	push	ecx
	mov	edx, DWORD PTR tv76[ebp]
	mov	eax, DWORD PTR [edx]
	mov	ecx, DWORD PTR tv76[ebp]
	mov	edx, DWORD PTR [eax]
	call	edx

; 89   : 	}

	mov	eax, DWORD PTR _this$[ebp]
	pop	edi
	pop	esi
	pop	ebx
	mov	esp, ebp
	pop	ebp
	ret	4
??0?$CEntityFactory@VCWorld@@@@QAE@PBD@Z ENDP		; CEntityFactory<CWorld>::CEntityFactory<CWorld>
_TEXT	ENDS
; Function compile flags: /Odtp /ZI
;	COMDAT ??__FnameHolder@?1???$DataMapInit@Uglobalentity_s@@@@YAPAUdatamap_s@@PAUglobalentity_s@@@Z@YAXXZ
text$yd	SEGMENT
??__FnameHolder@?1???$DataMapInit@Uglobalentity_s@@@@YAPAUdatamap_s@@PAUglobalentity_s@@@Z@YAXXZ PROC ; `DataMapInit<globalentity_s>'::`2'::`dynamic atexit destructor for 'nameHolder'', COMDAT
	push	ebp
	mov	ebp, esp
	sub	esp, 64					; 00000040H
	push	ebx
	push	esi
	push	edi
	mov	ecx, OFFSET ?nameHolder@?1???$DataMapInit@Uglobalentity_s@@@@YAPAUdatamap_s@@PAUglobalentity_s@@@Z@4VCDatadescGeneratedNameHolder@@A
	call	??1CDatadescGeneratedNameHolder@@QAE@XZ	; CDatadescGeneratedNameHolder::~CDatadescGeneratedNameHolder
	pop	edi
	pop	esi
	pop	ebx
	mov	esp, ebp
	pop	ebp
	ret	0
??__FnameHolder@?1???$DataMapInit@Uglobalentity_s@@@@YAPAUdatamap_s@@PAUglobalentity_s@@@Z@YAXXZ ENDP ; `DataMapInit<globalentity_s>'::`2'::`dynamic atexit destructor for 'nameHolder''
text$yd	ENDS
; Function compile flags: /Odtp /ZI
; File d:\!diffusion 2020\source code 2022\client-server\server\world.cpp
;	COMDAT ??__Eg_DataMapHolder@globalentity_t_DataDescInit@@YAXXZ
text$di	SEGMENT
??__Eg_DataMapHolder@globalentity_t_DataDescInit@@YAXXZ PROC ; globalentity_t_DataDescInit::`dynamic initializer for 'g_DataMapHolder'', COMDAT

; 526  : BEGIN_SIMPLE_DATADESC( globalentity_t )

	push	ebp
	mov	ebp, esp
	sub	esp, 64					; 00000040H
	push	ebx
	push	esi
	push	edi
	push	0
	call	??$DataMapInit@Uglobalentity_s@@@@YAPAUdatamap_s@@PAUglobalentity_s@@@Z ; DataMapInit<globalentity_s>
	add	esp, 4
	mov	DWORD PTR ?g_DataMapHolder@globalentity_t_DataDescInit@@3PAUdatamap_s@@A, eax ; globalentity_t_DataDescInit::g_DataMapHolder
	pop	edi
	pop	esi
	pop	ebx
	mov	esp, ebp
	pop	ebp
	ret	0
??__Eg_DataMapHolder@globalentity_t_DataDescInit@@YAXXZ ENDP ; globalentity_t_DataDescInit::`dynamic initializer for 'g_DataMapHolder''
text$di	ENDS
; Function compile flags: /Odtp /ZI
; File d:\!diffusion 2020\source code 2022\client-server\server\world.cpp
;	COMDAT ??$DataMapInit@Uglobalentity_s@@@@YAPAUdatamap_s@@PAUglobalentity_s@@@Z
_TEXT	SEGMENT
__$EHRec$ = -12						; size = 12
___formal$ = 8						; size = 4
??$DataMapInit@Uglobalentity_s@@@@YAPAUdatamap_s@@PAUglobalentity_s@@@Z PROC ; DataMapInit<globalentity_s>, COMDAT

; 526  : BEGIN_SIMPLE_DATADESC( globalentity_t )

	push	ebp
	mov	ebp, esp
	push	-1
	push	__ehhandler$??$DataMapInit@Uglobalentity_s@@@@YAPAUdatamap_s@@PAUglobalentity_s@@@Z
	mov	eax, DWORD PTR fs:0
	push	eax
	sub	esp, 64					; 00000040H
	push	ebx
	push	esi
	push	edi
	mov	eax, DWORD PTR ___security_cookie
	xor	eax, ebp
	push	eax
	lea	eax, DWORD PTR __$EHRec$[ebp]
	mov	DWORD PTR fs:0, eax
	mov	eax, DWORD PTR __tls_index
	mov	ecx, DWORD PTR fs:__tls_array
	mov	edx, DWORD PTR [ecx+eax*4]
	mov	eax, DWORD PTR ?$TSS0@?1???$DataMapInit@Uglobalentity_s@@@@YAPAUdatamap_s@@PAUglobalentity_s@@@Z@4HA
	cmp	eax, DWORD PTR __Init_thread_epoch[edx]
	jle	SHORT $LN2@DataMapIni
	push	OFFSET ?$TSS0@?1???$DataMapInit@Uglobalentity_s@@@@YAPAUdatamap_s@@PAUglobalentity_s@@@Z@4HA
	call	__Init_thread_header
	add	esp, 4
	cmp	DWORD PTR ?$TSS0@?1???$DataMapInit@Uglobalentity_s@@@@YAPAUdatamap_s@@PAUglobalentity_s@@@Z@4HA, -1
	jne	SHORT $LN2@DataMapIni
	mov	DWORD PTR __$EHRec$[ebp+8], 0
	push	OFFSET ??_C@_0P@DCMPFILB@globalentity_t?$AA@
	mov	ecx, OFFSET ?nameHolder@?1???$DataMapInit@Uglobalentity_s@@@@YAPAUdatamap_s@@PAUglobalentity_s@@@Z@4VCDatadescGeneratedNameHolder@@A
	call	??0CDatadescGeneratedNameHolder@@QAE@PBD@Z ; CDatadescGeneratedNameHolder::CDatadescGeneratedNameHolder
	push	OFFSET ??__FnameHolder@?1???$DataMapInit@Uglobalentity_s@@@@YAPAUdatamap_s@@PAUglobalentity_s@@@Z@YAXXZ ; `DataMapInit<globalentity_s>'::`2'::`dynamic atexit destructor for 'nameHolder''
	call	_atexit
	add	esp, 4
	mov	DWORD PTR __$EHRec$[ebp+8], -1
	push	OFFSET ?$TSS0@?1???$DataMapInit@Uglobalentity_s@@@@YAPAUdatamap_s@@PAUglobalentity_s@@@Z@4HA
	call	__Init_thread_footer
	add	esp, 4
$LN2@DataMapIni:

; 527  : 	DEFINE_AUTO_ARRAY( name, FIELD_CHARACTER ),
; 528  : 	DEFINE_AUTO_ARRAY( levelName, FIELD_CHARACTER ),
; 529  : 	DEFINE_FIELD( state, FIELD_INTEGER ),
; 530  : 	DEFINE_FIELD( global_time, FIELD_FLOAT ), // to save global time instead of state
; 531  : END_DATADESC()

	call	?GetBaseMap@globalentity_s@@SAPAUdatamap_s@@XZ ; globalentity_s::GetBaseMap
	mov	DWORD PTR ?m_DataMap@globalentity_s@@2Udatamap_s@@A+12, eax
	mov	eax, 1
	test	eax, eax
	je	SHORT $LN3@DataMapIni
	mov	DWORD PTR ?m_DataMap@globalentity_s@@2Udatamap_s@@A+4, 4
	mov	eax, 24					; 00000018H
	shl	eax, 0
	add	eax, OFFSET ?dataDesc@?1???$DataMapInit@Uglobalentity_s@@@@YAPAUdatamap_s@@PAUglobalentity_s@@@Z@4PAUtypedescription_s@@A
	mov	DWORD PTR ?m_DataMap@globalentity_s@@2Udatamap_s@@A, eax
	jmp	SHORT $LN4@DataMapIni
$LN3@DataMapIni:
	mov	DWORD PTR ?m_DataMap@globalentity_s@@2Udatamap_s@@A+4, 1
	mov	DWORD PTR ?m_DataMap@globalentity_s@@2Udatamap_s@@A, OFFSET ?dataDesc@?1???$DataMapInit@Uglobalentity_s@@@@YAPAUdatamap_s@@PAUglobalentity_s@@@Z@4PAUtypedescription_s@@A
$LN4@DataMapIni:
	mov	eax, OFFSET ?m_DataMap@globalentity_s@@2Udatamap_s@@A ; globalentity_s::m_DataMap
	mov	ecx, DWORD PTR __$EHRec$[ebp]
	mov	DWORD PTR fs:0, ecx
	pop	ecx
	pop	edi
	pop	esi
	pop	ebx
	mov	esp, ebp
	pop	ebp
	ret	0
_TEXT	ENDS
;	COMDAT text$x
text$x	SEGMENT
__unwindfunclet$??$DataMapInit@Uglobalentity_s@@@@YAPAUdatamap_s@@PAUglobalentity_s@@@Z$0:
	push	OFFSET ?$TSS0@?1???$DataMapInit@Uglobalentity_s@@@@YAPAUdatamap_s@@PAUglobalentity_s@@@Z@4HA
	call	__Init_thread_abort
	pop	ecx
	ret	0
__ehhandler$??$DataMapInit@Uglobalentity_s@@@@YAPAUdatamap_s@@PAUglobalentity_s@@@Z:
	mov	edx, DWORD PTR [esp+8]
	lea	eax, DWORD PTR [edx+12]
	mov	ecx, DWORD PTR [edx-80]
	xor	ecx, eax
	call	@__security_check_cookie@4
	mov	eax, OFFSET __ehfuncinfo$??$DataMapInit@Uglobalentity_s@@@@YAPAUdatamap_s@@PAUglobalentity_s@@@Z
	jmp	___CxxFrameHandler3
text$x	ENDS
??$DataMapInit@Uglobalentity_s@@@@YAPAUdatamap_s@@PAUglobalentity_s@@@Z ENDP ; DataMapInit<globalentity_s>
; Function compile flags: /Odtp /ZI
;	COMDAT ??__FnameHolder@?1???$DataMapInit@VCGlobalState@@@@YAPAUdatamap_s@@PAVCGlobalState@@@Z@YAXXZ
text$yd	SEGMENT
??__FnameHolder@?1???$DataMapInit@VCGlobalState@@@@YAPAUdatamap_s@@PAVCGlobalState@@@Z@YAXXZ PROC ; `DataMapInit<CGlobalState>'::`2'::`dynamic atexit destructor for 'nameHolder'', COMDAT
	push	ebp
	mov	ebp, esp
	sub	esp, 64					; 00000040H
	push	ebx
	push	esi
	push	edi
	mov	ecx, OFFSET ?nameHolder@?1???$DataMapInit@VCGlobalState@@@@YAPAUdatamap_s@@PAVCGlobalState@@@Z@4VCDatadescGeneratedNameHolder@@A
	call	??1CDatadescGeneratedNameHolder@@QAE@XZ	; CDatadescGeneratedNameHolder::~CDatadescGeneratedNameHolder
	pop	edi
	pop	esi
	pop	ebx
	mov	esp, ebp
	pop	ebp
	ret	0
??__FnameHolder@?1???$DataMapInit@VCGlobalState@@@@YAPAUdatamap_s@@PAVCGlobalState@@@Z@YAXXZ ENDP ; `DataMapInit<CGlobalState>'::`2'::`dynamic atexit destructor for 'nameHolder''
text$yd	ENDS
; Function compile flags: /Odtp /ZI
; File d:\!diffusion 2020\source code 2022\client-server\server\world.cpp
;	COMDAT ??__Eg_DataMapHolder@CGlobalState_DataDescInit@@YAXXZ
text$di	SEGMENT
??__Eg_DataMapHolder@CGlobalState_DataDescInit@@YAXXZ PROC ; CGlobalState_DataDescInit::`dynamic initializer for 'g_DataMapHolder'', COMDAT

; 521  : BEGIN_SIMPLE_DATADESC( CGlobalState )

	push	ebp
	mov	ebp, esp
	sub	esp, 64					; 00000040H
	push	ebx
	push	esi
	push	edi
	push	0
	call	??$DataMapInit@VCGlobalState@@@@YAPAUdatamap_s@@PAVCGlobalState@@@Z ; DataMapInit<CGlobalState>
	add	esp, 4
	mov	DWORD PTR ?g_DataMapHolder@CGlobalState_DataDescInit@@3PAUdatamap_s@@A, eax ; CGlobalState_DataDescInit::g_DataMapHolder
	pop	edi
	pop	esi
	pop	ebx
	mov	esp, ebp
	pop	ebp
	ret	0
??__Eg_DataMapHolder@CGlobalState_DataDescInit@@YAXXZ ENDP ; CGlobalState_DataDescInit::`dynamic initializer for 'g_DataMapHolder''
text$di	ENDS
; Function compile flags: /Odtp /ZI
; File d:\!diffusion 2020\source code 2022\client-server\server\world.cpp
;	COMDAT ??$DataMapInit@VCGlobalState@@@@YAPAUdatamap_s@@PAVCGlobalState@@@Z
_TEXT	SEGMENT
__$EHRec$ = -12						; size = 12
___formal$ = 8						; size = 4
??$DataMapInit@VCGlobalState@@@@YAPAUdatamap_s@@PAVCGlobalState@@@Z PROC ; DataMapInit<CGlobalState>, COMDAT

; 521  : BEGIN_SIMPLE_DATADESC( CGlobalState )

	push	ebp
	mov	ebp, esp
	push	-1
	push	__ehhandler$??$DataMapInit@VCGlobalState@@@@YAPAUdatamap_s@@PAVCGlobalState@@@Z
	mov	eax, DWORD PTR fs:0
	push	eax
	sub	esp, 64					; 00000040H
	push	ebx
	push	esi
	push	edi
	mov	eax, DWORD PTR ___security_cookie
	xor	eax, ebp
	push	eax
	lea	eax, DWORD PTR __$EHRec$[ebp]
	mov	DWORD PTR fs:0, eax
	mov	eax, DWORD PTR __tls_index
	mov	ecx, DWORD PTR fs:__tls_array
	mov	edx, DWORD PTR [ecx+eax*4]
	mov	eax, DWORD PTR ?$TSS0@?1???$DataMapInit@VCGlobalState@@@@YAPAUdatamap_s@@PAVCGlobalState@@@Z@4HA
	cmp	eax, DWORD PTR __Init_thread_epoch[edx]
	jle	SHORT $LN2@DataMapIni
	push	OFFSET ?$TSS0@?1???$DataMapInit@VCGlobalState@@@@YAPAUdatamap_s@@PAVCGlobalState@@@Z@4HA
	call	__Init_thread_header
	add	esp, 4
	cmp	DWORD PTR ?$TSS0@?1???$DataMapInit@VCGlobalState@@@@YAPAUdatamap_s@@PAVCGlobalState@@@Z@4HA, -1
	jne	SHORT $LN2@DataMapIni
	mov	DWORD PTR __$EHRec$[ebp+8], 0
	push	OFFSET ??_C@_0N@KCHHJNKN@CGlobalState?$AA@
	mov	ecx, OFFSET ?nameHolder@?1???$DataMapInit@VCGlobalState@@@@YAPAUdatamap_s@@PAVCGlobalState@@@Z@4VCDatadescGeneratedNameHolder@@A
	call	??0CDatadescGeneratedNameHolder@@QAE@PBD@Z ; CDatadescGeneratedNameHolder::CDatadescGeneratedNameHolder
	push	OFFSET ??__FnameHolder@?1???$DataMapInit@VCGlobalState@@@@YAPAUdatamap_s@@PAVCGlobalState@@@Z@YAXXZ ; `DataMapInit<CGlobalState>'::`2'::`dynamic atexit destructor for 'nameHolder''
	call	_atexit
	add	esp, 4
	mov	DWORD PTR __$EHRec$[ebp+8], -1
	push	OFFSET ?$TSS0@?1???$DataMapInit@VCGlobalState@@@@YAPAUdatamap_s@@PAVCGlobalState@@@Z@4HA
	call	__Init_thread_footer
	add	esp, 4
$LN2@DataMapIni:

; 522  : 	DEFINE_FIELD( m_listCount, FIELD_INTEGER ),
; 523  : END_DATADESC()

	call	?GetBaseMap@CGlobalState@@CAPAUdatamap_s@@XZ ; CGlobalState::GetBaseMap
	mov	DWORD PTR ?m_DataMap@CGlobalState@@0Udatamap_s@@A+12, eax
	mov	eax, 1
	test	eax, eax
	je	SHORT $LN3@DataMapIni
	mov	DWORD PTR ?m_DataMap@CGlobalState@@0Udatamap_s@@A+4, 1
	mov	eax, 24					; 00000018H
	shl	eax, 0
	add	eax, OFFSET ?dataDesc@?1???$DataMapInit@VCGlobalState@@@@YAPAUdatamap_s@@PAVCGlobalState@@@Z@4PAUtypedescription_s@@A
	mov	DWORD PTR ?m_DataMap@CGlobalState@@0Udatamap_s@@A, eax
	jmp	SHORT $LN4@DataMapIni
$LN3@DataMapIni:
	mov	DWORD PTR ?m_DataMap@CGlobalState@@0Udatamap_s@@A+4, 1
	mov	DWORD PTR ?m_DataMap@CGlobalState@@0Udatamap_s@@A, OFFSET ?dataDesc@?1???$DataMapInit@VCGlobalState@@@@YAPAUdatamap_s@@PAVCGlobalState@@@Z@4PAUtypedescription_s@@A
$LN4@DataMapIni:
	mov	eax, OFFSET ?m_DataMap@CGlobalState@@0Udatamap_s@@A ; CGlobalState::m_DataMap
	mov	ecx, DWORD PTR __$EHRec$[ebp]
	mov	DWORD PTR fs:0, ecx
	pop	ecx
	pop	edi
	pop	esi
	pop	ebx
	mov	esp, ebp
	pop	ebp
	ret	0
_TEXT	ENDS
;	COMDAT text$x
text$x	SEGMENT
__unwindfunclet$??$DataMapInit@VCGlobalState@@@@YAPAUdatamap_s@@PAVCGlobalState@@@Z$0:
	push	OFFSET ?$TSS0@?1???$DataMapInit@VCGlobalState@@@@YAPAUdatamap_s@@PAVCGlobalState@@@Z@4HA
	call	__Init_thread_abort
	pop	ecx
	ret	0
__ehhandler$??$DataMapInit@VCGlobalState@@@@YAPAUdatamap_s@@PAVCGlobalState@@@Z:
	mov	edx, DWORD PTR [esp+8]
	lea	eax, DWORD PTR [edx+12]
	mov	ecx, DWORD PTR [edx-80]
	xor	ecx, eax
	call	@__security_check_cookie@4
	mov	eax, OFFSET __ehfuncinfo$??$DataMapInit@VCGlobalState@@@@YAPAUdatamap_s@@PAVCGlobalState@@@Z
	jmp	___CxxFrameHandler3
text$x	ENDS
??$DataMapInit@VCGlobalState@@@@YAPAUdatamap_s@@PAVCGlobalState@@@Z ENDP ; DataMapInit<CGlobalState>
; Function compile flags: /Odtp /ZI
; File d:\!diffusion 2020\source code 2022\client-server\server\world.cpp
;	COMDAT ?CopyToBodyQue@@YAXPAVCBaseEntity@@@Z
_TEXT	SEGMENT
_pHead$ = -4						; size = 4
_pCorpse$ = 8						; size = 4
?CopyToBodyQue@@YAXPAVCBaseEntity@@@Z PROC		; CopyToBodyQue, COMDAT

; 379  : {

	push	ebp
	mov	ebp, esp
	sub	esp, 68					; 00000044H
	push	ebx
	push	esi
	push	edi

; 380  : 	if (mp_hidecorpses.value > 0)

	movss	xmm0, DWORD PTR ?mp_hidecorpses@@3Ucvar_s@@A+12
	comiss	xmm0, DWORD PTR __real@00000000
	jbe	SHORT $LN2@CopyToBody

; 381  : 		return; // Don't spawn the corpse

	jmp	$LN1@CopyToBody
$LN2@CopyToBody:

; 382  : 	
; 383  : 	if (pCorpse->pev->effects & EF_NODRAW)

	mov	eax, DWORD PTR _pCorpse$[ebp]
	mov	ecx, DWORD PTR [eax+4]
	mov	edx, DWORD PTR [ecx+280]
	and	edx, 128				; 00000080H
	je	SHORT $LN3@CopyToBody

; 384  : 		return;

	jmp	$LN1@CopyToBody
$LN3@CopyToBody:

; 385  : 
; 386  : 	CBaseEntity *pHead = CBaseEntity::Instance( g_pBodyQueueHead );

	mov	eax, DWORD PTR ?g_pBodyQueueHead@@3PAUedict_s@@A ; g_pBodyQueueHead
	push	eax
	call	?Instance@CBaseEntity@@SAPAV1@PAUedict_s@@@Z ; CBaseEntity::Instance
	add	esp, 4
	mov	DWORD PTR _pHead$[ebp], eax

; 387  : 
; 388  : 	pHead->SetLocalAngles( pCorpse->GetAbsAngles());

	mov	ecx, DWORD PTR _pCorpse$[ebp]
	call	?GetAbsAngles@CBaseEntity@@QBEABVVector@@XZ ; CBaseEntity::GetAbsAngles
	push	eax
	mov	ecx, DWORD PTR _pHead$[ebp]
	call	?SetLocalAngles@CBaseEntity@@QAEXABVVector@@@Z ; CBaseEntity::SetLocalAngles

; 389  : 	pHead->SetLocalVelocity( pCorpse->GetAbsVelocity());

	mov	ecx, DWORD PTR _pCorpse$[ebp]
	call	?GetAbsVelocity@CBaseEntity@@QBEABVVector@@XZ ; CBaseEntity::GetAbsVelocity
	push	eax
	mov	ecx, DWORD PTR _pHead$[ebp]
	call	?SetLocalVelocity@CBaseEntity@@QAEXABVVector@@@Z ; CBaseEntity::SetLocalVelocity

; 390  : 	UTIL_SetOrigin( pHead, pCorpse->GetAbsOrigin());

	mov	ecx, DWORD PTR _pCorpse$[ebp]
	call	?GetAbsOrigin@CBaseEntity@@QBEABVVector@@XZ ; CBaseEntity::GetAbsOrigin
	push	eax
	mov	eax, DWORD PTR _pHead$[ebp]
	push	eax
	call	?UTIL_SetOrigin@@YAXPAVCBaseEntity@@ABVVector@@@Z ; UTIL_SetOrigin
	add	esp, 8

; 391  : 	UTIL_SetSize( pHead->pev, pCorpse->pev->mins, pCorpse->pev->maxs );

	mov	eax, DWORD PTR _pCorpse$[ebp]
	mov	ecx, DWORD PTR [eax+4]
	add	ecx, 232				; 000000e8H
	push	ecx
	mov	edx, DWORD PTR _pCorpse$[ebp]
	mov	eax, DWORD PTR [edx+4]
	add	eax, 220				; 000000dcH
	push	eax
	mov	ecx, DWORD PTR _pHead$[ebp]
	mov	edx, DWORD PTR [ecx+4]
	push	edx
	call	?UTIL_SetSize@@YAXPAUentvars_s@@ABVVector@@1@Z ; UTIL_SetSize
	add	esp, 12					; 0000000cH

; 392  : 
; 393  : 	pHead->pev->model		= pCorpse->pev->model;

	mov	eax, DWORD PTR _pCorpse$[ebp]
	mov	ecx, DWORD PTR [eax+4]
	mov	edx, DWORD PTR _pHead$[ebp]
	mov	eax, DWORD PTR [edx+4]
	mov	ecx, DWORD PTR [ecx+184]
	mov	DWORD PTR [eax+184], ecx

; 394  : 	pHead->pev->modelindex	= pCorpse->pev->modelindex;

	mov	eax, DWORD PTR _pCorpse$[ebp]
	mov	ecx, DWORD PTR [eax+4]
	mov	edx, DWORD PTR _pHead$[ebp]
	mov	eax, DWORD PTR [edx+4]
	mov	ecx, DWORD PTR [ecx+180]
	mov	DWORD PTR [eax+180], ecx

; 395  : 	pHead->pev->frame		= pCorpse->pev->frame;

	mov	eax, DWORD PTR _pCorpse$[ebp]
	mov	ecx, DWORD PTR [eax+4]
	mov	edx, DWORD PTR _pHead$[ebp]
	mov	eax, DWORD PTR [edx+4]
	mov	ecx, DWORD PTR [ecx+304]
	mov	DWORD PTR [eax+304], ecx

; 396  : 	pHead->pev->colormap	= pCorpse->pev->colormap;

	mov	eax, DWORD PTR _pCorpse$[ebp]
	mov	ecx, DWORD PTR [eax+4]
	mov	edx, DWORD PTR _pHead$[ebp]
	mov	eax, DWORD PTR [edx+4]
	mov	ecx, DWORD PTR [ecx+424]
	mov	DWORD PTR [eax+424], ecx

; 397  : 	pHead->pev->movetype	= MOVETYPE_TOSS;

	mov	eax, DWORD PTR _pHead$[ebp]
	mov	ecx, DWORD PTR [eax+4]
	mov	DWORD PTR [ecx+264], 6

; 398  : 	pHead->pev->flags		= 0;

	mov	eax, DWORD PTR _pHead$[ebp]
	mov	ecx, DWORD PTR [eax+4]
	mov	DWORD PTR [ecx+420], 0

; 399  : 	pHead->pev->deadflag	= pCorpse->pev->deadflag;

	mov	eax, DWORD PTR _pCorpse$[ebp]
	mov	ecx, DWORD PTR [eax+4]
	mov	edx, DWORD PTR _pHead$[ebp]
	mov	eax, DWORD PTR [edx+4]
	mov	ecx, DWORD PTR [ecx+368]
	mov	DWORD PTR [eax+368], ecx

; 400  : 	pHead->pev->renderfx	= kRenderFxDeadPlayer;

	mov	eax, DWORD PTR _pHead$[ebp]
	mov	ecx, DWORD PTR [eax+4]
	mov	DWORD PTR [ecx+348], 17			; 00000011H

; 401  : 	pHead->pev->renderamt	= ENTINDEX( pCorpse->edict() );

	mov	ecx, DWORD PTR _pCorpse$[ebp]
	call	?edict@CBaseEntity@@QAEPAUedict_s@@XZ	; CBaseEntity::edict
	push	eax
	call	?ENTINDEX@@YAHPAUedict_s@@@Z		; ENTINDEX
	add	esp, 4
	cvtsi2ss xmm0, eax
	mov	eax, DWORD PTR _pHead$[ebp]
	mov	ecx, DWORD PTR [eax+4]
	movss	DWORD PTR [ecx+332], xmm0

; 402  : 
; 403  : 	pHead->pev->effects		= pCorpse->pev->effects | EF_NOINTERP;

	mov	eax, DWORD PTR _pCorpse$[ebp]
	mov	ecx, DWORD PTR [eax+4]
	mov	edx, DWORD PTR [ecx+280]
	or	edx, 32					; 00000020H
	mov	eax, DWORD PTR _pHead$[ebp]
	mov	ecx, DWORD PTR [eax+4]
	mov	DWORD PTR [ecx+280], edx

; 404  : 	pHead->pev->sequence	= pCorpse->pev->sequence;

	mov	eax, DWORD PTR _pCorpse$[ebp]
	mov	ecx, DWORD PTR [eax+4]
	mov	edx, DWORD PTR _pHead$[ebp]
	mov	eax, DWORD PTR [edx+4]
	mov	ecx, DWORD PTR [ecx+296]
	mov	DWORD PTR [eax+296], ecx

; 405  : 	pHead->pev->animtime	= pCorpse->pev->animtime;

	mov	eax, DWORD PTR _pCorpse$[ebp]
	mov	ecx, DWORD PTR [eax+4]
	mov	edx, DWORD PTR _pHead$[ebp]
	mov	eax, DWORD PTR [edx+4]
	mov	ecx, DWORD PTR [ecx+308]
	mov	DWORD PTR [eax+308], ecx

; 406  : 	g_pBodyQueueHead		= pHead->pev->owner;

	mov	eax, DWORD PTR _pHead$[ebp]
	mov	ecx, DWORD PTR [eax+4]
	mov	edx, DWORD PTR [ecx+408]
	mov	DWORD PTR ?g_pBodyQueueHead@@3PAUedict_s@@A, edx ; g_pBodyQueueHead
$LN1@CopyToBody:

; 407  : }

	pop	edi
	pop	esi
	pop	ebx
	mov	esp, ebp
	pop	ebp
	ret	0
?CopyToBodyQue@@YAXPAVCBaseEntity@@@Z ENDP		; CopyToBodyQue
_TEXT	ENDS
; Function compile flags: /Odtp /ZI
; File d:\!diffusion 2020\source code 2022\client-server\server\world.cpp
;	COMDAT ?InitBodyQue@@YAXXZ
_TEXT	SEGMENT
_i$1 = -12						; size = 4
_pev$ = -8						; size = 4
_pBodyQue$ = -4						; size = 4
?InitBodyQue@@YAXXZ PROC				; InitBodyQue, COMDAT

; 356  : {

	push	ebp
	mov	ebp, esp
	sub	esp, 76					; 0000004cH
	push	ebx
	push	esi
	push	edi

; 357  : 	CBaseEntity *pBodyQue = CreateEntityByName( "bodyque" );

	push	0
	push	OFFSET ??_C@_07ILHJIGAO@bodyque?$AA@
	call	?CreateEntityByName@@YAPAVCBaseEntity@@PBDPAUentvars_s@@@Z ; CreateEntityByName
	add	esp, 8
	mov	DWORD PTR _pBodyQue$[ebp], eax

; 358  : 
; 359  : 	g_pBodyQueueHead = pBodyQue->edict();

	mov	ecx, DWORD PTR _pBodyQue$[ebp]
	call	?edict@CBaseEntity@@QAEPAUedict_s@@XZ	; CBaseEntity::edict
	mov	DWORD PTR ?g_pBodyQueueHead@@3PAUedict_s@@A, eax ; g_pBodyQueueHead

; 360  : 	entvars_t *pev = pBodyQue->pev;

	mov	eax, DWORD PTR _pBodyQue$[ebp]
	mov	ecx, DWORD PTR [eax+4]
	mov	DWORD PTR _pev$[ebp], ecx

; 361  : 	
; 362  : 	// Reserve 3 more slots for dead bodies
; 363  : 	for ( int i = 0; i < 3; i++ )

	mov	DWORD PTR _i$1[ebp], 0
	jmp	SHORT $LN4@InitBodyQu
$LN2@InitBodyQu:
	mov	eax, DWORD PTR _i$1[ebp]
	add	eax, 1
	mov	DWORD PTR _i$1[ebp], eax
$LN4@InitBodyQu:
	cmp	DWORD PTR _i$1[ebp], 3
	jge	SHORT $LN3@InitBodyQu

; 364  : 	{
; 365  : 		pev->owner = CreateEntityByName( "bodyque" )->edict();

	push	0
	push	OFFSET ??_C@_07ILHJIGAO@bodyque?$AA@
	call	?CreateEntityByName@@YAPAVCBaseEntity@@PBDPAUentvars_s@@@Z ; CreateEntityByName
	add	esp, 8
	mov	ecx, eax
	call	?edict@CBaseEntity@@QAEPAUedict_s@@XZ	; CBaseEntity::edict
	mov	ecx, DWORD PTR _pev$[ebp]
	mov	DWORD PTR [ecx+408], eax

; 366  : 		pev = VARS(pev->owner);

	mov	eax, DWORD PTR _pev$[ebp]
	mov	ecx, DWORD PTR [eax+408]
	push	ecx
	call	?VARS@@YAPAUentvars_s@@PAUedict_s@@@Z	; VARS
	add	esp, 4
	mov	DWORD PTR _pev$[ebp], eax

; 367  : 	}

	jmp	SHORT $LN2@InitBodyQu
$LN3@InitBodyQu:

; 368  : 	
; 369  : 	pev->owner = g_pBodyQueueHead;

	mov	eax, DWORD PTR _pev$[ebp]
	mov	ecx, DWORD PTR ?g_pBodyQueueHead@@3PAUedict_s@@A ; g_pBodyQueueHead
	mov	DWORD PTR [eax+408], ecx

; 370  : }

	pop	edi
	pop	esi
	pop	ebx
	mov	esp, ebp
	pop	ebp
	ret	0
?InitBodyQue@@YAXXZ ENDP				; InitBodyQue
_TEXT	ENDS
; Function compile flags: /Odtp /ZI
; File d:\!diffusion 2020\source code 2022\client-server\server\world.cpp
;	COMDAT ??__Ebodyque@@YAXXZ
text$di	SEGMENT
??__Ebodyque@@YAXXZ PROC				; `dynamic initializer for 'bodyque'', COMDAT

; 353  : LINK_ENTITY_TO_CLASS( bodyque, CCorpse );

	push	ebp
	mov	ebp, esp
	sub	esp, 64					; 00000040H
	push	ebx
	push	esi
	push	edi
	push	OFFSET ??_C@_07ILHJIGAO@bodyque?$AA@
	mov	ecx, OFFSET ?bodyque@@3V?$CEntityFactory@VCCorpse@@@@A
	call	??0?$CEntityFactory@VCCorpse@@@@QAE@PBD@Z ; CEntityFactory<CCorpse>::CEntityFactory<CCorpse>
	pop	edi
	pop	esi
	pop	ebx
	mov	esp, ebp
	pop	ebp
	ret	0
??__Ebodyque@@YAXXZ ENDP				; `dynamic initializer for 'bodyque''
text$di	ENDS
; Function compile flags: /Odtp /ZI
; File d:\!diffusion 2020\source code 2022\client-server\server\util.h
;	COMDAT ?GetEntitySize@?$CEntityFactory@VCCorpse@@@@UAEIXZ
_TEXT	SEGMENT
_this$ = -4						; size = 4
?GetEntitySize@?$CEntityFactory@VCCorpse@@@@UAEIXZ PROC	; CEntityFactory<CCorpse>::GetEntitySize, COMDAT
; _this$ = ecx

; 103  : 	{

	push	ebp
	mov	ebp, esp
	sub	esp, 68					; 00000044H
	push	ebx
	push	esi
	push	edi
	mov	DWORD PTR _this$[ebp], ecx

; 104  : 		return sizeof(T);

	mov	eax, 1804				; 0000070cH

; 105  : 	}

	pop	edi
	pop	esi
	pop	ebx
	mov	esp, ebp
	pop	ebp
	ret	0
?GetEntitySize@?$CEntityFactory@VCCorpse@@@@UAEIXZ ENDP	; CEntityFactory<CCorpse>::GetEntitySize
_TEXT	ENDS
; Function compile flags: /Odtp /ZI
; File d:\!diffusion 2020\source code 2022\client-server\server\util.h
;	COMDAT ?Destroy@?$CEntityFactory@VCCorpse@@@@UAEXPAVCBaseEntity@@@Z
_TEXT	SEGMENT
_this$ = -4						; size = 4
_pEntity$ = 8						; size = 4
?Destroy@?$CEntityFactory@VCCorpse@@@@UAEXPAVCBaseEntity@@@Z PROC ; CEntityFactory<CCorpse>::Destroy, COMDAT
; _this$ = ecx

; 98   : 	{

	push	ebp
	mov	ebp, esp
	sub	esp, 68					; 00000044H
	push	ebx
	push	esi
	push	edi
	mov	DWORD PTR _this$[ebp], ecx

; 99   : 		UTIL_Remove( pEntity );

	mov	eax, DWORD PTR _pEntity$[ebp]
	push	eax
	call	?UTIL_Remove@@YAXPAVCBaseEntity@@@Z	; UTIL_Remove
	add	esp, 4

; 100  : 	}

	pop	edi
	pop	esi
	pop	ebx
	mov	esp, ebp
	pop	ebp
	ret	4
?Destroy@?$CEntityFactory@VCCorpse@@@@UAEXPAVCBaseEntity@@@Z ENDP ; CEntityFactory<CCorpse>::Destroy
_TEXT	ENDS
; Function compile flags: /Odtp /ZI
; File d:\!diffusion 2020\source code 2022\client-server\server\util.h
;	COMDAT ?Create@?$CEntityFactory@VCCorpse@@@@UAEPAVCBaseEntity@@PBDPAUentvars_s@@@Z
_TEXT	SEGMENT
_pEnt$ = -8						; size = 4
_this$ = -4						; size = 4
_pClassName$ = 8					; size = 4
_pev$ = 12						; size = 4
?Create@?$CEntityFactory@VCCorpse@@@@UAEPAVCBaseEntity@@PBDPAUentvars_s@@@Z PROC ; CEntityFactory<CCorpse>::Create, COMDAT
; _this$ = ecx

; 92   : 	{

	push	ebp
	mov	ebp, esp
	sub	esp, 72					; 00000048H
	push	ebx
	push	esi
	push	edi
	mov	DWORD PTR _this$[ebp], ecx

; 93   : 		T* pEnt = GetClassPtr((T*)pev, pClassName);

	mov	eax, DWORD PTR _pClassName$[ebp]
	push	eax
	mov	ecx, DWORD PTR _pev$[ebp]
	push	ecx
	call	??$GetClassPtr@VCCorpse@@@@YAPAVCCorpse@@PAV0@PBD@Z ; GetClassPtr<CCorpse>
	add	esp, 8
	mov	DWORD PTR _pEnt$[ebp], eax

; 94   : 		return pEnt;

	mov	eax, DWORD PTR _pEnt$[ebp]

; 95   : 	}

	pop	edi
	pop	esi
	pop	ebx
	mov	esp, ebp
	pop	ebp
	ret	8
?Create@?$CEntityFactory@VCCorpse@@@@UAEPAVCBaseEntity@@PBDPAUentvars_s@@@Z ENDP ; CEntityFactory<CCorpse>::Create
_TEXT	ENDS
; Function compile flags: /Odtp /ZI
; File d:\!diffusion 2020\source code 2022\client-server\server\util.h
;	COMDAT ??0?$CEntityFactory@VCCorpse@@@@QAE@PBD@Z
_TEXT	SEGMENT
tv76 = -72						; size = 4
_this$ = -4						; size = 4
_pClassName$ = 8					; size = 4
??0?$CEntityFactory@VCCorpse@@@@QAE@PBD@Z PROC		; CEntityFactory<CCorpse>::CEntityFactory<CCorpse>, COMDAT
; _this$ = ecx

; 86   : 	CEntityFactory( const char *pClassName )

	push	ebp
	mov	ebp, esp
	sub	esp, 72					; 00000048H
	push	ebx
	push	esi
	push	edi
	mov	DWORD PTR _this$[ebp], ecx

; 87   : 	{

	mov	ecx, DWORD PTR _this$[ebp]
	call	??0IEntityFactory@@QAE@XZ
	mov	eax, DWORD PTR _this$[ebp]
	mov	DWORD PTR [eax], OFFSET ??_7?$CEntityFactory@VCCorpse@@@@6B@

; 88   : 		EntityFactoryDictionary()->InstallFactory( this, pClassName );

	call	?EntityFactoryDictionary@@YAPAVIEntityFactoryDictionary@@XZ ; EntityFactoryDictionary
	mov	DWORD PTR tv76[ebp], eax
	mov	eax, DWORD PTR _pClassName$[ebp]
	push	eax
	mov	ecx, DWORD PTR _this$[ebp]
	push	ecx
	mov	edx, DWORD PTR tv76[ebp]
	mov	eax, DWORD PTR [edx]
	mov	ecx, DWORD PTR tv76[ebp]
	mov	edx, DWORD PTR [eax]
	call	edx

; 89   : 	}

	mov	eax, DWORD PTR _this$[ebp]
	pop	edi
	pop	esi
	pop	ebx
	mov	esp, ebp
	pop	ebp
	ret	4
??0?$CEntityFactory@VCCorpse@@@@QAE@PBD@Z ENDP		; CEntityFactory<CCorpse>::CEntityFactory<CCorpse>
_TEXT	ENDS
; Function compile flags: /Odtp /ZI
;	COMDAT ??0CCorpse@@QAE@XZ
_TEXT	SEGMENT
_this$ = -4						; size = 4
??0CCorpse@@QAE@XZ PROC					; CCorpse::CCorpse, COMDAT
; _this$ = ecx
	push	ebp
	mov	ebp, esp
	sub	esp, 68					; 00000044H
	push	ebx
	push	esi
	push	edi
	mov	DWORD PTR _this$[ebp], ecx
	mov	ecx, DWORD PTR _this$[ebp]
	call	??0CBaseEntity@@QAE@XZ
	mov	eax, DWORD PTR _this$[ebp]
	mov	DWORD PTR [eax], OFFSET ??_7CCorpse@@6B@
	mov	eax, DWORD PTR _this$[ebp]
	pop	edi
	pop	esi
	pop	ebx
	mov	esp, ebp
	pop	ebp
	ret	0
??0CCorpse@@QAE@XZ ENDP					; CCorpse::CCorpse
_TEXT	ENDS
; Function compile flags: /Odtp /ZI
; File d:\!diffusion 2020\source code 2022\client-server\server\world.cpp
;	COMDAT ?ObjectCaps@CCorpse@@UAEHXZ
_TEXT	SEGMENT
_this$ = -4						; size = 4
?ObjectCaps@CCorpse@@UAEHXZ PROC			; CCorpse::ObjectCaps, COMDAT
; _this$ = ecx

; 350  : 	virtual int ObjectCaps( void ) { return FCAP_DONT_SAVE; }	

	push	ebp
	mov	ebp, esp
	sub	esp, 68					; 00000044H
	push	ebx
	push	esi
	push	edi
	mov	DWORD PTR _this$[ebp], ecx
	mov	eax, -2147483648			; 80000000H
	pop	edi
	pop	esi
	pop	ebx
	mov	esp, ebp
	pop	ebp
	ret	0
?ObjectCaps@CCorpse@@UAEHXZ ENDP			; CCorpse::ObjectCaps
_TEXT	ENDS
; Function compile flags: /Odtp /ZI
;	COMDAT ??__FnameHolder@?1???$DataMapInit@VCDecal@@@@YAPAUdatamap_s@@PAVCDecal@@@Z@YAXXZ
text$yd	SEGMENT
??__FnameHolder@?1???$DataMapInit@VCDecal@@@@YAPAUdatamap_s@@PAVCDecal@@@Z@YAXXZ PROC ; `DataMapInit<CDecal>'::`2'::`dynamic atexit destructor for 'nameHolder'', COMDAT
	push	ebp
	mov	ebp, esp
	sub	esp, 64					; 00000040H
	push	ebx
	push	esi
	push	edi
	mov	ecx, OFFSET ?nameHolder@?1???$DataMapInit@VCDecal@@@@YAPAUdatamap_s@@PAVCDecal@@@Z@4VCDatadescGeneratedNameHolder@@A
	call	??1CDatadescGeneratedNameHolder@@QAE@XZ	; CDatadescGeneratedNameHolder::~CDatadescGeneratedNameHolder
	pop	edi
	pop	esi
	pop	ebx
	mov	esp, ebp
	pop	ebp
	ret	0
??__FnameHolder@?1???$DataMapInit@VCDecal@@@@YAPAUdatamap_s@@PAVCDecal@@@Z@YAXXZ ENDP ; `DataMapInit<CDecal>'::`2'::`dynamic atexit destructor for 'nameHolder''
text$yd	ENDS
; Function compile flags: /Odtp /ZI
; File d:\!diffusion 2020\source code 2022\client-server\server\world.cpp
;	COMDAT ??__Eg_DataMapHolder@CDecal_DataDescInit@@YAXXZ
text$di	SEGMENT
??__Eg_DataMapHolder@CDecal_DataDescInit@@YAXXZ PROC	; CDecal_DataDescInit::`dynamic initializer for 'g_DataMapHolder'', COMDAT

; 255  : BEGIN_DATADESC( CDecal )

	push	ebp
	mov	ebp, esp
	sub	esp, 64					; 00000040H
	push	ebx
	push	esi
	push	edi
	push	0
	call	??$DataMapInit@VCDecal@@@@YAPAUdatamap_s@@PAVCDecal@@@Z ; DataMapInit<CDecal>
	add	esp, 4
	mov	DWORD PTR ?g_DataMapHolder@CDecal_DataDescInit@@3PAUdatamap_s@@A, eax ; CDecal_DataDescInit::g_DataMapHolder
	pop	edi
	pop	esi
	pop	ebx
	mov	esp, ebp
	pop	ebp
	ret	0
??__Eg_DataMapHolder@CDecal_DataDescInit@@YAXXZ ENDP	; CDecal_DataDescInit::`dynamic initializer for 'g_DataMapHolder''
text$di	ENDS
; Function compile flags: /Odtp /ZI
; File d:\!diffusion 2020\source code 2022\client-server\server\world.cpp
;	COMDAT ??$DataMapInit@VCDecal@@@@YAPAUdatamap_s@@PAVCDecal@@@Z
_TEXT	SEGMENT
__$EHRec$ = -12						; size = 12
___formal$ = 8						; size = 4
??$DataMapInit@VCDecal@@@@YAPAUdatamap_s@@PAVCDecal@@@Z PROC ; DataMapInit<CDecal>, COMDAT

; 255  : BEGIN_DATADESC( CDecal )

	push	ebp
	mov	ebp, esp
	push	-1
	push	__ehhandler$??$DataMapInit@VCDecal@@@@YAPAUdatamap_s@@PAVCDecal@@@Z
	mov	eax, DWORD PTR fs:0
	push	eax
	sub	esp, 64					; 00000040H
	push	ebx
	push	esi
	push	edi
	mov	eax, DWORD PTR ___security_cookie
	xor	eax, ebp
	push	eax
	lea	eax, DWORD PTR __$EHRec$[ebp]
	mov	DWORD PTR fs:0, eax
	mov	eax, DWORD PTR __tls_index
	mov	ecx, DWORD PTR fs:__tls_array
	mov	edx, DWORD PTR [ecx+eax*4]
	mov	eax, DWORD PTR ?$TSS0@?1???$DataMapInit@VCDecal@@@@YAPAUdatamap_s@@PAVCDecal@@@Z@4HA
	cmp	eax, DWORD PTR __Init_thread_epoch[edx]
	jle	SHORT $LN2@DataMapIni
	push	OFFSET ?$TSS0@?1???$DataMapInit@VCDecal@@@@YAPAUdatamap_s@@PAVCDecal@@@Z@4HA
	call	__Init_thread_header
	add	esp, 4
	cmp	DWORD PTR ?$TSS0@?1???$DataMapInit@VCDecal@@@@YAPAUdatamap_s@@PAVCDecal@@@Z@4HA, -1
	jne	SHORT $LN2@DataMapIni
	mov	DWORD PTR __$EHRec$[ebp+8], 0
	push	OFFSET ??_C@_06HLKFCCHD@CDecal?$AA@
	mov	ecx, OFFSET ?nameHolder@?1???$DataMapInit@VCDecal@@@@YAPAUdatamap_s@@PAVCDecal@@@Z@4VCDatadescGeneratedNameHolder@@A
	call	??0CDatadescGeneratedNameHolder@@QAE@PBD@Z ; CDatadescGeneratedNameHolder::CDatadescGeneratedNameHolder
	push	OFFSET ??__FnameHolder@?1???$DataMapInit@VCDecal@@@@YAPAUdatamap_s@@PAVCDecal@@@Z@YAXXZ ; `DataMapInit<CDecal>'::`2'::`dynamic atexit destructor for 'nameHolder''
	call	_atexit
	add	esp, 4
	mov	DWORD PTR __$EHRec$[ebp+8], -1
	push	OFFSET ?$TSS0@?1???$DataMapInit@VCDecal@@@@YAPAUdatamap_s@@PAVCDecal@@@Z@4HA
	call	__Init_thread_footer
	add	esp, 4
$LN2@DataMapIni:

; 258  : END_DATADESC()

	call	?GetBaseMap@CDecal@@SAPAUdatamap_s@@XZ	; CDecal::GetBaseMap
	mov	DWORD PTR ?m_DataMap@CDecal@@2Udatamap_s@@A+12, eax

; 255  : BEGIN_DATADESC( CDecal )

	mov	eax, DWORD PTR __tls_index
	mov	ecx, DWORD PTR fs:__tls_array
	mov	edx, DWORD PTR [ecx+eax*4]
	mov	eax, DWORD PTR ?$TSS1@?1???$DataMapInit@VCDecal@@@@YAPAUdatamap_s@@PAVCDecal@@@Z@4HA
	cmp	eax, DWORD PTR __Init_thread_epoch[edx]
	jle	$LN3@DataMapIni
	push	OFFSET ?$TSS1@?1???$DataMapInit@VCDecal@@@@YAPAUdatamap_s@@PAVCDecal@@@Z@4HA
	call	__Init_thread_header
	add	esp, 4
	cmp	DWORD PTR ?$TSS1@?1???$DataMapInit@VCDecal@@@@YAPAUdatamap_s@@PAVCDecal@@@Z@4HA, -1
	jne	$LN3@DataMapIni
	mov	DWORD PTR __$EHRec$[ebp+8], 1

; 256  : 	DEFINE_FUNCTION( StaticDecal ),

	push	OFFSET ??_C@_0M@LHBONHE@StaticDecal?$AA@
	mov	ecx, OFFSET ?nameHolder@?1???$DataMapInit@VCDecal@@@@YAPAUdatamap_s@@PAVCDecal@@@Z@4VCDatadescGeneratedNameHolder@@A
	call	?GenerateName@CDatadescGeneratedNameHolder@@QAEPBDPBD@Z ; CDatadescGeneratedNameHolder::GenerateName
	mov	DWORD PTR ?dataDesc@?1???$DataMapInit@VCDecal@@@@YAPAUdatamap_s@@PAVCDecal@@@Z@4PAUtypedescription_s@@A+28, eax
	mov	DWORD PTR ?dataDesc@?1???$DataMapInit@VCDecal@@@@YAPAUdatamap_s@@PAVCDecal@@@Z@4PAUtypedescription_s@@A+32, 0
	mov	eax, 1
	mov	WORD PTR ?dataDesc@?1???$DataMapInit@VCDecal@@@@YAPAUdatamap_s@@PAVCDecal@@@Z@4PAUtypedescription_s@@A+36, ax
	mov	eax, 8
	mov	WORD PTR ?dataDesc@?1???$DataMapInit@VCDecal@@@@YAPAUdatamap_s@@PAVCDecal@@@Z@4PAUtypedescription_s@@A+38, ax
	mov	DWORD PTR ?dataDesc@?1???$DataMapInit@VCDecal@@@@YAPAUdatamap_s@@PAVCDecal@@@Z@4PAUtypedescription_s@@A+40, 0
	mov	DWORD PTR ?dataDesc@?1???$DataMapInit@VCDecal@@@@YAPAUdatamap_s@@PAVCDecal@@@Z@4PAUtypedescription_s@@A+44, OFFSET ?StaticDecal@CDecal@@QAEXXZ ; CDecal::StaticDecal

; 257  : 	DEFINE_FUNCTION( TriggerDecal ),

	mov	DWORD PTR ?dataDesc@?1???$DataMapInit@VCDecal@@@@YAPAUdatamap_s@@PAVCDecal@@@Z@4PAUtypedescription_s@@A+48, 18 ; 00000012H
	push	OFFSET ??_C@_0N@FOEAKCOD@TriggerDecal?$AA@
	mov	ecx, OFFSET ?nameHolder@?1???$DataMapInit@VCDecal@@@@YAPAUdatamap_s@@PAVCDecal@@@Z@4VCDatadescGeneratedNameHolder@@A
	call	?GenerateName@CDatadescGeneratedNameHolder@@QAEPBDPBD@Z ; CDatadescGeneratedNameHolder::GenerateName
	mov	DWORD PTR ?dataDesc@?1???$DataMapInit@VCDecal@@@@YAPAUdatamap_s@@PAVCDecal@@@Z@4PAUtypedescription_s@@A+52, eax
	mov	DWORD PTR ?dataDesc@?1???$DataMapInit@VCDecal@@@@YAPAUdatamap_s@@PAVCDecal@@@Z@4PAUtypedescription_s@@A+56, 0
	mov	eax, 1
	mov	WORD PTR ?dataDesc@?1???$DataMapInit@VCDecal@@@@YAPAUdatamap_s@@PAVCDecal@@@Z@4PAUtypedescription_s@@A+60, ax
	mov	eax, 8
	mov	WORD PTR ?dataDesc@?1???$DataMapInit@VCDecal@@@@YAPAUdatamap_s@@PAVCDecal@@@Z@4PAUtypedescription_s@@A+62, ax
	mov	DWORD PTR ?dataDesc@?1???$DataMapInit@VCDecal@@@@YAPAUdatamap_s@@PAVCDecal@@@Z@4PAUtypedescription_s@@A+64, 0
	mov	DWORD PTR ?dataDesc@?1???$DataMapInit@VCDecal@@@@YAPAUdatamap_s@@PAVCDecal@@@Z@4PAUtypedescription_s@@A+68, OFFSET ?TriggerDecal@CDecal@@QAEXPAVCBaseEntity@@0W4USE_TYPE@@M@Z ; CDecal::TriggerDecal
	mov	DWORD PTR __$EHRec$[ebp+8], -1
	push	OFFSET ?$TSS1@?1???$DataMapInit@VCDecal@@@@YAPAUdatamap_s@@PAVCDecal@@@Z@4HA
	call	__Init_thread_footer
	add	esp, 4
$LN3@DataMapIni:

; 258  : END_DATADESC()

	mov	eax, 1
	test	eax, eax
	je	SHORT $LN4@DataMapIni
	mov	DWORD PTR ?m_DataMap@CDecal@@2Udatamap_s@@A+4, 2
	mov	eax, 24					; 00000018H
	shl	eax, 0
	add	eax, OFFSET ?dataDesc@?1???$DataMapInit@VCDecal@@@@YAPAUdatamap_s@@PAVCDecal@@@Z@4PAUtypedescription_s@@A
	mov	DWORD PTR ?m_DataMap@CDecal@@2Udatamap_s@@A, eax
	jmp	SHORT $LN5@DataMapIni
$LN4@DataMapIni:
	mov	DWORD PTR ?m_DataMap@CDecal@@2Udatamap_s@@A+4, 1
	mov	DWORD PTR ?m_DataMap@CDecal@@2Udatamap_s@@A, OFFSET ?dataDesc@?1???$DataMapInit@VCDecal@@@@YAPAUdatamap_s@@PAVCDecal@@@Z@4PAUtypedescription_s@@A
$LN5@DataMapIni:
	mov	eax, OFFSET ?m_DataMap@CDecal@@2Udatamap_s@@A ; CDecal::m_DataMap
	mov	ecx, DWORD PTR __$EHRec$[ebp]
	mov	DWORD PTR fs:0, ecx
	pop	ecx
	pop	edi
	pop	esi
	pop	ebx
	mov	esp, ebp
	pop	ebp
	ret	0
_TEXT	ENDS
;	COMDAT text$x
text$x	SEGMENT
__unwindfunclet$??$DataMapInit@VCDecal@@@@YAPAUdatamap_s@@PAVCDecal@@@Z$0:
	push	OFFSET ?$TSS0@?1???$DataMapInit@VCDecal@@@@YAPAUdatamap_s@@PAVCDecal@@@Z@4HA
	call	__Init_thread_abort
	pop	ecx
	ret	0
__unwindfunclet$??$DataMapInit@VCDecal@@@@YAPAUdatamap_s@@PAVCDecal@@@Z$1:
	push	OFFSET ?$TSS1@?1???$DataMapInit@VCDecal@@@@YAPAUdatamap_s@@PAVCDecal@@@Z@4HA
	call	__Init_thread_abort
	pop	ecx
	ret	0
__ehhandler$??$DataMapInit@VCDecal@@@@YAPAUdatamap_s@@PAVCDecal@@@Z:
	mov	edx, DWORD PTR [esp+8]
	lea	eax, DWORD PTR [edx+12]
	mov	ecx, DWORD PTR [edx-80]
	xor	ecx, eax
	call	@__security_check_cookie@4
	mov	eax, OFFSET __ehfuncinfo$??$DataMapInit@VCDecal@@@@YAPAUdatamap_s@@PAVCDecal@@@Z
	jmp	___CxxFrameHandler3
text$x	ENDS
??$DataMapInit@VCDecal@@@@YAPAUdatamap_s@@PAVCDecal@@@Z ENDP ; DataMapInit<CDecal>
; Function compile flags: /Odtp /ZI
; File d:\!diffusion 2020\source code 2022\client-server\common\datamap.h
;	COMDAT ??$DataMapAccess@VCBaseEntity@@@@YAXPAVCBaseEntity@@PAPAUdatamap_s@@@Z
_TEXT	SEGMENT
_ignored$ = 8						; size = 4
_p$ = 12						; size = 4
??$DataMapAccess@VCBaseEntity@@@@YAXPAVCBaseEntity@@PAPAUdatamap_s@@@Z PROC ; DataMapAccess<CBaseEntity>, COMDAT

; 184  : {

	push	ebp
	mov	ebp, esp
	sub	esp, 64					; 00000040H
	push	ebx
	push	esi
	push	edi

; 185  : 	*p = &T::m_DataMap;

	mov	eax, DWORD PTR _p$[ebp]
	mov	DWORD PTR [eax], OFFSET ?m_DataMap@CBaseEntity@@2Udatamap_s@@A ; CBaseEntity::m_DataMap

; 186  : }

	pop	edi
	pop	esi
	pop	ebx
	mov	esp, ebp
	pop	ebp
	ret	0
??$DataMapAccess@VCBaseEntity@@@@YAXPAVCBaseEntity@@PAPAUdatamap_s@@@Z ENDP ; DataMapAccess<CBaseEntity>
_TEXT	ENDS
; Function compile flags: /Odtp /ZI
; File d:\!diffusion 2020\source code 2022\client-server\server\world.cpp
;	COMDAT ??__Einfodecal@@YAXXZ
text$di	SEGMENT
??__Einfodecal@@YAXXZ PROC				; `dynamic initializer for 'infodecal'', COMDAT

; 253  : LINK_ENTITY_TO_CLASS( infodecal, CDecal );

	push	ebp
	mov	ebp, esp
	sub	esp, 64					; 00000040H
	push	ebx
	push	esi
	push	edi
	push	OFFSET ??_C@_09KFCFBPBF@infodecal?$AA@
	mov	ecx, OFFSET ?infodecal@@3V?$CEntityFactory@VCDecal@@@@A
	call	??0?$CEntityFactory@VCDecal@@@@QAE@PBD@Z ; CEntityFactory<CDecal>::CEntityFactory<CDecal>
	pop	edi
	pop	esi
	pop	ebx
	mov	esp, ebp
	pop	ebp
	ret	0
??__Einfodecal@@YAXXZ ENDP				; `dynamic initializer for 'infodecal''
text$di	ENDS
; Function compile flags: /Odtp /ZI
; File d:\!diffusion 2020\source code 2022\client-server\server\util.h
;	COMDAT ?GetEntitySize@?$CEntityFactory@VCDecal@@@@UAEIXZ
_TEXT	SEGMENT
_this$ = -4						; size = 4
?GetEntitySize@?$CEntityFactory@VCDecal@@@@UAEIXZ PROC	; CEntityFactory<CDecal>::GetEntitySize, COMDAT
; _this$ = ecx

; 103  : 	{

	push	ebp
	mov	ebp, esp
	sub	esp, 68					; 00000044H
	push	ebx
	push	esi
	push	edi
	mov	DWORD PTR _this$[ebp], ecx

; 104  : 		return sizeof(T);

	mov	eax, 1804				; 0000070cH

; 105  : 	}

	pop	edi
	pop	esi
	pop	ebx
	mov	esp, ebp
	pop	ebp
	ret	0
?GetEntitySize@?$CEntityFactory@VCDecal@@@@UAEIXZ ENDP	; CEntityFactory<CDecal>::GetEntitySize
_TEXT	ENDS
; Function compile flags: /Odtp /ZI
; File d:\!diffusion 2020\source code 2022\client-server\server\util.h
;	COMDAT ?Destroy@?$CEntityFactory@VCDecal@@@@UAEXPAVCBaseEntity@@@Z
_TEXT	SEGMENT
_this$ = -4						; size = 4
_pEntity$ = 8						; size = 4
?Destroy@?$CEntityFactory@VCDecal@@@@UAEXPAVCBaseEntity@@@Z PROC ; CEntityFactory<CDecal>::Destroy, COMDAT
; _this$ = ecx

; 98   : 	{

	push	ebp
	mov	ebp, esp
	sub	esp, 68					; 00000044H
	push	ebx
	push	esi
	push	edi
	mov	DWORD PTR _this$[ebp], ecx

; 99   : 		UTIL_Remove( pEntity );

	mov	eax, DWORD PTR _pEntity$[ebp]
	push	eax
	call	?UTIL_Remove@@YAXPAVCBaseEntity@@@Z	; UTIL_Remove
	add	esp, 4

; 100  : 	}

	pop	edi
	pop	esi
	pop	ebx
	mov	esp, ebp
	pop	ebp
	ret	4
?Destroy@?$CEntityFactory@VCDecal@@@@UAEXPAVCBaseEntity@@@Z ENDP ; CEntityFactory<CDecal>::Destroy
_TEXT	ENDS
; Function compile flags: /Odtp /ZI
; File d:\!diffusion 2020\source code 2022\client-server\server\util.h
;	COMDAT ?Create@?$CEntityFactory@VCDecal@@@@UAEPAVCBaseEntity@@PBDPAUentvars_s@@@Z
_TEXT	SEGMENT
_pEnt$ = -8						; size = 4
_this$ = -4						; size = 4
_pClassName$ = 8					; size = 4
_pev$ = 12						; size = 4
?Create@?$CEntityFactory@VCDecal@@@@UAEPAVCBaseEntity@@PBDPAUentvars_s@@@Z PROC ; CEntityFactory<CDecal>::Create, COMDAT
; _this$ = ecx

; 92   : 	{

	push	ebp
	mov	ebp, esp
	sub	esp, 72					; 00000048H
	push	ebx
	push	esi
	push	edi
	mov	DWORD PTR _this$[ebp], ecx

; 93   : 		T* pEnt = GetClassPtr((T*)pev, pClassName);

	mov	eax, DWORD PTR _pClassName$[ebp]
	push	eax
	mov	ecx, DWORD PTR _pev$[ebp]
	push	ecx
	call	??$GetClassPtr@VCDecal@@@@YAPAVCDecal@@PAV0@PBD@Z ; GetClassPtr<CDecal>
	add	esp, 8
	mov	DWORD PTR _pEnt$[ebp], eax

; 94   : 		return pEnt;

	mov	eax, DWORD PTR _pEnt$[ebp]

; 95   : 	}

	pop	edi
	pop	esi
	pop	ebx
	mov	esp, ebp
	pop	ebp
	ret	8
?Create@?$CEntityFactory@VCDecal@@@@UAEPAVCBaseEntity@@PBDPAUentvars_s@@@Z ENDP ; CEntityFactory<CDecal>::Create
_TEXT	ENDS
; Function compile flags: /Odtp /ZI
; File d:\!diffusion 2020\source code 2022\client-server\server\util.h
;	COMDAT ??0?$CEntityFactory@VCDecal@@@@QAE@PBD@Z
_TEXT	SEGMENT
tv76 = -72						; size = 4
_this$ = -4						; size = 4
_pClassName$ = 8					; size = 4
??0?$CEntityFactory@VCDecal@@@@QAE@PBD@Z PROC		; CEntityFactory<CDecal>::CEntityFactory<CDecal>, COMDAT
; _this$ = ecx

; 86   : 	CEntityFactory( const char *pClassName )

	push	ebp
	mov	ebp, esp
	sub	esp, 72					; 00000048H
	push	ebx
	push	esi
	push	edi
	mov	DWORD PTR _this$[ebp], ecx

; 87   : 	{

	mov	ecx, DWORD PTR _this$[ebp]
	call	??0IEntityFactory@@QAE@XZ
	mov	eax, DWORD PTR _this$[ebp]
	mov	DWORD PTR [eax], OFFSET ??_7?$CEntityFactory@VCDecal@@@@6B@

; 88   : 		EntityFactoryDictionary()->InstallFactory( this, pClassName );

	call	?EntityFactoryDictionary@@YAPAVIEntityFactoryDictionary@@XZ ; EntityFactoryDictionary
	mov	DWORD PTR tv76[ebp], eax
	mov	eax, DWORD PTR _pClassName$[ebp]
	push	eax
	mov	ecx, DWORD PTR _this$[ebp]
	push	ecx
	mov	edx, DWORD PTR tv76[ebp]
	mov	eax, DWORD PTR [edx]
	mov	ecx, DWORD PTR tv76[ebp]
	mov	edx, DWORD PTR [eax]
	call	edx

; 89   : 	}

	mov	eax, DWORD PTR _this$[ebp]
	pop	edi
	pop	esi
	pop	ebx
	mov	esp, ebp
	pop	ebp
	ret	4
??0?$CEntityFactory@VCDecal@@@@QAE@PBD@Z ENDP		; CEntityFactory<CDecal>::CEntityFactory<CDecal>
_TEXT	ENDS
; Function compile flags: /Odtp /ZI
;	COMDAT ??0CDecal@@QAE@XZ
_TEXT	SEGMENT
_this$ = -4						; size = 4
??0CDecal@@QAE@XZ PROC					; CDecal::CDecal, COMDAT
; _this$ = ecx
	push	ebp
	mov	ebp, esp
	sub	esp, 68					; 00000044H
	push	ebx
	push	esi
	push	edi
	mov	DWORD PTR _this$[ebp], ecx
	mov	ecx, DWORD PTR _this$[ebp]
	call	??0CBaseEntity@@QAE@XZ
	mov	eax, DWORD PTR _this$[ebp]
	mov	DWORD PTR [eax], OFFSET ??_7CDecal@@6B@
	mov	eax, DWORD PTR _this$[ebp]
	pop	edi
	pop	esi
	pop	ebx
	mov	esp, ebp
	pop	ebp
	ret	0
??0CDecal@@QAE@XZ ENDP					; CDecal::CDecal
_TEXT	ENDS
; Function compile flags: /Odtp /ZI
; File d:\!diffusion 2020\source code 2022\client-server\server\world.cpp
;	COMDAT ?GetDataDescMap@CDecal@@UAEPAUdatamap_s@@XZ
_TEXT	SEGMENT
_this$ = -4						; size = 4
?GetDataDescMap@CDecal@@UAEPAUdatamap_s@@XZ PROC	; CDecal::GetDataDescMap, COMDAT
; _this$ = ecx

; 255  : BEGIN_DATADESC( CDecal )

	push	ebp
	mov	ebp, esp
	sub	esp, 68					; 00000044H
	push	ebx
	push	esi
	push	edi
	mov	DWORD PTR _this$[ebp], ecx
	mov	eax, OFFSET ?m_DataMap@CDecal@@2Udatamap_s@@A ; CDecal::m_DataMap
	pop	edi
	pop	esi
	pop	ebx
	mov	esp, ebp
	pop	ebp
	ret	0
?GetDataDescMap@CDecal@@UAEPAUdatamap_s@@XZ ENDP	; CDecal::GetDataDescMap
_TEXT	ENDS
; Function compile flags: /Odtp /ZI
; File d:\!diffusion 2020\source code 2022\client-server\server\world.cpp
;	COMDAT ?GetBaseMap@CDecal@@SAPAUdatamap_s@@XZ
_TEXT	SEGMENT
_pResult$ = -4						; size = 4
?GetBaseMap@CDecal@@SAPAUdatamap_s@@XZ PROC		; CDecal::GetBaseMap, COMDAT

; 255  : BEGIN_DATADESC( CDecal )

	push	ebp
	mov	ebp, esp
	sub	esp, 68					; 00000044H
	push	ebx
	push	esi
	push	edi
	lea	eax, DWORD PTR _pResult$[ebp]
	push	eax
	push	0
	call	??$DataMapAccess@VCBaseEntity@@@@YAXPAVCBaseEntity@@PAPAUdatamap_s@@@Z ; DataMapAccess<CBaseEntity>
	add	esp, 8
	mov	eax, DWORD PTR _pResult$[ebp]
	pop	edi
	pop	esi
	pop	ebx
	mov	esp, ebp
	pop	ebp
	ret	0
?GetBaseMap@CDecal@@SAPAUdatamap_s@@XZ ENDP		; CDecal::GetBaseMap
_TEXT	ENDS
; Function compile flags: /Odtp /ZI
; File d:\!diffusion 2020\source code 2022\client-server\server\world.cpp
;	COMDAT ?TriggerDecal@CDecal@@QAEXPAVCBaseEntity@@0W4USE_TYPE@@M@Z
_TEXT	SEGMENT
$T1 = -188						; size = 12
$T2 = -176						; size = 12
$T3 = -164						; size = 12
$T4 = -152						; size = 12
_vecOrigin$ = -76					; size = 12
_entityIndex$ = -64					; size = 4
_trace$ = -60						; size = 56
_this$ = -4						; size = 4
_pActivator$ = 8					; size = 4
_pCaller$ = 12						; size = 4
_useType$ = 16						; size = 4
_value$ = 20						; size = 4
?TriggerDecal@CDecal@@QAEXPAVCBaseEntity@@0W4USE_TYPE@@M@Z PROC ; CDecal::TriggerDecal, COMDAT
; _this$ = ecx

; 299  : {

	push	ebp
	mov	ebp, esp
	sub	esp, 188				; 000000bcH
	push	ebx
	push	esi
	push	edi
	mov	DWORD PTR _this$[ebp], ecx

; 300  : 	// this is set up as a USE function for infodecals that have targetnames, so that the
; 301  : 	// decal doesn't get applied until it is fired. (usually by a scripted sequence)
; 302  : 	TraceResult trace;

	lea	ecx, DWORD PTR _trace$[ebp]
	call	??0gametrace_s@@QAE@XZ

; 303  : 	int entityIndex;
; 304  : 	Vector vecOrigin = GetAbsOrigin();

	mov	ecx, DWORD PTR _this$[ebp]
	call	?GetAbsOrigin@CBaseEntity@@QBEABVVector@@XZ ; CBaseEntity::GetAbsOrigin
	push	eax
	lea	ecx, DWORD PTR _vecOrigin$[ebp]
	call	??0Vector@@QAE@ABV0@@Z			; Vector::Vector

; 305  : 
; 306  : 	UTIL_TraceLine( vecOrigin - Vector( 5, 5, 5 ), vecOrigin + Vector( 5, 5, 5 ), ignore_monsters, edict(), &trace );

	lea	eax, DWORD PTR _trace$[ebp]
	push	eax
	mov	ecx, DWORD PTR _this$[ebp]
	call	?edict@CBaseEntity@@QAEPAUedict_s@@XZ	; CBaseEntity::edict
	push	eax
	push	1
	push	ecx
	movss	xmm0, DWORD PTR __real@40a00000
	movss	DWORD PTR [esp], xmm0
	push	ecx
	movss	xmm0, DWORD PTR __real@40a00000
	movss	DWORD PTR [esp], xmm0
	push	ecx
	movss	xmm0, DWORD PTR __real@40a00000
	movss	DWORD PTR [esp], xmm0
	lea	ecx, DWORD PTR $T4[ebp]
	call	??0Vector@@QAE@MMM@Z			; Vector::Vector
	push	eax
	lea	ecx, DWORD PTR $T3[ebp]
	push	ecx
	lea	ecx, DWORD PTR _vecOrigin$[ebp]
	call	??HVector@@QBE?AV0@ABV0@@Z		; Vector::operator+
	push	eax
	push	ecx
	movss	xmm0, DWORD PTR __real@40a00000
	movss	DWORD PTR [esp], xmm0
	push	ecx
	movss	xmm0, DWORD PTR __real@40a00000
	movss	DWORD PTR [esp], xmm0
	push	ecx
	movss	xmm0, DWORD PTR __real@40a00000
	movss	DWORD PTR [esp], xmm0
	lea	ecx, DWORD PTR $T2[ebp]
	call	??0Vector@@QAE@MMM@Z			; Vector::Vector
	push	eax
	lea	edx, DWORD PTR $T1[ebp]
	push	edx
	lea	ecx, DWORD PTR _vecOrigin$[ebp]
	call	??GVector@@QBE?AV0@ABV0@@Z		; Vector::operator-
	push	eax
	call	?UTIL_TraceLine@@YAXABVVector@@0W4IGNORE_MONSTERS@@PAUedict_s@@PAUgametrace_s@@@Z ; UTIL_TraceLine
	add	esp, 20					; 00000014H

; 307  : 
; 308  : 	MESSAGE_BEGIN( MSG_BROADCAST, SVC_TEMPENTITY );

	push	0
	push	0
	push	23					; 00000017H
	push	0
	call	?MESSAGE_BEGIN@@YAXHHPBMPAUedict_s@@@Z	; MESSAGE_BEGIN
	add	esp, 16					; 00000010H

; 309  : 		WRITE_BYTE( TE_BSPDECAL );

	push	13					; 0000000dH
	call	DWORD PTR ?g_engfuncs@@3Uenginefuncs_s@@A+192
	add	esp, 4

; 310  : 		WRITE_COORD( vecOrigin.x );

	push	ecx
	movss	xmm0, DWORD PTR _vecOrigin$[ebp]
	movss	DWORD PTR [esp], xmm0
	call	DWORD PTR ?g_engfuncs@@3Uenginefuncs_s@@A+212
	add	esp, 4

; 311  : 		WRITE_COORD( vecOrigin.y );

	push	ecx
	movss	xmm0, DWORD PTR _vecOrigin$[ebp+4]
	movss	DWORD PTR [esp], xmm0
	call	DWORD PTR ?g_engfuncs@@3Uenginefuncs_s@@A+212
	add	esp, 4

; 312  : 		WRITE_COORD( vecOrigin.z );

	push	ecx
	movss	xmm0, DWORD PTR _vecOrigin$[ebp+8]
	movss	DWORD PTR [esp], xmm0
	call	DWORD PTR ?g_engfuncs@@3Uenginefuncs_s@@A+212
	add	esp, 4

; 313  : 		WRITE_SHORT( (int)pev->skin );

	mov	eax, DWORD PTR _this$[ebp]
	mov	ecx, DWORD PTR [eax+4]
	mov	edx, DWORD PTR [ecx+272]
	push	edx
	call	DWORD PTR ?g_engfuncs@@3Uenginefuncs_s@@A+200
	add	esp, 4

; 314  : 		entityIndex = (short)ENTINDEX( trace.pHit );

	mov	eax, DWORD PTR _trace$[ebp+48]
	push	eax
	call	?ENTINDEX@@YAHPAUedict_s@@@Z		; ENTINDEX
	add	esp, 4
	movsx	ecx, ax
	mov	DWORD PTR _entityIndex$[ebp], ecx

; 315  : 		WRITE_SHORT( entityIndex );

	mov	eax, DWORD PTR _entityIndex$[ebp]
	push	eax
	call	DWORD PTR ?g_engfuncs@@3Uenginefuncs_s@@A+200
	add	esp, 4

; 316  : 		if( entityIndex )

	cmp	DWORD PTR _entityIndex$[ebp], 0
	je	SHORT $LN2@TriggerDec

; 317  : 			WRITE_SHORT( (int)VARS( trace.pHit )->modelindex );

	mov	eax, DWORD PTR _trace$[ebp+48]
	push	eax
	call	?VARS@@YAPAUentvars_s@@PAUedict_s@@@Z	; VARS
	add	esp, 4
	mov	ecx, DWORD PTR [eax+180]
	push	ecx
	call	DWORD PTR ?g_engfuncs@@3Uenginefuncs_s@@A+200
	add	esp, 4
$LN2@TriggerDec:

; 318  : 	MESSAGE_END();

	call	DWORD PTR ?g_engfuncs@@3Uenginefuncs_s@@A+188

; 319  : 
; 320  : 	SetThink( &CBaseEntity::SUB_Remove );

	push	OFFSET ??_C@_0BJ@EIFNLFLK@?$CGCBaseEntity?3?3SUB_Remove?$AA@
	push	OFFSET ?SUB_Remove@CBaseEntity@@QAEXXZ	; CBaseEntity::SUB_Remove
	mov	ecx, DWORD PTR _this$[ebp]
	call	?ThinkSet@CBaseEntity@@QAEP81@AEXXZP81@AEXXZPAD@Z ; CBaseEntity::ThinkSet

; 321  : 	SetNextThink( 0.1 );

	push	ecx
	movss	xmm0, DWORD PTR __real@3dcccccd
	movss	DWORD PTR [esp], xmm0
	mov	eax, DWORD PTR _this$[ebp]
	mov	edx, DWORD PTR [eax]
	mov	ecx, DWORD PTR _this$[ebp]
	mov	eax, DWORD PTR [edx+80]
	call	eax

; 322  : }

	pop	edi
	pop	esi
	pop	ebx
	mov	esp, ebp
	pop	ebp
	ret	16					; 00000010H
?TriggerDecal@CDecal@@QAEXPAVCBaseEntity@@0W4USE_TYPE@@M@Z ENDP ; CDecal::TriggerDecal
_TEXT	ENDS
; Function compile flags: /Odtp /ZI
; File d:\!diffusion 2020\source code 2022\client-server\server\world.cpp
;	COMDAT ?StaticDecal@CDecal@@QAEXXZ
_TEXT	SEGMENT
$T1 = -192						; size = 12
$T2 = -180						; size = 12
$T3 = -168						; size = 12
$T4 = -156						; size = 12
_vecOrigin$ = -80					; size = 12
_modelIndex$ = -68					; size = 4
_entityIndex$ = -64					; size = 4
_trace$ = -60						; size = 56
_this$ = -4						; size = 4
?StaticDecal@CDecal@@QAEXXZ PROC			; CDecal::StaticDecal, COMDAT
; _this$ = ecx

; 326  : {

	push	ebp
	mov	ebp, esp
	sub	esp, 192				; 000000c0H
	push	ebx
	push	esi
	push	edi
	mov	DWORD PTR _this$[ebp], ecx

; 327  : 	TraceResult trace;

	lea	ecx, DWORD PTR _trace$[ebp]
	call	??0gametrace_s@@QAE@XZ

; 328  : 	int entityIndex, modelIndex;
; 329  : 	Vector vecOrigin = GetAbsOrigin();

	mov	ecx, DWORD PTR _this$[ebp]
	call	?GetAbsOrigin@CBaseEntity@@QBEABVVector@@XZ ; CBaseEntity::GetAbsOrigin
	push	eax
	lea	ecx, DWORD PTR _vecOrigin$[ebp]
	call	??0Vector@@QAE@ABV0@@Z			; Vector::Vector

; 330  : 
; 331  : 	UTIL_TraceLine( vecOrigin - Vector( 5, 5, 5 ), vecOrigin + Vector( 5, 5, 5 ), ignore_monsters, edict(), &trace );

	lea	eax, DWORD PTR _trace$[ebp]
	push	eax
	mov	ecx, DWORD PTR _this$[ebp]
	call	?edict@CBaseEntity@@QAEPAUedict_s@@XZ	; CBaseEntity::edict
	push	eax
	push	1
	push	ecx
	movss	xmm0, DWORD PTR __real@40a00000
	movss	DWORD PTR [esp], xmm0
	push	ecx
	movss	xmm0, DWORD PTR __real@40a00000
	movss	DWORD PTR [esp], xmm0
	push	ecx
	movss	xmm0, DWORD PTR __real@40a00000
	movss	DWORD PTR [esp], xmm0
	lea	ecx, DWORD PTR $T4[ebp]
	call	??0Vector@@QAE@MMM@Z			; Vector::Vector
	push	eax
	lea	ecx, DWORD PTR $T3[ebp]
	push	ecx
	lea	ecx, DWORD PTR _vecOrigin$[ebp]
	call	??HVector@@QBE?AV0@ABV0@@Z		; Vector::operator+
	push	eax
	push	ecx
	movss	xmm0, DWORD PTR __real@40a00000
	movss	DWORD PTR [esp], xmm0
	push	ecx
	movss	xmm0, DWORD PTR __real@40a00000
	movss	DWORD PTR [esp], xmm0
	push	ecx
	movss	xmm0, DWORD PTR __real@40a00000
	movss	DWORD PTR [esp], xmm0
	lea	ecx, DWORD PTR $T2[ebp]
	call	??0Vector@@QAE@MMM@Z			; Vector::Vector
	push	eax
	lea	edx, DWORD PTR $T1[ebp]
	push	edx
	lea	ecx, DWORD PTR _vecOrigin$[ebp]
	call	??GVector@@QBE?AV0@ABV0@@Z		; Vector::operator-
	push	eax
	call	?UTIL_TraceLine@@YAXABVVector@@0W4IGNORE_MONSTERS@@PAUedict_s@@PAUgametrace_s@@@Z ; UTIL_TraceLine
	add	esp, 20					; 00000014H

; 332  : 
; 333  : 	entityIndex = (short)ENTINDEX( trace.pHit );

	mov	eax, DWORD PTR _trace$[ebp+48]
	push	eax
	call	?ENTINDEX@@YAHPAUedict_s@@@Z		; ENTINDEX
	add	esp, 4
	movsx	ecx, ax
	mov	DWORD PTR _entityIndex$[ebp], ecx

; 334  : 
; 335  : 	if( entityIndex )

	cmp	DWORD PTR _entityIndex$[ebp], 0
	je	SHORT $LN2@StaticDeca

; 336  : 		modelIndex = (int)VARS( trace.pHit )->modelindex;

	mov	eax, DWORD PTR _trace$[ebp+48]
	push	eax
	call	?VARS@@YAPAUentvars_s@@PAUedict_s@@@Z	; VARS
	add	esp, 4
	mov	ecx, DWORD PTR [eax+180]
	mov	DWORD PTR _modelIndex$[ebp], ecx

; 337  : 	else

	jmp	SHORT $LN3@StaticDeca
$LN2@StaticDeca:

; 338  : 		modelIndex = 0;

	mov	DWORD PTR _modelIndex$[ebp], 0
$LN3@StaticDeca:

; 339  : 
; 340  : 	g_engfuncs.pfnStaticDecal( vecOrigin, (int)pev->skin, entityIndex, modelIndex );

	mov	eax, DWORD PTR _modelIndex$[ebp]
	push	eax
	mov	ecx, DWORD PTR _entityIndex$[ebp]
	push	ecx
	mov	edx, DWORD PTR _this$[ebp]
	mov	eax, DWORD PTR [edx+4]
	mov	ecx, DWORD PTR [eax+272]
	push	ecx
	lea	ecx, DWORD PTR _vecOrigin$[ebp]
	call	??BVector@@QAEPAMXZ			; Vector::operator float *
	push	eax
	call	DWORD PTR ?g_engfuncs@@3Uenginefuncs_s@@A+444
	add	esp, 16					; 00000010H

; 341  : 
; 342  : 	SUB_Remove();

	mov	ecx, DWORD PTR _this$[ebp]
	call	?SUB_Remove@CBaseEntity@@QAEXXZ		; CBaseEntity::SUB_Remove

; 343  : }

	pop	edi
	pop	esi
	pop	ebx
	mov	esp, ebp
	pop	ebp
	ret	0
?StaticDecal@CDecal@@QAEXXZ ENDP			; CDecal::StaticDecal
_TEXT	ENDS
; Function compile flags: /Odtp /ZI
; File d:\!diffusion 2020\source code 2022\client-server\server\world.cpp
;	COMDAT ?KeyValue@CDecal@@UAEXPAUKeyValueData_s@@@Z
_TEXT	SEGMENT
_this$ = -4						; size = 4
_pkvd$ = 8						; size = 4
?KeyValue@CDecal@@UAEXPAUKeyValueData_s@@@Z PROC	; CDecal::KeyValue, COMDAT
; _this$ = ecx

; 261  : {

	push	ebp
	mov	ebp, esp
	sub	esp, 68					; 00000044H
	push	ebx
	push	esi
	push	edi
	mov	DWORD PTR _this$[ebp], ecx

; 262  : 	if (FStrEq(pkvd->szKeyName, "texture"))

	push	OFFSET ??_C@_07JDHEGGGP@texture?$AA@
	mov	eax, DWORD PTR _pkvd$[ebp]
	mov	ecx, DWORD PTR [eax+4]
	push	ecx
	call	?FStrEq@@YAHPBD0@Z			; FStrEq
	add	esp, 8
	test	eax, eax
	je	SHORT $LN2@KeyValue

; 263  : 	{
; 264  : 		pev->skin = DECAL_INDEX(pkvd->szValue);

	mov	eax, DWORD PTR _pkvd$[ebp]
	mov	ecx, DWORD PTR [eax+8]
	push	ecx
	call	DWORD PTR ?g_engfuncs@@3Uenginefuncs_s@@A+176
	add	esp, 4
	mov	edx, DWORD PTR _this$[ebp]
	mov	ecx, DWORD PTR [edx+4]
	mov	DWORD PTR [ecx+272], eax

; 265  : 
; 266  : 		// Found
; 267  : 		if (pev->skin < 0)

	mov	eax, DWORD PTR _this$[ebp]
	mov	ecx, DWORD PTR [eax+4]
	cmp	DWORD PTR [ecx+272], 0
	jge	SHORT $LN4@KeyValue

; 268  : 			ALERT(at_console, "Can't find decal %s\n", pkvd->szValue);

	mov	eax, DWORD PTR _pkvd$[ebp]
	mov	ecx, DWORD PTR [eax+8]
	push	ecx
	push	OFFSET ??_C@_0BF@BLPBHMHG@Can?8t?5find?5decal?5?$CFs?6?$AA@
	push	1
	call	DWORD PTR ?g_engfuncs@@3Uenginefuncs_s@@A+244
	add	esp, 12					; 0000000cH
$LN4@KeyValue:

; 269  : 		pkvd->fHandled = TRUE;

	mov	eax, DWORD PTR _pkvd$[ebp]
	mov	DWORD PTR [eax+12], 1

; 270  : 	}
; 271  : 	else

	jmp	SHORT $LN1@KeyValue
$LN2@KeyValue:

; 272  : 		CBaseEntity::KeyValue(pkvd);

	mov	eax, DWORD PTR _pkvd$[ebp]
	push	eax
	mov	ecx, DWORD PTR _this$[ebp]
	call	?KeyValue@CBaseEntity@@UAEXPAUKeyValueData_s@@@Z ; CBaseEntity::KeyValue
$LN1@KeyValue:

; 273  : }

	pop	edi
	pop	esi
	pop	ebx
	mov	esp, ebp
	pop	ebp
	ret	4
?KeyValue@CDecal@@UAEXPAUKeyValueData_s@@@Z ENDP	; CDecal::KeyValue
_TEXT	ENDS
; Function compile flags: /Odtp /ZI
; File d:\!diffusion 2020\source code 2022\client-server\server\world.cpp
;	COMDAT ?Spawn@CDecal@@UAEXXZ
_TEXT	SEGMENT
_this$ = -4						; size = 4
?Spawn@CDecal@@UAEXXZ PROC				; CDecal::Spawn, COMDAT
; _this$ = ecx

; 277  : {

	push	ebp
	mov	ebp, esp
	sub	esp, 68					; 00000044H
	push	ebx
	push	esi
	push	edi
	mov	DWORD PTR _this$[ebp], ecx

; 278  : 	if ( pev->skin < 0 || (gpGlobals->deathmatch && FBitSet( pev->spawnflags, SF_DECAL_NOTINDEATHMATCH )) )

	mov	eax, DWORD PTR _this$[ebp]
	mov	ecx, DWORD PTR [eax+4]
	cmp	DWORD PTR [ecx+272], 0
	jl	SHORT $LN3@Spawn
	mov	eax, DWORD PTR ?gpGlobals@@3PAUglobalvars_t@@A ; gpGlobals
	movss	xmm0, DWORD PTR [eax+20]
	ucomiss	xmm0, DWORD PTR __real@00000000
	lahf
	test	ah, 68					; 00000044H
	jnp	SHORT $LN2@Spawn
	mov	eax, DWORD PTR _this$[ebp]
	mov	ecx, DWORD PTR [eax+4]
	mov	edx, DWORD PTR [ecx+416]
	and	edx, 2048				; 00000800H
	je	SHORT $LN2@Spawn
$LN3@Spawn:

; 279  : 	{
; 280  : 		REMOVE_ENTITY(ENT(pev));

	mov	eax, DWORD PTR _this$[ebp]
	mov	ecx, DWORD PTR [eax+4]
	push	ecx
	call	?ENT@@YAPAUedict_s@@PBUentvars_s@@@Z	; ENT
	add	esp, 4
	push	eax
	call	DWORD PTR ?g_engfuncs@@3Uenginefuncs_s@@A+88
	add	esp, 4

; 281  : 		return;

	jmp	SHORT $LN1@Spawn
$LN2@Spawn:

; 282  : 	}
; 283  : 
; 284  : 	if ( FStringNull ( pev->targetname ) )

	mov	eax, DWORD PTR _this$[ebp]
	mov	ecx, DWORD PTR [eax+4]
	mov	edx, DWORD PTR [ecx+460]
	push	edx
	call	?FStringNull@@YAHH@Z			; FStringNull
	add	esp, 4
	test	eax, eax
	je	SHORT $LN4@Spawn

; 285  : 	{
; 286  : 		SetThink( &CDecal::StaticDecal );

	push	OFFSET ??_C@_0BF@JJAPICJC@?$CGCDecal?3?3StaticDecal?$AA@
	push	OFFSET ?StaticDecal@CDecal@@QAEXXZ	; CDecal::StaticDecal
	mov	ecx, DWORD PTR _this$[ebp]
	call	?ThinkSet@CBaseEntity@@QAEP81@AEXXZP81@AEXXZPAD@Z ; CBaseEntity::ThinkSet

; 287  : 		// if there's no targetname, the decal will spray itself on as soon as the world is done spawning.
; 288  : 		SetNextThink( 0 );

	push	ecx
	xorps	xmm0, xmm0
	movss	DWORD PTR [esp], xmm0
	mov	eax, DWORD PTR _this$[ebp]
	mov	edx, DWORD PTR [eax]
	mov	ecx, DWORD PTR _this$[ebp]
	mov	eax, DWORD PTR [edx+80]
	call	eax

; 289  : 	}
; 290  : 	else

	jmp	SHORT $LN5@Spawn
$LN4@Spawn:

; 291  : 	{
; 292  : 		// if there IS a targetname, the decal sprays itself on when it is triggered.
; 293  : 		SetThink ( &CBaseEntity::SUB_DoNothing );

	push	OFFSET ??_C@_0BM@BHEFNEMH@?$CGCBaseEntity?3?3SUB_DoNothing?$AA@
	push	OFFSET ?SUB_DoNothing@CBaseEntity@@QAEXXZ ; CBaseEntity::SUB_DoNothing
	mov	ecx, DWORD PTR _this$[ebp]
	call	?ThinkSet@CBaseEntity@@QAEP81@AEXXZP81@AEXXZPAD@Z ; CBaseEntity::ThinkSet

; 294  : 		SetUse(&CDecal::TriggerDecal);

	push	OFFSET ??_C@_0BG@BHLLJLMB@?$CGCDecal?3?3TriggerDecal?$AA@
	push	OFFSET ?TriggerDecal@CDecal@@QAEXPAVCBaseEntity@@0W4USE_TYPE@@M@Z ; CDecal::TriggerDecal
	mov	ecx, DWORD PTR _this$[ebp]
	call	?UseSet@CBaseEntity@@QAEP81@AEXPAV1@0W4USE_TYPE@@M@ZP81@AEX001M@ZPAD@Z ; CBaseEntity::UseSet
$LN5@Spawn:
$LN1@Spawn:

; 295  : 	}
; 296  : }

	pop	edi
	pop	esi
	pop	ebx
	mov	esp, ebp
	pop	ebp
	ret	0
?Spawn@CDecal@@UAEXXZ ENDP				; CDecal::Spawn
_TEXT	ENDS
; Function compile flags: /Odtp /ZI
; File d:\!diffusion 2020\source code 2022\client-server\server\world.cpp
;	COMDAT ??__ENullPhysic@@YAXXZ
text$di	SEGMENT
??__ENullPhysic@@YAXXZ PROC				; `dynamic initializer for 'NullPhysic'', COMDAT

; 102  : CPhysicNull NullPhysic;

	push	ebp
	mov	ebp, esp
	sub	esp, 64					; 00000040H
	push	ebx
	push	esi
	push	edi
	mov	ecx, OFFSET ?NullPhysic@@3VCPhysicNull@@A ; NullPhysic
	call	??0CPhysicNull@@QAE@XZ
	pop	edi
	pop	esi
	pop	ebx
	mov	esp, ebp
	pop	ebp
	ret	0
??__ENullPhysic@@YAXXZ ENDP				; `dynamic initializer for 'NullPhysic''
text$di	ENDS
; Function compile flags: /Odtp /ZI
;	COMDAT ??0CPhysicNull@@QAE@XZ
_TEXT	SEGMENT
_this$ = -4						; size = 4
??0CPhysicNull@@QAE@XZ PROC				; CPhysicNull::CPhysicNull, COMDAT
; _this$ = ecx
	push	ebp
	mov	ebp, esp
	sub	esp, 68					; 00000044H
	push	ebx
	push	esi
	push	edi
	mov	DWORD PTR _this$[ebp], ecx
	mov	ecx, DWORD PTR _this$[ebp]
	call	??0IPhysicLayer@@QAE@XZ
	mov	eax, DWORD PTR _this$[ebp]
	mov	DWORD PTR [eax], OFFSET ??_7CPhysicNull@@6B@
	mov	eax, DWORD PTR _this$[ebp]
	pop	edi
	pop	esi
	pop	ebx
	mov	esp, ebp
	pop	ebp
	ret	0
??0CPhysicNull@@QAE@XZ ENDP				; CPhysicNull::CPhysicNull
_TEXT	ENDS
; Function compile flags: /Odtp /ZI
; File d:\!diffusion 2020\source code 2022\client-server\server\world.cpp
;	COMDAT ?GetPhysicInterface@CPhysicNull@@UAEPAXXZ
_TEXT	SEGMENT
_this$ = -4						; size = 4
?GetPhysicInterface@CPhysicNull@@UAEPAXXZ PROC		; CPhysicNull::GetPhysicInterface, COMDAT
; _this$ = ecx

; 99   : 	virtual void *GetPhysicInterface( void ) { return NULL; }

	push	ebp
	mov	ebp, esp
	sub	esp, 68					; 00000044H
	push	ebx
	push	esi
	push	edi
	mov	DWORD PTR _this$[ebp], ecx
	xor	eax, eax
	pop	edi
	pop	esi
	pop	ebx
	mov	esp, ebp
	pop	ebp
	ret	0
?GetPhysicInterface@CPhysicNull@@UAEPAXXZ ENDP		; CPhysicNull::GetPhysicInterface
_TEXT	ENDS
; Function compile flags: /Odtp /ZI
; File d:\!diffusion 2020\source code 2022\client-server\server\world.cpp
;	COMDAT ?GetCookingInterface@CPhysicNull@@UAEPAXXZ
_TEXT	SEGMENT
_this$ = -4						; size = 4
?GetCookingInterface@CPhysicNull@@UAEPAXXZ PROC		; CPhysicNull::GetCookingInterface, COMDAT
; _this$ = ecx

; 98   : 	virtual void *GetCookingInterface( void ) { return NULL; }

	push	ebp
	mov	ebp, esp
	sub	esp, 68					; 00000044H
	push	ebx
	push	esi
	push	edi
	mov	DWORD PTR _this$[ebp], ecx
	xor	eax, eax
	pop	edi
	pop	esi
	pop	ebx
	mov	esp, ebp
	pop	ebp
	ret	0
?GetCookingInterface@CPhysicNull@@UAEPAXXZ ENDP		; CPhysicNull::GetCookingInterface
_TEXT	ENDS
; Function compile flags: /Odtp /ZI
; File d:\!diffusion 2020\source code 2022\client-server\server\world.cpp
;	COMDAT ?IsBodySleeping@CPhysicNull@@UAE_NPAVCBaseEntity@@@Z
_TEXT	SEGMENT
_this$ = -4						; size = 4
_pEntity$ = 8						; size = 4
?IsBodySleeping@CPhysicNull@@UAE_NPAVCBaseEntity@@@Z PROC ; CPhysicNull::IsBodySleeping, COMDAT
; _this$ = ecx

; 97   : 	virtual bool	IsBodySleeping( CBaseEntity *pEntity ) { return true; } // entity is always sleeping while physics is not installed

	push	ebp
	mov	ebp, esp
	sub	esp, 68					; 00000044H
	push	ebx
	push	esi
	push	edi
	mov	DWORD PTR _this$[ebp], ecx
	mov	al, 1
	pop	edi
	pop	esi
	pop	ebx
	mov	esp, ebp
	pop	ebp
	ret	4
?IsBodySleeping@CPhysicNull@@UAE_NPAVCBaseEntity@@@Z ENDP ; CPhysicNull::IsBodySleeping
_TEXT	ENDS
; Function compile flags: /Odtp /ZI
; File d:\!diffusion 2020\source code 2022\client-server\server\world.cpp
;	COMDAT ?SweepEntity@CPhysicNull@@UAEXPAVCBaseEntity@@ABVVector@@1PAUgametrace_s@@@Z
_TEXT	SEGMENT
_this$ = -4						; size = 4
___formal$ = 8						; size = 4
___formal$ = 12						; size = 4
___formal$ = 16						; size = 4
_tr$ = 20						; size = 4
?SweepEntity@CPhysicNull@@UAEXPAVCBaseEntity@@ABVVector@@1PAUgametrace_s@@@Z PROC ; CPhysicNull::SweepEntity, COMDAT
; _this$ = ecx

; 96   : 	virtual void	SweepEntity( CBaseEntity *, const Vector &, const Vector &, TraceResult *tr ) { tr->fAllSolid = 0, tr->flFraction = 1.0f; }

	push	ebp
	mov	ebp, esp
	sub	esp, 68					; 00000044H
	push	ebx
	push	esi
	push	edi
	mov	DWORD PTR _this$[ebp], ecx
	mov	eax, DWORD PTR _tr$[ebp]
	mov	DWORD PTR [eax], 0
	mov	ecx, DWORD PTR _tr$[ebp]
	movss	xmm0, DWORD PTR __real@3f800000
	movss	DWORD PTR [ecx+16], xmm0
	pop	edi
	pop	esi
	pop	ebx
	mov	esp, ebp
	pop	ebp
	ret	16					; 00000010H
?SweepEntity@CPhysicNull@@UAEXPAVCBaseEntity@@ABVVector@@1PAUgametrace_s@@@Z ENDP ; CPhysicNull::SweepEntity
_TEXT	ENDS
; Function compile flags: /Odtp /ZI
; File d:\!diffusion 2020\source code 2022\client-server\server\world.cpp
;	COMDAT ?SweepTest@CPhysicNull@@UAEXPAVCBaseEntity@@ABVVector@@111PAUtrace_s@@@Z
_TEXT	SEGMENT
_this$ = -4						; size = 4
___formal$ = 8						; size = 4
___formal$ = 12						; size = 4
___formal$ = 16						; size = 4
___formal$ = 20						; size = 4
___formal$ = 24						; size = 4
_tr$ = 28						; size = 4
?SweepTest@CPhysicNull@@UAEXPAVCBaseEntity@@ABVVector@@111PAUtrace_s@@@Z PROC ; CPhysicNull::SweepTest, COMDAT
; _this$ = ecx

; 95   : 	virtual void	SweepTest( CBaseEntity *, const Vector &, const Vector &, const Vector &, const Vector &, trace_t *tr ) { tr->allsolid = 0; }

	push	ebp
	mov	ebp, esp
	sub	esp, 68					; 00000044H
	push	ebx
	push	esi
	push	edi
	mov	DWORD PTR _this$[ebp], ecx
	mov	eax, DWORD PTR _tr$[ebp]
	mov	DWORD PTR [eax], 0
	pop	edi
	pop	esi
	pop	ebx
	mov	esp, ebp
	pop	ebp
	ret	24					; 00000018H
?SweepTest@CPhysicNull@@UAEXPAVCBaseEntity@@ABVVector@@111PAUtrace_s@@@Z ENDP ; CPhysicNull::SweepTest
_TEXT	ENDS
; Function compile flags: /Odtp /ZI
; File d:\!diffusion 2020\source code 2022\client-server\server\world.cpp
;	COMDAT ?MoveKinematic@CPhysicNull@@UAEXPAVCBaseEntity@@@Z
_TEXT	SEGMENT
_this$ = -4						; size = 4
_pEntity$ = 8						; size = 4
?MoveKinematic@CPhysicNull@@UAEXPAVCBaseEntity@@@Z PROC	; CPhysicNull::MoveKinematic, COMDAT
; _this$ = ecx

; 94   : 	virtual void	MoveKinematic( CBaseEntity *pEntity ) {}

	push	ebp
	mov	ebp, esp
	sub	esp, 68					; 00000044H
	push	ebx
	push	esi
	push	edi
	mov	DWORD PTR _this$[ebp], ecx
	pop	edi
	pop	esi
	pop	ebx
	mov	esp, ebp
	pop	ebp
	ret	4
?MoveKinematic@CPhysicNull@@UAEXPAVCBaseEntity@@@Z ENDP	; CPhysicNull::MoveKinematic
_TEXT	ENDS
; Function compile flags: /Odtp /ZI
; File d:\!diffusion 2020\source code 2022\client-server\server\world.cpp
;	COMDAT ?MoveCharacter@CPhysicNull@@UAEXPAVCBaseEntity@@@Z
_TEXT	SEGMENT
_this$ = -4						; size = 4
_pEntity$ = 8						; size = 4
?MoveCharacter@CPhysicNull@@UAEXPAVCBaseEntity@@@Z PROC	; CPhysicNull::MoveCharacter, COMDAT
; _this$ = ecx

; 93   : 	virtual void	MoveCharacter( CBaseEntity *pEntity ) {}

	push	ebp
	mov	ebp, esp
	sub	esp, 68					; 00000044H
	push	ebx
	push	esi
	push	edi
	mov	DWORD PTR _this$[ebp], ecx
	pop	edi
	pop	esi
	pop	ebx
	mov	esp, ebp
	pop	ebp
	ret	4
?MoveCharacter@CPhysicNull@@UAEXPAVCBaseEntity@@@Z ENDP	; CPhysicNull::MoveCharacter
_TEXT	ENDS
; Function compile flags: /Odtp /ZI
; File d:\!diffusion 2020\source code 2022\client-server\server\world.cpp
;	COMDAT ?TeleportActor@CPhysicNull@@UAEXPAVCBaseEntity@@@Z
_TEXT	SEGMENT
_this$ = -4						; size = 4
_pEntity$ = 8						; size = 4
?TeleportActor@CPhysicNull@@UAEXPAVCBaseEntity@@@Z PROC	; CPhysicNull::TeleportActor, COMDAT
; _this$ = ecx

; 92   : 	virtual void	TeleportActor( CBaseEntity *pEntity ) {}

	push	ebp
	mov	ebp, esp
	sub	esp, 68					; 00000044H
	push	ebx
	push	esi
	push	edi
	mov	DWORD PTR _this$[ebp], ecx
	pop	edi
	pop	esi
	pop	ebx
	mov	esp, ebp
	pop	ebp
	ret	4
?TeleportActor@CPhysicNull@@UAEXPAVCBaseEntity@@@Z ENDP	; CPhysicNull::TeleportActor
_TEXT	ENDS
; Function compile flags: /Odtp /ZI
; File d:\!diffusion 2020\source code 2022\client-server\server\world.cpp
;	COMDAT ?TeleportCharacter@CPhysicNull@@UAEXPAVCBaseEntity@@@Z
_TEXT	SEGMENT
_this$ = -4						; size = 4
_pEntity$ = 8						; size = 4
?TeleportCharacter@CPhysicNull@@UAEXPAVCBaseEntity@@@Z PROC ; CPhysicNull::TeleportCharacter, COMDAT
; _this$ = ecx

; 91   : 	virtual void	TeleportCharacter( CBaseEntity *pEntity ) {}

	push	ebp
	mov	ebp, esp
	sub	esp, 68					; 00000044H
	push	ebx
	push	esi
	push	edi
	mov	DWORD PTR _this$[ebp], ecx
	pop	edi
	pop	esi
	pop	ebx
	mov	esp, ebp
	pop	ebp
	ret	4
?TeleportCharacter@CPhysicNull@@UAEXPAVCBaseEntity@@@Z ENDP ; CPhysicNull::TeleportCharacter
_TEXT	ENDS
; Function compile flags: /Odtp /ZI
; File d:\!diffusion 2020\source code 2022\client-server\server\world.cpp
;	COMDAT ?FreeAllBodies@CPhysicNull@@UAEXXZ
_TEXT	SEGMENT
_this$ = -4						; size = 4
?FreeAllBodies@CPhysicNull@@UAEXXZ PROC			; CPhysicNull::FreeAllBodies, COMDAT
; _this$ = ecx

; 90   : 	virtual void	FreeAllBodies( void ) {}

	push	ebp
	mov	ebp, esp
	sub	esp, 68					; 00000044H
	push	ebx
	push	esi
	push	edi
	mov	DWORD PTR _this$[ebp], ecx
	pop	edi
	pop	esi
	pop	ebx
	mov	esp, ebp
	pop	ebp
	ret	0
?FreeAllBodies@CPhysicNull@@UAEXXZ ENDP			; CPhysicNull::FreeAllBodies
_TEXT	ENDS
; Function compile flags: /Odtp /ZI
; File d:\!diffusion 2020\source code 2022\client-server\server\world.cpp
;	COMDAT ?DrawPSpeeds@CPhysicNull@@UAEXXZ
_TEXT	SEGMENT
_this$ = -4						; size = 4
?DrawPSpeeds@CPhysicNull@@UAEXXZ PROC			; CPhysicNull::DrawPSpeeds, COMDAT
; _this$ = ecx

; 89   : 	virtual void	DrawPSpeeds( void ) {}

	push	ebp
	mov	ebp, esp
	sub	esp, 68					; 00000044H
	push	ebx
	push	esi
	push	edi
	mov	DWORD PTR _this$[ebp], ecx
	pop	edi
	pop	esi
	pop	ebx
	mov	esp, ebp
	pop	ebp
	ret	0
?DrawPSpeeds@CPhysicNull@@UAEXXZ ENDP			; CPhysicNull::DrawPSpeeds
_TEXT	ENDS
; Function compile flags: /Odtp /ZI
; File d:\!diffusion 2020\source code 2022\client-server\server\world.cpp
;	COMDAT ?DebugDraw@CPhysicNull@@UAEXXZ
_TEXT	SEGMENT
_this$ = -4						; size = 4
?DebugDraw@CPhysicNull@@UAEXXZ PROC			; CPhysicNull::DebugDraw, COMDAT
; _this$ = ecx

; 88   : 	virtual void	DebugDraw( void ) {}

	push	ebp
	mov	ebp, esp
	sub	esp, 68					; 00000044H
	push	ebx
	push	esi
	push	edi
	mov	DWORD PTR _this$[ebp], ecx
	pop	edi
	pop	esi
	pop	ebx
	mov	esp, ebp
	pop	ebp
	ret	0
?DebugDraw@CPhysicNull@@UAEXXZ ENDP			; CPhysicNull::DebugDraw
_TEXT	ENDS
; Function compile flags: /Odtp /ZI
; File d:\!diffusion 2020\source code 2022\client-server\server\world.cpp
;	COMDAT ?SetupWorld@CPhysicNull@@UAEXXZ
_TEXT	SEGMENT
_this$ = -4						; size = 4
?SetupWorld@CPhysicNull@@UAEXXZ PROC			; CPhysicNull::SetupWorld, COMDAT
; _this$ = ecx

; 87   : 	virtual void	SetupWorld( void ) {}

	push	ebp
	mov	ebp, esp
	sub	esp, 68					; 00000044H
	push	ebx
	push	esi
	push	edi
	mov	DWORD PTR _this$[ebp], ecx
	pop	edi
	pop	esi
	pop	ebx
	mov	esp, ebp
	pop	ebp
	ret	0
?SetupWorld@CPhysicNull@@UAEXXZ ENDP			; CPhysicNull::SetupWorld
_TEXT	ENDS
; Function compile flags: /Odtp /ZI
; File d:\!diffusion 2020\source code 2022\client-server\server\world.cpp
;	COMDAT ?UpdateActorPos@CPhysicNull@@UAE_NPAVCBaseEntity@@@Z
_TEXT	SEGMENT
_this$ = -4						; size = 4
_pEntity$ = 8						; size = 4
?UpdateActorPos@CPhysicNull@@UAE_NPAVCBaseEntity@@@Z PROC ; CPhysicNull::UpdateActorPos, COMDAT
; _this$ = ecx

; 86   : 	virtual bool	UpdateActorPos( CBaseEntity *pEntity ) { return false; };

	push	ebp
	mov	ebp, esp
	sub	esp, 68					; 00000044H
	push	ebx
	push	esi
	push	edi
	mov	DWORD PTR _this$[ebp], ecx
	xor	al, al
	pop	edi
	pop	esi
	pop	ebx
	mov	esp, ebp
	pop	ebp
	ret	4
?UpdateActorPos@CPhysicNull@@UAE_NPAVCBaseEntity@@@Z ENDP ; CPhysicNull::UpdateActorPos
_TEXT	ENDS
; Function compile flags: /Odtp /ZI
; File d:\!diffusion 2020\source code 2022\client-server\server\world.cpp
;	COMDAT ?UpdateEntityAABB@CPhysicNull@@UAEXPAVCBaseEntity@@@Z
_TEXT	SEGMENT
_this$ = -4						; size = 4
_pEntity$ = 8						; size = 4
?UpdateEntityAABB@CPhysicNull@@UAEXPAVCBaseEntity@@@Z PROC ; CPhysicNull::UpdateEntityAABB, COMDAT
; _this$ = ecx

; 85   : 	virtual void	UpdateEntityAABB( CBaseEntity *pEntity ) {}

	push	ebp
	mov	ebp, esp
	sub	esp, 68					; 00000044H
	push	ebx
	push	esi
	push	edi
	mov	DWORD PTR _this$[ebp], ecx
	pop	edi
	pop	esi
	pop	ebx
	mov	esp, ebp
	pop	ebp
	ret	4
?UpdateEntityAABB@CPhysicNull@@UAEXPAVCBaseEntity@@@Z ENDP ; CPhysicNull::UpdateEntityAABB
_TEXT	ENDS
; Function compile flags: /Odtp /ZI
; File d:\!diffusion 2020\source code 2022\client-server\server\world.cpp
;	COMDAT ?UpdateEntityPos@CPhysicNull@@UAE_NPAVCBaseEntity@@@Z
_TEXT	SEGMENT
_this$ = -4						; size = 4
_pEntity$ = 8						; size = 4
?UpdateEntityPos@CPhysicNull@@UAE_NPAVCBaseEntity@@@Z PROC ; CPhysicNull::UpdateEntityPos, COMDAT
; _this$ = ecx

; 84   : 	virtual bool	UpdateEntityPos( CBaseEntity *pEntity ) { return false; }

	push	ebp
	mov	ebp, esp
	sub	esp, 68					; 00000044H
	push	ebx
	push	esi
	push	edi
	mov	DWORD PTR _this$[ebp], ecx
	xor	al, al
	pop	edi
	pop	esi
	pop	ebx
	mov	esp, ebp
	pop	ebp
	ret	4
?UpdateEntityPos@CPhysicNull@@UAE_NPAVCBaseEntity@@@Z ENDP ; CPhysicNull::UpdateEntityPos
_TEXT	ENDS
; Function compile flags: /Odtp /ZI
; File d:\!diffusion 2020\source code 2022\client-server\server\world.cpp
;	COMDAT ?BuildCollisionTree@CPhysicNull@@UAEHPAD@Z
_TEXT	SEGMENT
_this$ = -4						; size = 4
_szMapName$ = 8						; size = 4
?BuildCollisionTree@CPhysicNull@@UAEHPAD@Z PROC		; CPhysicNull::BuildCollisionTree, COMDAT
; _this$ = ecx

; 83   : 	virtual int	BuildCollisionTree( char *szMapName ) { return 0; }

	push	ebp
	mov	ebp, esp
	sub	esp, 68					; 00000044H
	push	ebx
	push	esi
	push	edi
	mov	DWORD PTR _this$[ebp], ecx
	xor	eax, eax
	pop	edi
	pop	esi
	pop	ebx
	mov	esp, ebp
	pop	ebp
	ret	4
?BuildCollisionTree@CPhysicNull@@UAEHPAD@Z ENDP		; CPhysicNull::BuildCollisionTree
_TEXT	ENDS
; Function compile flags: /Odtp /ZI
; File d:\!diffusion 2020\source code 2022\client-server\server\world.cpp
;	COMDAT ?CheckBINFile@CPhysicNull@@UAEHPAD@Z
_TEXT	SEGMENT
_this$ = -4						; size = 4
_szMapName$ = 8						; size = 4
?CheckBINFile@CPhysicNull@@UAEHPAD@Z PROC		; CPhysicNull::CheckBINFile, COMDAT
; _this$ = ecx

; 82   : 	virtual int	CheckBINFile( char *szMapName ) { return 0; }

	push	ebp
	mov	ebp, esp
	sub	esp, 68					; 00000044H
	push	ebx
	push	esi
	push	edi
	mov	DWORD PTR _this$[ebp], ecx
	xor	eax, eax
	pop	edi
	pop	esi
	pop	ebx
	mov	esp, ebp
	pop	ebp
	ret	4
?CheckBINFile@CPhysicNull@@UAEHPAD@Z ENDP		; CPhysicNull::CheckBINFile
_TEXT	ENDS
; Function compile flags: /Odtp /ZI
; File d:\!diffusion 2020\source code 2022\client-server\server\world.cpp
;	COMDAT ?FLoadTree@CPhysicNull@@UAEHPAD@Z
_TEXT	SEGMENT
_this$ = -4						; size = 4
_szMapName$ = 8						; size = 4
?FLoadTree@CPhysicNull@@UAEHPAD@Z PROC			; CPhysicNull::FLoadTree, COMDAT
; _this$ = ecx

; 81   : 	virtual int	FLoadTree( char *szMapName ) { return 0; }

	push	ebp
	mov	ebp, esp
	sub	esp, 68					; 00000044H
	push	ebx
	push	esi
	push	edi
	mov	DWORD PTR _this$[ebp], ecx
	xor	eax, eax
	pop	edi
	pop	esi
	pop	ebx
	mov	esp, ebp
	pop	ebp
	ret	4
?FLoadTree@CPhysicNull@@UAEHPAD@Z ENDP			; CPhysicNull::FLoadTree
_TEXT	ENDS
; Function compile flags: /Odtp /ZI
; File d:\!diffusion 2020\source code 2022\client-server\server\world.cpp
;	COMDAT ?UpdateVehicle@CPhysicNull@@UAEXPAVCBaseEntity@@@Z
_TEXT	SEGMENT
_this$ = -4						; size = 4
_pObject$ = 8						; size = 4
?UpdateVehicle@CPhysicNull@@UAEXPAVCBaseEntity@@@Z PROC	; CPhysicNull::UpdateVehicle, COMDAT
; _this$ = ecx

; 80   : 	virtual void	UpdateVehicle( CBaseEntity *pObject ) {}

	push	ebp
	mov	ebp, esp
	sub	esp, 68					; 00000044H
	push	ebx
	push	esi
	push	edi
	mov	DWORD PTR _this$[ebp], ecx
	pop	edi
	pop	esi
	pop	ebx
	mov	esp, ebp
	pop	ebp
	ret	4
?UpdateVehicle@CPhysicNull@@UAEXPAVCBaseEntity@@@Z ENDP	; CPhysicNull::UpdateVehicle
_TEXT	ENDS
; Function compile flags: /Odtp /ZI
; File d:\!diffusion 2020\source code 2022\client-server\server\world.cpp
;	COMDAT ?MakeKinematic@CPhysicNull@@UAEXPAVCBaseEntity@@H@Z
_TEXT	SEGMENT
_this$ = -4						; size = 4
_pEntity$ = 8						; size = 4
_fEnable$ = 12						; size = 4
?MakeKinematic@CPhysicNull@@UAEXPAVCBaseEntity@@H@Z PROC ; CPhysicNull::MakeKinematic, COMDAT
; _this$ = ecx

; 79   : 	virtual void	MakeKinematic( CBaseEntity *pEntity, int fEnable ) {}

	push	ebp
	mov	ebp, esp
	sub	esp, 68					; 00000044H
	push	ebx
	push	esi
	push	edi
	mov	DWORD PTR _this$[ebp], ecx
	pop	edi
	pop	esi
	pop	ebx
	mov	esp, ebp
	pop	ebp
	ret	8
?MakeKinematic@CPhysicNull@@UAEXPAVCBaseEntity@@H@Z ENDP ; CPhysicNull::MakeKinematic
_TEXT	ENDS
; Function compile flags: /Odtp /ZI
; File d:\!diffusion 2020\source code 2022\client-server\server\world.cpp
;	COMDAT ?EnableCollision@CPhysicNull@@UAEXPAVCBaseEntity@@H@Z
_TEXT	SEGMENT
_this$ = -4						; size = 4
_pEntity$ = 8						; size = 4
_fEnable$ = 12						; size = 4
?EnableCollision@CPhysicNull@@UAEXPAVCBaseEntity@@H@Z PROC ; CPhysicNull::EnableCollision, COMDAT
; _this$ = ecx

; 78   : 	virtual void	EnableCollision( CBaseEntity *pEntity, int fEnable ) {}

	push	ebp
	mov	ebp, esp
	sub	esp, 68					; 00000044H
	push	ebx
	push	esi
	push	edi
	mov	DWORD PTR _this$[ebp], ecx
	pop	edi
	pop	esi
	pop	ebx
	mov	esp, ebp
	pop	ebp
	ret	8
?EnableCollision@CPhysicNull@@UAEXPAVCBaseEntity@@H@Z ENDP ; CPhysicNull::EnableCollision
_TEXT	ENDS
; Function compile flags: /Odtp /ZI
; File d:\!diffusion 2020\source code 2022\client-server\server\world.cpp
;	COMDAT ?AddForce@CPhysicNull@@UAEXPAVCBaseEntity@@ABVVector@@@Z
_TEXT	SEGMENT
_this$ = -4						; size = 4
_pEntity$ = 8						; size = 4
_force$ = 12						; size = 4
?AddForce@CPhysicNull@@UAEXPAVCBaseEntity@@ABVVector@@@Z PROC ; CPhysicNull::AddForce, COMDAT
; _this$ = ecx

; 77   : 	virtual void	AddForce( CBaseEntity *pEntity, const Vector &force ) {}

	push	ebp
	mov	ebp, esp
	sub	esp, 68					; 00000044H
	push	ebx
	push	esi
	push	edi
	mov	DWORD PTR _this$[ebp], ecx
	pop	edi
	pop	esi
	pop	ebx
	mov	esp, ebp
	pop	ebp
	ret	8
?AddForce@CPhysicNull@@UAEXPAVCBaseEntity@@ABVVector@@@Z ENDP ; CPhysicNull::AddForce
_TEXT	ENDS
; Function compile flags: /Odtp /ZI
; File d:\!diffusion 2020\source code 2022\client-server\server\world.cpp
;	COMDAT ?AddImpulse@CPhysicNull@@UAEXPAVCBaseEntity@@ABVVector@@1M@Z
_TEXT	SEGMENT
_this$ = -4						; size = 4
_pEntity$ = 8						; size = 4
_impulse$ = 12						; size = 4
_position$ = 16						; size = 4
_factor$ = 20						; size = 4
?AddImpulse@CPhysicNull@@UAEXPAVCBaseEntity@@ABVVector@@1M@Z PROC ; CPhysicNull::AddImpulse, COMDAT
; _this$ = ecx

; 76   : 	virtual void	AddImpulse( CBaseEntity *pEntity, const Vector &impulse, const Vector &position, float factor ) {}

	push	ebp
	mov	ebp, esp
	sub	esp, 68					; 00000044H
	push	ebx
	push	esi
	push	edi
	mov	DWORD PTR _this$[ebp], ecx
	pop	edi
	pop	esi
	pop	ebx
	mov	esp, ebp
	pop	ebp
	ret	16					; 00000010H
?AddImpulse@CPhysicNull@@UAEXPAVCBaseEntity@@ABVVector@@1M@Z ENDP ; CPhysicNull::AddImpulse
_TEXT	ENDS
; Function compile flags: /Odtp /ZI
; File d:\!diffusion 2020\source code 2022\client-server\server\world.cpp
;	COMDAT ?SetLinearMomentum@CPhysicNull@@UAEXPAVCBaseEntity@@ABVVector@@@Z
_TEXT	SEGMENT
_this$ = -4						; size = 4
_pEntity$ = 8						; size = 4
_velocity$ = 12						; size = 4
?SetLinearMomentum@CPhysicNull@@UAEXPAVCBaseEntity@@ABVVector@@@Z PROC ; CPhysicNull::SetLinearMomentum, COMDAT
; _this$ = ecx

; 75   : 	virtual void	SetLinearMomentum( CBaseEntity *pEntity, const Vector &velocity ) {}

	push	ebp
	mov	ebp, esp
	sub	esp, 68					; 00000044H
	push	ebx
	push	esi
	push	edi
	mov	DWORD PTR _this$[ebp], ecx
	pop	edi
	pop	esi
	pop	ebx
	mov	esp, ebp
	pop	ebp
	ret	8
?SetLinearMomentum@CPhysicNull@@UAEXPAVCBaseEntity@@ABVVector@@@Z ENDP ; CPhysicNull::SetLinearMomentum
_TEXT	ENDS
; Function compile flags: /Odtp /ZI
; File d:\!diffusion 2020\source code 2022\client-server\server\world.cpp
;	COMDAT ?RotateObject@CPhysicNull@@UAEXPAVCBaseEntity@@ABVVector@@@Z
_TEXT	SEGMENT
_this$ = -4						; size = 4
_pEntity$ = 8						; size = 4
_finalAngle$ = 12					; size = 4
?RotateObject@CPhysicNull@@UAEXPAVCBaseEntity@@ABVVector@@@Z PROC ; CPhysicNull::RotateObject, COMDAT
; _this$ = ecx

; 74   : 	virtual void	RotateObject( CBaseEntity *pEntity, const Vector &finalAngle ) {}

	push	ebp
	mov	ebp, esp
	sub	esp, 68					; 00000044H
	push	ebx
	push	esi
	push	edi
	mov	DWORD PTR _this$[ebp], ecx
	pop	edi
	pop	esi
	pop	ebx
	mov	esp, ebp
	pop	ebp
	ret	8
?RotateObject@CPhysicNull@@UAEXPAVCBaseEntity@@ABVVector@@@Z ENDP ; CPhysicNull::RotateObject
_TEXT	ENDS
; Function compile flags: /Odtp /ZI
; File d:\!diffusion 2020\source code 2022\client-server\server\world.cpp
;	COMDAT ?MoveObject@CPhysicNull@@UAEXPAVCBaseEntity@@ABVVector@@@Z
_TEXT	SEGMENT
_this$ = -4						; size = 4
_pEntity$ = 8						; size = 4
_finalPos$ = 12						; size = 4
?MoveObject@CPhysicNull@@UAEXPAVCBaseEntity@@ABVVector@@@Z PROC ; CPhysicNull::MoveObject, COMDAT
; _this$ = ecx

; 73   : 	virtual void	MoveObject( CBaseEntity *pEntity, const Vector &finalPos ) {}

	push	ebp
	mov	ebp, esp
	sub	esp, 68					; 00000044H
	push	ebx
	push	esi
	push	edi
	mov	DWORD PTR _this$[ebp], ecx
	pop	edi
	pop	esi
	pop	ebx
	mov	esp, ebp
	pop	ebp
	ret	8
?MoveObject@CPhysicNull@@UAEXPAVCBaseEntity@@ABVVector@@@Z ENDP ; CPhysicNull::MoveObject
_TEXT	ENDS
; Function compile flags: /Odtp /ZI
; File d:\!diffusion 2020\source code 2022\client-server\server\world.cpp
;	COMDAT ?SetAvelocity@CPhysicNull@@UAEXPAVCBaseEntity@@ABVVector@@@Z
_TEXT	SEGMENT
_this$ = -4						; size = 4
_pEntity$ = 8						; size = 4
_velocity$ = 12						; size = 4
?SetAvelocity@CPhysicNull@@UAEXPAVCBaseEntity@@ABVVector@@@Z PROC ; CPhysicNull::SetAvelocity, COMDAT
; _this$ = ecx

; 72   : 	virtual void	SetAvelocity( CBaseEntity *pEntity, const Vector &velocity ) {}

	push	ebp
	mov	ebp, esp
	sub	esp, 68					; 00000044H
	push	ebx
	push	esi
	push	edi
	mov	DWORD PTR _this$[ebp], ecx
	pop	edi
	pop	esi
	pop	ebx
	mov	esp, ebp
	pop	ebp
	ret	8
?SetAvelocity@CPhysicNull@@UAEXPAVCBaseEntity@@ABVVector@@@Z ENDP ; CPhysicNull::SetAvelocity
_TEXT	ENDS
; Function compile flags: /Odtp /ZI
; File d:\!diffusion 2020\source code 2022\client-server\server\world.cpp
;	COMDAT ?SetVelocity@CPhysicNull@@UAEXPAVCBaseEntity@@ABVVector@@@Z
_TEXT	SEGMENT
_this$ = -4						; size = 4
_pEntity$ = 8						; size = 4
_velocity$ = 12						; size = 4
?SetVelocity@CPhysicNull@@UAEXPAVCBaseEntity@@ABVVector@@@Z PROC ; CPhysicNull::SetVelocity, COMDAT
; _this$ = ecx

; 71   : 	virtual void	SetVelocity( CBaseEntity *pEntity, const Vector &velocity ) {}

	push	ebp
	mov	ebp, esp
	sub	esp, 68					; 00000044H
	push	ebx
	push	esi
	push	edi
	mov	DWORD PTR _this$[ebp], ecx
	pop	edi
	pop	esi
	pop	ebx
	mov	esp, ebp
	pop	ebp
	ret	8
?SetVelocity@CPhysicNull@@UAEXPAVCBaseEntity@@ABVVector@@@Z ENDP ; CPhysicNull::SetVelocity
_TEXT	ENDS
; Function compile flags: /Odtp /ZI
; File d:\!diffusion 2020\source code 2022\client-server\server\world.cpp
;	COMDAT ?SetAngles@CPhysicNull@@UAEXPAVCBaseEntity@@ABVVector@@@Z
_TEXT	SEGMENT
_this$ = -4						; size = 4
_pEntity$ = 8						; size = 4
_angles$ = 12						; size = 4
?SetAngles@CPhysicNull@@UAEXPAVCBaseEntity@@ABVVector@@@Z PROC ; CPhysicNull::SetAngles, COMDAT
; _this$ = ecx

; 70   : 	virtual void	SetAngles( CBaseEntity *pEntity, const Vector &angles ) {}

	push	ebp
	mov	ebp, esp
	sub	esp, 68					; 00000044H
	push	ebx
	push	esi
	push	edi
	mov	DWORD PTR _this$[ebp], ecx
	pop	edi
	pop	esi
	pop	ebx
	mov	esp, ebp
	pop	ebp
	ret	8
?SetAngles@CPhysicNull@@UAEXPAVCBaseEntity@@ABVVector@@@Z ENDP ; CPhysicNull::SetAngles
_TEXT	ENDS
; Function compile flags: /Odtp /ZI
; File d:\!diffusion 2020\source code 2022\client-server\server\world.cpp
;	COMDAT ?SetOrigin@CPhysicNull@@UAEXPAVCBaseEntity@@ABVVector@@@Z
_TEXT	SEGMENT
_this$ = -4						; size = 4
_pEntity$ = 8						; size = 4
_origin$ = 12						; size = 4
?SetOrigin@CPhysicNull@@UAEXPAVCBaseEntity@@ABVVector@@@Z PROC ; CPhysicNull::SetOrigin, COMDAT
; _this$ = ecx

; 69   : 	virtual void	SetOrigin( CBaseEntity *pEntity, const Vector &origin ) {}

	push	ebp
	mov	ebp, esp
	sub	esp, 68					; 00000044H
	push	ebx
	push	esi
	push	edi
	mov	DWORD PTR _this$[ebp], ecx
	pop	edi
	pop	esi
	pop	ebx
	mov	esp, ebp
	pop	ebp
	ret	8
?SetOrigin@CPhysicNull@@UAEXPAVCBaseEntity@@ABVVector@@@Z ENDP ; CPhysicNull::SetOrigin
_TEXT	ENDS
; Function compile flags: /Odtp /ZI
; File d:\!diffusion 2020\source code 2022\client-server\server\world.cpp
;	COMDAT ?SaveBody@CPhysicNull@@UAEXPAVCBaseEntity@@@Z
_TEXT	SEGMENT
_this$ = -4						; size = 4
_pObject$ = 8						; size = 4
?SaveBody@CPhysicNull@@UAEXPAVCBaseEntity@@@Z PROC	; CPhysicNull::SaveBody, COMDAT
; _this$ = ecx

; 68   : 	virtual void	SaveBody( CBaseEntity *pObject ) {}

	push	ebp
	mov	ebp, esp
	sub	esp, 68					; 00000044H
	push	ebx
	push	esi
	push	edi
	mov	DWORD PTR _this$[ebp], ecx
	pop	edi
	pop	esi
	pop	ebx
	mov	esp, ebp
	pop	ebp
	ret	4
?SaveBody@CPhysicNull@@UAEXPAVCBaseEntity@@@Z ENDP	; CPhysicNull::SaveBody
_TEXT	ENDS
; Function compile flags: /Odtp /ZI
; File d:\!diffusion 2020\source code 2022\client-server\server\world.cpp
;	COMDAT ?RestoreBody@CPhysicNull@@UAEPAXPAVCBaseEntity@@@Z
_TEXT	SEGMENT
_this$ = -4						; size = 4
_pEntity$ = 8						; size = 4
?RestoreBody@CPhysicNull@@UAEPAXPAVCBaseEntity@@@Z PROC	; CPhysicNull::RestoreBody, COMDAT
; _this$ = ecx

; 67   : 	virtual void *RestoreBody( CBaseEntity *pEntity ) { return NULL; }

	push	ebp
	mov	ebp, esp
	sub	esp, 68					; 00000044H
	push	ebx
	push	esi
	push	edi
	mov	DWORD PTR _this$[ebp], ecx
	xor	eax, eax
	pop	edi
	pop	esi
	pop	ebx
	mov	esp, ebp
	pop	ebp
	ret	4
?RestoreBody@CPhysicNull@@UAEPAXPAVCBaseEntity@@@Z ENDP	; CPhysicNull::RestoreBody
_TEXT	ENDS
; Function compile flags: /Odtp /ZI
; File d:\!diffusion 2020\source code 2022\client-server\server\world.cpp
;	COMDAT ?CreateVehicle@CPhysicNull@@UAEPAXPAVCBaseEntity@@H@Z
_TEXT	SEGMENT
_this$ = -4						; size = 4
_pObject$ = 8						; size = 4
_scriptName$ = 12					; size = 4
?CreateVehicle@CPhysicNull@@UAEPAXPAVCBaseEntity@@H@Z PROC ; CPhysicNull::CreateVehicle, COMDAT
; _this$ = ecx

; 66   : 	virtual void *CreateVehicle( CBaseEntity *pObject, string_t scriptName = 0 ) { return NULL; }

	push	ebp
	mov	ebp, esp
	sub	esp, 68					; 00000044H
	push	ebx
	push	esi
	push	edi
	mov	DWORD PTR _this$[ebp], ecx
	xor	eax, eax
	pop	edi
	pop	esi
	pop	ebx
	mov	esp, ebp
	pop	ebp
	ret	8
?CreateVehicle@CPhysicNull@@UAEPAXPAVCBaseEntity@@H@Z ENDP ; CPhysicNull::CreateVehicle
_TEXT	ENDS
; Function compile flags: /Odtp /ZI
; File d:\!diffusion 2020\source code 2022\client-server\server\world.cpp
;	COMDAT ?CreateStaticBodyFromEntity@CPhysicNull@@UAEPAXPAVCBaseEntity@@@Z
_TEXT	SEGMENT
_this$ = -4						; size = 4
_pObject$ = 8						; size = 4
?CreateStaticBodyFromEntity@CPhysicNull@@UAEPAXPAVCBaseEntity@@@Z PROC ; CPhysicNull::CreateStaticBodyFromEntity, COMDAT
; _this$ = ecx

; 65   : 	virtual void *CreateStaticBodyFromEntity( CBaseEntity *pObject ) { return NULL; }

	push	ebp
	mov	ebp, esp
	sub	esp, 68					; 00000044H
	push	ebx
	push	esi
	push	edi
	mov	DWORD PTR _this$[ebp], ecx
	xor	eax, eax
	pop	edi
	pop	esi
	pop	ebx
	mov	esp, ebp
	pop	ebp
	ret	4
?CreateStaticBodyFromEntity@CPhysicNull@@UAEPAXPAVCBaseEntity@@@Z ENDP ; CPhysicNull::CreateStaticBodyFromEntity
_TEXT	ENDS
; Function compile flags: /Odtp /ZI
; File d:\!diffusion 2020\source code 2022\client-server\server\world.cpp
;	COMDAT ?CreateKinematicBodyFromEntity@CPhysicNull@@UAEPAXPAVCBaseEntity@@@Z
_TEXT	SEGMENT
_this$ = -4						; size = 4
_pEntity$ = 8						; size = 4
?CreateKinematicBodyFromEntity@CPhysicNull@@UAEPAXPAVCBaseEntity@@@Z PROC ; CPhysicNull::CreateKinematicBodyFromEntity, COMDAT
; _this$ = ecx

; 64   : 	virtual void *CreateKinematicBodyFromEntity( CBaseEntity *pEntity ) { return NULL; }

	push	ebp
	mov	ebp, esp
	sub	esp, 68					; 00000044H
	push	ebx
	push	esi
	push	edi
	mov	DWORD PTR _this$[ebp], ecx
	xor	eax, eax
	pop	edi
	pop	esi
	pop	ebx
	mov	esp, ebp
	pop	ebp
	ret	4
?CreateKinematicBodyFromEntity@CPhysicNull@@UAEPAXPAVCBaseEntity@@@Z ENDP ; CPhysicNull::CreateKinematicBodyFromEntity
_TEXT	ENDS
; Function compile flags: /Odtp /ZI
; File d:\!diffusion 2020\source code 2022\client-server\server\world.cpp
;	COMDAT ?CreateBoxFromEntity@CPhysicNull@@UAEPAXPAVCBaseEntity@@@Z
_TEXT	SEGMENT
_this$ = -4						; size = 4
_pObject$ = 8						; size = 4
?CreateBoxFromEntity@CPhysicNull@@UAEPAXPAVCBaseEntity@@@Z PROC ; CPhysicNull::CreateBoxFromEntity, COMDAT
; _this$ = ecx

; 63   : 	virtual void *CreateBoxFromEntity( CBaseEntity *pObject ) { return NULL; }

	push	ebp
	mov	ebp, esp
	sub	esp, 68					; 00000044H
	push	ebx
	push	esi
	push	edi
	mov	DWORD PTR _this$[ebp], ecx
	xor	eax, eax
	pop	edi
	pop	esi
	pop	ebx
	mov	esp, ebp
	pop	ebp
	ret	4
?CreateBoxFromEntity@CPhysicNull@@UAEPAXPAVCBaseEntity@@@Z ENDP ; CPhysicNull::CreateBoxFromEntity
_TEXT	ENDS
; Function compile flags: /Odtp /ZI
; File d:\!diffusion 2020\source code 2022\client-server\server\world.cpp
;	COMDAT ?CreateBodyFromEntity@CPhysicNull@@UAEPAXPAVCBaseEntity@@@Z
_TEXT	SEGMENT
_this$ = -4						; size = 4
_pEntity$ = 8						; size = 4
?CreateBodyFromEntity@CPhysicNull@@UAEPAXPAVCBaseEntity@@@Z PROC ; CPhysicNull::CreateBodyFromEntity, COMDAT
; _this$ = ecx

; 62   : 	virtual void *CreateBodyFromEntity( CBaseEntity *pEntity ) { return NULL; }

	push	ebp
	mov	ebp, esp
	sub	esp, 68					; 00000044H
	push	ebx
	push	esi
	push	edi
	mov	DWORD PTR _this$[ebp], ecx
	xor	eax, eax
	pop	edi
	pop	esi
	pop	ebx
	mov	esp, ebp
	pop	ebp
	ret	4
?CreateBodyFromEntity@CPhysicNull@@UAEPAXPAVCBaseEntity@@@Z ENDP ; CPhysicNull::CreateBodyFromEntity
_TEXT	ENDS
; Function compile flags: /Odtp /ZI
; File d:\!diffusion 2020\source code 2022\client-server\server\world.cpp
;	COMDAT ?RemoveBody@CPhysicNull@@UAEXPBX@Z
_TEXT	SEGMENT
_this$ = -4						; size = 4
_pBody$ = 8						; size = 4
?RemoveBody@CPhysicNull@@UAEXPBX@Z PROC			; CPhysicNull::RemoveBody, COMDAT
; _this$ = ecx

; 61   : 	virtual void	RemoveBody( const void *pBody ) {}

	push	ebp
	mov	ebp, esp
	sub	esp, 68					; 00000044H
	push	ebx
	push	esi
	push	edi
	mov	DWORD PTR _this$[ebp], ecx
	pop	edi
	pop	esi
	pop	ebx
	mov	esp, ebp
	pop	ebp
	ret	4
?RemoveBody@CPhysicNull@@UAEXPBX@Z ENDP			; CPhysicNull::RemoveBody
_TEXT	ENDS
; Function compile flags: /Odtp /ZI
; File d:\!diffusion 2020\source code 2022\client-server\server\world.cpp
;	COMDAT ?RemoveBody@CPhysicNull@@UAEXPAUedict_s@@@Z
_TEXT	SEGMENT
_this$ = -4						; size = 4
_pEdict$ = 8						; size = 4
?RemoveBody@CPhysicNull@@UAEXPAUedict_s@@@Z PROC	; CPhysicNull::RemoveBody, COMDAT
; _this$ = ecx

; 60   : 	virtual void	RemoveBody( struct edict_s *pEdict ) {}

	push	ebp
	mov	ebp, esp
	sub	esp, 68					; 00000044H
	push	ebx
	push	esi
	push	edi
	mov	DWORD PTR _this$[ebp], ecx
	pop	edi
	pop	esi
	pop	ebx
	mov	esp, ebp
	pop	ebp
	ret	4
?RemoveBody@CPhysicNull@@UAEXPAUedict_s@@@Z ENDP	; CPhysicNull::RemoveBody
_TEXT	ENDS
; Function compile flags: /Odtp /ZI
; File d:\!diffusion 2020\source code 2022\client-server\server\world.cpp
;	COMDAT ?EndFrame@CPhysicNull@@UAEXXZ
_TEXT	SEGMENT
_this$ = -4						; size = 4
?EndFrame@CPhysicNull@@UAEXXZ PROC			; CPhysicNull::EndFrame, COMDAT
; _this$ = ecx

; 59   : 	virtual void	EndFrame( void ) {}

	push	ebp
	mov	ebp, esp
	sub	esp, 68					; 00000044H
	push	ebx
	push	esi
	push	edi
	mov	DWORD PTR _this$[ebp], ecx
	pop	edi
	pop	esi
	pop	ebx
	mov	esp, ebp
	pop	ebp
	ret	0
?EndFrame@CPhysicNull@@UAEXXZ ENDP			; CPhysicNull::EndFrame
_TEXT	ENDS
; Function compile flags: /Odtp /ZI
; File d:\!diffusion 2020\source code 2022\client-server\server\world.cpp
;	COMDAT ?Update@CPhysicNull@@UAEXM@Z
_TEXT	SEGMENT
_this$ = -4						; size = 4
_flTime$ = 8						; size = 4
?Update@CPhysicNull@@UAEXM@Z PROC			; CPhysicNull::Update, COMDAT
; _this$ = ecx

; 58   : 	virtual void	Update( float flTime ) {}

	push	ebp
	mov	ebp, esp
	sub	esp, 68					; 00000044H
	push	ebx
	push	esi
	push	edi
	mov	DWORD PTR _this$[ebp], ecx
	pop	edi
	pop	esi
	pop	ebx
	mov	esp, ebp
	pop	ebp
	ret	4
?Update@CPhysicNull@@UAEXM@Z ENDP			; CPhysicNull::Update
_TEXT	ENDS
; Function compile flags: /Odtp /ZI
; File d:\!diffusion 2020\source code 2022\client-server\server\world.cpp
;	COMDAT ?GetUtilLibrary@CPhysicNull@@UAEPAXXZ
_TEXT	SEGMENT
_this$ = -4						; size = 4
?GetUtilLibrary@CPhysicNull@@UAEPAXXZ PROC		; CPhysicNull::GetUtilLibrary, COMDAT
; _this$ = ecx

; 57   : 	virtual void *GetUtilLibrary( void ) { return NULL; }

	push	ebp
	mov	ebp, esp
	sub	esp, 68					; 00000044H
	push	ebx
	push	esi
	push	edi
	mov	DWORD PTR _this$[ebp], ecx
	xor	eax, eax
	pop	edi
	pop	esi
	pop	ebx
	mov	esp, ebp
	pop	ebp
	ret	0
?GetUtilLibrary@CPhysicNull@@UAEPAXXZ ENDP		; CPhysicNull::GetUtilLibrary
_TEXT	ENDS
; Function compile flags: /Odtp /ZI
; File d:\!diffusion 2020\source code 2022\client-server\server\world.cpp
;	COMDAT ?Initialized@CPhysicNull@@UAE_NXZ
_TEXT	SEGMENT
_this$ = -4						; size = 4
?Initialized@CPhysicNull@@UAE_NXZ PROC			; CPhysicNull::Initialized, COMDAT
; _this$ = ecx

; 56   : 	virtual bool	Initialized( void ) { return false; }

	push	ebp
	mov	ebp, esp
	sub	esp, 68					; 00000044H
	push	ebx
	push	esi
	push	edi
	mov	DWORD PTR _this$[ebp], ecx
	xor	al, al
	pop	edi
	pop	esi
	pop	ebx
	mov	esp, ebp
	pop	ebp
	ret	0
?Initialized@CPhysicNull@@UAE_NXZ ENDP			; CPhysicNull::Initialized
_TEXT	ENDS
; Function compile flags: /Odtp /ZI
; File d:\!diffusion 2020\source code 2022\client-server\server\world.cpp
;	COMDAT ?FreePhysic@CPhysicNull@@UAEXXZ
_TEXT	SEGMENT
_this$ = -4						; size = 4
?FreePhysic@CPhysicNull@@UAEXXZ PROC			; CPhysicNull::FreePhysic, COMDAT
; _this$ = ecx

; 55   : 	virtual void	FreePhysic( void ) {}

	push	ebp
	mov	ebp, esp
	sub	esp, 68					; 00000044H
	push	ebx
	push	esi
	push	edi
	mov	DWORD PTR _this$[ebp], ecx
	pop	edi
	pop	esi
	pop	ebx
	mov	esp, ebp
	pop	ebp
	ret	0
?FreePhysic@CPhysicNull@@UAEXXZ ENDP			; CPhysicNull::FreePhysic
_TEXT	ENDS
; Function compile flags: /Odtp /ZI
; File d:\!diffusion 2020\source code 2022\client-server\server\world.cpp
;	COMDAT ?InitPhysic@CPhysicNull@@UAEXXZ
_TEXT	SEGMENT
_this$ = -4						; size = 4
?InitPhysic@CPhysicNull@@UAEXXZ PROC			; CPhysicNull::InitPhysic, COMDAT
; _this$ = ecx

; 54   : 	virtual void	InitPhysic( void ) {}

	push	ebp
	mov	ebp, esp
	sub	esp, 68					; 00000044H
	push	ebx
	push	esi
	push	edi
	mov	DWORD PTR _this$[ebp], ecx
	pop	edi
	pop	esi
	pop	ebx
	mov	esp, ebp
	pop	ebp
	ret	0
?InitPhysic@CPhysicNull@@UAEXXZ ENDP			; CPhysicNull::InitPhysic
_TEXT	ENDS
; Function compile flags: /Odtp /ZI
; File d:\!diffusion 2020\source code 2022\client-server\server\world.cpp
;	COMDAT ??__EgGlobalState@@YAXXZ
text$di	SEGMENT
??__EgGlobalState@@YAXXZ PROC				; `dynamic initializer for 'gGlobalState'', COMDAT

; 46   : CGlobalState			gGlobalState;

	push	ebp
	mov	ebp, esp
	sub	esp, 64					; 00000040H
	push	ebx
	push	esi
	push	edi
	mov	ecx, OFFSET ?gGlobalState@@3VCGlobalState@@A ; gGlobalState
	call	??0CGlobalState@@QAE@XZ			; CGlobalState::CGlobalState
	pop	edi
	pop	esi
	pop	ebx
	mov	esp, ebp
	pop	ebp
	ret	0
??__EgGlobalState@@YAXXZ ENDP				; `dynamic initializer for 'gGlobalState''
text$di	ENDS
; Function compile flags: /Odtp /ZI
;	COMDAT ??0CSoundEnt@@QAE@XZ
_TEXT	SEGMENT
_this$ = -16						; size = 4
__$EHRec$ = -12						; size = 12
??0CSoundEnt@@QAE@XZ PROC				; CSoundEnt::CSoundEnt, COMDAT
; _this$ = ecx
	push	ebp
	mov	ebp, esp
	push	-1
	push	__ehhandler$??0CSoundEnt@@QAE@XZ
	mov	eax, DWORD PTR fs:0
	push	eax
	sub	esp, 68					; 00000044H
	push	ebx
	push	esi
	push	edi
	mov	eax, DWORD PTR ___security_cookie
	xor	eax, ebp
	push	eax
	lea	eax, DWORD PTR __$EHRec$[ebp]
	mov	DWORD PTR fs:0, eax
	mov	DWORD PTR _this$[ebp], ecx
	mov	ecx, DWORD PTR _this$[ebp]
	call	??0CBaseEntity@@QAE@XZ
	mov	DWORD PTR __$EHRec$[ebp+8], 0
	mov	eax, DWORD PTR _this$[ebp]
	mov	DWORD PTR [eax], OFFSET ??_7CSoundEnt@@6B@
	push	OFFSET ??0CSound@@QAE@XZ
	push	128					; 00000080H
	push	36					; 00000024H
	mov	eax, DWORD PTR _this$[ebp]
	add	eax, 1820				; 0000071cH
	push	eax
	call	??_H@YGXPAXIIP6EPAX0@Z@Z
	mov	DWORD PTR __$EHRec$[ebp+8], -1
	mov	eax, DWORD PTR _this$[ebp]
	mov	ecx, DWORD PTR __$EHRec$[ebp]
	mov	DWORD PTR fs:0, ecx
	pop	ecx
	pop	edi
	pop	esi
	pop	ebx
	mov	esp, ebp
	pop	ebp
	ret	0
_TEXT	ENDS
;	COMDAT text$x
text$x	SEGMENT
__unwindfunclet$??0CSoundEnt@@QAE@XZ$0:
	mov	ecx, DWORD PTR _this$[ebp]
	jmp	??1CBaseEntity@@QAE@XZ
__ehhandler$??0CSoundEnt@@QAE@XZ:
	mov	edx, DWORD PTR [esp+8]
	lea	eax, DWORD PTR [edx+12]
	mov	ecx, DWORD PTR [edx-84]
	xor	ecx, eax
	call	@__security_check_cookie@4
	mov	eax, OFFSET __ehfuncinfo$??0CSoundEnt@@QAE@XZ
	jmp	___CxxFrameHandler3
text$x	ENDS
??0CSoundEnt@@QAE@XZ ENDP				; CSoundEnt::CSoundEnt
; Function compile flags: /Odtp /ZI
; File d:\!diffusion 2020\source code 2022\client-server\server\entities\soundent.h
;	COMDAT ?ObjectCaps@CSoundEnt@@UAEHXZ
_TEXT	SEGMENT
_this$ = -4						; size = 4
?ObjectCaps@CSoundEnt@@UAEHXZ PROC			; CSoundEnt::ObjectCaps, COMDAT
; _this$ = ecx

; 88   : 	virtual int	ObjectCaps( void ) { return FCAP_DONT_SAVE; }

	push	ebp
	mov	ebp, esp
	sub	esp, 68					; 00000044H
	push	ebx
	push	esi
	push	edi
	mov	DWORD PTR _this$[ebp], ecx
	mov	eax, -2147483648			; 80000000H
	pop	edi
	pop	esi
	pop	ebx
	mov	esp, ebp
	pop	ebp
	ret	0
?ObjectCaps@CSoundEnt@@UAEHXZ ENDP			; CSoundEnt::ObjectCaps
_TEXT	ENDS
; Function compile flags: /Odtp /ZI
;	COMDAT ??0CSound@@QAE@XZ
_TEXT	SEGMENT
_this$ = -4						; size = 4
??0CSound@@QAE@XZ PROC					; CSound::CSound, COMDAT
; _this$ = ecx
	push	ebp
	mov	ebp, esp
	sub	esp, 68					; 00000044H
	push	ebx
	push	esi
	push	edi
	mov	DWORD PTR _this$[ebp], ecx
	mov	ecx, DWORD PTR _this$[ebp]
	call	??0Vector@@QAE@XZ			; Vector::Vector
	mov	eax, DWORD PTR _this$[ebp]
	pop	edi
	pop	esi
	pop	ebx
	mov	esp, ebp
	pop	ebp
	ret	0
??0CSound@@QAE@XZ ENDP					; CSound::CSound
_TEXT	ENDS
; Function compile flags: /Odtp /ZI
;	COMDAT ??0CWorld@@QAE@XZ
_TEXT	SEGMENT
_this$ = -4						; size = 4
??0CWorld@@QAE@XZ PROC					; CWorld::CWorld, COMDAT
; _this$ = ecx
	push	ebp
	mov	ebp, esp
	sub	esp, 68					; 00000044H
	push	ebx
	push	esi
	push	edi
	mov	DWORD PTR _this$[ebp], ecx
	mov	ecx, DWORD PTR _this$[ebp]
	call	??0CBaseEntity@@QAE@XZ
	mov	eax, DWORD PTR _this$[ebp]
	mov	DWORD PTR [eax], OFFSET ??_7CWorld@@6B@
	mov	eax, DWORD PTR _this$[ebp]
	pop	edi
	pop	esi
	pop	ebx
	mov	esp, ebp
	pop	ebp
	ret	0
??0CWorld@@QAE@XZ ENDP					; CWorld::CWorld
_TEXT	ENDS
; Function compile flags: /Odtp /ZI
; File d:\!diffusion 2020\source code 2022\client-server\server\world.cpp
;	COMDAT ?KeyValue@CWorld@@UAEXPAUKeyValueData_s@@@Z
_TEXT	SEGMENT
tv321 = -80						; size = 8
tv332 = -76						; size = 4
_flag$1 = -8						; size = 4
_this$ = -4						; size = 4
_pkvd$ = 8						; size = 4
?KeyValue@CWorld@@UAEXPAUKeyValueData_s@@@Z PROC	; CWorld::KeyValue, COMDAT
; _this$ = ecx

; 831  : {

	push	ebp
	mov	ebp, esp
	sub	esp, 80					; 00000050H
	push	ebx
	push	esi
	push	edi
	mov	DWORD PTR _this$[ebp], ecx

; 832  : 	if ( FStrEq(pkvd->szKeyName, "skyname") )

	push	OFFSET ??_C@_07OAIDGMCI@skyname?$AA@
	mov	eax, DWORD PTR _pkvd$[ebp]
	mov	ecx, DWORD PTR [eax+4]
	push	ecx
	call	?FStrEq@@YAHPBD0@Z			; FStrEq
	add	esp, 8
	test	eax, eax
	je	SHORT $LN2@KeyValue

; 833  : 	{
; 834  : 		// Sent over net now.
; 835  : 		CVAR_SET_STRING( "sv_skyname", pkvd->szValue );

	mov	eax, DWORD PTR _pkvd$[ebp]
	mov	ecx, DWORD PTR [eax+8]
	push	ecx
	push	OFFSET ??_C@_0L@NPFKENCH@sv_skyname?$AA@
	call	DWORD PTR ?g_engfuncs@@3Uenginefuncs_s@@A+240
	add	esp, 8

; 836  : 		pkvd->fHandled = TRUE;

	mov	eax, DWORD PTR _pkvd$[ebp]
	mov	DWORD PTR [eax+12], 1
	jmp	$LN26@KeyValue
$LN2@KeyValue:

; 837  : 	}
; 838  : 	else if ( FStrEq(pkvd->szKeyName, "sounds") )

	push	OFFSET ??_C@_06OHLGPBPO@sounds?$AA@
	mov	eax, DWORD PTR _pkvd$[ebp]
	mov	ecx, DWORD PTR [eax+4]
	push	ecx
	call	?FStrEq@@YAHPBD0@Z			; FStrEq
	add	esp, 8
	test	eax, eax
	je	SHORT $LN4@KeyValue

; 839  : 	{
; 840  : 		gpGlobals->cdAudioTrack = atoi(pkvd->szValue);

	mov	eax, DWORD PTR _pkvd$[ebp]
	mov	ecx, DWORD PTR [eax+8]
	push	ecx
	call	_atoi
	add	esp, 4
	mov	edx, DWORD PTR ?gpGlobals@@3PAUglobalvars_t@@A ; gpGlobals
	mov	DWORD PTR [edx+140], eax

; 841  : 		pkvd->fHandled = TRUE;

	mov	eax, DWORD PTR _pkvd$[ebp]
	mov	DWORD PTR [eax+12], 1
	jmp	$LN26@KeyValue
$LN4@KeyValue:

; 842  : 	}
; 843  : 	else if ( FStrEq(pkvd->szKeyName, "WaveHeight") )

	push	OFFSET ??_C@_0L@PAPDKEGB@WaveHeight?$AA@
	mov	eax, DWORD PTR _pkvd$[ebp]
	mov	ecx, DWORD PTR [eax+4]
	push	ecx
	call	?FStrEq@@YAHPBD0@Z			; FStrEq
	add	esp, 8
	test	eax, eax
	je	SHORT $LN6@KeyValue

; 844  : 	{
; 845  : 		// Sent over net now.
; 846  : 		pev->scale = atof(pkvd->szValue) * (1.0/8.0);

	mov	eax, DWORD PTR _pkvd$[ebp]
	mov	ecx, DWORD PTR [eax+8]
	push	ecx
	call	_atof
	add	esp, 4
	fstp	QWORD PTR tv321[ebp]
	movsd	xmm0, QWORD PTR tv321[ebp]
	mulsd	xmm0, QWORD PTR __real@3fc0000000000000
	cvtsd2ss xmm0, xmm0
	mov	edx, DWORD PTR _this$[ebp]
	mov	eax, DWORD PTR [edx+4]
	movss	DWORD PTR [eax+324], xmm0

; 847  : 		pkvd->fHandled = TRUE;

	mov	eax, DWORD PTR _pkvd$[ebp]
	mov	DWORD PTR [eax+12], 1
	jmp	$LN26@KeyValue
$LN6@KeyValue:

; 848  : 	}
; 849  : 	else if ( FStrEq(pkvd->szKeyName, "MaxRange") )

	push	OFFSET ??_C@_08JOBCAEBO@MaxRange?$AA@
	mov	eax, DWORD PTR _pkvd$[ebp]
	mov	ecx, DWORD PTR [eax+4]
	push	ecx
	call	?FStrEq@@YAHPBD0@Z			; FStrEq
	add	esp, 8
	test	eax, eax
	je	SHORT $LN8@KeyValue

; 850  : 	{
; 851  : 		pev->speed = atof(pkvd->szValue);

	mov	eax, DWORD PTR _pkvd$[ebp]
	mov	ecx, DWORD PTR [eax+8]
	push	ecx
	call	_atof
	add	esp, 4
	fstp	DWORD PTR tv332[ebp]
	fld	DWORD PTR tv332[ebp]
	mov	edx, DWORD PTR _this$[ebp]
	mov	eax, DWORD PTR [edx+4]
	fstp	DWORD PTR [eax+504]

; 852  : 		pkvd->fHandled = TRUE;

	mov	eax, DWORD PTR _pkvd$[ebp]
	mov	DWORD PTR [eax+12], 1
	jmp	$LN26@KeyValue
$LN8@KeyValue:

; 853  : 	}
; 854  : 	else if ( FStrEq(pkvd->szKeyName, "chaptertitle") )

	push	OFFSET ??_C@_0N@PNMHOEPJ@chaptertitle?$AA@
	mov	eax, DWORD PTR _pkvd$[ebp]
	mov	ecx, DWORD PTR [eax+4]
	push	ecx
	call	?FStrEq@@YAHPBD0@Z			; FStrEq
	add	esp, 8
	test	eax, eax
	je	SHORT $LN10@KeyValue

; 855  : 	{
; 856  : 		pev->netname = ALLOC_STRING(pkvd->szValue);

	mov	eax, DWORD PTR _pkvd$[ebp]
	mov	ecx, DWORD PTR [eax+8]
	push	ecx
	call	DWORD PTR ?g_engfuncs@@3Uenginefuncs_s@@A+268
	add	esp, 4
	mov	edx, DWORD PTR _this$[ebp]
	mov	ecx, DWORD PTR [edx+4]
	mov	DWORD PTR [ecx+464], eax

; 857  : 		pkvd->fHandled = TRUE;

	mov	eax, DWORD PTR _pkvd$[ebp]
	mov	DWORD PTR [eax+12], 1
	jmp	$LN26@KeyValue
$LN10@KeyValue:

; 858  : 	}
; 859  : 	else if ( FStrEq(pkvd->szKeyName, "fog") )

	push	OFFSET ??_C@_03KJMBPJEB@fog?$AA@
	mov	eax, DWORD PTR _pkvd$[ebp]
	mov	ecx, DWORD PTR [eax+4]
	push	ecx
	call	?FStrEq@@YAHPBD0@Z			; FStrEq
	add	esp, 8
	test	eax, eax
	je	$LN12@KeyValue

; 860  : 	{
; 861  : 	//	int fog_settings[4];
; 862  : 		UTIL_StringToIntArray( fog_settings, 4, pkvd->szValue );

	mov	eax, DWORD PTR _pkvd$[ebp]
	mov	ecx, DWORD PTR [eax+8]
	push	ecx
	push	4
	mov	edx, DWORD PTR _this$[ebp]
	add	edx, 1804				; 0000070cH
	push	edx
	call	?UTIL_StringToIntArray@@YAXPAHHPBD@Z	; UTIL_StringToIntArray
	add	esp, 12					; 0000000cH

; 863  : 		pev->impulse = (fog_settings[0]<<24)|(fog_settings[1]<<16)|(fog_settings[2]<<8)|fog_settings[3];

	mov	eax, 4
	imul	ecx, eax, 0
	mov	edx, DWORD PTR _this$[ebp]
	mov	eax, DWORD PTR [edx+ecx+1804]
	shl	eax, 24					; 00000018H
	mov	ecx, 4
	shl	ecx, 0
	mov	edx, DWORD PTR _this$[ebp]
	mov	ecx, DWORD PTR [edx+ecx+1804]
	shl	ecx, 16					; 00000010H
	or	eax, ecx
	mov	edx, 4
	shl	edx, 1
	mov	ecx, DWORD PTR _this$[ebp]
	mov	edx, DWORD PTR [ecx+edx+1804]
	shl	edx, 8
	or	eax, edx
	mov	ecx, 4
	imul	edx, ecx, 3
	mov	ecx, DWORD PTR _this$[ebp]
	or	eax, DWORD PTR [ecx+edx+1804]
	mov	edx, DWORD PTR _this$[ebp]
	mov	ecx, DWORD PTR [edx+4]
	mov	DWORD PTR [ecx+388], eax

; 864  : 		pkvd->fHandled = TRUE;

	mov	eax, DWORD PTR _pkvd$[ebp]
	mov	DWORD PTR [eax+12], 1
	jmp	$LN26@KeyValue
$LN12@KeyValue:

; 865  : 	}
; 866  : 	else if ( FStrEq(pkvd->szKeyName, "startdark") )

	push	OFFSET ??_C@_09GFBFFKIC@startdark?$AA@
	mov	eax, DWORD PTR _pkvd$[ebp]
	mov	ecx, DWORD PTR [eax+4]
	push	ecx
	call	?FStrEq@@YAHPBD0@Z			; FStrEq
	add	esp, 8
	test	eax, eax
	je	SHORT $LN14@KeyValue

; 867  : 	{
; 868  : 		// UNDONE: This is a gross hack!!! The CVAR is NOT sent over the client/sever link
; 869  : 		// but it will work for single player
; 870  : 		int flag = atoi(pkvd->szValue);

	mov	eax, DWORD PTR _pkvd$[ebp]
	mov	ecx, DWORD PTR [eax+8]
	push	ecx
	call	_atoi
	add	esp, 4
	mov	DWORD PTR _flag$1[ebp], eax

; 871  : 		pkvd->fHandled = TRUE;

	mov	eax, DWORD PTR _pkvd$[ebp]
	mov	DWORD PTR [eax+12], 1

; 872  : 		if ( flag )

	cmp	DWORD PTR _flag$1[ebp], 0
	je	SHORT $LN16@KeyValue

; 873  : 			pev->spawnflags |= SF_WORLD_DARK;

	mov	eax, DWORD PTR _this$[ebp]
	mov	ecx, DWORD PTR [eax+4]
	mov	edx, DWORD PTR [ecx+416]
	or	edx, 1
	mov	eax, DWORD PTR _this$[ebp]
	mov	ecx, DWORD PTR [eax+4]
	mov	DWORD PTR [ecx+416], edx
$LN16@KeyValue:

; 874  : 	}

	jmp	$LN26@KeyValue
$LN14@KeyValue:

; 875  : 	else if ( FStrEq(pkvd->szKeyName, "newunit") )

	push	OFFSET ??_C@_07HGILGPPG@newunit?$AA@
	mov	eax, DWORD PTR _pkvd$[ebp]
	mov	ecx, DWORD PTR [eax+4]
	push	ecx
	call	?FStrEq@@YAHPBD0@Z			; FStrEq
	add	esp, 8
	test	eax, eax
	je	SHORT $LN17@KeyValue

; 876  : 	{
; 877  : 		// Single player only.  Clear save directory if set
; 878  : 		if ( atoi(pkvd->szValue) )

	mov	eax, DWORD PTR _pkvd$[ebp]
	mov	ecx, DWORD PTR [eax+8]
	push	ecx
	call	_atoi
	add	esp, 4
	test	eax, eax
	je	SHORT $LN19@KeyValue

; 879  : 			CVAR_SET_FLOAT( "sv_newunit", 1 );

	push	ecx
	movss	xmm0, DWORD PTR __real@3f800000
	movss	DWORD PTR [esp], xmm0
	push	OFFSET ??_C@_0L@EJFCEOPJ@sv_newunit?$AA@
	call	DWORD PTR ?g_engfuncs@@3Uenginefuncs_s@@A+236
	add	esp, 8
$LN19@KeyValue:

; 880  : 		pkvd->fHandled = TRUE;

	mov	eax, DWORD PTR _pkvd$[ebp]
	mov	DWORD PTR [eax+12], 1
	jmp	$LN26@KeyValue
$LN17@KeyValue:

; 881  : 	}
; 882  : 	else if ( FStrEq(pkvd->szKeyName, "gametitle") )

	push	OFFSET ??_C@_09EPLNALMJ@gametitle?$AA@
	mov	eax, DWORD PTR _pkvd$[ebp]
	mov	ecx, DWORD PTR [eax+4]
	push	ecx
	call	?FStrEq@@YAHPBD0@Z			; FStrEq
	add	esp, 8
	test	eax, eax
	je	SHORT $LN20@KeyValue

; 883  : 	{
; 884  : 		if ( atoi(pkvd->szValue) )

	mov	eax, DWORD PTR _pkvd$[ebp]
	mov	ecx, DWORD PTR [eax+8]
	push	ecx
	call	_atoi
	add	esp, 4
	test	eax, eax
	je	SHORT $LN22@KeyValue

; 885  : 			pev->spawnflags |= SF_WORLD_TITLE;

	mov	eax, DWORD PTR _this$[ebp]
	mov	ecx, DWORD PTR [eax+4]
	mov	edx, DWORD PTR [ecx+416]
	or	edx, 2
	mov	eax, DWORD PTR _this$[ebp]
	mov	ecx, DWORD PTR [eax+4]
	mov	DWORD PTR [ecx+416], edx
$LN22@KeyValue:

; 886  : 
; 887  : 		pkvd->fHandled = TRUE;

	mov	eax, DWORD PTR _pkvd$[ebp]
	mov	DWORD PTR [eax+12], 1
	jmp	$LN26@KeyValue
$LN20@KeyValue:

; 888  : 	}
; 889  : 	else if ( FStrEq(pkvd->szKeyName, "mapteams") )

	push	OFFSET ??_C@_08ECBFKIGG@mapteams?$AA@
	mov	eax, DWORD PTR _pkvd$[ebp]
	mov	ecx, DWORD PTR [eax+4]
	push	ecx
	call	?FStrEq@@YAHPBD0@Z			; FStrEq
	add	esp, 8
	test	eax, eax
	je	SHORT $LN23@KeyValue

; 890  : 	{
; 891  : 		pev->team = ALLOC_STRING( pkvd->szValue );

	mov	eax, DWORD PTR _pkvd$[ebp]
	mov	ecx, DWORD PTR [eax+8]
	push	ecx
	call	DWORD PTR ?g_engfuncs@@3Uenginefuncs_s@@A+268
	add	esp, 4
	mov	edx, DWORD PTR _this$[ebp]
	mov	ecx, DWORD PTR [edx+4]
	mov	DWORD PTR [ecx+428], eax

